	.file	"Projectile.cpp"
	.section	".text"
.Ltext0:
	.section	.text._ZN14idFixedWinding5ClearEv,"axG",@progbits,_ZN14idFixedWinding5ClearEv,comdat
	.align 2
	.weak	_ZN14idFixedWinding5ClearEv
	.type	_ZN14idFixedWinding5ClearEv, @function
_ZN14idFixedWinding5ClearEv:
.LFB1502:
	.file 1 "d:/Data/Nintendo/DoomGX/src/game/../idlib/../idlib/geometry/Winding.h"
	.loc 1 398 0
	.cfi_startproc
.LVL0:
	.loc 1 399 0
	li 0,0
	.loc 1 400 0
	.loc 1 399 0
	stw 0,4(3)
	.loc 1 400 0
	blr
	.cfi_endproc
.LFE1502:
	.size	_ZN14idFixedWinding5ClearEv, .-_ZN14idFixedWinding5ClearEv
	.section	".text"
	.align 2
	.globl _ZNK12idProjectile7GetTypeEv
	.type	_ZNK12idProjectile7GetTypeEv, @function
_ZNK12idProjectile7GetTypeEv:
.LFB2811:
	.file 2 "d:/Data/Nintendo/DoomGX/src/game/Projectile.cpp"
	.loc 2 52 0
	.cfi_startproc
.LVL1:
	.loc 2 52 0
	lis 3,.LANCHOR0@ha
.LVL2:
	la 3,.LANCHOR0@l(3)
	blr
	.cfi_endproc
.LFE2811:
	.size	_ZNK12idProjectile7GetTypeEv, .-_ZNK12idProjectile7GetTypeEv
	.align 2
	.globl _ZN12idProjectile21ClientPredictionThinkEv
	.type	_ZN12idProjectile21ClientPredictionThinkEv, @function
_ZN12idProjectile21ClientPredictionThinkEv:
.LFB2850:
	.loc 2 1072 0
	.cfi_startproc
.LVL3:
	mflr 0
	stwu 1,-8(1)
.LCFI0:
	.cfi_def_cfa_offset 8
	.cfi_register 65, 0
	stw 0,12(1)
	.loc 2 1073 0
	lwz 0,196(3)
	.cfi_offset 65, 4
	cmpwi 7,0,0
	beq- 7,.L3
	.loc 2 1076 0
	lwz 9,0(3)
	lwz 0,20(9)
	mtctr 0
	bctrl
.LVL4:
.L3:
	.loc 2 1077 0
	lwz 0,12(1)
	addi 1,1,8
.LCFI1:
	.cfi_def_cfa_offset 0
	mtlr 0
	blr
	.cfi_endproc
.LFE2850:
	.size	_ZN12idProjectile21ClientPredictionThinkEv, .-_ZN12idProjectile21ClientPredictionThinkEv
	.align 2
	.globl _ZNK18idGuidedProjectile7GetTypeEv
	.type	_ZNK18idGuidedProjectile7GetTypeEv, @function
_ZNK18idGuidedProjectile7GetTypeEv:
.LFB2855:
	.loc 2 1229 0
	.cfi_startproc
.LVL5:
	.loc 2 1229 0
	lis 3,.LANCHOR0@ha
.LVL6:
	la 3,.LANCHOR0@l(3)
	addi 3,3,80
	blr
	.cfi_endproc
.LFE2855:
	.size	_ZNK18idGuidedProjectile7GetTypeEv, .-_ZNK18idGuidedProjectile7GetTypeEv
	.align 2
	.globl _ZN18idGuidedProjectile5SpawnEv
	.type	_ZN18idGuidedProjectile5SpawnEv, @function
_ZN18idGuidedProjectile5SpawnEv:
.LFB2863:
	.loc 2 1269 0
	.cfi_startproc
.LVL7:
	.loc 2 1270 0
	blr
	.cfi_endproc
.LFE2863:
	.size	_ZN18idGuidedProjectile5SpawnEv, .-_ZN18idGuidedProjectile5SpawnEv
	.align 2
	.globl _ZNK17idSoulCubeMissile7GetTypeEv
	.type	_ZNK17idSoulCubeMissile7GetTypeEv, @function
_ZNK17idSoulCubeMissile7GetTypeEv:
.LFB2873:
	.loc 2 1456 0
	.cfi_startproc
.LVL8:
	.loc 2 1456 0
	lis 3,.LANCHOR0@ha
.LVL9:
	la 3,.LANCHOR0@l(3)
	addi 3,3,160
	blr
	.cfi_endproc
.LFE2873:
	.size	_ZNK17idSoulCubeMissile7GetTypeEv, .-_ZNK17idSoulCubeMissile7GetTypeEv
	.align 2
	.globl _ZN17idSoulCubeMissile5SpawnEv
	.type	_ZN17idSoulCubeMissile5SpawnEv, @function
_ZN17idSoulCubeMissile5SpawnEv:
.LFB2874:
	.loc 2 1464 0
	.cfi_startproc
.LVL10:
.LBB2684:
.LBB2685:
	.file 3 "d:/Data/Nintendo/DoomGX/src/game/../idlib/../idlib/math/Vector.h"
	.loc 3 416 0
	li 0,0
.LBE2685:
.LBE2684:
	.loc 2 1468 0
	li 9,0
.LBB2688:
.LBB2686:
	.loc 3 416 0
	stw 0,1572(3)
.LBE2686:
.LBE2688:
	.loc 2 1473 0
.LBB2689:
.LBB2687:
	.loc 3 416 0
	stw 0,1568(3)
	stw 0,1564(3)
.LVL11:
.LBE2687:
.LBE2689:
.LBB2690:
.LBB2691:
	stw 0,1584(3)
	stw 0,1580(3)
	stw 0,1576(3)
.LBE2691:
.LBE2690:
	.loc 2 1467 0
	stw 0,1588(3)
	.loc 2 1468 0
	stw 9,1592(3)
	.loc 2 1469 0
	stb 9,1596(3)
	.loc 2 1470 0
	stb 9,1597(3)
	.loc 2 1471 0
	stw 9,1628(3)
	.loc 2 1472 0
	stw 9,1632(3)
	.loc 2 1473 0
	blr
	.cfi_endproc
.LFE2874:
	.size	_ZN17idSoulCubeMissile5SpawnEv, .-_ZN17idSoulCubeMissile5SpawnEv
	.align 2
	.globl _ZNK15idBFGProjectile7GetTypeEv
	.type	_ZNK15idBFGProjectile7GetTypeEv, @function
_ZNK15idBFGProjectile7GetTypeEv:
.LFB2887:
	.loc 2 1677 0
	.cfi_startproc
.LVL12:
	.loc 2 1677 0
	lis 3,.LANCHOR0@ha
.LVL13:
	la 3,.LANCHOR0@l(3)
	addi 3,3,240
	blr
	.cfi_endproc
.LFE2887:
	.size	_ZNK15idBFGProjectile7GetTypeEv, .-_ZNK15idBFGProjectile7GetTypeEv
	.align 2
	.globl _ZNK8idDebris7GetTypeEv
	.type	_ZNK8idDebris7GetTypeEv, @function
_ZNK8idDebris7GetTypeEv:
.LFB2910:
	.loc 2 2065 0
	.cfi_startproc
.LVL14:
	.loc 2 2065 0
	lis 3,.LANCHOR0@ha
.LVL15:
	la 3,.LANCHOR0@l(3)
	addi 3,3,320
	blr
	.cfi_endproc
.LFE2910:
	.size	_ZNK8idDebris7GetTypeEv, .-_ZNK8idDebris7GetTypeEv
	.align 2
	.globl _ZN8idDebris5SpawnEv
	.type	_ZN8idDebris5SpawnEv, @function
_ZN8idDebris5SpawnEv:
.LFB2911:
	.loc 2 2075 0
	.cfi_startproc
.LVL16:
.LBB2692:
.LBB2693:
	.file 4 "d:/Data/Nintendo/DoomGX/src/game/Game_local.h"
	.loc 4 606 0
	li 0,0
.LBE2693:
.LBE2692:
	.loc 2 2079 0
.LBB2695:
.LBB2694:
	.loc 4 606 0
	stw 0,636(3)
.LBE2694:
.LBE2695:
	.loc 2 2077 0
	stw 0,1184(3)
	.loc 2 2078 0
	stw 0,1188(3)
	.loc 2 2079 0
	blr
	.cfi_endproc
.LFE2911:
	.size	_ZN8idDebris5SpawnEv, .-_ZN8idDebris5SpawnEv
	.section	.text._ZN9idWinding5ClearEv,"axG",@progbits,_ZN9idWinding5ClearEv,comdat
	.align 2
	.weak	_ZN9idWinding5ClearEv
	.type	_ZN9idWinding5ClearEv, @function
_ZN9idWinding5ClearEv:
.LFB1473:
	.loc 1 249 0
	.cfi_startproc
.LVL17:
	mflr 0
	stwu 1,-16(1)
.LCFI2:
	.cfi_def_cfa_offset 16
	.cfi_register 65, 0
	stw 31,12(1)
	mr 31,3
	.cfi_offset 31, -4
	stw 0,20(1)
	.loc 1 250 0
	li 0,0
	.cfi_offset 65, 4
	.loc 1 251 0
	lwz 3,8(3)
.LVL18:
	.loc 1 250 0
	stw 0,4(31)
	.loc 1 251 0
	cmpwi 7,3,0
	beq- 7,.L14
	.loc 1 251 0 is_stmt 0 discriminator 1
	bl _ZdaPv
.L14:
	.loc 1 252 0 is_stmt 1
	li 0,0
	stw 0,8(31)
	.loc 1 253 0
	lwz 0,20(1)
	lwz 31,12(1)
.LVL19:
	mtlr 0
	addi 1,1,16
.LCFI3:
	.cfi_def_cfa_offset 0
	.cfi_restore 31
	blr
	.cfi_endproc
.LFE1473:
	.size	_ZN9idWinding5ClearEv, .-_ZN9idWinding5ClearEv
	.section	.text._ZN9idWindingD2Ev,"axG",@progbits,_ZN9idWindingD5Ev,comdat
	.align 2
	.weak	_ZN9idWindingD2Ev
	.type	_ZN9idWindingD2Ev, @function
_ZN9idWindingD2Ev:
.LFB1461:
	.loc 1 183 0
	.cfi_startproc
.LVL20:
	mflr 0
	stwu 1,-16(1)
.LCFI4:
	.cfi_def_cfa_offset 16
	.cfi_register 65, 0
.LBB2697:
	lis 9,_ZTV9idWinding+8@ha
.LBE2697:
	stw 31,12(1)
	mr 31,3
	.cfi_offset 31, -4
	stw 0,20(1)
.LBB2698:
	.loc 1 183 0
	la 0,_ZTV9idWinding+8@l(9)
	.cfi_offset 65, 4
	.loc 1 184 0
	lwz 3,8(3)
.LVL21:
	.loc 1 183 0
	stw 0,0(31)
	.loc 1 184 0
	cmpwi 7,3,0
	beq- 7,.L16
	.loc 1 184 0 is_stmt 0 discriminator 1
	bl _ZdaPv
.L16:
	.loc 1 185 0 is_stmt 1
	li 0,0
	stw 0,8(31)
.LBE2698:
	.loc 1 186 0
	lwz 0,20(1)
	lwz 31,12(1)
.LVL22:
	mtlr 0
	addi 1,1,16
.LCFI5:
	.cfi_def_cfa_offset 0
	.cfi_restore 31
	blr
	.cfi_endproc
.LFE1461:
	.size	_ZN9idWindingD2Ev, .-_ZN9idWindingD2Ev
	.section	".text"
	.align 2
	.globl _ZN8idDebris7CollideERK7trace_sRK6idVec3
	.type	_ZN8idDebris7CollideERK7trace_sRK6idVec3, @function
_ZN8idDebris7CollideERK7trace_sRK6idVec3:
.LFB2925:
	.loc 2 2315 0
	.cfi_startproc
.LVL23:
	mflr 0
	stwu 1,-16(1)
.LCFI6:
	.cfi_def_cfa_offset 16
	.cfi_register 65, 0
	stw 31,12(1)
	mr 31,3
	.cfi_offset 31, -4
	stw 0,20(1)
	.loc 2 2316 0
	lwz 4,1192(3)
.LVL24:
	cmpwi 7,4,0
	beq- 7,.L19
	.cfi_offset 65, 4
	.loc 2 2317 0
	li 5,3
.LVL25:
	li 6,0
	li 7,0
	li 8,0
	bl _ZN8idEntity16StartSoundShaderEPK13idSoundShaderiibPi
.LVL26:
.L19:
	.loc 2 2319 0
	li 0,0
	.loc 2 2321 0
	li 3,0
	.loc 2 2319 0
	stw 0,1192(31)
	.loc 2 2321 0
	lwz 0,20(1)
	lwz 31,12(1)
.LVL27:
	mtlr 0
	addi 1,1,16
.LCFI7:
	.cfi_def_cfa_offset 0
	.cfi_restore 31
	blr
	.cfi_endproc
.LFE2925:
	.size	_ZN8idDebris7CollideERK7trace_sRK6idVec3, .-_ZN8idDebris7CollideERK7trace_sRK6idVec3
	.align 2
	.globl _ZN8idDebris7RestoreEP13idRestoreGame
	.type	_ZN8idDebris7RestoreEP13idRestoreGame, @function
_ZN8idDebris7RestoreEP13idRestoreGame:
.LFB2921:
	.loc 2 2142 0
	.cfi_startproc
.LVL28:
	stwu 1,-24(1)
.LCFI8:
	.cfi_def_cfa_offset 24
	mflr 0
	stw 31,20(1)
	mr 31,3
	.cfi_offset 31, -4
	.cfi_register 65, 0
.LVL29:
	stw 29,12(1)
.LBB2699:
.LBB2700:
	.loc 4 600 0
	mr 3,4
.LVL30:
.LBE2700:
.LBE2699:
	.loc 2 2145 0
	addi 29,31,640
	.cfi_offset 29, -12
	.loc 2 2142 0
	stw 30,16(1)
	mr 30,4
	.cfi_offset 30, -8
.LVL31:
.LBB2703:
.LBB2701:
	.loc 4 600 0
	addi 4,31,636
.LVL32:
.LBE2701:
.LBE2703:
	.loc 2 2142 0
	stw 0,28(1)
.LBB2704:
.LBB2702:
	.loc 4 600 0
	.cfi_offset 65, 4
	bl _ZN13idRestoreGame7ReadIntERi
.LVL33:
.LBE2702:
.LBE2704:
	.loc 2 2145 0
	mr 3,30
	mr 4,29
	bl _ZN13idRestoreGame16ReadStaticObjectER7idClass
	.loc 2 2146 0
	mr 3,31
	mr 4,29
	bl _ZN8idEntity14RestorePhysicsEP9idPhysics
	.loc 2 2148 0
	mr 3,30
	addi 4,31,1184
	bl _ZN13idRestoreGame12ReadParticleERPK14idDeclParticle
	.loc 2 2149 0
	mr 3,30
	addi 4,31,1188
	bl _ZN13idRestoreGame7ReadIntERi
	.loc 2 2150 0
	mr 3,30
	addi 4,31,1192
	bl _ZN13idRestoreGame15ReadSoundShaderERPK13idSoundShader
	.loc 2 2151 0
	lwz 0,28(1)
	lwz 29,12(1)
	mtlr 0
	lwz 30,16(1)
.LVL34:
	lwz 31,20(1)
.LVL35:
	addi 1,1,24
.LCFI9:
	.cfi_def_cfa_offset 0
	.cfi_restore 31
	.cfi_restore 30
	.cfi_restore 29
	blr
	.cfi_endproc
.LFE2921:
	.size	_ZN8idDebris7RestoreEP13idRestoreGame, .-_ZN8idDebris7RestoreEP13idRestoreGame
	.align 2
	.globl _ZNK8idDebris4SaveEP10idSaveGame
	.type	_ZNK8idDebris4SaveEP10idSaveGame, @function
_ZNK8idDebris4SaveEP10idSaveGame:
.LFB2920:
	.loc 2 2127 0
	.cfi_startproc
.LVL36:
	mflr 0
	stwu 1,-16(1)
.LCFI10:
	.cfi_def_cfa_offset 16
	.cfi_register 65, 0
	stw 30,8(1)
	mr 30,4
	.cfi_offset 30, -8
	stw 0,20(1)
	stw 31,12(1)
	.loc 2 2127 0
	mr 31,3
	.cfi_offset 31, -4
	.cfi_offset 65, 4
.LVL37:
.LBB2705:
.LBB2706:
	.loc 4 595 0
	lwz 4,636(3)
.LVL38:
	mr 3,30
.LVL39:
	bl _ZN10idSaveGame8WriteIntEi
.LBE2706:
.LBE2705:
	.loc 2 2130 0
	mr 3,30
	addi 4,31,640
.LVL40:
	bl _ZN10idSaveGame17WriteStaticObjectERK7idClass
	.loc 2 2132 0
	lwz 4,1184(31)
	mr 3,30
	bl _ZN10idSaveGame13WriteParticleEPK14idDeclParticle
	.loc 2 2133 0
	lwz 4,1188(31)
	mr 3,30
	bl _ZN10idSaveGame8WriteIntEi
	.loc 2 2134 0
	lwz 4,1192(31)
	mr 3,30
	bl _ZN10idSaveGame16WriteSoundShaderEPK13idSoundShader
	.loc 2 2135 0
	lwz 0,20(1)
	lwz 30,8(1)
.LVL41:
	mtlr 0
	lwz 31,12(1)
.LVL42:
	addi 1,1,16
.LCFI11:
	.cfi_def_cfa_offset 0
	.cfi_restore 31
	.cfi_restore 30
	blr
	.cfi_endproc
.LFE2920:
	.size	_ZNK8idDebris4SaveEP10idSaveGame, .-_ZNK8idDebris4SaveEP10idSaveGame
	.align 2
	.globl _ZN8idDebrisD2Ev
	.type	_ZN8idDebrisD2Ev, @function
_ZN8idDebrisD2Ev:
.LFB2917:
	.loc 2 2119 0
	.cfi_startproc
	.cfi_personality 0,__gxx_personality_v0
	.cfi_lsda 0,.LLSDA2917
.LVL43:
	mflr 0
	stwu 1,-16(1)
.LCFI12:
	.cfi_def_cfa_offset 16
	.cfi_register 65, 0
.LBB2707:
	lis 9,_ZTV8idDebris+8@ha
.LBE2707:
	stw 31,12(1)
	mr 31,3
	.cfi_offset 31, -4
	stw 0,20(1)
.LBB2708:
	la 0,_ZTV8idDebris+8@l(9)
	.cfi_offset 65, 4
.LBE2708:
	stw 30,8(1)
.LBB2709:
	.loc 2 2119 0
	stw 0,0(3)
	addi 3,3,640
.LVL44:
.LEHB0:
	.cfi_offset 30, -8
	bl _ZN19idPhysics_RigidBodyD1Ev
.LEHE0:
	.loc 2 2119 0 is_stmt 0 discriminator 1
	mr 3,31
.LEHB1:
	bl _ZN8idEntityD2Ev
.LEHE1:
.LBE2709:
	.loc 2 2120 0 is_stmt 1 discriminator 1
	lwz 0,20(1)
	lwz 30,8(1)
	mtlr 0
	lwz 31,12(1)
.LVL45:
	addi 1,1,16
	.cfi_remember_state
.LCFI13:
	.cfi_def_cfa_offset 0
	.cfi_restore 31
	.cfi_restore 30
	blr
.LVL46:
.L25:
.LCFI14:
	.cfi_restore_state
	mr 30,3
.LBB2710:
	.loc 2 2119 0
	mr 3,31
	bl _ZN8idEntityD2Ev
	mr 3,30
.LEHB2:
	bl _Unwind_Resume
.LEHE2:
.LBE2710:
	.cfi_endproc
.LFE2917:
	.globl __gxx_personality_v0
	.section	.gcc_except_table,"a",@progbits
.LLSDA2917:
	.byte	0xff
	.byte	0xff
	.byte	0x1
	.uleb128 .LLSDACSE2917-.LLSDACSB2917
.LLSDACSB2917:
	.uleb128 .LEHB0-.LFB2917
	.uleb128 .LEHE0-.LEHB0
	.uleb128 .L25-.LFB2917
	.uleb128 0
	.uleb128 .LEHB1-.LFB2917
	.uleb128 .LEHE1-.LEHB1
	.uleb128 0
	.uleb128 0
	.uleb128 .LEHB2-.LFB2917
	.uleb128 .LEHE2-.LEHB2
	.uleb128 0
	.uleb128 0
.LLSDACSE2917:
	.section	".text"
	.size	_ZN8idDebrisD2Ev, .-_ZN8idDebrisD2Ev
	.align 2
	.globl _ZN8idDebrisD0Ev
	.type	_ZN8idDebrisD0Ev, @function
_ZN8idDebrisD0Ev:
.LFB2919:
	.loc 2 2119 0
	.cfi_startproc
.LVL47:
	stwu 1,-16(1)
.LCFI15:
	.cfi_def_cfa_offset 16
	mflr 0
	stw 31,12(1)
	mr 31,3
	.cfi_offset 31, -4
	.cfi_register 65, 0
	stw 0,20(1)
	.loc 2 2120 0
	.cfi_offset 65, 4
	bl _ZN8idDebrisD1Ev
.LVL48:
	mr 3,31
	bl _ZN7idClassdlEPv
	lwz 0,20(1)
	lwz 31,12(1)
.LVL49:
	mtlr 0
	addi 1,1,16
.LCFI16:
	.cfi_def_cfa_offset 0
	.cfi_restore 31
	blr
	.cfi_endproc
.LFE2919:
	.size	_ZN8idDebrisD0Ev, .-_ZN8idDebrisD0Ev
	.align 2
	.globl _ZNK15idBFGProjectile4SaveEP10idSaveGame
	.type	_ZNK15idBFGProjectile4SaveEP10idSaveGame, @function
_ZNK15idBFGProjectile4SaveEP10idSaveGame:
.LFB2899:
	.loc 2 1740 0
	.cfi_startproc
.LVL50:
	mflr 0
	stwu 1,-24(1)
.LCFI17:
	.cfi_def_cfa_offset 24
	.cfi_register 65, 0
	stw 29,12(1)
	mr 29,4
	.cfi_offset 29, -12
	stw 0,28(1)
	stw 30,16(1)
	mr 30,3
	.cfi_offset 30, -8
	.cfi_offset 65, 4
	stw 28,8(1)
	stw 31,20(1)
.LBB2711:
	.loc 2 1743 0
	lwz 4,1496(3)
.LVL51:
	mr 3,29
.LVL52:
	.cfi_offset 31, -4
	.cfi_offset 28, -16
	bl _ZN10idSaveGame8WriteIntEi
.LVL53:
	.loc 2 1744 0
	lwz 0,1496(30)
	cmpwi 7,0,0
	ble- 7,.L29
	li 31,0
	li 28,0
.LVL54:
.L30:
.LBB2712:
.LBB2713:
	.loc 4 595 0 discriminator 2
	lwz 9,1508(30)
	mr 3,29
.LBE2713:
.LBE2712:
	.loc 2 1744 0 discriminator 2
	addi 28,28,1
.LVL55:
.LBB2715:
.LBB2714:
	.loc 4 595 0 discriminator 2
	lwzx 4,9,31
	bl _ZN10idSaveGame8WriteIntEi
.LVL56:
.LBE2714:
.LBE2715:
.LBB2716:
.LBB2717:
	.file 5 "d:/Data/Nintendo/DoomGX/src/game/../idlib/../idlib/containers/List.h"
	.loc 5 573 0 discriminator 2
	lwz 4,1508(30)
.LBE2717:
.LBE2716:
	.loc 2 1746 0 discriminator 2
	mr 3,29
.LBB2719:
.LBB2718:
	.loc 5 573 0 discriminator 2
	add 4,4,31
.LBE2718:
.LBE2719:
	.loc 2 1746 0 discriminator 2
	addi 4,4,4
	bl _ZN10idSaveGame17WriteRenderEntityERK14renderEntity_s
	.loc 2 1747 0 discriminator 2
	lwz 9,1508(30)
	mr 3,29
	add 9,9,31
	.loc 2 1744 0 discriminator 2
	addi 31,31,224
	.loc 2 1747 0 discriminator 2
	lwz 4,220(9)
	bl _ZN10idSaveGame8WriteIntEi
.LVL57:
	.loc 2 1744 0 discriminator 2
	lwz 0,1496(30)
	cmpw 7,0,28
	bgt+ 7,.L30
.LVL58:
.L29:
	.loc 2 1750 0
	addi 4,30,1512
	mr 3,29
	bl _ZN10idSaveGame17WriteRenderEntityERK14renderEntity_s
	.loc 2 1751 0
	lwz 4,1728(30)
	mr 3,29
	bl _ZN10idSaveGame8WriteIntEi
	.loc 2 1752 0
	lwz 4,1732(30)
	mr 3,29
	bl _ZN10idSaveGame8WriteIntEi
.LVL59:
	.loc 2 1753 0
	lwz 4,1740(30)
	mr 3,29
	bl _ZN10idSaveGame11WriteStringEPKc
.LBE2711:
	.loc 2 1754 0
	lwz 0,28(1)
	lwz 28,8(1)
	mtlr 0
	lwz 29,12(1)
.LVL60:
	lwz 30,16(1)
.LVL61:
	lwz 31,20(1)
	addi 1,1,24
.LCFI18:
	.cfi_def_cfa_offset 0
	.cfi_restore 31
	.cfi_restore 30
	.cfi_restore 29
	.cfi_restore 28
	blr
	.cfi_endproc
.LFE2899:
	.size	_ZNK15idBFGProjectile4SaveEP10idSaveGame, .-_ZNK15idBFGProjectile4SaveEP10idSaveGame
	.align 2
	.globl _ZN17idSoulCubeMissile7RestoreEP13idRestoreGame
	.type	_ZN17idSoulCubeMissile7RestoreEP13idRestoreGame, @function
_ZN17idSoulCubeMissile7RestoreEP13idRestoreGame:
.LFB2880:
	.loc 2 1507 0
	.cfi_startproc
.LVL62:
	stwu 1,-16(1)
.LCFI19:
	.cfi_def_cfa_offset 16
	mflr 0
	stw 31,12(1)
	mr 31,3
	.cfi_offset 31, -4
	.cfi_register 65, 0
	stw 30,8(1)
	.loc 2 1508 0
	mr 3,4
.LVL63:
	.loc 2 1507 0
	mr 30,4
	.cfi_offset 30, -8
	.loc 2 1508 0
	addi 4,31,1564
.LVL64:
	.loc 2 1507 0
	stw 0,20(1)
	.loc 2 1508 0
	.cfi_offset 65, 4
	bl _ZN13idRestoreGame8ReadVec3ER6idVec3
.LVL65:
	.loc 2 1509 0
	mr 3,30
	addi 4,31,1576
	bl _ZN13idRestoreGame8ReadVec3ER6idVec3
	.loc 2 1510 0
	mr 3,30
	addi 4,31,1588
	bl _ZN13idRestoreGame9ReadFloatERf
	.loc 2 1511 0
	mr 3,30
	addi 4,31,1592
	bl _ZN13idRestoreGame7ReadIntERi
	.loc 2 1512 0
	mr 3,30
	addi 4,31,1596
	bl _ZN13idRestoreGame8ReadBoolERb
	.loc 2 1513 0
	mr 3,30
	addi 4,31,1597
	bl _ZN13idRestoreGame8ReadBoolERb
	.loc 2 1514 0
	mr 3,30
	addi 4,31,1600
	bl _ZN13idRestoreGame8ReadVec3ER6idVec3
	.loc 2 1515 0
	mr 3,30
	addi 4,31,1624
	bl _ZN13idRestoreGame7ReadIntERi
	.loc 2 1516 0
	mr 3,30
	addi 4,31,1612
	bl _ZN13idRestoreGame8ReadVec3ER6idVec3
	.loc 2 1517 0
	mr 3,30
	addi 4,31,1628
	bl _ZN13idRestoreGame7ReadIntERi
	.loc 2 1518 0
	mr 3,30
	addi 4,31,1632
	bl _ZN13idRestoreGame12ReadParticleERPK14idDeclParticle
	.loc 2 1519 0
	lwz 0,20(1)
	lwz 30,8(1)
.LVL66:
	mtlr 0
	lwz 31,12(1)
.LVL67:
	addi 1,1,16
.LCFI20:
	.cfi_def_cfa_offset 0
	.cfi_restore 31
	.cfi_restore 30
	blr
	.cfi_endproc
.LFE2880:
	.size	_ZN17idSoulCubeMissile7RestoreEP13idRestoreGame, .-_ZN17idSoulCubeMissile7RestoreEP13idRestoreGame
	.align 2
	.globl _ZNK17idSoulCubeMissile4SaveEP10idSaveGame
	.type	_ZNK17idSoulCubeMissile4SaveEP10idSaveGame, @function
_ZNK17idSoulCubeMissile4SaveEP10idSaveGame:
.LFB2879:
	.loc 2 1488 0
	.cfi_startproc
.LVL68:
	stwu 1,-16(1)
.LCFI21:
	.cfi_def_cfa_offset 16
	mflr 0
	stw 31,12(1)
	mr 31,3
	.cfi_offset 31, -4
	.cfi_register 65, 0
	stw 30,8(1)
	.loc 2 1489 0
	mr 3,4
.LVL69:
	.loc 2 1488 0
	mr 30,4
	.cfi_offset 30, -8
	.loc 2 1489 0
	addi 4,31,1564
.LVL70:
	.loc 2 1488 0
	stw 0,20(1)
	.loc 2 1489 0
	.cfi_offset 65, 4
	bl _ZN10idSaveGame9WriteVec3ERK6idVec3
.LVL71:
	.loc 2 1490 0
	addi 4,31,1576
	mr 3,30
	bl _ZN10idSaveGame9WriteVec3ERK6idVec3
	.loc 2 1491 0
	lfs 1,1588(31)
	mr 3,30
	bl _ZN10idSaveGame10WriteFloatEf
	.loc 2 1492 0
	lwz 4,1592(31)
	mr 3,30
	bl _ZN10idSaveGame8WriteIntEi
	.loc 2 1493 0
	lbz 4,1596(31)
	mr 3,30
	bl _ZN10idSaveGame9WriteBoolEb
	.loc 2 1494 0
	lbz 4,1597(31)
	mr 3,30
	bl _ZN10idSaveGame9WriteBoolEb
	.loc 2 1495 0
	mr 3,30
	addi 4,31,1600
	bl _ZN10idSaveGame9WriteVec3ERK6idVec3
	.loc 2 1496 0
	lwz 4,1624(31)
	mr 3,30
	bl _ZN10idSaveGame8WriteIntEi
	.loc 2 1497 0
	mr 3,30
	addi 4,31,1612
	bl _ZN10idSaveGame9WriteVec3ERK6idVec3
	.loc 2 1498 0
	lwz 4,1628(31)
	mr 3,30
	bl _ZN10idSaveGame8WriteIntEi
	.loc 2 1499 0
	lwz 4,1632(31)
	mr 3,30
	bl _ZN10idSaveGame13WriteParticleEPK14idDeclParticle
	.loc 2 1500 0
	lwz 0,20(1)
	lwz 30,8(1)
.LVL72:
	mtlr 0
	lwz 31,12(1)
.LVL73:
	addi 1,1,16
.LCFI22:
	.cfi_def_cfa_offset 0
	.cfi_restore 31
	.cfi_restore 30
	blr
	.cfi_endproc
.LFE2879:
	.size	_ZNK17idSoulCubeMissile4SaveEP10idSaveGame, .-_ZNK17idSoulCubeMissile4SaveEP10idSaveGame
	.align 2
	.globl _ZN18idGuidedProjectile10GetSeekPosER6idVec3
	.type	_ZN18idGuidedProjectile10GetSeekPosER6idVec3, @function
_ZN18idGuidedProjectile10GetSeekPosER6idVec3:
.LFB2866:
	.loc 2 1318 0
	.cfi_startproc
.LVL74:
	mflr 0
	stwu 1,-40(1)
.LCFI23:
	.cfi_def_cfa_offset 40
	.cfi_register 65, 0
.LBB2720:
.LBB2721:
.LBB2722:
	.loc 4 635 0
	lis 9,gameLocal@ha
.LBE2722:
.LBE2721:
.LBE2720:
	.loc 2 1318 0
	stw 30,32(1)
.LBB2748:
.LBB2726:
.LBB2723:
	.loc 4 635 0
	la 9,gameLocal@l(9)
.LBE2723:
.LBE2726:
.LBE2748:
	.loc 2 1318 0
	stw 31,36(1)
	mr 30,3
	.cfi_offset 31, -4
	.cfi_offset 30, -8
.LVL75:
	stw 0,44(1)
	mr 31,4
	stw 29,28(1)
.LBB2749:
.LBB2727:
.LBB2724:
	.loc 4 634 0
	lwz 0,1500(3)
	.cfi_offset 29, -12
	.cfi_offset 65, 4
	rlwinm 11,0,0,20,31
.LVL76:
	.loc 4 635 0
	srawi 0,0,12
	addi 10,11,4228
	slwi 10,10,2
	add 10,9,10
	lwz 10,4(10)
	cmpw 7,10,0
	beq- 7,.L38
.LVL77:
.L35:
.LBE2724:
.LBE2727:
	.loc 2 1328 0
	mr 3,30
.LVL78:
	bl _ZNK8idEntity10GetPhysicsEv
.LVL79:
	li 4,0
	lwz 9,0(3)
	lwz 0,132(9)
	mtctr 0
	bctrl
	li 4,0
	mr 29,3
	addi 3,30,936
	bl _ZNK19idPhysics_RigidBody17GetLinearVelocityEi
.LVL80:
	.loc 3 452 0
	lis 9,.LC1@ha
	lfs 12,4(29)
	lfs 13,8(29)
.LBB2728:
.LBB2729:
	lfs 11,0(29)
.LBE2729:
.LBE2728:
	lfs 8,4(3)
	lfs 9,8(3)
.LBB2732:
.LBB2730:
	lfs 10,0(3)
.LBE2730:
.LBE2732:
	lfs 0,.LC1@l(9)
	fmadds 12,8,0,12
	fmadds 13,9,0,13
.LVL81:
.LBB2733:
.LBB2731:
	fmadds 0,10,0,11
	.loc 3 425 0
	stfs 12,4(31)
	.loc 3 426 0
	stfs 13,8(31)
	.loc 3 424 0
	stfs 0,0(31)
.LBE2731:
.LBE2733:
.LBE2749:
	.loc 2 1330 0
	lwz 0,44(1)
	lwz 29,28(1)
.LVL82:
	mtlr 0
	lwz 30,32(1)
.LVL83:
	lwz 31,36(1)
.LVL84:
	addi 1,1,40
	.cfi_remember_state
.LCFI24:
	.cfi_def_cfa_offset 0
	.cfi_restore 31
	.cfi_restore 30
	.cfi_restore 29
	blr
.LVL85:
.L38:
.LCFI25:
	.cfi_restore_state
.LBB2750:
.LBB2734:
.LBB2725:
	.loc 4 636 0
	addi 11,11,132
.LVL86:
	slwi 11,11,2
.LVL87:
	add 9,9,11
	lwz 29,4(9)
.LBE2725:
.LBE2734:
	.loc 2 1320 0
	cmpwi 7,29,0
	beq- 7,.L35
.LVL88:
.LBB2735:
.LBB2736:
	.file 6 "d:/Data/Nintendo/DoomGX/src/game/gamesys/Class.h"
	.loc 6 340 0
	lwz 9,0(29)
.LVL89:
	mr 3,29
.LVL90:
	lwz 0,0(9)
	mtctr 0
	bctrl
.LVL91:
.LBE2736:
	.loc 2 2410 0
	lis 9,_ZN7idActor4TypeE@ha
	la 9,_ZN7idActor4TypeE@l(9)
	lwz 0,56(3)
.LBB2739:
.LBB2737:
.LBB2738:
	.loc 6 311 0
	lwz 11,56(9)
	cmpw 7,0,11
	blt- 7,.L36
	lwz 9,60(9)
	cmpw 7,0,9
	bgt- 7,.L36
.LBE2738:
.LBE2737:
.LBE2739:
.LBE2735:
	.loc 2 1322 0
	addi 3,1,8
.LVL92:
	mr 4,29
	bl _ZNK7idActor14GetEyePositionEv
.LVL93:
	.loc 2 1323 0
	lis 9,.LC0@ha
	lfs 13,16(1)
	lfs 0,.LC0@l(9)
.LBB2740:
.LBB2741:
	.loc 3 424 0
	lwz 0,8(1)
.LBE2741:
.LBE2740:
	.loc 2 1323 0
	fsubs 0,13,0
.LBB2744:
.LBB2742:
	.loc 3 424 0
	stw 0,0(31)
	.loc 3 425 0
	lwz 0,12(1)
.LBE2742:
.LBE2744:
	.loc 2 1323 0
	stfs 0,8(31)
.LBB2745:
.LBB2743:
	.loc 3 425 0
	stw 0,4(31)
.LBE2743:
.LBE2745:
.LBE2750:
	.loc 2 1330 0
	lwz 0,44(1)
	lwz 29,28(1)
.LVL94:
	mtlr 0
	lwz 30,32(1)
.LVL95:
	lwz 31,36(1)
.LVL96:
	addi 1,1,40
	.cfi_remember_state
	.cfi_restore 29
	.cfi_restore 30
	.cfi_restore 31
.LCFI26:
	.cfi_def_cfa_offset 0
	blr
.LVL97:
.L36:
.LCFI27:
	.cfi_restore_state
.LBB2751:
	.loc 2 1325 0
	mr 3,29
.LVL98:
	bl _ZNK8idEntity10GetPhysicsEv
	li 4,0
	lwz 9,0(3)
	lwz 0,132(9)
	mtctr 0
	bctrl
.LVL99:
.LBB2746:
.LBB2747:
	.loc 3 424 0
	lwz 0,0(3)
	stw 0,0(31)
	.loc 3 425 0
	lwz 0,4(3)
	stw 0,4(31)
	.loc 3 426 0
	lwz 0,8(3)
	stw 0,8(31)
.LBE2747:
.LBE2746:
.LBE2751:
	.loc 2 1330 0
	lwz 0,44(1)
	lwz 29,28(1)
.LVL100:
	mtlr 0
	lwz 30,32(1)
.LVL101:
	lwz 31,36(1)
.LVL102:
	addi 1,1,40
	.cfi_restore 29
	.cfi_restore 30
	.cfi_restore 31
.LCFI28:
	.cfi_def_cfa_offset 0
	blr
	.cfi_endproc
.LFE2866:
	.size	_ZN18idGuidedProjectile10GetSeekPosER6idVec3, .-_ZN18idGuidedProjectile10GetSeekPosER6idVec3
	.align 2
	.globl _ZN17idSoulCubeMissile10GetSeekPosER6idVec3
	.type	_ZN17idSoulCubeMissile10GetSeekPosER6idVec3, @function
_ZN17idSoulCubeMissile10GetSeekPosER6idVec3:
.LFB2883:
	.loc 2 1604 0
	.cfi_startproc
.LVL103:
	mflr 0
	stwu 1,-40(1)
.LCFI29:
	.cfi_def_cfa_offset 40
	.cfi_register 65, 0
	stw 30,32(1)
	mr 30,4
	.cfi_offset 30, -8
	stw 31,36(1)
	mr 31,3
	.cfi_offset 31, -4
	stw 0,44(1)
	stw 29,28(1)
.LBB2752:
.LBB2753:
	.loc 2 1605 0
	lbz 0,1597(3)
	.cfi_offset 29, -12
	.cfi_offset 65, 4
	cmpwi 7,0,0
	beq- 7,.L40
.LVL104:
.LBB2754:
.LBB2755:
	.loc 4 634 0 discriminator 1
	lwz 0,636(3)
	.loc 4 635 0 discriminator 1
	lis 29,gameLocal@ha
	la 29,gameLocal@l(29)
	.loc 4 634 0 discriminator 1
	rlwinm 9,0,0,20,31
.LVL105:
	.loc 4 635 0 discriminator 1
	srawi 0,0,12
	addi 11,9,4228
	slwi 11,11,2
	add 11,29,11
	lwz 11,4(11)
	cmpw 7,11,0
	beq- 7,.L46
.LVL106:
.L40:
.LBE2755:
.LBE2754:
.LBE2753:
.LBB2768:
.LBB2769:
.LBB2770:
	.loc 3 497 0
	lis 9,vec3_origin@ha
	lfs 0,1600(31)
	lfs 13,vec3_origin@l(9)
	la 9,vec3_origin@l(9)
	fcmpu 7,0,13
	beq- 7,.L44
.L43:
.LVL107:
.LBE2770:
.LBE2769:
.LBE2768:
.LBB2773:
.LBB2774:
	.loc 3 424 0
	stfs 0,0(30)
	.loc 3 425 0
	lwz 0,1604(31)
	stw 0,4(30)
	.loc 3 426 0
	lwz 0,1608(31)
	stw 0,8(30)
.LBE2774:
.LBE2773:
.LBE2752:
	.loc 2 1615 0
	lwz 0,44(1)
	lwz 29,28(1)
	mtlr 0
	lwz 30,32(1)
.LVL108:
	lwz 31,36(1)
.LVL109:
	addi 1,1,40
	.cfi_remember_state
.LCFI30:
	.cfi_def_cfa_offset 0
	.cfi_restore 31
	.cfi_restore 30
	.cfi_restore 29
	blr
.LVL110:
.L44:
.LCFI31:
	.cfi_restore_state
.LBB2777:
.LBB2775:
.LBB2772:
.LBB2771:
	.loc 3 497 0
	lfs 12,1604(31)
	lfs 13,4(9)
	fcmpu 7,12,13
	bne- 7,.L43
	lfs 12,1608(31)
	lfs 13,8(9)
	fcmpu 7,12,13
	bne- 7,.L43
.LBE2771:
.LBE2772:
.LBE2775:
.LBE2777:
	.loc 2 1615 0
	lwz 0,44(1)
.LBB2778:
	.loc 2 1614 0
	mr 3,31
.LBE2778:
	.loc 2 1615 0
	lwz 29,28(1)
.LBB2779:
	.loc 2 1614 0
	mr 4,30
.LBE2779:
	.loc 2 1615 0
	lwz 31,36(1)
.LVL111:
	mtlr 0
	lwz 30,32(1)
.LVL112:
	addi 1,1,40
	.cfi_remember_state
.LCFI32:
	.cfi_def_cfa_offset 0
	.cfi_restore 31
	.cfi_restore 30
	.cfi_restore 29
.LBB2780:
	.loc 2 1614 0
	b _ZN18idGuidedProjectile10GetSeekPosER6idVec3
.LVL113:
.L46:
.LCFI33:
	.cfi_restore_state
.LBB2776:
.LBB2757:
.LBB2756:
	.loc 4 636 0
	addi 9,9,132
.LVL114:
	slwi 9,9,2
.LVL115:
	add 9,29,9
	lwz 3,4(9)
.LVL116:
.LBE2756:
.LBE2757:
	.loc 2 1605 0
	cmpwi 7,3,0
	beq- 7,.L40
.LVL117:
.LBB2758:
.LBB2759:
	.loc 6 340 0
	lwz 9,0(3)
.LVL118:
	lwz 0,0(9)
	mtctr 0
	bctrl
.LVL119:
.LBE2759:
	.loc 2 2410 0
	lis 9,_ZN7idActor4TypeE@ha
	la 9,_ZN7idActor4TypeE@l(9)
	lwz 0,56(3)
.LBB2762:
.LBB2760:
.LBB2761:
	.loc 6 311 0
	lwz 11,56(9)
	cmpw 7,0,11
	blt- 7,.L40
	lwz 9,60(9)
	cmpw 7,0,9
	bgt- 7,.L40
.LVL120:
.LBE2761:
.LBE2760:
.LBE2762:
.LBE2758:
.LBB2763:
.LBB2764:
.LBB2765:
	.loc 4 634 0 discriminator 5
	lwz 0,636(31)
	.loc 4 638 0 discriminator 5
	li 4,0
	.loc 4 634 0 discriminator 5
	rlwinm 9,0,0,20,31
.LVL121:
	.loc 4 635 0 discriminator 5
	srawi 0,0,12
	addi 11,9,4228
	slwi 11,11,2
	add 11,29,11
	lwz 11,4(11)
	cmpw 7,11,0
	bne+ 7,.L41
	.loc 4 636 0
	addi 9,9,132
.LVL122:
	slwi 9,9,2
.LVL123:
	add 29,29,9
	lwz 4,4(29)
.L41:
.LBE2765:
.LBE2764:
	.loc 2 1607 0
	addi 3,1,8
.LVL124:
	bl _ZNK7idActor14GetEyePositionEv
.LVL125:
.LBB2766:
.LBB2767:
	.loc 3 424 0
	lwz 0,8(1)
	stw 0,0(30)
	.loc 3 425 0
	lwz 0,12(1)
	stw 0,4(30)
	.loc 3 426 0
	lwz 0,16(1)
	stw 0,8(30)
.LBE2767:
.LBE2766:
.LBE2763:
.LBE2776:
.LBE2780:
	.loc 2 1615 0
	lwz 0,44(1)
	lwz 29,28(1)
	mtlr 0
	lwz 30,32(1)
.LVL126:
	lwz 31,36(1)
.LVL127:
	addi 1,1,40
	.cfi_restore 29
	.cfi_restore 30
	.cfi_restore 31
.LCFI34:
	.cfi_def_cfa_offset 0
	blr
	.cfi_endproc
.LFE2883:
	.size	_ZN17idSoulCubeMissile10GetSeekPosER6idVec3, .-_ZN17idSoulCubeMissile10GetSeekPosER6idVec3
	.align 2
	.globl _ZN18idGuidedProjectile7RestoreEP13idRestoreGame
	.type	_ZN18idGuidedProjectile7RestoreEP13idRestoreGame, @function
_ZN18idGuidedProjectile7RestoreEP13idRestoreGame:
.LFB2865:
	.loc 2 1297 0
	.cfi_startproc
.LVL128:
	stwu 1,-16(1)
.LCFI35:
	.cfi_def_cfa_offset 16
	mflr 0
	stw 31,12(1)
	mr 31,3
	.cfi_offset 31, -4
	.cfi_register 65, 0
.LVL129:
	stw 30,8(1)
.LBB2781:
.LBB2782:
	.loc 4 600 0
	mr 3,4
.LVL130:
.LBE2782:
.LBE2781:
	.loc 2 1297 0
	mr 30,4
	.cfi_offset 30, -8
.LVL131:
.LBB2785:
.LBB2783:
	.loc 4 600 0
	addi 4,31,1500
.LVL132:
.LBE2783:
.LBE2785:
	.loc 2 1297 0
	stw 0,20(1)
.LBB2786:
.LBB2784:
	.loc 4 600 0
	.cfi_offset 65, 4
	bl _ZN13idRestoreGame7ReadIntERi
.LVL133:
.LBE2784:
.LBE2786:
	.loc 2 1299 0
	mr 3,30
	addi 4,31,1496
	bl _ZN13idRestoreGame9ReadFloatERf
	.loc 2 1300 0
	mr 3,30
	addi 4,31,1504
	bl _ZN13idRestoreGame10ReadAnglesER8idAngles
	.loc 2 1301 0
	mr 3,30
	addi 4,31,1516
	bl _ZN13idRestoreGame10ReadAnglesER8idAngles
	.loc 2 1302 0
	mr 3,30
	addi 4,31,1540
	bl _ZN13idRestoreGame7ReadIntERi
	.loc 2 1303 0
	mr 3,30
	addi 4,31,1544
	bl _ZN13idRestoreGame9ReadFloatERf
	.loc 2 1304 0
	mr 3,30
	addi 4,31,1548
	bl _ZN13idRestoreGame9ReadFloatERf
	.loc 2 1305 0
	mr 3,30
	addi 4,31,1528
	bl _ZN13idRestoreGame10ReadAnglesER8idAngles
	.loc 2 1306 0
	mr 3,30
	addi 4,31,1552
	bl _ZN13idRestoreGame8ReadBoolERb
	.loc 2 1307 0
	mr 3,30
	addi 4,31,1553
	bl _ZN13idRestoreGame8ReadBoolERb
	.loc 2 1308 0
	mr 3,30
	addi 4,31,1556
	bl _ZN13idRestoreGame9ReadFloatERf
	.loc 2 1309 0
	mr 3,30
	addi 4,31,1560
	bl _ZN13idRestoreGame9ReadFloatERf
	.loc 2 1310 0
	lwz 0,20(1)
	lwz 30,8(1)
.LVL134:
	mtlr 0
	lwz 31,12(1)
.LVL135:
	addi 1,1,16
.LCFI36:
	.cfi_def_cfa_offset 0
	.cfi_restore 31
	.cfi_restore 30
	blr
	.cfi_endproc
.LFE2865:
	.size	_ZN18idGuidedProjectile7RestoreEP13idRestoreGame, .-_ZN18idGuidedProjectile7RestoreEP13idRestoreGame
	.align 2
	.globl _ZNK18idGuidedProjectile4SaveEP10idSaveGame
	.type	_ZNK18idGuidedProjectile4SaveEP10idSaveGame, @function
_ZNK18idGuidedProjectile4SaveEP10idSaveGame:
.LFB2864:
	.loc 2 1277 0
	.cfi_startproc
.LVL136:
	mflr 0
	stwu 1,-16(1)
.LCFI37:
	.cfi_def_cfa_offset 16
	.cfi_register 65, 0
	stw 30,8(1)
	mr 30,4
	.cfi_offset 30, -8
	stw 0,20(1)
	stw 31,12(1)
	.loc 2 1277 0
	mr 31,3
	.cfi_offset 31, -4
	.cfi_offset 65, 4
.LVL137:
.LBB2787:
.LBB2788:
	.loc 4 595 0
	lwz 4,1500(3)
.LVL138:
	mr 3,30
.LVL139:
	bl _ZN10idSaveGame8WriteIntEi
.LBE2788:
.LBE2787:
	.loc 2 1279 0
	lfs 1,1496(31)
	mr 3,30
	bl _ZN10idSaveGame10WriteFloatEf
	.loc 2 1280 0
	mr 3,30
	addi 4,31,1504
	bl _ZN10idSaveGame11WriteAnglesERK8idAngles
	.loc 2 1281 0
	mr 3,30
	addi 4,31,1516
	bl _ZN10idSaveGame11WriteAnglesERK8idAngles
	.loc 2 1282 0
	lwz 4,1540(31)
	mr 3,30
	bl _ZN10idSaveGame8WriteIntEi
	.loc 2 1283 0
	lfs 1,1544(31)
	mr 3,30
	bl _ZN10idSaveGame10WriteFloatEf
	.loc 2 1284 0
	lfs 1,1548(31)
	mr 3,30
	bl _ZN10idSaveGame10WriteFloatEf
	.loc 2 1285 0
	mr 3,30
	addi 4,31,1528
	bl _ZN10idSaveGame11WriteAnglesERK8idAngles
	.loc 2 1286 0
	lbz 4,1552(31)
	mr 3,30
	bl _ZN10idSaveGame9WriteBoolEb
	.loc 2 1287 0
	lbz 4,1553(31)
	mr 3,30
	bl _ZN10idSaveGame9WriteBoolEb
	.loc 2 1288 0
	lfs 1,1556(31)
	mr 3,30
	bl _ZN10idSaveGame10WriteFloatEf
	.loc 2 1289 0
	lfs 1,1560(31)
	mr 3,30
	bl _ZN10idSaveGame10WriteFloatEf
	.loc 2 1290 0
	lwz 0,20(1)
	lwz 30,8(1)
.LVL140:
	mtlr 0
	lwz 31,12(1)
.LVL141:
	addi 1,1,16
.LCFI38:
	.cfi_def_cfa_offset 0
	.cfi_restore 31
	.cfi_restore 30
	blr
	.cfi_endproc
.LFE2864:
	.size	_ZNK18idGuidedProjectile4SaveEP10idSaveGame, .-_ZNK18idGuidedProjectile4SaveEP10idSaveGame
	.align 2
	.globl _ZN12idProjectile24Event_GetProjectileStateEv
	.type	_ZN12idProjectile24Event_GetProjectileStateEv, @function
_ZN12idProjectile24Event_GetProjectileStateEv:
.LFB2842:
	.loc 2 767 0
	.cfi_startproc
.LVL142:
	mflr 0
	stwu 1,-8(1)
.LCFI39:
	.cfi_def_cfa_offset 8
	.cfi_register 65, 0
	stw 0,12(1)
	.loc 2 768 0
	lwz 3,1488(3)
.LVL143:
	.cfi_offset 65, 4
	bl _ZN8idThread9ReturnIntEi
	.loc 2 769 0
	lwz 0,12(1)
	addi 1,1,8
.LCFI40:
	.cfi_def_cfa_offset 0
	mtlr 0
	blr
	.cfi_endproc
.LFE2842:
	.size	_ZN12idProjectile24Event_GetProjectileStateEv, .-_ZN12idProjectile24Event_GetProjectileStateEv
	.align 2
	.globl _ZNK12idProjectile4SaveEP10idSaveGame
	.type	_ZNK12idProjectile4SaveEP10idSaveGame, @function
_ZNK12idProjectile4SaveEP10idSaveGame:
.LFB2819:
	.loc 2 111 0
	.cfi_startproc
.LVL144:
	mflr 0
	stwu 1,-40(1)
.LCFI41:
	.cfi_def_cfa_offset 40
	.cfi_register 65, 0
	stw 29,28(1)
.LBB2789:
	.loc 2 115 0
	mr 29,1
	.cfi_offset 29, -12
.LBE2789:
	.loc 2 111 0
	stw 0,44(1)
	stw 30,32(1)
	mr 30,4
	.cfi_offset 30, -8
	.cfi_offset 65, 4
	stw 31,36(1)
	.loc 2 111 0
	mr 31,3
	.cfi_offset 31, -4
.LVL145:
.LBB2792:
.LBB2790:
.LBB2791:
	.loc 4 595 0
	lwz 4,636(3)
.LVL146:
	mr 3,30
.LVL147:
	bl _ZN10idSaveGame8WriteIntEi
.LBE2791:
.LBE2790:
	.loc 2 115 0
	lbz 0,640(31)
	.loc 2 116 0
	li 4,1
	.loc 2 115 0
	stbu 0,8(29)
	.loc 2 116 0
	mr 3,29
	bl _Z14LittleBitFieldPvi
	.loc 2 117 0
	li 5,1
	mr 4,29
	mr 3,30
	bl _ZN10idSaveGame5WriteEPKvi
	.loc 2 119 0
	lfs 1,644(31)
	mr 3,30
	bl _ZN10idSaveGame10WriteFloatEf
	.loc 2 120 0
	lwz 4,648(31)
	mr 3,30
	bl _ZN10idSaveGame8WriteIntEi
	.loc 2 122 0
	mr 3,30
	addi 4,31,656
.LVL148:
	bl _ZN10idSaveGame16WriteRenderLightERK13renderLight_s
	.loc 2 123 0
	lwz 4,864(31)
	mr 3,30
	bl _ZN10idSaveGame8WriteIntEi
	.loc 2 124 0
	mr 3,30
	addi 4,31,868
	bl _ZN10idSaveGame9WriteVec3ERK6idVec3
	.loc 2 125 0
	lwz 4,880(31)
	mr 3,30
	bl _ZN10idSaveGame8WriteIntEi
	.loc 2 126 0
	lwz 4,884(31)
	mr 3,30
	bl _ZN10idSaveGame8WriteIntEi
	.loc 2 127 0
	mr 3,30
	addi 4,31,888
	bl _ZN10idSaveGame9WriteVec3ERK6idVec3
	.loc 2 129 0
	lwz 4,1480(31)
	mr 3,30
	bl _ZN10idSaveGame13WriteParticleEPK14idDeclParticle
	.loc 2 130 0
	lwz 4,1484(31)
	mr 3,30
	bl _ZN10idSaveGame8WriteIntEi
	.loc 2 132 0
	lwz 4,1488(31)
	mr 3,30
	bl _ZN10idSaveGame8WriteIntEi
	.loc 2 134 0
	lfs 1,652(31)
	mr 3,30
	bl _ZN10idSaveGame10WriteFloatEf
	.loc 2 136 0
	mr 3,30
	addi 4,31,936
	bl _ZN10idSaveGame17WriteStaticObjectERK7idClass
	.loc 2 137 0
	mr 3,30
	addi 4,31,900
	bl _ZN10idSaveGame17WriteStaticObjectERK7idClass
.LBE2792:
	.loc 2 138 0
	lwz 0,44(1)
	lwz 29,28(1)
	mtlr 0
	lwz 30,32(1)
.LVL149:
	lwz 31,36(1)
.LVL150:
	addi 1,1,40
.LCFI42:
	.cfi_def_cfa_offset 0
	.cfi_restore 31
	.cfi_restore 30
	.cfi_restore 29
	blr
	.cfi_endproc
.LFE2819:
	.size	_ZNK12idProjectile4SaveEP10idSaveGame, .-_ZNK12idProjectile4SaveEP10idSaveGame
	.align 2
	.globl _ZN12idProjectile5SpawnEv
	.type	_ZN12idProjectile5SpawnEv, @function
_ZN12idProjectile5SpawnEv:
.LFB2818:
	.loc 2 97 0
	.cfi_startproc
	.cfi_personality 0,__gxx_personality_v0
	.cfi_lsda 0,.LLSDA2818
.LVL151:
	stwu 1,-24(1)
.LCFI43:
	.cfi_def_cfa_offset 24
	mflr 0
	.loc 2 98 0
	mr 4,3
	.loc 2 97 0
	stw 31,20(1)
	.loc 2 98 0
	addi 31,3,936
	.cfi_offset 31, -4
	.cfi_register 65, 0
	.loc 2 97 0
	stw 30,16(1)
	mr 30,3
	.cfi_offset 30, -8
	.loc 2 98 0
	mr 3,31
.LVL152:
	.loc 2 97 0
	stw 0,28(1)
	stw 28,8(1)
	stw 29,12(1)
.LEHB3:
	.loc 2 98 0
	.cfi_offset 29, -12
	.cfi_offset 28, -16
	.cfi_offset 65, 4
	bl _ZN14idPhysics_Base7SetSelfEP8idEntity
.LVL153:
	.loc 2 99 0
	mr 3,30
	bl _ZNK8idEntity10GetPhysicsEv
	li 4,0
	lwz 9,0(3)
	lwz 0,24(9)
	mtctr 0
	bctrl
	mr 28,3
	li 3,140
	bl _Znwj
.LEHE3:
	mr 4,28
	mr 29,3
.LEHB4:
	bl _ZN11idClipModelC1EPKS_
.LEHE4:
	.loc 2 99 0 is_stmt 0 discriminator 1
	lis 9,.LC2@ha
	li 6,1
	lfs 1,.LC2@l(9)
	mr 4,29
	mr 3,31
	li 5,0
.LEHB5:
	bl _ZN19idPhysics_RigidBody12SetClipModelEP11idClipModelfib
	.loc 2 100 0 is_stmt 1 discriminator 1
	mr 3,31
	li 4,0
	li 5,-1
	bl _ZN19idPhysics_RigidBody11SetContentsEii
	.loc 2 101 0 discriminator 1
	mr 3,31
	li 4,0
	li 5,-1
	bl _ZN14idPhysics_Base11SetClipMaskEii
	.loc 2 102 0 discriminator 1
	mr 3,31
	bl _ZN19idPhysics_RigidBody9PutToRestEv
	.loc 2 103 0 discriminator 1
	mr 3,30
	mr 4,31
	bl _ZN8idEntity10SetPhysicsEP9idPhysics
	.loc 2 104 0 discriminator 1
	lwz 0,28(1)
	lwz 28,8(1)
	mtlr 0
	lwz 29,12(1)
	lwz 30,16(1)
.LVL154:
	lwz 31,20(1)
.LVL155:
	addi 1,1,24
	.cfi_remember_state
.LCFI44:
	.cfi_def_cfa_offset 0
	.cfi_restore 31
	.cfi_restore 30
	.cfi_restore 29
	.cfi_restore 28
	blr
.LVL156:
.L53:
.LCFI45:
	.cfi_restore_state
	mr 31,3
	.loc 2 99 0
	mr 3,29
	bl _ZdlPv
	mr 3,31
	bl _Unwind_Resume
.LEHE5:
	.cfi_endproc
.LFE2818:
	.section	.gcc_except_table
.LLSDA2818:
	.byte	0xff
	.byte	0xff
	.byte	0x1
	.uleb128 .LLSDACSE2818-.LLSDACSB2818
.LLSDACSB2818:
	.uleb128 .LEHB3-.LFB2818
	.uleb128 .LEHE3-.LEHB3
	.uleb128 0
	.uleb128 0
	.uleb128 .LEHB4-.LFB2818
	.uleb128 .LEHE4-.LEHB4
	.uleb128 .L53-.LFB2818
	.uleb128 0
	.uleb128 .LEHB5-.LFB2818
	.uleb128 .LEHE5-.LEHB5
	.uleb128 0
	.uleb128 0
.LLSDACSE2818:
	.section	".text"
	.size	_ZN12idProjectile5SpawnEv, .-_ZN12idProjectile5SpawnEv
	.align 2
	.globl _ZN12idProjectile12FreeLightDefEv
	.type	_ZN12idProjectile12FreeLightDefEv, @function
_ZN12idProjectile12FreeLightDefEv:
.LFB2827:
	.loc 2 267 0
	.cfi_startproc
.LVL157:
	mflr 0
	stwu 1,-16(1)
.LCFI46:
	.cfi_def_cfa_offset 16
	.cfi_register 65, 0
	stw 31,12(1)
	mr 31,3
	.cfi_offset 31, -4
	stw 0,20(1)
	.loc 2 268 0
	lwz 4,864(3)
	cmpwi 7,4,-1
	beq- 7,.L54
	.cfi_offset 65, 4
.LVL158:
.LBB2795:
.LBB2796:
	.loc 2 269 0
	lis 9,gameRenderWorld@ha
	lwz 3,gameRenderWorld@l(9)
.LVL159:
	lwz 9,0(3)
	lwz 0,40(9)
	mtctr 0
	bctrl
	.loc 2 270 0
	li 0,-1
	stw 0,864(31)
.LVL160:
.L54:
.LBE2796:
.LBE2795:
	.loc 2 272 0
	lwz 0,20(1)
	lwz 31,12(1)
.LVL161:
	mtlr 0
	addi 1,1,16
.LCFI47:
	.cfi_def_cfa_offset 0
	.cfi_restore 31
	blr
	.cfi_endproc
.LFE2827:
	.size	_ZN12idProjectile12FreeLightDefEv, .-_ZN12idProjectile12FreeLightDefEv
	.align 2
	.globl _ZN12idProjectileD2Ev
	.type	_ZN12idProjectileD2Ev, @function
_ZN12idProjectileD2Ev:
.LFB2824:
	.loc 2 257 0
	.cfi_startproc
	.cfi_personality 0,__gxx_personality_v0
	.cfi_lsda 0,.LLSDA2824
.LVL162:
	mflr 0
	stwu 1,-16(1)
.LCFI48:
	.cfi_def_cfa_offset 16
	.cfi_register 65, 0
.LBB2797:
	lis 9,_ZTV12idProjectile+8@ha
	.loc 2 258 0
	li 4,0
.LBE2797:
	.loc 2 257 0
	stw 31,12(1)
.LBB2798:
	.loc 2 258 0
	li 5,0
.LBE2798:
	.loc 2 257 0
	stw 0,20(1)
.LBB2799:
	la 0,_ZTV12idProjectile+8@l(9)
	.cfi_offset 65, 4
	.cfi_offset 31, -4
.LBE2799:
	stw 30,8(1)
	.loc 2 257 0
	mr 31,3
.LBB2800:
	stw 0,0(3)
.LEHB6:
	.loc 2 258 0
	.cfi_offset 30, -8
	bl _ZN8idEntity9StopSoundEib
.LVL163:
	.loc 2 259 0
	mr 3,31
	bl _ZN12idProjectile12FreeLightDefEv
.LEHE6:
	.loc 2 257 0
	addi 3,31,936
.LEHB7:
	bl _ZN19idPhysics_RigidBodyD1Ev
.LEHE7:
	.loc 2 257 0 is_stmt 0 discriminator 1
	addi 3,31,900
.LEHB8:
	bl _ZN16idForce_ConstantD1Ev
.LEHE8:
	.loc 2 257 0 discriminator 2
	mr 3,31
.LEHB9:
	bl _ZN8idEntityD2Ev
.LEHE9:
.LBE2800:
	.loc 2 260 0 is_stmt 1 discriminator 2
	lwz 0,20(1)
	lwz 30,8(1)
	mtlr 0
	lwz 31,12(1)
.LVL164:
	addi 1,1,16
	.cfi_remember_state
.LCFI49:
	.cfi_def_cfa_offset 0
	.cfi_restore 31
	.cfi_restore 30
	blr
.LVL165:
.L61:
.LCFI50:
	.cfi_restore_state
	mr 30,3
.LBB2801:
	.loc 2 257 0
	addi 3,31,936
	bl _ZN19idPhysics_RigidBodyD1Ev
.L59:
	addi 3,31,900
	bl _ZN16idForce_ConstantD1Ev
.L60:
	mr 3,31
	bl _ZN8idEntityD2Ev
	mr 3,30
.LEHB10:
	bl _Unwind_Resume
.LEHE10:
.L63:
	mr 30,3
	b .L60
.L62:
	mr 30,3
	b .L59
.LBE2801:
	.cfi_endproc
.LFE2824:
	.section	.gcc_except_table
.LLSDA2824:
	.byte	0xff
	.byte	0xff
	.byte	0x1
	.uleb128 .LLSDACSE2824-.LLSDACSB2824
.LLSDACSB2824:
	.uleb128 .LEHB6-.LFB2824
	.uleb128 .LEHE6-.LEHB6
	.uleb128 .L61-.LFB2824
	.uleb128 0
	.uleb128 .LEHB7-.LFB2824
	.uleb128 .LEHE7-.LEHB7
	.uleb128 .L62-.LFB2824
	.uleb128 0
	.uleb128 .LEHB8-.LFB2824
	.uleb128 .LEHE8-.LEHB8
	.uleb128 .L63-.LFB2824
	.uleb128 0
	.uleb128 .LEHB9-.LFB2824
	.uleb128 .LEHE9-.LEHB9
	.uleb128 0
	.uleb128 0
	.uleb128 .LEHB10-.LFB2824
	.uleb128 .LEHE10-.LEHB10
	.uleb128 0
	.uleb128 0
.LLSDACSE2824:
	.section	".text"
	.size	_ZN12idProjectileD2Ev, .-_ZN12idProjectileD2Ev
	.align 2
	.globl _ZN18idGuidedProjectileD2Ev
	.type	_ZN18idGuidedProjectileD2Ev, @function
_ZN18idGuidedProjectileD2Ev:
.LFB2860:
	.loc 2 1261 0
	.cfi_startproc
.LVL166:
.LBB2802:
	.loc 2 1261 0
	lis 9,_ZTV18idGuidedProjectile+8@ha
.LBE2802:
	.loc 2 1262 0
.LBB2803:
	.loc 2 1261 0
	la 0,_ZTV18idGuidedProjectile+8@l(9)
	stw 0,0(3)
	b _ZN12idProjectileD2Ev
.LVL167:
.LBE2803:
	.cfi_endproc
.LFE2860:
	.size	_ZN18idGuidedProjectileD2Ev, .-_ZN18idGuidedProjectileD2Ev
	.align 2
	.globl _ZN17idSoulCubeMissileD2Ev
	.type	_ZN17idSoulCubeMissileD2Ev, @function
_ZN17idSoulCubeMissileD2Ev:
.LFB2876:
	.loc 2 1480 0
	.cfi_startproc
.LVL168:
.LBB2804:
	.loc 2 1480 0
	lis 9,_ZTV17idSoulCubeMissile+8@ha
.LBE2804:
	.loc 2 1481 0
.LBB2805:
	.loc 2 1480 0
	la 0,_ZTV17idSoulCubeMissile+8@l(9)
	stw 0,0(3)
	b _ZN18idGuidedProjectileD2Ev
.LVL169:
.LBE2805:
	.cfi_endproc
.LFE2876:
	.size	_ZN17idSoulCubeMissileD2Ev, .-_ZN17idSoulCubeMissileD2Ev
	.align 2
	.globl _ZN17idSoulCubeMissileD0Ev
	.type	_ZN17idSoulCubeMissileD0Ev, @function
_ZN17idSoulCubeMissileD0Ev:
.LFB2878:
	.loc 2 1480 0
	.cfi_startproc
.LVL170:
	stwu 1,-16(1)
.LCFI51:
	.cfi_def_cfa_offset 16
	mflr 0
	stw 31,12(1)
	mr 31,3
	.cfi_offset 31, -4
	.cfi_register 65, 0
	stw 0,20(1)
	.loc 2 1481 0
	.cfi_offset 65, 4
	bl _ZN17idSoulCubeMissileD1Ev
.LVL171:
	mr 3,31
	bl _ZN7idClassdlEPv
	lwz 0,20(1)
	lwz 31,12(1)
.LVL172:
	mtlr 0
	addi 1,1,16
.LCFI52:
	.cfi_def_cfa_offset 0
	.cfi_restore 31
	blr
	.cfi_endproc
.LFE2878:
	.size	_ZN17idSoulCubeMissileD0Ev, .-_ZN17idSoulCubeMissileD0Ev
	.align 2
	.globl _ZN18idGuidedProjectileD0Ev
	.type	_ZN18idGuidedProjectileD0Ev, @function
_ZN18idGuidedProjectileD0Ev:
.LFB2862:
	.loc 2 1261 0
	.cfi_startproc
.LVL173:
	stwu 1,-16(1)
.LCFI53:
	.cfi_def_cfa_offset 16
	mflr 0
	stw 31,12(1)
	mr 31,3
	.cfi_offset 31, -4
	.cfi_register 65, 0
	stw 0,20(1)
	.loc 2 1262 0
	.cfi_offset 65, 4
	bl _ZN18idGuidedProjectileD1Ev
.LVL174:
	mr 3,31
	bl _ZN7idClassdlEPv
	lwz 0,20(1)
	lwz 31,12(1)
.LVL175:
	mtlr 0
	addi 1,1,16
.LCFI54:
	.cfi_def_cfa_offset 0
	.cfi_restore 31
	blr
	.cfi_endproc
.LFE2862:
	.size	_ZN18idGuidedProjectileD0Ev, .-_ZN18idGuidedProjectileD0Ev
	.align 2
	.globl _ZN12idProjectileD0Ev
	.type	_ZN12idProjectileD0Ev, @function
_ZN12idProjectileD0Ev:
.LFB2826:
	.loc 2 257 0
	.cfi_startproc
.LVL176:
	stwu 1,-16(1)
.LCFI55:
	.cfi_def_cfa_offset 16
	mflr 0
	stw 31,12(1)
	mr 31,3
	.cfi_offset 31, -4
	.cfi_register 65, 0
	stw 0,20(1)
	.loc 2 260 0
	.cfi_offset 65, 4
	bl _ZN12idProjectileD1Ev
.LVL177:
	mr 3,31
	bl _ZN7idClassdlEPv
	lwz 0,20(1)
	lwz 31,12(1)
.LVL178:
	mtlr 0
	addi 1,1,16
.LCFI56:
	.cfi_def_cfa_offset 0
	.cfi_restore 31
	blr
	.cfi_endproc
.LFE2826:
	.size	_ZN12idProjectileD0Ev, .-_ZN12idProjectileD0Ev
	.align 2
	.globl _ZN8idDebris5ThinkEv
	.type	_ZN8idDebris5ThinkEv, @function
_ZN8idDebris5ThinkEv:
.LFB2923:
	.loc 2 2284 0
	.cfi_startproc
.LVL179:
	stwu 1,-40(1)
.LCFI57:
	.cfi_def_cfa_offset 40
	mflr 0
	stw 31,36(1)
	mr 31,3
	.cfi_offset 31, -4
	.cfi_register 65, 0
	stw 0,44(1)
	stw 29,28(1)
	stw 26,16(1)
	stw 27,20(1)
	stw 28,24(1)
	stw 30,32(1)
	.loc 2 2287 0
	.cfi_offset 30, -8
	.cfi_offset 28, -16
	.cfi_offset 27, -20
	.cfi_offset 26, -24
	.cfi_offset 29, -12
	.cfi_offset 65, 4
	bl _ZN8idEntity10RunPhysicsEv
.LVL180:
	.loc 2 2288 0
	lwz 9,0(31)
	mr 3,31
	lwz 0,32(9)
	mtctr 0
	bctrl
	.loc 2 2290 0
	lwz 29,1184(31)
	cmpwi 7,29,0
	beq- 7,.L74
	.loc 2 2290 0 is_stmt 0 discriminator 1
	lwz 28,1188(31)
	cmpwi 7,28,0
	bne- 7,.L76
.L74:
	.loc 2 2295 0 is_stmt 1
	lwz 0,44(1)
	lwz 26,16(1)
	mtlr 0
	lwz 27,20(1)
	lwz 28,24(1)
	lwz 29,28(1)
	lwz 30,32(1)
	lwz 31,36(1)
.LVL181:
	addi 1,1,40
	.cfi_remember_state
.LCFI58:
	.cfi_def_cfa_offset 0
	.cfi_restore 31
	.cfi_restore 30
	.cfi_restore 29
	.cfi_restore 28
	.cfi_restore 27
	.cfi_restore 26
	blr
.LVL182:
.L76:
.LCFI59:
	.cfi_restore_state
.LBB2814:
.LBB2815:
	.loc 2 2291 0
	lis 11,gameLocal@ha
.LBB2816:
.LBB2817:
.LBB2818:
.LBB2819:
.LBB2820:
.LBB2821:
	.file 7 "d:/Data/Nintendo/DoomGX/src/game/../idlib/../idlib/math/Random.h"
	.loc 7 71 0
	lis 27,0x1
.LBE2821:
.LBE2820:
.LBE2819:
.LBE2818:
.LBE2817:
.LBE2816:
	.loc 2 2291 0
	la 11,gameLocal@l(11)
.LBB2851:
.LBB2844:
.LBB2836:
.LBB2828:
.LBB2825:
.LBB2822:
	.loc 7 71 0
	ori 27,27,3533
	addis 9,11,0x1
.LBE2822:
.LBE2825:
.LBE2828:
.LBE2836:
.LBE2844:
.LBE2851:
	.loc 2 2291 0
	mr 3,31
.LBB2852:
.LBB2845:
.LBB2837:
.LBB2829:
.LBB2826:
.LBB2823:
	.loc 7 71 0
	lwz 0,-32064(9)
.LBE2823:
.LBE2826:
.LBE2829:
.LBE2837:
.LBE2845:
.LBE2852:
	.loc 2 2291 0
	addis 11,11,0x25
	lwz 26,1972(11)
.LVL183:
.LBB2853:
.LBB2846:
.LBB2838:
.LBB2830:
.LBB2827:
.LBB2824:
	.loc 7 71 0
	mullw 27,27,0
	addi 27,27,1
	stw 27,-32064(9)
	.loc 7 72 0
	rlwinm 27,27,0,17,31
.LBE2824:
.LBE2827:
	.loc 7 83 0
	xoris 27,27,0x8000
.LBE2830:
.LBE2838:
.LBE2846:
.LBE2853:
	.loc 2 2291 0
	bl _ZNK8idEntity10GetPhysicsEv
	li 4,0
	lwz 9,0(3)
	lwz 0,132(9)
	mtctr 0
	bctrl
	mr 30,3
	mr 3,31
	bl _ZNK8idEntity10GetPhysicsEv
	li 4,0
	lwz 9,0(3)
	lwz 0,136(9)
	mtctr 0
	bctrl
.LBB2854:
.LBB2847:
.LBB2839:
.LBB2831:
	.loc 7 83 0
	lis 0,0x4330
	stw 27,12(1)
	lis 9,.LC4@ha
	stw 0,8(1)
.LBE2831:
.LBE2839:
.LBE2847:
.LBE2854:
	.loc 2 2291 0
	mr 7,3
.LBB2855:
.LBB2848:
.LBB2840:
.LBB2832:
	.loc 7 83 0
	lfs 0,.LC4@l(9)
.LBE2832:
.LBE2840:
	.loc 7 87 0
	lis 9,.LC6@ha
.LBB2841:
.LBB2833:
	.loc 7 83 0
	lfd 1,8(1)
.LBE2833:
.LBE2841:
.LBE2848:
.LBE2855:
	.loc 2 2291 0
	mr 3,26
	mr 4,29
	mr 5,28
.LBB2856:
.LBB2849:
.LBB2842:
.LBB2834:
	.loc 7 83 0
	fsub 1,1,0
.LBE2834:
.LBE2842:
	.loc 7 87 0
	lfs 0,.LC6@l(9)
	lis 9,.LC5@ha
.LBE2849:
.LBE2856:
	.loc 2 2291 0
	mr 6,30
.LBB2857:
.LBB2850:
	.loc 7 87 0
	lfs 13,.LC5@l(9)
.LBB2843:
.LBB2835:
	.loc 7 83 0
	frsp 1,1
.LBE2835:
.LBE2843:
	.loc 7 87 0
	fmsubs 1,1,13,0
.LBE2850:
.LBE2857:
	.loc 2 2291 0
	fadds 1,1,1
	bl _ZN16idSmokeParticles9EmitSmokeEPK14idDeclParticleifRK6idVec3RK6idMat3
	cmpwi 0,3,0
	bne- 0,.L74
	.loc 2 2292 0
	stw 3,1188(31)
.LBE2815:
.LBE2814:
	.loc 2 2295 0
	lwz 0,44(1)
	lwz 26,16(1)
	mtlr 0
	lwz 27,20(1)
	lwz 28,24(1)
	lwz 29,28(1)
	lwz 30,32(1)
	lwz 31,36(1)
.LVL184:
	addi 1,1,40
	.cfi_restore 26
	.cfi_restore 27
	.cfi_restore 28
	.cfi_restore 29
	.cfi_restore 30
	.cfi_restore 31
.LCFI60:
	.cfi_def_cfa_offset 0
	blr
	.cfi_endproc
.LFE2923:
	.size	_ZN8idDebris5ThinkEv, .-_ZN8idDebris5ThinkEv
	.align 2
	.type	_Z41__static_initialization_and_destruction_0ii.constprop.52, @function
_Z41__static_initialization_and_destruction_0ii.constprop.52:
.LFB3291:
	.loc 2 2410 0
	.cfi_startproc
.LVL185:
	cmpwi 7,3,1
	mflr 0
	stwu 1,-56(1)
.LCFI61:
	.cfi_def_cfa_offset 56
	.cfi_register 65, 0
	stw 0,60(1)
	stw 26,32(1)
	stw 27,36(1)
	stw 28,40(1)
	stw 29,44(1)
	stw 30,48(1)
	stw 31,52(1)
	.loc 2 2410 0
	beq- 7,.L80
	.cfi_offset 31, -4
	.cfi_offset 30, -8
	.cfi_offset 29, -12
	.cfi_offset 28, -16
	.cfi_offset 27, -20
	.cfi_offset 26, -24
	.cfi_offset 65, 4
	.loc 2 2065 0
	cmpwi 7,3,0
	bne- 7,.L77
	lis 31,.LANCHOR0@ha
	la 31,.LANCHOR0@l(31)
	addi 3,31,320
.LVL186:
	bl _ZN10idTypeInfoD1Ev
	.loc 2 1677 0
	addi 3,31,240
	bl _ZN10idTypeInfoD1Ev
	.loc 2 1456 0
	addi 3,31,160
	bl _ZN10idTypeInfoD1Ev
	.loc 2 1229 0
	addi 3,31,80
	bl _ZN10idTypeInfoD1Ev
	.loc 2 52 0
	mr 3,31
	bl _ZN10idTypeInfoD1Ev
.L77:
	.loc 2 2410 0
	lwz 0,60(1)
	lwz 26,32(1)
	mtlr 0
	lwz 27,36(1)
	lwz 28,40(1)
	lwz 29,44(1)
	lwz 30,48(1)
	lwz 31,52(1)
	addi 1,1,56
	.cfi_remember_state
.LCFI62:
	.cfi_def_cfa_offset 0
	.cfi_restore 31
	.cfi_restore 30
	.cfi_restore 29
	.cfi_restore 28
	.cfi_restore 27
	.cfi_restore 26
	blr
.LVL187:
.L80:
.LCFI63:
	.cfi_restore_state
	.loc 4 694 0
	lis 9,_ZN6idMath8M_SEC2MSE@ha
	.loc 4 121 0
	lis 31,.LANCHOR0@ha
	.loc 4 694 0
	lfs 0,_ZN6idMath8M_SEC2MSE@l(9)
	.loc 4 121 0
	la 31,.LANCHOR0@l(31)
	li 11,3
.LBB2858:
.LBB2859:
	.loc 3 396 0
	li 0,0
.LBE2859:
.LBE2858:
	.loc 4 694 0
	fadds 0,0,0
	.loc 4 121 0
	stw 11,400(31)
.LVL188:
.LBB2863:
.LBB2860:
	.loc 3 398 0
	lis 11,.LC7@ha
	.loc 3 396 0
	stw 0,404(31)
	.loc 3 397 0
	stw 0,408(31)
.LBE2860:
.LBE2863:
.LBB2864:
.LBB2865:
	.file 8 "d:/Data/Nintendo/DoomGX/src/game/../idlib/../idlib/math/Math.h"
	.loc 8 825 0
	addi 9,31,416
	fctiwz 0,0
.LBE2865:
.LBE2864:
.LBB2867:
.LBB2861:
	.loc 3 398 0
	lwz 0,.LC7@l(11)
.LBE2861:
.LBE2867:
	.loc 2 47 0
	lis 4,.LC8@ha
	addi 3,31,424
.LVL189:
.LBB2868:
.LBB2862:
	.loc 3 398 0
	stw 0,412(31)
.LVL190:
.LBE2862:
.LBE2868:
	.file 9 "d:/Data/Nintendo/DoomGX/src/game/Player.h"
	.loc 9 69 0
	li 0,10
.LBB2869:
.LBB2866:
	.loc 8 825 0
	stfiwx 0,0,9
.LVL191:
.LBE2866:
.LBE2869:
	.loc 2 47 0
	la 4,.LC8@l(4)
	.loc 9 69 0
	stw 0,420(31)
	.loc 2 47 0
	li 5,0
	li 6,0
	.loc 2 52 0
	lis 28,.LC13@ha
	.loc 2 47 0
	bl _ZN10idEventDefC1EPKcS1_c
	.loc 2 48 0
	lis 4,.LC9@ha
	addi 3,31,488
	la 4,.LC9@l(4)
	li 5,0
	li 6,0
	bl _ZN10idEventDefC1EPKcS1_c
	.loc 2 49 0
	lis 4,.LC10@ha
	lis 5,.LC11@ha
	addi 3,31,552
	la 4,.LC10@l(4)
	la 5,.LC11@l(5)
	li 6,0
	.loc 2 52 0
	lis 29,.LANCHOR1@ha
	.loc 2 49 0
	bl _ZN10idEventDefC1EPKcS1_c
	.loc 2 50 0
	lis 4,.LC12@ha
	addi 3,31,616
	la 4,.LC12@l(4)
	li 5,0
	li 6,100
	bl _ZN10idEventDefC1EPKcS1_c
	.loc 2 52 0
	lis 11,_ZN12idProjectile5SpawnEv@ha
	la 0,_ZN12idProjectile5SpawnEv@l(11)
	lis 27,.LC14@ha
	lis 11,_ZNK12idProjectile4SaveEP10idSaveGame@ha
	la 28,.LC13@l(28)
	la 29,.LANCHOR1@l(29)
	la 27,.LC14@l(27)
	stw 0,8(1)
	lis 7,_ZN12idProjectile14CreateInstanceEv@ha
	la 0,_ZNK12idProjectile4SaveEP10idSaveGame@l(11)
	lis 11,_ZN12idProjectile7RestoreEP13idRestoreGame@ha
	li 30,0
	mr 3,31
	mr 4,28
	mr 5,27
	mr 6,29
	addi 8,1,8
	addi 9,1,16
	addi 10,1,24
	stw 0,16(1)
	la 7,_ZN12idProjectile14CreateInstanceEv@l(7)
	la 0,_ZN12idProjectile7RestoreEP13idRestoreGame@l(11)
	stw 30,12(1)
	stw 0,24(1)
	.loc 2 1229 0
	lis 26,.LC15@ha
	.loc 2 52 0
	stw 30,20(1)
	.loc 2 1229 0
	la 26,.LC15@l(26)
	.loc 2 52 0
	stw 30,28(1)
	bl _ZN10idTypeInfoC1EPKcS1_P11idEventFuncI7idClassEPFPS3_vEMS3_FvvEMS3_KFvP10idSaveGameEMS3_FvP13idRestoreGameE
	.loc 2 1229 0
	lis 11,_ZN18idGuidedProjectile5SpawnEv@ha
	lis 7,_ZN18idGuidedProjectile14CreateInstanceEv@ha
	la 0,_ZN18idGuidedProjectile5SpawnEv@l(11)
	lis 11,_ZNK18idGuidedProjectile4SaveEP10idSaveGame@ha
	stw 0,8(1)
	la 0,_ZNK18idGuidedProjectile4SaveEP10idSaveGame@l(11)
	lis 11,_ZN18idGuidedProjectile7RestoreEP13idRestoreGame@ha
	addi 3,31,80
	mr 4,26
	mr 5,28
	addi 6,31,680
	addi 8,1,8
	addi 9,1,16
	addi 10,1,24
	stw 0,16(1)
	la 7,_ZN18idGuidedProjectile14CreateInstanceEv@l(7)
	la 0,_ZN18idGuidedProjectile7RestoreEP13idRestoreGame@l(11)
	stw 30,12(1)
	stw 0,24(1)
	stw 30,20(1)
	stw 30,28(1)
	bl _ZN10idTypeInfoC1EPKcS1_P11idEventFuncI7idClassEPFPS3_vEMS3_FvvEMS3_KFvP10idSaveGameEMS3_FvP13idRestoreGameE
	.loc 2 1456 0
	lis 11,_ZN17idSoulCubeMissile5SpawnEv@ha
	lis 7,_ZN17idSoulCubeMissile14CreateInstanceEv@ha
	la 0,_ZN17idSoulCubeMissile5SpawnEv@l(11)
	lis 11,_ZNK17idSoulCubeMissile4SaveEP10idSaveGame@ha
	stw 0,8(1)
	lis 4,.LC16@ha
	la 0,_ZNK17idSoulCubeMissile4SaveEP10idSaveGame@l(11)
	lis 11,_ZN17idSoulCubeMissile7RestoreEP13idRestoreGame@ha
	addi 8,1,8
	addi 9,1,16
	addi 10,1,24
	la 7,_ZN17idSoulCubeMissile14CreateInstanceEv@l(7)
	addi 3,31,160
	mr 5,26
	addi 6,31,692
	stw 0,16(1)
	la 4,.LC16@l(4)
	la 0,_ZN17idSoulCubeMissile7RestoreEP13idRestoreGame@l(11)
	stw 0,24(1)
	stw 30,12(1)
	stw 30,20(1)
	stw 30,28(1)
	bl _ZN10idTypeInfoC1EPKcS1_P11idEventFuncI7idClassEPFPS3_vEMS3_FvvEMS3_KFvP10idSaveGameEMS3_FvP13idRestoreGameE
	.loc 2 1675 0
	lis 4,.LC17@ha
	addi 3,31,704
	la 4,.LC17@l(4)
	li 5,0
	li 6,0
	bl _ZN10idEventDefC1EPKcS1_c
	.loc 2 1677 0
	lis 11,_ZN15idBFGProjectile5SpawnEv@ha
	la 0,_ZN15idBFGProjectile5SpawnEv@l(11)
	lis 11,_ZNK15idBFGProjectile4SaveEP10idSaveGame@ha
	stw 0,8(1)
	lis 4,.LC18@ha
	la 0,_ZNK15idBFGProjectile4SaveEP10idSaveGame@l(11)
	lis 7,_ZN15idBFGProjectile14CreateInstanceEv@ha
	lis 11,_ZN15idBFGProjectile7RestoreEP13idRestoreGame@ha
	addi 3,31,240
	mr 5,28
	addi 6,29,72
	addi 8,1,8
	addi 9,1,16
	addi 10,1,24
	stw 0,16(1)
	la 4,.LC18@l(4)
	la 0,_ZN15idBFGProjectile7RestoreEP13idRestoreGame@l(11)
	la 7,_ZN15idBFGProjectile14CreateInstanceEv@l(7)
	stw 0,24(1)
	stw 30,12(1)
	stw 30,20(1)
	stw 30,28(1)
	bl _ZN10idTypeInfoC1EPKcS1_P11idEventFuncI7idClassEPFPS3_vEMS3_FvvEMS3_KFvP10idSaveGameEMS3_FvP13idRestoreGameE
	.loc 2 2065 0
	lis 11,_ZN8idDebris5SpawnEv@ha
	lis 4,.LC19@ha
	la 0,_ZN8idDebris5SpawnEv@l(11)
	lis 11,_ZNK8idDebris4SaveEP10idSaveGame@ha
	stw 0,8(1)
	lis 7,_ZN8idDebris14CreateInstanceEv@ha
	la 0,_ZNK8idDebris4SaveEP10idSaveGame@l(11)
	lis 11,_ZN8idDebris7RestoreEP13idRestoreGame@ha
	stw 0,16(1)
	addi 3,31,320
	la 0,_ZN8idDebris7RestoreEP13idRestoreGame@l(11)
	la 4,.LC19@l(4)
	mr 5,27
	addi 6,29,96
	la 7,_ZN8idDebris14CreateInstanceEv@l(7)
	addi 8,1,8
	addi 9,1,16
	addi 10,1,24
	stw 30,12(1)
	stw 30,20(1)
	stw 0,24(1)
	stw 30,28(1)
	bl _ZN10idTypeInfoC1EPKcS1_P11idEventFuncI7idClassEPFPS3_vEMS3_FvvEMS3_KFvP10idSaveGameEMS3_FvP13idRestoreGameE
	b .L77
	.cfi_endproc
.LFE3291:
	.size	_Z41__static_initialization_and_destruction_0ii.constprop.52, .-_Z41__static_initialization_and_destruction_0ii.constprop.52
	.section	.text._ZN9idWindingD0Ev,"axG",@progbits,_ZN9idWindingD5Ev,comdat
	.align 2
	.weak	_ZN9idWindingD0Ev
	.type	_ZN9idWindingD0Ev, @function
_ZN9idWindingD0Ev:
.LFB1463:
	.loc 1 183 0
	.cfi_startproc
.LVL192:
	mflr 0
	stwu 1,-16(1)
.LCFI64:
	.cfi_def_cfa_offset 16
	.cfi_register 65, 0
.LBB2873:
.LBB2874:
.LBB2875:
	lis 9,_ZTV9idWinding+8@ha
.LBE2875:
.LBE2874:
.LBE2873:
	stw 31,12(1)
	mr 31,3
	.cfi_offset 31, -4
.LVL193:
	stw 0,20(1)
.LBB2880:
.LBB2878:
.LBB2876:
	.loc 1 183 0
	la 0,_ZTV9idWinding+8@l(9)
	.cfi_offset 65, 4
	.loc 1 184 0
	lwz 3,8(3)
.LVL194:
	.loc 1 183 0
	stw 0,0(31)
	.loc 1 184 0
	cmpwi 7,3,0
	beq- 7,.L82
	bl _ZdaPv
.LVL195:
.L82:
	.loc 1 185 0
	li 0,0
.LBE2876:
.LBE2878:
.LBE2880:
	.loc 1 186 0
	mr 3,31
.LBB2881:
.LBB2879:
.LBB2877:
	.loc 1 185 0
	stw 0,8(31)
.LBE2877:
.LBE2879:
.LBE2881:
	.loc 1 186 0
	bl _ZdlPv
	lwz 0,20(1)
	lwz 31,12(1)
.LVL196:
	mtlr 0
	addi 1,1,16
.LCFI65:
	.cfi_def_cfa_offset 0
	.cfi_restore 31
	blr
	.cfi_endproc
.LFE1463:
	.size	_ZN9idWindingD0Ev, .-_ZN9idWindingD0Ev
	.section	.text._ZN14idFixedWindingD2Ev,"axG",@progbits,_ZN14idFixedWindingD5Ev,comdat
	.align 2
	.weak	_ZN14idFixedWindingD2Ev
	.type	_ZN14idFixedWindingD2Ev, @function
_ZN14idFixedWindingD2Ev:
.LFB1498:
	.loc 1 380 0
	.cfi_startproc
.LVL197:
.LBB2887:
	.loc 1 381 0
	li 0,0
.LBB2888:
.LBB2889:
.LBB2890:
	.loc 1 183 0
	lis 9,_ZTV9idWinding+8@ha
.LBE2890:
.LBE2889:
.LBE2888:
	.loc 1 381 0
	stw 0,8(3)
.LVL198:
.LBB2893:
.LBB2892:
.LBB2891:
	.loc 1 183 0
	la 0,_ZTV9idWinding+8@l(9)
	stw 0,0(3)
.LBE2891:
.LBE2892:
.LBE2893:
.LBE2887:
	.loc 1 382 0
	blr
	.cfi_endproc
.LFE1498:
	.size	_ZN14idFixedWindingD2Ev, .-_ZN14idFixedWindingD2Ev
	.section	.text._ZN14idFixedWindingD0Ev,"axG",@progbits,_ZN14idFixedWindingD5Ev,comdat
	.align 2
	.weak	_ZN14idFixedWindingD0Ev
	.type	_ZN14idFixedWindingD0Ev, @function
_ZN14idFixedWindingD0Ev:
.LFB1500:
	.loc 1 380 0
	.cfi_startproc
.LVL199:
	mflr 0
	stwu 1,-8(1)
.LCFI66:
	.cfi_def_cfa_offset 8
	.cfi_register 65, 0
.LBB2900:
.LBB2901:
.LBB2902:
.LBB2903:
.LBB2904:
.LBB2905:
	.loc 1 183 0
	lis 11,_ZTV9idWinding+8@ha
.LBE2905:
.LBE2904:
.LBE2903:
.LBE2902:
.LBE2901:
.LBE2900:
	.loc 1 380 0
	stw 0,12(1)
.LBB2911:
.LBB2910:
.LBB2909:
	.loc 1 381 0
	li 0,0
	.cfi_offset 65, 4
	stw 0,8(3)
.LVL200:
.LBB2908:
.LBB2907:
.LBB2906:
	.loc 1 183 0
	la 0,_ZTV9idWinding+8@l(11)
	stw 0,0(3)
.LBE2906:
.LBE2907:
.LBE2908:
.LBE2909:
.LBE2910:
.LBE2911:
	.loc 1 382 0
	bl _ZdlPv
.LVL201:
	lwz 0,12(1)
	addi 1,1,8
.LCFI67:
	.cfi_def_cfa_offset 0
	mtlr 0
	blr
	.cfi_endproc
.LFE1500:
	.size	_ZN14idFixedWindingD0Ev, .-_ZN14idFixedWindingD0Ev
	.section	".text"
	.align 2
	.globl _ZNK12idProjectile15WriteToSnapshotER13idBitMsgDelta
	.type	_ZNK12idProjectile15WriteToSnapshotER13idBitMsgDelta, @function
_ZNK12idProjectile15WriteToSnapshotER13idBitMsgDelta:
.LFB2851:
	.loc 2 1084 0
	.cfi_startproc
.LVL202:
	mflr 0
	stwu 1,-40(1)
.LCFI68:
	.cfi_def_cfa_offset 40
	.cfi_register 65, 0
.LBB2944:
	.loc 2 1085 0
	li 5,32
.LBE2944:
	.loc 2 1084 0
	stw 30,24(1)
	mr 30,3
	.cfi_offset 30, -16
.LVL203:
	stw 0,44(1)
	stw 31,28(1)
	mr 31,4
	.cfi_offset 31, -12
	.cfi_offset 65, 4
	stfd 31,32(1)
	stw 26,8(1)
	stw 27,12(1)
	stw 28,16(1)
	stw 29,20(1)
.LBB2947:
	.loc 2 1085 0
	lwz 4,636(3)
.LVL204:
	mr 3,31
.LVL205:
	.cfi_offset 29, -20
	.cfi_offset 28, -24
	.cfi_offset 27, -28
	.cfi_offset 26, -32
	.cfi_offset 63, -8
	bl _ZN13idBitMsgDelta9WriteBitsEii
	.loc 2 1086 0
	lwz 4,1488(30)
	mr 3,31
	li 5,3
	bl _ZN13idBitMsgDelta9WriteBitsEii
	.loc 2 1087 0
	lwz 4,192(30)
	mr 3,31
	li 5,1
	rlwinm 4,4,4,31,31
	bl _ZN13idBitMsgDelta9WriteBitsEii
.LBB2945:
	.loc 2 1088 0
	lbz 0,1492(30)
	cmpwi 7,0,0
	bne- 7,.L95
.LVL206:
.LBE2945:
.LBE2947:
.LBB2948:
.LBB2949:
	.loc 2 1092 0
	li 5,1
	mr 3,31
	.loc 2 1093 0
	addi 30,30,936
.LVL207:
	.loc 2 1092 0
	li 4,0
	bl _ZN13idBitMsgDelta9WriteBitsEii
	.loc 2 1093 0
	li 4,0
	mr 3,30
	bl _ZNK19idPhysics_RigidBody9GetOriginEi
	.loc 2 1094 0
	li 4,0
	.loc 2 1093 0
	mr 29,3
.LVL208:
	.loc 2 1094 0
	mr 3,30
.LVL209:
	bl _ZNK19idPhysics_RigidBody17GetLinearVelocityEi
.LBB2950:
.LBB2951:
	.file 10 "d:/Data/Nintendo/DoomGX/src/game/../idlib/../idlib/BitMsg.h"
	.loc 10 559 0
	lwz 4,0(29)
.LBE2951:
.LBE2950:
	.loc 2 1094 0
	mr 27,3
.LVL210:
.LBB2953:
.LBB2952:
	.loc 10 559 0
	li 5,32
	mr 3,31
.LVL211:
	bl _ZN13idBitMsgDelta9WriteBitsEii
.LVL212:
.LBE2952:
.LBE2953:
.LBB2954:
.LBB2955:
	lwz 4,4(29)
	mr 3,31
	li 5,32
	bl _ZN13idBitMsgDelta9WriteBitsEii
.LVL213:
.LBE2955:
.LBE2954:
.LBB2956:
.LBB2957:
	lwz 4,8(29)
	li 5,32
	mr 3,31
	bl _ZN13idBitMsgDelta9WriteBitsEii
.LVL214:
.LBE2957:
.LBE2956:
	.loc 2 1100 0
	lis 9,RB_VELOCITY_EXPONENT_BITS@ha
	lwz 29,RB_VELOCITY_EXPONENT_BITS@l(9)
.LVL215:
	lis 9,RB_VELOCITY_MANTISSA_BITS@ha
	lwz 30,RB_VELOCITY_MANTISSA_BITS@l(9)
.LVL216:
.LBB2958:
.LBB2959:
	.loc 10 600 0
	lis 9,.LC20@ha
	lfs 1,.LC20@l(9)
	mr 3,29
.LBE2959:
.LBE2958:
.LBB2961:
.LBB2962:
	.loc 3 402 0
	lfs 31,0(27)
.LVL217:
.LBE2962:
.LBE2961:
.LBB2963:
.LBB2960:
	.loc 10 600 0
	mr 4,30
	bl _ZN6idMath11FloatToBitsEfii
.LVL218:
	.loc 10 602 0
	addi 28,29,1
	.loc 10 601 0
	fmr 1,31
	.loc 10 600 0
	mr 26,3
.LVL219:
	.loc 10 601 0
	mr 4,30
	mr 3,29
.LVL220:
	.loc 10 602 0
	add 28,30,28
	.loc 10 601 0
	bl _ZN6idMath11FloatToBitsEfii
	.loc 10 602 0
	mr 6,28
	.loc 10 601 0
	mr 5,3
.LVL221:
	.loc 10 602 0
	mr 4,26
	mr 3,31
.LVL222:
	bl _ZN13idBitMsgDelta10WriteDeltaEiii
.LVL223:
.LBE2960:
.LBE2963:
.LBB2964:
.LBB2965:
	.loc 10 600 0
	lis 9,.LC20@ha
	lfs 1,.LC20@l(9)
	mr 4,30
.LBE2965:
.LBE2964:
.LBB2967:
.LBB2968:
	.loc 3 402 0
	lfs 31,4(27)
.LVL224:
.LBE2968:
.LBE2967:
.LBB2969:
.LBB2966:
	.loc 10 600 0
	mr 3,29
	bl _ZN6idMath11FloatToBitsEfii
.LVL225:
	.loc 10 601 0
	mr 4,30
	fmr 1,31
	.loc 10 600 0
	mr 26,3
.LVL226:
	.loc 10 601 0
	mr 3,29
.LVL227:
	bl _ZN6idMath11FloatToBitsEfii
	.loc 10 602 0
	mr 6,28
	.loc 10 601 0
	mr 5,3
.LVL228:
	.loc 10 602 0
	mr 4,26
	mr 3,31
.LVL229:
	bl _ZN13idBitMsgDelta10WriteDeltaEiii
.LVL230:
.LBE2966:
.LBE2969:
.LBB2970:
.LBB2971:
	.loc 10 600 0
	lis 9,.LC20@ha
.LBE2971:
.LBE2970:
.LBB2973:
.LBB2974:
	.loc 3 402 0
	lfs 31,8(27)
.LVL231:
.LBE2974:
.LBE2973:
.LBB2975:
.LBB2972:
	.loc 10 600 0
	mr 4,30
	lfs 1,.LC20@l(9)
	mr 3,29
	bl _ZN6idMath11FloatToBitsEfii
.LVL232:
	.loc 10 601 0
	fmr 1,31
	.loc 10 600 0
	mr 27,3
.LVL233:
	.loc 10 601 0
	mr 4,30
	mr 3,29
.LVL234:
	bl _ZN6idMath11FloatToBitsEfii
	.loc 10 602 0
	mr 4,27
	.loc 10 601 0
	mr 5,3
.LVL235:
	.loc 10 602 0
	mr 6,28
	mr 3,31
.LVL236:
	bl _ZN13idBitMsgDelta10WriteDeltaEiii
.LVL237:
.LBE2972:
.LBE2975:
.LBE2949:
.LBE2948:
	.loc 2 1104 0
	lwz 0,44(1)
	lwz 26,8(1)
.LVL238:
	mtlr 0
	lwz 27,12(1)
.LVL239:
	lwz 28,16(1)
	lwz 29,20(1)
	lwz 30,24(1)
	lwz 31,28(1)
.LVL240:
	lfd 31,32(1)
.LVL241:
	addi 1,1,40
	.cfi_remember_state
.LCFI69:
	.cfi_def_cfa_offset 0
	.cfi_restore 63
	.cfi_restore 31
	.cfi_restore 30
	.cfi_restore 29
	.cfi_restore 28
	.cfi_restore 27
	.cfi_restore 26
	blr
.LVL242:
.L95:
.LCFI70:
	.cfi_restore_state
.LBB2976:
.LBB2946:
	.loc 2 1089 0
	mr 3,31
	li 4,1
	li 5,1
	bl _ZN13idBitMsgDelta9WriteBitsEii
	.loc 2 1090 0
	addi 3,30,936
	mr 4,31
	bl _ZNK19idPhysics_RigidBody15WriteToSnapshotER13idBitMsgDelta
.LBE2946:
.LBE2976:
	.loc 2 1104 0
	lwz 0,44(1)
	lwz 26,8(1)
	mtlr 0
	lwz 27,12(1)
	lwz 28,16(1)
	lwz 29,20(1)
	lwz 30,24(1)
.LVL243:
	lwz 31,28(1)
.LVL244:
	lfd 31,32(1)
	addi 1,1,40
	.cfi_restore 26
	.cfi_restore 27
	.cfi_restore 28
	.cfi_restore 29
	.cfi_restore 30
	.cfi_restore 31
	.cfi_restore 63
.LCFI71:
	.cfi_def_cfa_offset 0
	blr
	.cfi_endproc
.LFE2851:
	.size	_ZNK12idProjectile15WriteToSnapshotER13idBitMsgDelta, .-_ZNK12idProjectile15WriteToSnapshotER13idBitMsgDelta
	.align 2
	.globl _ZN12idProjectile7RestoreEP13idRestoreGame
	.type	_ZN12idProjectile7RestoreEP13idRestoreGame, @function
_ZN12idProjectile7RestoreEP13idRestoreGame:
.LFB2820:
	.loc 2 145 0
	.cfi_startproc
.LVL245:
	stwu 1,-40(1)
.LCFI72:
	.cfi_def_cfa_offset 40
	mflr 0
	stw 31,36(1)
	mr 31,3
	.cfi_offset 31, -4
	.cfi_register 65, 0
.LVL246:
	stw 29,28(1)
.LBB2993:
.LBB2994:
.LBB2995:
	.loc 4 600 0
	mr 3,4
.LVL247:
.LBE2995:
.LBE2994:
	.loc 2 149 0
	addi 29,31,640
	.cfi_offset 29, -12
.LBE2993:
	.loc 2 145 0
	stw 30,32(1)
	mr 30,4
	.cfi_offset 30, -8
.LVL248:
.LBB3024:
.LBB2998:
.LBB2996:
	.loc 4 600 0
	addi 4,31,636
.LVL249:
.LBE2996:
.LBE2998:
.LBE3024:
	.loc 2 145 0
	stw 0,44(1)
	stw 28,24(1)
.LBB3025:
	.loc 2 172 0
	addi 28,31,900
	.cfi_offset 28, -16
	.cfi_offset 65, 4
.LBE3025:
	.loc 2 145 0
	stw 26,16(1)
	stw 27,20(1)
.LBB3026:
.LBB2999:
.LBB2997:
	.loc 4 600 0
	.cfi_offset 27, -20
	.cfi_offset 26, -24
	bl _ZN13idRestoreGame7ReadIntERi
.LVL250:
.LBE2997:
.LBE2999:
	.loc 2 149 0
	li 5,1
	mr 4,29
	mr 3,30
	bl _ZN13idRestoreGame4ReadEPvi
	.loc 2 150 0
	mr 3,29
	li 4,1
	.loc 2 169 0
	addi 29,31,936
	.loc 2 150 0
	bl _Z14LittleBitFieldPvi
	.loc 2 152 0
	mr 3,30
	addi 4,31,644
	bl _ZN13idRestoreGame9ReadFloatERf
	.loc 2 153 0
	mr 3,30
	addi 4,31,648
	bl _ZN13idRestoreGame7ReadIntERi
	.loc 2 155 0
	mr 3,30
	addi 4,31,656
	bl _ZN13idRestoreGame15ReadRenderLightER13renderLight_s
	.loc 2 156 0
	mr 3,30
	addi 4,31,864
	bl _ZN13idRestoreGame7ReadIntERi
	.loc 2 157 0
	mr 3,30
	addi 4,31,868
	bl _ZN13idRestoreGame8ReadVec3ER6idVec3
	.loc 2 158 0
	mr 3,30
	addi 4,31,880
	bl _ZN13idRestoreGame7ReadIntERi
	.loc 2 159 0
	mr 3,30
	addi 4,31,884
	bl _ZN13idRestoreGame7ReadIntERi
	.loc 2 160 0
	mr 3,30
	addi 4,31,888
	bl _ZN13idRestoreGame8ReadVec3ER6idVec3
	.loc 2 162 0
	mr 3,30
	addi 4,31,1480
	bl _ZN13idRestoreGame12ReadParticleERPK14idDeclParticle
	.loc 2 163 0
	mr 3,30
	addi 4,31,1484
	bl _ZN13idRestoreGame7ReadIntERi
	.loc 2 165 0
	mr 3,30
	addi 4,31,1488
	bl _ZN13idRestoreGame7ReadIntERi
	.loc 2 167 0
	mr 3,30
	addi 4,31,652
	bl _ZN13idRestoreGame9ReadFloatERf
	.loc 2 169 0
	mr 3,30
	mr 4,29
	bl _ZN13idRestoreGame16ReadStaticObjectER7idClass
	.loc 2 170 0
	mr 3,31
	mr 4,29
	bl _ZN8idEntity14RestorePhysicsEP9idPhysics
	.loc 2 172 0
	mr 3,30
	mr 4,28
	bl _ZN13idRestoreGame16ReadStaticObjectER7idClass
	.loc 2 173 0
	mr 3,28
	mr 4,29
	bl _ZN16idForce_Constant10SetPhysicsEP9idPhysics
.LBB3000:
	.loc 2 175 0
	lwz 0,1480(31)
	cmpwi 7,0,0
	beq- 7,.L96
.LBB3001:
	.loc 2 177 0
	li 4,0
	mr 3,29
	bl _ZNK19idPhysics_RigidBody17GetLinearVelocityEi
.LVL251:
	.loc 2 179 0
	lis 11,gameLocal@ha
	la 11,gameLocal@l(11)
.LBB3002:
.LBB3003:
.LBB3004:
.LBB3005:
	.loc 7 71 0
	lis 29,0x1
	addis 9,11,0x1
	ori 29,29,3533
	lwz 0,-32064(9)
.LBE3005:
.LBE3004:
.LBE3003:
.LBE3002:
	.loc 2 179 0
	addis 11,11,0x25
	lwz 27,1480(31)
	mr 3,31
.LBB3017:
.LBB3010:
.LBB3008:
.LBB3006:
	.loc 7 71 0
	mullw 29,29,0
.LBE3006:
.LBE3008:
.LBE3010:
.LBE3017:
	.loc 2 179 0
	lwz 26,1972(11)
	lwz 28,2004(11)
.LVL252:
.LBB3018:
.LBB3011:
.LBB3009:
.LBB3007:
	.loc 7 71 0
	addi 29,29,1
	stw 29,-32064(9)
	.loc 7 72 0
	rlwinm 29,29,0,17,31
.LBE3007:
.LBE3009:
	.loc 7 83 0
	xoris 29,29,0x8000
.LBE3011:
.LBE3018:
	.loc 2 179 0
	bl _ZNK8idEntity10GetPhysicsEv
	li 4,0
	lwz 9,0(3)
	lwz 0,132(9)
	mtctr 0
	bctrl
	mr 30,3
.LVL253:
	mr 3,31
	bl _ZNK8idEntity10GetPhysicsEv
	li 4,0
	lwz 9,0(3)
	lwz 0,136(9)
	mtctr 0
	bctrl
.LBB3019:
.LBB3012:
	.loc 7 83 0
	lis 0,0x4330
	stw 29,12(1)
	lis 9,.LC4@ha
	stw 0,8(1)
.LBE3012:
.LBE3019:
	.loc 2 179 0
	mr 7,3
.LBB3020:
.LBB3013:
	.loc 7 83 0
	lfs 0,.LC4@l(9)
.LBE3013:
.LBE3020:
	.loc 2 179 0
	lis 9,.LC5@ha
.LBB3021:
.LBB3014:
	.loc 7 83 0
	lfd 1,8(1)
.LBE3014:
.LBE3021:
	.loc 2 179 0
	mr 3,26
	mr 4,27
	mr 5,28
.LBB3022:
.LBB3015:
	.loc 7 83 0
	fsub 1,1,0
.LBE3015:
.LBE3022:
	.loc 2 179 0
	lfs 0,.LC5@l(9)
	mr 6,30
.LBB3023:
.LBB3016:
	.loc 7 83 0
	frsp 1,1
.LBE3016:
.LBE3023:
	.loc 2 179 0
	fmuls 1,1,0
	bl _ZN16idSmokeParticles9EmitSmokeEPK14idDeclParticleifRK6idVec3RK6idMat3
.LVL254:
.L96:
.LBE3001:
.LBE3000:
.LBE3026:
	.loc 2 181 0
	lwz 0,44(1)
	lwz 26,16(1)
	mtlr 0
	lwz 27,20(1)
	lwz 28,24(1)
	lwz 29,28(1)
	lwz 30,32(1)
	lwz 31,36(1)
.LVL255:
	addi 1,1,40
.LCFI73:
	.cfi_def_cfa_offset 0
	.cfi_restore 31
	.cfi_restore 30
	.cfi_restore 29
	.cfi_restore 28
	.cfi_restore 27
	.cfi_restore 26
	blr
	.cfi_endproc
.LFE2820:
	.size	_ZN12idProjectile7RestoreEP13idRestoreGame, .-_ZN12idProjectile7RestoreEP13idRestoreGame
	.align 2
	.globl _ZN12idProjectile5ThinkEv
	.type	_ZN12idProjectile5ThinkEv, @function
_ZN12idProjectile5ThinkEv:
.LFB2829:
	.loc 2 438 0
	.cfi_startproc
.LVL256:
	mflr 0
	stwu 1,-136(1)
.LCFI74:
	.cfi_def_cfa_offset 136
	.cfi_register 65, 0
	stw 31,132(1)
	mr 31,3
	.cfi_offset 31, -4
	stw 0,140(1)
	stw 25,108(1)
	stw 26,112(1)
	stw 27,116(1)
	stw 28,120(1)
	stw 29,124(1)
	stw 30,128(1)
.LBB3070:
	.loc 2 440 0
	lwz 0,152(3)
	.cfi_offset 30, -8
	.cfi_offset 29, -12
	.cfi_offset 28, -16
	.cfi_offset 27, -20
	.cfi_offset 26, -24
	.cfi_offset 25, -28
	.cfi_offset 65, 4
	andi. 9,0,1
	beq- 0,.L99
	.loc 2 441 0
	lis 9,.LC20@ha
	lfs 13,644(3)
	lfs 0,.LC20@l(9)
	fcmpu 7,13,0
	bne- 7,.L111
.LVL257:
.L99:
	.loc 2 449 0
	mr 3,31
	bl _ZN8idEntity10RunPhysicsEv
	.loc 2 451 0
	lwz 9,0(31)
	mr 3,31
	lwz 0,32(9)
	mtctr 0
	bctrl
.LBB3071:
	.loc 2 454 0
	lwz 0,1480(31)
	cmpwi 7,0,0
	beq- 7,.L101
	.loc 2 454 0 is_stmt 0 discriminator 1
	lwz 0,1484(31)
	cmpwi 7,0,0
	bne- 7,.L112
.L101:
.LBE3071:
.LBB3149:
	.loc 2 463 0 is_stmt 1
	lis 9,.LC20@ha
	lfs 13,716(31)
	lfs 0,.LC20@l(9)
	fcmpu 7,13,0
	bng- 7,.L98
.LBB3150:
.LBB3151:
	.loc 2 463 0 is_stmt 0 discriminator 1
	lis 9,g_projectileLights+44@ha
	.file 11 "d:/Data/Nintendo/DoomGX/src/game/../idlib/../framework/CVarSystem.h"
	.loc 11 142 0 is_stmt 1 discriminator 1
	lwz 9,g_projectileLights+44@l(9)
.LBE3151:
.LBE3150:
	.loc 2 463 0 discriminator 1
	lwz 0,36(9)
	cmpwi 7,0,0
	beq- 7,.L98
.LBB3152:
	.loc 2 464 0 discriminator 4
	mr 3,31
.LBB3153:
.LBB3154:
	.file 12 "d:/Data/Nintendo/DoomGX/src/game/../idlib/../idlib/math/Matrix.h"
	.loc 12 333 0 discriminator 4
	addi 30,31,656
.LBE3154:
.LBE3153:
	.loc 2 464 0 discriminator 4
	bl _ZNK8idEntity10GetPhysicsEv
	li 4,0
	lwz 9,0(3)
	lwz 0,132(9)
	mtctr 0
	bctrl
	mr 29,3
	mr 3,31
	bl _ZNK8idEntity10GetPhysicsEv
	li 4,0
	lwz 9,0(3)
	lwz 0,136(9)
	mtctr 0
	bctrl
.LVL258:
.LBB3162:
.LBB3163:
	.loc 12 454 0 discriminator 4
	lfs 0,872(31)
	lfs 13,12(3)
	lfs 11,16(3)
	lfs 12,20(3)
	fmuls 11,0,11
.LBE3163:
.LBE3162:
.LBB3168:
.LBB3169:
	lfs 8,4(3)
.LBE3169:
.LBE3168:
.LBB3174:
.LBB3164:
	fmuls 12,0,12
.LBE3164:
.LBE3174:
.LBB3175:
.LBB3170:
	lfs 9,8(3)
.LBE3170:
.LBE3175:
.LBB3176:
.LBB3165:
	fmuls 0,0,13
.LBE3165:
.LBE3176:
.LBB3177:
.LBB3171:
	lfs 10,0(3)
.LBE3171:
.LBE3177:
.LBB3178:
.LBB3166:
	lfs 13,868(31)
.LBE3166:
.LBE3178:
.LBB3179:
.LBB3172:
	lfs 7,28(3)
	fmadds 11,13,8,11
	lfs 8,32(3)
	fmadds 12,13,9,12
	.loc 3 452 0 discriminator 4
	lfs 9,4(29)
	.loc 12 454 0 discriminator 4
	fmadds 13,10,13,0
	lfs 10,24(3)
.LBE3172:
.LBE3179:
.LBB3180:
.LBB3167:
	lfs 0,876(31)
.LVL259:
.LBE3167:
.LBE3180:
	.loc 2 465 0 discriminator 4
	mr 3,31
.LVL260:
.LBB3181:
.LBB3173:
	.loc 12 454 0 discriminator 4
	fmadds 11,0,7,11
	fmadds 12,0,8,12
	fmadds 0,10,0,13
	.loc 3 452 0 discriminator 4
	lfs 13,8(29)
	lfs 10,0(29)
	fadds 11,11,9
	fadds 12,12,13
.LVL261:
	fadds 0,0,10
.LBE3173:
.LBE3181:
.LBB3182:
.LBB3183:
	.loc 3 425 0 discriminator 4
	stfs 11,696(31)
	.loc 3 426 0 discriminator 4
	stfs 12,700(31)
	.loc 3 424 0 discriminator 4
	stfs 0,692(31)
.LBE3183:
.LBE3182:
	.loc 2 465 0 discriminator 4
	bl _ZNK8idEntity10GetPhysicsEv
.LVL262:
	li 4,0
	lwz 9,0(3)
	lwz 0,136(9)
	mtctr 0
	bctrl
.LVL263:
.LBB3184:
.LBB3161:
	.loc 12 333 0 discriminator 4
	li 10,0
.L104:
.LBB3155:
.LBB3156:
	.loc 3 424 0
	mr 11,3
	mr 9,30
	lwzux 0,11,10
.LBE3156:
.LBE3155:
	.loc 12 333 0
	cmpwi 7,10,24
.LBB3159:
.LBB3157:
	.loc 3 424 0
	stwux 0,9,10
.LBE3157:
.LBE3159:
	.loc 12 333 0
	addi 10,10,12
.LBB3160:
.LBB3158:
	.loc 3 425 0
	lwz 0,4(11)
	stw 0,4(9)
	.loc 3 426 0
	lwz 0,8(11)
	stw 0,8(9)
.LBE3158:
.LBE3160:
	.loc 12 333 0
	bne+ 7,.L104
.LBE3161:
.LBE3184:
.LBB3185:
	.loc 2 466 0
	lwz 4,864(31)
	cmpwi 7,4,-1
	beq- 7,.L105
.LBB3186:
.LBB3187:
	.loc 2 467 0
	lwz 9,884(31)
	cmpwi 7,9,0
	ble- 7,.L106
	.loc 2 467 0 is_stmt 0 discriminator 1
	lis 11,gameLocal+2426836@ha
	lwz 0,gameLocal+2426836@l(11)
	addi 11,9,16
	cmpw 7,0,11
	bgt- 7,.L106
.LVL264:
.LBB3188:
.LBB3189:
	.loc 2 469 0 is_stmt 1 discriminator 4
	cmpw 7,9,0
.LBE3189:
.LBB3191:
.LBB3192:
	.loc 3 396 0 discriminator 4
	li 11,0
	stw 11,8(1)
	.loc 3 397 0 discriminator 4
	stw 11,12(1)
	.loc 3 398 0 discriminator 4
	stw 11,16(1)
.LBE3192:
.LBE3191:
.LBB3193:
	.loc 2 469 0 discriminator 4
	bgt- 7,.L113
	.loc 2 469 0 is_stmt 0
	mr 0,11
	mr 9,11
.LVL265:
.L107:
.LBE3193:
	.loc 2 473 0 is_stmt 1
	stw 9,812(31)
	.loc 2 474 0
	stw 0,816(31)
	.loc 2 475 0
	stw 11,820(31)
.LVL266:
.L106:
.LBE3188:
.LBE3187:
	.loc 2 477 0
	lis 9,gameRenderWorld@ha
	mr 5,30
	lwz 3,gameRenderWorld@l(9)
	lwz 9,0(3)
	lwz 0,36(9)
	mtctr 0
	bctrl
.LVL267:
.L98:
.LBE3186:
.LBE3185:
.LBE3152:
.LBE3149:
.LBE3070:
	.loc 2 482 0
	lwz 0,140(1)
	lwz 25,108(1)
	mtlr 0
	lwz 26,112(1)
	lwz 27,116(1)
	lwz 28,120(1)
	lwz 29,124(1)
	lwz 30,128(1)
	lwz 31,132(1)
.LVL268:
	addi 1,1,136
	.cfi_remember_state
.LCFI75:
	.cfi_def_cfa_offset 0
	.cfi_restore 31
	.cfi_restore 30
	.cfi_restore 29
	.cfi_restore 28
	.cfi_restore 27
	.cfi_restore 26
	.cfi_restore 25
	blr
.LVL269:
.L111:
.LCFI76:
	.cfi_restore_state
.LBB3210:
	.loc 2 441 0 discriminator 1
	lis 30,gameLocal@ha
	lwz 0,648(3)
	la 30,gameLocal@l(30)
	addis 30,30,0x25
	lwz 9,2004(30)
	cmpw 7,9,0
	bge+ 7,.L99
	.loc 2 443 0
	bl _ZNK8idEntity10GetPhysicsEv
.LVL270:
	li 4,0
	lwz 9,0(3)
	addi 29,31,900
	lwz 0,136(9)
	mtctr 0
	bctrl
.LVL271:
	lfs 0,644(31)
.LVL272:
.LBB3200:
.LBB3201:
	.loc 3 439 0
	lfs 11,0(3)
.LBE3201:
.LBE3200:
	.loc 2 443 0
	addi 4,1,20
.LBB3206:
.LBB3204:
	.loc 3 439 0
	lfs 12,4(3)
	lfs 13,8(3)
.LBE3204:
.LBE3206:
	.loc 2 443 0
	mr 3,29
.LVL273:
.LBB3207:
.LBB3205:
	.loc 3 439 0
	fmuls 12,0,12
	fmuls 13,0,13
.LVL274:
	fmuls 0,0,11
.LBB3202:
.LBB3203:
	.loc 3 397 0
	stfs 12,24(1)
	.loc 3 398 0
	stfs 13,28(1)
	.loc 3 396 0
	stfs 0,20(1)
.LBE3203:
.LBE3202:
.LBE3205:
.LBE3207:
	.loc 2 443 0
	bl _ZN16idForce_Constant8SetForceERK6idVec3
.LVL275:
	.loc 2 444 0
	lwz 4,2004(30)
	mr 3,29
	bl _ZN16idForce_Constant8EvaluateEi
	b .L99
.LVL276:
.L112:
.LBB3208:
	.loc 2 454 0 discriminator 3
	mr 3,31
	bl _ZNK8idEntity8IsHiddenEv
	cmpwi 7,3,0
	bne- 7,.L101
.LBB3072:
	.loc 2 455 0 discriminator 5
	mr 3,31
	.loc 2 457 0 discriminator 5
	lis 30,gameLocal@ha
	.loc 2 455 0 discriminator 5
	bl _ZNK8idEntity10GetPhysicsEv
	li 4,0
	lwz 9,0(3)
	.loc 2 457 0 discriminator 5
	la 30,gameLocal@l(30)
.LBB3073:
.LBB3074:
.LBB3075:
.LBB3076:
	.loc 7 71 0 discriminator 5
	lis 28,0x1
.LBE3076:
.LBE3075:
.LBE3074:
.LBE3073:
	.loc 2 455 0 discriminator 5
	lwz 0,148(9)
.LBB3097:
.LBB3087:
.LBB3082:
.LBB3077:
	.loc 7 71 0 discriminator 5
	ori 28,28,3533
.LBE3077:
.LBE3082:
.LBE3087:
.LBE3097:
	.loc 2 455 0 discriminator 5
	mtctr 0
	bctrl
.LVL277:
.LBB3098:
.LBB3099:
.LBB3100:
.LBB3101:
	.loc 8 276 0 discriminator 5
	lis 9,_ZN6idMath5iSqrtE@ha
.LBE3101:
.LBE3100:
.LBE3099:
.LBE3098:
.LBB3124:
.LBB3125:
	.loc 3 420 0 discriminator 5
	lfs 12,4(3)
.LBE3125:
.LBE3124:
.LBB3129:
.LBB3116:
.LBB3109:
.LBB3102:
	.loc 8 276 0 discriminator 5
	la 9,_ZN6idMath5iSqrtE@l(9)
.LBE3102:
.LBE3109:
.LBE3116:
.LBE3129:
.LBB3130:
.LBB3126:
	.loc 3 420 0 discriminator 5
	lfs 11,0(3)
	fneg 12,12
	lfs 13,8(3)
	fneg 11,11
.LBE3126:
.LBE3130:
	.loc 2 457 0 discriminator 5
	mr 3,31
.LVL278:
.LBB3131:
.LBB3127:
	.loc 3 420 0 discriminator 5
	fneg 13,13
.LVL279:
.LBE3127:
.LBE3131:
.LBB3132:
.LBB3117:
	.loc 3 649 0 discriminator 5
	fmuls 0,12,12
.LBE3117:
.LBE3132:
.LBB3133:
.LBB3128:
	fmadds 0,11,11,0
	fmadds 0,13,13,0
	stfs 0,96(1)
.LVL280:
.LBE3128:
.LBE3133:
.LBB3134:
.LBB3118:
.LBB3110:
.LBB3103:
	.loc 8 270 0 discriminator 5
	lwz 0,96(1)
.LVL281:
	.loc 8 276 0 discriminator 5
	rlwinm 11,0,9,24,31
	rlwinm 0,0,19,21,29
	lwzx 9,9,0
	subfic 0,11,380
	rlwinm 0,0,22,0,8
	or 0,0,9
	.loc 8 275 0 discriminator 5
	lis 9,.LC6@ha
	.loc 8 277 0 discriminator 5
	stw 0,100(1)
	.loc 8 275 0 discriminator 5
	lfs 7,.LC6@l(9)
	.loc 8 278 0 discriminator 5
	lis 9,.LC22@ha
	.loc 8 277 0 discriminator 5
	lfs 0,100(1)
.LVL282:
	.loc 8 278 0 discriminator 5
	lfs 8,.LC22@l(9)
.LBE3103:
.LBE3110:
.LBE3118:
.LBE3134:
.LBB3135:
.LBB3088:
.LBB3083:
.LBB3078:
	.loc 7 71 0 discriminator 5
	addis 9,30,0x1
.LBE3078:
.LBE3083:
.LBE3088:
.LBE3135:
.LBB3136:
.LBB3119:
.LBB3111:
.LBB3104:
	.loc 8 277 0 discriminator 5
	fmr 9,0
	.loc 8 275 0 discriminator 5
	lfs 0,96(1)
.LBE3104:
.LBE3111:
.LBE3119:
.LBE3136:
.LBB3137:
.LBB3089:
.LBB3084:
.LBB3079:
	.loc 7 71 0 discriminator 5
	lwz 0,-32064(9)
.LBE3079:
.LBE3084:
.LBE3089:
.LBE3137:
	.loc 2 457 0 discriminator 5
	addis 30,30,0x25
.LBB3138:
.LBB3120:
.LBB3112:
.LBB3105:
	.loc 8 275 0 discriminator 5
	fmuls 7,0,7
.LVL283:
.LBE3105:
.LBE3112:
.LBE3120:
.LBE3138:
	.loc 2 457 0 discriminator 5
	lwz 26,1480(31)
.LBB3139:
.LBB3121:
.LBB3113:
.LBB3106:
	.loc 8 278 0 discriminator 5
	fmul 10,9,9
.LBE3106:
.LBE3113:
.LBE3121:
.LBE3139:
.LBB3140:
.LBB3090:
.LBB3085:
.LBB3080:
	.loc 7 71 0 discriminator 5
	mullw 28,28,0
.LBE3080:
.LBE3085:
.LBE3090:
.LBE3140:
	.loc 2 457 0 discriminator 5
	lwz 27,1484(31)
	lwz 25,1972(30)
.LBB3141:
.LBB3122:
.LBB3114:
.LBB3107:
	.loc 2 438 0 discriminator 5
	fneg 10,10
.LBE3107:
.LBE3114:
.LBE3122:
.LBE3141:
.LBB3142:
.LBB3091:
.LBB3086:
.LBB3081:
	.loc 7 71 0 discriminator 5
	addi 28,28,1
	stw 28,-32064(9)
	.loc 7 72 0 discriminator 5
	rlwinm 28,28,0,17,31
.LBE3081:
.LBE3086:
	.loc 7 83 0 discriminator 5
	xoris 28,28,0x8000
.LBE3091:
.LBE3142:
.LBB3143:
.LBB3123:
.LBB3115:
.LBB3108:
	.loc 8 278 0 discriminator 5
	fmadd 10,10,7,8
	fmul 10,10,9
.LVL284:
	.loc 8 279 0 discriminator 5
	fmul 0,10,10
	.loc 2 438 0 discriminator 5
	fneg 0,0
	.loc 8 279 0 discriminator 5
	fmadd 0,0,7,8
.LVL285:
	fmul 0,0,10
.LVL286:
	.loc 8 280 0 discriminator 5
	frsp 0,0
.LVL287:
.LBE3108:
.LBE3115:
	.loc 3 651 0 discriminator 5
	fmuls 11,11,0
.LVL288:
	.loc 3 652 0 discriminator 5
	fmuls 12,12,0
.LVL289:
	.loc 3 653 0 discriminator 5
	fmuls 0,13,0
	.loc 3 651 0 discriminator 5
	stfs 11,8(1)
	.loc 3 652 0 discriminator 5
	stfs 12,12(1)
	.loc 3 653 0 discriminator 5
	stfs 0,16(1)
.LBE3123:
.LBE3143:
	.loc 2 457 0 discriminator 5
	bl _ZNK8idEntity10GetPhysicsEv
.LVL290:
	lwz 9,0(3)
	li 4,0
	lwz 0,132(9)
	mtctr 0
	bctrl
	addi 4,1,8
.LVL291:
	mr 29,3
	addi 3,1,32
	bl _ZNK6idVec36ToMat3Ev
.LVL292:
.LBB3144:
.LBB3092:
	.loc 7 83 0 discriminator 5
	lis 0,0x4330
	stw 28,76(1)
	lis 9,.LC4@ha
	stw 0,72(1)
.LBE3092:
.LBE3144:
	.loc 2 457 0 discriminator 5
	mr 3,25
.LBB3145:
.LBB3093:
	.loc 7 83 0 discriminator 5
	lfs 0,.LC4@l(9)
.LBE3093:
.LBE3145:
	.loc 2 457 0 discriminator 5
	lis 9,.LC5@ha
.LBB3146:
.LBB3094:
	.loc 7 83 0 discriminator 5
	lfd 1,72(1)
.LBE3094:
.LBE3146:
	.loc 2 457 0 discriminator 5
	mr 4,26
	mr 5,27
	mr 6,29
.LBB3147:
.LBB3095:
	.loc 7 83 0 discriminator 5
	fsub 1,1,0
.LBE3095:
.LBE3147:
	.loc 2 457 0 discriminator 5
	lfs 0,.LC5@l(9)
	addi 7,1,32
.LBB3148:
.LBB3096:
	.loc 7 83 0 discriminator 5
	frsp 1,1
.LBE3096:
.LBE3148:
	.loc 2 457 0 discriminator 5
	fmuls 1,1,0
	bl _ZN16idSmokeParticles9EmitSmokeEPK14idDeclParticleifRK6idVec3RK6idMat3
	cmpwi 7,3,0
	bne- 7,.L101
	.loc 2 458 0
	lwz 0,2004(30)
	stw 0,1484(31)
	b .L101
.LVL293:
.L113:
.LBE3072:
.LBE3208:
.LBB3209:
.LBB3199:
.LBB3198:
.LBB3197:
.LBB3196:
.LBB3195:
.LBB3194:
.LBB3190:
	.loc 2 470 0
	lwz 10,880(31)
.LVL294:
	lis 11,0x4330
	stw 11,80(1)
	.loc 2 471 0
	addi 3,1,8
.LVL295:
	.loc 2 470 0
	subf 0,10,0
.LVL296:
	subf 9,10,9
.LVL297:
	xoris 0,0,0x8000
	xoris 9,9,0x8000
	stw 0,84(1)
	.loc 2 471 0
	addi 4,31,888
	.loc 2 470 0
	stw 9,92(1)
	lis 9,.LC4@ha
	stw 11,88(1)
	.loc 2 471 0
	mr 5,3
	.loc 2 470 0
	lfs 0,.LC4@l(9)
	lfd 1,80(1)
	lfd 13,88(1)
	fsub 1,1,0
	fsub 0,13,0
	frsp 1,1
	frsp 0,0
	.loc 2 471 0
	fdivs 1,1,0
	bl _ZN6idVec34LerpERKS_S1_f
.LVL298:
	lwz 9,8(1)
	lwz 0,12(1)
	lwz 11,16(1)
	lwz 4,864(31)
	b .L107
.LVL299:
.L105:
.LBE3190:
.LBE3194:
.LBE3195:
.LBE3196:
.LBE3197:
	.loc 2 479 0
	lis 9,gameRenderWorld@ha
	mr 4,30
	lwz 3,gameRenderWorld@l(9)
.LVL300:
	lwz 9,0(3)
	lwz 0,32(9)
	mtctr 0
	bctrl
	stw 3,864(31)
	b .L98
.LBE3198:
.LBE3199:
.LBE3209:
.LBE3210:
	.cfi_endproc
.LFE2829:
	.size	_ZN12idProjectile5ThinkEv, .-_ZN12idProjectile5ThinkEv
	.align 2
	.globl _ZN15idBFGProjectile5ThinkEv
	.type	_ZN15idBFGProjectile5ThinkEv, @function
_ZN15idBFGProjectile5ThinkEv:
.LFB2902:
	.loc 2 1810 0
	.cfi_startproc
.LVL301:
	mflr 0
	stwu 1,-176(1)
.LCFI77:
	.cfi_def_cfa_offset 176
	.cfi_register 65, 0
	stw 31,156(1)
	mr 31,3
	.cfi_offset 31, -20
	stw 0,180(1)
	stfd 30,160(1)
	stfd 31,168(1)
	stw 17,100(1)
	stw 18,104(1)
	stw 19,108(1)
	stw 20,112(1)
	stw 21,116(1)
	stw 22,120(1)
	stw 23,124(1)
	stw 24,128(1)
	stw 25,132(1)
	stw 26,136(1)
	stw 27,140(1)
	stw 28,144(1)
	stw 29,148(1)
	stw 30,152(1)
.LBB3323:
.LBB3324:
	.loc 2 1811 0
	lwz 0,1488(3)
	.cfi_offset 30, -24
	.cfi_offset 29, -28
	.cfi_offset 28, -32
	.cfi_offset 27, -36
	.cfi_offset 26, -40
	.cfi_offset 25, -44
	.cfi_offset 24, -48
	.cfi_offset 23, -52
	.cfi_offset 22, -56
	.cfi_offset 21, -60
	.cfi_offset 20, -64
	.cfi_offset 19, -68
	.cfi_offset 18, -72
	.cfi_offset 17, -76
	.cfi_offset 63, -8
	.cfi_offset 62, -16
	.cfi_offset 65, 4
	cmpwi 7,0,2
	beq- 7,.L145
.LVL302:
.L115:
.LBE3324:
	.loc 2 1869 0
	mr 3,31
	bl _ZN12idProjectile5ThinkEv
.LBE3323:
	.loc 2 1870 0
	lwz 0,180(1)
	lwz 17,100(1)
	mtlr 0
	lwz 18,104(1)
	lwz 19,108(1)
	lwz 20,112(1)
	lwz 21,116(1)
	lwz 22,120(1)
	lwz 23,124(1)
	lwz 24,128(1)
	lwz 25,132(1)
	lwz 26,136(1)
	lwz 27,140(1)
	lwz 28,144(1)
	lwz 29,148(1)
	lwz 30,152(1)
	lwz 31,156(1)
.LVL303:
	lfd 30,160(1)
	lfd 31,168(1)
	addi 1,1,176
	.cfi_remember_state
.LCFI78:
	.cfi_def_cfa_offset 0
	.cfi_restore 63
	.cfi_restore 62
	.cfi_restore 31
	.cfi_restore 30
	.cfi_restore 29
	.cfi_restore 28
	.cfi_restore 27
	.cfi_restore 26
	.cfi_restore 25
	.cfi_restore 24
	.cfi_restore 23
	.cfi_restore 22
	.cfi_restore 21
	.cfi_restore 20
	.cfi_restore 19
	.cfi_restore 18
	.cfi_restore 17
	blr
.LVL304:
.L145:
.LCFI79:
	.cfi_restore_state
.LBB3461:
.LBB3459:
.LBB3325:
.LBB3326:
	.loc 2 1814 0 discriminator 1
	lwz 11,1496(3)
	cmpwi 7,11,0
	ble- 7,.L146
	lis 28,gameLocal@ha
.LBB3327:
.LBB3328:
.LBB3329:
	.loc 2 1838 0
	lis 9,.LC20@ha
	la 28,gameLocal@l(28)
.LBB3330:
.LBB3331:
.LBB3332:
.LBB3333:
	.loc 8 276 0
	lis 19,_ZN6idMath5iSqrtE@ha
.LBE3333:
.LBE3332:
.LBE3331:
.LBE3330:
.LBE3329:
.LBE3328:
.LBE3327:
	.loc 2 1814 0
	li 30,0
	li 29,0
	addis 26,28,0x25
.LBB3434:
.LBB3391:
.LBB3392:
	.loc 4 635 0
	mr 25,28
.LBE3392:
.LBE3391:
.LBB3394:
	.loc 2 2410 0
	lis 21,_ZN8idPlayer4TypeE@ha
.LBE3394:
.LBB3399:
.LBB3400:
	.file 13 "d:/Data/Nintendo/DoomGX/src/game/../idlib/../idlib/bv/Bounds.h"
	.loc 13 212 0
	lis 24,.LC6@ha
.LBE3400:
.LBE3399:
	.loc 2 1827 0
	lis 23,.LC2@ha
	.loc 2 1846 0
	lis 22,gameRenderWorld@ha
.LBB3406:
.LBB3388:
	.loc 2 1838 0
	lfs 31,.LC20@l(9)
.LBB3344:
.LBB3340:
.LBB3337:
.LBB3334:
	.loc 8 276 0
	la 19,_ZN6idMath5iSqrtE@l(19)
	.loc 8 278 0
	lis 20,.LC22@ha
	b .L131
.LVL305:
.L117:
.LBE3334:
.LBE3337:
.LBE3340:
.LBE3344:
.LBE3388:
.LBE3406:
.LBE3434:
	.loc 2 1814 0
	addi 29,29,1
.LVL306:
	addi 30,30,224
.LVL307:
	cmpw 7,11,29
	ble- 7,.L116
.LVL308:
.L131:
.LBB3435:
.LBB3407:
.LBB3393:
	.loc 4 634 0
	lwz 9,1508(31)
	lwzx 0,9,30
	rlwinm 9,0,0,20,31
.LVL309:
	.loc 4 635 0
	srawi 0,0,12
	addi 10,9,4228
	slwi 10,10,2
	add 10,28,10
	lwz 10,4(10)
	cmpw 7,10,0
	bne+ 7,.L117
	.loc 4 636 0
	addi 9,9,132
.LVL310:
	slwi 9,9,2
.LVL311:
	add 9,25,9
	lwz 3,4(9)
.LBE3393:
.LBE3407:
	.loc 2 1815 0
	cmpwi 7,3,0
	beq- 7,.L117
.LVL312:
.LBB3408:
.LBB3395:
	.loc 6 340 0
	lwz 9,0(3)
.LVL313:
	lwz 0,0(9)
	mtctr 0
	bctrl
.LVL314:
.LBE3395:
	.loc 2 2410 0
	la 9,_ZN8idPlayer4TypeE@l(21)
	lwz 0,56(3)
.LBB3398:
.LBB3396:
.LBB3397:
	.loc 6 311 0
	lwz 11,56(9)
	cmpw 7,0,11
	blt- 7,.L118
	lwz 9,60(9)
	cmpw 7,0,9
	bgt- 7,.L118
.LVL315:
.LBE3397:
.LBE3396:
.LBE3398:
.LBE3408:
.LBB3409:
.LBB3410:
	.loc 4 634 0
	lwz 9,1508(31)
	.loc 4 638 0
	li 27,0
	li 3,0
.LVL316:
	.loc 4 634 0
	lwzx 0,9,30
	rlwinm 9,0,0,20,31
.LVL317:
	.loc 4 635 0
	srawi 0,0,12
	addi 11,9,4228
	slwi 11,11,2
	add 11,25,11
	lwz 11,4(11)
	cmpw 7,11,0
	beq- 7,.L147
.LVL318:
.L119:
.LBE3410:
.LBE3409:
	.loc 2 1819 0
	bl _ZNK8idEntity10GetPhysicsEv
	li 4,-1
	lwz 9,0(3)
	lwz 0,60(9)
	mtctr 0
	bctrl
.LVL319:
.LBB3412:
.LBB3413:
	.loc 5 589 0
	lwz 18,1508(31)
.LBE3413:
.LBE3412:
.LBB3415:
.LBB3403:
	.loc 13 212 0
	lfs 0,0(3)
	lfs 12,4(3)
.LBE3403:
.LBE3415:
.LBB3416:
.LBB3414:
	.loc 5 589 0
	add 18,18,30
.LBE3414:
.LBE3416:
.LBB3417:
.LBB3404:
	.loc 13 212 0
	lfs 13,8(3)
	lfs 9,16(3)
	lfs 10,20(3)
	lfs 11,12(3)
	fadds 12,9,12
	fadds 13,10,13
.LBE3404:
.LBE3417:
	.loc 2 1820 0
	mr 3,31
.LVL320:
.LBB3418:
.LBB3405:
	.loc 13 212 0
	fadds 11,11,0
	lfs 0,.LC6@l(24)
	fmuls 12,12,0
.LVL321:
	fmuls 13,13,0
.LVL322:
	fmuls 0,11,0
.LBB3401:
.LBB3402:
	.loc 3 397 0
	stfs 12,24(1)
	.loc 3 398 0
	stfs 13,28(1)
.LVL323:
	.loc 3 396 0
	stfs 0,20(1)
.LBE3402:
.LBE3401:
.LBE3405:
.LBE3418:
	.loc 2 1820 0
	bl _ZNK8idEntity10GetPhysicsEv
.LVL324:
	lwz 9,0(3)
	li 4,0
	lwz 0,132(9)
	mtctr 0
	bctrl
.LVL325:
	.loc 2 1821 0
	lwz 11,20(1)
.LBB3419:
.LBB3420:
	.loc 3 424 0
	lwz 0,0(3)
	stw 0,64(18)
	.loc 3 425 0
	lwz 0,4(3)
	stw 0,68(18)
.LBE3420:
.LBE3419:
	.loc 2 1827 0
	lwz 0,.LC2@l(23)
.LBB3422:
.LBB3421:
	.loc 3 426 0
	lwz 9,8(3)
	stw 9,72(18)
.LVL326:
.LBE3421:
.LBE3422:
	.loc 2 1821 0
	lwz 9,1508(31)
	add 9,9,30
	stw 11,160(9)
.LVL327:
	.loc 2 1822 0
	lwz 11,24(1)
	lwz 9,1508(31)
	add 9,9,30
	stw 11,164(9)
.LVL328:
	.loc 2 1823 0
	lwz 11,28(1)
	lwz 9,1508(31)
	add 9,9,30
	stw 11,168(9)
.LVL329:
.LBB3423:
.LBB3424:
	.loc 5 589 0
	lwz 9,1508(31)
	add 9,9,30
.LVL330:
.LBE3424:
.LBE3423:
	.loc 2 1827 0
	stw 0,140(9)
	stw 0,136(9)
	stw 0,132(9)
	stw 0,128(9)
.LBB3425:
	.loc 2 1828 0
	lwz 9,2004(26)
	lwz 0,1732(31)
	cmpw 7,9,0
	ble- 7,.L121
.LVL331:
.LBB3389:
.LBB3345:
	.loc 2 2410 0
	lwz 9,1740(31)
.LBE3345:
	.loc 2 1830 0
	cmpwi 7,9,0
	beq- 7,.L122
	.loc 2 1830 0 is_stmt 0 discriminator 1
	lbz 0,0(9)
.LBB3346:
.LBB3347:
	.loc 5 589 0 is_stmt 1 discriminator 1
	lwz 9,1508(31)
.LBE3347:
.LBE3346:
	.loc 2 1830 0 discriminator 1
	cmpwi 7,0,0
	beq- 7,.L144
.LVL332:
.LBB3349:
.LBB3350:
	.loc 4 634 0 discriminator 3
	lwzx 0,9,30
.LBE3350:
.LBE3349:
.LBB3353:
.LBB3348:
	.loc 5 589 0 discriminator 3
	add 9,9,30
.LVL333:
.LBE3348:
.LBE3353:
.LBB3354:
.LBB3351:
	.loc 4 634 0 discriminator 3
	rlwinm 11,0,0,20,31
.LVL334:
	.loc 4 635 0 discriminator 3
	srawi 0,0,12
	addi 10,11,4228
	slwi 10,10,2
	add 10,25,10
	lwz 10,4(10)
	cmpw 7,10,0
	beq- 7,.L148
.LVL335:
.L124:
.LBE3351:
.LBE3354:
	.loc 2 1838 0
	stfs 31,140(9)
	.loc 2 1839 0
	li 0,0
	.loc 2 1838 0
	stfs 31,136(9)
	stfs 31,132(9)
	stfs 31,128(9)
.LVL336:
.L134:
	.loc 2 1841 0
	cmpwi 7,27,0
	beq- 7,.L130
.LVL337:
.LBB3355:
.LBB3356:
	.file 14 "d:/Data/Nintendo/DoomGX/src/game/PlayerView.h"
	.loc 14 84 0
	stb 0,4384(27)
.LVL338:
.L130:
.LBE3356:
.LBE3355:
	.loc 2 1844 0
	lwz 9,2004(26)
	addi 0,9,333
.LVL339:
	stw 0,1732(31)
.LVL340:
.L121:
.LBE3389:
.LBE3425:
	.loc 2 1846 0
	lwz 3,gameRenderWorld@l(22)
.LVL341:
.LBE3435:
	.loc 2 1814 0
	addi 29,29,1
.LVL342:
.LBB3436:
.LBB3426:
.LBB3427:
	.loc 5 589 0
	lwz 5,1508(31)
.LBE3427:
.LBE3426:
	.loc 2 1846 0
	lwz 9,0(3)
.LBB3429:
.LBB3428:
	.loc 5 589 0
	add 5,5,30
.LBE3428:
.LBE3429:
.LBE3436:
	.loc 2 1814 0
	addi 30,30,224
.LBB3437:
	.loc 2 1846 0
	lwz 0,20(9)
	lwz 4,220(5)
	addi 5,5,4
	mtctr 0
	bctrl
.LVL343:
	lwz 11,1496(31)
.LBE3437:
	.loc 2 1814 0
	cmpw 7,11,29
	bgt+ 7,.L131
.LVL344:
.L116:
.LBE3326:
	.loc 2 1849 0
	lwz 0,1728(31)
	cmpwi 7,0,0
	blt- 7,.L132
	.loc 2 1850 0
	mr 3,31
	bl _ZNK8idEntity10GetPhysicsEv
	li 4,0
	lwz 9,0(3)
	lwz 0,132(9)
	mtctr 0
	bctrl
	.loc 2 1851 0
	lis 9,gameRenderWorld@ha
.LBB3440:
.LBB3441:
	.loc 3 424 0
	lwz 0,0(3)
.LBE3441:
.LBE3440:
	.loc 2 1850 0
	mr 11,3
.LVL345:
	.loc 2 1851 0
	lwz 9,gameRenderWorld@l(9)
	addi 5,31,1512
.LBB3445:
.LBB3442:
	.loc 3 424 0
	stw 0,1572(31)
.LBE3442:
.LBE3445:
	.loc 2 1851 0
	lwz 4,1728(31)
.LBB3446:
.LBB3443:
	.loc 3 425 0
	lwz 0,4(3)
.LBE3443:
.LBE3446:
	.loc 2 1851 0
	mr 3,9
.LVL346:
.LBB3447:
.LBB3444:
	.loc 3 425 0
	stw 0,1576(31)
	.loc 3 426 0
	lwz 0,8(11)
	stw 0,1580(31)
.LBE3444:
.LBE3447:
	.loc 2 1851 0
	lwz 9,0(9)
	lwz 0,20(9)
	mtctr 0
	bctrl
.LVL347:
.L132:
	.loc 2 1856 0
	lwz 0,2004(26)
	lis 29,0x4330
	stw 29,72(1)
	lis 9,.LC4@ha
	rlwinm 0,0,0,20,31
	lfs 30,.LC4@l(9)
	xoris 0,0,0x8000
	lis 9,.LC23@ha
	stw 0,76(1)
	.loc 2 1858 0
	li 30,0
	.loc 2 1856 0
	lfs 31,.LC23@l(9)
	lis 9,.LC24@ha
	lfd 0,72(1)
	.loc 2 1859 0
	mr 3,31
	.loc 2 1856 0
	lfs 13,.LC24@l(9)
	.loc 2 1859 0
	addi 4,1,8
	.loc 2 1856 0
	fsub 0,0,30
	.loc 2 1858 0
	stw 30,16(1)
	.loc 2 1856 0
	frsp 0,0
	fmuls 0,0,31
	fmuls 0,0,13
	stfs 0,8(1)
	.loc 2 1857 0
	stfs 0,12(1)
	.loc 2 1859 0
	bl _ZN8idEntity9SetAnglesERK8idAngles
	.loc 2 1861 0
	lwz 0,2004(26)
	lis 9,.LC25@ha
	stw 29,80(1)
	.loc 2 1864 0
	addi 3,1,32
	.loc 2 1861 0
	rlwinm 0,0,0,21,31
	lfs 13,.LC25@l(9)
	xoris 0,0,0x8000
	.loc 2 1864 0
	addi 4,1,8
	.loc 2 1861 0
	stw 0,84(1)
	.loc 2 1863 0
	stw 30,16(1)
	.loc 2 1861 0
	lfd 0,80(1)
	fsub 0,0,30
	frsp 0,0
	fmuls 0,0,31
	fmuls 0,0,13
	stfs 0,8(1)
	.loc 2 1862 0
	stfs 0,12(1)
	.loc 2 1864 0
	bl _ZNK8idAngles6ToMat3Ev
.LVL348:
.LBB3448:
.LBB3449:
	.loc 12 333 0
	addi 7,31,1584
	li 10,0
.L133:
.LBB3450:
.LBB3451:
	.loc 3 424 0
	addi 11,1,32
.LVL349:
	mr 9,7
	lwzux 0,11,10
.LVL350:
.LBE3451:
.LBE3450:
	.loc 12 333 0
	cmpwi 7,10,24
.LBB3454:
.LBB3452:
	.loc 3 424 0
	stwux 0,9,10
.LBE3452:
.LBE3454:
	.loc 12 333 0
	addi 10,10,12
.LBB3455:
.LBB3453:
	.loc 3 425 0
	lwz 8,4(11)
	.loc 3 426 0
	lwz 0,8(11)
	.loc 3 425 0
	stw 8,4(9)
	.loc 3 426 0
	stw 0,8(9)
.LBE3453:
.LBE3455:
	.loc 12 333 0
	bne+ 7,.L133
.LBE3449:
.LBE3448:
	.loc 2 1866 0
	mr 3,31
	bl _ZN8idEntity13UpdateVisualsEv
	b .L115
.LVL351:
.L118:
.LBB3456:
.LBB3438:
.LBB3430:
.LBB3431:
	.loc 4 634 0 discriminator 3
	lwz 9,1508(31)
	.loc 4 635 0 discriminator 3
	li 27,0
	.loc 4 638 0 discriminator 3
	li 3,0
.LVL352:
	.loc 4 634 0 discriminator 3
	lwzx 0,9,30
	rlwinm 9,0,0,20,31
.LVL353:
	.loc 4 635 0 discriminator 3
	srawi 0,0,12
	addi 11,9,4228
	slwi 11,11,2
	add 11,28,11
	lwz 11,4(11)
	cmpw 7,11,0
	bne+ 7,.L119
	addi 9,9,132
.LVL354:
.L120:
	.loc 4 636 0
	slwi 9,9,2
	add 9,28,9
	lwz 3,4(9)
	b .L119
.LVL355:
.L122:
.LBE3431:
.LBE3430:
.LBE3438:
.LBE3456:
.LBE3325:
.LBE3459:
.LBE3461:
	.loc 2 1870 0
	lwz 9,1508(31)
.LVL356:
.L144:
	add 9,9,30
	b .L124
.LVL357:
.L147:
.LBB3462:
.LBB3460:
.LBB3458:
.LBB3457:
.LBB3439:
.LBB3432:
.LBB3411:
	.loc 4 636 0
	addi 9,9,132
.LVL358:
	slwi 11,9,2
	add 11,25,11
	lwz 27,4(11)
.LVL359:
	b .L120
.LVL360:
.L148:
.LBE3411:
.LBE3432:
.LBB3433:
.LBB3390:
.LBB3357:
.LBB3352:
	addi 11,11,132
.LVL361:
	slwi 11,11,2
.LVL362:
	add 11,25,11
	lwz 17,4(11)
.LBE3352:
.LBE3357:
	.loc 2 1830 0
	cmpwi 7,17,0
	beq- 7,.L124
.LVL363:
	lwz 9,0(17)
.LVL364:
	mr 3,31
.LVL365:
	lwz 18,160(9)
.LVL366:
	bl _ZNK8idEntity10GetPhysicsEv
.LVL367:
	lwz 9,0(3)
	li 4,0
	lwz 0,132(9)
	mtctr 0
	bctrl
	addi 5,1,20
	mr 4,3
	mtctr 18
	mr 3,17
	bctrl
.LBB3358:
.LBB3359:
	.loc 4 634 0
	lwz 9,1508(31)
.LBE3359:
.LBE3358:
	.loc 2 1830 0
	cmpwi 7,3,0
	beq- 7,.L144
.LVL368:
.LBB3361:
.LBB3360:
	.loc 4 634 0 discriminator 6
	lwzx 0,9,30
	.loc 4 638 0 discriminator 6
	li 3,0
	.loc 4 634 0 discriminator 6
	rlwinm 9,0,0,20,31
.LVL369:
	.loc 4 635 0 discriminator 6
	srawi 0,0,12
	addi 11,9,4228
	slwi 11,11,2
	add 11,25,11
	lwz 11,4(11)
	cmpw 7,11,0
	bne+ 7,.L126
	.loc 4 636 0
	addi 9,9,132
.LVL370:
	slwi 9,9,2
.LVL371:
	add 9,25,9
	lwz 3,4(9)
.L126:
.LBE3360:
.LBE3361:
	.loc 2 1831 0
	bl _ZNK8idEntity10GetPhysicsEv
.LVL372:
	li 4,0
	lwz 9,0(3)
	lwz 0,132(9)
	mtctr 0
	bctrl
	mr 18,3
	mr 3,31
	bl _ZNK8idEntity10GetPhysicsEv
	li 4,0
	lwz 9,0(3)
	lwz 0,132(9)
	mtctr 0
	bctrl
.LVL373:
.LBB3362:
.LBB3363:
	.loc 3 431 0
	lfs 12,4(18)
	lfs 0,4(3)
	lfs 11,0(18)
	fsubs 12,12,0
	lfs 0,0(3)
	lfs 10,8(18)
	fsubs 11,11,0
	lfs 13,8(3)
.LBE3363:
.LBE3362:
.LBB3366:
.LBB3341:
	.loc 3 649 0
	fmuls 0,12,12
.LBE3341:
.LBE3366:
.LBB3367:
.LBB3368:
	.loc 4 634 0
	lwz 9,1508(31)
.LBE3368:
.LBE3367:
.LBB3372:
.LBB3364:
	.loc 3 431 0
	fsubs 13,10,13
.LVL374:
.LBE3364:
.LBE3372:
.LBB3373:
.LBB3342:
.LBB3338:
.LBB3335:
	.loc 8 275 0
	lfs 7,.LC6@l(24)
	.loc 8 278 0
	lfs 8,.LC22@l(20)
.LBE3335:
.LBE3338:
.LBE3342:
.LBE3373:
.LBB3374:
.LBB3369:
	.loc 4 638 0
	li 3,0
.LVL375:
.LBE3369:
.LBE3374:
.LBB3375:
.LBB3365:
	.loc 3 649 0
	fmadds 0,11,11,0
	fmadds 0,13,13,0
	stfs 0,88(1)
.LVL376:
.LBE3365:
.LBE3375:
.LBB3376:
.LBB3343:
.LBB3339:
.LBB3336:
	.loc 8 275 0
	fmuls 7,0,7
	.loc 8 270 0
	lwz 0,88(1)
.LVL377:
	.loc 2 1810 0
	fneg 7,7
	.loc 8 276 0
	rlwinm 11,0,19,21,29
	rlwinm 10,0,9,24,31
	lwzx 11,19,11
	subfic 0,10,380
	rlwinm 0,0,22,0,8
	or 0,0,11
	.loc 8 277 0
	stw 0,92(1)
	lfs 0,92(1)
.LVL378:
	fmr 9,0
.LVL379:
	.loc 8 278 0
	fmul 10,9,9
	fmadd 10,7,10,8
	fmul 10,9,10
.LVL380:
	.loc 8 279 0
	fmul 0,10,10
	fmadd 0,7,0,8
.LVL381:
	fmul 0,10,0
.LVL382:
	.loc 8 280 0
	frsp 0,0
.LVL383:
.LBE3336:
.LBE3339:
	.loc 3 651 0
	fmuls 11,11,0
.LVL384:
	.loc 3 652 0
	fmuls 12,12,0
.LVL385:
	.loc 3 653 0
	fmuls 0,13,0
	.loc 3 651 0
	stfs 11,20(1)
	.loc 3 652 0
	stfs 12,24(1)
	.loc 3 653 0
	stfs 0,28(1)
.LVL386:
.LBE3343:
.LBE3376:
.LBB3377:
.LBB3370:
	.loc 4 634 0
	lwzx 0,9,30
	rlwinm 9,0,0,20,31
.LVL387:
	.loc 4 635 0
	srawi 0,0,12
	addi 11,9,4228
	slwi 11,11,2
	add 11,28,11
	lwz 11,4(11)
	cmpw 7,11,0
	beq- 7,.L149
.LVL388:
.L127:
.LBE3370:
.LBE3377:
.LBB3378:
.LBB3379:
	.loc 4 634 0
	lwz 0,636(31)
	.loc 4 638 0
	li 5,0
.LBE3379:
.LBE3378:
	.loc 2 1833 0
	lwz 11,0(3)
.LBB3383:
.LBB3380:
	.loc 4 634 0
	rlwinm 9,0,0,20,31
	.loc 4 635 0
	srawi 0,0,12
	addi 10,9,4228
	slwi 10,10,2
	add 10,28,10
	lwz 10,4(10)
	cmpw 7,10,0
.LBE3380:
.LBE3383:
	.loc 2 1833 0
	lwz 0,164(11)
.LVL389:
.LBB3384:
.LBB3381:
	.loc 4 635 0
	beq- 7,.L150
.LVL390:
.L128:
.LBE3381:
.LBE3384:
	.loc 2 1833 0
	lfs 1,652(31)
.LBB3385:
	.loc 2 2410 0
	lwz 7,1740(31)
.LBE3385:
	.loc 2 1833 0
	fcmpu 7,1,31
	bne- 7,.L129
	lfs 1,.LC2@l(23)
.L129:
	.loc 2 1833 0 is_stmt 0 discriminator 3
	mtctr 0
	mr 4,31
	addi 6,1,20
	li 8,-1
	bctrl
.LVL391:
	.loc 2 1829 0 is_stmt 1 discriminator 3
	li 0,1
	b .L134
.LVL392:
.L150:
.LBB3386:
.LBB3382:
	.loc 4 636 0
	addi 9,9,132
.LVL393:
	slwi 9,9,2
.LVL394:
	add 9,25,9
	lwz 5,4(9)
	b .L128
.LVL395:
.L149:
.LBE3382:
.LBE3386:
.LBB3387:
.LBB3371:
	addi 9,9,132
.LVL396:
	slwi 9,9,2
.LVL397:
	add 9,25,9
	lwz 3,4(9)
	b .L127
.LVL398:
.L146:
	lis 26,gameLocal+2424832@ha
	la 26,gameLocal+2424832@l(26)
	b .L116
.LBE3371:
.LBE3387:
.LBE3390:
.LBE3433:
.LBE3439:
.LBE3457:
.LBE3458:
.LBE3460:
.LBE3462:
	.cfi_endproc
.LFE2902:
	.size	_ZN15idBFGProjectile5ThinkEv, .-_ZN15idBFGProjectile5ThinkEv
	.align 2
	.globl _ZN18idGuidedProjectile5ThinkEv
	.type	_ZN18idGuidedProjectile5ThinkEv, @function
_ZN18idGuidedProjectile5ThinkEv:
.LFB2867:
	.loc 2 1337 0
	.cfi_startproc
.LVL399:
	mflr 0
	stwu 1,-208(1)
.LCFI80:
	.cfi_def_cfa_offset 208
	.cfi_register 65, 0
	stw 31,196(1)
	mr 31,3
	.cfi_offset 31, -12
	stw 0,212(1)
	stfd 31,200(1)
	stw 28,184(1)
	stw 29,188(1)
	stw 30,192(1)
.LBB3536:
	.loc 2 1350 0
	lwz 0,1488(3)
	.cfi_offset 30, -16
	.cfi_offset 29, -20
	.cfi_offset 28, -24
	.cfi_offset 63, -8
	.cfi_offset 65, 4
	cmpwi 7,0,2
	beq- 7,.L171
.L152:
	.loc 2 1406 0
	mr 3,31
.LVL400:
	bl _ZN12idProjectile5ThinkEv
.LBE3536:
	.loc 2 1407 0
	lwz 0,212(1)
	lwz 28,184(1)
	mtlr 0
	lwz 29,188(1)
	lwz 30,192(1)
	lwz 31,196(1)
.LVL401:
	lfd 31,200(1)
	addi 1,1,208
	.cfi_remember_state
.LCFI81:
	.cfi_def_cfa_offset 0
	.cfi_restore 63
	.cfi_restore 31
	.cfi_restore 30
	.cfi_restore 29
	.cfi_restore 28
	blr
.LVL402:
.L171:
.LCFI82:
	.cfi_restore_state
.LBB3695:
	.loc 2 1350 0 discriminator 1
	lbz 0,1553(3)
	cmpwi 7,0,0
	bne+ 7,.L152
	.loc 2 1352 0
	lwz 9,0(3)
	addi 4,1,56
	lis 28,.LC6@ha
	lwz 0,236(9)
	mtctr 0
	bctrl
.LVL403:
	.loc 2 1354 0
	lis 9,gameLocal@ha
	la 9,gameLocal@l(9)
	lwz 10,1540(31)
	addis 11,9,0x25
	lwz 0,2004(11)
	cmpw 7,10,0
	bge- 7,.L153
.LVL404:
.LBB3537:
.LBB3538:
.LBB3539:
.LBB3540:
.LBB3541:
.LBB3542:
	.loc 7 71 0
	addis 9,9,0x1
	lis 0,0x1
	lwz 8,-32064(9)
	ori 0,0,3533
.LBE3542:
.LBE3541:
	.loc 7 83 0
	lis 10,0x4330
.LBE3540:
.LBE3539:
	.loc 7 87 0
	lfs 0,.LC6@l(28)
.LBB3554:
.LBB3549:
.LBB3546:
.LBB3543:
	.loc 7 71 0
	mullw 8,0,8
.LBE3543:
.LBE3546:
	.loc 7 83 0
	stw 10,152(1)
.LBB3547:
.LBB3544:
	.loc 7 71 0
	addi 8,8,1
	.loc 7 72 0
	rlwinm 7,8,0,17,31
.LBE3544:
.LBE3547:
	.loc 7 83 0
	xoris 7,7,0x8000
	stw 7,156(1)
	lis 7,.LC4@ha
	lfs 12,.LC4@l(7)
.LBE3549:
.LBE3554:
	.loc 7 87 0
	lis 7,.LC5@ha
.LBB3555:
.LBB3550:
	.loc 7 83 0
	lfd 10,152(1)
.LBE3550:
.LBE3555:
	.loc 7 87 0
	lfs 13,.LC5@l(7)
.LBB3556:
.LBB3551:
	.loc 7 83 0
	fsub 10,10,12
.LBE3551:
.LBE3556:
.LBE3538:
.LBE3537:
	.loc 2 1355 0
	lfs 11,1504(31)
.LVL405:
.LBB3562:
.LBB3559:
.LBB3557:
.LBB3552:
.LBB3548:
.LBB3545:
	.loc 7 71 0
	stw 8,-32064(9)
.LBE3545:
.LBE3548:
.LBE3552:
.LBE3557:
.LBE3559:
.LBE3562:
.LBB3563:
.LBB3564:
.LBB3565:
.LBB3566:
	.loc 7 83 0
	stw 10,160(1)
.LBE3566:
.LBE3565:
.LBE3564:
.LBE3563:
.LBB3577:
.LBB3560:
.LBB3558:
.LBB3553:
	frsp 10,10
.LBE3553:
.LBE3558:
.LBE3560:
.LBE3577:
	.loc 2 1356 0
	lfs 9,1508(31)
.LBB3578:
.LBB3579:
.LBB3580:
.LBB3581:
	.loc 7 83 0
	stw 10,168(1)
.LBE3581:
.LBE3580:
.LBE3579:
.LBE3578:
.LBB3589:
.LBB3561:
	.loc 7 87 0
	fmsubs 10,10,13,0
	fadds 10,10,10
.LBE3561:
.LBE3589:
	.loc 2 1355 0
	fmuls 10,11,10
	stfs 10,1516(31)
.LVL406:
.LBB3590:
.LBB3575:
.LBB3573:
.LBB3571:
.LBB3567:
.LBB3568:
	.loc 7 71 0
	lwz 10,-32064(9)
	mullw 10,0,10
	addi 10,10,1
	.loc 7 72 0
	rlwinm 8,10,0,17,31
.LBE3568:
.LBE3567:
	.loc 7 83 0
	xoris 8,8,0x8000
	stw 8,164(1)
.LBB3570:
.LBB3569:
	.loc 7 71 0
	stw 10,-32064(9)
.LBE3569:
.LBE3570:
	.loc 7 83 0
	lfd 11,160(1)
.LBE3571:
.LBE3573:
.LBE3575:
.LBE3590:
	.loc 2 1357 0
	lfs 10,1512(31)
.LBB3591:
.LBB3576:
.LBB3574:
.LBB3572:
	.loc 7 83 0
	fsub 11,11,12
	frsp 11,11
.LBE3572:
.LBE3574:
	.loc 7 87 0
	fmsubs 11,11,13,0
	fadds 11,11,11
.LBE3576:
.LBE3591:
	.loc 2 1356 0
	fmuls 11,9,11
	stfs 11,1520(31)
.LVL407:
.LBB3592:
.LBB3588:
.LBB3587:
.LBB3586:
.LBB3582:
.LBB3583:
	.loc 7 71 0
	lwz 10,-32064(9)
	mullw 10,0,10
	addi 0,10,1
	.loc 7 72 0
	rlwinm 10,0,0,17,31
.LBE3583:
.LBE3582:
	.loc 7 83 0
	xoris 10,10,0x8000
	stw 10,172(1)
.LBB3585:
.LBB3584:
	.loc 7 71 0
	stw 0,-32064(9)
.LBE3584:
.LBE3585:
	.loc 7 83 0
	lfd 11,168(1)
	fsub 12,11,12
	frsp 12,12
.LBE3586:
.LBE3587:
	.loc 7 87 0
	fmsubs 0,12,13,0
	fadds 0,0,0
.LBE3588:
.LBE3592:
	.loc 2 1357 0
	fmuls 0,10,0
	stfs 0,1524(31)
	.loc 2 1358 0
	lwz 9,2004(11)
	addi 0,9,200
	stw 0,1540(31)
.LVL408:
.L153:
	.loc 2 1361 0
	addi 30,31,936
	li 4,0
	mr 3,30
	bl _ZNK19idPhysics_RigidBody9GetOriginEi
	li 4,0
	mr 29,3
	mr 3,30
	bl _ZNK19idPhysics_RigidBody7GetAxisEi
.LVL409:
.LBB3593:
.LBB3594:
	.loc 3 452 0
	lis 9,.LC26@ha
	lfs 12,4(3)
.LBE3594:
.LBE3593:
	.loc 2 1365 0
	addi 4,1,68
.LBB3601:
.LBB3595:
	.loc 3 452 0
	lfs 13,4(29)
	lfs 0,.LC26@l(9)
.LBE3595:
.LBE3601:
.LBB3602:
.LBB3603:
.LBB3604:
.LBB3605:
	.loc 8 278 0
	lis 9,.LC22@ha
.LBE3605:
.LBE3604:
.LBE3603:
.LBE3602:
.LBB3618:
.LBB3596:
	.loc 3 452 0
	lfs 11,0(3)
	fmadds 12,12,0,13
	lfs 13,0(29)
	lfs 10,8(3)
.LBE3596:
.LBE3618:
	.loc 2 1365 0
	addi 3,1,20
.LVL410:
.LBB3619:
.LBB3597:
	.loc 3 452 0
	fmadds 11,11,0,13
.LVL411:
	.loc 3 431 0
	lfs 13,60(1)
.LBE3597:
.LBE3619:
.LBB3620:
.LBB3614:
.LBB3610:
.LBB3606:
	.loc 8 278 0
	lfs 8,.LC22@l(9)
.LBE3606:
.LBE3610:
.LBE3614:
.LBE3620:
.LBB3621:
.LBB3598:
	.loc 3 431 0
	fsubs 12,13,12
.LVL412:
	.loc 3 452 0
	lfs 13,8(29)
.LBE3598:
.LBE3621:
.LBB3622:
.LBB3615:
.LBB3611:
.LBB3607:
	.loc 8 275 0
	lfs 7,.LC6@l(28)
.LBE3607:
.LBE3611:
.LBE3615:
.LBE3622:
.LBB3623:
.LBB3599:
	.loc 3 452 0
	fmadds 0,10,0,13
	.loc 3 431 0
	lfs 13,56(1)
.LBE3599:
.LBE3623:
.LBB3624:
.LBB3616:
	.loc 3 649 0
	fmuls 10,12,12
.LVL413:
.LBE3616:
.LBE3624:
.LBB3625:
.LBB3600:
	.loc 3 431 0
	fsubs 11,13,11
.LVL414:
	lfs 13,64(1)
	fsubs 13,13,0
.LVL415:
	.loc 3 649 0
	fmadds 0,11,11,10
.LVL416:
	fmadds 0,13,13,0
	stfs 0,176(1)
.LVL417:
.LBE3600:
.LBE3625:
.LBB3626:
.LBB3617:
.LBB3612:
.LBB3608:
	.loc 8 275 0
	fmuls 7,0,7
	.loc 8 270 0
	lwz 0,176(1)
.LVL418:
	.loc 2 1337 0
	fneg 7,7
	.loc 8 276 0
	rlwinm 11,0,9,24,31
	rlwinm 9,0,19,21,29
	subfic 0,11,380
	lis 11,_ZN6idMath5iSqrtE@ha
	la 11,_ZN6idMath5iSqrtE@l(11)
	rlwinm 0,0,22,0,8
	lwzx 9,11,9
	or 0,0,9
	.loc 8 277 0
	stw 0,180(1)
	lfs 0,180(1)
.LVL419:
	fmr 9,0
.LVL420:
	.loc 8 278 0
	fmul 10,9,9
	fmadd 10,7,10,8
	fmul 10,9,10
.LVL421:
	.loc 8 279 0
	fmul 0,10,10
	fmadd 0,7,0,8
.LVL422:
	fmul 0,10,0
.LVL423:
.LBE3608:
.LBE3612:
	.loc 3 654 0
	lfs 10,176(1)
.LVL424:
.LBB3613:
.LBB3609:
	.loc 8 280 0
	frsp 0,0
.LVL425:
.LBE3609:
.LBE3613:
	.loc 3 653 0
	fmuls 13,13,0
.LVL426:
	.loc 3 651 0
	fmuls 11,11,0
.LVL427:
	.loc 3 652 0
	fmuls 12,12,0
.LVL428:
	.loc 3 654 0
	fmuls 31,10,0
	.loc 3 653 0
	stfs 13,76(1)
	.loc 3 651 0
	stfs 11,68(1)
	.loc 3 652 0
	stfs 12,72(1)
.LBE3617:
.LBE3626:
	.loc 2 1365 0
	bl _ZNK6idVec38ToAnglesEv
.LVL429:
	.loc 2 1368 0
	lfs 0,1548(31)
	.loc 2 1369 0
	lis 9,.LC2@ha
	lfs 13,.LC2@l(9)
	.loc 2 1368 0
	fdivs 0,31,0
.LBB3627:
.LBB3628:
	.file 15 "d:/Data/Nintendo/DoomGX/src/game/../idlib/../idlib/math/Angles.h"
	.loc 15 146 0
	lfs 10,20(1)
.LVL430:
	.loc 15 147 0
	lfs 8,24(1)
.LVL431:
	.loc 15 148 0
	lfs 9,28(1)
.LVL432:
.LBE3628:
.LBE3627:
	.loc 2 1369 0
	fcmpu 7,0,13
	bng- 7,.L154
	.loc 2 1370 0
	fmr 0,13
.LVL433:
.L154:
.LBB3629:
.LBB3630:
	.loc 15 165 0
	lfs 12,1532(31)
.LBE3630:
.LBE3629:
	.loc 2 1376 0
	addi 29,1,32
.LVL434:
.LBB3634:
.LBB3631:
	.loc 15 165 0
	lfs 13,1536(31)
.LBE3631:
.LBE3634:
	.loc 2 1376 0
	mr 3,29
.LBB3635:
.LBB3632:
	.loc 15 165 0
	lfs 11,1528(31)
	fsubs 12,8,12
	fsubs 13,9,13
.LBE3632:
.LBE3635:
	.loc 15 153 0
	lfs 8,1520(31)
.LBB3636:
.LBB3633:
	.loc 15 165 0
	fsubs 11,10,11
.LBE3633:
.LBE3636:
	.loc 15 153 0
	lfs 9,1524(31)
.LBB3637:
.LBB3638:
	lfs 10,1516(31)
.LBE3638:
.LBE3637:
	fmadds 12,0,8,12
	fmadds 13,0,9,13
.LVL435:
.LBB3640:
.LBB3639:
	fmadds 0,0,10,11
.LVL436:
	.loc 15 147 0
	stfs 12,36(1)
	.loc 15 148 0
	stfs 13,40(1)
	.loc 15 146 0
	stfs 0,32(1)
.LBE3639:
.LBE3640:
	.loc 2 1376 0
	bl _ZN8idAngles12Normalize180Ev
.LVL437:
	.loc 2 1378 0
	lfs 13,1544(31)
	.loc 2 1380 0
	li 9,0
	fneg 12,13
.LVL438:
.L159:
	.loc 2 1378 0
	lfsx 0,29,9
.LBB3641:
.LBB3642:
	.loc 15 138 0
	add 11,29,9
.LBE3642:
.LBE3641:
	.loc 2 1378 0
	fcmpu 7,0,13
	bng- 7,.L170
.LVL439:
	.loc 2 1379 0
	stfsx 13,29,9
.LVL440:
.L157:
	.loc 2 1377 0
	cmpwi 7,9,8
	addi 9,9,4
	bne+ 7,.L159
.LVL441:
.LBB3643:
.LBB3644:
	.loc 15 157 0
	lfs 12,1528(31)
.LBE3644:
.LBE3643:
	.loc 2 1387 0
	addi 3,1,8
.LBB3647:
.LBB3645:
	.loc 15 157 0
	lfs 0,32(1)
.LBE3645:
.LBE3647:
	.loc 2 1387 0
	addi 4,31,1528
.LBB3648:
.LBB3646:
	.loc 15 158 0
	lfs 13,1532(31)
	.loc 15 157 0
	fadds 12,12,0
	.loc 15 158 0
	lfs 0,36(1)
	.loc 15 159 0
	lfs 11,1536(31)
	.loc 15 158 0
	fadds 13,13,0
	.loc 15 159 0
	lfs 0,40(1)
	.loc 15 157 0
	stfs 12,1528(31)
	.loc 15 159 0
	fadds 0,11,0
	.loc 15 158 0
	stfs 13,1532(31)
	.loc 15 159 0
	stfs 0,1536(31)
.LBE3646:
.LBE3648:
	.loc 2 1387 0
	bl _ZNK8idAngles9ToForwardEv
.LVL442:
	.loc 2 1390 0
	lbz 0,1552(31)
	.loc 2 1388 0
	lfs 13,1496(31)
.LVL443:
.LBB3649:
.LBB3650:
	.loc 3 424 0
	lfs 10,8(1)
.LBE3650:
.LBE3649:
	.loc 2 1390 0
	cmpwi 7,0,0
.LBB3654:
.LBB3651:
	.loc 3 425 0
	lfs 11,12(1)
	.loc 3 426 0
	lfs 12,16(1)
.LBE3651:
.LBE3654:
.LBB3655:
.LBB3656:
	.loc 3 439 0
	fmuls 9,13,10
	fmuls 0,13,11
.LBE3656:
.LBE3655:
.LBB3658:
.LBB3652:
	.loc 3 424 0
	stfs 10,68(1)
.LBE3652:
.LBE3658:
.LBB3659:
.LBB3657:
	.loc 3 439 0
	fmuls 13,13,12
.LVL444:
.LBE3657:
.LBE3659:
.LBB3660:
.LBB3653:
	.loc 3 425 0
	stfs 11,72(1)
	.loc 3 426 0
	stfs 12,76(1)
.LBE3653:
.LBE3660:
.LBB3661:
.LBB3662:
	.loc 3 424 0
	stfs 9,44(1)
	.loc 3 425 0
	stfs 0,48(1)
	.loc 3 426 0
	stfs 13,52(1)
.LBE3662:
.LBE3661:
	.loc 2 1390 0
	beq- 7,.L160
	.loc 2 1390 0 is_stmt 0 discriminator 1
	lfs 12,1556(31)
	fcmpu 7,12,31
	bgt- 7,.L172
.LVL445:
.L160:
	.loc 2 1395 0 is_stmt 1
	mr 3,30
	addi 4,1,44
	li 5,0
	bl _ZN19idPhysics_RigidBody17SetLinearVelocityERK6idVec3i
.LVL446:
	.loc 2 1398 0
	addi 3,1,80
	addi 4,1,68
.LVL447:
	bl _ZNK6idVec36ToMat3Ev
.LVL448:
	li 10,0
.L162:
.LBB3663:
.LBB3664:
.LBB3665:
.LBB3666:
	.loc 3 424 0
	addi 11,1,80
.LVL449:
	addi 9,1,116
	lwzux 0,11,10
.LVL450:
.LBE3666:
.LBE3665:
	.loc 12 333 0
	cmpwi 7,10,24
.LBB3669:
.LBB3667:
	.loc 3 424 0
	stwux 0,9,10
.LBE3667:
.LBE3669:
	.loc 12 333 0
	addi 10,10,12
.LBB3670:
.LBB3668:
	.loc 3 425 0
	lwz 0,4(11)
	stw 0,4(9)
	.loc 3 426 0
	lwz 0,8(11)
	stw 0,8(9)
.LBE3668:
.LBE3670:
	.loc 12 333 0
	bne+ 7,.L162
.LVL451:
.LBE3664:
.LBE3663:
.LBB3671:
.LBB3672:
	.loc 3 424 0
	lwz 0,116(1)
.LBE3672:
.LBE3671:
	.loc 2 1403 0
	mr 3,31
.LBB3677:
.LBB3678:
	.loc 3 424 0
	lfs 12,140(1)
.LVL452:
.LBE3678:
.LBE3677:
.LBB3679:
.LBB3680:
	.loc 3 420 0
	lfs 13,144(1)
	lfs 0,148(1)
	fneg 12,12
.LBE3680:
.LBE3679:
.LBB3683:
.LBB3673:
	.loc 3 424 0
	stw 0,140(1)
.LBE3673:
.LBE3683:
.LBB3684:
.LBB3681:
	.loc 3 420 0
	fneg 13,13
.LBE3681:
.LBE3684:
.LBB3685:
.LBB3674:
	.loc 3 425 0
	lwz 0,120(1)
.LBE3674:
.LBE3685:
.LBB3686:
.LBB3682:
	.loc 3 420 0
	fneg 0,0
.LBE3682:
.LBE3686:
.LBB3687:
.LBB3688:
	.loc 3 424 0
	stfs 12,116(1)
.LBE3688:
.LBE3687:
.LBB3690:
.LBB3675:
	.loc 3 425 0
	stw 0,144(1)
	.loc 3 426 0
	lwz 0,124(1)
.LBE3675:
.LBE3690:
.LBB3691:
.LBB3689:
	.loc 3 425 0
	stfs 13,120(1)
	.loc 3 426 0
	stfs 0,124(1)
.LBE3689:
.LBE3691:
.LBB3692:
.LBB3676:
	stw 0,148(1)
.LVL453:
.LBE3676:
.LBE3692:
	.loc 2 1403 0
	bl _ZNK8idEntity10GetPhysicsEv
.LVL454:
	lwz 9,0(3)
	addi 4,1,116
	li 5,-1
	lwz 0,120(9)
	mtctr 0
	bctrl
	.loc 2 1406 0
	mr 3,31
	bl _ZN12idProjectile5ThinkEv
.LBE3695:
	.loc 2 1407 0
	lwz 0,212(1)
	lwz 28,184(1)
	mtlr 0
	lwz 29,188(1)
.LVL455:
	lwz 30,192(1)
	lwz 31,196(1)
.LVL456:
	lfd 31,200(1)
	addi 1,1,208
	.cfi_remember_state
	.cfi_restore 28
	.cfi_restore 29
	.cfi_restore 30
	.cfi_restore 31
	.cfi_restore 63
.LCFI83:
	.cfi_def_cfa_offset 0
	blr
.LVL457:
.L170:
.LCFI84:
	.cfi_restore_state
.LBB3696:
	.loc 2 1380 0
	fcmpu 7,0,12
	bnl- 7,.L157
.LVL458:
	.loc 2 1381 0
	stfs 12,0(11)
	b .L157
.LVL459:
.L172:
	.loc 2 1392 0
	lfs 12,1560(31)
.LVL460:
	.loc 2 1391 0
	li 0,1
	stb 0,1553(31)
.LBB3693:
.LBB3694:
	.loc 3 489 0
	fmuls 9,12,9
.LVL461:
	.loc 3 490 0
	fmuls 0,12,0
.LVL462:
	.loc 3 491 0
	fmuls 13,12,13
.LVL463:
	.loc 3 489 0
	stfs 9,44(1)
	.loc 3 490 0
	stfs 0,48(1)
	.loc 3 491 0
	stfs 13,52(1)
	b .L160
.LBE3694:
.LBE3693:
.LBE3696:
	.cfi_endproc
.LFE2867:
	.size	_ZN18idGuidedProjectile5ThinkEv, .-_ZN18idGuidedProjectile5ThinkEv
	.align 2
	.globl _ZN12idProjectile18Event_RadiusDamageEP8idEntity
	.type	_ZN12idProjectile18Event_RadiusDamageEP8idEntity, @function
_ZN12idProjectile18Event_RadiusDamageEP8idEntity:
.LFB2841:
	.loc 2 755 0
	.cfi_startproc
.LVL464:
	stwu 1,-24(1)
.LCFI85:
	.cfi_def_cfa_offset 24
	mflr 0
	stw 30,16(1)
	mr 30,4
	.cfi_offset 30, -8
	.cfi_register 65, 0
.LBB3704:
.LBB3705:
.LBB3706:
	.file 16 "d:/Data/Nintendo/DoomGX/src/game/../idlib/../idlib/Dict.h"
	.loc 16 241 0
	lis 4,.LC28@ha
.LVL465:
.LBE3706:
.LBE3705:
.LBE3704:
	.loc 2 755 0
	stw 29,12(1)
.LBB3722:
.LBB3712:
.LBB3708:
	.loc 16 241 0
	la 4,.LC28@l(4)
.LBE3708:
.LBE3712:
.LBE3722:
	.loc 2 755 0
	mr 29,3
	.cfi_offset 29, -12
.LVL466:
.LBB3723:
.LBB3713:
.LBB3709:
	.loc 16 241 0
	addi 3,3,100
.LVL467:
.LBE3709:
.LBE3713:
.LBE3723:
	.loc 2 755 0
	stw 0,28(1)
	stw 31,20(1)
.LBB3724:
.LBB3714:
.LBB3710:
	.loc 16 241 0
	.cfi_offset 31, -4
	.cfi_offset 65, 4
	bl _ZNK6idDict7FindKeyEPKc
.LVL468:
	.loc 16 242 0
	cmpwi 0,3,0
	beq- 0,.L177
.LVL469:
.LBB3707:
	.loc 2 2410 0
	lwz 9,4(3)
	lwz 31,4(9)
.LVL470:
.L174:
.LBE3707:
.LBE3710:
.LBE3714:
	.loc 2 757 0
	lbz 0,0(31)
	cmpwi 7,0,0
	bne- 7,.L179
.LBE3724:
	.loc 2 760 0
	lwz 0,28(1)
	lwz 29,12(1)
.LVL471:
	mtlr 0
	lwz 30,16(1)
.LVL472:
	lwz 31,20(1)
	addi 1,1,24
	.cfi_remember_state
.LCFI86:
	.cfi_def_cfa_offset 0
	.cfi_restore 31
	.cfi_restore 30
	.cfi_restore 29
	blr
.LVL473:
.L179:
.LCFI87:
	.cfi_restore_state
.LBB3725:
	.loc 2 758 0
	li 4,0
	addi 3,29,936
.LVL474:
	bl _ZNK19idPhysics_RigidBody9GetOriginEi
.LBB3715:
.LBB3716:
	.loc 4 634 0
	lwz 0,636(29)
.LBE3716:
.LBE3715:
	.loc 2 758 0
	mr 4,3
.LVL475:
.LBB3719:
.LBB3717:
	.loc 4 635 0
	lis 3,gameLocal@ha
	.loc 4 634 0
	rlwinm 9,0,0,20,31
.LVL476:
	.loc 4 635 0
	la 3,gameLocal@l(3)
	addi 11,9,4228
	srawi 0,0,12
	slwi 11,11,2
	.loc 4 638 0
	li 6,0
	.loc 4 635 0
	add 11,3,11
	lwz 11,4(11)
	cmpw 7,11,0
	beq- 7,.L180
.LVL477:
.L176:
.LBE3717:
.LBE3719:
	.loc 2 758 0
	lfs 1,652(29)
	mr 5,29
	mr 7,30
	mr 8,29
	mr 9,31
	bl _ZN11idGameLocal12RadiusDamageERK6idVec3P8idEntityS4_S4_S4_PKcf
.LBE3725:
	.loc 2 760 0
	lwz 0,28(1)
	lwz 29,12(1)
.LVL478:
	mtlr 0
	lwz 30,16(1)
.LVL479:
	lwz 31,20(1)
	addi 1,1,24
	.cfi_remember_state
	.cfi_restore 29
	.cfi_restore 30
	.cfi_restore 31
.LCFI88:
	.cfi_def_cfa_offset 0
	blr
.LVL480:
.L180:
.LCFI89:
	.cfi_restore_state
.LBB3726:
.LBB3720:
.LBB3718:
	.loc 4 636 0
	addi 9,9,132
.LVL481:
	slwi 9,9,2
.LVL482:
	add 9,3,9
	lwz 6,4(9)
	b .L176
.LVL483:
.L177:
.LBE3718:
.LBE3720:
.LBB3721:
.LBB3711:
	.loc 16 245 0
	lis 31,.LC27@ha
	la 31,.LC27@l(31)
	b .L174
.LBE3711:
.LBE3721:
.LBE3726:
	.cfi_endproc
.LFE2841:
	.size	_ZN12idProjectile18Event_RadiusDamageEP8idEntity, .-_ZN12idProjectile18Event_RadiusDamageEP8idEntity
	.align 2
	.globl _ZN15idBFGProjectile5SpawnEv
	.type	_ZN15idBFGProjectile5SpawnEv, @function
_ZN15idBFGProjectile5SpawnEv:
.LFB2898:
	.loc 2 1716 0
	.cfi_startproc
.LVL484:
	mflr 0
	stwu 1,-48(1)
.LCFI90:
	.cfi_def_cfa_offset 48
	.cfi_register 65, 0
	stw 31,44(1)
	mr 31,3
	.cfi_offset 31, -4
.LVL485:
	stw 0,52(1)
	stw 30,40(1)
.LBB3738:
.LBB3739:
.LBB3740:
	.loc 5 193 0
	lwz 3,1508(3)
.LVL486:
	cmpwi 7,3,0
	beq- 7,.L182
	.cfi_offset 30, -8
	.cfi_offset 65, 4
	.loc 5 194 0
	bl _ZdaPv
.L182:
	.loc 5 197 0
	li 0,0
.LBE3740:
.LBE3739:
	.loc 2 1718 0
	addi 30,31,1512
.LBB3744:
.LBB3741:
	.loc 5 197 0
	stw 0,1508(31)
.LBE3741:
.LBE3744:
	.loc 2 1718 0
	li 4,0
.LBB3745:
.LBB3742:
	.loc 5 198 0
	stw 0,1496(31)
.LBE3742:
.LBE3745:
	.loc 2 1718 0
	li 5,216
.LBB3746:
.LBB3743:
	.loc 5 199 0
	stw 0,1500(31)
.LBE3743:
.LBE3746:
	.loc 2 1718 0
	mr 3,30
	bl memset
	.loc 2 1719 0
	li 0,-1
	stw 0,1728(31)
.LVL487:
.LBB3747:
.LBB3748:
	.loc 16 241 0
	lis 4,.LC29@ha
	addi 3,31,100
	la 4,.LC29@l(4)
	bl _ZNK6idDict7FindKeyEPKc
.LVL488:
	.loc 16 242 0
	cmpwi 0,3,0
	beq- 0,.L185
.LVL489:
.LBB3749:
	.loc 2 2410 0
	lwz 9,4(3)
	lwz 4,4(9)
.LBE3749:
.LBE3748:
.LBE3747:
	.loc 2 1721 0
	cmpwi 7,4,0
	beq- 7,.L184
.LVL490:
.L183:
	.loc 2 1721 0 is_stmt 0 discriminator 1
	lbz 0,0(4)
	cmpwi 7,0,0
	beq+ 7,.L184
	.loc 2 1722 0 is_stmt 1
	lis 9,renderModelManager@ha
	lwz 3,renderModelManager@l(9)
.LVL491:
	lwz 9,0(3)
	lwz 0,32(9)
	mtctr 0
	bctrl
	.loc 2 1723 0
	mr 5,30
	.loc 2 1722 0
	stw 3,1512(31)
	mr 4,3
	.loc 2 1723 0
	addi 3,1,8
	lwz 9,0(4)
	lwz 0,128(9)
	mtctr 0
	bctrl
.LVL492:
.LBB3751:
.LBB3752:
.LBB3753:
	.loc 3 424 0
	lwz 11,8(1)
.LBE3753:
.LBE3752:
.LBE3751:
	.loc 2 1727 0
	lis 9,.LC2@ha
.LBB3766:
.LBB3760:
.LBB3754:
	.loc 3 424 0
	stw 11,1524(31)
	.loc 3 425 0
	lwz 11,12(1)
.LBE3754:
.LBE3760:
.LBE3766:
	.loc 2 1727 0
	lwz 0,.LC2@l(9)
	.loc 2 1728 0
	li 9,1
.LBB3767:
.LBB3761:
.LBB3755:
	.loc 3 425 0
	stw 11,1528(31)
	.loc 3 426 0
	lwz 11,16(1)
.LBE3755:
.LBE3761:
.LBE3767:
	.loc 2 1727 0
	stw 0,1648(31)
.LBB3768:
.LBB3762:
.LBB3756:
	.loc 3 426 0
	stw 11,1532(31)
.LVL493:
	.loc 3 424 0
	lwz 11,20(1)
.LBE3756:
.LBE3762:
.LBE3768:
	.loc 2 1727 0
	stw 0,1644(31)
.LBB3769:
.LBB3763:
.LBB3757:
	.loc 3 424 0
	stw 11,1536(31)
	.loc 3 425 0
	lwz 11,24(1)
.LBE3757:
.LBE3763:
.LBE3769:
	.loc 2 1727 0
	stw 0,1640(31)
.LBB3770:
.LBB3764:
.LBB3758:
	.loc 3 425 0
	stw 11,1540(31)
	.loc 3 426 0
	lwz 11,28(1)
.LBE3758:
.LBE3764:
.LBE3770:
	.loc 2 1727 0
	stw 0,1636(31)
.LBB3771:
.LBB3765:
.LBB3759:
	.loc 3 426 0
	stw 11,1544(31)
.LBE3759:
.LBE3765:
.LBE3771:
	.loc 2 1728 0
	stb 9,1712(31)
	.loc 2 1729 0
	stb 9,1713(31)
.LVL494:
.L184:
	.loc 2 1731 0
	li 0,0
	.loc 2 1732 0
	addi 3,31,1736
	.loc 2 1731 0
	stw 0,1732(31)
	.loc 2 1732 0
	li 4,0
	bl _ZN5idStraSEPKc
.LBE3738:
	.loc 2 1733 0
	lwz 0,52(1)
	lwz 30,40(1)
	mtlr 0
	lwz 31,44(1)
.LVL495:
	addi 1,1,48
	.cfi_remember_state
.LCFI91:
	.cfi_def_cfa_offset 0
	.cfi_restore 31
	.cfi_restore 30
	blr
.LVL496:
.L185:
.LCFI92:
	.cfi_restore_state
.LBB3773:
.LBB3772:
.LBB3750:
	.loc 16 245 0
	lis 4,.LC27@ha
	la 4,.LC27@l(4)
	b .L183
.LBE3750:
.LBE3772:
.LBE3773:
	.cfi_endproc
.LFE2898:
	.size	_ZN15idBFGProjectile5SpawnEv, .-_ZN15idBFGProjectile5SpawnEv
	.align 2
	.globl _ZN12idProjectile6LaunchERK6idVec3S2_S2_fff
	.type	_ZN12idProjectile6LaunchERK6idVec3S2_S2_fff, @function
_ZN12idProjectile6LaunchERK6idVec3S2_S2_fff:
.LFB2828:
	.loc 2 279 0
	.cfi_startproc
.LVL497:
	mflr 0
	stwu 1,-336(1)
.LCFI93:
	.cfi_def_cfa_offset 336
	.cfi_register 65, 0
	stfd 23,264(1)
	fmr 23,1
	.cfi_offset 55, -72
	stfd 30,320(1)
	fmr 30,2
	.cfi_offset 62, -16
	stfd 31,328(1)
	fmr 31,3
	.cfi_offset 63, -8
	stw 23,204(1)
	mr 23,5
	.cfi_offset 23, -132
	stw 24,208(1)
	mr 24,4
	.cfi_offset 24, -128
	stw 26,216(1)
	mr 26,6
	.cfi_offset 26, -120
	stw 29,228(1)
.LBB3956:
.LBB3957:
.LBB3958:
	.loc 4 635 0
	lis 29,gameLocal@ha
	.cfi_offset 29, -108
.LBE3958:
.LBE3957:
.LBE3956:
	.loc 2 279 0
	stw 31,236(1)
.LBB4518:
.LBB3962:
.LBB3959:
	.loc 4 635 0
	la 29,gameLocal@l(29)
.LBE3959:
.LBE3962:
.LBE4518:
	.loc 2 279 0
	stw 0,340(1)
	mr 31,3
	.cfi_offset 65, 4
	.cfi_offset 31, -100
.LVL498:
	stfd 20,240(1)
	stfd 21,248(1)
	stfd 22,256(1)
	stfd 24,272(1)
	stfd 25,280(1)
	stfd 26,288(1)
	stfd 27,296(1)
	stfd 28,304(1)
	stfd 29,312(1)
	stw 22,200(1)
	stw 25,212(1)
	stw 27,220(1)
	stw 28,224(1)
	stw 30,232(1)
.LBB4519:
.LBB3963:
.LBB3960:
	.loc 4 634 0
	lwz 0,636(3)
	rlwinm 9,0,0,20,31
.LVL499:
	.loc 4 635 0
	srawi 0,0,12
	addi 11,9,4228
	slwi 11,11,2
	add 11,29,11
	lwz 11,4(11)
	cmpw 7,11,0
	beq- 7,.L262
	.cfi_offset 30, -104
	.cfi_offset 28, -112
	.cfi_offset 27, -116
	.cfi_offset 25, -124
	.cfi_offset 22, -136
	.cfi_offset 61, -24
	.cfi_offset 60, -32
	.cfi_offset 59, -40
	.cfi_offset 58, -48
	.cfi_offset 57, -56
	.cfi_offset 56, -64
	.cfi_offset 54, -80
	.cfi_offset 53, -88
	.cfi_offset 52, -96
.LVL500:
.L187:
.LBE3960:
.LBE3963:
	.loc 2 303 0
	li 0,0
	.loc 2 306 0
	addi 30,31,100
.LVL501:
	.loc 2 303 0
	stb 0,160(31)
.LBB3964:
.LBB3965:
.LBB3966:
.LBB3967:
	.loc 16 241 0
	lis 4,.LC32@ha
	mr 3,30
	la 4,.LC32@l(4)
	bl _ZNK6idDict7FindKeyEPKc
.LVL502:
	.loc 16 242 0
	cmpwi 0,3,0
	beq- 0,.L232
.L268:
.LVL503:
.LBB3968:
	.loc 2 2410 0
	lwz 9,4(3)
	lwz 3,4(9)
.LVL504:
.LBE3968:
.LBE3967:
.LBE3966:
	.loc 16 249 0
	bl atof
.LVL505:
.LBE3965:
.LBE3964:
.LBB3979:
.LBB3980:
.LBB3981:
.LBB3982:
	.loc 16 241 0
	lis 4,.LC33@ha
.LBE3982:
.LBE3981:
.LBE3980:
.LBE3979:
.LBB3999:
.LBB3973:
	.loc 16 249 0
	frsp 1,1
.LBE3973:
.LBE3999:
.LBB4000:
.LBB3994:
.LBB3989:
.LBB3984:
	.loc 16 241 0
	mr 3,30
	la 4,.LC33@l(4)
.LBE3984:
.LBE3989:
.LBE3994:
.LBE4000:
.LBB4001:
.LBB3974:
	.loc 16 249 0
	stfs 1,644(31)
.LVL506:
.LBE3974:
.LBE4001:
.LBB4002:
.LBB3995:
.LBB3990:
.LBB3985:
	.loc 16 241 0
	bl _ZNK6idDict7FindKeyEPKc
.LVL507:
	.loc 16 242 0
	cmpwi 0,3,0
	beq- 0,.L233
.L269:
.LVL508:
.LBB3983:
	.loc 2 2410 0
	lwz 9,4(3)
	lwz 3,4(9)
.LVL509:
.LBE3983:
.LBE3985:
.LBE3990:
	.loc 16 249 0
	bl atof
.LVL510:
.LBE3995:
.LBE4002:
.LBB4003:
.LBB4004:
.LBB4005:
.LBB4006:
	.loc 16 241 0
	lis 4,.LC34@ha
	mr 3,30
	la 4,.LC34@l(4)
	bl _ZNK6idDict7FindKeyEPKc
.LVL511:
	.loc 16 242 0
	cmpwi 0,3,0
	beq- 0,.L234
.L270:
.LVL512:
.LBB4007:
	.loc 2 2410 0
	lwz 9,4(3)
	lwz 3,4(9)
.LVL513:
.L192:
.LBE4007:
.LBE4006:
.LBE4005:
.LBE4004:
.LBE4003:
	.loc 2 310 0
	lis 27,.LC36@ha
.LBB4013:
.LBB4010:
	.loc 16 249 0
	bl atof
.LBE4010:
.LBE4013:
	.loc 2 310 0
	la 27,.LC36@l(27)
	lis 4,.LC35@ha
	la 4,.LC35@l(4)
	mr 5,27
	addi 6,1,80
	mr 3,30
.LBB4014:
.LBB4011:
	.loc 16 249 0
	frsp 28,1
.LBE4011:
.LBE4014:
	.loc 2 310 0
	bl _ZNK6idDict9GetVectorEPKcS1_R6idVec3
.LVL514:
.LBB4015:
.LBB4016:
	.loc 3 632 0
	lfs 0,84(1)
.LBB4017:
.LBB4018:
.LBB4019:
.LBB4020:
	.loc 8 276 0
	lis 9,_ZN6idMath5iSqrtE@ha
.LBE4020:
.LBE4019:
.LBE4018:
.LBE4017:
	.loc 3 632 0
	lfs 13,80(1)
.LBB4038:
.LBB4033:
.LBB4027:
.LBB4021:
	.loc 8 276 0
	la 9,_ZN6idMath5iSqrtE@l(9)
.LBE4021:
.LBE4027:
.LBE4033:
.LBE4038:
	.loc 3 632 0
	fmuls 12,0,0
	lfs 0,88(1)
.LBB4039:
.LBB4034:
.LBB4028:
.LBB4022:
	.loc 8 275 0
	lis 28,.LC6@ha
	.loc 8 278 0
	lis 25,.LC22@ha
	.loc 8 275 0
	lfs 11,.LC6@l(28)
.LBE4022:
.LBE4028:
.LBE4034:
.LBE4039:
.LBE4016:
.LBE4015:
	.loc 2 316 0
	lis 4,.LC37@ha
.LBB4046:
.LBB4043:
	.loc 3 632 0
	fmadds 13,13,13,12
.LBB4040:
.LBB4035:
.LBB4029:
.LBB4023:
	.loc 8 278 0
	lfs 12,.LC22@l(25)
.LBE4023:
.LBE4029:
.LBE4035:
.LBE4040:
.LBE4043:
.LBE4046:
	.loc 2 316 0
	la 4,.LC37@l(4)
	mr 5,27
	addi 6,1,68
	mr 3,30
.LBB4047:
.LBB4044:
	.loc 3 632 0
	fmadds 13,0,0,13
	stfs 13,188(1)
.LVL515:
.LBB4041:
.LBB4036:
.LBB4030:
.LBB4024:
	.loc 8 275 0
	fmuls 11,13,11
	.loc 8 270 0
	lwz 0,188(1)
.LVL516:
	.loc 2 279 0
	fneg 11,11
.LBE4024:
.LBE4030:
	.loc 8 303 0
	lfs 10,188(1)
.LBB4031:
.LBB4025:
	.loc 8 276 0
	rlwinm 11,0,9,24,31
	rlwinm 0,0,19,21,29
	lwzx 9,9,0
	subfic 0,11,380
	rlwinm 0,0,22,0,8
	or 0,0,9
	.loc 8 277 0
	stw 0,192(1)
	lfs 0,192(1)
.LBE4025:
.LBE4031:
.LBE4036:
.LBE4041:
.LBE4044:
.LBE4047:
	.loc 2 314 0
	stfs 31,652(31)
.LBB4048:
.LBB4045:
.LBB4042:
.LBB4037:
.LBB4032:
.LBB4026:
	.loc 8 277 0
	fmr 13,0
.LVL517:
	.loc 8 278 0
	fmul 0,13,13
.LVL518:
	fmadd 0,11,0,12
	fmul 0,13,0
.LVL519:
	.loc 8 279 0
	fmul 31,0,0
.LVL520:
	fmadd 31,11,31,12
.LVL521:
	fmul 31,0,31
.LVL522:
	.loc 8 280 0
	frsp 31,31
.LVL523:
.LBE4026:
.LBE4032:
	.loc 8 303 0
	fmuls 31,10,31
.LBE4037:
.LBE4042:
.LBE4045:
.LBE4048:
	.loc 2 316 0
	bl _ZNK6idDict9GetAnglesEPKcS1_R8idAngles
.LVL524:
.LBB4049:
.LBB4050:
.LBB4051:
.LBB4052:
	.loc 16 241 0
	lis 4,.LC38@ha
	mr 3,30
	la 4,.LC38@l(4)
	bl _ZNK6idDict7FindKeyEPKc
.LBE4052:
.LBE4051:
.LBE4050:
.LBE4049:
	.loc 2 312 0
	fmuls 31,30,31
.LVL525:
.LBB4062:
.LBB4058:
.LBB4056:
.LBB4054:
	.loc 16 242 0
	cmpwi 0,3,0
	beq- 0,.L235
.LVL526:
.LBB4053:
	.loc 2 2410 0
	lwz 9,4(3)
	lwz 3,4(9)
.LVL527:
.LBE4053:
.LBE4054:
.LBE4056:
	.loc 16 249 0
	bl atof
.LVL528:
.LBE4058:
.LBE4062:
.LBB4063:
.LBB4064:
.LBB4065:
.LBB4066:
	.loc 16 241 0
	lis 4,.LC39@ha
	mr 3,30
	la 4,.LC39@l(4)
.LBE4066:
.LBE4065:
.LBE4064:
.LBE4063:
.LBB4078:
.LBB4059:
	.loc 16 249 0
	frsp 20,1
.LVL529:
.LBE4059:
.LBE4078:
.LBB4079:
.LBB4074:
.LBB4071:
.LBB4068:
	.loc 16 241 0
	bl _ZNK6idDict7FindKeyEPKc
.LVL530:
	.loc 16 242 0
	cmpwi 0,3,0
	beq- 0,.L236
.L278:
.LVL531:
.LBB4067:
	.loc 2 2410 0
	lwz 9,4(3)
	lwz 3,4(9)
.LVL532:
.L194:
.LBE4067:
.LBE4068:
.LBE4071:
	.loc 16 249 0
	bl atof
.LBE4074:
.LBE4079:
.LBB4080:
.LBB4081:
.LBB4082:
.LBB4083:
	.loc 16 241 0
	lis 4,.LC40@ha
	mr 3,30
	la 4,.LC40@l(4)
.LBE4083:
.LBE4082:
.LBE4081:
.LBE4080:
.LBB4093:
.LBB4075:
	.loc 16 249 0
	frsp 21,1
.LVL533:
.LBE4075:
.LBE4093:
.LBB4094:
.LBB4089:
.LBB4087:
.LBB4085:
	.loc 16 241 0
	bl _ZNK6idDict7FindKeyEPKc
.LVL534:
	.loc 16 242 0
	cmpwi 0,3,0
	beq- 0,.L237
.LVL535:
.LBB4084:
	.loc 2 2410 0
	lwz 9,4(3)
	lwz 3,4(9)
.LVL536:
.LBE4084:
.LBE4085:
.LBE4087:
	.loc 16 249 0
	bl atof
.LVL537:
.LBE4089:
.LBE4094:
.LBB4095:
.LBB4096:
.LBB4097:
.LBB4098:
	.loc 16 241 0
	lis 4,.LC41@ha
	mr 3,30
	la 4,.LC41@l(4)
.LBE4098:
.LBE4097:
.LBE4096:
.LBE4095:
.LBB4111:
.LBB4090:
	.loc 16 249 0
	frsp 29,1
.LVL538:
.LBE4090:
.LBE4111:
.LBB4112:
.LBB4106:
.LBB4103:
.LBB4100:
	.loc 16 241 0
	bl _ZNK6idDict7FindKeyEPKc
.LVL539:
	.loc 16 242 0
	cmpwi 0,3,0
	beq- 0,.L238
.L271:
.LVL540:
.LBB4099:
	.loc 2 2410 0
	lwz 9,4(3)
	lwz 3,4(9)
.LVL541:
.LBE4099:
.LBE4100:
.LBE4103:
	.loc 16 249 0
	bl atof
.LVL542:
.LBE4106:
.LBE4112:
.LBB4113:
.LBB4114:
.LBB4115:
.LBB4116:
	.loc 16 241 0
	lis 4,.LC42@ha
	mr 3,30
	la 4,.LC42@l(4)
.LBE4116:
.LBE4115:
.LBE4114:
.LBE4113:
.LBB4129:
.LBB4107:
	.loc 16 249 0
	frsp 25,1
.LVL543:
.LBE4107:
.LBE4129:
.LBB4130:
.LBB4124:
.LBB4121:
.LBB4118:
	.loc 16 241 0
	bl _ZNK6idDict7FindKeyEPKc
.LVL544:
	.loc 16 242 0
	cmpwi 0,3,0
	beq- 0,.L239
.L272:
.LVL545:
.LBB4117:
	.loc 2 2410 0
	lwz 9,4(3)
	lwz 3,4(9)
.LVL546:
.LBE4117:
.LBE4118:
.LBE4121:
	.loc 16 249 0
	bl atof
.LVL547:
.LBE4124:
.LBE4130:
.LBB4131:
.LBB4132:
.LBB4133:
.LBB4134:
	.loc 16 241 0
	lis 4,.LC43@ha
	mr 3,30
	la 4,.LC43@l(4)
.LBE4134:
.LBE4133:
.LBE4132:
.LBE4131:
.LBB4147:
.LBB4125:
	.loc 16 249 0
	frsp 22,1
.LVL548:
.LBE4125:
.LBE4147:
.LBB4148:
.LBB4142:
.LBB4139:
.LBB4136:
	.loc 16 241 0
	bl _ZNK6idDict7FindKeyEPKc
.LVL549:
	.loc 16 242 0
	cmpwi 0,3,0
	beq- 0,.L240
.L273:
.LVL550:
.LBB4135:
	.loc 2 2410 0
	lwz 9,4(3)
	lwz 3,4(9)
.LVL551:
.LBE4135:
.LBE4136:
.LBE4139:
	.loc 16 249 0
	bl atof
.LVL552:
.LBE4142:
.LBE4148:
.LBB4149:
.LBB4150:
.LBB4151:
.LBB4152:
	.loc 16 241 0
	lis 4,.LC44@ha
	mr 3,30
	la 4,.LC44@l(4)
.LBE4152:
.LBE4151:
.LBE4150:
.LBE4149:
.LBB4166:
.LBB4143:
	.loc 16 249 0
	frsp 30,1
.LVL553:
.LBE4143:
.LBE4166:
.LBB4167:
.LBB4160:
.LBB4157:
.LBB4154:
	.loc 16 241 0
	bl _ZNK6idDict7FindKeyEPKc
.LVL554:
	.loc 16 242 0
	cmpwi 0,3,0
	beq- 0,.L241
.L274:
.LVL555:
.LBB4153:
	.loc 2 2410 0
	lwz 9,4(3)
	lwz 3,4(9)
.LVL556:
.LBE4153:
.LBE4154:
.LBE4157:
	.loc 16 249 0
	bl atof
.LVL557:
.LBE4160:
.LBE4167:
.LBB4168:
.LBB4169:
.LBB4170:
.LBB4171:
	.loc 16 241 0
	lis 4,.LC45@ha
	mr 3,30
	la 4,.LC45@l(4)
.LBE4171:
.LBE4170:
.LBE4169:
.LBE4168:
.LBB4188:
.LBB4161:
	.loc 16 249 0
	fmr 24,1
.LVL558:
.LBE4161:
.LBE4188:
.LBB4189:
.LBB4179:
.LBB4176:
.LBB4173:
	.loc 16 241 0
	bl _ZNK6idDict7FindKeyEPKc
.LVL559:
	.loc 16 242 0
	cmpwi 0,3,0
	beq- 0,.L242
.L275:
.LVL560:
.LBB4172:
	.loc 2 2410 0
	lwz 9,4(3)
	lwz 3,4(9)
.LVL561:
.LBE4172:
.LBE4173:
.LBE4176:
	.loc 16 257 0
	bl atoi
.LVL562:
.LBE4179:
.LBE4189:
	.loc 2 326 0
	lwz 0,640(31)
.LBB4190:
.LBB4180:
	.loc 16 257 0
	cntlzw 3,3
.LBE4180:
.LBE4190:
.LBB4191:
.LBB4192:
.LBB4193:
.LBB4194:
	.loc 16 241 0
	lis 4,.LC46@ha
.LBE4194:
.LBE4193:
.LBE4192:
.LBE4191:
.LBB4223:
.LBB4181:
	.loc 16 257 0
	srwi 3,3,5
.LBE4181:
.LBE4223:
.LBB4224:
.LBB4210:
.LBB4203:
.LBB4196:
	.loc 16 241 0
	la 4,.LC46@l(4)
.LBE4196:
.LBE4203:
.LBE4210:
.LBE4224:
.LBB4225:
.LBB4182:
	.loc 16 257 0
	xori 3,3,1
.LBE4182:
.LBE4225:
	.loc 2 326 0
	rlwimi 0,3,31,0,0
.LBB4226:
.LBB4211:
.LBB4204:
.LBB4197:
	.loc 16 241 0
	mr 3,30
.LBE4197:
.LBE4204:
.LBE4211:
.LBE4226:
	.loc 2 326 0
	stw 0,640(31)
.LVL563:
.LBB4227:
.LBB4212:
.LBB4205:
.LBB4198:
	.loc 16 241 0
	bl _ZNK6idDict7FindKeyEPKc
.LVL564:
	.loc 16 242 0
	cmpwi 0,3,0
	beq- 0,.L243
.L276:
.LVL565:
.LBB4195:
	.loc 2 2410 0
	lwz 9,4(3)
	lwz 3,4(9)
.LVL566:
.LBE4195:
.LBE4198:
.LBE4205:
	.loc 16 257 0
	bl atoi
.LVL567:
.LBE4212:
.LBE4227:
	.loc 2 327 0
	lwz 0,640(31)
.LBB4228:
.LBB4213:
	.loc 16 257 0
	cntlzw 3,3
.LBE4213:
.LBE4228:
.LBB4229:
.LBB4230:
.LBB4231:
.LBB4232:
	.loc 16 241 0
	lis 4,.LC47@ha
.LBE4232:
.LBE4231:
.LBE4230:
.LBE4229:
.LBB4258:
.LBB4214:
	.loc 16 257 0
	srwi 3,3,5
.LBE4214:
.LBE4258:
.LBB4259:
.LBB4248:
.LBB4241:
.LBB4234:
	.loc 16 241 0
	la 4,.LC47@l(4)
.LBE4234:
.LBE4241:
.LBE4248:
.LBE4259:
.LBB4260:
.LBB4215:
	.loc 16 257 0
	xori 3,3,1
.LBE4215:
.LBE4260:
	.loc 2 327 0
	rlwimi 0,3,30,1,1
.LBB4261:
.LBB4249:
.LBB4242:
.LBB4235:
	.loc 16 241 0
	mr 3,30
.LBE4235:
.LBE4242:
.LBE4249:
.LBE4261:
	.loc 2 327 0
	stw 0,640(31)
.LVL568:
.LBB4262:
.LBB4250:
.LBB4243:
.LBB4236:
	.loc 16 241 0
	bl _ZNK6idDict7FindKeyEPKc
.LVL569:
	.loc 16 242 0
	cmpwi 0,3,0
	beq- 0,.L244
.L277:
.LVL570:
.LBB4233:
	.loc 2 2410 0
	lwz 9,4(3)
	lwz 3,4(9)
.LVL571:
.L202:
.LBE4233:
.LBE4236:
.LBE4243:
	.loc 16 257 0
	bl atoi
.LBE4250:
.LBE4262:
	.loc 2 330 0
	lis 9,.LC20@ha
	lfs 0,.LC20@l(9)
.LBB4263:
.LBB4251:
	.loc 16 257 0
	cntlzw 3,3
.LBE4251:
.LBE4263:
	.loc 2 328 0
	lwz 0,640(31)
.LBB4264:
.LBB4252:
	.loc 16 257 0
	srwi 3,3,5
.LBE4252:
.LBE4264:
	.loc 2 330 0
	fcmpu 7,22,0
.LBB4265:
.LBB4253:
	.loc 16 257 0
	xori 3,3,1
.LBE4253:
.LBE4265:
	.loc 2 328 0
	rlwimi 0,3,29,2,2
	.loc 2 330 0
	cror 30,28,30
	.loc 2 328 0
	stw 0,640(31)
	.loc 2 330 0
	beq- 7,.L263
.L203:
	.loc 2 336 0
	lis 9,_ZN6idMath8M_SEC2MSE@ha
	.loc 2 334 0
	lfs 0,644(31)
	.loc 2 336 0
	lfs 13,_ZN6idMath8M_SEC2MSE@l(9)
.LBB4266:
.LBB4267:
	.loc 8 825 0
	addi 9,1,184
.LBE4267:
.LBE4266:
	.loc 2 334 0
	fmuls 0,0,22
	.loc 2 341 0
	lwz 0,188(31)
	.loc 2 336 0
	fmuls 28,28,13
	addis 27,29,0x25
	.loc 2 341 0
	cmpwi 7,0,0
	.loc 2 338 0
	li 0,0
	.loc 2 334 0
	stfs 0,644(31)
.LBB4270:
.LBB4268:
	.loc 8 825 0
	fctiwz 28,28
	stfiwx 28,0,9
.LBE4268:
.LBE4270:
	.loc 2 336 0
	lwz 11,2004(27)
.LBB4271:
.LBB4269:
	.loc 8 825 0
	lwz 9,184(1)
.LBE4269:
.LBE4271:
	.loc 2 338 0
	stw 0,880(31)
	.loc 2 336 0
	add 9,11,9
	.loc 2 339 0
	stw 0,884(31)
	.loc 2 336 0
	stw 9,648(31)
	.loc 2 341 0
	beq- 7,.L205
	.loc 2 342 0
	lwz 0,192(31)
	li 9,1
	rlwimi 0,9,29,2,2
	stw 0,192(31)
.L205:
	.loc 2 345 0
	mr 3,29
	bl _ZNK11idGameLocal10GetGravityEv
.LVL572:
.LBB4272:
.LBB4273:
.LBB4274:
.LBB4275:
	.loc 8 246 0
	lfs 28,.LC6@l(28)
.LBE4275:
.LBE4274:
.LBE4273:
.LBE4272:
.LBB4280:
.LBB4281:
	.loc 3 425 0
	lfs 27,4(3)
	.loc 3 424 0
	lfs 26,0(3)
.LBE4281:
.LBE4280:
.LBB4284:
.LBB4278:
	.loc 3 527 0
	fmuls 13,27,27
.LBE4278:
.LBE4284:
.LBB4285:
.LBB4282:
	.loc 3 426 0
	lfs 0,8(3)
.LVL573:
.LBE4282:
.LBE4285:
	.loc 2 348 0
	mr 3,31
.LVL574:
.LBB4286:
.LBB4283:
	.loc 3 527 0
	fmadds 13,26,26,13
	fmadds 13,0,0,13
	stfs 13,188(1)
.LVL575:
.LBE4283:
.LBE4286:
.LBB4287:
.LBB4279:
.LBB4277:
.LBB4276:
	.loc 8 250 0
	lfs 13,.LC22@l(25)
.LVL576:
	.loc 8 248 0
	lwz 9,188(1)
	.loc 8 246 0
	lfs 10,188(1)
	.loc 8 248 0
	srawi 0,9,1
	.loc 8 249 0
	lis 9,0x5f37
	ori 9,9,23007
	.loc 8 246 0
	fmuls 28,10,28
	.loc 8 249 0
	subf 9,0,9
	stw 9,188(1)
.LVL577:
	.loc 2 279 0
	fneg 28,28
	.loc 8 250 0
	lfs 10,188(1)
	fmuls 12,10,10
	fmadds 28,28,12,13
	fmuls 28,10,28
.LVL578:
.LBE4276:
.LBE4277:
	.loc 3 529 0
	fmuls 26,26,28
.LVL579:
	.loc 3 530 0
	fmuls 27,27,28
.LVL580:
	.loc 3 531 0
	fmuls 28,0,28
.LVL581:
.LBE4279:
.LBE4287:
	.loc 2 348 0
	bl _ZN8idEntity6UnbindEv
	.loc 2 351 0
	addi 3,1,92
	mr 4,23
	bl _ZNK6idVec36ToMat3Ev
.LVL582:
	li 10,0
.L206:
.LBB4288:
.LBB4289:
.LBB4290:
.LBB4291:
	.loc 3 424 0
	addi 11,1,92
.LVL583:
	addi 9,1,128
	lwzux 0,11,10
.LVL584:
.LBE4291:
.LBE4290:
	.loc 12 333 0
	cmpwi 7,10,24
.LBB4294:
.LBB4292:
	.loc 3 424 0
	stwux 0,9,10
.LBE4292:
.LBE4294:
	.loc 12 333 0
	addi 10,10,12
.LBB4295:
.LBB4293:
	.loc 3 425 0
	lwz 0,4(11)
	stw 0,4(9)
	.loc 3 426 0
	lwz 0,8(11)
	stw 0,8(9)
.LBE4293:
.LBE4295:
	.loc 12 333 0
	bne+ 7,.L206
.LVL585:
.LBE4289:
.LBE4288:
.LBB4296:
.LBB4297:
	.loc 3 424 0
	lwz 0,128(1)
.LBE4297:
.LBE4296:
.LBB4302:
.LBB4303:
.LBB4304:
.LBB4305:
	.loc 16 241 0
	lis 4,.LC49@ha
.LBE4305:
.LBE4304:
.LBE4303:
.LBE4302:
.LBB4319:
.LBB4320:
	.loc 3 424 0
	lfs 12,152(1)
.LVL586:
.LBE4320:
.LBE4319:
.LBB4321:
.LBB4315:
.LBB4311:
.LBB4307:
	.loc 16 241 0
	mr 3,30
.LBE4307:
.LBE4311:
.LBE4315:
.LBE4321:
.LBB4322:
.LBB4323:
	.loc 3 420 0
	lfs 13,156(1)
.LBE4323:
.LBE4322:
.LBB4327:
.LBB4316:
.LBB4312:
.LBB4308:
	.loc 16 241 0
	la 4,.LC49@l(4)
.LBE4308:
.LBE4312:
.LBE4316:
.LBE4327:
.LBB4328:
.LBB4324:
	.loc 3 420 0
	lfs 0,160(1)
	fneg 12,12
.LBE4324:
.LBE4328:
.LBB4329:
.LBB4298:
	.loc 3 424 0
	stw 0,152(1)
.LBE4298:
.LBE4329:
.LBB4330:
.LBB4325:
	.loc 3 420 0
	fneg 13,13
.LBE4325:
.LBE4330:
.LBB4331:
.LBB4299:
	.loc 3 425 0
	lwz 0,132(1)
.LBE4299:
.LBE4331:
.LBB4332:
.LBB4326:
	.loc 3 420 0
	fneg 0,0
.LBE4326:
.LBE4332:
.LBB4333:
.LBB4334:
	.loc 3 424 0
	stfs 12,128(1)
.LBE4334:
.LBE4333:
.LBB4337:
.LBB4300:
	.loc 3 425 0
	stw 0,156(1)
	.loc 3 426 0
	lwz 0,136(1)
.LBE4300:
.LBE4337:
.LBB4338:
.LBB4335:
	.loc 3 425 0
	stfs 13,132(1)
.LBE4335:
.LBE4338:
.LBB4339:
.LBB4301:
	.loc 3 426 0
	stw 0,160(1)
.LVL587:
.LBE4301:
.LBE4339:
.LBB4340:
.LBB4336:
	stfs 0,136(1)
.LVL588:
.LBE4336:
.LBE4340:
.LBB4341:
.LBB4317:
.LBB4313:
.LBB4309:
	.loc 16 241 0
	bl _ZNK6idDict7FindKeyEPKc
.LVL589:
	.loc 16 242 0
	cmpwi 0,3,0
	beq- 0,.L245
.LVL590:
.LBB4306:
	.loc 2 2410 0
	lwz 9,4(3)
	lwz 3,4(9)
.LVL591:
.L207:
.LBE4306:
.LBE4309:
.LBE4313:
	.loc 16 257 0
	bl atoi
.LBE4317:
.LBE4341:
	.loc 2 359 0
	li 22,4096
	.loc 2 358 0
	cmpwi 7,3,0
	bne- 7,.L208
	.loc 2 356 0
	li 22,0
.L208:
.LVL592:
.LBB4342:
.LBB4343:
.LBB4344:
.LBB4345:
	.loc 16 241 0
	lis 4,.LC50@ha
	mr 3,30
	la 4,.LC50@l(4)
	bl _ZNK6idDict7FindKeyEPKc
.LVL593:
	.loc 16 242 0
	cmpwi 0,3,0
	beq- 0,.L247
.LVL594:
.LBB4346:
	.loc 2 2410 0
	lwz 9,4(3)
	lwz 3,4(9)
.LVL595:
.L209:
.LBE4346:
.LBE4345:
.LBE4344:
	.loc 16 257 0
	bl atoi
.LBE4343:
.LBE4342:
	.loc 2 357 0
	li 23,2049
.LVL596:
	.loc 2 361 0
	cmpwi 7,3,0
	bne- 7,.L210
	.loc 2 362 0
	ori 22,22,512
.LVL597:
	.loc 2 363 0
	li 23,2561
.LVL598:
.L210:
.LBB4350:
.LBB4351:
.LBB4352:
.LBB4353:
	.loc 16 241 0
	lis 4,.LC51@ha
	mr 3,30
	la 4,.LC51@l(4)
	bl _ZNK6idDict7FindKeyEPKc
.LVL599:
	.loc 16 242 0
	cmpwi 0,3,0
	beq- 0,.L249
.LVL600:
.LBB4354:
	.loc 2 2410 0
	lwz 9,4(3)
	lwz 3,4(9)
.LVL601:
.L211:
.LBE4354:
.LBE4353:
.LBE4352:
	.loc 16 257 0
	bl atoi
.LBE4351:
.LBE4350:
	.loc 2 367 0
	cmpwi 7,3,0
	beq- 7,.L230
.LVL602:
.LBB4358:
.LBB4359:
.LBB4360:
.LBB4361:
	.loc 7 71 0
	addis 9,29,0x1
	lis 11,0x1
	lwz 10,-32064(9)
	ori 11,11,3533
.LBE4361:
.LBE4360:
	.loc 7 83 0
	lis 0,0x4330
.LBB4365:
.LBB4362:
	.loc 7 71 0
	mullw 11,11,10
.LBE4362:
.LBE4365:
	.loc 7 83 0
	stw 0,168(1)
.LBB4366:
.LBB4363:
	.loc 7 71 0
	addi 0,11,1
	.loc 7 72 0
	rlwinm 11,0,0,17,31
.LBE4363:
.LBE4366:
	.loc 7 83 0
	xoris 11,11,0x8000
	stw 11,172(1)
	lis 11,.LC4@ha
	lfs 0,.LC4@l(11)
	lfd 13,168(1)
.LBB4367:
.LBB4364:
	.loc 7 71 0
	stw 0,-32064(9)
.LBE4364:
.LBE4367:
	.loc 7 83 0
	lis 9,.LC5@ha
	fsub 13,13,0
	lfs 12,.LC5@l(9)
.LBE4359:
.LBE4358:
	.loc 2 367 0
	lfs 0,.LC6@l(28)
.LBB4369:
.LBB4368:
	.loc 7 83 0
	frsp 13,13
	fmuls 13,13,12
.LBE4368:
.LBE4369:
	.loc 2 367 0
	fcmpu 7,13,0
	bng- 7,.L230
	.loc 2 368 0 discriminator 4
	lwz 9,0(31)
.LBB4370:
.LBB4371:
	.loc 16 241 0 discriminator 4
	lis 4,.LC52@ha
	mr 3,30
	la 4,.LC52@l(4)
.LBE4371:
.LBE4370:
	.loc 2 368 0 discriminator 4
	lwz 9,44(9)
	stw 9,188(1)
.LVL603:
.LBB4375:
.LBB4373:
	.loc 16 241 0 discriminator 4
	bl _ZNK6idDict7FindKeyEPKc
.LVL604:
	.loc 16 242 0 discriminator 4
	cmpwi 0,3,0
	beq- 0,.L250
.LVL605:
.LBB4372:
	.loc 2 2410 0
	lwz 9,4(3)
	lwz 4,4(9)
.LVL606:
.L214:
.LBE4372:
.LBE4373:
.LBE4375:
	.loc 2 368 0
	lwz 0,188(1)
	mr 3,31
.LVL607:
	mtctr 0
	bctrl
	.loc 2 369 0
	lwz 0,640(31)
	li 9,1
	rlwimi 0,9,28,3,3
	stw 0,640(31)
.LVL608:
.L230:
	.loc 2 372 0
	fmr 1,22
	addi 25,31,936
	li 4,-1
	mr 3,25
	bl _ZN19idPhysics_RigidBody7SetMassEfi
	.loc 2 373 0
	fmr 1,20
	fmr 2,21
	mr 3,25
	fmr 3,29
	bl _ZN19idPhysics_RigidBody11SetFrictionEfff
	.loc 2 374 0
	lis 9,.LC20@ha
	lfs 0,.LC20@l(9)
	fcmpu 7,29,0
	beq- 7,.L264
.L215:
	.loc 2 377 0
	fmr 1,25
	mr 3,25
	bl _ZN19idPhysics_RigidBody13SetBouncynessEf
.LVL609:
.LBB4376:
.LBB4377:
	.loc 3 439 0
	fmuls 26,30,26
.LVL610:
	fmuls 27,30,27
.LVL611:
.LBE4377:
.LBE4376:
	.loc 2 378 0
	mr 3,25
.LBB4382:
.LBB4380:
	.loc 3 439 0
	fmuls 30,30,28
.LVL612:
.LBE4380:
.LBE4382:
	.loc 2 378 0
	addi 4,1,56
.LBB4383:
.LBB4381:
.LBB4378:
.LBB4379:
	.loc 3 396 0
	stfs 26,56(1)
	.loc 3 397 0
	stfs 27,60(1)
	.loc 3 398 0
	stfs 30,64(1)
.LBE4379:
.LBE4378:
.LBE4381:
.LBE4383:
	.loc 2 378 0
	bl _ZN14idPhysics_Base10SetGravityERK6idVec3
	.loc 2 379 0
	mr 3,25
	mr 4,22
	li 5,-1
	bl _ZN19idPhysics_RigidBody11SetContentsEii
	.loc 2 380 0
	mr 3,25
	mr 4,23
	li 5,-1
	bl _ZN14idPhysics_Base11SetClipMaskEii
.LVL613:
	.loc 3 452 0
	lfs 13,4(26)
	lfs 11,156(1)
	.loc 2 381 0
	li 5,0
	.loc 3 452 0
	lfs 0,8(26)
	.loc 2 381 0
	mr 3,25
	.loc 3 452 0
	fmadds 13,31,11,13
	lfs 11,160(1)
.LBB4384:
.LBB4385:
.LBB4386:
.LBB4387:
	lfs 12,0(26)
.LBE4387:
.LBE4386:
.LBE4385:
.LBE4384:
	.loc 2 381 0
	addi 4,1,44
	.loc 3 452 0
	fmadds 0,31,11,0
.LVL614:
.LBB4394:
.LBB4392:
.LBB4390:
.LBB4388:
	lfs 11,152(1)
	.loc 3 397 0
	stfs 13,48(1)
.LBE4388:
.LBE4390:
.LBE4392:
.LBE4394:
.LBB4395:
.LBB4396:
	li 26,0
.LVL615:
.LBE4396:
.LBE4395:
.LBB4398:
.LBB4393:
.LBB4391:
.LBB4389:
	.loc 3 452 0
	fmadds 31,31,11,12
.LVL616:
	.loc 3 398 0
	stfs 0,52(1)
	.loc 3 396 0
	stfs 31,44(1)
.LBE4389:
.LBE4391:
.LBE4393:
.LBE4398:
	.loc 2 381 0
	bl _ZN19idPhysics_RigidBody17SetLinearVelocityERK6idVec3i
.LVL617:
	.loc 2 382 0
	addi 3,1,32
	addi 4,1,68
	bl _ZNK8idAngles17ToAngularVelocityEv
	lfs 0,36(1)
.LBB4399:
.LBB4400:
.LBB4401:
	.loc 12 454 0
	lfs 11,144(1)
.LBE4401:
.LBE4400:
.LBE4399:
	.loc 2 382 0
	li 5,0
.LBB4416:
.LBB4411:
.LBB4406:
	.loc 12 454 0
	lfs 13,140(1)
.LBE4406:
.LBE4411:
.LBE4416:
	.loc 2 382 0
	mr 3,25
.LBB4417:
.LBB4412:
.LBB4407:
	.loc 12 454 0
	lfs 12,148(1)
	fmuls 11,0,11
.LBE4407:
.LBE4412:
.LBE4417:
	lfs 10,132(1)
	.loc 2 382 0
	addi 4,1,20
.LBB4418:
.LBB4413:
.LBB4408:
	.loc 12 454 0
	fmuls 12,0,12
	fmuls 0,0,13
.LBE4408:
.LBE4413:
.LBE4418:
	.loc 2 382 0
	lfs 13,32(1)
	.loc 12 454 0
	fmadds 11,13,10,11
	lfs 10,136(1)
	fmadds 12,13,10,12
.LBB4419:
.LBB4414:
.LBB4409:
.LBB4402:
.LBB4403:
	lfs 10,128(1)
	fmadds 13,13,10,0
.LBE4403:
.LBE4402:
.LBE4409:
.LBE4414:
.LBE4419:
	.loc 2 382 0
	lfs 0,40(1)
.LVL618:
	.loc 12 454 0
	lfs 10,156(1)
	fmadds 11,0,10,11
	lfs 10,160(1)
	fmadds 12,0,10,12
.LVL619:
.LBB4420:
.LBB4415:
.LBB4410:
.LBB4405:
.LBB4404:
	lfs 10,152(1)
	.loc 3 397 0
	stfs 11,24(1)
	.loc 12 454 0
	fmadds 0,0,10,13
	.loc 3 398 0
	stfs 12,28(1)
	.loc 3 396 0
	stfs 0,20(1)
.LBE4404:
.LBE4405:
.LBE4410:
.LBE4415:
.LBE4420:
	.loc 2 382 0
	bl _ZN19idPhysics_RigidBody18SetAngularVelocityERK6idVec3i
.LVL620:
	.loc 2 383 0
	mr 3,25
	mr 4,24
	li 5,-1
	bl _ZN19idPhysics_RigidBody9SetOriginERK6idVec3i
	.loc 2 384 0
	li 5,-1
	addi 4,1,128
	mr 3,25
	bl _ZN19idPhysics_RigidBody7SetAxisERK6idMat3i
	.loc 2 386 0
	mr 3,31
	bl _ZNK8idEntity10GetPhysicsEv
	li 4,-1
	lwz 9,0(3)
	lwz 0,56(9)
	mtctr 0
	bctrl
.LVL621:
	mr 4,25
	lwz 0,0(3)
.LVL622:
	li 5,0
	addi 3,31,900
.LVL623:
	addi 6,1,8
.LBB4421:
.LBB4397:
	.loc 3 396 0
	stw 0,8(1)
	.loc 3 397 0
	stw 26,12(1)
	.loc 3 398 0
	stw 26,16(1)
.LBE4397:
.LBE4421:
	.loc 2 386 0
	bl _ZN16idForce_Constant11SetPositionEP9idPhysicsiRK6idVec3
.LVL624:
	.loc 2 388 0
	lbz 0,2018(27)
	cmpwi 7,0,0
	bne- 7,.L216
	.loc 2 389 0
	stw 26,192(1)
.LBB4422:
.LBB4162:
	.loc 16 249 0
	frsp 24,24
.LBE4162:
.LBE4422:
	.loc 2 389 0
	lfs 0,192(1)
	fcmpu 7,24,0
	cror 30,28,30
	bne- 7,.L260
	.loc 2 391 0
	mr 3,31
	bl _ZN8idEntity10RunPhysicsEv
.LVL625:
.LBB4423:
.LBB4424:
.LBB4425:
.LBB4426:
	.loc 16 241 0
	lis 4,.LC53@ha
	mr 3,30
	la 4,.LC53@l(4)
	bl _ZNK6idDict7FindKeyEPKc
.LVL626:
	.loc 16 242 0
	cmpwi 0,3,0
	beq- 0,.L251
.LVL627:
.LBB4427:
	.loc 2 2410 0
	lwz 9,4(3)
	lwz 3,4(9)
.LVL628:
.L219:
.LBE4427:
.LBE4426:
.LBE4425:
	.loc 16 253 0
	bl atoi
.LBE4424:
.LBE4423:
	.loc 2 392 0
	lis 4,EV_Remove@ha
.LBB4432:
.LBB4430:
	.loc 16 253 0
	mr 5,3
.LBE4430:
.LBE4432:
	.loc 2 392 0
	la 4,EV_Remove@l(4)
	mr 3,31
	bl _ZN7idClass11PostEventMSEPK10idEventDefi
.LVL629:
.L216:
	.loc 2 408 0
	lwz 0,640(31)
	.loc 2 409 0
	mr 3,31
	.loc 2 408 0
	andis. 9,0,4096
	beq- 0,.L224
	.loc 2 409 0
	lis 4,.LC55@ha
	.loc 2 411 0
	li 5,3
	.loc 2 409 0
	la 4,.LC55@l(4)
	.loc 2 411 0
	li 6,0
	li 7,0
	li 8,0
	bl _ZN8idEntity10StartSoundEPKciibPi
	.loc 2 414 0
	li 0,0
	stw 0,1484(31)
.LVL630:
.LBB4433:
.LBB4434:
	.loc 16 241 0
	lis 4,.LC57@ha
	mr 3,30
	la 4,.LC57@l(4)
	bl _ZNK6idDict7FindKeyEPKc
.LVL631:
	.loc 16 242 0
	cmpwi 0,3,0
	beq- 0,.L255
.L266:
.LVL632:
.LBB4435:
	.loc 2 2410 0
	lwz 9,4(3)
	lwz 5,4(9)
.LBE4435:
.LBE4434:
.LBE4433:
	.loc 2 416 0
	lbz 0,0(5)
	cmpwi 7,0,0
	bne- 7,.L265
.LVL633:
.L227:
.LBB4437:
	.loc 2 422 0
	lwz 0,640(31)
	andis. 9,0,8192
	beq- 0,.L228
.LVL634:
.LBB4438:
.LBB4439:
.LBB4440:
.LBB4441:
.LBB4442:
	.loc 7 71 0
	addis 29,29,0x1
	lis 9,0x1
	lwz 11,-32064(29)
	ori 9,9,3533
.LBE4442:
.LBE4441:
	.loc 7 83 0
	lis 0,0x4330
.LBB4446:
.LBB4443:
	.loc 7 71 0
	mullw 9,9,11
.LBE4443:
.LBE4446:
	.loc 7 83 0
	stw 0,176(1)
.LBB4447:
.LBB4444:
	.loc 7 71 0
	addi 0,9,1
	.loc 7 72 0
	rlwinm 9,0,0,17,31
.LBE4444:
.LBE4447:
	.loc 7 83 0
	xoris 9,9,0x8000
	stw 9,180(1)
	lis 9,.LC4@ha
	lfs 0,.LC4@l(9)
	lis 9,.LC5@ha
	lfd 13,176(1)
	lfs 12,.LC5@l(9)
	fsub 0,13,0
.LBE4440:
.LBE4439:
	.loc 2 424 0
	lfs 13,.LC6@l(28)
.LBB4450:
.LBB4449:
.LBB4448:
.LBB4445:
	.loc 7 71 0
	stw 0,-32064(29)
.LBE4445:
.LBE4448:
	.loc 7 83 0
	frsp 0,0
	fmuls 0,0,12
.LVL635:
.LBE4449:
.LBE4450:
	.loc 2 424 0
	fmuls 0,0,13
.LVL636:
	.loc 2 425 0
	stfs 0,340(31)
.LVL637:
.L228:
.LBE4438:
.LBE4437:
	.loc 2 428 0
	mr 3,31
	bl _ZN8idEntity13UpdateVisualsEv
	.loc 2 430 0
	li 0,2
	stw 0,1488(31)
.LBE4519:
	.loc 2 431 0
	lwz 0,340(1)
	lwz 22,200(1)
.LVL638:
	mtlr 0
	lwz 23,204(1)
.LVL639:
	lwz 24,208(1)
.LVL640:
	lwz 25,212(1)
	lwz 26,216(1)
	lwz 27,220(1)
	lwz 28,224(1)
	lwz 29,228(1)
	lwz 30,232(1)
.LVL641:
	lwz 31,236(1)
.LVL642:
	lfd 20,240(1)
	lfd 21,248(1)
	lfd 22,256(1)
	lfd 23,264(1)
.LVL643:
	lfd 24,272(1)
	lfd 25,280(1)
	lfd 26,288(1)
	lfd 27,296(1)
	lfd 28,304(1)
.LVL644:
	lfd 29,312(1)
	lfd 30,320(1)
	lfd 31,328(1)
	addi 1,1,336
	.cfi_remember_state
.LCFI94:
	.cfi_def_cfa_offset 0
	.cfi_restore 63
	.cfi_restore 62
	.cfi_restore 61
	.cfi_restore 60
	.cfi_restore 59
	.cfi_restore 58
	.cfi_restore 57
	.cfi_restore 56
	.cfi_restore 55
	.cfi_restore 54
	.cfi_restore 53
	.cfi_restore 52
	.cfi_restore 31
	.cfi_restore 30
	.cfi_restore 29
	.cfi_restore 28
	.cfi_restore 27
	.cfi_restore 26
	.cfi_restore 25
	.cfi_restore 24
	.cfi_restore 23
	.cfi_restore 22
	blr
.LVL645:
.L224:
.LCFI95:
	.cfi_restore_state
.LBB4520:
	.loc 2 411 0
	lis 4,.LC56@ha
	li 5,3
	la 4,.LC56@l(4)
	li 6,0
	li 7,0
	li 8,0
	bl _ZN8idEntity10StartSoundEPKciibPi
.LVL646:
	.loc 2 414 0
	li 0,0
	stw 0,1484(31)
.LVL647:
.LBB4451:
.LBB4436:
	.loc 16 241 0
	lis 4,.LC57@ha
	mr 3,30
	la 4,.LC57@l(4)
	bl _ZNK6idDict7FindKeyEPKc
.LVL648:
	.loc 16 242 0
	cmpwi 0,3,0
	bne+ 0,.L266
.L255:
	.loc 16 245 0
	lis 5,.LC27@ha
	la 5,.LC27@l(5)
.LBE4436:
.LBE4451:
	.loc 2 416 0
	lbz 0,0(5)
	cmpwi 7,0,0
	beq+ 7,.L227
.L265:
	.loc 2 417 0
	lis 9,declManager@ha
	li 4,7
	lwz 3,declManager@l(9)
.LVL649:
	li 6,1
	li 7,0
	lwz 9,0(3)
	lwz 0,60(9)
	mtctr 0
	bctrl
	stw 3,1480(31)
	.loc 2 418 0
	lwz 0,2004(27)
	stw 0,1484(31)
	b .L227
.LVL650:
.L260:
.LBB4452:
.LBB4453:
.LBB4454:
.LBB4455:
	.loc 16 241 0
	lis 4,.LC54@ha
	mr 3,30
	la 4,.LC54@l(4)
	bl _ZNK6idDict7FindKeyEPKc
.LVL651:
	.loc 16 242 0
	cmpwi 0,3,0
	beq- 0,.L252
.LVL652:
.LBB4456:
	.loc 2 2410 0
	lwz 9,4(3)
	lwz 3,4(9)
.LVL653:
.L220:
.LBE4456:
.LBE4455:
.LBE4454:
	.loc 16 257 0
	bl atoi
.LBE4453:
.LBE4452:
	.loc 2 395 0
	lis 9,.LC20@ha
	.loc 2 393 0
	cmpwi 7,3,0
	.loc 2 394 0
	fsubs 1,24,23
.LVL654:
	.loc 2 395 0
	lfs 0,.LC20@l(9)
	.loc 2 393 0
	beq- 7,.L221
	.loc 2 395 0
	fcmpu 7,1,0
	bnl- 7,.L222
	.loc 2 396 0
	fmr 1,0
.LVL655:
.L222:
	.loc 2 398 0
	lis 4,.LANCHOR0@ha
	mr 3,31
	la 4,.LANCHOR0@l(4)
	addi 4,4,424
	bl _ZN7idClass12PostEventSecEPK10idEventDeff
.LVL656:
	b .L216
.LVL657:
.L264:
	.loc 2 375 0
	mr 3,25
	bl _ZN19idPhysics_RigidBody9NoContactEv
	b .L215
.LVL658:
.L263:
	.loc 2 331 0
	mr 3,31
	bl _ZNK8idEntity16GetEntityDefNameEv
	lis 4,.LC48@ha
	mr 5,3
	la 4,.LC48@l(4)
	mr 3,29
	crxor 6,6,6
	bl _ZNK11idGameLocal5ErrorEPKcz
	b .L203
.LVL659:
.L262:
.LBB4460:
.LBB3961:
	.loc 4 636 0
	addi 9,9,132
.LVL660:
	slwi 9,9,2
.LVL661:
	add 9,29,9
	lwz 3,4(9)
.LBE3961:
.LBE4460:
	.loc 2 300 0
	cmpwi 7,3,0
	beq- 7,.L187
.LVL662:
.LBB4461:
.LBB4462:
	.loc 6 340 0
	lwz 9,0(3)
.LVL663:
	lwz 0,0(9)
	mtctr 0
	bctrl
.LVL664:
.LBE4462:
	.loc 2 2410 0
	lis 9,_ZN8idPlayer4TypeE@ha
	la 9,_ZN8idPlayer4TypeE@l(9)
	lwz 0,56(3)
.LBB4465:
.LBB4463:
.LBB4464:
	.loc 6 311 0
	lwz 11,56(9)
	cmpw 7,0,11
	blt- 7,.L188
	lwz 9,60(9)
	cmpw 7,0,9
	ble- 7,.L187
.L188:
.LVL665:
.LBE4464:
.LBE4463:
.LBE4465:
.LBE4461:
.LBB4466:
.LBB4467:
	.loc 4 634 0 discriminator 4
	lwz 0,636(31)
	.loc 4 638 0 discriminator 4
	li 11,0
	.loc 4 634 0 discriminator 4
	rlwinm 9,0,0,20,31
.LVL666:
	.loc 4 635 0 discriminator 4
	srawi 0,0,12
	addi 10,9,4228
	slwi 10,10,2
	add 10,29,10
	lwz 10,4(10)
	cmpw 7,10,0
	beq- 7,.L267
.LVL667:
.L189:
.LBE4467:
.LBE4466:
	.loc 2 301 0
	lbz 0,160(11)
	.loc 2 306 0
	addi 30,31,100
.LVL668:
.LBB4469:
.LBB3975:
.LBB3971:
.LBB3969:
	.loc 16 241 0
	lis 4,.LC32@ha
	mr 3,30
.LVL669:
.LBE3969:
.LBE3971:
.LBE3975:
.LBE4469:
	.loc 2 301 0
	stb 0,160(31)
.LBB4470:
.LBB3976:
.LBB3972:
.LBB3970:
	.loc 16 241 0
	la 4,.LC32@l(4)
	bl _ZNK6idDict7FindKeyEPKc
.LVL670:
	.loc 16 242 0
	cmpwi 0,3,0
	bne+ 0,.L268
.LVL671:
.L232:
	.loc 16 245 0
	lis 3,.LC30@ha
.LVL672:
	la 3,.LC30@l(3)
.LBE3970:
.LBE3972:
	.loc 16 249 0
	bl atof
.LBE3976:
.LBE4470:
.LBB4471:
.LBB3996:
.LBB3991:
.LBB3986:
	.loc 16 241 0
	lis 4,.LC33@ha
.LBE3986:
.LBE3991:
.LBE3996:
.LBE4471:
.LBB4472:
.LBB3977:
	.loc 16 249 0
	frsp 1,1
.LBE3977:
.LBE4472:
.LBB4473:
.LBB3997:
.LBB3992:
.LBB3987:
	.loc 16 241 0
	mr 3,30
	la 4,.LC33@l(4)
.LBE3987:
.LBE3992:
.LBE3997:
.LBE4473:
.LBB4474:
.LBB3978:
	.loc 16 249 0
	stfs 1,644(31)
.LVL673:
.LBE3978:
.LBE4474:
.LBB4475:
.LBB3998:
.LBB3993:
.LBB3988:
	.loc 16 241 0
	bl _ZNK6idDict7FindKeyEPKc
.LVL674:
	.loc 16 242 0
	cmpwi 0,3,0
	bne+ 0,.L269
.L233:
	.loc 16 245 0
	lis 3,.LC30@ha
.LVL675:
	la 3,.LC30@l(3)
.LBE3988:
.LBE3993:
	.loc 16 249 0
	bl atof
.LVL676:
.LBE3998:
.LBE4475:
.LBB4476:
.LBB4012:
.LBB4009:
.LBB4008:
	.loc 16 241 0
	lis 4,.LC34@ha
	mr 3,30
	la 4,.LC34@l(4)
	bl _ZNK6idDict7FindKeyEPKc
.LVL677:
	.loc 16 242 0
	cmpwi 0,3,0
	bne+ 0,.L270
.L234:
	.loc 16 245 0
	lis 3,.LC30@ha
.LVL678:
	la 3,.LC30@l(3)
	b .L192
.LVL679:
.L221:
.LBE4008:
.LBE4009:
.LBE4012:
.LBE4476:
	.loc 2 401 0
	fcmpu 7,1,0
	bnl- 7,.L223
	.loc 2 402 0
	fmr 1,0
.LVL680:
.L223:
	.loc 2 404 0
	lis 4,.LANCHOR0@ha
	mr 3,31
	la 4,.LANCHOR0@l(4)
	addi 4,4,488
	bl _ZN7idClass12PostEventSecEPK10idEventDeff
.LVL681:
	b .L216
.LVL682:
.L267:
.LBB4477:
.LBB4468:
	.loc 4 636 0
	addi 9,9,132
.LVL683:
	slwi 9,9,2
.LVL684:
	add 9,29,9
	lwz 11,4(9)
	b .L189
.LVL685:
.L237:
.LBE4468:
.LBE4477:
.LBB4478:
.LBB4091:
.LBB4088:
.LBB4086:
	.loc 16 245 0
	lis 3,.LC30@ha
.LVL686:
	la 3,.LC30@l(3)
.LBE4086:
.LBE4088:
	.loc 16 249 0
	bl atof
.LBE4091:
.LBE4478:
.LBB4479:
.LBB4108:
.LBB4104:
.LBB4101:
	.loc 16 241 0
	lis 4,.LC41@ha
	mr 3,30
	la 4,.LC41@l(4)
.LBE4101:
.LBE4104:
.LBE4108:
.LBE4479:
.LBB4480:
.LBB4092:
	.loc 16 249 0
	frsp 29,1
.LVL687:
.LBE4092:
.LBE4480:
.LBB4481:
.LBB4109:
.LBB4105:
.LBB4102:
	.loc 16 241 0
	bl _ZNK6idDict7FindKeyEPKc
.LVL688:
	.loc 16 242 0
	cmpwi 0,3,0
	bne+ 0,.L271
.L238:
	.loc 16 245 0
	lis 3,.LC30@ha
.LVL689:
	la 3,.LC30@l(3)
.LBE4102:
.LBE4105:
	.loc 16 249 0
	bl atof
.LBE4109:
.LBE4481:
.LBB4482:
.LBB4126:
.LBB4122:
.LBB4119:
	.loc 16 241 0
	lis 4,.LC42@ha
	mr 3,30
	la 4,.LC42@l(4)
.LBE4119:
.LBE4122:
.LBE4126:
.LBE4482:
.LBB4483:
.LBB4110:
	.loc 16 249 0
	frsp 25,1
.LVL690:
.LBE4110:
.LBE4483:
.LBB4484:
.LBB4127:
.LBB4123:
.LBB4120:
	.loc 16 241 0
	bl _ZNK6idDict7FindKeyEPKc
.LVL691:
	.loc 16 242 0
	cmpwi 0,3,0
	bne+ 0,.L272
.L239:
	.loc 16 245 0
	lis 3,.LC30@ha
.LVL692:
	la 3,.LC30@l(3)
.LBE4120:
.LBE4123:
	.loc 16 249 0
	bl atof
.LBE4127:
.LBE4484:
.LBB4485:
.LBB4144:
.LBB4140:
.LBB4137:
	.loc 16 241 0
	lis 4,.LC43@ha
	mr 3,30
	la 4,.LC43@l(4)
.LBE4137:
.LBE4140:
.LBE4144:
.LBE4485:
.LBB4486:
.LBB4128:
	.loc 16 249 0
	frsp 22,1
.LVL693:
.LBE4128:
.LBE4486:
.LBB4487:
.LBB4145:
.LBB4141:
.LBB4138:
	.loc 16 241 0
	bl _ZNK6idDict7FindKeyEPKc
.LVL694:
	.loc 16 242 0
	cmpwi 0,3,0
	bne+ 0,.L273
.L240:
	.loc 16 245 0
	lis 3,.LC30@ha
.LVL695:
	la 3,.LC30@l(3)
.LBE4138:
.LBE4141:
	.loc 16 249 0
	bl atof
.LBE4145:
.LBE4487:
.LBB4488:
.LBB4163:
.LBB4158:
.LBB4155:
	.loc 16 241 0
	lis 4,.LC44@ha
	mr 3,30
	la 4,.LC44@l(4)
.LBE4155:
.LBE4158:
.LBE4163:
.LBE4488:
.LBB4489:
.LBB4146:
	.loc 16 249 0
	frsp 30,1
.LVL696:
.LBE4146:
.LBE4489:
.LBB4490:
.LBB4164:
.LBB4159:
.LBB4156:
	.loc 16 241 0
	bl _ZNK6idDict7FindKeyEPKc
.LVL697:
	.loc 16 242 0
	cmpwi 0,3,0
	bne+ 0,.L274
.L241:
	.loc 16 245 0
	lis 3,.LC30@ha
.LVL698:
	la 3,.LC30@l(3)
.LBE4156:
.LBE4159:
	.loc 16 249 0
	bl atof
.LBE4164:
.LBE4490:
.LBB4491:
.LBB4183:
.LBB4177:
.LBB4174:
	.loc 16 241 0
	lis 4,.LC45@ha
	mr 3,30
	la 4,.LC45@l(4)
.LBE4174:
.LBE4177:
.LBE4183:
.LBE4491:
.LBB4492:
.LBB4165:
	.loc 16 249 0
	fmr 24,1
.LVL699:
.LBE4165:
.LBE4492:
.LBB4493:
.LBB4184:
.LBB4178:
.LBB4175:
	.loc 16 241 0
	bl _ZNK6idDict7FindKeyEPKc
.LVL700:
	.loc 16 242 0
	cmpwi 0,3,0
	bne+ 0,.L275
.L242:
	.loc 16 245 0
	lis 3,.LC30@ha
.LVL701:
	la 3,.LC30@l(3)
.LBE4175:
.LBE4178:
	.loc 16 257 0
	bl atoi
.LBE4184:
.LBE4493:
	.loc 2 326 0
	lwz 0,640(31)
.LBB4494:
.LBB4185:
	.loc 16 257 0
	cntlzw 3,3
.LBE4185:
.LBE4494:
.LBB4495:
.LBB4216:
.LBB4206:
.LBB4199:
	.loc 16 241 0
	lis 4,.LC46@ha
.LBE4199:
.LBE4206:
.LBE4216:
.LBE4495:
.LBB4496:
.LBB4186:
	.loc 16 257 0
	srwi 3,3,5
.LBE4186:
.LBE4496:
.LBB4497:
.LBB4217:
.LBB4207:
.LBB4200:
	.loc 16 241 0
	la 4,.LC46@l(4)
.LBE4200:
.LBE4207:
.LBE4217:
.LBE4497:
.LBB4498:
.LBB4187:
	.loc 16 257 0
	xori 3,3,1
.LBE4187:
.LBE4498:
	.loc 2 326 0
	rlwimi 0,3,31,0,0
.LBB4499:
.LBB4218:
.LBB4208:
.LBB4201:
	.loc 16 241 0
	mr 3,30
.LBE4201:
.LBE4208:
.LBE4218:
.LBE4499:
	.loc 2 326 0
	stw 0,640(31)
.LVL702:
.LBB4500:
.LBB4219:
.LBB4209:
.LBB4202:
	.loc 16 241 0
	bl _ZNK6idDict7FindKeyEPKc
.LVL703:
	.loc 16 242 0
	cmpwi 0,3,0
	bne+ 0,.L276
.L243:
	.loc 16 245 0
	lis 3,.LC30@ha
.LVL704:
	la 3,.LC30@l(3)
.LBE4202:
.LBE4209:
	.loc 16 257 0
	bl atoi
.LBE4219:
.LBE4500:
	.loc 2 327 0
	lwz 0,640(31)
.LBB4501:
.LBB4220:
	.loc 16 257 0
	cntlzw 3,3
.LBE4220:
.LBE4501:
.LBB4502:
.LBB4254:
.LBB4244:
.LBB4237:
	.loc 16 241 0
	lis 4,.LC47@ha
.LBE4237:
.LBE4244:
.LBE4254:
.LBE4502:
.LBB4503:
.LBB4221:
	.loc 16 257 0
	srwi 3,3,5
.LBE4221:
.LBE4503:
.LBB4504:
.LBB4255:
.LBB4245:
.LBB4238:
	.loc 16 241 0
	la 4,.LC47@l(4)
.LBE4238:
.LBE4245:
.LBE4255:
.LBE4504:
.LBB4505:
.LBB4222:
	.loc 16 257 0
	xori 3,3,1
.LBE4222:
.LBE4505:
	.loc 2 327 0
	rlwimi 0,3,30,1,1
.LBB4506:
.LBB4256:
.LBB4246:
.LBB4239:
	.loc 16 241 0
	mr 3,30
.LBE4239:
.LBE4246:
.LBE4256:
.LBE4506:
	.loc 2 327 0
	stw 0,640(31)
.LVL705:
.LBB4507:
.LBB4257:
.LBB4247:
.LBB4240:
	.loc 16 241 0
	bl _ZNK6idDict7FindKeyEPKc
.LVL706:
	.loc 16 242 0
	cmpwi 0,3,0
	bne+ 0,.L277
.L244:
	.loc 16 245 0
	lis 3,.LC30@ha
.LVL707:
	la 3,.LC30@l(3)
	b .L202
.LVL708:
.L245:
.LBE4240:
.LBE4247:
.LBE4257:
.LBE4507:
.LBB4508:
.LBB4318:
.LBB4314:
.LBB4310:
	lis 3,.LC30@ha
.LVL709:
	la 3,.LC30@l(3)
	b .L207
.LVL710:
.L247:
.LBE4310:
.LBE4314:
.LBE4318:
.LBE4508:
.LBB4509:
.LBB4349:
.LBB4348:
.LBB4347:
	lis 3,.LC30@ha
.LVL711:
	la 3,.LC30@l(3)
	b .L209
.LVL712:
.L249:
.LBE4347:
.LBE4348:
.LBE4349:
.LBE4509:
.LBB4510:
.LBB4357:
.LBB4356:
.LBB4355:
	lis 3,.LC30@ha
.LVL713:
	la 3,.LC30@l(3)
	b .L211
.LVL714:
.L235:
.LBE4355:
.LBE4356:
.LBE4357:
.LBE4510:
.LBB4511:
.LBB4060:
.LBB4057:
.LBB4055:
	lis 3,.LC30@ha
.LVL715:
	la 3,.LC30@l(3)
.LBE4055:
.LBE4057:
	.loc 16 249 0
	bl atof
.LBE4060:
.LBE4511:
.LBB4512:
.LBB4076:
.LBB4072:
.LBB4069:
	.loc 16 241 0
	lis 4,.LC39@ha
	mr 3,30
	la 4,.LC39@l(4)
.LBE4069:
.LBE4072:
.LBE4076:
.LBE4512:
.LBB4513:
.LBB4061:
	.loc 16 249 0
	frsp 20,1
.LVL716:
.LBE4061:
.LBE4513:
.LBB4514:
.LBB4077:
.LBB4073:
.LBB4070:
	.loc 16 241 0
	bl _ZNK6idDict7FindKeyEPKc
.LVL717:
	.loc 16 242 0
	cmpwi 0,3,0
	bne+ 0,.L278
.L236:
	.loc 16 245 0
	lis 3,.LC30@ha
.LVL718:
	la 3,.LC30@l(3)
	b .L194
.LVL719:
.L252:
.LBE4070:
.LBE4073:
.LBE4077:
.LBE4514:
.LBB4515:
.LBB4459:
.LBB4458:
.LBB4457:
	lis 3,.LC30@ha
.LVL720:
	la 3,.LC30@l(3)
	b .L220
.LVL721:
.L251:
.LBE4457:
.LBE4458:
.LBE4459:
.LBE4515:
.LBB4516:
.LBB4431:
.LBB4429:
.LBB4428:
	lis 3,.LC31@ha
.LVL722:
	la 3,.LC31@l(3)
	b .L219
.LVL723:
.L250:
.LBE4428:
.LBE4429:
.LBE4431:
.LBE4516:
.LBB4517:
.LBB4374:
	lis 4,.LC27@ha
	la 4,.LC27@l(4)
	b .L214
.LBE4374:
.LBE4517:
.LBE4520:
	.cfi_endproc
.LFE2828:
	.size	_ZN12idProjectile6LaunchERK6idVec3S2_S2_fff, .-_ZN12idProjectile6LaunchERK6idVec3S2_S2_fff
	.align 2
	.globl _ZN18idGuidedProjectile6LaunchERK6idVec3S2_S2_fff
	.type	_ZN18idGuidedProjectile6LaunchERK6idVec3S2_S2_fff, @function
_ZN18idGuidedProjectile6LaunchERK6idVec3S2_S2_fff:
.LFB2868:
	.loc 2 1414 0
	.cfi_startproc
.LVL724:
	stwu 1,-192(1)
.LCFI96:
	.cfi_def_cfa_offset 192
	mflr 0
	stw 31,188(1)
	mr 31,3
	.cfi_offset 31, -4
	.cfi_register 65, 0
	stw 0,196(1)
	stw 30,184(1)
.LBB4613:
.LBB4614:
.LBB4615:
.LBB4616:
	.loc 4 635 0
	lis 30,gameLocal@ha
	.cfi_offset 30, -8
	.cfi_offset 65, 4
.LBE4616:
.LBE4615:
.LBE4614:
.LBE4613:
	.loc 2 1414 0
	stw 29,180(1)
.LBB4892:
	.loc 2 1415 0
	.cfi_offset 29, -12
	bl _ZN12idProjectile6LaunchERK6idVec3S2_S2_fff
.LVL725:
.LBB4700:
.LBB4619:
.LBB4617:
	.loc 4 634 0
	lwz 0,636(31)
	.loc 4 635 0
	la 30,gameLocal@l(30)
	.loc 4 634 0
	rlwinm 9,0,0,20,31
.LVL726:
	.loc 4 635 0
	srawi 0,0,12
	addi 11,9,4228
	slwi 11,11,2
	add 11,30,11
	lwz 11,4(11)
	cmpw 7,11,0
	beq- 7,.L309
.LVL727:
.L280:
.LBE4617:
.LBE4619:
.LBE4700:
	.loc 2 1434 0
	li 4,0
	addi 3,31,936
	bl _ZNK19idPhysics_RigidBody17GetLinearVelocityEi
	mr 30,3
.LVL728:
	.loc 2 1435 0
	mr 4,3
	addi 3,1,20
.LVL729:
	bl _ZNK6idVec38ToAnglesEv
.LVL730:
.LBB4701:
.LBB4702:
	.loc 15 146 0
	lwz 0,20(1)
.LBE4702:
.LBE4701:
.LBB4706:
.LBB4707:
.LBB4708:
.LBB4709:
.LBB4710:
.LBB4711:
	.loc 8 278 0
	lis 9,.LC22@ha
.LBE4711:
.LBE4710:
.LBE4709:
.LBE4708:
.LBE4707:
.LBE4706:
.LBB4724:
.LBB4725:
	.loc 16 280 0
	lis 4,.LC63@ha
.LBE4725:
.LBE4724:
.LBB4730:
.LBB4703:
	.loc 15 146 0
	stw 0,1528(31)
.LBE4703:
.LBE4730:
.LBB4731:
.LBB4726:
	.loc 16 280 0
	lis 5,.LC64@ha
.LBE4726:
.LBE4731:
.LBB4732:
.LBB4704:
	.loc 15 147 0
	lwz 0,24(1)
.LBE4704:
.LBE4732:
.LBB4733:
.LBB4727:
	.loc 16 280 0
	la 4,.LC63@l(4)
	la 5,.LC64@l(5)
	addi 6,1,8
.LBE4727:
.LBE4733:
.LBB4734:
.LBB4705:
	.loc 15 147 0
	stw 0,1532(31)
	.loc 15 148 0
	lwz 0,28(1)
	stw 0,1536(31)
.LVL731:
.LBE4705:
.LBE4734:
.LBB4735:
.LBB4722:
	.loc 3 632 0
	lfs 0,4(30)
	lfs 13,0(30)
	fmuls 12,0,0
	lfs 0,8(30)
.LBE4722:
.LBE4735:
	.loc 2 1437 0
	addi 30,31,100
.LVL732:
.LBB4736:
.LBB4728:
	.loc 16 280 0
	mr 3,30
.LBE4728:
.LBE4736:
.LBB4737:
.LBB4723:
	.loc 3 632 0
	fmadds 13,13,13,12
.LBB4720:
.LBB4718:
.LBB4715:
.LBB4712:
	.loc 8 278 0
	lfs 12,.LC22@l(9)
	.loc 8 276 0
	lis 9,_ZN6idMath5iSqrtE@ha
	la 9,_ZN6idMath5iSqrtE@l(9)
.LBE4712:
.LBE4715:
.LBE4718:
.LBE4720:
	.loc 3 632 0
	fmadds 13,0,0,13
	stfs 13,168(1)
.LVL733:
.LBB4721:
.LBB4719:
.LBB4716:
.LBB4713:
	.loc 8 270 0
	lwz 0,168(1)
.LVL734:
	.loc 8 276 0
	rlwinm 11,0,9,24,31
	rlwinm 0,0,19,21,29
	lwzx 9,9,0
	subfic 0,11,380
	rlwinm 0,0,22,0,8
	.loc 8 275 0
	lis 11,.LC6@ha
	.loc 8 276 0
	or 0,0,9
	.loc 8 275 0
	lfs 11,.LC6@l(11)
	.loc 8 277 0
	stw 0,172(1)
	.loc 8 275 0
	fmuls 11,13,11
.LVL735:
	.loc 8 277 0
	lfs 0,172(1)
	fmr 13,0
.LVL736:
	.loc 2 1414 0
	fneg 11,11
.LVL737:
	.loc 8 278 0
	fmul 0,13,13
.LVL738:
	fmadd 0,11,0,12
	fmul 0,13,0
.LVL739:
	.loc 8 279 0
	fmul 13,0,0
	fmadd 12,11,13,12
.LVL740:
.LBE4713:
.LBE4716:
	.loc 8 303 0
	lfs 13,168(1)
.LBB4717:
.LBB4714:
	.loc 8 279 0
	fmul 0,0,12
.LVL741:
	.loc 8 280 0
	frsp 0,0
.LVL742:
.LBE4714:
.LBE4717:
	.loc 8 303 0
	fmuls 0,13,0
.LBE4719:
.LBE4721:
.LBE4723:
.LBE4737:
	.loc 2 1436 0
	stfs 0,1496(31)
.LVL743:
.LBB4738:
.LBB4729:
	.loc 16 280 0
	bl _ZNK6idDict9GetAnglesEPKcS1_R8idAngles
.LVL744:
.LBE4729:
.LBE4738:
.LBB4739:
.LBB4740:
	.loc 15 146 0
	lwz 0,8(1)
.LBE4740:
.LBE4739:
.LBB4743:
.LBB4744:
.LBB4745:
.LBB4746:
	.loc 16 241 0
	lis 4,.LC65@ha
	mr 3,30
.LBE4746:
.LBE4745:
.LBE4744:
.LBE4743:
.LBB4759:
.LBB4741:
	.loc 15 146 0
	stw 0,1504(31)
.LBE4741:
.LBE4759:
.LBB4760:
.LBB4754:
.LBB4751:
.LBB4748:
	.loc 16 241 0
	la 4,.LC65@l(4)
.LBE4748:
.LBE4751:
.LBE4754:
.LBE4760:
.LBB4761:
.LBB4742:
	.loc 15 147 0
	lwz 0,12(1)
	stw 0,1508(31)
	.loc 15 148 0
	lwz 0,16(1)
	stw 0,1512(31)
.LVL745:
.LBE4742:
.LBE4761:
.LBB4762:
.LBB4755:
.LBB4752:
.LBB4749:
	.loc 16 241 0
	bl _ZNK6idDict7FindKeyEPKc
.LVL746:
	.loc 16 242 0
	cmpwi 0,3,0
	beq- 0,.L303
.LVL747:
.LBB4747:
	.loc 2 2410 0
	lwz 9,4(3)
	lwz 3,4(9)
.LVL748:
.LBE4747:
.LBE4749:
.LBE4752:
	.loc 16 249 0
	bl atof
.LVL749:
.LBE4755:
.LBE4762:
	.loc 2 1438 0
	lis 9,.LC66@ha
.LBB4763:
.LBB4756:
	.loc 16 249 0
	frsp 1,1
.LBE4756:
.LBE4763:
	.loc 2 1438 0
	lfs 0,.LC66@l(9)
.LBB4764:
.LBB4765:
.LBB4766:
.LBB4767:
	.loc 16 241 0
	lis 4,.LC67@ha
	mr 3,30
	la 4,.LC67@l(4)
.LBE4767:
.LBE4766:
.LBE4765:
.LBE4764:
	.loc 2 1438 0
	fdivs 1,1,0
	stfs 1,1544(31)
.LVL750:
.LBB4782:
.LBB4775:
.LBB4772:
.LBB4769:
	.loc 16 241 0
	bl _ZNK6idDict7FindKeyEPKc
.LVL751:
	.loc 16 242 0
	cmpwi 0,3,0
	beq- 0,.L304
.L314:
.LVL752:
.LBB4768:
	.loc 2 2410 0
	lwz 9,4(3)
	lwz 3,4(9)
.LVL753:
.LBE4768:
.LBE4769:
.LBE4772:
	.loc 16 249 0
	bl atof
.LVL754:
.LBE4775:
.LBE4782:
.LBB4783:
.LBB4784:
.LBB4785:
.LBB4786:
	.loc 16 241 0
	lis 4,.LC68@ha
.LBE4786:
.LBE4785:
.LBE4784:
.LBE4783:
.LBB4809:
.LBB4776:
	.loc 16 249 0
	frsp 1,1
.LBE4776:
.LBE4809:
.LBB4810:
.LBB4798:
.LBB4793:
.LBB4788:
	.loc 16 241 0
	mr 3,30
	la 4,.LC68@l(4)
.LBE4788:
.LBE4793:
.LBE4798:
.LBE4810:
.LBB4811:
.LBB4777:
	.loc 16 249 0
	stfs 1,1548(31)
.LVL755:
.LBE4777:
.LBE4811:
.LBB4812:
.LBB4799:
.LBB4794:
.LBB4789:
	.loc 16 241 0
	bl _ZNK6idDict7FindKeyEPKc
.LVL756:
	.loc 16 242 0
	cmpwi 0,3,0
	beq- 0,.L305
.L315:
.LVL757:
.LBB4787:
	.loc 2 2410 0
	lwz 9,4(3)
	lwz 3,4(9)
.LVL758:
.LBE4787:
.LBE4789:
.LBE4794:
	.loc 16 257 0
	bl atoi
.LVL759:
.LBE4799:
.LBE4812:
	.loc 2 1441 0
	li 0,0
.LBB4813:
.LBB4800:
	.loc 16 257 0
	cntlzw 3,3
.LBE4800:
.LBE4813:
	.loc 2 1441 0
	stb 0,1553(31)
.LVL760:
.LBB4814:
.LBB4801:
	.loc 16 257 0
	srwi 3,3,5
.LBE4801:
.LBE4814:
.LBB4815:
.LBB4816:
.LBB4817:
.LBB4818:
	.loc 16 241 0
	lis 4,.LC69@ha
.LBE4818:
.LBE4817:
.LBE4816:
.LBE4815:
.LBB4839:
.LBB4802:
	.loc 16 257 0
	xori 3,3,1
.LBE4802:
.LBE4839:
.LBB4840:
.LBB4830:
.LBB4825:
.LBB4820:
	.loc 16 241 0
	la 4,.LC69@l(4)
.LBE4820:
.LBE4825:
.LBE4830:
.LBE4840:
	.loc 2 1440 0
	stb 3,1552(31)
.LBB4841:
.LBB4831:
.LBB4826:
.LBB4821:
	.loc 16 241 0
	mr 3,30
	bl _ZNK6idDict7FindKeyEPKc
.LVL761:
	.loc 16 242 0
	cmpwi 0,3,0
	beq- 0,.L306
.L316:
.LVL762:
.LBB4819:
	.loc 2 2410 0
	lwz 9,4(3)
	lwz 3,4(9)
.LVL763:
.LBE4819:
.LBE4821:
.LBE4826:
	.loc 16 249 0
	bl atof
.LVL764:
.LBE4831:
.LBE4841:
.LBB4842:
.LBB4843:
.LBB4844:
.LBB4845:
	.loc 16 241 0
	lis 4,.LC70@ha
.LBE4845:
.LBE4844:
.LBE4843:
.LBE4842:
.LBB4864:
.LBB4832:
	.loc 16 249 0
	frsp 1,1
.LBE4832:
.LBE4864:
.LBB4865:
.LBB4857:
.LBB4852:
.LBB4847:
	.loc 16 241 0
	mr 3,30
	la 4,.LC70@l(4)
.LBE4847:
.LBE4852:
.LBE4857:
.LBE4865:
.LBB4866:
.LBB4833:
	.loc 16 249 0
	stfs 1,1556(31)
.LVL765:
.LBE4833:
.LBE4866:
.LBB4867:
.LBB4858:
.LBB4853:
.LBB4848:
	.loc 16 241 0
	bl _ZNK6idDict7FindKeyEPKc
.LVL766:
	.loc 16 242 0
	cmpwi 0,3,0
	beq- 0,.L307
.LVL767:
.L317:
.LBB4846:
	.loc 2 2410 0
	lwz 9,4(3)
	lwz 3,4(9)
.LVL768:
.LBE4846:
.LBE4848:
.LBE4853:
	.loc 16 249 0
	bl atof
.LVL769:
.LBE4858:
.LBE4867:
	.loc 2 1444 0
	mr 3,31
.LBB4868:
.LBB4859:
	.loc 16 249 0
	frsp 1,1
	stfs 1,1560(31)
.LBE4859:
.LBE4868:
	.loc 2 1444 0
	bl _ZN8idEntity13UpdateVisualsEv
.LBE4892:
	.loc 2 1445 0
	lwz 0,196(1)
	lwz 29,180(1)
	mtlr 0
	lwz 30,184(1)
.LVL770:
	lwz 31,188(1)
.LVL771:
	addi 1,1,192
	.cfi_remember_state
.LCFI97:
	.cfi_def_cfa_offset 0
	.cfi_restore 31
	.cfi_restore 30
	.cfi_restore 29
	blr
.LVL772:
.L309:
.LCFI98:
	.cfi_restore_state
.LBB4893:
.LBB4869:
.LBB4620:
.LBB4618:
	.loc 4 636 0
	addi 9,9,132
.LVL773:
	slwi 9,9,2
.LVL774:
	add 9,30,9
	lwz 3,4(9)
.LBE4618:
.LBE4620:
	.loc 2 1416 0
	cmpwi 7,3,0
	beq- 7,.L280
.LVL775:
.LBB4621:
.LBB4622:
.LBB4623:
	.loc 6 340 0
	lwz 9,0(3)
.LVL776:
	lwz 0,0(9)
	mtctr 0
	bctrl
.LVL777:
.LBE4623:
	.loc 2 2410 0
	lis 9,_ZN4idAI4TypeE@ha
	la 9,_ZN4idAI4TypeE@l(9)
	lwz 0,56(3)
.LBB4626:
.LBB4624:
.LBB4625:
	.loc 6 311 0
	lwz 11,56(9)
	cmpw 7,0,11
	blt- 7,.L281
	lwz 9,60(9)
	cmpw 7,0,9
	bgt- 7,.L281
.LVL778:
.LBE4625:
.LBE4624:
.LBE4626:
.LBE4622:
.LBB4627:
.LBB4628:
	.loc 4 634 0
	lwz 0,636(31)
	.loc 4 638 0
	li 3,0
.LVL779:
	.loc 4 634 0
	rlwinm 9,0,0,20,31
.LVL780:
	.loc 4 635 0
	srawi 0,0,12
	addi 11,9,4228
	slwi 11,11,2
	add 11,30,11
	lwz 11,4(11)
	cmpw 7,11,0
	beq- 7,.L310
.LVL781:
.L282:
.LBE4628:
.LBE4627:
	.loc 2 1418 0
	bl _ZNK4idAI8GetEnemyEv
.LVL782:
.LBB4630:
.LBB4631:
	.loc 4 605 0
	cmpwi 0,3,0
	beq- 0,.L308
.LVL783:
.L291:
.LBE4631:
.LBE4630:
.LBB4632:
.LBB4633:
.LBB4634:
.LBB4635:
	.loc 4 608 0
	lwz 9,4(3)
	addi 0,9,4228
	slwi 0,0,2
	add 30,30,0
	lwz 0,4(30)
	slwi 0,0,12
	or 9,0,9
	stw 9,1500(31)
	b .L280
.LVL784:
.L281:
.LBE4635:
.LBE4634:
.LBE4633:
.LBB4685:
.LBB4686:
	.loc 4 634 0
	lwz 0,636(31)
	.loc 4 638 0
	li 3,0
.LVL785:
	.loc 4 634 0
	rlwinm 9,0,0,20,31
.LVL786:
	.loc 4 635 0
	srawi 0,0,12
	addi 11,9,4228
	slwi 11,11,2
	add 11,30,11
	lwz 11,4(11)
	cmpw 7,11,0
	beq- 7,.L311
.LVL787:
.L298:
.LBE4686:
.LBE4685:
.LBB4688:
.LBB4689:
	.loc 6 340 0
	lwz 9,0(3)
	lwz 0,0(9)
	mtctr 0
	bctrl
.LVL788:
.LBE4689:
	.loc 2 2410 0
	lis 9,_ZN8idPlayer4TypeE@ha
	la 9,_ZN8idPlayer4TypeE@l(9)
	lwz 0,56(3)
.LBB4692:
.LBB4690:
.LBB4691:
	.loc 6 311 0
	lwz 11,56(9)
	cmpw 7,0,11
	blt- 7,.L280
	lwz 9,60(9)
	cmpw 7,0,9
	bgt- 7,.L280
.LVL789:
.LBE4691:
.LBE4690:
.LBE4692:
.LBE4688:
.LBB4693:
.LBB4637:
.LBB4638:
	.loc 4 634 0
	lwz 0,636(31)
	.loc 4 638 0
	li 29,0
	.loc 4 634 0
	rlwinm 9,0,0,20,31
.LVL790:
	.loc 4 635 0
	srawi 0,0,12
	addi 11,9,4228
	slwi 11,11,2
	add 11,30,11
	lwz 11,4(11)
	cmpw 7,11,0
	bne+ 7,.L284
	.loc 4 636 0
	addi 9,9,132
.LVL791:
	slwi 9,9,2
.LVL792:
	add 9,30,9
	lwz 29,4(9)
.L284:
.LBE4638:
.LBE4637:
	.loc 2 1422 0
	addi 3,1,44
.LVL793:
	mr 4,29
	bl _ZNK8idPlayer14GetEyePositionEv
.LVL794:
.LBB4639:
.LBB4640:
	.loc 4 634 0
	lwz 0,636(31)
.LBE4640:
.LBE4639:
	.loc 3 452 0
	lis 10,.LC62@ha
	lfs 13,48(1)
.LBB4649:
.LBB4641:
	.loc 4 634 0
	rlwinm 9,0,0,20,31
.LBE4641:
.LBE4649:
	.loc 3 452 0
	lfs 0,.LC62@l(10)
.LBB4650:
.LBB4642:
	.loc 4 635 0
	addi 11,9,4228
.LBE4642:
.LBE4650:
	.loc 3 452 0
	lfs 12,2272(29)
.LBB4651:
.LBB4643:
	.loc 4 635 0
	slwi 11,11,2
.LBE4643:
.LBE4651:
	.loc 3 452 0
	lfs 11,2276(29)
	fmadds 12,12,0,13
.LBB4652:
.LBB4644:
	.loc 4 635 0
	add 11,30,11
.LBE4644:
.LBE4652:
	.loc 3 452 0
	lfs 13,52(1)
.LBB4653:
.LBB4645:
	.loc 4 635 0
	srawi 0,0,12
	lwz 11,4(11)
	.loc 4 638 0
	li 10,0
.LBE4645:
.LBE4653:
	.loc 3 452 0
	fmadds 13,11,0,13
.LVL795:
.LBB4654:
.LBB4655:
.LBB4656:
.LBB4657:
	lfs 10,2268(29)
	lfs 11,44(1)
.LBE4657:
.LBE4656:
.LBE4655:
.LBE4654:
.LBB4661:
.LBB4646:
	.loc 4 635 0
	cmpw 7,11,0
.LBE4646:
.LBE4661:
.LBB4662:
.LBB4660:
.LBB4659:
.LBB4658:
	.loc 3 397 0
	stfs 12,36(1)
	.loc 3 452 0
	fmadds 0,10,0,11
	.loc 3 398 0
	stfs 13,40(1)
.LVL796:
	.loc 3 396 0
	stfs 0,32(1)
.LBE4658:
.LBE4659:
.LBE4660:
.LBE4662:
.LBB4663:
.LBB4647:
	.loc 4 635 0
	beq- 7,.L312
.LVL797:
.L285:
.LBE4647:
.LBE4663:
.LBB4664:
.LBB4665:
	.file 17 "d:/Data/Nintendo/DoomGX/src/game/physics/Clip.h"
	.loc 17 334 0
	lis 3,gameLocal+2311032@ha
	lis 8,mat3_identity@ha
	li 9,2305
	la 3,gameLocal+2311032@l(3)
	addi 4,1,56
	addi 5,1,44
.LVL798:
	addi 6,1,32
	li 7,0
	la 8,mat3_identity@l(8)
	bl _ZN6idClip11TranslationER7trace_sRK6idVec3S4_PK11idClipModelRK6idMat3iPK8idEntity
.LVL799:
.LBE4665:
.LBE4664:
	.loc 2 1425 0
	lis 9,.LC2@ha
	lfs 13,56(1)
	lfs 0,.LC2@l(9)
	fcmpu 7,13,0
	blt- 7,.L286
	lwz 0,1500(31)
	rlwinm 9,0,0,20,31
	srawi 0,0,12
.L287:
.LVL800:
.LBB4666:
.LBB4667:
	.loc 4 635 0
	addi 11,9,4228
	slwi 11,11,2
	add 11,30,11
	lwz 11,4(11)
	cmpw 7,11,0
	beq- 7,.L313
.LVL801:
.L289:
.LBE4667:
.LBE4666:
	.loc 2 1430 0 discriminator 5
	mr 3,29
	bl _ZN7idActor19EnemyWithMostHealthEv
.LVL802:
.LBB4669:
.LBB4636:
	.loc 4 605 0 discriminator 5
	cmpwi 0,3,0
	bne+ 0,.L291
.LVL803:
.L308:
	.loc 4 606 0
	stw 3,1500(31)
	b .L280
.LVL804:
.L310:
.LBE4636:
.LBE4669:
.LBE4693:
.LBE4632:
.LBB4696:
.LBB4629:
	.loc 4 636 0
	addi 9,9,132
.LVL805:
	slwi 9,9,2
.LVL806:
	add 9,30,9
	lwz 3,4(9)
	b .L282
.LVL807:
.L311:
.LBE4629:
.LBE4696:
.LBB4697:
.LBB4694:
.LBB4687:
	addi 9,9,132
.LVL808:
	slwi 9,9,2
.LVL809:
	add 9,30,9
	lwz 3,4(9)
	b .L298
.LVL810:
.L303:
.LBE4687:
.LBE4694:
.LBE4697:
.LBE4621:
.LBE4869:
.LBB4870:
.LBB4757:
.LBB4753:
.LBB4750:
	.loc 16 245 0
	lis 3,.LC58@ha
.LVL811:
	la 3,.LC58@l(3)
.LBE4750:
.LBE4753:
	.loc 16 249 0
	bl atof
.LBE4757:
.LBE4870:
	.loc 2 1438 0
	lis 9,.LC66@ha
.LBB4871:
.LBB4758:
	.loc 16 249 0
	frsp 1,1
.LBE4758:
.LBE4871:
	.loc 2 1438 0
	lfs 0,.LC66@l(9)
.LBB4872:
.LBB4778:
.LBB4773:
.LBB4770:
	.loc 16 241 0
	lis 4,.LC67@ha
	mr 3,30
	la 4,.LC67@l(4)
.LBE4770:
.LBE4773:
.LBE4778:
.LBE4872:
	.loc 2 1438 0
	fdivs 1,1,0
	stfs 1,1544(31)
.LVL812:
.LBB4873:
.LBB4779:
.LBB4774:
.LBB4771:
	.loc 16 241 0
	bl _ZNK6idDict7FindKeyEPKc
.LVL813:
	.loc 16 242 0
	cmpwi 0,3,0
	bne+ 0,.L314
.L304:
	.loc 16 245 0
	lis 3,.LC59@ha
.LVL814:
	la 3,.LC59@l(3)
.LBE4771:
.LBE4774:
	.loc 16 249 0
	bl atof
.LBE4779:
.LBE4873:
.LBB4874:
.LBB4803:
.LBB4795:
.LBB4790:
	.loc 16 241 0
	lis 4,.LC68@ha
.LBE4790:
.LBE4795:
.LBE4803:
.LBE4874:
.LBB4875:
.LBB4780:
	.loc 16 249 0
	frsp 1,1
.LBE4780:
.LBE4875:
.LBB4876:
.LBB4804:
.LBB4796:
.LBB4791:
	.loc 16 241 0
	mr 3,30
	la 4,.LC68@l(4)
.LBE4791:
.LBE4796:
.LBE4804:
.LBE4876:
.LBB4877:
.LBB4781:
	.loc 16 249 0
	stfs 1,1548(31)
.LVL815:
.LBE4781:
.LBE4877:
.LBB4878:
.LBB4805:
.LBB4797:
.LBB4792:
	.loc 16 241 0
	bl _ZNK6idDict7FindKeyEPKc
.LVL816:
	.loc 16 242 0
	cmpwi 0,3,0
	bne+ 0,.L315
.L305:
	.loc 16 245 0
	lis 3,.LC30@ha
.LVL817:
	la 3,.LC30@l(3)
.LBE4792:
.LBE4797:
	.loc 16 257 0
	bl atoi
.LBE4805:
.LBE4878:
	.loc 2 1441 0
	li 0,0
.LBB4879:
.LBB4806:
	.loc 16 257 0
	cntlzw 3,3
.LBE4806:
.LBE4879:
	.loc 2 1441 0
	stb 0,1553(31)
.LVL818:
.LBB4880:
.LBB4807:
	.loc 16 257 0
	srwi 3,3,5
.LBE4807:
.LBE4880:
.LBB4881:
.LBB4834:
.LBB4827:
.LBB4822:
	.loc 16 241 0
	lis 4,.LC69@ha
.LBE4822:
.LBE4827:
.LBE4834:
.LBE4881:
.LBB4882:
.LBB4808:
	.loc 16 257 0
	xori 3,3,1
.LBE4808:
.LBE4882:
.LBB4883:
.LBB4835:
.LBB4828:
.LBB4823:
	.loc 16 241 0
	la 4,.LC69@l(4)
.LBE4823:
.LBE4828:
.LBE4835:
.LBE4883:
	.loc 2 1440 0
	stb 3,1552(31)
.LBB4884:
.LBB4836:
.LBB4829:
.LBB4824:
	.loc 16 241 0
	mr 3,30
	bl _ZNK6idDict7FindKeyEPKc
.LVL819:
	.loc 16 242 0
	cmpwi 0,3,0
	bne+ 0,.L316
.L306:
	.loc 16 245 0
	lis 3,.LC60@ha
.LVL820:
	la 3,.LC60@l(3)
.LBE4824:
.LBE4829:
	.loc 16 249 0
	bl atof
.LBE4836:
.LBE4884:
.LBB4885:
.LBB4860:
.LBB4854:
.LBB4849:
	.loc 16 241 0
	lis 4,.LC70@ha
.LBE4849:
.LBE4854:
.LBE4860:
.LBE4885:
.LBB4886:
.LBB4837:
	.loc 16 249 0
	frsp 1,1
.LBE4837:
.LBE4886:
.LBB4887:
.LBB4861:
.LBB4855:
.LBB4850:
	.loc 16 241 0
	mr 3,30
	la 4,.LC70@l(4)
.LBE4850:
.LBE4855:
.LBE4861:
.LBE4887:
.LBB4888:
.LBB4838:
	.loc 16 249 0
	stfs 1,1556(31)
.LVL821:
.LBE4838:
.LBE4888:
.LBB4889:
.LBB4862:
.LBB4856:
.LBB4851:
	.loc 16 241 0
	bl _ZNK6idDict7FindKeyEPKc
.LVL822:
	.loc 16 242 0
	cmpwi 0,3,0
	bne+ 0,.L317
.LVL823:
.L307:
	.loc 16 245 0
	lis 3,.LC61@ha
.LVL824:
	la 3,.LC61@l(3)
.LBE4851:
.LBE4856:
	.loc 16 249 0
	bl atof
.LBE4862:
.LBE4889:
	.loc 2 1444 0
	mr 3,31
.LBB4890:
.LBB4863:
	.loc 16 249 0
	frsp 1,1
	stfs 1,1560(31)
.LBE4863:
.LBE4890:
	.loc 2 1444 0
	bl _ZN8idEntity13UpdateVisualsEv
.LBE4893:
	.loc 2 1445 0
	lwz 0,196(1)
	lwz 29,180(1)
	mtlr 0
	lwz 30,184(1)
.LVL825:
	lwz 31,188(1)
.LVL826:
	addi 1,1,192
	.cfi_remember_state
	.cfi_restore 29
	.cfi_restore 30
	.cfi_restore 31
.LCFI99:
	.cfi_def_cfa_offset 0
	blr
.LVL827:
.L286:
.LCFI100:
	.cfi_restore_state
.LBB4894:
.LBB4891:
.LBB4699:
.LBB4698:
.LBB4695:
	.loc 2 1426 0
	mr 3,30
	addi 4,1,56
	bl _ZNK11idGameLocal14GetTraceEntityERK7trace_s
.LVL828:
.LBB4670:
.LBB4671:
	.loc 4 605 0
	cmpwi 0,3,0
	beq- 0,.L318
	.loc 4 608 0
	lwz 9,4(3)
	addi 11,9,4228
	slwi 11,11,2
	add 11,30,11
	lwz 0,4(11)
	slwi 0,0,12
	or 0,0,9
	stw 0,1500(31)
	rlwinm 9,0,0,20,31
	srawi 0,0,12
	b .L287
.LVL829:
.L313:
.LBE4671:
.LBE4670:
.LBB4673:
.LBB4668:
	.loc 4 636 0
	addi 9,9,132
.LVL830:
	slwi 9,9,2
.LVL831:
	add 9,30,9
	lwz 3,4(9)
.LBE4668:
.LBE4673:
	.loc 2 1429 0
	cmpwi 7,3,0
	beq- 7,.L289
.LVL832:
.LBB4674:
.LBB4675:
	.loc 6 340 0
	lwz 9,0(3)
.LVL833:
	lwz 0,0(9)
	mtctr 0
	bctrl
.LVL834:
.LBE4675:
	.loc 2 2410 0
	lis 9,_ZN7idActor4TypeE@ha
	la 9,_ZN7idActor4TypeE@l(9)
	lwz 0,56(3)
.LBB4678:
.LBB4676:
.LBB4677:
	.loc 6 311 0
	lwz 11,56(9)
	cmpw 7,0,11
	blt- 7,.L289
	lwz 9,60(9)
	cmpw 7,0,9
	bgt- 7,.L289
.LVL835:
.LBE4677:
.LBE4676:
.LBE4678:
.LBE4674:
.LBB4679:
.LBB4680:
	.loc 4 634 0
	lwz 0,1500(31)
	.loc 4 638 0
	li 9,0
	.loc 4 634 0
	rlwinm 11,0,0,20,31
.LVL836:
	.loc 4 635 0
	srawi 0,0,12
	addi 10,11,4228
	slwi 10,10,2
	add 10,30,10
	lwz 10,4(10)
	cmpw 7,10,0
	beq- 7,.L319
.L290:
.LBE4680:
.LBE4679:
	.loc 2 1429 0
	lwz 9,2260(9)
	lwz 0,2260(29)
	cmpw 7,9,0
	bne+ 7,.L280
	b .L289
.LVL837:
.L312:
.LBB4682:
.LBB4648:
	.loc 4 636 0
	addi 9,9,132
.LVL838:
	slwi 9,9,2
.LVL839:
	add 9,30,9
	lwz 10,4(9)
	b .L285
.LVL840:
.L319:
.LBE4648:
.LBE4682:
.LBB4683:
.LBB4681:
	addi 9,11,132
	slwi 9,9,2
	add 9,30,9
	lwz 9,4(9)
	b .L290
.LVL841:
.L318:
.LBE4681:
.LBE4683:
.LBB4684:
.LBB4672:
	.loc 4 606 0
	stw 3,1500(31)
	li 0,0
	li 9,0
	b .L287
.LBE4672:
.LBE4684:
.LBE4695:
.LBE4698:
.LBE4699:
.LBE4891:
.LBE4894:
	.cfi_endproc
.LFE2868:
	.size	_ZN18idGuidedProjectile6LaunchERK6idVec3S2_S2_fff, .-_ZN18idGuidedProjectile6LaunchERK6idVec3S2_S2_fff
	.align 2
	.globl _ZN17idSoulCubeMissile6LaunchERK6idVec3S2_S2_fff
	.type	_ZN17idSoulCubeMissile6LaunchERK6idVec3S2_S2_fff, @function
_ZN17idSoulCubeMissile6LaunchERK6idVec3S2_S2_fff:
.LFB2885:
	.loc 2 1636 0
	.cfi_startproc
.LVL842:
	stwu 1,-128(1)
.LCFI101:
	.cfi_def_cfa_offset 128
	mflr 0
	stw 28,88(1)
	mr 28,4
	.cfi_offset 28, -40
	.cfi_register 65, 0
	stw 29,92(1)
.LBB4961:
.LBB4962:
.LBB4963:
.LBB4964:
.LBB4965:
	.loc 16 241 0
	lis 4,.LC72@ha
.LVL843:
.LBE4965:
.LBE4964:
.LBE4963:
.LBE4962:
	.loc 2 1642 0
	addi 29,3,100
	.cfi_offset 29, -36
.LVL844:
.LBE4961:
	.loc 2 1636 0
	stw 31,100(1)
.LBB5142:
.LBB4983:
.LBB4975:
.LBB4971:
.LBB4967:
	.loc 16 241 0
	la 4,.LC72@l(4)
.LBE4967:
.LBE4971:
.LBE4975:
.LBE4983:
.LBE5142:
	.loc 2 1636 0
	mr 31,3
	.cfi_offset 31, -28
.LBB5143:
.LBB4984:
.LBB4976:
.LBB4972:
.LBB4968:
	.loc 16 241 0
	mr 3,29
.LVL845:
.LBE4968:
.LBE4972:
.LBE4976:
.LBE4984:
.LBE5143:
	.loc 2 1636 0
	stfd 29,104(1)
	stfd 30,112(1)
	fmr 29,2
	.cfi_offset 62, -16
	.cfi_offset 61, -24
	stfd 31,120(1)
	fmr 30,3
	stw 27,84(1)
	fmr 31,1
	.cfi_offset 27, -44
	.cfi_offset 63, -8
	stw 30,96(1)
	mr 27,6
	stw 0,132(1)
	.loc 2 1636 0
	mr 30,5
	.cfi_offset 65, 4
	.cfi_offset 30, -32
.LBB5144:
.LBB4985:
.LBB4977:
.LBB4973:
.LBB4969:
	.loc 16 241 0
	bl _ZNK6idDict7FindKeyEPKc
.LVL846:
	.loc 16 242 0
	cmpwi 0,3,0
	beq- 0,.L327
.LVL847:
.LBB4966:
	.loc 2 2410 0
	lwz 9,4(3)
	lwz 3,4(9)
.LVL848:
.L321:
.LBE4966:
.LBE4969:
.LBE4973:
	.loc 16 249 0
	bl atof
	.loc 3 452 0
	lfs 9,4(30)
	.loc 16 249 0
	frsp 1,1
.LVL849:
	.loc 3 452 0
	lfs 10,8(30)
.LBE4977:
.LBE4985:
.LBB4986:
.LBB4987:
	lfs 11,0(30)
.LBE4987:
.LBE4986:
.LBB4990:
.LBB4991:
	.loc 16 262 0
	lis 4,.LC73@ha
.LBE4991:
.LBE4990:
.LBB4998:
.LBB4988:
	.loc 3 452 0
	lfs 12,0(28)
.LBE4988:
.LBE4998:
.LBB4999:
.LBB4992:
	.loc 16 262 0
	lis 5,.LC74@ha
.LBE4992:
.LBE4999:
.LBB5000:
.LBB4978:
	.loc 3 452 0
	lfs 13,4(28)
.LBE4978:
.LBE5000:
.LBB5001:
.LBB4993:
	.loc 16 262 0
	la 4,.LC73@l(4)
.LBE4993:
.LBE5001:
.LBB5002:
.LBB4979:
	.loc 3 452 0
	lfs 0,8(28)
.LBE4979:
.LBE5002:
.LBB5003:
.LBB4994:
	.loc 16 262 0
	la 5,.LC74@l(5)
.LBE4994:
.LBE5003:
.LBB5004:
.LBB4980:
	.loc 3 452 0
	fmadds 13,9,1,13
.LBE4980:
.LBE5004:
.LBB5005:
.LBB4995:
	.loc 16 262 0
	addi 6,1,44
.LBE4995:
.LBE5005:
.LBB5006:
.LBB4981:
	.loc 3 452 0
	fmadds 0,10,1,0
.LVL850:
.LBE4981:
.LBE5006:
.LBB5007:
.LBB4996:
	.loc 16 262 0
	mr 3,29
.LBE4996:
.LBE5007:
.LBB5008:
.LBB4989:
	.loc 3 452 0
	fmadds 1,11,1,12
.LVL851:
	.loc 3 425 0
	stfs 13,60(1)
	.loc 3 426 0
	stfs 0,64(1)
.LVL852:
	.loc 3 424 0
	stfs 1,56(1)
.LBE4989:
.LBE5008:
.LBB5009:
.LBB4997:
	.loc 16 262 0
	bl _ZNK6idDict9GetVectorEPKcS1_R6idVec3
.LVL853:
.LBE4997:
.LBE5009:
.LBB5010:
.LBB5011:
	.loc 3 457 0
	lfs 13,60(1)
.LBE5011:
.LBE5010:
	.loc 2 1645 0
	fmr 1,31
.LBB5020:
.LBB5012:
	.loc 3 457 0
	lfs 0,48(1)
.LBE5012:
.LBE5020:
	.loc 2 1645 0
	fmr 2,29
.LBB5021:
.LBB5013:
	.loc 3 456 0
	lfs 12,56(1)
.LBE5013:
.LBE5021:
	.loc 2 1645 0
	fmr 3,30
.LBB5022:
.LBB5014:
	.loc 3 457 0
	fadds 13,13,0
	.loc 3 456 0
	lfs 0,44(1)
	.loc 3 458 0
	lfs 11,64(1)
.LBE5014:
.LBE5022:
	.loc 2 1645 0
	mr 6,27
.LBB5023:
.LBB5015:
	.loc 3 456 0
	fadds 12,12,0
	.loc 3 458 0
	lfs 0,52(1)
.LBE5015:
.LBE5023:
	.loc 2 1645 0
	mr 3,31
	addi 4,1,56
.LBB5024:
.LBB5016:
	.loc 3 458 0
	fadds 0,11,0
.LBE5016:
.LBE5024:
	.loc 2 1645 0
	mr 5,30
.LBB5025:
.LBB5017:
	.loc 3 456 0
	stfs 12,56(1)
.LBE5017:
.LBE5025:
.LBB5026:
.LBB5027:
	.loc 4 635 0
	lis 27,gameLocal@ha
.LVL854:
.LBE5027:
.LBE5026:
.LBB5031:
.LBB5018:
	.loc 3 457 0
	stfs 13,60(1)
.LBE5018:
.LBE5031:
.LBB5032:
.LBB5028:
	.loc 4 635 0
	la 27,gameLocal@l(27)
.LBE5028:
.LBE5032:
.LBB5033:
.LBB5019:
	.loc 3 458 0
	stfs 0,64(1)
.LBE5019:
.LBE5033:
	.loc 2 1645 0
	bl _ZN18idGuidedProjectile6LaunchERK6idVec3S2_S2_fff
.LVL855:
.LBB5034:
.LBB5029:
	.loc 4 634 0
	lwz 0,1500(31)
	rlwinm 9,0,0,20,31
.LVL856:
	.loc 4 635 0
	srawi 0,0,12
	addi 11,9,4228
	slwi 11,11,2
	add 11,27,11
	lwz 11,4(11)
	cmpw 7,11,0
	beq- 7,.L329
.LVL857:
.L322:
.LBE5029:
.LBE5034:
.LBB5035:
.LBB5036:
.LBB5037:
.LBB5038:
	.loc 3 452 0 discriminator 4
	lis 9,.LC75@ha
	lfs 8,4(30)
	lfs 12,4(28)
	lfs 9,8(30)
	lfs 13,8(28)
.LBE5038:
.LBE5037:
.LBE5036:
.LBE5035:
.LBB5046:
.LBB5047:
	lfs 10,0(30)
	lfs 11,0(28)
.LBE5047:
.LBE5046:
.LBB5049:
.LBB5043:
.LBB5041:
.LBB5039:
	lfs 0,.LC75@l(9)
	fmadds 12,8,0,12
	fmadds 13,9,0,13
.LVL858:
.LBE5039:
.LBE5041:
.LBE5043:
.LBE5049:
.LBB5050:
.LBB5048:
	fmadds 0,10,0,11
	.loc 3 425 0 discriminator 4
	stfs 12,1604(31)
	.loc 3 426 0 discriminator 4
	stfs 13,1608(31)
	.loc 3 424 0 discriminator 4
	stfs 0,1600(31)
.LVL859:
.L326:
.LBE5048:
.LBE5050:
	.loc 2 1651 0
	addi 30,31,936
.LVL860:
	li 4,0
	mr 3,30
	li 5,-1
	bl _ZN14idPhysics_Base11SetClipMaskEii
.LVL861:
.LBB5051:
.LBB5052:
	.loc 16 262 0
	lis 4,.LC76@ha
	lis 5,.LC77@ha
	la 4,.LC76@l(4)
	la 5,.LC77@l(5)
	addi 6,1,32
	mr 3,29
	bl _ZNK6idDict9GetVectorEPKcS1_R6idVec3
.LVL862:
.LBE5052:
.LBE5051:
.LBB5053:
.LBB5054:
	.loc 3 424 0
	lwz 0,32(1)
.LBE5054:
.LBE5053:
.LBB5058:
.LBB5059:
	.loc 16 262 0
	lis 4,.LC78@ha
	lis 5,.LC79@ha
.LBE5059:
.LBE5058:
.LBB5063:
.LBB5055:
	.loc 3 424 0
	stw 0,1564(31)
.LBE5055:
.LBE5063:
.LBB5064:
.LBB5060:
	.loc 16 262 0
	la 4,.LC78@l(4)
.LBE5060:
.LBE5064:
.LBB5065:
.LBB5056:
	.loc 3 425 0
	lwz 0,36(1)
.LBE5056:
.LBE5065:
.LBB5066:
.LBB5061:
	.loc 16 262 0
	la 5,.LC79@l(5)
	addi 6,1,20
	mr 3,29
.LBE5061:
.LBE5066:
.LBB5067:
.LBB5057:
	.loc 3 425 0
	stw 0,1568(31)
	.loc 3 426 0
	lwz 0,40(1)
	stw 0,1572(31)
.LVL863:
.LBE5057:
.LBE5067:
.LBB5068:
.LBB5062:
	.loc 16 262 0
	bl _ZNK6idDict9GetVectorEPKcS1_R6idVec3
.LVL864:
.LBE5062:
.LBE5068:
.LBB5069:
.LBB5070:
	.loc 3 424 0
	lwz 0,20(1)
.LBE5070:
.LBE5069:
.LBB5073:
.LBB5074:
.LBB5075:
.LBB5076:
	.loc 16 241 0
	lis 4,.LC80@ha
	mr 3,29
.LBE5076:
.LBE5075:
.LBE5074:
.LBE5073:
.LBB5089:
.LBB5071:
	.loc 3 424 0
	stw 0,1576(31)
.LBE5071:
.LBE5089:
.LBB5090:
.LBB5084:
.LBB5081:
.LBB5078:
	.loc 16 241 0
	la 4,.LC80@l(4)
.LBE5078:
.LBE5081:
.LBE5084:
.LBE5090:
.LBB5091:
.LBB5072:
	.loc 3 425 0
	lwz 0,24(1)
	stw 0,1580(31)
	.loc 3 426 0
	lwz 0,28(1)
	stw 0,1584(31)
.LVL865:
.LBE5072:
.LBE5091:
.LBB5092:
.LBB5085:
.LBB5082:
.LBB5079:
	.loc 16 241 0
	bl _ZNK6idDict7FindKeyEPKc
.LVL866:
	.loc 16 242 0
	cmpwi 0,3,0
	beq- 0,.L328
.LVL867:
.LBB5077:
	.loc 2 2410 0
	lwz 9,4(3)
	lwz 3,4(9)
.LVL868:
.L324:
.LBE5077:
.LBE5079:
.LBE5082:
	.loc 16 249 0
	bl atof
.LBE5085:
.LBE5092:
.LBB5093:
.LBB5094:
	.loc 3 632 0
	lfs 0,1568(31)
	lfs 13,1564(31)
.LBE5094:
.LBE5093:
.LBB5112:
.LBB5086:
	.loc 16 249 0
	frsp 1,1
.LBE5086:
.LBE5112:
.LBB5113:
.LBB5109:
	.loc 3 632 0
	fmuls 12,0,0
	lfs 0,1572(31)
.LBB5095:
.LBB5096:
.LBB5097:
.LBB5098:
	.loc 8 276 0
	lis 9,_ZN6idMath5iSqrtE@ha
.LBE5098:
.LBE5097:
.LBE5096:
.LBE5095:
.LBE5109:
.LBE5113:
	.loc 2 1655 0
	li 4,0
.LBB5114:
.LBB5087:
	.loc 16 249 0
	stfs 1,1588(31)
.LVL869:
.LBE5087:
.LBE5114:
.LBB5115:
.LBB5110:
.LBB5107:
.LBB5105:
.LBB5102:
.LBB5099:
	.loc 8 276 0
	la 9,_ZN6idMath5iSqrtE@l(9)
.LBE5099:
.LBE5102:
.LBE5105:
.LBE5107:
	.loc 3 632 0
	fmadds 13,13,13,12
.LBE5110:
.LBE5115:
	.loc 2 1655 0
	mr 3,30
.LBB5116:
.LBB5111:
	.loc 3 632 0
	fmadds 13,0,0,13
	stfs 13,72(1)
.LVL870:
.LBB5108:
.LBB5106:
.LBB5103:
.LBB5100:
	.loc 8 270 0
	lwz 0,72(1)
.LVL871:
	.loc 8 276 0
	rlwinm 11,0,9,24,31
	rlwinm 0,0,19,21,29
	lwzx 9,9,0
	subfic 0,11,380
	rlwinm 0,0,22,0,8
	.loc 8 275 0
	lis 11,.LC6@ha
	.loc 8 276 0
	or 0,0,9
	.loc 8 275 0
	lfs 11,.LC6@l(11)
	.loc 8 277 0
	stw 0,76(1)
	.loc 8 278 0
	lis 9,.LC22@ha
	.loc 8 275 0
	fmuls 11,13,11
.LVL872:
	.loc 8 278 0
	lfs 12,.LC22@l(9)
	.loc 8 277 0
	lfs 0,76(1)
	fmr 13,0
.LVL873:
	.loc 2 1636 0
	fneg 11,11
.LVL874:
	.loc 8 278 0
	fmul 0,13,13
.LVL875:
	fmadd 0,11,0,12
	fmul 0,13,0
.LVL876:
	.loc 8 279 0
	fmul 31,0,0
.LVL877:
	fmadd 31,11,31,12
.LVL878:
	fmul 31,0,31
.LVL879:
.LBE5100:
.LBE5103:
	.loc 8 303 0
	lfs 0,72(1)
.LBB5104:
.LBB5101:
	.loc 8 280 0
	frsp 31,31
.LVL880:
.LBE5101:
.LBE5104:
	.loc 8 303 0
	fmuls 31,0,31
.LBE5106:
.LBE5108:
.LBE5111:
.LBE5116:
	.loc 2 1655 0
	bl _ZNK19idPhysics_RigidBody7GetAxisEi
.LVL881:
.LBB5117:
.LBB5118:
	.loc 3 448 0
	lfs 12,24(3)
.LBE5118:
.LBE5117:
	.loc 2 1655 0
	addi 4,1,8
.LBB5124:
.LBB5121:
	.loc 3 448 0
	lfs 13,28(3)
.LBE5121:
.LBE5124:
	.loc 2 1655 0
	li 5,0
.LBB5125:
.LBB5122:
	.loc 3 448 0
	lfs 0,32(3)
.LBE5122:
.LBE5125:
	.loc 2 1655 0
	mr 3,30
.LVL882:
.LBB5126:
.LBB5123:
	.loc 3 448 0
	fmuls 13,31,13
.LVL883:
	fmuls 0,31,0
.LVL884:
	fmuls 31,12,31
.LBB5119:
.LBB5120:
	.loc 3 397 0
	stfs 13,12(1)
	.loc 3 398 0
	stfs 0,16(1)
	.loc 3 396 0
	stfs 31,8(1)
.LBE5120:
.LBE5119:
.LBE5123:
.LBE5126:
	.loc 2 1655 0
	bl _ZN19idPhysics_RigidBody17SetLinearVelocityERK6idVec3i
.LVL885:
	.loc 2 1656 0
	addis 9,27,0x25
	.loc 2 1658 0
	mr 3,31
	.loc 2 1656 0
	lwz 0,2004(9)
	stw 0,1592(31)
	.loc 2 1657 0
	li 0,0
	stb 0,1596(31)
	.loc 2 1658 0
	bl _ZN8idEntity13UpdateVisualsEv
.LVL886:
.LBB5127:
.LBB5128:
	.loc 4 634 0
	lwz 0,636(31)
	rlwinm 9,0,0,20,31
.LVL887:
	.loc 4 635 0
	srawi 0,0,12
	addi 11,9,4228
	slwi 11,11,2
	add 11,27,11
	lwz 11,4(11)
	cmpw 7,11,0
	beq- 7,.L330
.LVL888:
.L320:
.LBE5128:
.LBE5127:
.LBE5144:
	.loc 2 1665 0
	lwz 0,132(1)
	lwz 27,84(1)
	mtlr 0
	lwz 28,88(1)
.LVL889:
	lwz 29,92(1)
.LVL890:
	lwz 30,96(1)
	lwz 31,100(1)
.LVL891:
	lfd 29,104(1)
.LVL892:
	lfd 30,112(1)
.LVL893:
	lfd 31,120(1)
	addi 1,1,128
	.cfi_remember_state
.LCFI102:
	.cfi_def_cfa_offset 0
	.cfi_restore 63
	.cfi_restore 62
	.cfi_restore 61
	.cfi_restore 31
	.cfi_restore 30
	.cfi_restore 29
	.cfi_restore 28
	.cfi_restore 27
	blr
.LVL894:
.L329:
.LCFI103:
	.cfi_restore_state
.LBB5145:
.LBB5130:
.LBB5030:
	.loc 4 636 0
	addi 9,9,132
.LVL895:
	slwi 9,9,2
.LVL896:
	add 9,27,9
	lwz 3,4(9)
.LBE5030:
.LBE5130:
	.loc 2 1646 0
	cmpwi 7,3,0
	beq- 7,.L322
.LVL897:
.LBB5131:
.LBB5044:
	.loc 6 340 0
	lwz 9,0(3)
.LVL898:
	lwz 0,0(9)
	mtctr 0
	bctrl
.LVL899:
.LBE5044:
	.loc 2 2410 0
	lis 9,_ZN7idActor4TypeE@ha
	la 9,_ZN7idActor4TypeE@l(9)
	lwz 0,56(3)
.LBB5045:
.LBB5042:
.LBB5040:
	.loc 6 311 0
	lwz 11,56(9)
	cmpw 7,0,11
	blt- 7,.L322
	lwz 9,60(9)
	cmpw 7,0,9
	bgt- 7,.L322
.LVL900:
.LBE5040:
.LBE5042:
.LBE5045:
.LBE5131:
.LBB5132:
.LBB5133:
	.loc 3 416 0
	li 0,0
	stw 0,1608(31)
	stw 0,1604(31)
	stw 0,1600(31)
	b .L326
.LVL901:
.L330:
.LBE5133:
.LBE5132:
.LBB5134:
.LBB5129:
	.loc 4 636 0
	addi 9,9,132
.LVL902:
	slwi 9,9,2
.LVL903:
	add 27,27,9
	lwz 30,4(27)
.LBE5129:
.LBE5134:
	.loc 2 1661 0
	cmpwi 7,30,0
	beq- 7,.L320
.LVL904:
.LBB5135:
.LBB5136:
	.loc 6 340 0 discriminator 1
	lwz 9,0(30)
	mr 3,30
	lwz 0,0(9)
	mtctr 0
	bctrl
.LVL905:
.LBE5136:
	.loc 2 2410 0 discriminator 1
	lis 9,_ZN8idPlayer4TypeE@ha
	la 9,_ZN8idPlayer4TypeE@l(9)
	lwz 0,56(3)
.LBB5139:
.LBB5137:
.LBB5138:
	.loc 6 311 0 discriminator 1
	lwz 11,56(9)
	cmpw 7,0,11
	blt- 7,.L320
	.loc 6 311 0 is_stmt 0
	lwz 9,60(9)
	cmpw 7,0,9
	bgt- 7,.L320
.LBE5138:
.LBE5137:
.LBE5139:
.LBE5135:
	.loc 2 1662 0 is_stmt 1 discriminator 4
	mr 3,30
.LVL906:
	mr 4,31
	bl _ZN8idPlayer21SetSoulCubeProjectileEP12idProjectile
.LBE5145:
	.loc 2 1665 0 discriminator 4
	lwz 0,132(1)
	lwz 27,84(1)
	mtlr 0
	lwz 28,88(1)
.LVL907:
	lwz 29,92(1)
.LVL908:
	lwz 30,96(1)
.LVL909:
	lwz 31,100(1)
.LVL910:
	lfd 29,104(1)
.LVL911:
	lfd 30,112(1)
.LVL912:
	lfd 31,120(1)
	addi 1,1,128
	.cfi_remember_state
	.cfi_restore 27
	.cfi_restore 28
	.cfi_restore 29
	.cfi_restore 30
	.cfi_restore 31
	.cfi_restore 61
	.cfi_restore 62
	.cfi_restore 63
.LCFI104:
	.cfi_def_cfa_offset 0
	blr
.LVL913:
.L328:
.LCFI105:
	.cfi_restore_state
.LBB5146:
.LBB5140:
.LBB5088:
.LBB5083:
.LBB5080:
	.loc 16 245 0
	lis 3,.LC71@ha
.LVL914:
	la 3,.LC71@l(3)
	b .L324
.LVL915:
.L327:
.LBE5080:
.LBE5083:
.LBE5088:
.LBE5140:
.LBB5141:
.LBB4982:
.LBB4974:
.LBB4970:
	lis 3,.LC30@ha
.LVL916:
	la 3,.LC30@l(3)
	b .L321
.LBE4970:
.LBE4974:
.LBE4982:
.LBE5141:
.LBE5146:
	.cfi_endproc
.LFE2885:
	.size	_ZN17idSoulCubeMissile6LaunchERK6idVec3S2_S2_fff, .-_ZN17idSoulCubeMissile6LaunchERK6idVec3S2_S2_fff
	.align 2
	.globl _ZN15idBFGProjectile6LaunchERK6idVec3S2_S2_fff
	.type	_ZN15idBFGProjectile6LaunchERK6idVec3S2_S2_fff, @function
_ZN15idBFGProjectile6LaunchERK6idVec3S2_S2_fff:
.LFB2903:
	.loc 2 1877 0
	.cfi_startproc
.LVL917:
	stwu 1,-16784(1)
.LCFI106:
	.cfi_def_cfa_offset 16784
	mflr 0
.LBB5289:
	.loc 2 1878 0
	lis 8,.LC20@ha
.LBE5289:
	.loc 2 1877 0
	mfcr 12
.LBB5663:
	.loc 2 1878 0
	lfs 1,.LC20@l(8)
.LVL918:
.LBE5663:
	.loc 2 1877 0
	stw 31,16772(1)
	mr 31,3
	.cfi_offset 31, -12
	.cfi_register 70, 12
	.cfi_register 65, 0
	stw 12,16700(1)
	stw 0,16788(1)
	stfd 31,16776(1)
	stw 14,16704(1)
	stw 15,16708(1)
	stw 16,16712(1)
	stw 17,16716(1)
	stw 18,16720(1)
	stw 19,16724(1)
	stw 20,16728(1)
	stw 21,16732(1)
	stw 22,16736(1)
	stw 23,16740(1)
	stw 24,16744(1)
	stw 25,16748(1)
	stw 26,16752(1)
	stw 27,16756(1)
	stw 28,16760(1)
	stw 29,16764(1)
	stw 30,16768(1)
.LBB5664:
	.loc 2 1878 0
	.cfi_offset 30, -16
	.cfi_offset 29, -20
	.cfi_offset 28, -24
	.cfi_offset 27, -28
	.cfi_offset 26, -32
	.cfi_offset 25, -36
	.cfi_offset 24, -40
	.cfi_offset 23, -44
	.cfi_offset 22, -48
	.cfi_offset 21, -52
	.cfi_offset 20, -56
	.cfi_offset 19, -60
	.cfi_offset 18, -64
	.cfi_offset 17, -68
	.cfi_offset 16, -72
	.cfi_offset 15, -76
	.cfi_offset 14, -80
	.cfi_offset 63, -8
	.cfi_offset 65, 4
	.cfi_offset 70, -84
	bl _ZN12idProjectile6LaunchERK6idVec3S2_S2_fff
.LVL919:
	.loc 2 1893 0
	addi 9,31,100
	lis 5,.LC82@ha
	lis 4,.LC81@ha
	la 5,.LC82@l(5)
	addi 6,1,8
	la 4,.LC81@l(4)
	mr 3,9
	stw 9,16688(1)
	bl _ZNK6idDict8GetFloatEPKcS1_Rf
	.loc 2 1894 0
	mr 3,31
	bl _ZNK8idEntity10GetPhysicsEv
	li 4,0
	lwz 9,0(3)
	lwz 0,132(9)
	mtctr 0
	bctrl
.LVL920:
	lfs 0,8(1)
.LBB5290:
.LBB5291:
.LBB5292:
	.loc 3 424 0
	lfs 11,0(3)
.LBE5292:
.LBE5291:
.LBE5290:
.LBB5297:
.LBB5298:
.LBB5299:
.LBB5300:
	.loc 16 241 0
	lis 4,.LC83@ha
.LBE5300:
.LBE5299:
.LBE5298:
.LBE5297:
.LBB5316:
.LBB5295:
.LBB5293:
	.loc 3 425 0
	lfs 12,4(3)
.LBE5293:
.LBE5295:
.LBE5316:
.LBB5317:
.LBB5310:
.LBB5306:
.LBB5302:
	.loc 16 241 0
	la 4,.LC83@l(4)
.LBE5302:
.LBE5306:
.LBE5310:
.LBE5317:
.LBB5318:
.LBB5296:
.LBB5294:
	.loc 3 426 0
	lfs 13,8(3)
.LVL921:
.LBE5294:
.LBE5296:
.LBE5318:
.LBB5319:
.LBB5320:
	.loc 13 319 0
	fsubs 8,11,0
	fsubs 9,12,0
.LBE5320:
.LBE5319:
.LBB5324:
.LBB5311:
.LBB5307:
.LBB5303:
	.loc 16 241 0
	lwz 3,16688(1)
.LVL922:
.LBE5303:
.LBE5307:
.LBE5311:
.LBE5324:
.LBB5325:
.LBB5321:
	.loc 13 319 0
	fsubs 10,13,0
	fadds 11,0,11
.LVL923:
.LBE5321:
.LBE5325:
.LBB5326:
.LBB5327:
.LBB5328:
	.loc 3 424 0
	stfs 8,48(1)
.LBE5328:
.LBE5327:
.LBE5326:
.LBB5333:
.LBB5322:
	.loc 13 319 0
	fadds 12,0,12
.LVL924:
.LBE5322:
.LBE5333:
.LBB5334:
.LBB5331:
.LBB5329:
	.loc 3 425 0
	stfs 9,52(1)
.LBE5329:
.LBE5331:
.LBE5334:
.LBB5335:
.LBB5323:
	.loc 13 319 0
	fadds 0,0,13
.LBE5323:
.LBE5335:
.LBB5336:
.LBB5332:
.LBB5330:
	.loc 3 426 0
	stfs 10,56(1)
.LVL925:
	.loc 3 424 0
	stfs 11,60(1)
	.loc 3 425 0
	stfs 12,64(1)
	.loc 3 426 0
	stfs 0,68(1)
.LVL926:
.LBE5330:
.LBE5332:
.LBE5336:
.LBB5337:
.LBB5312:
.LBB5308:
.LBB5304:
	.loc 16 241 0
	bl _ZNK6idDict7FindKeyEPKc
.LVL927:
	.loc 16 242 0
	cmpwi 0,3,0
	beq- 0,.L374
.LVL928:
.LBB5301:
	.loc 2 2410 0
	lwz 9,4(3)
	lwz 3,4(9)
.LVL929:
.LBE5301:
.LBE5304:
.LBE5308:
	.loc 16 249 0
	bl atof
.LVL930:
.LBE5312:
.LBE5337:
.LBB5338:
.LBB5339:
	.loc 16 241 0
	lwz 3,16688(1)
	lis 4,.LC84@ha
.LBE5339:
.LBE5338:
.LBB5348:
.LBB5313:
	.loc 16 249 0
	frsp 31,1
.LVL931:
.LBE5313:
.LBE5348:
.LBB5349:
.LBB5342:
	.loc 16 241 0
	la 4,.LC84@l(4)
	bl _ZNK6idDict7FindKeyEPKc
.LVL932:
	.loc 16 242 0
	cmpwi 0,3,0
	beq- 0,.L375
.L400:
.LVL933:
.LBB5340:
	.loc 2 2410 0
	lwz 9,4(3)
.LBE5340:
.LBE5342:
.LBE5349:
	.loc 2 1899 0
	addi 30,31,1512
	li 4,0
	li 5,216
	mr 3,30
.LVL934:
.LBB5350:
.LBB5343:
.LBB5341:
	.loc 2 2410 0
	lwz 17,4(9)
.LBE5341:
.LBE5343:
.LBE5350:
	.loc 2 1899 0
	bl memset
.LVL935:
	.loc 2 1900 0
	li 0,-1
	stw 0,1728(31)
.LVL936:
.LBB5351:
.LBB5352:
	.loc 16 241 0
	lis 4,.LC29@ha
	lwz 3,16688(1)
	la 4,.LC29@l(4)
	bl _ZNK6idDict7FindKeyEPKc
.LVL937:
	.loc 16 242 0
	cmpwi 0,3,0
	beq- 0,.L376
.L401:
.LVL938:
.LBB5353:
	.loc 2 2410 0
	lwz 9,4(3)
	lwz 4,4(9)
.LBE5353:
.LBE5352:
.LBE5351:
	.loc 2 1902 0
	cmpwi 7,4,0
	beq- 7,.L335
.LVL939:
.L334:
	.loc 2 1902 0 is_stmt 0 discriminator 1
	lbz 0,0(4)
	cmpwi 7,0,0
	bne- 7,.L393
.LVL940:
.L335:
	.loc 2 1920 0 is_stmt 1
	lis 3,gameLocal+2311032@ha
	addi 4,1,48
	la 3,gameLocal+2311032@l(3)
	li 5,256
	addi 6,1,296
	li 7,4096
	bl _ZNK6idClip22EntitiesTouchingBoundsERK8idBoundsiPP8idEntityi
.LVL941:
.LBB5355:
	.loc 2 1921 0
	mr. 25,3
	ble- 0,.L337
	lis 30,gameLocal@ha
	addi 26,1,292
	li 27,0
	la 30,gameLocal@l(30)
	b .L369
.LVL942:
.L339:
.LBB5356:
	.loc 2 1925 0
	cmpw 7,29,9
	beq- 7,.L341
	.loc 2 1925 0 is_stmt 0 discriminator 3
	mr 3,29
	bl _ZNK8idEntity8IsHiddenEv
	cmpwi 7,3,0
	beq- 7,.L394
.LVL943:
.L341:
.LBE5356:
	.loc 2 1921 0 is_stmt 1
	addi 27,27,1
.LVL944:
	cmpw 7,27,25
	beq- 7,.L370
.LVL945:
.L369:
.LBB5607:
	.loc 2 1922 0
	lwzu 29,4(26)
.LVL946:
	.loc 2 1925 0
	cmpw 7,31,29
	beq- 7,.L341
.LVL947:
.LBB5357:
.LBB5358:
	.loc 4 634 0 discriminator 2
	lwz 0,636(31)
	.loc 4 638 0 discriminator 2
	li 9,0
	.loc 4 634 0 discriminator 2
	rlwinm 11,0,0,20,31
.LVL948:
	.loc 4 635 0 discriminator 2
	srawi 0,0,12
	addi 10,11,4228
	slwi 10,10,2
	add 10,30,10
	lwz 10,4(10)
	cmpw 7,10,0
	bne+ 7,.L339
	.loc 4 636 0
	addi 11,11,132
.LVL949:
	slwi 11,11,2
.LVL950:
	add 11,30,11
	lwz 9,4(11)
	b .L339
.LVL951:
.L394:
.LBE5358:
.LBE5357:
	.loc 2 1925 0 discriminator 4
	mr 3,29
	bl _ZNK8idEntity8IsActiveEv
	cmpwi 7,3,0
	beq- 7,.L341
	.loc 2 1925 0 is_stmt 0 discriminator 5
	lwz 0,192(29)
	andis. 8,0,8192
	beq- 0,.L341
	.loc 2 1925 0 discriminator 6
	lwz 0,188(29)
	cmpwi 7,0,0
	ble- 7,.L341
.LVL952:
.LBB5359:
.LBB5360:
	.loc 6 340 0 is_stmt 1 discriminator 7
	lwz 9,0(29)
	mr 3,29
	lwz 0,0(9)
	mtctr 0
	bctrl
.LVL953:
.LBE5360:
	.loc 2 2410 0 discriminator 7
	lis 8,_ZN7idActor4TypeE@ha
	la 9,_ZN7idActor4TypeE@l(8)
	lwz 0,56(3)
.LBB5363:
.LBB5361:
.LBB5362:
	.loc 6 311 0 discriminator 7
	lwz 11,56(9)
	cmpw 7,0,11
	blt- 7,.L341
	.loc 6 311 0 is_stmt 0
	lwz 9,60(9)
	cmpw 7,0,9
	bgt- 7,.L341
.LBE5362:
.LBE5361:
.LBE5363:
.LBE5359:
	.loc 2 1929 0 is_stmt 1
	lwz 9,0(29)
	mr 3,31
.LVL954:
	lwz 28,160(9)
	bl _ZNK8idEntity10GetPhysicsEv
	lwz 9,0(3)
	li 4,0
	lwz 0,132(9)
	mtctr 0
	bctrl
	addi 5,1,12
	mr 4,3
	mtctr 28
	mr 3,29
	bctrl
	cmpwi 7,3,0
	beq+ 7,.L341
.LVL955:
.LBB5364:
.LBB5365:
	.loc 6 340 0
	lwz 9,0(29)
	mr 3,29
	lwz 0,0(9)
	mtctr 0
	bctrl
.LVL956:
.LBE5365:
	.loc 2 2410 0
	lis 8,_ZN8idPlayer4TypeE@ha
	la 9,_ZN8idPlayer4TypeE@l(8)
	lwz 0,56(3)
.LBB5368:
.LBB5366:
.LBB5367:
	.loc 6 311 0
	lwz 11,56(9)
	cmpw 7,0,11
	blt- 7,.L342
	lwz 9,60(9)
	cmpw 7,0,9
	bgt- 7,.L342
.LVL957:
.LBE5367:
.LBE5366:
.LBE5368:
.LBE5364:
.LBB5369:
.LBB5370:
.LBB5371:
	.loc 14 84 0
	li 0,1
	stb 0,4384(29)
.LVL958:
.L342:
.LBE5371:
.LBE5370:
.LBE5369:
	.loc 2 1939 0
	li 5,216
.LBB5372:
.LBB5373:
.LBB5374:
	.loc 4 590 0
	li 0,0
.LBE5374:
.LBE5373:
.LBE5372:
	.loc 2 1939 0
	li 4,0
	addi 3,1,76
.LVL959:
.LBB5377:
.LBB5376:
.LBB5375:
	.loc 4 590 0
	stw 0,72(1)
.LBE5375:
.LBE5376:
.LBE5377:
	.loc 2 1939 0
	bl memset
	.loc 2 1940 0
	mr 3,31
	.loc 2 1877 0
	addi 21,1,184
	.loc 2 1940 0
	bl _ZNK8idEntity10GetPhysicsEv
	li 4,0
	lwz 9,0(3)
	lwz 0,132(9)
	mtctr 0
	bctrl
.LBB5378:
.LBB5379:
	.loc 3 424 0
	lwz 0,0(3)
.LBE5379:
.LBE5378:
	.loc 2 1940 0
	mr 9,3
.LVL960:
	.loc 2 1941 0
	mr 3,31
.LVL961:
.LBB5381:
.LBB5380:
	.loc 3 424 0
	stw 0,136(1)
	.loc 3 425 0
	lwz 0,4(9)
	stw 0,140(1)
	.loc 3 426 0
	lwz 0,8(9)
	stw 0,144(1)
.LBE5380:
.LBE5381:
	.loc 2 1941 0
	bl _ZNK8idEntity10GetPhysicsEv
.LVL962:
	lwz 9,0(3)
	li 4,0
	lwz 0,136(9)
	mtctr 0
	bctrl
.LVL963:
	addi 9,1,148
.L343:
.LBB5382:
.LBB5383:
.LBB5384:
.LBB5385:
	.loc 3 424 0
	lwz 0,0(3)
	stw 0,0(9)
	.loc 3 425 0
	lwz 0,4(3)
	stw 0,4(9)
	.loc 3 426 0
	lwz 0,8(3)
	addi 3,3,12
	stw 0,8(9)
	addi 9,9,12
.LBE5385:
.LBE5384:
	.loc 12 333 0
	cmpw 7,9,21
	bne+ 7,.L343
.LBE5383:
.LBE5382:
.LBB5386:
.LBB5387:
.LBB5388:
.LBB5389:
.LBB5390:
.LBB5391:
	.loc 7 71 0
	addis 11,30,0x1
	lis 10,0x1
	lwz 0,-32064(11)
	ori 10,10,3533
.LBE5391:
.LBE5390:
	.loc 7 83 0
	lis 8,.LC4@ha
.LBE5389:
.LBE5388:
	.loc 7 87 0
	lis 9,.LC5@ha
.LBB5410:
.LBB5400:
.LBB5396:
.LBB5392:
	.loc 7 71 0
	mullw 10,10,0
.LBE5392:
.LBE5396:
	.loc 7 83 0
	lis 0,0x4330
	stw 0,16680(1)
.LBE5400:
.LBE5410:
.LBE5387:
.LBE5386:
	.loc 2 1956 0
	addi 16,31,1496
.LBB5430:
.LBB5420:
.LBB5411:
.LBB5401:
	.loc 7 83 0
	lfs 0,.LC4@l(8)
.LBE5401:
.LBE5411:
	.loc 7 87 0
	lis 8,.LC6@ha
	lfs 11,.LC5@l(9)
.LBE5420:
.LBE5430:
	.loc 2 1947 0
	lis 9,.LC85@ha
.LBB5431:
.LBB5421:
.LBB5412:
.LBB5402:
.LBB5397:
.LBB5393:
	.loc 7 71 0
	addi 10,10,1
.LBE5393:
.LBE5397:
.LBE5402:
.LBE5412:
	.loc 7 87 0
	lfs 12,.LC6@l(8)
.LBB5413:
.LBB5403:
.LBB5398:
.LBB5394:
	.loc 7 72 0
	rlwinm 0,10,0,17,31
.LBE5394:
.LBE5398:
.LBE5403:
.LBE5413:
.LBE5421:
.LBE5431:
	.loc 2 1943 0
	lis 8,.LC2@ha
.LBB5432:
.LBB5422:
.LBB5414:
.LBB5404:
	.loc 7 83 0
	xoris 0,0,0x8000
.LBE5404:
.LBE5414:
.LBE5422:
.LBE5432:
	.loc 2 1942 0
	stfs 31,244(1)
.LBB5433:
.LBB5423:
.LBB5415:
.LBB5405:
	.loc 7 83 0
	stw 0,16684(1)
.LBE5405:
.LBE5415:
.LBE5423:
.LBE5433:
	.loc 2 1943 0
	lwz 0,.LC2@l(8)
	.loc 2 1948 0
	lis 8,renderModelManager@ha
.LBB5434:
.LBB5424:
.LBB5416:
.LBB5406:
	.loc 7 83 0
	lfd 13,16680(1)
.LBE5406:
.LBE5416:
.LBE5424:
.LBE5434:
	.loc 2 1943 0
	stw 0,200(1)
.LBB5435:
.LBB5425:
.LBB5417:
.LBB5407:
	.loc 7 83 0
	fsub 0,13,0
.LBE5407:
.LBE5417:
.LBE5425:
.LBE5435:
	.loc 2 1947 0
	lfs 13,.LC85@l(9)
.LBB5436:
.LBB5426:
.LBB5418:
.LBB5408:
.LBB5399:
.LBB5395:
	.loc 7 71 0
	stw 10,-32064(11)
.LBE5395:
.LBE5399:
.LBE5408:
.LBE5418:
.LBE5426:
.LBE5436:
	.loc 2 1948 0
	lis 11,.LC89@ha
	lwz 9,renderModelManager@l(8)
.LBB5437:
.LBB5427:
.LBB5419:
.LBB5409:
	.loc 7 83 0
	frsp 0,0
.LBE5409:
.LBE5419:
.LBE5427:
.LBE5437:
	.loc 2 1944 0
	stw 0,204(1)
	.loc 2 1945 0
	stw 0,208(1)
	.loc 2 1948 0
	mr 3,9
	.loc 2 1946 0
	stw 0,212(1)
.LVL964:
.LBB5438:
.LBB5428:
	.loc 7 87 0
	fmsubs 0,0,11,12
.LBE5428:
.LBE5438:
	.loc 2 1948 0
	lwz 4,.LC89@l(11)
.LBB5439:
.LBB5429:
	.loc 7 87 0
	fadds 0,0,0
.LBE5429:
.LBE5439:
	.loc 2 1947 0
	fmuls 0,0,13
	stfs 0,220(1)
	.loc 2 1948 0
	lwz 9,0(9)
	lwz 0,32(9)
	mtctr 0
	bctrl
.LBB5440:
.LBB5441:
	.loc 13 202 0
	lis 8,_ZN6idMath8INFINITYE@ha
	lfs 0,_ZN6idMath8INFINITYE@l(8)
.LBE5441:
.LBE5440:
	.loc 2 1949 0
	li 0,0
	.loc 2 1953 0
	lis 11,declManager@ha
	.loc 2 1948 0
	stw 3,76(1)
.LBB5444:
.LBB5442:
	.loc 13 203 0
	fneg 13,0
.LBE5442:
.LBE5444:
	.loc 2 1953 0
	lwz 9,declManager@l(11)
	.loc 2 1950 0
	stw 0,264(1)
	.loc 2 1953 0
	mr 4,17
	.loc 2 1951 0
	stw 0,268(1)
.LVL965:
	.loc 2 1953 0
	li 5,1
	.loc 2 1949 0
	stw 0,112(1)
	.loc 2 1953 0
	mr 3,9
.LBB5445:
.LBB5443:
	.loc 13 202 0
	stfs 0,96(1)
	stfs 0,92(1)
	stfs 0,88(1)
.LVL966:
	.loc 13 203 0
	stfs 13,108(1)
	stfs 13,104(1)
	stfs 13,100(1)
.LBE5443:
.LBE5445:
	.loc 2 1953 0
	lwz 11,0(9)
	lwz 0,108(11)
	mtctr 0
	bctrl
	.loc 2 1955 0
	lis 8,gameRenderWorld@ha
	.loc 2 1953 0
	stw 3,192(1)
.LVL967:
	.loc 2 1955 0
	addi 4,1,76
	lwz 9,gameRenderWorld@l(8)
.LBB5446:
.LBB5447:
	.loc 4 608 0
	lwz 11,4(29)
.LBE5447:
.LBE5446:
	.loc 2 1955 0
	mr 3,9
.LBB5449:
.LBB5448:
	.loc 4 608 0
	addi 10,11,4228
	slwi 10,10,2
	add 10,30,10
	lwz 0,4(10)
	slwi 0,0,12
	or 11,0,11
	stw 11,72(1)
.LBE5448:
.LBE5449:
	.loc 2 1955 0
	lwz 9,0(9)
	lwz 0,16(9)
	mtctr 0
	bctrl
.LVL968:
.LBB5450:
.LBB5451:
	.loc 5 655 0
	lwz 22,1508(31)
.LBE5451:
.LBE5450:
	.loc 2 1955 0
	stw 3,292(1)
.LBB5601:
.LBB5595:
	.loc 5 655 0
	cmpwi 7,22,0
	beq- 7,.L344
	lwz 29,1496(31)
.LVL969:
	lwz 0,1500(31)
.L345:
.LBB5452:
	.loc 5 659 0
	cmpw 7,0,29
	beq- 7,.L378
	mulli 29,29,224
	add 29,22,29
.L356:
.LVL970:
.LBE5452:
.LBB5509:
.LBB5510:
	.file 18 "d:/Data/Nintendo/DoomGX/src/game/Projectile.h"
	.loc 18 194 0
	lwz 0,72(1)
.LBB5511:
.LBB5512:
.LBB5513:
.LBB5514:
	.loc 3 426 0
	addi 9,1,148
.LBE5514:
.LBE5513:
.LBB5516:
.LBB5517:
	.loc 12 333 0
	addi 11,29,76
.LBE5517:
.LBE5516:
.LBE5512:
.LBE5511:
	.loc 18 194 0
	stw 0,0(29)
.LVL971:
.LBB5531:
.LBB5528:
	.file 19 "d:/Data/Nintendo/DoomGX/src/game/../idlib/../renderer/RenderWorld.h"
	.loc 19 80 0
	lwz 0,76(1)
	stw 0,4(29)
	lwz 0,80(1)
	stw 0,8(29)
	lwz 0,84(1)
	stw 0,12(29)
.LVL972:
.LBB5523:
.LBB5524:
.LBB5525:
	.loc 3 424 0
	lwz 0,88(1)
	stw 0,16(29)
	.loc 3 425 0
	lwz 0,92(1)
	stw 0,20(29)
	.loc 3 426 0
	lwz 0,96(1)
	stw 0,24(29)
.LVL973:
	.loc 3 424 0
	lwz 0,100(1)
	stw 0,28(29)
	.loc 3 425 0
	lwz 0,104(1)
	stw 0,32(29)
	.loc 3 426 0
	lwz 0,108(1)
	stw 0,36(29)
.LBE5525:
.LBE5524:
.LBE5523:
	.loc 19 80 0
	lwz 0,112(1)
	stw 0,40(29)
	lwz 0,116(1)
	stw 0,44(29)
	lwz 0,120(1)
	stw 0,48(29)
	lwz 0,124(1)
	stw 0,52(29)
	lwz 0,128(1)
	stw 0,56(29)
	lwz 0,132(1)
	stw 0,60(29)
.LVL974:
.LBB5526:
.LBB5515:
	.loc 3 424 0
	lwz 0,136(1)
	stw 0,64(29)
	.loc 3 425 0
	lwz 0,140(1)
	stw 0,68(29)
	.loc 3 426 0
	lwz 0,144(1)
	stw 0,72(29)
.LVL975:
.L368:
.LBE5515:
.LBE5526:
.LBB5527:
.LBB5522:
.LBB5518:
.LBB5519:
	.loc 3 424 0
	lwz 0,0(9)
	stw 0,0(11)
	.loc 3 425 0
	lwz 0,4(9)
	stw 0,4(11)
	.loc 3 426 0
	lwz 0,8(9)
	addi 9,9,12
.LBE5519:
.LBE5518:
	.loc 12 333 0
	cmpw 7,9,21
.LBB5521:
.LBB5520:
	.loc 3 426 0
	stw 0,8(11)
	addi 11,11,12
.LBE5520:
.LBE5521:
	.loc 12 333 0
	bne+ 7,.L368
.LBE5522:
.LBE5527:
	.loc 19 80 0
	lwz 0,184(1)
	addi 3,29,128
	addi 4,1,200
	li 5,48
	stw 0,112(29)
.LBE5528:
.LBE5531:
.LBE5510:
.LBE5509:
.LBE5595:
.LBE5601:
.LBE5607:
	.loc 2 1921 0
	addi 27,27,1
.LBB5608:
.LBB5602:
.LBB5596:
.LBB5536:
.LBB5534:
.LBB5532:
.LBB5529:
	.loc 19 80 0
	lwz 0,188(1)
	stw 0,116(29)
	lwz 0,192(1)
	stw 0,120(29)
	lwz 0,196(1)
	stw 0,124(29)
	bl memcpy
.LVL976:
	lwz 0,256(1)
	lwz 9,248(1)
.LBE5529:
.LBE5532:
.LBE5534:
.LBE5536:
.LBE5596:
.LBE5602:
.LBE5608:
	.loc 2 1921 0
	cmpw 7,27,25
.LBB5609:
.LBB5603:
.LBB5597:
.LBB5537:
.LBB5535:
.LBB5533:
.LBB5530:
	.loc 19 80 0
	lwz 11,252(1)
	stw 9,176(29)
	stw 11,180(29)
	stw 0,184(29)
	lwz 0,260(1)
	stw 0,188(29)
	lwz 0,264(1)
	stw 0,192(29)
	lwz 0,268(1)
	stw 0,196(29)
	lwz 0,272(1)
	stw 0,200(29)
	lbz 0,276(1)
	stb 0,204(29)
	lbz 0,277(1)
	stb 0,205(29)
	lbz 0,278(1)
	stb 0,206(29)
	lbz 0,279(1)
	stb 0,207(29)
	lwz 0,280(1)
	stw 0,208(29)
	lwz 0,284(1)
	stw 0,212(29)
	lwz 0,288(1)
	stw 0,216(29)
.LBE5530:
.LBE5533:
	.loc 18 194 0
	lwz 0,292(1)
	stw 0,220(29)
.LBE5535:
.LBE5537:
	.loc 5 670 0
	lwz 9,1496(31)
	addi 0,9,1
	stw 0,1496(31)
.LBE5597:
.LBE5603:
.LBE5609:
	.loc 2 1921 0
	bne+ 7,.L369
.LVL977:
.L370:
.LBE5355:
	.loc 2 1959 0
	lis 4,.LC87@ha
	mr 3,31
	la 4,.LC87@l(4)
	li 5,4
	li 6,0
	li 7,0
	li 8,0
	bl _ZN8idEntity10StartSoundEPKciibPi
.L371:
.LBB5613:
.LBB5614:
	.loc 16 241 0
	lwz 3,16688(1)
	lis 4,.LC88@ha
	la 4,.LC88@l(4)
	bl _ZNK6idDict7FindKeyEPKc
	.loc 16 242 0
	mr. 9,3
.LBE5614:
.LBE5613:
	.loc 2 1961 0
	addi 3,31,1736
.LVL978:
.LBB5618:
.LBB5616:
	.loc 16 242 0
	beq- 0,.L379
.LVL979:
.LBB5615:
	.loc 2 2410 0
	lwz 9,4(9)
.LVL980:
	lwz 4,4(9)
.LVL981:
.L372:
.LBE5615:
.LBE5616:
.LBE5618:
	.loc 2 1962 0
	addis 30,30,0x25
	.loc 2 1961 0
	bl _ZN5idStraSEPKc
	.loc 2 1962 0
	lwz 9,2004(30)
	.loc 2 1963 0
	mr 3,31
	.loc 2 1962 0
	addi 0,9,333
	stw 0,1732(31)
	.loc 2 1963 0
	bl _ZN8idEntity13UpdateVisualsEv
.LBE5664:
	.loc 2 1964 0
	lwz 0,16788(1)
	lwz 12,16700(1)
	mtlr 0
	lwz 14,16704(1)
	lwz 15,16708(1)
	mtcrf 8,12
	lwz 16,16712(1)
	lwz 17,16716(1)
	lwz 18,16720(1)
	lwz 19,16724(1)
	lwz 20,16728(1)
	lwz 21,16732(1)
	lwz 22,16736(1)
	lwz 23,16740(1)
	lwz 24,16744(1)
	lwz 25,16748(1)
.LVL982:
	lwz 26,16752(1)
	lwz 27,16756(1)
	lwz 28,16760(1)
	lwz 29,16764(1)
	lwz 30,16768(1)
	lwz 31,16772(1)
.LVL983:
	lfd 31,16776(1)
	addi 1,1,16784
	.cfi_remember_state
.LCFI107:
	.cfi_def_cfa_offset 0
	.cfi_restore 70
	.cfi_restore 63
	.cfi_restore 31
	.cfi_restore 30
	.cfi_restore 29
	.cfi_restore 28
	.cfi_restore 27
	.cfi_restore 26
	.cfi_restore 25
	.cfi_restore 24
	.cfi_restore 23
	.cfi_restore 22
	.cfi_restore 21
	.cfi_restore 20
	.cfi_restore 19
	.cfi_restore 18
	.cfi_restore 17
	.cfi_restore 16
	.cfi_restore 15
	.cfi_restore 14
	blr
.LVL984:
.L378:
.LCFI108:
	.cfi_restore_state
	lwz 28,1504(31)
.LBB5665:
.LBB5619:
.LBB5610:
.LBB5604:
.LBB5598:
.LBB5538:
	.loc 5 659 0
	mr 11,0
.L347:
.LBB5453:
	.loc 5 662 0
	cmpwi 7,28,0
	bne- 7,.L357
	.loc 5 663 0
	li 9,16
	li 28,16
	stw 9,1504(31)
.L357:
	.loc 5 665 0
	add 9,11,28
.LVL985:
	.loc 5 666 0
	divw 9,9,28
.LVL986:
.LBB5454:
.LBB5455:
	.loc 5 375 0
	mullw 28,9,28
.LVL987:
	cmpwi 4,28,0
	ble- 4,.L395
	.loc 5 380 0
	cmpw 7,11,28
	beq- 7,.L396
.LVL988:
	.loc 5 387 0
	cmpw 7,0,28
	.loc 5 386 0
	stw 28,1500(31)
	.loc 5 387 0
	ble- 7,.L361
	.loc 5 388 0
	stw 28,1496(31)
.L361:
	.loc 5 392 0
	mulli 3,28,224
	bl _Znaj
	beq- 4,.L362
.LBB5456:
.LBB5457:
.LBB5458:
	.loc 4 590 0
	mtctr 28
.LBE5458:
.LBE5457:
.LBE5456:
	.loc 5 392 0
	mr 9,3
.LBB5461:
.LBB5460:
.LBB5459:
	.loc 4 590 0
	li 0,0
.L363:
.LVL989:
	stw 0,0(9)
	addi 9,9,224
.LBE5459:
.LBE5460:
.LBE5461:
	.loc 5 392 0
	bdnz .L363
.LVL990:
.L362:
	.loc 5 393 0
	lwz 0,1496(31)
	.loc 5 392 0
	stw 3,1508(31)
.LVL991:
	.loc 5 393 0
	cmpwi 7,0,0
	ble- 7,.L364
	addi 15,22,64
	.loc 2 1877 0
	addi 18,22,4
	addi 0,22,16
	stw 30,16692(1)
	mr 19,18
	mr 30,31
	mr 24,22
	mr 31,15
	li 23,0
	.loc 5 393 0
	li 20,0
	addi 14,22,28
	mr 29,3
	mr 15,0
.LVL992:
.L366:
.LBB5462:
.LBB5463:
	.loc 18 194 0
	lwz 0,0(24)
	.loc 2 1877 0
	subf 9,22,19
	add 28,9,18
.LBB5464:
.LBB5465:
.LBB5466:
.LBB5467:
.LBB5468:
	.loc 3 424 0
	mr 6,15
.LBE5468:
.LBE5467:
.LBE5466:
.LBE5465:
.LBE5464:
	.loc 18 194 0
	stwx 0,29,23
.LBE5463:
.LBE5462:
	.loc 5 394 0
	add 29,29,23
.LVL993:
.LBB5498:
.LBB5495:
.LBB5493:
.LBB5491:
.LBB5473:
.LBB5471:
.LBB5469:
	.loc 3 424 0
	mr 11,14
.LBE5469:
.LBE5471:
.LBE5473:
.LBB5474:
.LBB5475:
	.loc 12 333 0
	addi 7,29,76
.LBE5475:
.LBE5474:
	.loc 19 80 0
	lwz 0,-4(28)
.LBB5484:
.LBB5482:
	.loc 12 333 0
	addi 8,24,76
	li 10,0
.LBE5482:
.LBE5484:
	.loc 19 80 0
	stw 0,4(29)
	lwzx 0,9,18
.LBB5485:
.LBB5486:
	.loc 3 424 0
	mr 9,31
.LBE5486:
.LBE5485:
	.loc 19 80 0
	stw 0,8(29)
	lwz 0,4(28)
	stw 0,12(29)
.LVL994:
.LBB5488:
.LBB5472:
.LBB5470:
	.loc 3 424 0
	lwzux 0,6,23
	stw 0,16(29)
	.loc 3 425 0
	lwz 0,4(6)
	stw 0,20(29)
	.loc 3 426 0
	lwz 0,8(6)
	stw 0,24(29)
.LVL995:
	.loc 3 424 0
	lwzux 0,11,23
	stw 0,28(29)
	.loc 3 425 0
	lwz 0,4(11)
	stw 0,32(29)
	.loc 3 426 0
	lwz 0,8(11)
	stw 0,36(29)
.LBE5470:
.LBE5472:
.LBE5488:
	.loc 19 80 0
	lwz 0,32(28)
	stw 0,40(29)
	lwz 0,36(28)
	stw 0,44(29)
	lwz 0,40(28)
	stw 0,48(29)
	lwz 0,44(28)
	stw 0,52(29)
	lwz 0,48(28)
	stw 0,56(29)
	lwz 0,52(28)
	stw 0,60(29)
.LVL996:
.LBB5489:
.LBB5487:
	.loc 3 424 0
	lwzux 0,9,23
	stw 0,64(29)
	.loc 3 425 0
	lwz 0,4(9)
	stw 0,68(29)
	.loc 3 426 0
	lwz 0,8(9)
	stw 0,72(29)
.LVL997:
.L365:
.LBE5487:
.LBE5489:
.LBB5490:
.LBB5483:
.LBB5476:
.LBB5477:
	.loc 3 424 0
	mr 11,8
	mr 9,7
	lwzux 0,11,10
.LBE5477:
.LBE5476:
	.loc 12 333 0
	cmpwi 7,10,24
.LBB5480:
.LBB5478:
	.loc 3 424 0
	stwux 0,9,10
.LBE5478:
.LBE5480:
	.loc 12 333 0
	addi 10,10,12
.LBB5481:
.LBB5479:
	.loc 3 425 0
	lwz 0,4(11)
	stw 0,4(9)
	.loc 3 426 0
	lwz 0,8(11)
	stw 0,8(9)
.LBE5479:
.LBE5481:
	.loc 12 333 0
	bne+ 7,.L365
.LBE5483:
.LBE5490:
	.loc 19 80 0
	lwz 0,104(28)
	addi 3,29,128
	addi 4,28,120
	li 5,48
	stw 0,112(29)
.LBE5491:
.LBE5493:
.LBE5495:
.LBE5498:
	.loc 5 393 0
	addi 20,20,1
	addi 23,23,224
	addi 19,19,224
.LBB5499:
.LBB5496:
.LBB5494:
.LBB5492:
	.loc 19 80 0
	lwz 0,108(28)
	stw 0,116(29)
	lwz 0,112(28)
	stw 0,120(29)
	lwz 0,116(28)
	stw 0,124(29)
	bl memcpy
.LVL998:
	lwz 0,176(28)
	lwz 11,168(28)
	lwz 9,172(28)
	stw 11,176(29)
	stw 9,180(29)
	stw 0,184(29)
	lwz 0,180(28)
	stw 0,188(29)
	lwz 0,184(28)
	stw 0,192(29)
	lwz 0,188(28)
	stw 0,196(29)
	lwz 0,192(28)
	stw 0,200(29)
	lbz 0,196(28)
	stb 0,204(29)
	lbz 0,197(28)
	stb 0,205(29)
	lbz 0,198(28)
	stb 0,206(29)
	lbz 0,199(28)
	stb 0,207(29)
	lwz 0,200(28)
	stw 0,208(29)
	lwz 0,204(28)
	stw 0,212(29)
	lwz 0,208(28)
	stw 0,216(29)
.LBE5492:
.LBE5494:
	.loc 18 194 0
	lwz 0,220(24)
.LBE5496:
.LBE5499:
	.loc 5 393 0
	addi 24,24,224
.LVL999:
.LBB5500:
.LBB5497:
	.loc 18 194 0
	stw 0,220(29)
.LBE5497:
.LBE5500:
	.loc 5 393 0
	lwz 0,0(16)
	cmpw 7,20,0
	bge- 7,.L391
	lwz 29,1508(30)
.LVL1000:
	b .L366
.LVL1001:
.L391:
	mr 31,30
	lwz 30,16692(1)
.LVL1002:
.L364:
	.loc 5 398 0
	cmpwi 7,22,0
	beq- 7,.L392
	.loc 5 399 0
	mr 3,22
	bl _ZdaPv
.L392:
	lwz 0,1496(31)
	lwz 29,1508(31)
	mulli 0,0,224
	add 29,29,0
	b .L356
.LVL1003:
.L344:
.LBE5455:
.LBE5454:
.LBE5453:
.LBE5538:
	.loc 5 656 0
	lwz 0,1504(31)
.LBB5539:
.LBB5540:
	.loc 5 375 0
	cmpwi 4,0,0
.LBE5540:
.LBE5539:
	.loc 5 656 0
	mr 28,0
.LVL1004:
.LBB5589:
.LBB5585:
	.loc 5 375 0
	ble- 4,.L397
	.loc 5 380 0
	lwz 9,1500(31)
	cmpw 7,0,9
	beq- 7,.L398
.LVL1005:
	.loc 5 387 0
	lwz 0,1496(31)
	.loc 5 386 0
	stw 28,1500(31)
	.loc 5 387 0
	cmpw 7,28,0
	bge- 7,.L349
	.loc 5 388 0
	stw 28,1496(31)
.L349:
	.loc 5 392 0
	mulli 3,28,224
	bl _Znaj
.LVL1006:
	mr 22,3
	beq- 4,.L350
.LBB5541:
.LBB5542:
.LBB5543:
	.loc 4 590 0
	mtctr 28
.LBE5543:
.LBE5542:
.LBE5541:
	.loc 5 392 0
	mr 9,3
.LBB5546:
.LBB5545:
.LBB5544:
	.loc 4 590 0
	li 0,0
.L351:
.LVL1007:
	stw 0,0(9)
	addi 9,9,224
.LBE5544:
.LBE5545:
.LBE5546:
	.loc 5 392 0
	bdnz .L351
.LVL1008:
.L350:
	.loc 5 393 0
	lwz 29,1496(31)
.LVL1009:
	.loc 5 392 0
	stw 22,1508(31)
.LVL1010:
	.loc 5 393 0
	cmpwi 7,29,0
	ble- 7,.L399
	.loc 2 1877 0
	li 23,4
	li 24,0
	.loc 5 393 0
	li 20,0
	mr 29,22
.LVL1011:
.L355:
.LBB5547:
.LBB5548:
	.loc 18 194 0
	lwz 0,0(24)
	.loc 2 1877 0
	addi 28,23,4
.LBB5549:
.LBB5550:
.LBB5551:
.LBB5552:
.LBB5553:
	.loc 3 424 0
	mr 8,24
	mr 11,24
.LBE5553:
.LBE5552:
.LBE5551:
.LBE5550:
.LBE5549:
	.loc 18 194 0
	stwx 0,29,24
.LBE5548:
.LBE5547:
	.loc 5 394 0
	add 29,29,24
.LVL1012:
.LBB5580:
.LBB5577:
.LBB5575:
.LBB5573:
.LBB5556:
.LBB5557:
	.loc 3 424 0
	mr 9,24
.LBE5557:
.LBE5556:
.LBB5559:
.LBB5560:
	.loc 12 333 0
	addi 6,29,76
.LBE5560:
.LBE5559:
	.loc 19 80 0
	lwz 0,-4(28)
.LBB5569:
.LBB5567:
	.loc 12 333 0
	addi 7,24,76
	li 10,0
.LBE5567:
.LBE5569:
	.loc 19 80 0
	stw 0,4(29)
	lwz 0,4(23)
	stw 0,8(29)
	lwz 0,4(28)
	stw 0,12(29)
.LVL1013:
.LBB5570:
.LBB5555:
.LBB5554:
	.loc 3 424 0
	lwzu 0,16(8)
	stw 0,16(29)
	.loc 3 425 0
	lwz 0,4(8)
	stw 0,20(29)
	.loc 3 426 0
	lwz 0,8(8)
	stw 0,24(29)
.LVL1014:
	.loc 3 424 0
	lwzu 0,28(11)
	stw 0,28(29)
	.loc 3 425 0
	lwz 0,4(11)
	stw 0,32(29)
	.loc 3 426 0
	lwz 0,8(11)
	stw 0,36(29)
.LBE5554:
.LBE5555:
.LBE5570:
	.loc 19 80 0
	lwz 0,32(28)
	stw 0,40(29)
	lwz 0,36(28)
	stw 0,44(29)
	lwz 0,40(28)
	stw 0,48(29)
	lwz 0,44(28)
	stw 0,52(29)
	lwz 0,48(28)
	stw 0,56(29)
	lwz 0,52(28)
	stw 0,60(29)
.LVL1015:
.LBB5571:
.LBB5558:
	.loc 3 424 0
	lwzu 0,64(9)
	stw 0,64(29)
	.loc 3 425 0
	lwz 0,4(9)
	stw 0,68(29)
	.loc 3 426 0
	lwz 0,8(9)
	stw 0,72(29)
.LVL1016:
.L353:
.LBE5558:
.LBE5571:
.LBB5572:
.LBB5568:
.LBB5561:
.LBB5562:
	.loc 3 424 0
	mr 11,7
	mr 9,6
	lwzux 0,11,10
.LBE5562:
.LBE5561:
	.loc 12 333 0
	cmpwi 7,10,24
.LBB5565:
.LBB5563:
	.loc 3 424 0
	stwux 0,9,10
.LBE5563:
.LBE5565:
	.loc 12 333 0
	addi 10,10,12
.LBB5566:
.LBB5564:
	.loc 3 425 0
	lwz 0,4(11)
	stw 0,4(9)
	.loc 3 426 0
	lwz 0,8(11)
	stw 0,8(9)
.LBE5564:
.LBE5566:
	.loc 12 333 0
	bne+ 7,.L353
.LBE5568:
.LBE5572:
	.loc 19 80 0
	lwz 0,104(28)
	addi 3,29,128
	addi 4,28,120
	li 5,48
	stw 0,112(29)
.LBE5573:
.LBE5575:
.LBE5577:
.LBE5580:
	.loc 5 393 0
	addi 20,20,1
	addi 23,23,224
.LBB5581:
.LBB5578:
.LBB5576:
.LBB5574:
	.loc 19 80 0
	lwz 0,108(28)
	stw 0,116(29)
	lwz 0,112(28)
	stw 0,120(29)
	lwz 0,116(28)
	stw 0,124(29)
	bl memcpy
.LVL1017:
	lwz 0,176(28)
	lwz 11,168(28)
	lwz 9,172(28)
	stw 11,176(29)
	stw 9,180(29)
	stw 0,184(29)
	lwz 0,180(28)
	stw 0,188(29)
	lwz 0,184(28)
	stw 0,192(29)
	lwz 0,188(28)
	stw 0,196(29)
	lwz 0,192(28)
	stw 0,200(29)
	lbz 0,196(28)
	stb 0,204(29)
	lbz 0,197(28)
	stb 0,205(29)
	lbz 0,198(28)
	stb 0,206(29)
	lbz 0,199(28)
	stb 0,207(29)
	lwz 0,200(28)
	stw 0,208(29)
	lwz 0,204(28)
	stw 0,212(29)
	lwz 0,208(28)
	stw 0,216(29)
.LBE5574:
.LBE5576:
	.loc 18 194 0
	lwz 0,220(24)
.LBE5578:
.LBE5581:
	.loc 5 393 0
	addi 24,24,224
.LVL1018:
.LBB5582:
.LBB5579:
	.loc 18 194 0
	stw 0,220(29)
.LBE5579:
.LBE5582:
	.loc 5 393 0
	lwz 29,0(16)
.LVL1019:
	cmpw 7,20,29
	bge- 7,.L354
.LVL1020:
	lwz 29,1508(31)
	b .L355
.LVL1021:
.L396:
.LBE5585:
.LBE5589:
.LBB5590:
.LBB5507:
.LBB5505:
.LBB5503:
	.loc 5 380 0
	mulli 0,0,224
	add 29,22,0
	b .L356
.LVL1022:
.L354:
.LBE5503:
.LBE5505:
.LBE5507:
.LBE5590:
.LBB5591:
.LBB5586:
	.loc 5 393 0
	lwz 0,1500(31)
	lwz 22,1508(31)
	b .L345
.LVL1023:
.L393:
.LBE5586:
.LBE5591:
.LBE5598:
.LBE5604:
.LBE5610:
.LBE5619:
	.loc 2 1903 0
	lis 9,renderModelManager@ha
	lwz 3,renderModelManager@l(9)
.LVL1024:
	lwz 9,0(3)
	lwz 0,32(9)
	mtctr 0
	bctrl
	.loc 2 1904 0
	mr 5,30
	.loc 2 1903 0
	stw 3,1512(31)
	mr 4,3
	.loc 2 1904 0
	lwz 9,0(3)
	addi 3,1,24
	lwz 0,128(9)
	mtctr 0
	bctrl
.LVL1025:
.LBB5620:
.LBB5621:
.LBB5622:
	.loc 3 424 0
	lwz 11,24(1)
.LBE5622:
.LBE5621:
.LBE5620:
	.loc 2 1908 0
	lis 9,.LC2@ha
	.loc 2 1911 0
	mr 3,31
.LBB5635:
.LBB5629:
.LBB5623:
	.loc 3 424 0
	stw 11,1524(31)
	.loc 3 425 0
	lwz 11,28(1)
.LBE5623:
.LBE5629:
.LBE5635:
	.loc 2 1908 0
	lwz 0,.LC2@l(9)
	.loc 2 1909 0
	li 9,1
.LBB5636:
.LBB5630:
.LBB5624:
	.loc 3 425 0
	stw 11,1528(31)
	.loc 3 426 0
	lwz 11,32(1)
.LBE5624:
.LBE5630:
.LBE5636:
	.loc 2 1908 0
	stw 0,1648(31)
.LBB5637:
.LBB5631:
.LBB5625:
	.loc 3 426 0
	stw 11,1532(31)
.LVL1026:
	.loc 3 424 0
	lwz 11,36(1)
.LBE5625:
.LBE5631:
.LBE5637:
	.loc 2 1908 0
	stw 0,1644(31)
.LBB5638:
.LBB5632:
.LBB5626:
	.loc 3 424 0
	stw 11,1536(31)
	.loc 3 425 0
	lwz 11,40(1)
.LBE5626:
.LBE5632:
.LBE5638:
	.loc 2 1908 0
	stw 0,1640(31)
.LBB5639:
.LBB5633:
.LBB5627:
	.loc 3 425 0
	stw 11,1540(31)
	.loc 3 426 0
	lwz 11,44(1)
.LBE5627:
.LBE5633:
.LBE5639:
	.loc 2 1908 0
	stw 0,1636(31)
.LBB5640:
.LBB5634:
.LBB5628:
	.loc 3 426 0
	stw 11,1544(31)
.LBE5628:
.LBE5634:
.LBE5640:
	.loc 2 1909 0
	stb 9,1712(31)
	.loc 2 1910 0
	stb 9,1713(31)
	.loc 2 1911 0
	bl _ZNK8idEntity10GetPhysicsEv
	li 4,0
	lwz 9,0(3)
	lwz 0,132(9)
	mtctr 0
	bctrl
.LBB5641:
.LBB5642:
	.loc 3 424 0
	lwz 0,0(3)
.LBE5642:
.LBE5641:
	.loc 2 1911 0
	mr 9,3
.LVL1027:
	.loc 2 1912 0
	mr 3,31
.LVL1028:
.LBB5644:
.LBB5643:
	.loc 3 424 0
	stw 0,1572(31)
	.loc 3 425 0
	lwz 0,4(9)
	stw 0,1576(31)
	.loc 3 426 0
	lwz 0,8(9)
	stw 0,1580(31)
.LBE5643:
.LBE5644:
	.loc 2 1912 0
	bl _ZNK8idEntity10GetPhysicsEv
.LVL1029:
	li 4,0
	lwz 9,0(3)
	lwz 0,136(9)
	mtctr 0
	bctrl
.LVL1030:
.LBB5645:
.LBB5646:
	.loc 12 333 0
	addi 8,31,1584
	li 10,0
.L336:
.LBB5647:
.LBB5648:
	.loc 3 424 0
	mr 11,3
	mr 9,8
	lwzux 0,11,10
.LBE5648:
.LBE5647:
	.loc 12 333 0
	cmpwi 7,10,24
.LBB5651:
.LBB5649:
	.loc 3 424 0
	stwux 0,9,10
.LBE5649:
.LBE5651:
	.loc 12 333 0
	addi 10,10,12
.LBB5652:
.LBB5650:
	.loc 3 425 0
	lwz 0,4(11)
	stw 0,4(9)
	.loc 3 426 0
	lwz 0,8(11)
	stw 0,8(9)
.LBE5650:
.LBE5652:
	.loc 12 333 0
	bne+ 7,.L336
.LBE5646:
.LBE5645:
	.loc 2 1913 0
	lis 9,gameRenderWorld@ha
	mr 4,30
	lwz 3,gameRenderWorld@l(9)
.LVL1031:
	lwz 9,0(3)
	lwz 0,16(9)
	mtctr 0
	bctrl
	stw 3,1728(31)
	b .L335
.LVL1032:
.L395:
.LBB5653:
.LBB5611:
.LBB5605:
.LBB5599:
.LBB5592:
.LBB5508:
.LBB5506:
.LBB5504:
.LBB5501:
.LBB5502:
	.loc 5 193 0
	cmpwi 7,22,0
	beq- 7,.L359
	.loc 5 194 0
	mr 3,22
	bl _ZdaPv
.L359:
	.loc 5 197 0
	li 0,0
	.loc 5 199 0
	li 29,0
	.loc 5 197 0
	stw 0,1508(31)
	.loc 5 198 0
	stw 0,1496(31)
	.loc 5 199 0
	stw 0,1500(31)
	b .L356
.LVL1033:
.L398:
.LBE5502:
.LBE5501:
.LBE5504:
.LBE5506:
.LBE5508:
.LBE5592:
.LBB5593:
.LBB5587:
	.loc 5 380 0
	lwz 29,1496(31)
.LVL1034:
	b .L345
.LVL1035:
.L379:
.LBE5587:
.LBE5593:
.LBE5599:
.LBE5605:
.LBE5611:
.LBE5653:
.LBB5654:
.LBB5617:
	.loc 16 245 0
	lis 4,.LC27@ha
	la 4,.LC27@l(4)
	b .L372
.LVL1036:
.L374:
.LBE5617:
.LBE5654:
.LBB5655:
.LBB5314:
.LBB5309:
.LBB5305:
	lis 3,.LC30@ha
.LVL1037:
	la 3,.LC30@l(3)
.LBE5305:
.LBE5309:
	.loc 16 249 0
	bl atof
.LBE5314:
.LBE5655:
.LBB5656:
.LBB5344:
	.loc 16 241 0
	lwz 3,16688(1)
	lis 4,.LC84@ha
.LBE5344:
.LBE5656:
.LBB5657:
.LBB5315:
	.loc 16 249 0
	frsp 31,1
.LVL1038:
.LBE5315:
.LBE5657:
.LBB5658:
.LBB5345:
	.loc 16 241 0
	la 4,.LC84@l(4)
	bl _ZNK6idDict7FindKeyEPKc
.LVL1039:
	.loc 16 242 0
	cmpwi 0,3,0
	bne+ 0,.L400
.L375:
.LBE5345:
.LBE5658:
	.loc 2 1899 0
	addi 30,31,1512
.LBB5659:
.LBB5346:
	.loc 16 245 0
	lis 9,.LC27@ha
.LBE5346:
.LBE5659:
	.loc 2 1899 0
	li 4,0
	li 5,216
	mr 3,30
.LVL1040:
.LBB5660:
.LBB5347:
	.loc 16 245 0
	la 17,.LC27@l(9)
.LBE5347:
.LBE5660:
	.loc 2 1899 0
	bl memset
	.loc 2 1900 0
	li 0,-1
	stw 0,1728(31)
.LVL1041:
.LBB5661:
.LBB5354:
	.loc 16 241 0
	lis 4,.LC29@ha
	lwz 3,16688(1)
	la 4,.LC29@l(4)
	bl _ZNK6idDict7FindKeyEPKc
.LVL1042:
	.loc 16 242 0
	cmpwi 0,3,0
	bne+ 0,.L401
.L376:
	.loc 16 245 0
	lis 4,.LC27@ha
	la 4,.LC27@l(4)
	b .L334
.LVL1043:
.L397:
.LBE5354:
.LBE5661:
.LBB5662:
.LBB5612:
.LBB5606:
.LBB5600:
.LBB5594:
.LBB5588:
.LBB5583:
.LBB5584:
	.loc 5 198 0
	stw 22,1496(31)
	.loc 5 199 0
	li 0,0
.LVL1044:
	stw 22,1500(31)
	li 11,0
	b .L347
.LVL1045:
.L399:
.LBE5584:
.LBE5583:
	.loc 5 393 0
	lwz 0,1500(31)
	b .L345
.LVL1046:
.L337:
	lis 30,gameLocal@ha
	la 30,gameLocal@l(30)
.LBE5588:
.LBE5594:
.LBE5600:
.LBE5606:
.LBE5612:
.LBE5662:
	.loc 2 1958 0
	beq+ 0,.L371
	b .L370
.LBE5665:
	.cfi_endproc
.LFE2903:
	.size	_ZN15idBFGProjectile6LaunchERK6idVec3S2_S2_fff, .-_ZN15idBFGProjectile6LaunchERK6idVec3S2_S2_fff
	.align 2
	.globl _ZN15idBFGProjectile7RestoreEP13idRestoreGame
	.type	_ZN15idBFGProjectile7RestoreEP13idRestoreGame, @function
_ZN15idBFGProjectile7RestoreEP13idRestoreGame:
.LFB2900:
	.loc 2 1761 0
	.cfi_startproc
.LVL1047:
	stwu 1,-88(1)
.LCFI109:
	.cfi_def_cfa_offset 88
	mflr 0
	mfcr 12
	stw 27,68(1)
	mr 27,4
	.cfi_offset 27, -20
	.cfi_register 70, 12
	.cfi_register 65, 0
	stw 29,76(1)
.LBB5705:
	.loc 2 1764 0
	addi 4,1,8
.LVL1048:
.LBE5705:
	.loc 2 1761 0
	mr 29,3
	.cfi_offset 29, -12
.LBB5786:
	.loc 2 1764 0
	mr 3,27
.LVL1049:
.LBE5786:
	.loc 2 1761 0
	stw 17,28(1)
	stw 21,44(1)
.LBB5787:
	.loc 2 1765 0
	addi 21,29,1496
	.cfi_offset 21, -44
	.cfi_offset 17, -60
.LBE5787:
	.loc 2 1761 0
	stw 0,92(1)
	stw 18,32(1)
	stw 19,36(1)
	stw 20,40(1)
	stw 22,48(1)
	stw 23,52(1)
	stw 24,56(1)
	stw 25,60(1)
	stw 26,64(1)
	stw 28,72(1)
	stw 30,80(1)
	stw 31,84(1)
	stw 12,24(1)
.LBB5788:
	.loc 2 1764 0
	.cfi_offset 70, -64
	.cfi_offset 31, -4
	.cfi_offset 30, -8
	.cfi_offset 28, -16
	.cfi_offset 26, -24
	.cfi_offset 25, -28
	.cfi_offset 24, -32
	.cfi_offset 23, -36
	.cfi_offset 22, -40
	.cfi_offset 20, -48
	.cfi_offset 19, -52
	.cfi_offset 18, -56
	.cfi_offset 65, 4
	bl _ZN13idRestoreGame7ReadIntERi
.LVL1050:
	.loc 2 1765 0
	lwz 17,8(1)
.LVL1051:
.LBB5706:
.LBB5707:
.LBB5708:
.LBB5709:
	.loc 5 375 0
	cmpwi 4,17,0
	ble- 4,.L424
	.loc 5 380 0
	lwz 0,1500(29)
	cmpw 7,17,0
	beq- 7,.L406
	.loc 5 387 0
	lwz 0,1496(29)
	.loc 5 385 0
	lwz 22,1508(29)
.LVL1052:
	.loc 5 387 0
	cmpw 7,17,0
	.loc 5 386 0
	stw 17,1500(29)
	.loc 5 387 0
	blt- 7,.L425
.L407:
	.loc 5 392 0
	mulli 3,17,224
	bl _Znaj
.LVL1053:
	beq- 4,.L408
.LBB5710:
.LBB5711:
.LBB5712:
	.loc 4 590 0
	mtctr 17
.LBE5712:
.LBE5711:
.LBE5710:
	.loc 5 392 0
	mr 9,3
.LBB5715:
.LBB5714:
.LBB5713:
	.loc 4 590 0
	li 0,0
.L409:
	stw 0,0(9)
	addi 9,9,224
.LBE5713:
.LBE5714:
.LBE5715:
	.loc 5 392 0
	bdnz .L409
.LVL1054:
.L408:
	.loc 5 393 0
	lwz 0,1496(29)
	.loc 5 392 0
	stw 3,1508(29)
.LVL1055:
	.loc 5 393 0
	cmpwi 7,0,0
	ble- 7,.L410
	.loc 2 1761 0
	addi 23,22,4
	mr 28,22
	mr 24,23
	li 26,0
	.loc 5 393 0
	li 25,0
	addi 18,22,16
	addi 19,22,28
	addi 20,22,64
.LVL1056:
.L412:
.LBB5716:
.LBB5717:
	.loc 18 194 0
	lwz 0,0(28)
	.loc 2 1761 0
	subf 9,22,24
	add 30,9,23
.LBE5717:
.LBE5716:
	.loc 5 394 0
	add 31,3,26
.LVL1057:
.LBB5752:
.LBB5748:
	.loc 18 194 0
	stwx 0,3,26
.LBB5718:
.LBB5719:
.LBB5720:
.LBB5721:
.LBB5722:
	.loc 3 424 0
	mr 8,18
	mr 11,19
.LBE5722:
.LBE5721:
.LBE5720:
.LBB5725:
.LBB5726:
	.loc 12 333 0
	addi 6,31,76
.LBE5726:
.LBE5725:
	.loc 19 80 0
	lwz 0,-4(30)
.LBB5736:
.LBB5733:
	.loc 12 333 0
	addi 7,28,76
	li 10,0
.LBE5733:
.LBE5736:
	.loc 19 80 0
	stw 0,4(31)
	lwzx 0,9,23
.LBB5737:
.LBB5738:
	.loc 3 424 0
	mr 9,20
.LBE5738:
.LBE5737:
	.loc 19 80 0
	stw 0,8(31)
	lwz 0,4(30)
	stw 0,12(31)
.LVL1058:
.LBB5740:
.LBB5724:
.LBB5723:
	.loc 3 424 0
	lwzux 0,8,26
	stw 0,16(31)
	.loc 3 425 0
	lwz 0,4(8)
	stw 0,20(31)
	.loc 3 426 0
	lwz 0,8(8)
	stw 0,24(31)
.LVL1059:
	.loc 3 424 0
	lwzux 0,11,26
	stw 0,28(31)
	.loc 3 425 0
	lwz 0,4(11)
	stw 0,32(31)
	.loc 3 426 0
	lwz 0,8(11)
	stw 0,36(31)
.LBE5723:
.LBE5724:
.LBE5740:
	.loc 19 80 0
	lwz 0,32(30)
	stw 0,40(31)
	lwz 0,36(30)
	stw 0,44(31)
	lwz 0,40(30)
	stw 0,48(31)
	lwz 0,44(30)
	stw 0,52(31)
	lwz 0,48(30)
	stw 0,56(31)
	lwz 0,52(30)
	stw 0,60(31)
.LVL1060:
.LBB5741:
.LBB5739:
	.loc 3 424 0
	lwzux 0,9,26
	stw 0,64(31)
	.loc 3 425 0
	lwz 0,4(9)
	stw 0,68(31)
	.loc 3 426 0
	lwz 0,8(9)
	stw 0,72(31)
.LVL1061:
.L411:
.LBE5739:
.LBE5741:
.LBB5742:
.LBB5734:
.LBB5727:
.LBB5728:
	.loc 3 424 0
	mr 11,7
	mr 9,6
	lwzux 0,11,10
.LBE5728:
.LBE5727:
	.loc 12 333 0
	cmpwi 7,10,24
.LBB5731:
.LBB5729:
	.loc 3 424 0
	stwux 0,9,10
.LBE5729:
.LBE5731:
	.loc 12 333 0
	addi 10,10,12
.LBB5732:
.LBB5730:
	.loc 3 425 0
	lwz 0,4(11)
	stw 0,4(9)
	.loc 3 426 0
	lwz 0,8(11)
	stw 0,8(9)
.LBE5730:
.LBE5732:
	.loc 12 333 0
	bne+ 7,.L411
.LBE5734:
.LBE5742:
	.loc 19 80 0
	lwz 0,104(30)
	addi 3,31,128
	addi 4,30,120
	li 5,48
	stw 0,112(31)
.LBE5719:
.LBE5718:
.LBE5748:
.LBE5752:
	.loc 5 393 0
	addi 25,25,1
	addi 26,26,224
	addi 24,24,224
.LBB5753:
.LBB5749:
.LBB5746:
.LBB5744:
	.loc 19 80 0
	lwz 0,108(30)
	stw 0,116(31)
	lwz 0,112(30)
	stw 0,120(31)
	lwz 0,116(30)
	stw 0,124(31)
	bl memcpy
.LVL1062:
	lwz 0,176(30)
	lwz 11,168(30)
	lwz 9,172(30)
	stw 11,176(31)
	stw 9,180(31)
	stw 0,184(31)
	lwz 0,180(30)
	stw 0,188(31)
	lwz 0,184(30)
	stw 0,192(31)
	lwz 0,188(30)
	stw 0,196(31)
	lwz 0,192(30)
	stw 0,200(31)
	lbz 0,196(30)
	stb 0,204(31)
	lbz 0,197(30)
	stb 0,205(31)
	lbz 0,198(30)
	stb 0,206(31)
	lbz 0,199(30)
	stb 0,207(31)
	lwz 0,200(30)
	stw 0,208(31)
	lwz 0,204(30)
	stw 0,212(31)
	lwz 0,208(30)
	stw 0,216(31)
.LBE5744:
.LBE5746:
	.loc 18 194 0
	lwz 0,220(28)
.LBE5749:
.LBE5753:
	.loc 5 393 0
	addi 28,28,224
.LVL1063:
.LBB5754:
.LBB5750:
	.loc 18 194 0
	stw 0,220(31)
.LBE5750:
.LBE5754:
	.loc 5 393 0
	lwz 0,0(21)
	cmpw 7,25,0
	bge- 7,.L410
	lwz 3,1508(29)
	b .L412
.LVL1064:
.L410:
	.loc 5 398 0
	cmpwi 7,22,0
	beq- 7,.L423
	.loc 5 399 0
	mr 3,22
	bl _ZdaPv
.L423:
	lwz 0,8(1)
.LVL1065:
.L405:
.LBE5709:
.LBE5708:
.LBE5707:
.LBE5706:
	.loc 2 1766 0
	cmpwi 7,0,0
.LBB5767:
.LBB5764:
	.loc 5 302 0
	stw 17,1496(29)
.LVL1066:
.LBE5764:
.LBE5767:
	.loc 2 1766 0
	ble- 7,.L414
.L418:
.LBB5768:
.LBB5765:
.LBB5761:
.LBB5758:
.LBB5755:
.LBB5751:
.LBB5747:
.LBB5745:
.LBB5743:
.LBB5735:
	.loc 12 333 0
	li 31,0
	li 28,0
.LBE5735:
.LBE5743:
.LBE5745:
.LBE5747:
.LBE5751:
.LBE5755:
.LBE5758:
.LBE5761:
.LBE5765:
.LBE5768:
	.loc 2 1772 0
	lis 26,gameRenderWorld@ha
.LVL1067:
.L416:
.LBB5769:
.LBB5770:
	.loc 5 589 0
	lwz 4,1508(29)
.LBE5770:
.LBE5769:
.LBB5771:
.LBB5772:
	.loc 4 600 0
	mr 3,27
.LBE5772:
.LBE5771:
	.loc 2 1766 0
	addi 28,28,1
.LVL1068:
.LBB5774:
.LBB5773:
	.loc 4 600 0
	add 4,4,31
	bl _ZN13idRestoreGame7ReadIntERi
.LVL1069:
.LBE5773:
.LBE5774:
.LBB5775:
.LBB5776:
	.loc 5 589 0
	lwz 4,1508(29)
.LBE5776:
.LBE5775:
	.loc 2 1768 0
	mr 3,27
.LBB5778:
.LBB5777:
	.loc 5 589 0
	add 4,4,31
.LBE5777:
.LBE5778:
	.loc 2 1768 0
	addi 4,4,4
	bl _ZN13idRestoreGame16ReadRenderEntityER14renderEntity_s
.LBB5779:
.LBB5780:
	.loc 5 589 0
	lwz 4,1508(29)
.LBE5780:
.LBE5779:
	.loc 2 1769 0
	mr 3,27
.LBB5782:
.LBB5781:
	.loc 5 589 0
	add 4,4,31
.LBE5781:
.LBE5782:
	.loc 2 1769 0
	addi 4,4,220
	bl _ZN13idRestoreGame7ReadIntERi
.LBB5783:
.LBB5784:
	.loc 5 589 0
	lwz 30,1508(29)
	add 30,30,31
.LBE5784:
.LBE5783:
	.loc 2 1766 0
	addi 31,31,224
	.loc 2 1771 0
	lwz 0,220(30)
	.loc 2 1772 0
	addi 4,30,4
	.loc 2 1771 0
	cmpwi 7,0,0
	blt- 7,.L415
.LVL1070:
	.loc 2 1772 0
	lwz 3,gameRenderWorld@l(26)
.LVL1071:
	lwz 9,0(3)
	lwz 0,16(9)
	mtctr 0
	bctrl
	stw 3,220(30)
.LVL1072:
.L415:
	.loc 2 1766 0
	lwz 0,8(1)
	cmpw 7,0,28
	bgt+ 7,.L416
.LVL1073:
.L414:
	.loc 2 1776 0
	addi 31,29,1512
	mr 3,27
	mr 4,31
	bl _ZN13idRestoreGame16ReadRenderEntityER14renderEntity_s
	.loc 2 1777 0
	mr 3,27
	addi 4,29,1728
	bl _ZN13idRestoreGame7ReadIntERi
	.loc 2 1778 0
	mr 3,27
	addi 4,29,1732
	bl _ZN13idRestoreGame7ReadIntERi
	.loc 2 1779 0
	mr 3,27
	addi 4,29,1736
	bl _ZN13idRestoreGame10ReadStringER5idStr
	.loc 2 1781 0
	lwz 0,1728(29)
	cmpwi 7,0,0
	blt- 7,.L402
	.loc 2 1782 0
	lis 9,gameRenderWorld@ha
	mr 4,31
	lwz 3,gameRenderWorld@l(9)
	lwz 9,0(3)
	lwz 0,16(9)
	mtctr 0
	bctrl
	stw 3,1728(29)
.L402:
.LBE5788:
	.loc 2 1784 0
	lwz 0,92(1)
	lwz 12,24(1)
	mtlr 0
	lwz 17,28(1)
.LVL1074:
	lwz 18,32(1)
	mtcrf 8,12
	lwz 19,36(1)
	lwz 20,40(1)
	lwz 21,44(1)
.LVL1075:
	lwz 22,48(1)
	lwz 23,52(1)
	lwz 24,56(1)
	lwz 25,60(1)
	lwz 26,64(1)
	lwz 27,68(1)
.LVL1076:
	lwz 28,72(1)
	lwz 29,76(1)
.LVL1077:
	lwz 30,80(1)
	lwz 31,84(1)
.LVL1078:
	addi 1,1,88
	.cfi_remember_state
.LCFI110:
	.cfi_def_cfa_offset 0
	.cfi_restore 70
	.cfi_restore 31
	.cfi_restore 30
	.cfi_restore 29
	.cfi_restore 28
	.cfi_restore 27
	.cfi_restore 26
	.cfi_restore 25
	.cfi_restore 24
	.cfi_restore 23
	.cfi_restore 22
	.cfi_restore 21
	.cfi_restore 20
	.cfi_restore 19
	.cfi_restore 18
	.cfi_restore 17
	blr
.LVL1079:
.L425:
.LCFI111:
	.cfi_restore_state
.LBB5789:
.LBB5785:
.LBB5766:
.LBB5762:
.LBB5759:
	.loc 5 388 0
	stw 17,1496(29)
	b .L407
.LVL1080:
.L406:
.LBE5759:
.LBE5762:
	.loc 5 302 0
	stw 17,1496(29)
.LVL1081:
	b .L418
.LVL1082:
.L424:
.LBB5763:
.LBB5760:
.LBB5756:
.LBB5757:
	.loc 5 193 0
	lwz 3,1508(29)
	mr 0,17
	cmpwi 7,3,0
	beq- 7,.L404
	.loc 5 194 0
	bl _ZdaPv
	lwz 0,8(1)
.L404:
	.loc 5 197 0
	li 9,0
	stw 9,1508(29)
	.loc 5 199 0
	stw 9,1500(29)
	b .L405
.LBE5757:
.LBE5756:
.LBE5760:
.LBE5763:
.LBE5766:
.LBE5785:
.LBE5789:
	.cfi_endproc
.LFE2900:
	.size	_ZN15idBFGProjectile7RestoreEP13idRestoreGame, .-_ZN15idBFGProjectile7RestoreEP13idRestoreGame
	.align 2
	.globl _ZN12idProjectileC2Ev
	.type	_ZN12idProjectileC2Ev, @function
_ZN12idProjectileC2Ev:
.LFB2816:
	.loc 2 65 0
	.cfi_startproc
	.cfi_personality 0,__gxx_personality_v0
	.cfi_lsda 0,.LLSDA2816
.LVL1083:
	mflr 0
	stwu 1,-24(1)
.LCFI112:
	.cfi_def_cfa_offset 24
	.cfi_register 65, 0
	stw 30,16(1)
	stw 0,28(1)
	stw 31,20(1)
	mr 31,3
	.cfi_offset 31, -4
	.cfi_offset 65, 4
	.cfi_offset 30, -8
	stw 28,8(1)
.LBB5790:
	addi 30,31,900
.LBE5790:
	stw 29,12(1)
.LEHB11:
.LBB5815:
	.loc 2 65 0
	.cfi_offset 29, -12
	.cfi_offset 28, -16
	bl _ZN8idEntityC2Ev
.LEHE11:
.LVL1084:
	lis 9,_ZTV12idProjectile+8@ha
	mr 3,30
	la 0,_ZTV12idProjectile+8@l(9)
	stw 0,0(31)
.LVL1085:
.LBB5791:
.LBB5792:
	.loc 4 590 0
	li 0,0
	stw 0,636(31)
.LEHB12:
.LBE5792:
.LBE5791:
	.loc 2 65 0
	bl _ZN16idForce_ConstantC1Ev
.LEHE12:
	.loc 2 65 0 is_stmt 0 discriminator 1
	addi 29,31,936
	mr 3,29
.LEHB13:
	bl _ZN19idPhysics_RigidBodyC1Ev
.LEHE13:
	.loc 2 67 0 is_stmt 1
	lis 3,.LC90@ha
	li 4,1496
	la 3,.LC90@l(3)
.LEHB14:
	crxor 6,6,6
	bl _Z15Sys_DebugPrintfPKcz
.LEHE14:
.LVL1086:
.LBB5793:
.LBB5794:
	.loc 3 424 0
	lis 9,vec3_origin@ha
.LBE5794:
.LBE5793:
.LBB5800:
.LBB5801:
	.loc 4 606 0
	li 30,0
.LBE5801:
.LBE5800:
.LBB5803:
.LBB5795:
	.loc 3 424 0
	la 10,vec3_origin@l(9)
	lwz 11,vec3_origin@l(9)
	.loc 3 425 0
	lwz 9,4(10)
.LBE5795:
.LBE5803:
	.loc 2 84 0
	addi 3,31,656
.LBB5804:
.LBB5796:
	.loc 3 426 0
	lwz 0,8(10)
.LBE5796:
.LBE5804:
	.loc 2 71 0
	li 10,-1
.LBB5805:
.LBB5797:
	.loc 3 425 0
	stw 9,872(31)
.LBE5797:
.LBE5805:
	.loc 2 84 0
	li 4,0
.LBB5806:
.LBB5807:
	.loc 3 425 0
	stw 9,892(31)
.LBE5807:
.LBE5806:
	.loc 2 82 0
	lis 9,.LC2@ha
.LBB5810:
.LBB5798:
	.loc 3 426 0
	stw 0,876(31)
.LBE5798:
.LBE5810:
	.loc 2 84 0
	li 5,208
.LBB5811:
.LBB5808:
	.loc 3 426 0
	stw 0,896(31)
.LBE5808:
.LBE5811:
	.loc 2 82 0
	lwz 0,.LC2@l(9)
	.loc 2 71 0
	stw 10,864(31)
	.loc 2 72 0
	li 10,0
.LBB5812:
.LBB5802:
	.loc 4 606 0
	stw 30,636(31)
.LBE5802:
.LBE5812:
	.loc 2 73 0
	stw 30,648(31)
	.loc 2 74 0
	stw 30,1480(31)
	.loc 2 75 0
	stw 30,1484(31)
	.loc 2 76 0
	stw 30,1488(31)
.LVL1087:
	.loc 2 78 0
	stw 30,880(31)
	.loc 2 79 0
	stw 30,884(31)
.LVL1088:
	.loc 2 82 0
	stw 0,652(31)
	.loc 2 83 0
	stb 30,640(31)
	.loc 2 72 0
	stw 10,644(31)
.LBB5813:
.LBB5799:
	.loc 3 424 0
	stw 11,868(31)
.LBE5799:
.LBE5813:
.LBB5814:
.LBB5809:
	stw 11,888(31)
.LBE5809:
.LBE5814:
	.loc 2 84 0
	bl memset
	.loc 2 87 0
	lwz 0,192(31)
	li 9,1
	.loc 2 89 0
	stb 30,1492(31)
	.loc 2 87 0
	rlwimi 0,9,20,11,11
	stw 0,192(31)
.LBE5815:
	.loc 2 90 0
	lwz 0,28(1)
	lwz 28,8(1)
	mtlr 0
	lwz 29,12(1)
	lwz 30,16(1)
	lwz 31,20(1)
.LVL1089:
	addi 1,1,24
	.cfi_remember_state
.LCFI113:
	.cfi_def_cfa_offset 0
	.cfi_restore 31
	.cfi_restore 30
	.cfi_restore 29
	.cfi_restore 28
	blr
.LVL1090:
.L430:
.LCFI114:
	.cfi_restore_state
	mr 30,3
.L429:
.LBB5816:
	.loc 2 65 0
	mr 3,31
	bl _ZN8idEntityD2Ev
	mr 3,30
.LEHB15:
	bl _Unwind_Resume
.LEHE15:
.L432:
	mr 28,3
	mr 3,29
	bl _ZN19idPhysics_RigidBodyD1Ev
	mr 29,28
.L428:
	mr 3,30
	mr 30,29
	bl _ZN16idForce_ConstantD1Ev
	b .L429
.L431:
	mr 29,3
	b .L428
.LBE5816:
	.cfi_endproc
.LFE2816:
	.section	.gcc_except_table
.LLSDA2816:
	.byte	0xff
	.byte	0xff
	.byte	0x1
	.uleb128 .LLSDACSE2816-.LLSDACSB2816
.LLSDACSB2816:
	.uleb128 .LEHB11-.LFB2816
	.uleb128 .LEHE11-.LEHB11
	.uleb128 0
	.uleb128 0
	.uleb128 .LEHB12-.LFB2816
	.uleb128 .LEHE12-.LEHB12
	.uleb128 .L430-.LFB2816
	.uleb128 0
	.uleb128 .LEHB13-.LFB2816
	.uleb128 .LEHE13-.LEHB13
	.uleb128 .L431-.LFB2816
	.uleb128 0
	.uleb128 .LEHB14-.LFB2816
	.uleb128 .LEHE14-.LEHB14
	.uleb128 .L432-.LFB2816
	.uleb128 0
	.uleb128 .LEHB15-.LFB2816
	.uleb128 .LEHE15-.LEHB15
	.uleb128 0
	.uleb128 0
.LLSDACSE2816:
	.section	".text"
	.size	_ZN12idProjectileC2Ev, .-_ZN12idProjectileC2Ev
	.align 2
	.globl _ZN12idProjectile14CreateInstanceEv
	.type	_ZN12idProjectile14CreateInstanceEv, @function
_ZN12idProjectile14CreateInstanceEv:
.LFB2810:
	.loc 2 52 0
	.cfi_startproc
	.cfi_personality 0,__gxx_personality_v0
	.cfi_lsda 0,.LLSDA2810
	mflr 0
	stwu 1,-24(1)
.LCFI115:
	.cfi_def_cfa_offset 24
	.cfi_register 65, 0
.LBB5817:
	li 3,1496
.LBE5817:
	stw 30,16(1)
	stw 0,28(1)
	stw 31,20(1)
.LEHB16:
.LBB5818:
	.loc 2 52 0
	.cfi_offset 31, -4
	.cfi_offset 65, 4
	.cfi_offset 30, -8
	bl _ZN7idClassnwEj
.LEHE16:
	mr 31,3
.LEHB17:
	bl _ZN12idProjectileC1Ev
.LEHE17:
.LVL1091:
	.loc 2 52 0 is_stmt 0 discriminator 2
	mr 3,31
.LEHB18:
	bl _ZN7idClass23FindUninitializedMemoryEv
.LEHE18:
.LVL1092:
.L438:
.LBE5818:
	.loc 2 52 0
	lwz 0,28(1)
	mr 3,31
	lwz 30,16(1)
	mtlr 0
	lwz 31,20(1)
	addi 1,1,24
	.cfi_remember_state
.LCFI116:
	.cfi_def_cfa_offset 0
	.cfi_restore 31
	.cfi_restore 30
	blr
.L439:
.L435:
.LCFI117:
	.cfi_restore_state
.LBB5819:
	cmpwi 7,4,1
	beq- 7,.L437
.LEHB19:
	bl _Unwind_Resume
.LEHE19:
.L440:
	mr 30,3
	mr 3,31
	stw 4,8(1)
	bl _ZN7idClassdlEPv
	mr 3,30
	lwz 4,8(1)
	b .L435
.L437:
.LBE5819:
.LBB5820:
	bl __cxa_begin_catch
	li 31,0
	bl __cxa_end_catch
	b .L438
.LBE5820:
	.cfi_endproc
.LFE2810:
	.section	.gcc_except_table
	.align 2
.LLSDA2810:
	.byte	0xff
	.byte	0
	.uleb128 .LLSDATT2810-.LLSDATTD2810
.LLSDATTD2810:
	.byte	0x1
	.uleb128 .LLSDACSE2810-.LLSDACSB2810
.LLSDACSB2810:
	.uleb128 .LEHB16-.LFB2810
	.uleb128 .LEHE16-.LEHB16
	.uleb128 .L439-.LFB2810
	.uleb128 0x1
	.uleb128 .LEHB17-.LFB2810
	.uleb128 .LEHE17-.LEHB17
	.uleb128 .L440-.LFB2810
	.uleb128 0x3
	.uleb128 .LEHB18-.LFB2810
	.uleb128 .LEHE18-.LEHB18
	.uleb128 .L439-.LFB2810
	.uleb128 0x1
	.uleb128 .LEHB19-.LFB2810
	.uleb128 .LEHE19-.LEHB19
	.uleb128 0
	.uleb128 0
.LLSDACSE2810:
	.byte	0x1
	.byte	0
	.byte	0
	.byte	0x7d
	.align 2
	.long	_ZTI12idAllocError
.LLSDATT2810:
	.section	".text"
	.size	_ZN12idProjectile14CreateInstanceEv, .-_ZN12idProjectile14CreateInstanceEv
	.align 2
	.globl _ZNK12idProjectile8GetOwnerEv
	.type	_ZNK12idProjectile8GetOwnerEv, @function
_ZNK12idProjectile8GetOwnerEv:
.LFB2821:
	.loc 2 188 0 is_stmt 1
	.cfi_startproc
.LVL1093:
.LBB5821:
.LBB5822:
	.loc 4 634 0
	lwz 0,636(3)
	.loc 4 635 0
	lis 9,gameLocal@ha
	la 9,gameLocal@l(9)
	.loc 4 638 0
	li 3,0
.LVL1094:
	.loc 4 634 0
	rlwinm 11,0,0,20,31
.LVL1095:
	.loc 4 635 0
	srawi 0,0,12
	addi 10,11,4228
	slwi 10,10,2
	add 10,9,10
	lwz 10,4(10)
	cmpw 7,10,0
	bnelr- 7
	.loc 4 636 0
	addi 11,11,132
.LVL1096:
	slwi 11,11,2
.LVL1097:
	add 9,9,11
	lwz 3,4(9)
.LBE5822:
.LBE5821:
	.loc 2 190 0
	blr
	.cfi_endproc
.LFE2821:
	.size	_ZNK12idProjectile8GetOwnerEv, .-_ZNK12idProjectile8GetOwnerEv
	.align 2
	.globl _ZN12idProjectile19DefaultDamageEffectEP8idEntityRK6idDictRK7trace_sRK6idVec3
	.type	_ZN12idProjectile19DefaultDamageEffectEP8idEntityRK6idDictRK7trace_sRK6idVec3, @function
_ZN12idProjectile19DefaultDamageEffectEP8idEntityRK6idDictRK7trace_sRK6idVec3:
.LFB2831:
	.loc 2 615 0
	.cfi_startproc
.LVL1098:
	mflr 0
	stwu 1,-40(1)
.LCFI118:
	.cfi_def_cfa_offset 40
	.cfi_register 65, 0
	stw 29,28(1)
	mr 29,5
	.cfi_offset 29, -12
	stw 0,44(1)
.LBB5856:
	.loc 2 619 0
	li 0,1
	.cfi_offset 65, 4
.LBE5856:
	.loc 2 615 0
	stw 30,32(1)
	mr 30,4
	.cfi_offset 30, -8
	stw 31,36(1)
.LBB5916:
	.loc 2 619 0
	lwz 9,88(5)
	cmpwi 7,9,0
	beq- 7,.L445
	.cfi_offset 31, -4
.LBB5857:
.LBB5858:
	.file 20 "d:/Data/Nintendo/DoomGX/src/game/../idlib/../renderer/Material.h"
	.loc 20 503 0
	lwz 0,100(9)
	rlwinm 0,0,0,28,31
.L445:
.LBE5858:
.LBE5857:
	.loc 2 626 0
	lis 9,_ZN11idGameLocal15sufaceTypeNamesE@ha
	slwi 0,0,2
	la 9,_ZN11idGameLocal15sufaceTypeNamesE@l(9)
	.loc 2 629 0
	lis 3,.LC92@ha
.LVL1099:
	.loc 2 626 0
	lwzx 31,9,0
.LVL1100:
	.loc 2 629 0
	la 3,.LC92@l(3)
	mr 4,31
.LVL1101:
	crxor 6,6,6
	bl _Z2vaPKcz
.LVL1102:
	mr 4,3
.LVL1103:
.LBB5859:
.LBB5860:
	.loc 16 241 0
	mr 3,30
.LVL1104:
	bl _ZNK6idDict7FindKeyEPKc
.LVL1105:
	.loc 16 242 0
	cmpwi 0,3,0
	beq- 0,.L455
.LVL1106:
.LBB5861:
	.loc 2 2410 0
	lwz 9,4(3)
	lwz 9,4(9)
.LVL1107:
.L446:
.LBE5861:
.LBE5860:
.LBE5859:
	.loc 2 630 0
	lbz 0,0(9)
	cmpwi 7,0,0
	beq- 7,.L461
.LVL1108:
.L447:
	.loc 2 641 0
	lis 3,.LC95@ha
	mr 4,31
	la 3,.LC95@l(3)
	crxor 6,6,6
	bl _Z2vaPKcz
	mr 4,3
.LVL1109:
.LBB5863:
.LBB5864:
	.loc 16 241 0
	mr 3,30
.LVL1110:
	bl _ZNK6idDict7FindKeyEPKc
.LVL1111:
	.loc 16 242 0
	cmpwi 0,3,0
	beq- 0,.L457
.L463:
.LVL1112:
.LBB5865:
	.loc 2 2410 0
	lwz 9,4(3)
	lwz 31,4(9)
.LVL1113:
.L449:
.LBE5865:
.LBE5864:
.LBE5863:
	.loc 2 642 0
	lbz 0,0(31)
	cmpwi 7,0,0
	beq- 7,.L462
.LVL1114:
.L450:
.LBB5867:
.LBB5868:
	.loc 3 420 0
	lfs 13,72(29)
.LBE5868:
.LBE5867:
.LBB5875:
.LBB5876:
.LBB5877:
.LBB5878:
	.loc 16 241 0
	lis 4,.LC97@ha
.LBE5878:
.LBE5877:
.LBE5876:
.LBE5875:
.LBB5893:
.LBB5871:
	.loc 3 420 0
	lfs 0,76(29)
.LBE5871:
.LBE5893:
.LBB5894:
.LBB5888:
.LBB5884:
.LBB5880:
	.loc 16 241 0
	mr 3,30
.LBE5880:
.LBE5884:
.LBE5888:
.LBE5894:
.LBB5895:
.LBB5872:
	.loc 3 420 0
	lfs 12,68(29)
	fneg 13,13
	fneg 0,0
.LBE5872:
.LBE5895:
.LBB5896:
.LBB5889:
.LBB5885:
.LBB5881:
	.loc 16 241 0
	la 4,.LC97@l(4)
.LBE5881:
.LBE5885:
.LBE5889:
.LBE5896:
.LBB5897:
.LBB5873:
	.loc 3 420 0
	fneg 12,12
.LBE5873:
.LBE5897:
	.loc 2 646 0
	addi 29,29,56
.LVL1115:
.LBB5898:
.LBB5874:
.LBB5869:
.LBB5870:
	.loc 3 397 0
	stfs 13,12(1)
	.loc 3 398 0
	stfs 0,16(1)
	.loc 3 396 0
	stfs 12,8(1)
.LBE5870:
.LBE5869:
.LBE5874:
.LBE5898:
.LBB5899:
.LBB5890:
.LBB5886:
.LBB5882:
	.loc 16 241 0
	bl _ZNK6idDict7FindKeyEPKc
	.loc 16 242 0
	cmpwi 0,3,0
.LVL1116:
	beq- 0,.L459
.LVL1117:
.LBB5879:
	.loc 2 2410 0
	lwz 9,4(3)
	lwz 3,4(9)
.LVL1118:
.L453:
.LBE5879:
.LBE5882:
.LBE5886:
	.loc 16 249 0
	bl atof
.LBE5890:
.LBE5899:
	.loc 2 646 0
	lis 9,.LC98@ha
.LBB5900:
.LBB5891:
	.loc 16 249 0
	frsp 2,1
.LBE5891:
.LBE5900:
	.loc 2 646 0
	lfs 1,.LC98@l(9)
	lis 9,.LC20@ha
	lis 3,gameLocal@ha
	lfs 3,.LC20@l(9)
	mr 4,29
	addi 5,1,8
	mr 7,31
	la 3,gameLocal@l(3)
	li 6,1
	bl _ZN11idGameLocal12ProjectDecalERK6idVec3S2_fbfPKcf
.LBE5916:
	.loc 2 648 0
	lwz 0,44(1)
	lwz 29,28(1)
.LVL1119:
	mtlr 0
	lwz 30,32(1)
.LVL1120:
	lwz 31,36(1)
	addi 1,1,40
	.cfi_remember_state
.LCFI119:
	.cfi_def_cfa_offset 0
	.cfi_restore 31
	.cfi_restore 30
	.cfi_restore 29
	blr
.LVL1121:
.L462:
.LCFI120:
	.cfi_restore_state
.LBB5917:
.LBB5901:
.LBB5902:
	.loc 16 241 0
	lis 4,.LC96@ha
	mr 3,30
.LVL1122:
	la 4,.LC96@l(4)
	bl _ZNK6idDict7FindKeyEPKc
.LVL1123:
	.loc 16 242 0
	cmpwi 0,3,0
	beq- 0,.L458
.LVL1124:
.LBB5903:
	.loc 2 2410 0
	lwz 9,4(3)
	lwz 31,4(9)
.LVL1125:
.L451:
.LBE5903:
.LBE5902:
.LBE5901:
	.loc 2 645 0
	lbz 0,0(31)
	cmpwi 7,0,0
	bne- 7,.L450
.LBE5917:
	.loc 2 648 0
	lwz 0,44(1)
	lwz 29,28(1)
.LVL1126:
	mtlr 0
	lwz 30,32(1)
.LVL1127:
	lwz 31,36(1)
.LVL1128:
	addi 1,1,40
	.cfi_remember_state
	.cfi_restore 29
	.cfi_restore 30
	.cfi_restore 31
.LCFI121:
	.cfi_def_cfa_offset 0
	blr
.LVL1129:
.L461:
.LCFI122:
	.cfi_restore_state
.LBB5918:
.LBB5905:
.LBB5906:
	.loc 16 241 0
	lis 4,.LC93@ha
	mr 3,30
.LVL1130:
	la 4,.LC93@l(4)
	bl _ZNK6idDict7FindKeyEPKc
.LVL1131:
	.loc 16 242 0
	cmpwi 0,3,0
	beq- 0,.L456
.LVL1132:
.LBB5907:
	.loc 2 2410 0
	lwz 9,4(3)
	lwz 9,4(9)
.LVL1133:
.L448:
.LBE5907:
.LBE5906:
.LBE5905:
	.loc 2 633 0
	lbz 0,0(9)
	cmpwi 7,0,0
	bne- 7,.L447
.LVL1134:
.LBB5909:
.LBB5910:
	.loc 16 241 0
	lis 4,.LC94@ha
	mr 3,30
.LVL1135:
	la 4,.LC94@l(4)
	bl _ZNK6idDict7FindKeyEPKc
.LVL1136:
.LBE5910:
.LBE5909:
	.loc 2 641 0
	lis 3,.LC95@ha
	mr 4,31
	la 3,.LC95@l(3)
	crxor 6,6,6
	bl _Z2vaPKcz
	mr 4,3
.LVL1137:
.LBB5911:
.LBB5866:
	.loc 16 241 0
	mr 3,30
.LVL1138:
	bl _ZNK6idDict7FindKeyEPKc
.LVL1139:
	.loc 16 242 0
	cmpwi 0,3,0
	bne+ 0,.L463
.LVL1140:
.L457:
	.loc 16 245 0
	lis 31,.LC27@ha
.LVL1141:
	la 31,.LC27@l(31)
	b .L449
.LVL1142:
.L455:
.LBE5866:
.LBE5911:
.LBB5912:
.LBB5862:
	lis 9,.LC27@ha
	la 9,.LC27@l(9)
	b .L446
.LVL1143:
.L459:
.LBE5862:
.LBE5912:
.LBB5913:
.LBB5892:
.LBB5887:
.LBB5883:
	lis 3,.LC91@ha
.LVL1144:
	la 3,.LC91@l(3)
	b .L453
.LVL1145:
.L458:
.LBE5883:
.LBE5887:
.LBE5892:
.LBE5913:
.LBB5914:
.LBB5904:
	lis 31,.LC27@ha
	la 31,.LC27@l(31)
	b .L451
.LVL1146:
.L456:
.LBE5904:
.LBE5914:
.LBB5915:
.LBB5908:
	lis 9,.LC27@ha
	la 9,.LC27@l(9)
	b .L448
.LBE5908:
.LBE5915:
.LBE5918:
	.cfi_endproc
.LFE2831:
	.size	_ZN12idProjectile19DefaultDamageEffectEP8idEntityRK6idDictRK7trace_sRK6idVec3, .-_ZN12idProjectile19DefaultDamageEffectEP8idEntityRK6idDictRK7trace_sRK6idVec3
	.align 2
	.globl _ZN12idProjectile18ClientReceiveEventEiiRK8idBitMsg
	.type	_ZN12idProjectile18ClientReceiveEventEiiRK8idBitMsg, @function
_ZN12idProjectile18ClientReceiveEventEiiRK8idBitMsg:
.LFB2853:
	.loc 2 1195 0
	.cfi_startproc
.LVL1147:
.LBB5950:
.LBB5951:
	.loc 2 1199 0
	cmpwi 7,4,2
.LBE5951:
.LBE5950:
	.loc 2 1195 0
	mflr 0
	stwu 1,-160(1)
.LCFI123:
	.cfi_def_cfa_offset 160
	.cfi_register 65, 0
	stw 30,152(1)
	mr 30,3
	.cfi_offset 30, -8
	stw 31,156(1)
	mr 31,6
	.cfi_offset 31, -4
	stw 0,164(1)
.LBB5954:
.LBB5953:
	.loc 2 1199 0
	beq- 7,.L471
	.cfi_offset 65, 4
.LBB5952:
	.loc 2 1215 0
	bl _ZN8idEntity18ClientReceiveEventEiiRK8idBitMsg
.LVL1148:
.LBE5952:
.LBE5953:
.LBE5954:
	.loc 2 1219 0
	lwz 0,164(1)
	lwz 30,152(1)
.LVL1149:
	mtlr 0
	lwz 31,156(1)
.LVL1150:
	addi 1,1,160
	.cfi_remember_state
.LCFI124:
	.cfi_def_cfa_offset 0
	.cfi_restore 31
	.cfi_restore 30
	blr
.LVL1151:
.L471:
.LCFI125:
	.cfi_restore_state
.LBB5955:
.LBB5956:
.LBB5957:
.LBB5958:
.LBB5959:
	.loc 2 1201 0
	li 5,108
.LVL1152:
	li 4,0
.LVL1153:
	addi 3,1,32
.LVL1154:
	bl memset
.LVL1155:
.LBB5960:
.LBB5961:
	.loc 10 381 0
	li 4,32
	mr 3,31
	bl _ZNK8idBitMsg8ReadBitsEi
.LVL1156:
.LBE5961:
.LBE5960:
.LBB5962:
.LBB5963:
	li 4,32
.LBE5963:
.LBE5962:
	.loc 2 1202 0
	stw 3,88(1)
.LVL1157:
.LBB5965:
.LBB5964:
	.loc 10 381 0
	mr 3,31
.LVL1158:
	bl _ZNK8idBitMsg8ReadBitsEi
.LVL1159:
.LBE5964:
.LBE5965:
.LBB5966:
.LBB5967:
	li 4,32
.LBE5967:
.LBE5966:
	.loc 2 1203 0
	stw 3,92(1)
.LVL1160:
.LBB5969:
.LBB5968:
	.loc 10 381 0
	mr 3,31
.LVL1161:
	bl _ZNK8idBitMsg8ReadBitsEi
.LVL1162:
.LBE5968:
.LBE5969:
.LBB5970:
.LBB5971:
	.loc 10 399 0
	li 4,24
.LBE5971:
.LBE5970:
	.loc 2 1204 0
	stw 3,96(1)
.LVL1163:
.LBB5973:
.LBB5972:
	.loc 10 399 0
	mr 3,31
.LVL1164:
	bl _ZNK8idBitMsg8ReadBitsEi
.LVL1165:
	li 5,24
	mr 4,3
	addi 3,1,8
	bl _ZN8idBitMsg9BitsToDirEii
.LVL1166:
.LBE5972:
.LBE5973:
.LBB5974:
.LBB5975:
	.loc 3 424 0
	lwz 0,8(1)
.LBE5975:
.LBE5974:
.LBB5977:
.LBB5978:
	.loc 10 376 0
	li 4,32
	mr 3,31
.LBE5978:
.LBE5977:
.LBB5980:
.LBB5976:
	.loc 3 424 0
	stw 0,100(1)
	.loc 3 425 0
	lwz 0,12(1)
	stw 0,104(1)
	.loc 3 426 0
	lwz 0,16(1)
	stw 0,108(1)
.LVL1167:
.LBE5976:
.LBE5980:
.LBB5981:
.LBB5979:
	.loc 10 376 0
	bl _ZNK8idBitMsg8ReadBitsEi
	mr 5,3
.LBE5979:
.LBE5981:
	.loc 2 1206 0
	lis 3,gameLocal@ha
	la 3,gameLocal@l(3)
	li 4,1
	bl _ZN11idGameLocal15ClientRemapDeclE10declType_ti
	.loc 2 1207 0
	li 0,0
	cmpwi 7,3,-1
	.loc 2 1206 0
	mr 5,3
.LVL1168:
	.loc 2 1207 0
	beq- 7,.L467
	lis 9,declManager@ha
	li 4,1
	lwz 3,declManager@l(9)
.LVL1169:
	li 6,1
	lwz 9,0(3)
	lwz 0,76(9)
	mtctr 0
	bctrl
.LVL1170:
	mr 0,3
.L467:
.LBB5982:
.LBB5983:
	.loc 10 386 0
	li 4,16
	mr 3,31
.LBE5983:
.LBE5982:
	.loc 2 1207 0
	stw 0,120(1)
.LVL1171:
.LBB5985:
.LBB5984:
	.loc 10 386 0
	bl _ZNK8idBitMsg8ReadBitsEi
	.loc 10 387 0
	li 5,10
	li 4,5
	bl _ZN6idMath11BitsToFloatEiii
.LBE5984:
.LBE5985:
.LBB5986:
.LBB5987:
	.loc 10 386 0
	li 4,16
	mr 3,31
.LBE5987:
.LBE5986:
	.loc 2 1208 0
	stfs 1,20(1)
.LVL1172:
.LBB5989:
.LBB5988:
	.loc 10 386 0
	bl _ZNK8idBitMsg8ReadBitsEi
	.loc 10 387 0
	li 5,10
	li 4,5
	bl _ZN6idMath11BitsToFloatEiii
.LBE5988:
.LBE5989:
.LBB5990:
.LBB5991:
	.loc 10 386 0
	li 4,16
	mr 3,31
.LBE5991:
.LBE5990:
	.loc 2 1209 0
	stfs 1,24(1)
.LVL1173:
.LBB5993:
.LBB5992:
	.loc 10 386 0
	bl _ZNK8idBitMsg8ReadBitsEi
	.loc 10 387 0
	li 4,5
	li 5,10
	bl _ZN6idMath11BitsToFloatEiii
.LBE5992:
.LBE5993:
	.loc 2 1211 0
	mr 3,30
	addi 4,30,100
	addi 5,1,32
	addi 6,1,20
	.loc 2 1210 0
	stfs 1,28(1)
	.loc 2 1211 0
	bl _ZN12idProjectile19DefaultDamageEffectEP8idEntityRK6idDictRK7trace_sRK6idVec3
.LBE5959:
.LBE5958:
.LBE5957:
.LBE5956:
.LBE5955:
	.loc 2 1219 0
	lwz 0,164(1)
	lwz 30,152(1)
.LVL1174:
.LBB5998:
.LBB5997:
.LBB5996:
.LBB5995:
.LBB5994:
	.loc 2 1211 0
	li 3,1
.LBE5994:
.LBE5995:
.LBE5996:
.LBE5997:
.LBE5998:
	.loc 2 1219 0
	mtlr 0
	lwz 31,156(1)
.LVL1175:
	addi 1,1,160
	.cfi_restore 30
	.cfi_restore 31
.LCFI126:
	.cfi_def_cfa_offset 0
	blr
	.cfi_endproc
.LFE2853:
	.size	_ZN12idProjectile18ClientReceiveEventEiiRK8idBitMsg, .-_ZN12idProjectile18ClientReceiveEventEiiRK8idBitMsg
	.align 2
	.globl _ZN12idProjectile22AddDefaultDamageEffectERK7trace_sRK6idVec3
	.type	_ZN12idProjectile22AddDefaultDamageEffectERK7trace_sRK6idVec3, @function
_ZN12idProjectile22AddDefaultDamageEffectERK7trace_sRK6idVec3:
.LFB2832:
	.loc 2 655 0
	.cfi_startproc
.LVL1176:
	stwu 1,-192(1)
.LCFI127:
	.cfi_def_cfa_offset 192
	mflr 0
	stw 27,172(1)
.LBB6056:
.LBB6057:
	.loc 2 659 0
	lis 27,gameLocal@ha
	.cfi_offset 27, -20
	.cfi_register 65, 0
.LBE6057:
.LBE6056:
	.loc 2 655 0
	stw 28,176(1)
.LBB6060:
	.loc 2 657 0
	addi 28,3,100
	.cfi_offset 28, -16
.LBE6060:
	.loc 2 655 0
	stw 29,180(1)
	mr 29,5
	.cfi_offset 29, -12
	stw 31,188(1)
	mr 31,4
	.cfi_offset 31, -4
.LBB6061:
	.loc 2 657 0
	mr 5,31
.LVL1177:
	mr 4,28
.LVL1178:
	mr 6,29
.LBB6058:
	.loc 2 659 0
	la 27,gameLocal@l(27)
.LBE6058:
.LBE6061:
	.loc 2 655 0
	stw 0,196(1)
	stw 30,184(1)
	.loc 2 655 0
	mr 30,3
	.cfi_offset 30, -8
	.cfi_offset 65, 4
.LBB6062:
	.loc 2 657 0
	bl _ZN12idProjectile19DefaultDamageEffectEP8idEntityRK6idDictRK7trace_sRK6idVec3
.LVL1179:
.LBB6059:
	.loc 2 659 0
	addis 9,27,0x25
	lbz 0,2017(9)
	cmpwi 7,0,0
	beq- 7,.L472
	.loc 2 659 0 is_stmt 0 discriminator 1
	lwz 0,192(30)
	andis. 9,0,16
	bne- 0,.L481
.L472:
.LBE6059:
.LBE6062:
	.loc 2 682 0 is_stmt 1
	lwz 0,196(1)
	lwz 27,172(1)
	mtlr 0
	lwz 28,176(1)
	lwz 29,180(1)
.LVL1180:
	lwz 30,184(1)
.LVL1181:
	lwz 31,188(1)
.LVL1182:
	addi 1,1,192
	.cfi_remember_state
.LCFI128:
	.cfi_def_cfa_offset 0
	.cfi_restore 31
	.cfi_restore 30
	.cfi_restore 29
	.cfi_restore 28
	.cfi_restore 27
	blr
.LVL1183:
.L481:
.LCFI129:
	.cfi_restore_state
.LBB6063:
.LBB6064:
	.loc 2 660 0
	addi 3,1,8
	bl _ZN8idBitMsgC1Ev
.LVL1184:
.LBB6065:
.LBB6066:
.LBB6067:
.LBB6068:
	.loc 16 241 0
	lis 4,.LC99@ha
	mr 3,28
	la 4,.LC99@l(4)
	bl _ZNK6idDict7FindKeyEPKc
.LVL1185:
	.loc 16 242 0
	cmpwi 0,3,0
	beq- 0,.L478
.LVL1186:
.LBB6069:
	.loc 2 2410 0
	lwz 9,4(3)
	lwz 3,4(9)
.LVL1187:
.L474:
.LBE6069:
.LBE6068:
.LBE6067:
	.loc 16 257 0
	bl atoi
.LBE6066:
.LBE6065:
	.loc 2 667 0
	li 28,-1
.LVL1188:
	.loc 2 664 0
	cmpwi 7,3,0
	beq- 7,.L475
.LVL1189:
.LBB6073:
.LBB6074:
	.loc 4 643 0
	lwz 28,636(30)
	rlwinm 28,28,0,20,31
.LVL1190:
.L475:
.LBE6074:
.LBE6073:
.LBB6075:
.LBB6076:
	.loc 10 156 0
	addi 9,1,40
.LBE6076:
.LBE6075:
.LBB6078:
.LBB6079:
	.loc 10 300 0
	lwz 4,56(31)
.LBE6079:
.LBE6078:
.LBB6082:
.LBB6083:
	.loc 10 266 0
	li 0,0
.LBE6083:
.LBE6082:
.LBB6085:
.LBB6080:
	.loc 10 300 0
	li 5,32
	addi 3,1,8
.LVL1191:
.LBE6080:
.LBE6085:
.LBB6086:
.LBB6077:
	.loc 10 156 0
	stw 9,8(1)
	.loc 10 157 0
	stw 9,12(1)
	.loc 10 158 0
	li 9,128
	stw 9,16(1)
.LVL1192:
.LBE6077:
.LBE6086:
.LBB6087:
.LBB6084:
	.loc 10 266 0
	stw 0,20(1)
	.loc 10 267 0
	stb 0,37(1)
	.loc 10 268 0
	stw 0,24(1)
.LVL1193:
.LBE6084:
.LBE6087:
.LBB6088:
.LBB6081:
	.loc 10 300 0
	bl _ZN8idBitMsg9WriteBitsEii
.LVL1194:
.LBE6081:
.LBE6088:
.LBB6089:
.LBB6090:
	lwz 4,60(31)
	addi 3,1,8
.LVL1195:
	li 5,32
	bl _ZN8idBitMsg9WriteBitsEii
.LVL1196:
.LBE6090:
.LBE6089:
.LBB6091:
.LBB6092:
	lwz 4,64(31)
	li 5,32
	addi 3,1,8
.LVL1197:
	bl _ZN8idBitMsg9WriteBitsEii
.LVL1198:
.LBE6092:
.LBE6091:
.LBB6093:
.LBB6094:
	.loc 10 317 0
	li 4,24
	addi 3,31,68
	bl _ZN8idBitMsg9DirToBitsERK6idVec3i
	li 5,24
	mr 4,3
	addi 3,1,8
.LVL1199:
	bl _ZN8idBitMsg9WriteBitsEii
.LVL1200:
.LBE6094:
.LBE6093:
	.loc 2 676 0
	lwz 9,88(31)
	li 4,-1
	cmpwi 7,9,0
	beq- 7,.L476
.LBE6064:
	.loc 2 2410 0
	lwz 3,4(9)
.LBB6108:
.LBB6095:
.LBB6096:
	.file 21 "d:/Data/Nintendo/DoomGX/src/game/../idlib/../framework/DeclManager.h"
	.loc 21 165 0
	lwz 9,0(3)
	lwz 0,40(9)
	mtctr 0
	bctrl
.LBE6096:
.LBE6095:
	.loc 2 676 0
	li 4,-1
.LBB6098:
.LBB6097:
	.loc 21 165 0
	mr 6,3
.LBE6097:
.LBE6098:
	.loc 2 676 0
	li 5,1
	mr 3,27
	bl _ZN11idGameLocal15ServerRemapDeclEi10declType_ti
	mr 4,3
.L476:
.LVL1201:
.LBB6099:
.LBB6100:
	.loc 10 296 0
	li 5,32
	addi 3,1,8
.LVL1202:
	bl _ZN8idBitMsg9WriteBitsEii
.LVL1203:
.LBE6100:
.LBE6099:
.LBB6101:
.LBB6102:
	.loc 10 304 0
	lfs 1,0(29)
	li 4,10
	li 3,5
	bl _ZN6idMath11FloatToBitsEfii
.LVL1204:
	.loc 10 305 0
	li 5,16
	.loc 10 304 0
	mr 4,3
.LVL1205:
	.loc 10 305 0
	addi 3,1,8
.LVL1206:
	bl _ZN8idBitMsg9WriteBitsEii
.LVL1207:
.LBE6102:
.LBE6101:
.LBB6103:
.LBB6104:
	.loc 10 304 0
	lfs 1,4(29)
	li 4,10
	li 3,5
	bl _ZN6idMath11FloatToBitsEfii
.LVL1208:
	.loc 10 305 0
	li 5,16
	.loc 10 304 0
	mr 4,3
.LVL1209:
	.loc 10 305 0
	addi 3,1,8
.LVL1210:
	bl _ZN8idBitMsg9WriteBitsEii
.LVL1211:
.LBE6104:
.LBE6103:
.LBB6105:
.LBB6106:
	.loc 10 304 0
	lfs 1,8(29)
	li 4,10
	li 3,5
	bl _ZN6idMath11FloatToBitsEfii
.LVL1212:
	.loc 10 305 0
	li 5,16
	.loc 10 304 0
	mr 4,3
.LVL1213:
	.loc 10 305 0
	addi 3,1,8
.LVL1214:
	bl _ZN8idBitMsg9WriteBitsEii
.LVL1215:
.LBE6106:
.LBE6105:
	.loc 2 680 0
	mr 3,30
	addi 5,1,8
.LVL1216:
	mr 7,28
	li 4,2
	li 6,0
	bl _ZNK8idEntity15ServerSendEventEiPK8idBitMsgbi
.LVL1217:
.LBE6108:
.LBE6063:
	.loc 2 682 0
	lwz 0,196(1)
	lwz 27,172(1)
	mtlr 0
	lwz 28,176(1)
.LVL1218:
	lwz 29,180(1)
.LVL1219:
	lwz 30,184(1)
.LVL1220:
	lwz 31,188(1)
.LVL1221:
	addi 1,1,192
	.cfi_remember_state
	.cfi_restore 27
	.cfi_restore 28
	.cfi_restore 29
	.cfi_restore 30
	.cfi_restore 31
.LCFI130:
	.cfi_def_cfa_offset 0
	blr
.LVL1222:
.L478:
.LCFI131:
	.cfi_restore_state
.LBB6110:
.LBB6109:
.LBB6107:
.LBB6072:
.LBB6071:
.LBB6070:
	.loc 16 245 0
	lis 3,.LC30@ha
.LVL1223:
	la 3,.LC30@l(3)
	b .L474
.LBE6070:
.LBE6071:
.LBE6072:
.LBE6107:
.LBE6109:
.LBE6110:
	.cfi_endproc
.LFE2832:
	.size	_ZN12idProjectile22AddDefaultDamageEffectERK7trace_sRK6idVec3, .-_ZN12idProjectile22AddDefaultDamageEffectERK7trace_sRK6idVec3
	.align 2
	.globl _ZN12idProjectile11Event_TouchEP8idEntityP7trace_s
	.type	_ZN12idProjectile11Event_TouchEP8idEntityP7trace_s, @function
_ZN12idProjectile11Event_TouchEP8idEntityP7trace_s:
.LFB2848:
	.loc 2 1003 0
	.cfi_startproc
.LVL1224:
	mflr 0
	stwu 1,-128(1)
.LCFI132:
	.cfi_def_cfa_offset 128
	.cfi_register 65, 0
	stw 30,120(1)
	mr 30,4
	.cfi_offset 30, -8
	stw 31,124(1)
	mr 31,3
	.cfi_offset 31, -4
	stw 0,132(1)
.LBB6132:
	.loc 2 1005 0
	.cfi_offset 65, 4
	bl _ZNK8idEntity8IsHiddenEv
.LVL1225:
	cmpwi 7,3,0
	bne- 7,.L482
.LVL1226:
.LBB6133:
.LBB6134:
.LBB6135:
	.loc 4 634 0
	lwz 0,636(31)
	.loc 4 635 0
	lis 9,gameLocal@ha
	la 9,gameLocal@l(9)
	.loc 4 634 0
	rlwinm 11,0,0,20,31
.LVL1227:
	.loc 4 635 0
	srawi 0,0,12
	addi 10,11,4228
	slwi 10,10,2
	add 10,9,10
	lwz 10,4(10)
	cmpw 7,10,0
	.loc 4 638 0
	li 0,0
	.loc 4 635 0
	beq- 7,.L488
.LBE6135:
.LBE6134:
	.loc 2 1009 0
	cmpw 7,30,0
	beq- 7,.L482
.LVL1228:
.L489:
.LBE6133:
.LBE6132:
.LBB6142:
.LBB6143:
.LBB6144:
	.loc 2 1012 0
	li 4,0
	li 5,108
	addi 3,1,8
	bl memset
	.loc 2 1013 0
	mr 3,31
	bl _ZNK8idEntity10GetPhysicsEv
	li 4,0
	lwz 9,0(3)
	lwz 0,136(9)
	mtctr 0
	bctrl
.LVL1229:
	.loc 2 1003 0
	addi 11,1,60
.LBE6144:
.LBE6143:
.LBE6142:
.LBB6173:
.LBB6140:
.LBB6138:
.LBB6136:
	.loc 12 333 0
	addi 9,1,24
.L485:
.LVL1230:
.LBE6136:
.LBE6138:
.LBE6140:
.LBE6173:
.LBB6174:
.LBB6172:
.LBB6171:
.LBB6145:
.LBB6146:
.LBB6147:
.LBB6148:
	.loc 3 424 0
	lwz 0,0(3)
	stw 0,0(9)
	.loc 3 425 0
	lwz 0,4(3)
	stw 0,4(9)
	.loc 3 426 0
	lwz 0,8(3)
.LBE6148:
.LBE6147:
	.loc 12 333 0
	addi 3,3,12
.LBB6150:
.LBB6149:
	.loc 3 426 0
	stw 0,8(9)
.LBE6149:
.LBE6150:
	.loc 12 333 0
	addi 9,9,12
.LVL1231:
	cmpw 7,9,11
	bne+ 7,.L485
.LBE6146:
.LBE6145:
	.loc 2 1014 0
	mr 3,31
	bl _ZNK8idEntity10GetPhysicsEv
.LVL1232:
	li 4,0
	lwz 9,0(3)
	lwz 0,132(9)
	mtctr 0
	bctrl
.LBB6151:
.LBB6152:
	.loc 3 424 0
	lwz 0,0(3)
.LBE6152:
.LBE6151:
	.loc 2 1014 0
	mr 9,3
.LVL1233:
	.loc 2 1015 0
	mr 3,31
.LVL1234:
.LBB6154:
.LBB6153:
	.loc 3 424 0
	stw 0,12(1)
	.loc 3 425 0
	lwz 0,4(9)
	stw 0,16(1)
	.loc 3 426 0
	lwz 0,8(9)
	stw 0,20(1)
.LBE6153:
.LBE6154:
	.loc 2 1015 0
	bl _ZNK8idEntity10GetPhysicsEv
.LVL1235:
	lwz 9,0(3)
	li 4,0
	lwz 0,132(9)
	mtctr 0
	bctrl
	.loc 2 1017 0
	addi 4,1,8
.LBB6155:
.LBB6156:
	.loc 3 424 0
	lwz 0,0(3)
.LBE6156:
.LBE6155:
	.loc 2 1015 0
	mr 9,3
.LVL1236:
	.loc 2 1017 0
	addi 5,1,76
.LBB6161:
.LBB6157:
	.loc 3 424 0
	stw 0,64(1)
.LBE6157:
.LBE6161:
.LBB6162:
.LBB6163:
	.loc 3 410 0
	li 0,0
.LBE6163:
.LBE6162:
.LBB6166:
.LBB6158:
	.loc 3 425 0
	lwz 11,4(3)
.LBE6158:
.LBE6166:
	.loc 2 1017 0
	mr 3,31
.LVL1237:
.LBB6167:
.LBB6159:
	.loc 3 425 0
	stw 11,68(1)
	.loc 3 426 0
	lwz 9,8(9)
.LVL1238:
.LBE6159:
.LBE6167:
.LBB6168:
.LBB6164:
	.loc 3 410 0
	stw 0,76(1)
.LBE6164:
.LBE6168:
.LBB6169:
.LBB6160:
	.loc 3 426 0
	stw 9,72(1)
.LVL1239:
.LBE6160:
.LBE6169:
.LBB6170:
.LBB6165:
	.loc 3 412 0
	lis 9,.LC2@ha
	.loc 3 411 0
	stw 0,80(1)
	.loc 3 412 0
	lwz 0,.LC2@l(9)
	stw 0,84(1)
.LBE6165:
.LBE6170:
	.loc 2 1017 0
	bl _ZN12idProjectile22AddDefaultDamageEffectERK7trace_sRK6idVec3
.LVL1240:
	.loc 2 1018 0
	lwz 9,0(31)
	mr 3,31
	addi 4,1,8
	li 5,0
	lwz 0,232(9)
	mtctr 0
	bctrl
.LVL1241:
.L482:
.LBE6171:
.LBE6172:
.LBE6174:
	.loc 2 1020 0
	lwz 0,132(1)
	lwz 30,120(1)
.LVL1242:
	mtlr 0
	lwz 31,124(1)
.LVL1243:
	addi 1,1,128
	.cfi_remember_state
.LCFI133:
	.cfi_def_cfa_offset 0
	.cfi_restore 31
	.cfi_restore 30
	blr
.LVL1244:
.L488:
.LCFI134:
	.cfi_restore_state
.LBB6175:
.LBB6141:
.LBB6139:
.LBB6137:
	.loc 4 636 0
	addi 11,11,132
.LVL1245:
	slwi 11,11,2
.LVL1246:
	add 9,9,11
	lwz 0,4(9)
.LBE6137:
.LBE6139:
	.loc 2 1009 0
	cmpw 7,30,0
	bne+ 7,.L489
	b .L482
.LBE6141:
.LBE6175:
	.cfi_endproc
.LFE2848:
	.size	_ZN12idProjectile11Event_TouchEP8idEntityP7trace_s, .-_ZN12idProjectile11Event_TouchEP8idEntityP7trace_s
	.align 2
	.globl _ZN12idProjectile13Event_ExplodeEv
	.type	_ZN12idProjectile13Event_ExplodeEv, @function
_ZN12idProjectile13Event_ExplodeEv:
.LFB2846:
	.loc 2 977 0
	.cfi_startproc
.LVL1247:
	stwu 1,-128(1)
.LCFI135:
	.cfi_def_cfa_offset 128
	mflr 0
.LBB6176:
	.loc 2 980 0
	li 4,0
	li 5,108
.LBE6176:
	.loc 2 977 0
	stw 31,124(1)
	mr 31,3
	.cfi_offset 31, -4
	.cfi_register 65, 0
.LBB6203:
	.loc 2 980 0
	addi 3,1,8
.LVL1248:
.LBE6203:
	.loc 2 977 0
	stw 0,132(1)
.LBB6204:
	.loc 2 980 0
	.cfi_offset 65, 4
	bl memset
	.loc 2 981 0
	mr 3,31
	bl _ZNK8idEntity10GetPhysicsEv
	li 4,0
	lwz 9,0(3)
	lwz 0,136(9)
	mtctr 0
	bctrl
.LVL1249:
	.loc 2 977 0
	addi 11,1,60
.LBE6204:
	.loc 12 333 0
	addi 9,1,24
.L491:
.LVL1250:
.LBB6205:
.LBB6177:
.LBB6178:
.LBB6179:
.LBB6180:
	.loc 3 424 0
	lwz 0,0(3)
	stw 0,0(9)
	.loc 3 425 0
	lwz 0,4(3)
	stw 0,4(9)
	.loc 3 426 0
	lwz 0,8(3)
.LBE6180:
.LBE6179:
	.loc 12 333 0
	addi 3,3,12
.LBB6182:
.LBB6181:
	.loc 3 426 0
	stw 0,8(9)
.LBE6181:
.LBE6182:
	.loc 12 333 0
	addi 9,9,12
.LVL1251:
	cmpw 7,9,11
	bne+ 7,.L491
.LBE6178:
.LBE6177:
	.loc 2 982 0
	mr 3,31
	bl _ZNK8idEntity10GetPhysicsEv
.LVL1252:
	li 4,0
	lwz 9,0(3)
	lwz 0,132(9)
	mtctr 0
	bctrl
.LBB6183:
.LBB6184:
	.loc 3 424 0
	lwz 0,0(3)
.LBE6184:
.LBE6183:
	.loc 2 982 0
	mr 9,3
.LVL1253:
	.loc 2 983 0
	mr 3,31
.LVL1254:
.LBB6186:
.LBB6185:
	.loc 3 424 0
	stw 0,12(1)
	.loc 3 425 0
	lwz 0,4(9)
	stw 0,16(1)
	.loc 3 426 0
	lwz 0,8(9)
	stw 0,20(1)
.LBE6185:
.LBE6186:
	.loc 2 983 0
	bl _ZNK8idEntity10GetPhysicsEv
.LVL1255:
	lwz 9,0(3)
	li 4,0
	lwz 0,132(9)
	mtctr 0
	bctrl
	.loc 2 985 0
	addi 4,1,8
.LBB6187:
.LBB6188:
	.loc 3 424 0
	lwz 0,0(3)
.LBE6188:
.LBE6187:
	.loc 2 983 0
	mr 9,3
.LVL1256:
	.loc 2 985 0
	addi 5,1,76
.LBB6193:
.LBB6189:
	.loc 3 424 0
	stw 0,64(1)
.LBE6189:
.LBE6193:
.LBB6194:
.LBB6195:
	.loc 3 410 0
	li 0,0
.LBE6195:
.LBE6194:
.LBB6198:
.LBB6190:
	.loc 3 425 0
	lwz 11,4(3)
.LBE6190:
.LBE6198:
	.loc 2 985 0
	mr 3,31
.LVL1257:
.LBB6199:
.LBB6191:
	.loc 3 425 0
	stw 11,68(1)
	.loc 3 426 0
	lwz 9,8(9)
.LVL1258:
.LBE6191:
.LBE6199:
.LBB6200:
.LBB6196:
	.loc 3 410 0
	stw 0,76(1)
.LBE6196:
.LBE6200:
.LBB6201:
.LBB6192:
	.loc 3 426 0
	stw 9,72(1)
.LVL1259:
.LBE6192:
.LBE6201:
.LBB6202:
.LBB6197:
	.loc 3 412 0
	lis 9,.LC2@ha
	.loc 3 411 0
	stw 0,80(1)
	.loc 3 412 0
	lwz 0,.LC2@l(9)
	stw 0,84(1)
.LBE6197:
.LBE6202:
	.loc 2 985 0
	bl _ZN12idProjectile22AddDefaultDamageEffectERK7trace_sRK6idVec3
.LVL1260:
	.loc 2 986 0
	lwz 9,0(31)
	mr 3,31
	addi 4,1,8
	li 5,0
	lwz 0,232(9)
	mtctr 0
	bctrl
.LBE6205:
	.loc 2 987 0
	lwz 0,132(1)
	lwz 31,124(1)
.LVL1261:
	mtlr 0
	addi 1,1,128
.LCFI136:
	.cfi_def_cfa_offset 0
	.cfi_restore 31
	blr
	.cfi_endproc
.LFE2846:
	.size	_ZN12idProjectile13Event_ExplodeEv, .-_ZN12idProjectile13Event_ExplodeEv
	.align 2
	.globl _ZN12idProjectile6FizzleEv
	.type	_ZN12idProjectile6FizzleEv, @function
_ZN12idProjectile6FizzleEv:
.LFB2840:
	.loc 2 711 0
	.cfi_startproc
.LVL1262:
	mflr 0
	stwu 1,-24(1)
.LCFI137:
	.cfi_def_cfa_offset 24
	.cfi_register 65, 0
	stw 31,20(1)
	mr 31,3
	.cfi_offset 31, -4
	stw 0,28(1)
	stw 29,12(1)
	stw 30,16(1)
.LBB6220:
	.loc 2 713 0
	lwz 9,1488(3)
	addi 0,9,-3
	.cfi_offset 30, -8
	.cfi_offset 29, -12
	.cfi_offset 65, 4
	cmplwi 7,0,1
	ble- 7,.L493
.LVL1263:
.LBE6220:
.LBB6221:
.LBB6222:
	.loc 2 717 0
	li 4,3
	li 5,0
	bl _ZN8idEntity9StopSoundEib
.LVL1264:
	.loc 2 718 0
	lis 4,.LC100@ha
	la 4,.LC100@l(4)
	li 5,3
	li 6,0
	li 7,0
	li 8,0
	mr 3,31
	bl _ZN8idEntity10StartSoundEPKciibPi
	.loc 2 721 0
	addi 29,31,100
.LVL1265:
.LBB6223:
.LBB6224:
	.loc 16 241 0
	lis 4,.LC101@ha
	mr 3,29
	la 4,.LC101@l(4)
	bl _ZNK6idDict7FindKeyEPKc
.LBE6224:
.LBE6223:
	.loc 2 728 0
	lwz 0,1480(31)
	cmpwi 7,0,0
	beq- 7,.L495
	lwz 0,1484(31)
	cmpwi 7,0,0
	beq- 7,.L495
	.loc 2 729 0
	li 0,0
	stw 0,1484(31)
.L495:
	.loc 2 732 0
	lwz 0,192(31)
	li 9,0
	.loc 2 733 0
	addi 30,31,936
	li 5,-1
	.loc 2 732 0
	rlwimi 0,9,29,2,2
	.loc 2 733 0
	li 4,0
	.loc 2 732 0
	stw 0,192(31)
	.loc 2 733 0
	mr 3,30
	bl _ZN19idPhysics_RigidBody11SetContentsEii
	.loc 2 734 0
	li 4,0
	mr 3,30
	bl _ZNK19idPhysics_RigidBody12GetClipModelEi
	bl _ZN11idClipModel6UnlinkEv
	.loc 2 735 0
	mr 3,30
	bl _ZN19idPhysics_RigidBody9PutToRestEv
	.loc 2 737 0
	lwz 9,0(31)
	mr 3,31
	lwz 0,76(9)
	mtctr 0
	bctrl
	.loc 2 738 0
	lwz 9,0(31)
	mr 3,31
	lwz 0,72(9)
	mtctr 0
	bctrl
	.loc 2 740 0
	li 0,3
	stw 0,1488(31)
	.loc 2 742 0
	lis 9,gameLocal+2426850@ha
	lbz 0,gameLocal+2426850@l(9)
	cmpwi 7,0,0
	beq- 7,.L498
.LVL1266:
.L493:
.LBE6222:
.LBE6221:
	.loc 2 748 0
	lwz 0,28(1)
	lwz 29,12(1)
	mtlr 0
	lwz 30,16(1)
	lwz 31,20(1)
.LVL1267:
	addi 1,1,24
	.cfi_remember_state
.LCFI138:
	.cfi_def_cfa_offset 0
	.cfi_restore 31
	.cfi_restore 30
	.cfi_restore 29
	blr
.LVL1268:
.L498:
.LCFI139:
	.cfi_restore_state
.LBB6238:
.LBB6236:
	.loc 2 746 0
	lis 4,.LANCHOR0@ha
	mr 3,31
	la 4,.LANCHOR0@l(4)
	addi 4,4,488
	bl _ZN7idClass12CancelEventsEPK10idEventDef
.LVL1269:
.LBB6225:
.LBB6226:
.LBB6227:
.LBB6228:
	.loc 16 241 0
	lis 4,.LC53@ha
	mr 3,29
	la 4,.LC53@l(4)
	bl _ZNK6idDict7FindKeyEPKc
.LVL1270:
	.loc 16 242 0
	cmpwi 0,3,0
	beq- 0,.L497
.LVL1271:
.LBB6229:
	.loc 2 2410 0
	lwz 9,4(3)
	lwz 3,4(9)
.LVL1272:
.L496:
.LBE6229:
.LBE6228:
.LBE6227:
	.loc 16 253 0
	bl atoi
.LBE6226:
.LBE6225:
	.loc 2 747 0
	lis 4,EV_Remove@ha
.LBB6234:
.LBB6232:
	.loc 16 253 0
	mr 5,3
.LBE6232:
.LBE6234:
	.loc 2 747 0
	la 4,EV_Remove@l(4)
	mr 3,31
	bl _ZN7idClass11PostEventMSEPK10idEventDefi
.LBE6236:
.LBE6238:
	.loc 2 748 0
	lwz 0,28(1)
	lwz 29,12(1)
.LVL1273:
	mtlr 0
	lwz 30,16(1)
	lwz 31,20(1)
.LVL1274:
	addi 1,1,24
	.cfi_remember_state
	.cfi_restore 29
	.cfi_restore 30
	.cfi_restore 31
.LCFI140:
	.cfi_def_cfa_offset 0
	blr
.LVL1275:
.L497:
.LCFI141:
	.cfi_restore_state
.LBB6239:
.LBB6237:
.LBB6235:
.LBB6233:
.LBB6231:
.LBB6230:
	.loc 16 245 0
	lis 3,.LC31@ha
.LVL1276:
	la 3,.LC31@l(3)
	b .L496
.LBE6230:
.LBE6231:
.LBE6233:
.LBE6235:
.LBE6237:
.LBE6239:
	.cfi_endproc
.LFE2840:
	.size	_ZN12idProjectile6FizzleEv, .-_ZN12idProjectile6FizzleEv
	.align 2
	.globl _ZN12idProjectile12Event_FizzleEv
	.type	_ZN12idProjectile12Event_FizzleEv, @function
_ZN12idProjectile12Event_FizzleEv:
.LFB2847:
	.loc 2 994 0
	.cfi_startproc
.LVL1277:
	.loc 2 996 0
	.loc 2 995 0
	b _ZN12idProjectile6FizzleEv
.LVL1278:
	.cfi_endproc
.LFE2847:
	.size	_ZN12idProjectile12Event_FizzleEv, .-_ZN12idProjectile12Event_FizzleEv
	.align 2
	.globl _ZN12idProjectile6KilledEP8idEntityS1_iRK6idVec3i
	.type	_ZN12idProjectile6KilledEP8idEntityS1_iRK6idVec3i, @function
_ZN12idProjectile6KilledEP8idEntityS1_iRK6idVec3i:
.LFB2833:
	.loc 2 689 0
	.cfi_startproc
.LVL1279:
	stwu 1,-128(1)
.LCFI142:
	.cfi_def_cfa_offset 128
	mflr 0
.LBB6261:
.LBB6262:
.LBB6263:
.LBB6264:
.LBB6265:
	.loc 16 241 0
	lis 4,.LC102@ha
.LVL1280:
.LBE6265:
.LBE6264:
.LBE6263:
.LBE6262:
.LBE6261:
	.loc 2 689 0
	stw 31,124(1)
.LBB6287:
.LBB6282:
.LBB6277:
.LBB6272:
.LBB6267:
	.loc 16 241 0
	la 4,.LC102@l(4)
.LBE6267:
.LBE6272:
.LBE6277:
.LBE6282:
.LBE6287:
	.loc 2 689 0
	mr 31,3
	.cfi_offset 31, -4
	.cfi_register 65, 0
.LVL1281:
.LBB6288:
.LBB6283:
.LBB6278:
.LBB6273:
.LBB6268:
	.loc 16 241 0
	addi 3,3,100
.LVL1282:
.LBE6268:
.LBE6273:
.LBE6278:
.LBE6283:
.LBE6288:
	.loc 2 689 0
	stw 0,132(1)
	stw 30,120(1)
.LBB6289:
.LBB6284:
.LBB6279:
.LBB6274:
.LBB6269:
	.loc 16 241 0
	.cfi_offset 30, -8
	.cfi_offset 65, 4
	bl _ZNK6idDict7FindKeyEPKc
.LVL1283:
	.loc 16 242 0
	cmpwi 0,3,0
	beq- 0,.L505
.LVL1284:
.LBB6266:
	.loc 2 2410 0
	lwz 9,4(3)
	lwz 3,4(9)
.LVL1285:
.L501:
.LBE6266:
.LBE6269:
.LBE6274:
	.loc 16 257 0
	bl atoi
.LBE6279:
.LBE6284:
	.loc 2 690 0
	cmpwi 7,3,0
	beq- 7,.L502
.LVL1286:
.LBE6289:
.LBB6290:
.LBB6291:
.LBB6292:
	.loc 2 693 0
	li 4,0
	li 5,108
	addi 3,1,8
	bl memset
	.loc 2 694 0
	mr 3,31
	bl _ZNK8idEntity10GetPhysicsEv
	li 4,0
	lwz 9,0(3)
	lwz 0,136(9)
	mtctr 0
	bctrl
.LVL1287:
	.loc 2 689 0
	addi 11,1,60
.LBE6292:
.LBE6291:
.LBE6290:
.LBB6321:
.LBB6285:
.LBB6280:
.LBB6275:
.LBB6270:
	.loc 12 333 0
	addi 9,1,24
.L503:
.LVL1288:
.LBE6270:
.LBE6275:
.LBE6280:
.LBE6285:
.LBE6321:
.LBB6322:
.LBB6320:
.LBB6319:
.LBB6293:
.LBB6294:
.LBB6295:
.LBB6296:
	.loc 3 424 0
	lwz 0,0(3)
	stw 0,0(9)
	.loc 3 425 0
	lwz 0,4(3)
	stw 0,4(9)
	.loc 3 426 0
	lwz 0,8(3)
.LBE6296:
.LBE6295:
	.loc 12 333 0
	addi 3,3,12
.LBB6298:
.LBB6297:
	.loc 3 426 0
	stw 0,8(9)
.LBE6297:
.LBE6298:
	.loc 12 333 0
	addi 9,9,12
.LVL1289:
	cmpw 7,9,11
	bne+ 7,.L503
.LBE6294:
.LBE6293:
	.loc 2 695 0
	mr 3,31
	.loc 2 699 0
	addi 30,31,936
	.loc 2 695 0
	bl _ZNK8idEntity10GetPhysicsEv
.LVL1290:
	li 4,0
	lwz 9,0(3)
	lwz 0,132(9)
	mtctr 0
	bctrl
.LBB6299:
.LBB6300:
	.loc 3 424 0
	lwz 0,0(3)
.LBE6300:
.LBE6299:
	.loc 2 695 0
	mr 9,3
.LVL1291:
	.loc 2 696 0
	mr 3,31
.LVL1292:
.LBB6302:
.LBB6301:
	.loc 3 424 0
	stw 0,12(1)
	.loc 3 425 0
	lwz 0,4(9)
	stw 0,16(1)
	.loc 3 426 0
	lwz 0,8(9)
	stw 0,20(1)
.LBE6301:
.LBE6302:
	.loc 2 696 0
	bl _ZNK8idEntity10GetPhysicsEv
.LVL1293:
	lwz 9,0(3)
	li 4,0
	lwz 0,132(9)
	mtctr 0
	bctrl
.LVL1294:
	.loc 2 698 0
	lwz 9,0(31)
.LBB6303:
.LBB6304:
	.loc 3 424 0
	lwz 0,0(3)
.LBE6304:
.LBE6303:
	.loc 2 698 0
	addi 4,1,8
	lwz 9,232(9)
	li 5,0
.LBB6309:
.LBB6305:
	.loc 3 424 0
	stw 0,64(1)
.LBE6305:
.LBE6309:
	.loc 2 698 0
	mtctr 9
.LBB6310:
.LBB6306:
	.loc 3 425 0
	lwz 0,4(3)
	stw 0,68(1)
.LBE6306:
.LBE6310:
.LBB6311:
.LBB6312:
	.loc 3 410 0
	li 0,0
.LBE6312:
.LBE6311:
.LBB6315:
.LBB6307:
	.loc 3 426 0
	lwz 11,8(3)
.LBE6307:
.LBE6315:
	.loc 2 698 0
	mr 3,31
.LVL1295:
.LBB6316:
.LBB6313:
	.loc 3 410 0
	stw 0,76(1)
.LBE6313:
.LBE6316:
.LBB6317:
.LBB6308:
	.loc 3 426 0
	stw 11,72(1)
.LVL1296:
.LBE6308:
.LBE6317:
.LBB6318:
.LBB6314:
	.loc 3 412 0
	lis 11,.LC2@ha
	.loc 3 411 0
	stw 0,80(1)
	.loc 3 412 0
	lwz 0,.LC2@l(11)
	stw 0,84(1)
.LBE6314:
.LBE6318:
	.loc 2 698 0
	bctrl
	.loc 2 699 0
	mr 3,30
	bl _ZN14idPhysics_Base13ClearContactsEv
	.loc 2 700 0
	mr 3,30
	bl _ZN19idPhysics_RigidBody9PutToRestEv
.LBE6319:
.LBE6320:
.LBE6322:
	.loc 2 704 0
	lwz 0,132(1)
	lwz 30,120(1)
	mtlr 0
	lwz 31,124(1)
.LVL1297:
	addi 1,1,128
	.cfi_remember_state
.LCFI143:
	.cfi_def_cfa_offset 0
	.cfi_restore 31
	.cfi_restore 30
	blr
.LVL1298:
.L502:
.LCFI144:
	.cfi_restore_state
.LBB6323:
	.loc 2 702 0
	mr 3,31
	bl _ZN12idProjectile6FizzleEv
.LBE6323:
	.loc 2 704 0
	lwz 0,132(1)
	lwz 30,120(1)
	mtlr 0
	lwz 31,124(1)
.LVL1299:
	addi 1,1,128
	.cfi_remember_state
	.cfi_restore 30
	.cfi_restore 31
.LCFI145:
	.cfi_def_cfa_offset 0
	blr
.LVL1300:
.L505:
.LCFI146:
	.cfi_restore_state
.LBB6324:
.LBB6286:
.LBB6281:
.LBB6276:
.LBB6271:
	.loc 16 245 0
	lis 3,.LC30@ha
.LVL1301:
	la 3,.LC30@l(3)
	b .L501
.LBE6271:
.LBE6276:
.LBE6281:
.LBE6286:
.LBE6324:
	.cfi_endproc
.LFE2833:
	.size	_ZN12idProjectile6KilledEP8idEntityS1_iRK6idVec3i, .-_ZN12idProjectile6KilledEP8idEntityS1_iRK6idVec3i
	.align 2
	.globl _ZN12idProjectile11GetVelocityEPK6idDict
	.type	_ZN12idProjectile11GetVelocityEPK6idDict, @function
_ZN12idProjectile11GetVelocityEPK6idDict:
.LFB2844:
	.loc 2 953 0
	.cfi_startproc
.LVL1302:
	stwu 1,-16(1)
.LCFI147:
	.cfi_def_cfa_offset 16
	mflr 0
.LBB6325:
	.loc 2 956 0
	lis 5,.LC36@ha
.LBE6325:
	.loc 2 953 0
	stw 31,12(1)
	mr 31,3
	.cfi_offset 31, -4
	.cfi_register 65, 0
.LBB6326:
	.loc 2 956 0
	mr 3,4
.LVL1303:
	lis 4,.LC35@ha
.LVL1304:
	mr 6,31
	la 5,.LC36@l(5)
	la 4,.LC35@l(4)
.LBE6326:
	.loc 2 953 0
	stw 0,20(1)
.LBB6327:
	.loc 2 956 0
	.cfi_offset 65, 4
	bl _ZNK6idDict9GetVectorEPKcS1_R6idVec3
.LVL1305:
.LBE6327:
	.loc 2 958 0
	lwz 0,20(1)
	mr 3,31
	lwz 31,12(1)
.LVL1306:
	mtlr 0
	addi 1,1,16
.LCFI148:
	.cfi_def_cfa_offset 0
	.cfi_restore 31
	blr
	.cfi_endproc
.LFE2844:
	.size	_ZN12idProjectile11GetVelocityEPK6idDict, .-_ZN12idProjectile11GetVelocityEPK6idDict
	.align 2
	.globl _ZN12idProjectile10GetGravityEPK6idDict
	.type	_ZN12idProjectile10GetGravityEPK6idDict, @function
_ZN12idProjectile10GetGravityEPK6idDict:
.LFB2845:
	.loc 2 965 0
	.cfi_startproc
.LVL1307:
	stwu 1,-16(1)
.LCFI149:
	.cfi_def_cfa_offset 16
	mflr 0
	stw 31,12(1)
	mr 31,3
	.cfi_offset 31, -4
	.cfi_register 65, 0
.LBB6337:
.LBB6338:
.LBB6339:
.LBB6340:
.LBB6341:
	.loc 16 241 0
	mr 3,4
.LVL1308:
	lis 4,.LC43@ha
.LVL1309:
	la 4,.LC43@l(4)
.LBE6341:
.LBE6340:
.LBE6339:
.LBE6338:
.LBE6337:
	.loc 2 965 0
	stw 0,20(1)
.LBB6367:
.LBB6351:
.LBB6347:
.LBB6345:
.LBB6343:
	.loc 16 241 0
	.cfi_offset 65, 4
	bl _ZNK6idDict7FindKeyEPKc
.LVL1310:
	.loc 16 242 0
	cmpwi 0,3,0
	beq- 0,.L510
.LVL1311:
.LBB6342:
	.loc 2 2410 0
	lwz 9,4(3)
	lwz 3,4(9)
.LVL1312:
.LBE6342:
.LBE6343:
.LBE6345:
	.loc 16 249 0
	bl atof
.LVL1313:
.LBE6347:
.LBE6351:
.LBB6352:
.LBB6353:
	.loc 3 396 0
	li 0,0
.LBE6353:
.LBE6352:
.LBB6359:
.LBB6348:
	.loc 16 249 0
	frsp 1,1
.LVL1314:
.LBE6348:
.LBE6359:
.LBB6360:
.LBB6354:
	.loc 3 396 0
	stw 0,0(31)
	.loc 3 397 0
	stw 0,4(31)
.LBE6354:
.LBE6360:
.LBE6367:
	.loc 2 970 0
	mr 3,31
.LBB6368:
	.loc 2 969 0
	fneg 1,1
.LVL1315:
.LBB6361:
.LBB6355:
	.loc 3 398 0
	stfs 1,8(31)
.LBE6355:
.LBE6361:
.LBE6368:
	.loc 2 970 0
	lwz 0,20(1)
	lwz 31,12(1)
.LVL1316:
	mtlr 0
	addi 1,1,16
	.cfi_remember_state
.LCFI150:
	.cfi_def_cfa_offset 0
	.cfi_restore 31
	blr
.LVL1317:
.L510:
.LCFI151:
	.cfi_restore_state
.LBB6369:
.LBB6362:
.LBB6349:
.LBB6346:
.LBB6344:
	.loc 16 245 0
	lis 3,.LC30@ha
.LVL1318:
	la 3,.LC30@l(3)
.LBE6344:
.LBE6346:
	.loc 16 249 0
	bl atof
.LVL1319:
.LBE6349:
.LBE6362:
.LBB6363:
.LBB6356:
	.loc 3 396 0
	li 0,0
.LBE6356:
.LBE6363:
.LBB6364:
.LBB6350:
	.loc 16 249 0
	frsp 1,1
.LVL1320:
.LBE6350:
.LBE6364:
.LBB6365:
.LBB6357:
	.loc 3 396 0
	stw 0,0(31)
	.loc 3 397 0
	stw 0,4(31)
.LBE6357:
.LBE6365:
.LBE6369:
	.loc 2 970 0
	mr 3,31
.LBB6370:
	.loc 2 969 0
	fneg 1,1
.LVL1321:
.LBB6366:
.LBB6358:
	.loc 3 398 0
	stfs 1,8(31)
.LBE6358:
.LBE6366:
.LBE6370:
	.loc 2 970 0
	lwz 0,20(1)
	lwz 31,12(1)
.LVL1322:
	mtlr 0
	addi 1,1,16
	.cfi_restore 31
.LCFI152:
	.cfi_def_cfa_offset 0
	blr
	.cfi_endproc
.LFE2845:
	.size	_ZN12idProjectile10GetGravityEPK6idDict, .-_ZN12idProjectile10GetGravityEPK6idDict
	.align 2
	.globl _ZN12idProjectile23ClientPredictionCollideEP8idEntityRK6idDictRK7trace_sRK6idVec3b
	.type	_ZN12idProjectile23ClientPredictionCollideEP8idEntityRK6idDictRK7trace_sRK6idVec3b, @function
_ZN12idProjectile23ClientPredictionCollideEP8idEntityRK6idDictRK7trace_sRK6idVec3b:
.LFB2849:
	.loc 2 1027 0
	.cfi_startproc
.LVL1323:
	mflr 0
	stwu 1,-40(1)
.LCFI153:
	.cfi_def_cfa_offset 40
	.cfi_register 65, 0
	stw 25,12(1)
	mr 25,7
	.cfi_offset 25, -28
	stw 27,20(1)
	mr 27,6
	.cfi_offset 27, -20
	stw 28,24(1)
	mr 28,3
	.cfi_offset 28, -16
	stw 29,28(1)
	mr 29,4
	.cfi_offset 29, -12
	stw 30,32(1)
	mr 30,5
	.cfi_offset 30, -8
	stw 0,44(1)
	stw 26,16(1)
	stw 31,36(1)
.LBB6412:
	.loc 2 1031 0
	lwz 9,88(5)
	cmpwi 7,9,0
	beq- 7,.L512
	.cfi_offset 31, -4
	.cfi_offset 26, -24
	.cfi_offset 65, 4
	.loc 2 1031 0 is_stmt 0 discriminator 1
	lwz 0,100(9)
	.loc 2 1032 0 is_stmt 1 discriminator 1
	li 31,0
	.loc 2 1031 0 discriminator 1
	andi. 9,0,256
	beq- 0,.L512
.LVL1324:
.L513:
.LBE6412:
	.loc 2 1065 0
	lwz 0,44(1)
	mr 3,31
	lwz 25,12(1)
	mtlr 0
	lwz 26,16(1)
	lwz 27,20(1)
.LVL1325:
	lwz 28,24(1)
.LVL1326:
	lwz 29,28(1)
.LVL1327:
	lwz 30,32(1)
.LVL1328:
	lwz 31,36(1)
	addi 1,1,40
	.cfi_remember_state
.LCFI154:
	.cfi_def_cfa_offset 0
	.cfi_restore 31
	.cfi_restore 30
	.cfi_restore 29
	.cfi_restore 28
	.cfi_restore 27
	.cfi_restore 26
	.cfi_restore 25
	blr
.LVL1329:
.L512:
.LCFI155:
	.cfi_restore_state
.LBB6474:
	.loc 2 1036 0
	lwz 9,100(30)
	.loc 2 1038 0
	li 31,0
	.loc 2 1036 0
	addi 0,9,132
	lis 9,gameLocal@ha
	slwi 0,0,2
	la 9,gameLocal@l(9)
	add 9,9,0
	lwz 26,4(9)
.LVL1330:
	.loc 2 1037 0
	cmpwi 7,26,0
	beq- 7,.L513
.LVL1331:
.LBB6413:
.LBB6414:
	.loc 6 340 0
	lwz 9,0(26)
.LVL1332:
	mr 3,26
.LVL1333:
	lwz 0,0(9)
	mtctr 0
	bctrl
.LVL1334:
.LBE6414:
	.loc 2 2410 0
	lis 9,_ZN8idPlayer4TypeE@ha
	la 9,_ZN8idPlayer4TypeE@l(9)
	lwz 0,56(3)
.LBB6417:
.LBB6415:
.LBB6416:
	.loc 6 311 0
	lwz 11,56(9)
	cmpw 7,0,11
	blt- 7,.L514
	lwz 9,60(9)
	cmpw 7,0,9
	bgt- 7,.L514
.LBE6416:
.LBE6415:
.LBE6417:
.LBE6413:
	.loc 2 1042 0
	lbz 0,4628(26)
	cmpwi 7,0,0
	bne- 7,.L513
.L514:
.LVL1335:
.LBB6418:
.LBB6419:
	.loc 6 340 0
	lwz 9,0(26)
	mr 3,26
.LVL1336:
.LBE6419:
	.loc 2 2410 0
	lis 31,_ZN7idActor4TypeE@ha
.LBB6426:
	.loc 6 340 0
	lwz 0,0(9)
.LBE6426:
	.loc 2 2410 0
	la 31,_ZN7idActor4TypeE@l(31)
.LBB6427:
	.loc 6 340 0
	mtctr 0
	bctrl
.LVL1337:
.LBB6420:
.LBB6421:
	.loc 6 311 0
	lwz 9,56(31)
.LBE6421:
.LBE6420:
.LBE6427:
	.loc 2 2410 0
	lwz 0,56(3)
.LBB6428:
.LBB6424:
.LBB6422:
	.loc 6 311 0
	cmpw 7,0,9
	bge- 7,.L523
.L516:
.LVL1338:
.LBE6422:
.LBE6424:
.LBE6428:
.LBE6418:
.LBB6430:
.LBB6431:
	.loc 6 340 0
	lwz 9,0(26)
	mr 3,26
.LVL1339:
	lwz 0,0(9)
	mtctr 0
	bctrl
.LVL1340:
.LBE6431:
	.loc 2 2410 0
	lis 9,_ZN14idAFAttachment4TypeE@ha
	la 9,_ZN14idAFAttachment4TypeE@l(9)
	lwz 0,56(3)
.LBB6434:
.LBB6432:
.LBB6433:
	.loc 6 311 0
	lwz 11,56(9)
	cmpw 7,0,11
	blt- 7,.L517
	lwz 9,60(9)
	cmpw 7,0,9
	bgt- 7,.L517
.LBE6433:
.LBE6432:
.LBE6434:
.LBE6430:
