	.file	"Pvs.cpp"
	.section	".text"
.Ltext0:
	.section	.text._ZN14idFixedWinding5ClearEv,"axG",@progbits,_ZN14idFixedWinding5ClearEv,comdat
	.align 2
	.weak	_ZN14idFixedWinding5ClearEv
	.type	_ZN14idFixedWinding5ClearEv, @function
_ZN14idFixedWinding5ClearEv:
.LFB1502:
	.file 1 "d:/Data/Nintendo/DoomGX/src/game/../idlib/../idlib/geometry/Winding.h"
	.loc 1 398 0
	.cfi_startproc
.LVL0:
	.loc 1 399 0
	li 0,0
	.loc 1 400 0
	.loc 1 399 0
	stw 0,4(3)
	.loc 1 400 0
	blr
	.cfi_endproc
.LFE1502:
	.size	_ZN14idFixedWinding5ClearEv, .-_ZN14idFixedWinding5ClearEv
	.section	.text._ZN9idWinding5ClearEv,"axG",@progbits,_ZN9idWinding5ClearEv,comdat
	.align 2
	.weak	_ZN9idWinding5ClearEv
	.type	_ZN9idWinding5ClearEv, @function
_ZN9idWinding5ClearEv:
.LFB1473:
	.loc 1 249 0
	.cfi_startproc
.LVL1:
	mflr 0
	stwu 1,-16(1)
.LCFI0:
	.cfi_def_cfa_offset 16
	.cfi_register 65, 0
	stw 31,12(1)
	mr 31,3
	.cfi_offset 31, -4
	stw 0,20(1)
	.loc 1 250 0
	li 0,0
	.cfi_offset 65, 4
	.loc 1 251 0
	lwz 3,8(3)
.LVL2:
	.loc 1 250 0
	stw 0,4(31)
	.loc 1 251 0
	cmpwi 7,3,0
	beq- 7,.L3
	.loc 1 251 0 is_stmt 0 discriminator 1
	bl _ZdaPv
.L3:
	.loc 1 252 0 is_stmt 1
	li 0,0
	stw 0,8(31)
	.loc 1 253 0
	lwz 0,20(1)
	lwz 31,12(1)
.LVL3:
	mtlr 0
	addi 1,1,16
.LCFI1:
	.cfi_def_cfa_offset 0
	.cfi_restore 31
	blr
	.cfi_endproc
.LFE1473:
	.size	_ZN9idWinding5ClearEv, .-_ZN9idWinding5ClearEv
	.section	.text._ZN9idWindingD2Ev,"axG",@progbits,_ZN9idWindingD5Ev,comdat
	.align 2
	.weak	_ZN9idWindingD2Ev
	.type	_ZN9idWindingD2Ev, @function
_ZN9idWindingD2Ev:
.LFB1461:
	.loc 1 183 0
	.cfi_startproc
.LVL4:
	mflr 0
	stwu 1,-16(1)
.LCFI2:
	.cfi_def_cfa_offset 16
	.cfi_register 65, 0
.LBB844:
	lis 9,_ZTV9idWinding+8@ha
.LBE844:
	stw 31,12(1)
	mr 31,3
	.cfi_offset 31, -4
	stw 0,20(1)
.LBB845:
	.loc 1 183 0
	la 0,_ZTV9idWinding+8@l(9)
	.cfi_offset 65, 4
	.loc 1 184 0
	lwz 3,8(3)
.LVL5:
	.loc 1 183 0
	stw 0,0(31)
	.loc 1 184 0
	cmpwi 7,3,0
	beq- 7,.L6
	.loc 1 184 0 is_stmt 0 discriminator 1
	bl _ZdaPv
.L6:
	.loc 1 185 0 is_stmt 1
	li 0,0
	stw 0,8(31)
.LBE845:
	.loc 1 186 0
	lwz 0,20(1)
	lwz 31,12(1)
.LVL6:
	mtlr 0
	addi 1,1,16
.LCFI3:
	.cfi_def_cfa_offset 0
	.cfi_restore 31
	blr
	.cfi_endproc
.LFE1461:
	.size	_ZN9idWindingD2Ev, .-_ZN9idWindingD2Ev
	.section	.text._ZN9idWindingD0Ev,"axG",@progbits,_ZN9idWindingD5Ev,comdat
	.align 2
	.weak	_ZN9idWindingD0Ev
	.type	_ZN9idWindingD0Ev, @function
_ZN9idWindingD0Ev:
.LFB1463:
	.loc 1 183 0
	.cfi_startproc
.LVL7:
	mflr 0
	stwu 1,-16(1)
.LCFI4:
	.cfi_def_cfa_offset 16
	.cfi_register 65, 0
.LBB849:
.LBB850:
.LBB851:
	lis 9,_ZTV9idWinding+8@ha
.LBE851:
.LBE850:
.LBE849:
	stw 31,12(1)
	mr 31,3
	.cfi_offset 31, -4
.LVL8:
	stw 0,20(1)
.LBB856:
.LBB854:
.LBB852:
	.loc 1 183 0
	la 0,_ZTV9idWinding+8@l(9)
	.cfi_offset 65, 4
	.loc 1 184 0
	lwz 3,8(3)
.LVL9:
	.loc 1 183 0
	stw 0,0(31)
	.loc 1 184 0
	cmpwi 7,3,0
	beq- 7,.L9
	bl _ZdaPv
.LVL10:
.L9:
	.loc 1 185 0
	li 0,0
.LBE852:
.LBE854:
.LBE856:
	.loc 1 186 0
	mr 3,31
.LBB857:
.LBB855:
.LBB853:
	.loc 1 185 0
	stw 0,8(31)
.LBE853:
.LBE855:
.LBE857:
	.loc 1 186 0
	bl _ZdlPv
	lwz 0,20(1)
	lwz 31,12(1)
.LVL11:
	mtlr 0
	addi 1,1,16
.LCFI5:
	.cfi_def_cfa_offset 0
	.cfi_restore 31
	blr
	.cfi_endproc
.LFE1463:
	.size	_ZN9idWindingD0Ev, .-_ZN9idWindingD0Ev
	.section	.text._ZN14idFixedWindingD2Ev,"axG",@progbits,_ZN14idFixedWindingD5Ev,comdat
	.align 2
	.weak	_ZN14idFixedWindingD2Ev
	.type	_ZN14idFixedWindingD2Ev, @function
_ZN14idFixedWindingD2Ev:
.LFB1498:
	.loc 1 380 0
	.cfi_startproc
.LVL12:
.LBB863:
	.loc 1 381 0
	li 0,0
.LBB864:
.LBB865:
.LBB866:
	.loc 1 183 0
	lis 9,_ZTV9idWinding+8@ha
.LBE866:
.LBE865:
.LBE864:
	.loc 1 381 0
	stw 0,8(3)
.LVL13:
.LBB869:
.LBB868:
.LBB867:
	.loc 1 183 0
	la 0,_ZTV9idWinding+8@l(9)
	stw 0,0(3)
.LBE867:
.LBE868:
.LBE869:
.LBE863:
	.loc 1 382 0
	blr
	.cfi_endproc
.LFE1498:
	.size	_ZN14idFixedWindingD2Ev, .-_ZN14idFixedWindingD2Ev
	.section	.text._ZN14idFixedWindingD0Ev,"axG",@progbits,_ZN14idFixedWindingD5Ev,comdat
	.align 2
	.weak	_ZN14idFixedWindingD0Ev
	.type	_ZN14idFixedWindingD0Ev, @function
_ZN14idFixedWindingD0Ev:
.LFB1500:
	.loc 1 380 0
	.cfi_startproc
.LVL14:
	mflr 0
	stwu 1,-8(1)
.LCFI6:
	.cfi_def_cfa_offset 8
	.cfi_register 65, 0
.LBB876:
.LBB877:
.LBB878:
.LBB879:
.LBB880:
.LBB881:
	.loc 1 183 0
	lis 11,_ZTV9idWinding+8@ha
.LBE881:
.LBE880:
.LBE879:
.LBE878:
.LBE877:
.LBE876:
	.loc 1 380 0
	stw 0,12(1)
.LBB887:
.LBB886:
.LBB885:
	.loc 1 381 0
	li 0,0
	.cfi_offset 65, 4
	stw 0,8(3)
.LVL15:
.LBB884:
.LBB883:
.LBB882:
	.loc 1 183 0
	la 0,_ZTV9idWinding+8@l(11)
	stw 0,0(3)
.LBE882:
.LBE883:
.LBE884:
.LBE885:
.LBE886:
.LBE887:
	.loc 1 382 0
	bl _ZdlPv
.LVL16:
	lwz 0,12(1)
	addi 1,1,8
.LCFI7:
	.cfi_def_cfa_offset 0
	mtlr 0
	blr
	.cfi_endproc
.LFE1500:
	.size	_ZN14idFixedWindingD0Ev, .-_ZN14idFixedWindingD0Ev
	.section	".text"
	.align 2
	.globl _ZN5idPVSC2Ev
	.type	_ZN5idPVSC2Ev, @function
_ZN5idPVSC2Ev:
.LFB2811:
	.file 2 "d:/Data/Nintendo/DoomGX/src/game/Pvs.cpp"
	.loc 2 72 0
	.cfi_startproc
.LVL17:
	stwu 1,-16(1)
.LCFI8:
	.cfi_def_cfa_offset 16
	mflr 0
.LBB888:
	.loc 2 74 0
	li 4,140
.LBE888:
	.loc 2 72 0
	stw 31,12(1)
	mr 31,3
	.cfi_offset 31, -4
	.cfi_register 65, 0
.LBB889:
	.loc 2 74 0
	lis 3,.LC0@ha
.LVL18:
.LBE889:
	.loc 2 72 0
	stw 0,20(1)
.LBB890:
	.loc 2 74 0
	la 3,.LC0@l(3)
	.cfi_offset 65, 4
	crxor 6,6,6
	bl _Z15Sys_DebugPrintfPKcz
	.loc 2 79 0
	li 0,0
	.loc 2 84 0
	li 11,8
	.loc 2 79 0
	stw 0,0(31)
	.loc 2 80 0
	stw 0,4(31)
	.loc 2 88 0
	mtctr 11
	.loc 2 82 0
	stw 0,8(31)
	.loc 2 84 0
	mr 9,31
	.loc 2 83 0
	stw 0,12(31)
	.loc 2 87 0
	li 10,-1
	.loc 2 84 0
	stw 0,16(31)
.LVL19:
.L20:
	.loc 2 87 0 discriminator 2
	stw 10,20(9)
	.loc 2 89 0 discriminator 2
	addi 11,11,-1
	.loc 2 88 0 discriminator 2
	stw 0,24(9)
	.loc 2 89 0 discriminator 2
	stw 0,28(9)
	addi 9,9,12
	.loc 2 86 0 discriminator 2
	bdnz .L20
	.loc 2 92 0
	stw 11,136(31)
	.loc 2 93 0
	stw 11,132(31)
.LBE890:
	.loc 2 94 0
	lwz 0,20(1)
	lwz 31,12(1)
.LVL20:
	mtlr 0
	addi 1,1,16
.LCFI9:
	.cfi_def_cfa_offset 0
	.cfi_restore 31
	blr
	.cfi_endproc
.LFE2811:
	.size	_ZN5idPVSC2Ev, .-_ZN5idPVSC2Ev
	.align 2
	.globl _ZNK5idPVS14GetPortalCountEv
	.type	_ZNK5idPVS14GetPortalCountEv, @function
_ZNK5idPVS14GetPortalCountEv:
.LFB2816:
	.loc 2 110 0
	.cfi_startproc
.LVL21:
	stwu 1,-24(1)
.LCFI10:
	.cfi_def_cfa_offset 24
	mflr 0
	stw 28,8(1)
.LBB891:
	.loc 2 113 0
	lis 28,gameRenderWorld@ha
	.cfi_offset 28, -16
	.cfi_register 65, 0
.LBE891:
	.loc 2 110 0
	stw 29,12(1)
	stw 30,16(1)
.LBB892:
	.loc 2 114 0
	li 30,0
	.cfi_offset 30, -8
	.cfi_offset 29, -12
.LBE892:
	.loc 2 110 0
	stw 0,28(1)
	stw 31,20(1)
.LBB893:
	.loc 2 113 0
	lwz 3,gameRenderWorld@l(28)
.LVL22:
	lwz 9,0(3)
	lwz 0,100(9)
	.cfi_offset 31, -4
	.cfi_offset 65, 4
	mtctr 0
	bctrl
.LVL23:
	.loc 2 115 0
	mr. 29,3
	ble- 0,.L23
	li 31,0
	la 28,gameRenderWorld@l(28)
.LVL24:
.L24:
	.loc 2 116 0 discriminator 2
	lwz 3,0(28)
	mr 4,31
	.loc 2 115 0 discriminator 2
	addi 31,31,1
	.loc 2 116 0 discriminator 2
	lwz 9,0(3)
	lwz 0,112(9)
	mtctr 0
	bctrl
	.loc 2 115 0 discriminator 2
	cmpw 7,31,29
	.loc 2 116 0 discriminator 2
	add 30,30,3
.LVL25:
	.loc 2 115 0 discriminator 2
	bne+ 7,.L24
.LVL26:
.L23:
.LBE893:
	.loc 2 119 0
	lwz 0,28(1)
	mr 3,30
	lwz 28,8(1)
	mtlr 0
	lwz 29,12(1)
.LVL27:
	lwz 30,16(1)
	lwz 31,20(1)
	addi 1,1,24
.LCFI11:
	.cfi_def_cfa_offset 0
	.cfi_restore 31
	.cfi_restore 30
	.cfi_restore 29
	.cfi_restore 28
	blr
	.cfi_endproc
.LFE2816:
	.size	_ZNK5idPVS14GetPortalCountEv, .-_ZNK5idPVS14GetPortalCountEv
	.align 2
	.globl _ZN5idPVS13CreatePVSDataEv
	.type	_ZN5idPVS13CreatePVSDataEv, @function
_ZN5idPVS13CreatePVSDataEv:
.LFB2817:
	.loc 2 126 0
	.cfi_startproc
.LVL28:
	mflr 0
	stwu 1,-104(1)
.LCFI12:
	.cfi_def_cfa_offset 104
	.cfi_register 65, 0
	stw 30,80(1)
	mr 30,3
	.cfi_offset 30, -24
	stw 0,108(1)
	stfd 30,88(1)
	stfd 31,96(1)
	stw 20,40(1)
	stw 21,44(1)
	stw 22,48(1)
	stw 23,52(1)
	stw 24,56(1)
	stw 25,60(1)
	stw 26,64(1)
	stw 27,68(1)
	stw 28,72(1)
	stw 29,76(1)
	stw 31,84(1)
.LBB894:
	.loc 2 132 0
	lwz 3,4(3)
.LVL29:
	cmpwi 7,3,0
	bne- 7,.L52
	.cfi_offset 31, -20
	.cfi_offset 29, -28
	.cfi_offset 28, -32
	.cfi_offset 27, -36
	.cfi_offset 26, -40
	.cfi_offset 25, -44
	.cfi_offset 24, -48
	.cfi_offset 23, -52
	.cfi_offset 22, -56
	.cfi_offset 21, -60
	.cfi_offset 20, -64
	.cfi_offset 63, -8
	.cfi_offset 62, -16
	.cfi_offset 65, 4
.L27:
.LBE894:
	.loc 2 177 0
	lwz 0,108(1)
	lwz 20,40(1)
	mtlr 0
	lwz 21,44(1)
	lwz 22,48(1)
	lwz 23,52(1)
	lwz 24,56(1)
	lwz 25,60(1)
	lwz 26,64(1)
	lwz 27,68(1)
	lwz 28,72(1)
	lwz 29,76(1)
	lwz 30,80(1)
.LVL30:
	lwz 31,84(1)
	lfd 30,88(1)
	lfd 31,96(1)
	addi 1,1,104
	.cfi_remember_state
.LCFI13:
	.cfi_def_cfa_offset 0
	.cfi_restore 63
	.cfi_restore 62
	.cfi_restore 31
	.cfi_restore 30
	.cfi_restore 29
	.cfi_restore 28
	.cfi_restore 27
	.cfi_restore 26
	.cfi_restore 25
	.cfi_restore 24
	.cfi_restore 23
	.cfi_restore 22
	.cfi_restore 21
	.cfi_restore 20
	blr
.LVL31:
.L52:
.LCFI14:
	.cfi_restore_state
.LBB924:
	.loc 2 136 0
	slwi 3,3,6
	bl _Znaj
	.loc 2 137 0
	lwz 0,0(30)
	.loc 2 136 0
	stw 3,132(30)
	.loc 2 137 0
	slwi 3,0,5
	bl _Znaj
	.loc 2 138 0
	lwz 5,0(30)
	.loc 2 137 0
	stw 3,136(30)
	.loc 2 138 0
	li 4,0
	slwi 5,5,5
	bl memset
.LVL32:
	.loc 2 141 0
	lwz 3,4(30)
	slwi 3,3,2
	bl _Znaj
	.loc 2 143 0
	lwz 0,0(30)
	.loc 2 141 0
	mr 22,3
.LVL33:
	.loc 2 143 0
	cmpwi 7,0,0
	ble- 7,.L27
	lis 9,_ZN6idMath8INFINITYE@ha
	lis 26,gameRenderWorld@ha
	lfs 31,_ZN6idMath8INFINITYE@l(9)
	.loc 2 140 0
	li 23,0
	.loc 2 143 0
	li 27,0
	la 26,gameRenderWorld@l(26)
	fneg 30,31
	.loc 2 169 0
	li 24,0
.LVL34:
.L43:
	.loc 2 145 0
	lwz 31,136(30)
	.loc 2 126 0
	slwi 9,27,5
	.loc 2 147 0
	slwi 0,23,2
	.loc 2 149 0
	lwz 3,0(26)
	.loc 2 145 0
	add 31,31,9
.LVL35:
	.loc 2 147 0
	add 0,22,0
.LBB895:
.LBB896:
	.file 3 "d:/Data/Nintendo/DoomGX/src/game/../idlib/../idlib/bv/Bounds.h"
	.loc 3 202 0
	stfs 31,12(31)
.LBE896:
.LBE895:
	.loc 2 149 0
	mr 4,27
.LBB898:
.LBB897:
	.loc 3 202 0
	stfs 31,8(31)
	stfs 31,4(31)
.LVL36:
	.loc 3 203 0
	stfs 30,24(31)
	stfs 30,20(31)
	stfs 30,16(31)
.LBE897:
.LBE898:
	.loc 2 147 0
	stw 0,28(31)
	.loc 2 149 0
	lwz 9,0(3)
	lwz 0,112(9)
	mtctr 0
	bctrl
.LVL37:
	.loc 2 151 0
	mr. 25,3
	ble- 0,.L29
	slwi 28,23,6
	li 29,0
.LVL38:
.L42:
	.loc 2 153 0 discriminator 2
	lwz 4,0(26)
	mr 6,29
	mr 5,27
	addi 3,1,8
	lwz 9,0(4)
	lwz 0,116(9)
	mtctr 0
	bctrl
	.loc 2 157 0 discriminator 2
	lwz 3,16(1)
	.loc 2 155 0 discriminator 2
	lwz 20,132(30)
	.loc 2 157 0 discriminator 2
	bl _ZNK9idWinding4CopyEv
	.loc 2 158 0 discriminator 2
	lwz 0,12(1)
	.loc 2 155 0 discriminator 2
	add 21,20,28
.LVL39:
	.loc 2 157 0 discriminator 2
	stw 3,4(21)
	.loc 2 158 0 discriminator 2
	stwx 0,20,28
	.loc 2 160 0 discriminator 2
	lwz 3,116(30)
	bl _Znaj
	.loc 2 161 0 discriminator 2
	li 4,0
	.loc 2 160 0 discriminator 2
	stw 3,56(21)
	.loc 2 161 0 discriminator 2
	lwz 5,116(30)
	bl memset
	.loc 2 162 0 discriminator 2
	lwz 3,116(30)
	bl _Znaj
	.loc 2 163 0 discriminator 2
	li 4,0
	.loc 2 162 0 discriminator 2
	stw 3,60(21)
	.loc 2 163 0 discriminator 2
	lwz 5,116(30)
	bl memset
	.loc 2 164 0 discriminator 2
	lwz 3,4(21)
	addi 4,21,8
	bl _ZNK9idWinding9GetBoundsER8idBounds
	.loc 2 165 0 discriminator 2
	lwz 3,4(21)
	addi 4,21,32
	bl _ZNK9idWinding8GetPlaneER7idPlane
.LVL40:
.LBB899:
.LBB900:
	.file 4 "d:/Data/Nintendo/DoomGX/src/game/../idlib/../idlib/math/Plane.h"
	.loc 4 163 0 discriminator 2
	lfs 11,36(21)
	lfs 12,40(21)
	lfs 0,44(21)
	fneg 11,11
	lfs 13,32(21)
	fneg 12,12
	fneg 0,0
.LVL41:
.LBE900:
.LBE899:
	.loc 2 169 0 discriminator 2
	stb 24,52(21)
.LBB902:
.LBB901:
	.loc 4 163 0 discriminator 2
	fneg 13,13
	.loc 2 167 0 discriminator 2
	stfs 11,36(21)
	stfs 12,40(21)
	stfs 0,44(21)
	stfs 13,32(21)
.LBE901:
.LBE902:
	.loc 2 171 0 discriminator 2
	lwz 0,0(31)
	lwz 9,28(31)
	slwi 0,0,2
	stwx 21,9,0
	.loc 2 172 0 discriminator 2
	lwz 9,0(31)
.LBB903:
.LBB904:
.LBB905:
	.loc 3 257 0 discriminator 2
	lfs 0,4(31)
.LVL42:
.LBE905:
.LBE904:
.LBE903:
	.loc 2 172 0 discriminator 2
	addi 0,9,1
	stw 0,0(31)
.LVL43:
.LBB922:
.LBB920:
.LBB918:
.LBB906:
.LBB907:
	.file 5 "d:/Data/Nintendo/DoomGX/src/game/../idlib/../idlib/math/Vector.h"
	.loc 5 402 0 discriminator 2
	lfs 13,8(21)
.LVL44:
.LBE907:
.LBE906:
	.loc 3 257 0 discriminator 2
	fcmpu 7,13,0
	bnl- 7,.L30
	.loc 3 258 0
	fmr 0,13
.L30:
	.loc 3 257 0
	stfs 0,4(31)
.LVL45:
	.loc 3 261 0
	lfs 0,8(31)
.LBB908:
.LBB909:
	.loc 5 402 0
	lfs 13,12(21)
.LVL46:
.LBE909:
.LBE908:
	.loc 3 261 0
	fcmpu 7,13,0
	bnl- 7,.L32
	.loc 3 262 0
	fmr 0,13
.L32:
	.loc 3 261 0
	stfs 0,8(31)
.LVL47:
	.loc 3 265 0
	lfs 0,12(31)
.LBB910:
.LBB911:
	.loc 5 402 0
	lfs 13,16(21)
.LVL48:
.LBE911:
.LBE910:
	.loc 3 265 0
	fcmpu 7,13,0
	bnl- 7,.L34
	.loc 3 266 0
	fmr 0,13
.L34:
	.loc 3 265 0
	stfs 0,12(31)
.LVL49:
	.loc 3 269 0
	lfs 0,16(31)
.LBB912:
.LBB913:
	.loc 5 402 0
	lfs 13,20(21)
.LVL50:
.LBE913:
.LBE912:
	.loc 3 269 0
	fcmpu 7,13,0
	bng- 7,.L36
	.loc 3 270 0
	fmr 0,13
.L36:
	.loc 3 269 0
	stfs 0,16(31)
.LVL51:
	.loc 3 273 0
	lfs 0,20(31)
.LBB914:
.LBB915:
	.loc 5 402 0
	lfs 13,24(21)
.LVL52:
.LBE915:
.LBE914:
	.loc 3 273 0
	fcmpu 7,13,0
	bng- 7,.L38
	.loc 3 274 0
	fmr 0,13
.L38:
	.loc 3 273 0
	stfs 0,20(31)
.LVL53:
	.loc 3 277 0
	lfs 0,24(31)
.LBB916:
.LBB917:
	.loc 5 402 0
	lfs 13,28(21)
.LVL54:
.LBE917:
.LBE916:
	.loc 3 277 0
	fcmpu 7,13,0
	bng- 7,.L40
	.loc 3 278 0
	fmr 0,13
.L40:
.LBE918:
.LBE920:
.LBE922:
	.loc 2 151 0
	addi 29,29,1
.LBB923:
.LBB921:
.LBB919:
	.loc 3 277 0
	stfs 0,24(31)
.LVL55:
.LBE919:
.LBE921:
.LBE923:
	.loc 2 151 0
	cmpw 7,29,25
	addi 28,28,64
	bne+ 7,.L42
	.loc 2 126 0
	add 23,29,23
.LVL56:
.L29:
	.loc 2 143 0
	lwz 0,0(30)
	addi 27,27,1
.LVL57:
	cmpw 7,0,27
	bgt+ 7,.L43
	b .L27
.LBE924:
	.cfi_endproc
.LFE2817:
	.size	_ZN5idPVS13CreatePVSDataEv, .-_ZN5idPVS13CreatePVSDataEv
	.align 2
	.globl _ZN5idPVS14DestroyPVSDataEv
	.type	_ZN5idPVS14DestroyPVSDataEv, @function
_ZN5idPVS14DestroyPVSDataEv:
.LFB2824:
	.loc 2 184 0
	.cfi_startproc
.LVL58:
	mflr 0
	stwu 1,-24(1)
.LCFI15:
	.cfi_def_cfa_offset 24
	.cfi_register 65, 0
	stw 30,16(1)
	mr 30,3
	.cfi_offset 30, -8
	stw 0,28(1)
	stw 29,12(1)
	stw 31,20(1)
.LBB925:
	.loc 2 187 0
	lwz 9,136(3)
	cmpwi 7,9,0
	beq- 7,.L53
	.cfi_offset 31, -4
	.cfi_offset 29, -12
	.cfi_offset 65, 4
	.loc 2 192 0
	lwz 3,28(9)
.LVL59:
	cmpwi 7,3,0
	beq- 7,.L55
	.loc 2 192 0 is_stmt 0 discriminator 1
	bl _ZdaPv
	.loc 2 195 0 is_stmt 1 discriminator 1
	lwz 9,136(30)
	cmpwi 7,9,0
	beq- 7,.L56
.L55:
	mr 3,9
	bl _ZdaPv
.L56:
	.loc 2 199 0
	lwz 0,4(30)
	cmpwi 7,0,0
	.loc 2 196 0
	li 0,0
	stw 0,136(30)
.LVL60:
	.loc 2 199 0
	lwz 0,132(30)
	ble- 7,.L58
	li 31,0
.LVL61:
.L62:
	.loc 2 184 0
	slwi 29,31,6
	.loc 2 199 0
	addi 31,31,1
	.loc 2 200 0
	add 9,0,29
	lwz 3,56(9)
	cmpwi 7,3,0
	beq- 7,.L59
	.loc 2 200 0 is_stmt 0 discriminator 1
	bl _ZdaPv
	lwz 0,132(30)
	add 9,0,29
.L59:
	.loc 2 201 0 is_stmt 1
	lwz 3,60(9)
	cmpwi 7,3,0
	beq- 7,.L60
	.loc 2 201 0 is_stmt 0 discriminator 1
	bl _ZdaPv
	lwz 0,132(30)
	add 9,0,29
.L60:
	.loc 2 202 0 is_stmt 1
	lwz 9,4(9)
	cmpwi 7,9,0
	mr 3,9
	beq- 7,.L61
	.loc 2 202 0 is_stmt 0 discriminator 1
	lwz 9,0(9)
	lwz 0,4(9)
	mtctr 0
	bctrl
	lwz 0,132(30)
.L61:
.LVL62:
	.loc 2 199 0 is_stmt 1
	lwz 9,4(30)
	cmpw 7,9,31
	bgt+ 7,.L62
.LVL63:
.L58:
	.loc 2 206 0
	cmpwi 7,0,0
	beq- 7,.L63
	.loc 2 206 0 is_stmt 0 discriminator 1
	mr 3,0
	bl _ZdaPv
.L63:
	.loc 2 207 0 is_stmt 1
	li 0,0
	stw 0,132(30)
.L53:
.LBE925:
	.loc 2 208 0
	lwz 0,28(1)
	lwz 29,12(1)
	mtlr 0
	lwz 30,16(1)
.LVL64:
	lwz 31,20(1)
	addi 1,1,24
.LCFI16:
	.cfi_def_cfa_offset 0
	.cfi_restore 31
	.cfi_restore 30
	.cfi_restore 29
	blr
	.cfi_endproc
.LFE2824:
	.size	_ZN5idPVS14DestroyPVSDataEv, .-_ZN5idPVS14DestroyPVSDataEv
	.align 2
	.globl _ZNK5idPVS21FloodFrontPortalPVS_rEP11pvsPortal_si
	.type	_ZNK5idPVS21FloodFrontPortalPVS_rEP11pvsPortal_si, @function
_ZNK5idPVS21FloodFrontPortalPVS_rEP11pvsPortal_si:
.LFB2825:
	.loc 2 215 0
	.cfi_startproc
.LVL65:
	mflr 0
	stwu 1,-32(1)
.LCFI17:
	.cfi_def_cfa_offset 32
	.cfi_register 65, 0
.LBB926:
	.loc 2 220 0
	slwi 5,5,5
.LVL66:
.LBE926:
	.loc 2 215 0
	stw 28,16(1)
	mr 28,3
	.cfi_offset 28, -16
	stw 29,20(1)
	mr 29,4
	.cfi_offset 29, -12
	stw 30,24(1)
	stw 0,36(1)
	stw 27,12(1)
	stw 31,28(1)
.LBB927:
	.loc 2 220 0
	lwz 9,136(3)
	.loc 2 222 0
	lwzx 0,9,5
	.cfi_offset 31, -4
	.cfi_offset 27, -20
	.cfi_offset 65, 4
	.cfi_offset 30, -8
	.loc 2 220 0
	add 30,9,5
.LVL67:
	.loc 2 222 0
	cmpwi 7,0,0
	ble- 7,.L65
	li 31,0
	.loc 2 234 0
	li 27,1
	b .L68
.LVL68:
.L67:
	.loc 2 222 0
	lwz 0,0(30)
	cmpw 7,0,31
	ble- 7,.L65
.LVL69:
.L68:
	.loc 2 223 0
	lwz 9,28(30)
	slwi 0,31,2
	.loc 2 226 0
	lwz 10,60(29)
	.loc 2 222 0
	addi 31,31,1
	.loc 2 223 0
	lwzx 9,9,0
.LVL70:
	.loc 2 224 0
	lwz 0,132(28)
.LVL71:
	subf 0,0,9
.LVL72:
	.loc 2 226 0
	srawi 11,0,9
	rlwinm 0,0,26,29,31
.LVL73:
	lbzx 10,10,11
	sraw 10,10,0
	andi. 6,10,1
	beq- 0,.L67
	.loc 2 230 0
	lwz 10,56(29)
	lbzx 8,10,11
	sraw 7,8,0
	andi. 6,7,1
	bne+ 0,.L67
	.loc 2 234 0
	slw 0,27,0
	.loc 2 236 0
	mr 3,28
	.loc 2 234 0
	or 8,8,0
	.loc 2 236 0
	mr 4,29
	.loc 2 234 0
	stbx 8,10,11
	.loc 2 236 0
	lwz 5,0(9)
	bl _ZNK5idPVS21FloodFrontPortalPVS_rEP11pvsPortal_si
.LVL74:
	.loc 2 222 0
	lwz 0,0(30)
	cmpw 7,0,31
	bgt+ 7,.L68
.LVL75:
.L65:
.LBE927:
	.loc 2 238 0
	lwz 0,36(1)
	lwz 27,12(1)
	mtlr 0
	lwz 28,16(1)
.LVL76:
	lwz 29,20(1)
.LVL77:
	lwz 30,24(1)
.LVL78:
	lwz 31,28(1)
	addi 1,1,32
.LCFI18:
	.cfi_def_cfa_offset 0
	.cfi_restore 31
	.cfi_restore 30
	.cfi_restore 29
	.cfi_restore 28
	.cfi_restore 27
	blr
	.cfi_endproc
.LFE2825:
	.size	_ZNK5idPVS21FloodFrontPortalPVS_rEP11pvsPortal_si, .-_ZNK5idPVS21FloodFrontPortalPVS_rEP11pvsPortal_si
	.align 2
	.globl _ZNK5idPVS14FrontPortalPVSEv
	.type	_ZNK5idPVS14FrontPortalPVSEv, @function
_ZNK5idPVS14FrontPortalPVSEv:
.LFB2826:
	.loc 2 245 0
	.cfi_startproc
.LVL79:
	mflr 0
	stwu 1,-88(1)
.LCFI19:
	.cfi_def_cfa_offset 88
	.cfi_register 65, 0
	mfcr 12
	stw 31,68(1)
	mr 31,3
	.cfi_offset 31, -20
	.cfi_register 70, 12
	stw 0,92(1)
	stfd 30,72(1)
	stfd 31,80(1)
	stw 18,16(1)
	stw 19,20(1)
	stw 20,24(1)
	stw 21,28(1)
	stw 22,32(1)
	stw 23,36(1)
	stw 24,40(1)
	stw 25,44(1)
	stw 26,48(1)
	stw 27,52(1)
	stw 28,56(1)
	stw 29,60(1)
	stw 30,64(1)
	stw 12,12(1)
.LBB928:
	.loc 2 250 0
	lwz 9,4(3)
	cmpwi 7,9,0
	ble- 7,.L70
	.cfi_offset 70, -76
	.cfi_offset 30, -24
	.cfi_offset 29, -28
	.cfi_offset 28, -32
	.cfi_offset 27, -36
	.cfi_offset 26, -40
	.cfi_offset 25, -44
	.cfi_offset 24, -48
	.cfi_offset 23, -52
	.cfi_offset 22, -56
	.cfi_offset 21, -60
	.cfi_offset 20, -64
	.cfi_offset 19, -68
	.cfi_offset 18, -72
	.cfi_offset 63, -8
	.cfi_offset 62, -16
	.cfi_offset 65, 4
	lwz 0,0(3)
	li 19,0
	lis 18,.LC1@ha
	.loc 2 313 0
	li 20,1
.LBB929:
.LBB930:
	.loc 4 333 0
	lis 24,.LC2@ha
.LVL80:
.L83:
.LBE930:
.LBE929:
	.loc 2 253 0
	cmpwi 7,0,0
	.loc 2 251 0
	lwz 29,132(31)
	.loc 2 245 0
	slwi 11,19,6
	.loc 2 251 0
	add 29,29,11
.LVL81:
	.loc 2 253 0
	ble- 7,.L72
	.loc 2 257 0
	lfs 30,.LC1@l(18)
	.loc 2 253 0
	li 21,0
	addi 22,29,32
	la 27,.LC1@l(18)
	.loc 2 278 0
	addi 23,29,8
.LVL82:
.L82:
	.loc 2 255 0
	lwz 28,136(31)
	.loc 2 245 0
	slwi 30,21,5
	.loc 2 257 0
	fmr 1,30
	mr 4,22
	.loc 2 255 0
	add 26,28,30
.LVL83:
	.loc 2 257 0
	addi 3,26,4
	bl _ZNK8idBounds9PlaneSideERK7idPlanef
.LVL84:
	.loc 2 260 0
	cmpwi 7,3,1
	beq- 7,.L73
.LVL85:
	.loc 2 264 0 discriminator 1
	lwzx 0,28,30
	cmpwi 7,0,0
	ble- 7,.L73
	mr 25,3
	cmpwi 4,3,0
	.loc 2 264 0 is_stmt 0
	li 28,0
	b .L81
.LVL86:
.L92:
.LBB940:
.LBB935:
	.loc 4 333 0 is_stmt 1
	lfs 13,.LC2@l(24)
	fcmpu 7,0,13
	bnl- 7,.L79
.LVL87:
.L78:
.LBE935:
.LBE940:
	.loc 2 312 0
	lwz 0,132(31)
	.loc 2 313 0
	lwz 9,60(29)
	.loc 2 312 0
	subf 30,0,30
.LVL88:
	.loc 2 313 0
	srawi 0,30,9
	rlwinm 30,30,26,29,31
.LVL89:
	lbzx 11,9,0
	slw 30,20,30
	or 30,11,30
	stbx 30,9,0
.LVL90:
.L75:
	.loc 2 264 0
	lwz 0,0(26)
	addi 28,28,1
.LVL91:
	cmpw 7,0,28
	ble- 7,.L73
.LVL92:
.L81:
	.loc 2 266 0
	lwz 9,28(26)
	slwi 0,28,2
	lwzx 30,9,0
.LVL93:
	.loc 2 269 0
	beq- 4,.L74
	.loc 2 271 0
	lfs 1,0(27)
	addi 3,30,8
	mr 4,22
	bl _ZNK8idBounds9PlaneSideERK7idPlanef
.LVL94:
	.loc 2 272 0
	cmpwi 7,3,1
	.loc 2 271 0
	mr 25,3
.LVL95:
	.loc 2 272 0
	beq- 7,.L75
.LVL96:
.L74:
	.loc 2 278 0
	lfs 31,0(27)
	mr 3,23
	addi 4,30,32
	fmr 1,31
	bl _ZNK8idBounds9PlaneSideERK7idPlanef
.LVL97:
	.loc 2 279 0
	cmpwi 0,3,0
	beq- 0,.L75
	.loc 2 284 0
	cmpwi 7,25,0
	bne- 7,.L91
.L76:
	.loc 2 298 0
	cmpwi 7,3,1
	beq- 7,.L78
.LVL98:
	.loc 2 300 0 discriminator 1
	lwz 9,4(29)
	.loc 2 1388 0 discriminator 1
	lwz 0,4(9)
	.loc 2 300 0 discriminator 1
	cmpwi 7,0,0
	ble- 7,.L75
	.loc 2 300 0 is_stmt 0
	lfs 7,32(30)
.LBB941:
.LBB936:
	.loc 4 333 0 is_stmt 1
	mtctr 0
.LBE936:
.LBE941:
	.loc 2 300 0
	lfs 8,36(30)
	lfs 9,40(30)
	lfs 10,44(30)
.LBB942:
.LBB937:
	.loc 4 330 0
	lfs 11,0(27)
.LBE937:
.LBE942:
	.loc 2 300 0
	lwz 10,8(9)
	li 9,0
.LVL99:
.L80:
.LBB943:
.LBB944:
	.loc 1 209 0
	add 11,10,9
.LVL100:
.LBE944:
.LBE943:
.LBB945:
.LBB938:
.LBB931:
.LBB932:
	.loc 4 325 0
	lfsx 12,10,9
	lfs 0,4(11)
.LBE932:
.LBE931:
.LBE938:
.LBE945:
	.loc 2 300 0
	addi 9,9,20
.LBB946:
.LBB939:
.LBB934:
.LBB933:
	.loc 4 325 0
	lfs 13,8(11)
	fmuls 0,8,0
	fmadds 0,12,7,0
	fmadds 0,13,9,0
	fadds 0,0,10
.LBE933:
.LBE934:
	.loc 4 330 0
	fcmpu 7,0,11
	bng- 7,.L92
.L79:
.LBE939:
.LBE946:
	.loc 2 300 0
	bdnz .L80
	.loc 2 264 0
	lwz 0,0(26)
	addi 28,28,1
.LVL101:
	cmpw 7,0,28
	bgt+ 7,.L81
.LVL102:
.L73:
	.loc 2 253 0
	lwz 0,0(31)
	addi 21,21,1
.LVL103:
	cmpw 7,0,21
	bgt+ 7,.L82
	lwz 9,4(31)
.LVL104:
.L72:
	.loc 2 250 0
	addi 19,19,1
.LVL105:
	cmpw 7,9,19
	bgt+ 7,.L83
.LVL106:
	.loc 2 319 0 discriminator 1
	cmpwi 7,9,0
	ble- 7,.L70
	.loc 2 319 0 is_stmt 0
	li 30,0
.LVL107:
.L84:
	.loc 2 320 0 is_stmt 1 discriminator 2
	lwz 4,132(31)
	.loc 2 245 0 discriminator 2
	slwi 0,30,6
.LVL108:
	.loc 2 321 0 discriminator 2
	mr 3,31
	.loc 2 319 0 discriminator 2
	addi 30,30,1
	.loc 2 321 0 discriminator 2
	lwzx 5,4,0
	add 4,4,0
	bl _ZNK5idPVS21FloodFrontPortalPVS_rEP11pvsPortal_si
.LVL109:
	.loc 2 319 0 discriminator 2
	lwz 0,4(31)
	cmpw 7,0,30
	bgt+ 7,.L84
.LVL110:
.L70:
.LBE928:
	.loc 2 323 0
	lwz 0,92(1)
	lwz 12,12(1)
	mtlr 0
	lwz 18,16(1)
	lwz 19,20(1)
	mtcrf 8,12
	lwz 20,24(1)
	lwz 21,28(1)
	lwz 22,32(1)
	lwz 23,36(1)
	lwz 24,40(1)
	lwz 25,44(1)
	lwz 26,48(1)
	lwz 27,52(1)
	lwz 28,56(1)
	lwz 29,60(1)
	lwz 30,64(1)
	lwz 31,68(1)
.LVL111:
	lfd 30,72(1)
	lfd 31,80(1)
	addi 1,1,88
	.cfi_remember_state
.LCFI20:
	.cfi_def_cfa_offset 0
	.cfi_restore 70
	.cfi_restore 63
	.cfi_restore 62
	.cfi_restore 31
	.cfi_restore 30
	.cfi_restore 29
	.cfi_restore 28
	.cfi_restore 27
	.cfi_restore 26
	.cfi_restore 25
	.cfi_restore 24
	.cfi_restore 23
	.cfi_restore 22
	.cfi_restore 21
	.cfi_restore 20
	.cfi_restore 19
	.cfi_restore 18
	blr
.LVL112:
.L91:
.LCFI21:
	.cfi_restore_state
.LBB959:
	.loc 2 286 0 discriminator 1
	lwz 9,4(30)
	.loc 2 1388 0 discriminator 1
	lwz 0,4(9)
	.loc 2 286 0 discriminator 1
	cmpwi 7,0,0
	ble- 7,.L75
	.loc 2 286 0 is_stmt 0
	lfs 8,32(29)
.LBB947:
.LBB948:
	.loc 4 330 0 is_stmt 1
	mtctr 0
.LBE948:
.LBE947:
	.loc 2 286 0
	lfs 9,36(29)
	lfs 10,40(29)
	lfs 11,44(29)
	lwz 10,8(9)
	li 9,0
.LVL113:
.L77:
.LBB955:
.LBB956:
	.loc 1 209 0
	add 11,10,9
.LVL114:
.LBE956:
.LBE955:
.LBB957:
.LBB953:
.LBB949:
.LBB950:
	.loc 4 325 0
	lfsx 12,10,9
	lfs 0,4(11)
.LBE950:
.LBE949:
.LBE953:
.LBE957:
	.loc 2 286 0
	addi 9,9,20
.LBB958:
.LBB954:
.LBB952:
.LBB951:
	.loc 4 325 0
	lfs 13,8(11)
	fmuls 0,9,0
	fmadds 0,12,8,0
	fmadds 0,13,10,0
	fadds 0,0,11
.LBE951:
.LBE952:
	.loc 4 330 0
	fcmpu 7,0,31
	bgt- 7,.L76
.LBE954:
.LBE958:
	.loc 2 286 0
	bdnz .L77
	b .L75
.LBE959:
	.cfi_endproc
.LFE2826:
	.size	_ZNK5idPVS14FrontPortalPVSEv, .-_ZNK5idPVS14FrontPortalPVSEv
	.align 2
	.globl _ZNK5idPVS17FloodPassagePVS_rEP11pvsPortal_sPKS0_P10pvsStack_s
	.type	_ZNK5idPVS17FloodPassagePVS_rEP11pvsPortal_sPKS0_P10pvsStack_s, @function
_ZNK5idPVS17FloodPassagePVS_rEP11pvsPortal_sPKS0_P10pvsStack_s:
.LFB2827:
	.loc 2 330 0
	.cfi_startproc
.LVL115:
	mflr 0
	stwu 1,-40(1)
.LCFI22:
	.cfi_def_cfa_offset 40
	.cfi_register 65, 0
	stw 26,16(1)
	mr 26,4
	.cfi_offset 26, -24
	stw 27,20(1)
	mr 27,5
	.cfi_offset 27, -20
	stw 28,24(1)
	mr 28,6
	.cfi_offset 28, -16
	stw 29,28(1)
	stw 31,36(1)
	mr 31,3
	.cfi_offset 31, -4
	.cfi_offset 29, -12
	stw 0,44(1)
	stw 24,8(1)
	stw 25,12(1)
	stw 30,32(1)
.LBB960:
	.loc 2 340 0
	lwz 25,0(6)
	.cfi_offset 30, -8
	.cfi_offset 25, -28
	.cfi_offset 24, -32
	.cfi_offset 65, 4
	.loc 2 338 0
	lwz 30,0(5)
	.loc 2 342 0
	cmpwi 7,25,0
	.loc 2 338 0
	lwz 24,136(3)
	slwi 30,30,5
	add 29,24,30
.LVL116:
	.loc 2 342 0
	beq- 7,.L106
.LVL117:
.L94:
	.loc 2 350 0
	lwzx 0,24,30
	cmpwi 7,0,0
	ble- 7,.L95
	li 30,0
	.loc 2 368 0
	li 24,1
.LVL118:
.L102:
	.loc 2 352 0
	lwz 10,48(27)
	.loc 2 330 0
	slwi 0,30,2
.LVL119:
	.loc 2 355 0
	lwzx 9,10,0
	cmpwi 7,9,0
	beq- 7,.L96
	.loc 2 359 0
	lwz 9,28(29)
	.loc 2 360 0
	lwz 11,132(31)
	.loc 2 359 0
	lwzx 5,9,0
.LVL120:
	.loc 2 363 0
	lwz 8,4(28)
	.loc 2 360 0
	subf 11,11,5
.LVL121:
	.loc 2 363 0
	srawi 9,11,9
	rlwinm 11,11,26,29,31
.LVL122:
	lbzx 8,8,9
	sraw 8,8,11
	andi. 7,8,1
	beq- 0,.L96
	.loc 2 368 0
	lwz 8,56(26)
	slw 11,24,11
	lbzx 7,8,9
	or 11,7,11
	stbx 11,8,9
	.loc 2 378 0
	lbz 9,52(5)
	.loc 2 372 0
	lwzx 7,10,0
	.loc 2 378 0
	cmpwi 7,9,0
	.loc 2 371 0
	lwz 6,4(28)
.LVL123:
	.loc 2 373 0
	lwz 8,56(26)
.LVL124:
	.loc 2 374 0
	lwz 10,4(25)
.LVL125:
	.loc 2 380 0
	lwz 0,120(31)
.LVL126:
	.loc 2 378 0
	bne- 7,.L97
.LVL127:
	.loc 2 391 0 discriminator 1
	cmpwi 7,0,0
	ble- 7,.L96
	.loc 2 330 0
	addi 6,6,-4
	addi 7,7,-4
.LVL128:
	addi 8,8,-4
	addi 10,10,-4
	li 0,0
	li 9,0
.LVL129:
.L101:
	.loc 2 393 0 discriminator 2
	lwzu 4,4(7)
	.loc 2 391 0 discriminator 2
	addi 9,9,1
	.loc 2 393 0 discriminator 2
	lwzu 11,4(6)
	.loc 2 395 0 discriminator 2
	lwzu 3,4(8)
	.loc 2 393 0 discriminator 2
	and 11,4,11
.LVL130:
	.loc 2 397 0 discriminator 2
	stwu 11,4(10)
	.loc 2 395 0 discriminator 2
	andc 11,11,3
.LVL131:
	or 0,0,11
.LVL132:
	.loc 2 391 0 discriminator 2
	lwz 4,120(31)
	cmpw 7,4,9
	bgt+ 7,.L101
	.loc 2 402 0
	cmpwi 7,0,0
	bne- 7,.L107
.LVL133:
.L96:
	.loc 2 350 0
	lwz 0,0(29)
	addi 30,30,1
.LVL134:
	cmpw 7,0,30
	bgt+ 7,.L102
.LVL135:
.L95:
.LBE960:
	.loc 2 411 0
	lwz 0,44(1)
	mr 3,25
	lwz 24,8(1)
	mtlr 0
	lwz 25,12(1)
.LVL136:
	lwz 26,16(1)
.LVL137:
	lwz 27,20(1)
.LVL138:
	lwz 28,24(1)
.LVL139:
	lwz 29,28(1)
.LVL140:
	lwz 30,32(1)
	lwz 31,36(1)
.LVL141:
	addi 1,1,40
	.cfi_remember_state
.LCFI23:
	.cfi_def_cfa_offset 0
	.cfi_restore 31
	.cfi_restore 30
	.cfi_restore 29
	.cfi_restore 28
	.cfi_restore 27
	.cfi_restore 26
	.cfi_restore 25
	.cfi_restore 24
	blr
.LVL142:
.L97:
.LCFI24:
	.cfi_restore_state
.LBB961:
	.loc 2 380 0
	cmpwi 7,0,0
	.loc 2 379 0
	lwz 4,56(5)
.LVL143:
	.loc 2 380 0
	ble- 7,.L96
	.loc 2 330 0
	addi 6,6,-4
.LVL144:
	addi 7,7,-4
.LVL145:
	addi 4,4,-4
	addi 8,8,-4
.LVL146:
	addi 10,10,-4
.LVL147:
	.loc 2 376 0
	li 0,0
	.loc 2 380 0
	li 9,0
.LVL148:
.L99:
	.loc 2 382 0 discriminator 2
	lwzu 12,4(7)
	.loc 2 380 0 discriminator 2
	addi 9,9,1
	.loc 2 382 0 discriminator 2
	lwzu 11,4(6)
	lwzu 3,4(4)
	and 11,12,11
	.loc 2 384 0 discriminator 2
	lwzu 12,4(8)
	.loc 2 382 0 discriminator 2
	and 11,11,3
.LVL149:
	.loc 2 386 0 discriminator 2
	stwu 11,4(10)
	.loc 2 384 0 discriminator 2
	andc 11,11,12
.LVL150:
	or 0,0,11
.LVL151:
	.loc 2 380 0 discriminator 2
	lwz 3,120(31)
	cmpw 7,3,9
	bgt+ 7,.L99
	.loc 2 402 0
	cmpwi 7,0,0
	beq+ 7,.L96
.LVL152:
.L107:
	.loc 2 407 0
	mr 3,31
	mr 4,26
	mr 6,25
	bl _ZNK5idPVS17FloodPassagePVS_rEP11pvsPortal_sPKS0_P10pvsStack_s
.LVL153:
	stw 3,0(25)
	b .L96
.L106:
	.loc 2 343 0
	lwz 3,116(3)
	addi 3,3,8
	bl _Znaj
	.loc 2 344 0
	addi 0,3,8
	.loc 2 343 0
	mr 25,3
.LVL154:
	.loc 2 344 0
	stw 0,4(3)
	.loc 2 345 0
	li 0,0
	stw 0,0(3)
	.loc 2 346 0
	stw 3,0(28)
	b .L94
.LBE961:
	.cfi_endproc
.LFE2827:
	.size	_ZNK5idPVS17FloodPassagePVS_rEP11pvsPortal_sPKS0_P10pvsStack_s, .-_ZNK5idPVS17FloodPassagePVS_rEP11pvsPortal_sPKS0_P10pvsStack_s
	.align 2
	.globl _ZNK5idPVS20AddPassageBoundariesERK9idWindingS2_bP7idPlaneRii
	.type	_ZNK5idPVS20AddPassageBoundariesERK9idWindingS2_bP7idPlaneRii, @function
_ZNK5idPVS20AddPassageBoundariesERK9idWindingS2_bP7idPlaneRii:
.LFB2829:
	.loc 2 455 0
	.cfi_startproc
.LVL155:
	mflr 0
	stwu 1,-136(1)
.LCFI25:
	.cfi_def_cfa_offset 136
	.cfi_register 65, 0
	mfcr 12
.LBB962:
	.loc 2 464 0
	li 11,0
.LBE962:
	.loc 2 455 0
	stw 20,56(1)
.LBB1045:
	.loc 2 558 0
	lis 20,gameLocal@ha
	.cfi_offset 20, -80
	.cfi_register 70, 12
.LBE1045:
	.loc 2 455 0
	stw 21,60(1)
.LBB1046:
	.loc 2 558 0
	lis 21,.LC8@ha
	.cfi_offset 21, -76
.LBE1046:
	.loc 2 455 0
	stw 22,64(1)
.LBB1047:
	.loc 2 538 0
	cmpwi 4,6,0
.LBE1047:
	.loc 2 455 0
	stw 24,72(1)
.LBB1048:
	.loc 2 558 0
	la 20,gameLocal@l(20)
.LBE1048:
	.loc 2 455 0
	stw 25,76(1)
	lis 24,.LC3@ha
	.cfi_offset 25, -60
	.cfi_offset 24, -64
	.cfi_offset 22, -72
	stw 26,80(1)
	lis 25,.LC5@ha
	stw 27,84(1)
	lis 26,.LC6@ha
	.cfi_offset 27, -52
	.cfi_offset 26, -56
	stw 28,88(1)
	lis 28,_ZN6idMath5iSqrtE@ha
	.cfi_offset 28, -48
	stw 29,92(1)
.LBB1049:
	.loc 2 464 0
	li 27,0
.LBE1049:
	.loc 2 455 0
	stw 30,96(1)
	la 28,_ZN6idMath5iSqrtE@l(28)
	stw 31,100(1)
.LBB1050:
	.loc 2 523 0
	lis 30,.LC2@ha
	.cfi_offset 31, -36
	.cfi_offset 30, -40
	.cfi_offset 29, -44
.LBE1050:
	.loc 2 455 0
	stw 0,140(1)
	mr 31,4
	stfd 28,104(1)
.LBB1051:
	.loc 2 526 0
	lis 29,.LC1@ha
.LBE1051:
	.loc 2 455 0
	stfd 29,112(1)
.LBB1052:
	.loc 2 558 0
	la 21,.LC8@l(21)
.LBE1052:
	.loc 2 455 0
	stfd 30,120(1)
.LBB1053:
.LBB963:
.LBB964:
.LBB965:
.LBB966:
	.loc 5 501 0
	lis 22,.LC7@ha
.LVL156:
.LBE966:
.LBE965:
.LBE964:
.LBE963:
.LBE1053:
	.loc 2 455 0
	stfd 31,128(1)
	stw 15,36(1)
	stw 16,40(1)
	stw 17,44(1)
	stw 18,48(1)
	stw 19,52(1)
	stw 23,68(1)
	stw 12,32(1)
.LBB1054:
	.loc 2 464 0
	lwz 0,4(4)
	.cfi_offset 70, -104
	.cfi_offset 23, -68
	.cfi_offset 19, -84
	.cfi_offset 18, -88
	.cfi_offset 17, -92
	.cfi_offset 16, -96
	.cfi_offset 15, -100
	.cfi_offset 63, -8
	.cfi_offset 62, -16
	.cfi_offset 61, -24
	.cfi_offset 60, -32
	.cfi_offset 65, 4
	cmpw 7,11,0
	bge- 7,.L141
.LVL157:
.L127:
	.loc 2 466 0
	addi 23,11,1
	.loc 2 1388 0
	lwz 3,8(31)
	.loc 2 466 0
	divw 19,23,0
.LBB981:
.LBB982:
	.loc 2 1388 0
	lwz 16,4(5)
.LBE982:
.LBE981:
.LBB986:
.LBB987:
	.loc 1 204 0
	add 10,3,27
.LBE987:
.LBE986:
.LBB988:
.LBB983:
	.loc 5 431 0
	lfsx 2,3,27
.LBE983:
.LBE988:
	.loc 2 472 0
	cmpwi 7,16,0
.LBB989:
.LBB984:
	.loc 5 431 0
	lfs 1,4(10)
	lfs 31,8(10)
.LBE984:
.LBE989:
	.loc 2 466 0
	mullw 19,19,0
	subf 19,19,23
.LVL158:
.LBB990:
.LBB991:
	.loc 1 204 0
	mulli 6,19,20
	add 10,3,6
.LVL159:
.LBE991:
.LBE990:
.LBB992:
.LBB985:
	.loc 5 431 0
	lfsx 6,3,6
	lfs 5,4(10)
	lfs 4,8(10)
	fsubs 6,6,2
	fsubs 5,5,1
	fsubs 4,4,31
.LVL160:
.LBE985:
.LBE992:
	.loc 2 472 0
	ble- 7,.L110
.LVL161:
	lwz 12,8(5)
	.loc 2 487 0
	cmpwi 1,0,0
.LBB993:
.LBB994:
.LBB995:
.LBB996:
	.file 6 "d:/Data/Nintendo/DoomGX/src/game/../idlib/../idlib/math/Math.h"
	.loc 6 275 0
	lfs 29,.LC3@l(24)
.LBE996:
.LBE995:
.LBE994:
.LBE993:
	.loc 2 472 0
	li 17,0
.LBB1008:
.LBB1003:
.LBB1000:
.LBB997:
	.loc 6 278 0
	lfs 3,.LC5@l(25)
.LBE997:
.LBE1000:
.LBE1003:
.LBE1008:
	.loc 2 472 0
	li 18,0
	.loc 2 477 0
	lfs 30,.LC6@l(26)
.LVL162:
.L126:
.LBB1009:
.LBB1010:
	.loc 1 204 0
	add 10,12,17
.LVL163:
.LBE1010:
.LBE1009:
.LBB1011:
.LBB1012:
	.loc 5 431 0
	lfsx 7,12,17
	lfs 8,8(10)
	lfs 28,4(10)
	fsubs 12,7,2
	fsubs 0,8,31
.LVL164:
	fsubs 11,28,1
.LVL165:
.LBE1012:
.LBE1011:
.LBB1015:
.LBB1016:
	.loc 5 620 0
	fmuls 9,5,12
	fmuls 10,6,0
	fmuls 13,4,11
.LBE1016:
.LBE1015:
.LBB1017:
.LBB1013:
	fmsubs 9,6,11,9
.LVL166:
	fmsubs 12,4,12,10
.LVL167:
	fmsubs 13,5,0,13
.LVL168:
.LBE1013:
.LBE1017:
.LBB1018:
.LBB1004:
	.loc 5 649 0
	fmuls 0,12,12
.LVL169:
.LBE1004:
.LBE1018:
.LBB1019:
.LBB1014:
	fmadds 0,13,13,0
	fmadds 0,9,9,0
	stfs 0,8(1)
.LVL170:
.LBE1014:
.LBE1019:
.LBB1020:
.LBB1005:
.LBB1001:
.LBB998:
	.loc 6 275 0
	fmuls 11,0,29
.LVL171:
	.loc 6 270 0
	lwz 10,8(1)
.LVL172:
	.loc 2 455 0
	fneg 11,11
	.loc 6 276 0
	rlwinm 6,10,19,21,29
	rlwinm 4,10,9,24,31
	subfic 10,4,380
	lwzx 6,28,6
	rlwinm 10,10,22,0,8
	or 10,10,6
	.loc 6 277 0
	stw 10,28(1)
	lfs 0,28(1)
.LVL173:
	fmr 10,0
.LVL174:
	.loc 6 278 0
	fmul 0,10,10
.LVL175:
	fmadd 0,11,0,3
	fmul 0,10,0
.LVL176:
	.loc 6 279 0
	fmul 10,0,0
	fmadd 11,11,10,3
.LVL177:
.LBE998:
.LBE1001:
	.loc 5 654 0
	lfs 10,8(1)
.LBB1002:
.LBB999:
	.loc 6 279 0
	fmul 11,0,11
.LVL178:
	.loc 6 280 0
	frsp 11,11
.LVL179:
.LBE999:
.LBE1002:
	.loc 5 654 0
	fmuls 0,10,11
.LBE1005:
.LBE1020:
	.loc 2 477 0
	fcmpu 7,0,30
	blt- 7,.L111
.LBB1021:
.LBB1006:
	.loc 5 652 0
	fmuls 12,12,11
.LVL180:
	.loc 5 651 0
	fmuls 13,13,11
.LVL181:
	.loc 5 653 0
	fmuls 11,9,11
.LVL182:
.LBE1006:
.LBE1021:
.LBB1022:
.LBB1023:
	.loc 5 435 0
	fmuls 28,28,12
.LBE1023:
.LBE1022:
.LBB1024:
.LBB1007:
	fmadds 7,7,13,28
	fmadds 7,8,11,7
.LVL183:
.LBE1007:
.LBE1024:
	.loc 2 487 0
	ble- 1,.L130
	.loc 2 498 0
	mtctr 0
	.loc 2 487 0
	li 6,0
	li 10,0
.LVL184:
.L114:
	.loc 2 488 0
	cmpw 7,10,11
.LBB1025:
.LBB1026:
	.loc 1 204 0
	add 4,3,6
.LBE1026:
.LBE1025:
	.loc 2 488 0
	cmpw 6,10,19
	beq- 7,.L113
	.loc 2 488 0 is_stmt 0 discriminator 1
	beq- 6,.L113
.LVL185:
.LBB1027:
.LBB1028:
	.loc 5 435 0 is_stmt 1
	lfs 0,4(4)
.LBE1028:
.LBE1027:
	lfsx 8,3,6
.LBB1030:
.LBB1029:
	fmuls 0,12,0
.LBE1029:
.LBE1030:
	lfs 9,8(4)
	.loc 2 492 0
	lfs 10,.LC2@l(30)
	.loc 5 435 0
	fmadds 0,13,8,0
	fmadds 0,11,9,0
	.loc 2 491 0
	fsubs 0,0,7
.LVL186:
	.loc 2 492 0
	fcmpu 7,0,10
	blt- 7,.L131
	.loc 2 498 0
	lfs 10,.LC1@l(29)
	fcmpu 7,0,10
	bgt- 7,.L132
.LVL187:
.L113:
	.loc 2 487 0
	addi 10,10,1
.LVL188:
	addi 6,6,20
	bdnz .L114
.LVL189:
.L111:
	.loc 2 472 0
	addi 18,18,1
.LVL190:
	addi 17,17,20
	cmpw 7,18,16
	bne+ 7,.L126
.LVL191:
.L110:
	addi 27,27,20
	.loc 2 464 0
	mr 11,23
.LVL192:
.L143:
	cmpw 7,11,0
	blt+ 7,.L127
.LVL193:
.L141:
.LBE1054:
	.loc 2 566 0
	lwz 0,140(1)
	lwz 12,32(1)
	mtlr 0
	lwz 15,36(1)
	lwz 16,40(1)
	mtcrf 8,12
	lwz 17,44(1)
	lwz 18,48(1)
	lwz 19,52(1)
	lwz 20,56(1)
	lwz 21,60(1)
	lwz 22,64(1)
	lwz 23,68(1)
	lwz 24,72(1)
	lwz 25,76(1)
	lwz 26,80(1)
	lwz 27,84(1)
	lwz 28,88(1)
	lwz 29,92(1)
	lwz 30,96(1)
	lwz 31,100(1)
.LVL194:
	lfd 28,104(1)
	lfd 29,112(1)
	lfd 30,120(1)
	lfd 31,128(1)
	addi 1,1,136
	.cfi_remember_state
.LCFI26:
	.cfi_def_cfa_offset 0
	.cfi_restore 70
	.cfi_restore 63
	.cfi_restore 62
	.cfi_restore 61
	.cfi_restore 60
	.cfi_restore 31
	.cfi_restore 30
	.cfi_restore 29
	.cfi_restore 28
	.cfi_restore 27
	.cfi_restore 26
	.cfi_restore 25
	.cfi_restore 24
	.cfi_restore 23
	.cfi_restore 22
	.cfi_restore 21
	.cfi_restore 20
	.cfi_restore 19
	.cfi_restore 18
	.cfi_restore 17
	.cfi_restore 16
	.cfi_restore 15
	blr
.LVL195:
.L131:
.LCFI27:
	.cfi_restore_state
.LBB1055:
	.loc 2 495 0
	li 6,0
.LVL196:
.L112:
	.loc 2 505 0
	cmpw 7,10,0
	beq- 7,.L111
	.loc 2 510 0
	cmpwi 7,6,0
	beq- 7,.L115
.LVL197:
.LBB1031:
.LBB1032:
	.loc 5 420 0
	fneg 13,13
.LVL198:
	fneg 12,12
.LVL199:
	fneg 11,11
.LVL200:
.LBE1032:
.LBE1031:
	.loc 2 512 0
	fneg 7,7
.LVL201:
.L115:
	.loc 2 527 0
	mtctr 16
	.loc 2 486 0
	li 10,0
	li 15,0
	li 6,0
.LVL202:
.L118:
	.loc 2 519 0
	cmpw 7,6,18
.LBB1033:
.LBB1034:
	.loc 1 204 0
	add 4,12,10
.LBE1034:
.LBE1033:
	.loc 2 519 0
	beq- 7,.L116
.LVL203:
.LBB1035:
.LBB1036:
	.loc 5 435 0
	lfs 0,4(4)
.LBE1036:
.LBE1035:
	lfsx 8,12,10
.LBB1038:
.LBB1037:
	fmuls 0,12,0
.LBE1037:
.LBE1038:
	lfs 9,8(4)
	.loc 2 523 0
	lfs 10,.LC2@l(30)
	.loc 5 435 0
	fmadds 0,8,13,0
	fmadds 0,9,11,0
	.loc 2 522 0
	fsubs 0,0,7
.LVL204:
	.loc 2 523 0
	fcmpu 7,0,10
	blt- 7,.L117
	.loc 2 526 0
	lfs 10,.LC1@l(29)
	fcmpu 7,0,10
	bng- 7,.L116
	.loc 2 527 0
	li 15,1
.LVL205:
.L116:
	.loc 2 518 0
	addi 6,6,1
.LVL206:
	addi 10,10,20
	bdnz .L118
.LVL207:
.L119:
	.loc 2 533 0
	cmpwi 7,15,0
	beq- 7,.L111
	.loc 2 538 0
	beq- 4,.L120
.LVL208:
.LBB1039:
.LBB1040:
	.loc 5 420 0
	fneg 13,13
.LVL209:
	fneg 12,12
.LVL210:
	fneg 11,11
.LVL211:
.L121:
.LBE1040:
.LBE1039:
	.loc 2 548 0
	lwz 6,0(8)
	cmpwi 7,6,0
	ble- 7,.L122
.LBB1041:
.LBB979:
	.loc 4 212 0
	lfs 10,.LC6@l(26)
.LBB975:
.LBB973:
	.loc 5 501 0
	mtctr 6
.LBE973:
.LBE975:
.LBE979:
.LBE1041:
	.loc 2 548 0
	mr 11,7
.LVL212:
.L125:
.LBB1042:
.LBB980:
	.loc 4 212 0
	lfs 0,12(11)
	fsubs 0,7,0
	stfs 0,28(1)
	lwz 10,28(1)
.LBB976:
.LBB977:
	.loc 6 781 0
	rlwinm 10,10,0,1,31
.LBE977:
.LBE976:
	.loc 4 212 0
	stw 10,28(1)
	lfs 0,28(1)
	fcmpu 7,0,10
	bgt- 7,.L123
.LVL213:
.LBB978:
.LBB974:
	.loc 5 501 0
	lfs 9,0(11)
	lfs 0,.LC7@l(22)
	fsubs 9,13,9
	stfs 9,28(1)
	lwz 10,28(1)
.LBB967:
.LBB968:
	.loc 6 781 0
	rlwinm 10,10,0,1,31
.LBE968:
.LBE967:
	.loc 5 501 0
	stw 10,28(1)
	lfs 9,28(1)
	fcmpu 7,9,0
	bgt- 7,.L123
.LVL214:
	.loc 5 505 0
	lfs 9,4(11)
	fsubs 9,12,9
	stfs 9,28(1)
	lwz 10,28(1)
.LBB969:
.LBB970:
	.loc 6 781 0
	rlwinm 10,10,0,1,31
.LBE970:
.LBE969:
	.loc 5 505 0
	stw 10,28(1)
	lfs 9,28(1)
	fcmpu 7,9,0
	bgt- 7,.L123
.LVL215:
	.loc 5 509 0
	lfs 9,8(11)
	fsubs 9,11,9
	stfs 9,28(1)
	lwz 10,28(1)
.LBB971:
.LBB972:
	.loc 6 781 0
	rlwinm 10,10,0,1,31
.LBE972:
.LBE971:
	.loc 5 509 0
	stw 10,28(1)
	lfs 9,28(1)
	fcmpu 7,9,0
	bng- 7,.L110
.LVL216:
.L123:
.LBE974:
.LBE978:
.LBE980:
.LBE1042:
	.loc 2 548 0
	addi 11,11,16
.LVL217:
	bdnz .L125
.LVL218:
.L122:
	.loc 2 557 0
	cmpw 7,9,6
	ble- 7,.L142
	.loc 2 561 0
	slwi 6,6,4
	.loc 2 472 0
	addi 27,27,20
	.loc 2 561 0
	add 11,7,6
	stfsx 13,7,6
	stfs 12,4(11)
	stfs 11,8(11)
	stfs 7,12(11)
	.loc 2 562 0
	lwz 11,0(8)
	addi 0,11,1
	.loc 2 464 0
	mr 11,23
	.loc 2 562 0
	stw 0,0(8)
	lwz 0,4(31)
.LVL219:
	b .L143
.LVL220:
.L117:
	.loc 2 530 0
	cmpw 7,16,6
	ble- 7,.L119
	.loc 2 472 0
	addi 18,18,1
.LVL221:
	addi 17,17,20
	cmpw 7,18,16
	bne+ 7,.L126
	b .L110
.LVL222:
.L132:
	.loc 2 501 0
	li 6,1
	b .L112
.LVL223:
.L120:
.LBB1043:
.LBB1044:
	.loc 4 276 0
	fneg 7,7
.LVL224:
	b .L121
.LVL225:
.L130:
.LBE1044:
.LBE1043:
	.loc 2 487 0
	li 10,0
	.loc 2 486 0
	li 6,0
	b .L112
.LVL226:
.L142:
	.loc 2 558 0
	mr 3,20
	mr 4,21
	stw 5,12(1)
	.loc 2 472 0
	addi 27,27,20
	.loc 2 558 0
	stw 7,16(1)
	stw 8,20(1)
	stw 9,24(1)
	crxor 6,6,6
	bl _ZNK11idGameLocal7WarningEPKcz
.LVL227:
	lwz 0,4(31)
	.loc 2 464 0
	mr 11,23
	.loc 2 559 0
	lwz 5,12(1)
	lwz 7,16(1)
	lwz 8,20(1)
	lwz 9,24(1)
.LVL228:
	b .L143
.LBE1055:
	.cfi_endproc
.LFE2829:
	.size	_ZNK5idPVS20AddPassageBoundariesERK9idWindingS2_bP7idPlaneRii, .-_ZNK5idPVS20AddPassageBoundariesERK9idWindingS2_bP7idPlaneRii
	.align 2
	.globl _ZNK5idPVS14CreatePassagesEv
	.type	_ZNK5idPVS14CreatePassagesEv, @function
_ZNK5idPVS14CreatePassagesEv:
.LFB2830:
	.loc 2 575 0
	.cfi_startproc
.LVL229:
	mflr 0
	stwu 1,-3984(1)
.LCFI28:
	.cfi_def_cfa_offset 3984
	.cfi_register 65, 0
.LVL230:
.LBB1079:
.LBB1080:
.LBB1081:
	.loc 1 307 0
	lis 9,_ZTV14idFixedWinding+8@ha
.LBE1081:
.LBE1080:
.LBE1079:
	.loc 2 575 0
	stw 26,3952(1)
.LBB1102:
	.loc 2 586 0
	li 26,0
	.cfi_offset 26, -32
.LBE1102:
	.loc 2 575 0
	stw 30,3968(1)
	mr 30,3
	.cfi_offset 30, -16
	stw 0,3988(1)
	stfd 31,3976(1)
	stw 14,3904(1)
	stw 15,3908(1)
	stw 16,3912(1)
	stw 17,3916(1)
	stw 18,3920(1)
	stw 19,3924(1)
	stw 20,3928(1)
	stw 21,3932(1)
	stw 22,3936(1)
	stw 23,3940(1)
	stw 24,3944(1)
	stw 25,3948(1)
	stw 27,3956(1)
	stw 28,3960(1)
	stw 29,3964(1)
	stw 31,3972(1)
.LBB1103:
	.loc 2 586 0
	lwz 0,4(3)
	.cfi_offset 31, -12
	.cfi_offset 29, -20
	.cfi_offset 28, -24
	.cfi_offset 27, -28
	.cfi_offset 25, -36
	.cfi_offset 24, -40
	.cfi_offset 23, -44
	.cfi_offset 22, -48
	.cfi_offset 21, -52
	.cfi_offset 20, -56
	.cfi_offset 19, -60
	.cfi_offset 18, -64
	.cfi_offset 17, -68
	.cfi_offset 16, -72
	.cfi_offset 15, -76
	.cfi_offset 14, -80
	.cfi_offset 63, -8
	.cfi_offset 65, 4
	cmpwi 7,0,0
.LBB1085:
.LBB1084:
.LBB1082:
.LBB1083:
	.loc 1 133 0
	li 0,0
	stw 0,528(1)
.LBE1083:
.LBE1082:
	.loc 1 307 0
	la 0,_ZTV14idFixedWinding+8@l(9)
	stw 0,524(1)
	.loc 1 309 0
	addi 0,1,540
	stw 0,532(1)
	.loc 1 310 0
	li 0,64
	stw 0,536(1)
.LVL231:
.LBE1084:
.LBE1085:
	.loc 2 586 0
	ble- 7,.L145
	li 25,0
	.loc 2 662 0
	lis 31,.LC1@ha
.LVL232:
.L168:
	.loc 2 587 0
	lwz 29,132(30)
	.loc 2 575 0
	slwi 0,25,6
	.loc 2 588 0
	lwz 27,136(30)
	lwzx 28,29,0
	.loc 2 587 0
	add 29,29,0
.LVL233:
	.loc 2 588 0
	slwi 28,28,5
	.loc 2 590 0
	lwzx 3,27,28
	.loc 2 588 0
	add 22,27,28
	.loc 2 590 0
	slwi 3,3,2
	bl _Znaj
.LVL234:
	stw 3,48(29)
	mr 20,3
	.loc 2 592 0
	lwzx 0,27,28
	cmpwi 7,0,0
	ble- 7,.L146
	li 24,0
	b .L167
.LVL235:
.L185:
	.loc 2 602 0
	stwx 0,20,19
	.loc 2 592 0
	addi 24,24,1
.LVL236:
	lwz 0,0(22)
	cmpw 7,0,24
	ble- 7,.L146
.LVL237:
.L188:
	lwz 20,48(29)
.LVL238:
.L167:
	.loc 2 593 0
	lwz 9,28(22)
	.loc 2 575 0
	slwi 19,24,2
	.loc 2 594 0
	lwz 21,132(30)
	.loc 2 596 0
	add 27,20,19
	.loc 2 593 0
	lwzx 28,9,19
.LVL239:
	.loc 2 599 0
	lwz 9,60(29)
	.loc 2 594 0
	subf 21,21,28
.LVL240:
	.loc 2 599 0
	srawi 23,21,9
	rlwinm 21,21,26,29,31
.LVL241:
	lbzx 0,9,23
	sraw 0,0,21
	andi. 0,0,1
	beq+ 0,.L185
	.loc 2 606 0
	lwz 3,116(30)
	bl _Znaj
.LVL242:
	.loc 2 611 0
	li 6,0
	.loc 2 606 0
	stwx 3,20,19
	.loc 2 611 0
	addi 7,1,1820
	addi 8,1,8
	li 9,128
	lwz 4,4(29)
	mr 3,30
	lwz 5,4(28)
	.loc 2 610 0
	stw 6,8(1)
	.loc 2 607 0
	lwz 20,116(30)
.LVL243:
	.loc 2 611 0
	bl _ZNK5idPVS20AddPassageBoundariesERK9idWindingS2_bP7idPlaneRii
.LVL244:
	.loc 2 612 0
	lwz 4,4(28)
	mr 3,30
	lwz 5,4(29)
	li 6,1
	addi 7,1,1820
	addi 8,1,8
	li 9,128
	bl _ZNK5idPVS20AddPassageBoundariesERK9idWindingS2_bP7idPlaneRii
.LVL245:
	.loc 2 615 0
	lwz 0,116(30)
	cmpwi 7,0,0
	ble- 7,.L149
	li 0,0
	.loc 2 623 0
	stw 24,3892(1)
	stw 25,3896(1)
	mr 24,26
	mr 25,27
	mr 26,28
.LVL246:
	mr 28,30
.LVL247:
	mr 30,0
.LVL248:
.L166:
	.loc 2 618 0
	lwz 11,60(26)
	slwi 16,30,9
	lwz 9,60(29)
	.loc 2 617 0
	li 27,0
	.loc 2 618 0
	lbzx 14,11,30
	.loc 2 621 0
	li 17,0
	.loc 2 618 0
	lbzx 0,9,30
	and 14,14,0
.LVL249:
.L165:
	.loc 2 623 0
	li 0,1
	slw 15,0,17
	rlwinm 15,15,0,0xff
.LVL250:
	.loc 2 625 0
	and. 9,15,14
	beq- 0,.L150
	.loc 2 629 0
	lwz 9,132(28)
	.loc 2 631 0
	lwz 0,0(29)
	lwzx 11,9,16
	.loc 2 629 0
	add 9,9,16
	stw 9,3880(1)
.LVL251:
	.loc 2 631 0
	cmpw 7,11,0
	beq- 7,.L150
.LVL252:
	.loc 2 635 0 discriminator 1
	lwz 9,8(1)
	cmpwi 7,9,0
	ble- 7,.L174
	lwz 11,3880(1)
	.loc 2 635 0 is_stmt 0
	li 0,0
	stw 16,3884(1)
	addi 18,1,8
	addi 9,11,8
	mr 16,30
.LVL253:
	stw 28,3888(1)
	li 19,0
	mr 28,29
.LVL254:
	.loc 2 636 0 is_stmt 1
	lfs 31,.LC1@l(31)
	mr 30,0
	mr 29,9
.LVL255:
	b .L154
.LVL256:
.L187:
	.loc 2 635 0
	lwz 9,8(1)
	addi 19,19,1
	.loc 2 643 0
	subfic 11,3,0
	addze 11,30
	.loc 2 635 0
	cmpw 7,9,19
	.loc 2 643 0
	mr 30,11
.LVL257:
	.loc 2 635 0
	ble- 7,.L186
.LVL258:
.L154:
	.loc 2 636 0
	fmr 1,31
	addi 0,1,1820
	slwi 4,19,4
	mr 3,29
	add 4,0,4
	bl _ZNK8idBounds9PlaneSideERK7idPlanef
	.loc 2 638 0
	cmpwi 7,3,1
	.loc 2 636 0
	stwu 3,4(18)
	.loc 2 638 0
	bne+ 7,.L187
	.loc 2 647 0
	lwz 9,8(1)
	mr 0,30
	mr 29,28
	mr 30,16
	cmpw 7,9,19
	lwz 16,3884(1)
	lwz 28,3888(1)
.LVL259:
	ble- 7,.L172
.LVL260:
.L150:
	.loc 2 621 0
	cmpwi 7,17,7
	addi 16,16,64
	addi 17,17,1
.LVL261:
	bne+ 7,.L165
	.loc 2 678 0
	lwz 9,0(25)
	stbx 27,9,30
	.loc 2 615 0
	addi 30,30,1
.LVL262:
	lwz 0,116(28)
	cmpw 7,0,30
	bgt+ 7,.L166
	mr 26,24
.LVL263:
	mr 27,25
.LVL264:
	lwz 24,3892(1)
.LVL265:
	mr 30,28
.LVL266:
	lwz 25,3896(1)
.LVL267:
.L149:
	.loc 2 682 0
	lwz 9,0(27)
	li 11,1
	slw 21,11,21
	.loc 2 592 0
	addi 24,24,1
	.loc 2 682 0
	lbzx 0,9,23
	.loc 2 607 0
	add 26,26,20
.LVL268:
	.loc 2 682 0
	or 0,0,21
	stbx 0,9,23
	.loc 2 592 0
	lwz 0,0(22)
	cmpw 7,0,24
	bgt+ 7,.L188
.LVL269:
.L146:
	.loc 2 586 0
	lwz 0,4(30)
	addi 25,25,1
.LVL270:
	cmpw 7,0,25
	bgt+ 7,.L168
	.loc 2 685 0
	cmpwi 7,26,1023
	ble- 7,.L145
	.loc 2 689 0
	lis 3,gameLocal@ha
	lis 4,.LC10@ha
	la 3,gameLocal@l(3)
	la 4,.LC10@l(4)
	srawi 5,26,10
	crxor 6,6,6
	bl _ZNK11idGameLocal6PrintfEPKcz
	b .L144
.LVL271:
.L186:
	mr 29,28
	mr 30,16
	lwz 28,3888(1)
.LVL272:
	mr 0,11
	lwz 16,3884(1)
.LVL273:
.L172:
	.loc 2 652 0
	cmpw 7,0,9
	beq- 7,.L155
	.loc 2 654 0
	lwz 9,3880(1)
.LBB1086:
.LBB1087:
.LBB1088:
.LBB1089:
	.loc 1 260 0
	lwz 0,536(1)
.LBE1089:
.LBE1088:
.LBE1087:
.LBE1086:
	.loc 2 654 0
	lwz 19,4(9)
.LVL274:
.LBB1099:
	.loc 2 1388 0
	lwz 4,4(19)
.LVL275:
.LBB1094:
.LBB1092:
.LBB1090:
	.loc 1 260 0
	cmpw 7,4,0
	bgt- 7,.L189
.LVL276:
.L156:
.LBE1090:
.LBE1092:
	.loc 1 391 0
	cmpwi 7,4,0
	li 10,0
	li 8,0
	ble- 7,.L159
.LVL277:
.L176:
	.loc 1 392 0
	lwz 9,8(19)
	.loc 1 391 0
	addi 8,8,1
.LVL278:
	.loc 1 392 0
	lwz 7,532(1)
	lwzux 4,9,10
	add 11,7,10
	lwz 0,12(9)
	lwz 5,4(9)
	lwz 6,8(9)
	stwx 4,7,10
.LBE1094:
	.loc 2 1388 0
	addi 10,10,20
.LBB1095:
	.loc 1 392 0
	stw 5,4(11)
	stw 6,8(11)
	stw 0,12(11)
	lwz 0,16(9)
	stw 0,16(11)
.LBE1095:
	.loc 2 1388 0
	lwz 4,4(19)
.LBB1096:
	.loc 1 391 0
	cmpw 7,8,4
	blt+ 7,.L176
.LVL279:
.L159:
	.loc 1 394 0
	stw 4,528(1)
.L160:
.LVL280:
.LBE1096:
.LBE1099:
	.loc 2 656 0 discriminator 1
	lwz 9,8(1)
	cmpwi 7,9,0
	ble- 7,.L155
	.loc 2 656 0 is_stmt 0
	addi 18,1,8
	li 19,0
.LVL281:
	b .L164
.LVL282:
.L162:
	addi 19,19,1
.LVL283:
	cmpw 7,9,19
	ble- 7,.L155
.LVL284:
.L164:
	.loc 2 658 0 is_stmt 1
	lwzu 0,4(18)
	cmpwi 7,0,3
	bne+ 7,.L162
	.loc 2 662 0
	addi 0,1,1820
	slwi 4,19,4
	lfs 1,.LC1@l(31)
	add 4,0,4
	addi 3,1,524
	li 5,0
	bl _ZN9idWinding11ClipInPlaceERK7idPlanefb
	.loc 2 664 0
	lwz 0,528(1)
	cmpwi 7,0,0
	beq- 7,.L163
	lwz 9,8(1)
	.loc 2 656 0
	addi 19,19,1
.LVL285:
	cmpw 7,9,19
	bgt+ 7,.L164
.LVL286:
.L155:
	.loc 2 674 0
	or 27,15,27
.LVL287:
	b .L150
.LVL288:
.L189:
.LBB1100:
.LBB1097:
.LBB1093:
.LBB1091:
	.loc 1 261 0
	lwz 9,524(1)
	addi 3,1,524
	li 5,0
	lwz 0,12(9)
	mtctr 0
	bctrl
.LVL289:
.LBE1091:
.LBE1093:
	.loc 1 387 0
	cmpwi 0,3,0
	bne- 0,.L190
	.loc 1 388 0
	stw 3,528(1)
	b .L160
.LVL290:
.L163:
.LBE1097:
.LBE1100:
	.loc 2 669 0
	lwz 0,8(1)
	cmpw 7,0,19
	bgt+ 7,.L150
	.loc 2 674 0
	or 27,15,27
.LVL291:
	b .L150
.LVL292:
.L174:
	.loc 2 635 0
	li 0,0
	b .L172
.LVL293:
.L190:
.LBB1101:
.LBB1098:
	.loc 1 387 0
	lwz 4,4(19)
	b .L156
.LVL294:
.L145:
.LBE1098:
.LBE1101:
	.loc 2 686 0
	lis 3,gameLocal@ha
	lis 4,.LC9@ha
	la 3,gameLocal@l(3)
	la 4,.LC9@l(4)
	mr 5,26
	crxor 6,6,6
	bl _ZNK11idGameLocal6PrintfEPKcz
.L144:
.LBE1103:
	.loc 2 691 0
	lwz 0,3988(1)
	lwz 14,3904(1)
	mtlr 0
	lwz 15,3908(1)
	lwz 16,3912(1)
	lwz 17,3916(1)
	lwz 18,3920(1)
	lwz 19,3924(1)
	lwz 20,3928(1)
	lwz 21,3932(1)
	lwz 22,3936(1)
	lwz 23,3940(1)
	lwz 24,3944(1)
	lwz 25,3948(1)
	lwz 26,3952(1)
	lwz 27,3956(1)
	lwz 28,3960(1)
	lwz 29,3964(1)
	lwz 30,3968(1)
	lwz 31,3972(1)
	lfd 31,3976(1)
	addi 1,1,3984
.LCFI29:
	.cfi_def_cfa_offset 0
	.cfi_restore 63
	.cfi_restore 31
	.cfi_restore 30
	.cfi_restore 29
	.cfi_restore 28
	.cfi_restore 27
	.cfi_restore 26
	.cfi_restore 25
	.cfi_restore 24
	.cfi_restore 23
	.cfi_restore 22
	.cfi_restore 21
	.cfi_restore 20
	.cfi_restore 19
	.cfi_restore 18
	.cfi_restore 17
	.cfi_restore 16
	.cfi_restore 15
	.cfi_restore 14
	blr
	.cfi_endproc
.LFE2830:
	.size	_ZNK5idPVS14CreatePassagesEv, .-_ZNK5idPVS14CreatePassagesEv
	.align 2
	.globl _ZNK5idPVS15DestroyPassagesEv
	.type	_ZNK5idPVS15DestroyPassagesEv, @function
_ZNK5idPVS15DestroyPassagesEv:
.LFB2831:
	.loc 2 698 0
	.cfi_startproc
.LVL295:
	mflr 0
	stwu 1,-32(1)
.LCFI30:
	.cfi_def_cfa_offset 32
	.cfi_register 65, 0
	stw 27,12(1)
	mr 27,3
	.cfi_offset 27, -20
	stw 0,36(1)
	stw 28,16(1)
	stw 29,20(1)
	stw 30,24(1)
	stw 31,28(1)
.LBB1104:
	.loc 2 703 0
	lwz 0,4(3)
	.cfi_offset 31, -4
	.cfi_offset 30, -8
	.cfi_offset 29, -12
	.cfi_offset 28, -16
	.cfi_offset 65, 4
	cmpwi 7,0,0
	ble- 7,.L191
	li 28,0
.LVL296:
.L198:
	.loc 2 704 0
	lwz 30,132(27)
	.loc 2 698 0
	slwi 11,28,6
	.loc 2 705 0
	lwz 9,136(27)
	.loc 2 706 0
	li 31,0
	.loc 2 705 0
	lwzx 29,30,11
	.loc 2 704 0
	add 30,30,11
.LVL297:
	.loc 2 705 0
	slwi 29,29,5
	.loc 2 706 0
	lwzx 0,9,29
	.loc 2 705 0
	add 29,9,29
.LVL298:
	.loc 2 706 0
	lwz 9,48(30)
	cmpwi 7,0,0
	ble- 7,.L194
.LVL299:
.L196:
	.loc 2 707 0
	slwi 11,31,2
	.loc 2 706 0
	addi 31,31,1
	.loc 2 707 0
	lwzx 3,9,11
	cmpwi 7,3,0
	beq- 7,.L195
	.loc 2 708 0 discriminator 1
	bl _ZdaPv
	lwz 0,0(29)
	lwz 9,48(30)
.L195:
.LVL300:
	.loc 2 706 0
	cmpw 7,0,31
	bgt+ 7,.L196
.LVL301:
.L194:
	.loc 2 711 0
	cmpwi 7,9,0
	beq- 7,.L197
	.loc 2 711 0 is_stmt 0 discriminator 1
	mr 3,9
	bl _ZdaPv
.L197:
	.loc 2 703 0 is_stmt 1
	lwz 0,4(27)
	addi 28,28,1
.LVL302:
	cmpw 7,0,28
	bgt+ 7,.L198
.LVL303:
.L191:
.LBE1104:
	.loc 2 713 0
	lwz 0,36(1)
	lwz 27,12(1)
.LVL304:
	mtlr 0
	lwz 28,16(1)
	lwz 29,20(1)
	lwz 30,24(1)
	lwz 31,28(1)
	addi 1,1,32
.LCFI31:
	.cfi_def_cfa_offset 0
	.cfi_restore 31
	.cfi_restore 30
	.cfi_restore 29
	.cfi_restore 28
	.cfi_restore 27
	blr
	.cfi_endproc
.LFE2831:
	.size	_ZNK5idPVS15DestroyPassagesEv, .-_ZNK5idPVS15DestroyPassagesEv
	.align 2
	.globl _ZNK5idPVS10PassagePVSEv
	.type	_ZNK5idPVS10PassagePVSEv, @function
_ZNK5idPVS10PassagePVSEv:
.LFB2828:
	.loc 2 418 0
	.cfi_startproc
.LVL305:
	stwu 1,-32(1)
.LCFI32:
	.cfi_def_cfa_offset 32
	mflr 0
	stw 30,24(1)
	mr 30,3
	.cfi_offset 30, -8
	.cfi_register 65, 0
	stw 0,36(1)
	stw 29,20(1)
	stw 27,12(1)
	stw 28,16(1)
	stw 31,28(1)
.LBB1105:
	.loc 2 424 0
	.cfi_offset 31, -4
	.cfi_offset 28, -16
	.cfi_offset 27, -20
	.cfi_offset 29, -12
	.cfi_offset 65, 4
	bl _ZNK5idPVS14CreatePassagesEv
.LVL306:
	.loc 2 427 0
	lwz 3,116(30)
	addi 3,3,8
	bl _Znaj
	.loc 2 428 0
	addi 0,3,8
	.loc 2 427 0
	mr 29,3
.LVL307:
	.loc 2 428 0
	stw 0,4(3)
	.loc 2 429 0
	li 0,0
	stw 0,0(3)
.LVL308:
	.loc 2 432 0
	lwz 0,4(30)
	cmpwi 7,0,0
	ble- 7,.L207
	li 28,0
	.loc 2 437 0
	li 27,1
.LVL309:
.L203:
	.loc 2 433 0 discriminator 2
	lwz 31,132(30)
	.loc 2 418 0 discriminator 2
	slwi 0,28,6
	.loc 2 434 0 discriminator 2
	lwz 5,116(30)
	li 4,0
	.loc 2 433 0 discriminator 2
	add 31,31,0
.LVL310:
	.loc 2 432 0 discriminator 2
	addi 28,28,1
	.loc 2 434 0 discriminator 2
	lwz 3,56(31)
	bl memset
	.loc 2 435 0 discriminator 2
	lwz 4,60(31)
	lwz 5,116(30)
	lwz 3,4(29)
	bl memcpy
	.loc 2 436 0 discriminator 2
	mr 3,30
	mr 4,31
	mr 5,31
	mr 6,29
	bl _ZNK5idPVS17FloodPassagePVS_rEP11pvsPortal_sPKS0_P10pvsStack_s
.LVL311:
	.loc 2 437 0 discriminator 2
	stb 27,52(31)
	.loc 2 432 0 discriminator 2
	lwz 0,4(30)
	cmpw 7,0,28
	bgt+ 7,.L203
.LVL312:
.L207:
	.loc 2 442 0
	lwz 31,0(29)
.LVL313:
	.loc 2 443 0
	mr 3,29
	bl _ZdaPv
.LVL314:
	.loc 2 441 0
	cmpwi 7,31,0
	mr 29,31
	bne+ 7,.L207
.LBE1105:
	.loc 2 448 0
	lwz 0,36(1)
.LBB1106:
	.loc 2 447 0
	mr 3,30
.LBE1106:
	.loc 2 448 0
	lwz 27,12(1)
	lwz 28,16(1)
	mtlr 0
	lwz 29,20(1)
	lwz 30,24(1)
.LVL315:
	lwz 31,28(1)
.LVL316:
	addi 1,1,32
.LCFI33:
	.cfi_def_cfa_offset 0
	.cfi_restore 31
	.cfi_restore 30
	.cfi_restore 29
	.cfi_restore 28
	.cfi_restore 27
.LBB1107:
	.loc 2 447 0
	b _ZNK5idPVS15DestroyPassagesEv
.LVL317:
.LBE1107:
	.cfi_endproc
.LFE2828:
	.size	_ZNK5idPVS10PassagePVSEv, .-_ZNK5idPVS10PassagePVSEv
	.align 2
	.globl _ZNK5idPVS23CopyPortalPVSToMightSeeEv
	.type	_ZNK5idPVS23CopyPortalPVSToMightSeeEv, @function
_ZNK5idPVS23CopyPortalPVSToMightSeeEv:
.LFB2832:
	.loc 2 720 0
	.cfi_startproc
.LVL318:
	mflr 0
	stwu 1,-16(1)
.LCFI34:
	.cfi_def_cfa_offset 16
	.cfi_register 65, 0
	stw 30,8(1)
	mr 30,3
	.cfi_offset 30, -8
	stw 0,20(1)
	stw 31,12(1)
.LBB1108:
	.loc 2 724 0
	lwz 0,4(3)
	.cfi_offset 31, -4
	.cfi_offset 65, 4
	cmpwi 7,0,0
	ble- 7,.L208
	li 31,0
.LVL319:
.L210:
	.loc 2 725 0 discriminator 2
	lwz 9,132(30)
	.loc 2 720 0 discriminator 2
	slwi 0,31,6
	.loc 2 726 0 discriminator 2
	lwz 5,116(30)
	.loc 2 724 0 discriminator 2
	addi 31,31,1
	.loc 2 725 0 discriminator 2
	add 9,9,0
.LVL320:
	.loc 2 726 0 discriminator 2
	lwz 3,60(9)
	lwz 4,56(9)
	bl memcpy
.LVL321:
	.loc 2 724 0 discriminator 2
	lwz 0,4(30)
	cmpw 7,0,31
	bgt+ 7,.L210
.LVL322:
.L208:
.LBE1108:
	.loc 2 728 0
	lwz 0,20(1)
	lwz 30,8(1)
.LVL323:
	mtlr 0
	lwz 31,12(1)
	addi 1,1,16
.LCFI35:
	.cfi_def_cfa_offset 0
	.cfi_restore 31
	.cfi_restore 30
	blr
	.cfi_endproc
.LFE2832:
	.size	_ZNK5idPVS23CopyPortalPVSToMightSeeEv, .-_ZNK5idPVS23CopyPortalPVSToMightSeeEv
	.align 2
	.globl _ZNK5idPVS20AreaPVSFromPortalPVSEv
	.type	_ZNK5idPVS20AreaPVSFromPortalPVSEv, @function
_ZNK5idPVS20AreaPVSFromPortalPVSEv:
.LFB2833:
	.loc 2 735 0
	.cfi_startproc
.LVL324:
	mflr 0
	stwu 1,-16(1)
.LCFI36:
	.cfi_def_cfa_offset 16
	.cfi_register 65, 0
	stw 30,8(1)
.LBB1109:
	.loc 2 744 0
	li 30,0
	.cfi_offset 30, -8
.LBE1109:
	.loc 2 735 0
	stw 31,12(1)
	mr 31,3
	.cfi_offset 31, -4
	stw 0,20(1)
.LBB1110:
	.loc 2 743 0
	lwz 0,4(3)
	.cfi_offset 65, 4
	cmpwi 7,0,0
	bne- 7,.L237
.LVL325:
.L213:
.LBE1110:
	.loc 2 793 0
	lwz 0,20(1)
	mr 3,30
	lwz 31,12(1)
.LVL326:
	mtlr 0
	lwz 30,8(1)
	addi 1,1,16
	.cfi_remember_state
.LCFI37:
	.cfi_def_cfa_offset 0
	.cfi_restore 31
	.cfi_restore 30
	blr
.LVL327:
.L237:
.LCFI38:
	.cfi_restore_state
.LBB1111:
	.loc 2 747 0
	lwz 0,124(3)
	li 4,0
	lwz 5,0(3)
	lwz 3,16(3)
.LVL328:
	mullw 5,5,0
	bl memset
.LVL329:
	.loc 2 749 0
	lwz 0,0(31)
	cmpwi 7,0,0
	ble- 7,.L213
	lwz 5,124(31)
	li 3,0
	.loc 2 754 0
	li 4,1
	b .L230
.LVL330:
.L238:
	.loc 2 756 0
	lwz 10,0(31)
.L215:
.LVL331:
	.loc 2 749 0
	addi 3,3,1
.LVL332:
	cmpw 7,3,10
	bge- 7,.L213
	lwz 5,124(31)
.LVL333:
.L230:
	.loc 2 751 0
	mullw 5,3,5
	lwz 11,16(31)
	.loc 2 754 0
	srawi 0,3,3
	.loc 2 750 0
	lwz 6,136(31)
	.loc 2 754 0
	rlwinm 9,3,0,29,31
	slw 9,4,9
	.loc 2 751 0
	add 5,11,5
	.loc 2 754 0
	lbzx 11,5,0
	or 9,11,9
	stbx 9,5,0
	.loc 2 735 0
	slwi 0,3,5
	.loc 2 756 0
	lwzx 8,6,0
	.loc 2 750 0
	add 6,6,0
.LVL334:
	.loc 2 756 0
	cmpwi 7,8,0
	beq- 7,.L238
.LVL335:
	.loc 2 761 0 discriminator 1
	cmpwi 6,8,1
	lwz 9,28(6)
	ble- 6,.L239
	.loc 2 761 0 is_stmt 0
	lwz 11,0(9)
	li 7,1
	lwz 0,120(31)
.LVL336:
	lwz 11,56(11)
.LVL337:
.L220:
	.loc 2 764 0 is_stmt 1
	cmpwi 7,0,0
	.loc 2 763 0
	slwi 10,7,2
	lwzx 10,9,10
	lwz 10,56(10)
.LVL338:
	.loc 2 764 0
	ble- 7,.L218
	.loc 2 735 0
	addi 11,11,-4
.LVL339:
	addi 10,10,-4
.LVL340:
	.loc 2 764 0
	li 9,0
.LVL341:
.L219:
	.loc 2 765 0 discriminator 2
	lwzu 8,4(11)
	.loc 2 764 0 discriminator 2
	addi 9,9,1
	.loc 2 765 0 discriminator 2
	lwzu 0,4(10)
	or 0,8,0
	stw 0,0(11)
.LVL342:
	.loc 2 764 0 discriminator 2
	lwz 0,120(31)
	cmpw 7,0,9
	bgt+ 7,.L219
	.loc 2 764 0 is_stmt 0
	lwz 9,28(6)
.LVL343:
	lwz 8,0(6)
	lwz 11,0(9)
	lwz 11,56(11)
.L218:
	.loc 2 761 0 is_stmt 1
	addi 7,7,1
.LVL344:
	cmpw 7,8,7
	bgt+ 7,.L220
	cmpwi 7,8,0
.LVL345:
.L217:
	.loc 2 770 0 discriminator 1
	ble- 7,.L221
	.loc 2 770 0 is_stmt 0
	li 10,0
	b .L223
.LVL346:
.L240:
	lwz 11,0(9)
	lwz 11,56(11)
.LVL347:
.L223:
	.loc 2 771 0 is_stmt 1 discriminator 2
	slwi 0,10,2
	.loc 2 770 0 discriminator 2
	addi 10,10,1
	.loc 2 771 0 discriminator 2
	lwzx 9,9,0
	lwz 0,132(31)
	subf 9,0,9
.LVL348:
	.loc 2 772 0 discriminator 2
	srawi 0,9,9
	rlwinm 9,9,26,29,31
.LVL349:
	lbzx 8,11,0
	slw 9,4,9
	or 9,9,8
	stbx 9,11,0
	.loc 2 770 0 discriminator 2
	lwz 0,0(6)
	lwz 9,28(6)
	cmpw 7,0,10
	bgt+ 7,.L240
	.loc 2 770 0 is_stmt 0
	lwz 9,0(9)
	lwz 11,56(9)
.LVL350:
.L221:
	.loc 2 777 0 is_stmt 1
	lwz 8,4(31)
	cmpwi 7,8,0
	ble- 7,.L224
	li 9,0
.LVL351:
.L226:
	.loc 2 779 0
	srawi 0,9,3
	.loc 2 780 0
	slwi 7,9,6
	.loc 2 779 0
	lbzx 10,11,0
	rlwinm 0,9,0,29,31
	.loc 2 777 0
	addi 9,9,1
	.loc 2 779 0
	sraw 0,10,0
	andi. 10,0,1
	beq- 0,.L225
	.loc 2 780 0
	lwz 10,132(31)
	lwzx 10,10,7
.LVL352:
	.loc 2 781 0
	srawi 0,10,3
	rlwinm 10,10,0,29,31
	lbzx 8,5,0
	slw 10,4,10
	or 10,8,10
	stbx 10,5,0
	lwz 8,4(31)
.LVL353:
.L225:
	.loc 2 777 0
	cmpw 7,8,9
	bgt+ 7,.L226
.LVL354:
.L224:
	.loc 2 786 0 discriminator 1
	lwz 10,0(31)
	cmpwi 7,10,0
	ble- 7,.L213
	.loc 2 786 0 is_stmt 0
	mtctr 10
	li 9,0
.LVL355:
.L229:
	.loc 2 787 0 is_stmt 1
	srawi 0,9,3
	lbzx 11,5,0
	rlwinm 0,9,0,29,31
	.loc 2 786 0
	addi 9,9,1
	.loc 2 787 0
	sraw 0,11,0
	andi. 11,0,1
	beq- 0,.L228
	.loc 2 788 0
	addi 30,30,1
.LVL356:
.L228:
	.loc 2 786 0
	bdnz .L229
	b .L215
.LVL357:
.L239:
	.loc 2 761 0
	lwz 11,0(9)
	lwz 11,56(11)
	b .L217
.LBE1111:
	.cfi_endproc
.LFE2833:
	.size	_ZNK5idPVS20AreaPVSFromPortalPVSEv, .-_ZNK5idPVS20AreaPVSFromPortalPVSEv
	.align 2
	.globl _ZN5idPVS8ShutdownEv
	.type	_ZN5idPVS8ShutdownEv, @function
_ZN5idPVS8ShutdownEv:
.LFB2835:
	.loc 2 865 0
	.cfi_startproc
.LVL358:
	mflr 0
	stwu 1,-24(1)
.LCFI39:
	.cfi_def_cfa_offset 24
	.cfi_register 65, 0
	stw 31,20(1)
	mr 31,3
	.cfi_offset 31, -4
	stw 0,28(1)
	stw 30,16(1)
.LBB1112:
	.loc 2 866 0
	lwz 3,8(3)
.LVL359:
	cmpwi 7,3,0
	beq- 7,.L242
	.cfi_offset 30, -8
	.cfi_offset 65, 4
	.loc 2 867 0
	bl _ZdlPv
	.loc 2 868 0
	li 0,0
	stw 0,8(31)
.L242:
	.loc 2 870 0
	lwz 3,12(31)
	cmpwi 7,3,0
	beq- 7,.L243
	.loc 2 871 0
	bl _ZdlPv
	.loc 2 872 0
	li 0,0
	stw 0,12(31)
.L243:
	.loc 2 874 0
	lwz 3,16(31)
	cmpwi 7,3,0
	beq- 7,.L244
	.loc 2 875 0
	bl _ZdlPv
	.loc 2 876 0
	li 0,0
	stw 0,16(31)
.L244:
.LVL360:
.LBE1112:
	.loc 2 865 0
	li 0,8
.LBB1115:
.LBB1113:
	.loc 2 881 0
	li 30,0
.LBE1113:
.LBE1115:
	.loc 2 865 0
	stw 0,8(1)
.LVL361:
.L245:
.LBB1116:
.LBB1114:
	.loc 2 880 0 discriminator 2
	lwz 3,28(31)
	bl _ZdlPv
	.loc 2 879 0 discriminator 2
	lwz 0,8(1)
	.loc 2 881 0 discriminator 2
	stw 30,28(31)
	addi 31,31,12
	.loc 2 879 0 discriminator 2
	addic. 9,0,-1
	stw 9,8(1)
	bne+ 0,.L245
.LBE1114:
.LBE1116:
	.loc 2 884 0
	lwz 0,28(1)
	lwz 30,16(1)
	mtlr 0
	lwz 31,20(1)
	addi 1,1,24
.LCFI40:
	.cfi_def_cfa_offset 0
	.cfi_restore 31
	.cfi_restore 30
	blr
	.cfi_endproc
.LFE2835:
	.size	_ZN5idPVS8ShutdownEv, .-_ZN5idPVS8ShutdownEv
	.align 2
	.globl _ZN5idPVS4InitEv
	.type	_ZN5idPVS4InitEv, @function
_ZN5idPVS4InitEv:
.LFB2834:
	.loc 2 800 0
	.cfi_startproc
.LVL362:
	mflr 0
	stwu 1,-80(1)
.LCFI41:
	.cfi_def_cfa_offset 80
	.cfi_register 65, 0
	stw 30,56(1)
	mr 30,3
	.cfi_offset 30, -24
	stw 0,84(1)
	stfd 30,64(1)
	stfd 31,72(1)
	stw 27,44(1)
	stw 28,48(1)
	stw 29,52(1)
	stw 31,60(1)
.LBB1117:
	.loc 2 803 0
	.cfi_offset 31, -20
	.cfi_offset 29, -28
	.cfi_offset 28, -32
	.cfi_offset 27, -36
	.cfi_offset 63, -8
	.cfi_offset 62, -16
	.cfi_offset 65, 4
	bl _ZN5idPVS8ShutdownEv
.LVL363:
	.loc 2 805 0
	lis 9,gameRenderWorld@ha
	lwz 3,gameRenderWorld@l(9)
	lwz 9,0(3)
	lwz 0,100(9)
	mtctr 0
	bctrl
	.loc 2 806 0
	cmpwi 7,3,0
	.loc 2 805 0
	stw 3,0(30)
	.loc 2 806 0
	ble- 7,.L247
	.loc 2 810 0
	bl _Znaj
	.loc 2 811 0
	lwz 0,0(30)
	.loc 2 810 0
	stw 3,8(30)
	.loc 2 800 0
	addi 27,30,96
	.loc 2 811 0
	slwi 3,0,2
	.loc 2 822 0
	mr 31,30
	.loc 2 811 0
	bl _Znaj
	.loc 2 813 0
	lwz 9,0(30)
	.loc 2 811 0
	stw 3,12(30)
.LBB1118:
	.loc 2 825 0
	li 28,-1
.LBE1118:
	.loc 2 813 0
	addi 0,9,31
.LBB1119:
	.loc 2 826 0
	li 29,0
.LBE1119:
	.loc 2 813 0
	rlwinm 0,0,0,0,26
	srawi 0,0,3
	.loc 2 816 0
	mullw 3,9,0
	.loc 2 814 0
	srwi 9,0,2
	stw 9,128(30)
	.loc 2 813 0
	stw 0,124(30)
	.loc 2 816 0
	bl _Znaj
	.loc 2 817 0
	lwz 0,124(30)
	lwz 5,0(30)
	li 4,255
	.loc 2 816 0
	stw 3,16(30)
	.loc 2 817 0
	mullw 5,5,0
	bl memset
	.loc 2 819 0
	mr 3,30
	bl _ZNK5idPVS14GetPortalCountEv
	.loc 2 821 0
	addi 0,3,31
	.loc 2 819 0
	stw 3,4(30)
	.loc 2 821 0
	rlwinm 0,0,0,0,26
	srawi 0,0,3
	.loc 2 822 0
	srwi 9,0,2
	.loc 2 821 0
	stw 0,116(30)
	.loc 2 822 0
	stw 9,120(30)
.LVL364:
.L249:
.LBB1120:
	.loc 2 825 0 discriminator 2
	stw 28,20(31)
	.loc 2 826 0 discriminator 2
	stw 29,24(31)
	.loc 2 827 0 discriminator 2
	lwz 3,124(30)
	bl _Znaj
	.loc 2 828 0 discriminator 2
	li 4,0
	.loc 2 827 0 discriminator 2
	stw 3,28(31)
	.loc 2 828 0 discriminator 2
	addi 31,31,12
	lwz 5,124(30)
	bl memset
	.loc 2 824 0 discriminator 2
	cmpw 7,31,27
	bne+ 7,.L249
.LBE1120:
.LBB1121:
.LBB1122:
	.file 7 "d:/Data/Nintendo/DoomGX/src/game/../idlib/../idlib/Timer.h"
	.loc 7 76 0
	lis 9,.LC11@ha
.LBE1122:
.LBE1121:
.LBB1125:
.LBB1126:
	.loc 7 147 0
	lis 31,_ZN5idLib3sysE@ha
.LBE1126:
.LBE1125:
.LBB1130:
.LBB1123:
	.loc 7 76 0
	lfd 31,.LC11@l(9)
.LBE1123:
.LBE1130:
.LBB1131:
.LBB1127:
	.loc 7 146 0
	li 0,0
	.loc 7 147 0
	lwz 9,_ZN5idLib3sysE@l(31)
.LBE1127:
.LBE1131:
.LBB1132:
.LBB1133:
	.loc 7 158 0
	lis 28,_ZN7idTimer4baseE@ha
.LBE1133:
.LBE1132:
.LBB1138:
.LBB1124:
	.loc 7 76 0
	stfd 31,24(1)
.LBE1124:
.LBE1138:
.LBB1139:
.LBB1128:
	.loc 7 146 0
	stw 0,8(1)
	.loc 7 147 0
	mr 3,9
	lwz 9,0(9)
	lwz 0,8(9)
	mtctr 0
	bctrl
.LBE1128:
.LBE1139:
	.loc 2 834 0
	mr 3,30
.LBB1140:
.LBB1129:
	.loc 7 147 0
	stfd 1,16(1)
.LBE1129:
.LBE1140:
	.loc 2 834 0
	bl _ZN5idPVS13CreatePVSDataEv
	.loc 2 836 0
	mr 3,30
	bl _ZNK5idPVS14FrontPortalPVSEv
	.loc 2 838 0
	mr 3,30
	bl _ZNK5idPVS23CopyPortalPVSToMightSeeEv
	.loc 2 840 0
	mr 3,30
	bl _ZNK5idPVS10PassagePVSEv
	.loc 2 842 0
	mr 3,30
	bl _ZNK5idPVS20AreaPVSFromPortalPVSEv
	mr 29,3
.LVL365:
	.loc 2 844 0
	mr 3,30
.LVL366:
	bl _ZN5idPVS14DestroyPVSDataEv
.LVL367:
.LBB1141:
.LBB1134:
	.loc 7 157 0
	lwz 3,_ZN5idLib3sysE@l(31)
	lfd 30,24(1)
	lwz 9,0(3)
	lwz 0,8(9)
	mtctr 0
	bctrl
	lfd 13,16(1)
	.loc 7 158 0
	lfd 0,_ZN7idTimer4baseE@l(28)
	.loc 7 157 0
	fsub 13,1,13
	.loc 7 158 0
	fcmpu 7,0,31
	.loc 7 157 0
	fadd 30,30,13
	stfd 30,24(1)
	.loc 7 158 0
	blt- 7,.L258
	.loc 7 161 0
	fcmpu 7,30,0
	bng- 7,.L252
.L260:
	.loc 7 162 0
	fsub 30,30,0
	stfd 30,24(1)
.L252:
	.loc 7 164 0
	li 0,1
.LBE1134:
.LBE1141:
.LBB1142:
.LBB1143:
	.loc 7 193 0
	lwz 9,_ZN5idLib3sysE@l(31)
.LBE1143:
.LBE1142:
.LBB1148:
.LBB1135:
	.loc 7 164 0
	stw 0,8(1)
.LBE1135:
.LBE1148:
	.loc 2 848 0
	lis 31,gameLocal@ha
.LBB1149:
.LBB1144:
	.loc 7 193 0
	mr 3,9
.LBE1144:
.LBE1149:
.LBB1150:
.LBB1136:
	.loc 2 848 0
	lfd 31,24(1)
.LBE1136:
.LBE1150:
.LBB1151:
.LBB1145:
	.loc 7 193 0
	lwz 9,0(9)
.LBE1145:
.LBE1151:
	.loc 2 848 0
	la 31,gameLocal@l(31)
.LBB1152:
.LBB1146:
	.loc 7 193 0
	lwz 0,12(9)
	mtctr 0
	bctrl
	lis 9,.LC13@ha
	lfd 0,.LC13@l(9)
.LBE1146:
.LBE1152:
	.loc 2 848 0
	lis 4,.LC12@ha
	mr 3,31
	la 4,.LC12@l(4)
.LBB1153:
.LBB1147:
	.loc 7 193 0
	fmul 1,1,0
.LBE1147:
.LBE1153:
	.loc 2 848 0
	fdiv 1,31,1
	creqv 6,6,6
	bl _ZNK11idGameLocal6PrintfEPKcz
	.loc 2 849 0
	lwz 5,0(30)
	lis 4,.LC14@ha
	mr 3,31
	la 4,.LC14@l(4)
	crxor 6,6,6
	bl _ZNK11idGameLocal6PrintfEPKcz
	.loc 2 850 0
	lwz 5,4(30)
	lis 4,.LC15@ha
	mr 3,31
	la 4,.LC15@l(4)
	crxor 6,6,6
	bl _ZNK11idGameLocal6PrintfEPKcz
	.loc 2 851 0
	lwz 5,0(30)
	lis 4,.LC16@ha
	mr 3,31
	divw 5,29,5
	la 4,.LC16@l(4)
	crxor 6,6,6
	bl _ZNK11idGameLocal6PrintfEPKcz
	.loc 2 852 0
	lwz 5,0(30)
	lwz 0,124(30)
	.loc 2 853 0
	mr 3,31
	.loc 2 852 0
	mullw 5,5,0
	cmpwi 7,5,1023
	ble- 7,.L259
	.loc 2 856 0
	lis 4,.LC18@ha
	srawi 5,5,10
	la 4,.LC18@l(4)
	crxor 6,6,6
	bl _ZNK11idGameLocal6PrintfEPKcz
.LVL368:
.L247:
.LBE1117:
	.loc 2 858 0
	lwz 0,84(1)
	lwz 27,44(1)
	mtlr 0
	lwz 28,48(1)
	lwz 29,52(1)
	lwz 30,56(1)
.LVL369:
	lwz 31,60(1)
	lfd 30,64(1)
	lfd 31,72(1)
	addi 1,1,80
	.cfi_remember_state
.LCFI42:
	.cfi_def_cfa_offset 0
	.cfi_restore 63
	.cfi_restore 62
	.cfi_restore 31
	.cfi_restore 30
	.cfi_restore 29
	.cfi_restore 28
	.cfi_restore 27
	blr
.LVL370:
.L259:
.LCFI43:
	.cfi_restore_state
.LBB1155:
	.loc 2 853 0
	lis 4,.LC17@ha
	la 4,.LC17@l(4)
	crxor 6,6,6
	bl _ZNK11idGameLocal6PrintfEPKcz
.LBE1155:
	.loc 2 858 0
	lwz 0,84(1)
	lwz 27,44(1)
	mtlr 0
	lwz 28,48(1)
	lwz 29,52(1)
.LVL371:
	lwz 30,56(1)
.LVL372:
	lwz 31,60(1)
	lfd 30,64(1)
	lfd 31,72(1)
	addi 1,1,80
	.cfi_remember_state
	.cfi_restore 27
	.cfi_restore 28
	.cfi_restore 29
	.cfi_restore 30
	.cfi_restore 31
	.cfi_restore 62
	.cfi_restore 63
.LCFI44:
	.cfi_def_cfa_offset 0
	blr
.LVL373:
.L258:
.LCFI45:
	.cfi_restore_state
.LBB1156:
.LBB1154:
.LBB1137:
	.loc 7 159 0
	addi 3,1,8
	bl _ZNK7idTimer18InitBaseClockTicksEv
	lfd 30,24(1)
	lfd 0,_ZN7idTimer4baseE@l(28)
	.loc 7 161 0
	fcmpu 7,30,0
	bng- 7,.L252
	b .L260
.LBE1137:
.LBE1154:
.LBE1156:
	.cfi_endproc
.LFE2834:
	.size	_ZN5idPVS4InitEv, .-_ZN5idPVS4InitEv
	.align 2
	.globl _ZN5idPVSD2Ev
	.type	_ZN5idPVSD2Ev, @function
_ZN5idPVSD2Ev:
.LFB2814:
	.loc 2 101 0
	.cfi_startproc
.LVL374:
	.loc 2 103 0
.LBB1157:
	.loc 2 102 0
	b _ZN5idPVS8ShutdownEv
.LVL375:
.LBE1157:
	.cfi_endproc
.LFE2814:
	.size	_ZN5idPVSD2Ev, .-_ZN5idPVSD2Ev
	.align 2
	.globl _ZNK5idPVS17GetConnectedAreasEiPb
	.type	_ZNK5idPVS17GetConnectedAreasEiPb, @function
_ZNK5idPVS17GetConnectedAreasEiPb:
.LFB2836:
	.loc 2 893 0
	.cfi_startproc
.LVL376:
	mflr 0
	stwu 1,-80(1)
.LCFI46:
	.cfi_def_cfa_offset 80
	.cfi_register 65, 0
	stw 23,44(1)
.LBB1158:
	.loc 2 924 0
	li 23,1
	.cfi_offset 23, -36
.LBE1158:
	.loc 2 893 0
	stw 0,84(1)
.LBB1159:
	.loc 2 901 0
	li 0,1
	.cfi_offset 65, 4
.LBE1159:
	.loc 2 893 0
	stw 24,48(1)
	mr 24,3
	.cfi_offset 24, -32
	stw 25,52(1)
.LBB1160:
	.loc 2 899 0
	li 25,-1
	.cfi_offset 25, -28
.LBE1160:
	.loc 2 893 0
	stw 26,56(1)
	mr 26,5
	.cfi_offset 26, -24
	stw 28,64(1)
.LBB1161:
	.loc 2 900 0
	li 28,0
	.cfi_offset 28, -16
.LBE1161:
	.loc 2 893 0
	stw 29,68(1)
	lis 29,gameRenderWorld@ha
	.cfi_offset 29, -12
	stw 30,72(1)
	la 29,gameRenderWorld@l(29)
	stw 27,60(1)
.LBB1162:
	.loc 2 903 0
	mr 30,4
	.cfi_offset 27, -20
	.cfi_offset 30, -8
.LBE1162:
	.loc 2 893 0
	stw 31,76(1)
.LBB1163:
	.loc 2 901 0
	stbx 0,5,4
.LVL377:
.L267:
	.loc 2 905 0
	lwz 3,0(29)
	mr 4,30
	lwz 9,0(3)
	lwz 0,112(9)
	mtctr 0
	.cfi_offset 31, -4
	bctrl
.LVL378:
	.loc 2 907 0
	mr. 27,3
	ble- 0,.L264
	li 31,0
.LVL379:
.L266:
	.loc 2 908 0
	lwz 4,0(29)
	mr 6,31
	addi 3,1,8
	mr 5,30
	lwz 9,0(4)
	.loc 2 907 0
	addi 31,31,1
	.loc 2 908 0
	lwz 0,116(9)
	mtctr 0
	bctrl
	.loc 2 910 0
	lwz 0,20(1)
	.loc 2 907 0
	cmpw 7,31,27
	.loc 2 910 0
	andi. 9,0,1
	bne- 0,.L265
	.loc 2 915 0
	lwz 0,12(1)
.LVL380:
	.loc 2 923 0
	slwi 11,28,2
	.loc 2 918 0
	lbzx 9,26,0
	cmpwi 6,9,0
	bne- 6,.L265
	.loc 2 923 0
	lwz 9,12(24)
	addi 28,28,1
.LVL381:
	stwx 0,9,11
	.loc 2 924 0
	stbx 23,26,0
.LVL382:
.L265:
	.loc 2 907 0
	bne+ 7,.L266
.LVL383:
.L264:
	.loc 2 903 0
	addi 25,25,1
.LVL384:
	lwz 9,12(24)
	cmpw 7,28,25
	slwi 0,25,2
	lwzx 30,9,0
.LVL385:
	bgt+ 7,.L267
.LBE1163:
	.loc 2 927 0
	lwz 0,84(1)
.LVL386:
	lwz 23,44(1)
	mtlr 0
	lwz 24,48(1)
.LVL387:
	lwz 25,52(1)
.LVL388:
	lwz 26,56(1)
.LVL389:
	lwz 27,60(1)
.LVL390:
	lwz 28,64(1)
.LVL391:
	lwz 29,68(1)
	lwz 30,72(1)
.LVL392:
	lwz 31,76(1)
	addi 1,1,80
.LCFI47:
	.cfi_def_cfa_offset 0
	.cfi_restore 31
	.cfi_restore 30
	.cfi_restore 29
	.cfi_restore 28
	.cfi_restore 27
	.cfi_restore 26
	.cfi_restore 25
	.cfi_restore 24
	.cfi_restore 23
	blr
	.cfi_endproc
.LFE2836:
	.size	_ZNK5idPVS17GetConnectedAreasEiPb, .-_ZNK5idPVS17GetConnectedAreasEiPb
	.align 2
	.globl _ZNK5idPVS10GetPVSAreaERK6idVec3
	.type	_ZNK5idPVS10GetPVSAreaERK6idVec3, @function
_ZNK5idPVS10GetPVSAreaERK6idVec3:
.LFB2837:
	.loc 2 934 0
	.cfi_startproc
.LVL393:
	mflr 0
	stwu 1,-8(1)
.LCFI48:
	.cfi_def_cfa_offset 8
	.cfi_register 65, 0
	.loc 2 935 0
	lis 9,gameRenderWorld@ha
	lwz 3,gameRenderWorld@l(9)
.LVL394:
	.loc 2 934 0
	stw 0,12(1)
	.loc 2 935 0
	lwz 9,0(3)
	lwz 0,104(9)
	.cfi_offset 65, 4
	mtctr 0
	bctrl
.LVL395:
	.loc 2 936 0
	lwz 0,12(1)
	addi 1,1,8
.LCFI49:
	.cfi_def_cfa_offset 0
	mtlr 0
	blr
	.cfi_endproc
.LFE2837:
	.size	_ZNK5idPVS10GetPVSAreaERK6idVec3, .-_ZNK5idPVS10GetPVSAreaERK6idVec3
	.align 2
	.globl _ZNK5idPVS11GetPVSAreasERK8idBoundsPii
	.type	_ZNK5idPVS11GetPVSAreasERK8idBoundsPii, @function
_ZNK5idPVS11GetPVSAreasERK8idBoundsPii:
.LFB2838:
	.loc 2 943 0
	.cfi_startproc
.LVL396:
	mflr 0
	stwu 1,-8(1)
.LCFI50:
	.cfi_def_cfa_offset 8
	.cfi_register 65, 0
	.loc 2 944 0
	lis 9,gameRenderWorld@ha
	lwz 3,gameRenderWorld@l(9)
.LVL397:
	.loc 2 943 0
	stw 0,12(1)
	.loc 2 944 0
	lwz 9,0(3)
	lwz 0,108(9)
	.cfi_offset 65, 4
	mtctr 0
	bctrl
.LVL398:
	.loc 2 945 0
	lwz 0,12(1)
	addi 1,1,8
.LCFI51:
	.cfi_def_cfa_offset 0
	mtlr 0
	blr
	.cfi_endproc
.LFE2838:
	.size	_ZNK5idPVS11GetPVSAreasERK8idBoundsPii, .-_ZNK5idPVS11GetPVSAreasERK8idBoundsPii
	.align 2
	.globl _ZNK5idPVS15AllocCurrentPVSEj
	.type	_ZNK5idPVS15AllocCurrentPVSEj, @function
_ZNK5idPVS15AllocCurrentPVSEj:
.LFB2844:
	.loc 2 1107 0
	.cfi_startproc
.LVL399:
	mflr 0
	stwu 1,-8(1)
.LCFI52:
	.cfi_def_cfa_offset 8
	.cfi_register 65, 0
	.loc 2 1111 0
	li 10,8
	mr 9,3
	mtctr 10
	li 11,0
	.loc 2 1107 0
	stw 0,12(1)
	.loc 2 1107 0
	mr 0,3
	.cfi_offset 65, 4
.LVL400:
.L275:
.LBB1164:
	.loc 2 1112 0
	lwz 10,20(9)
	.loc 2 1111 0
	addi 9,9,12
	.loc 2 1112 0
	cmpwi 7,10,-1
	beq- 7,.L277
	.loc 2 1111 0
	addi 11,11,1
.LVL401:
	bdnz .L275
	.loc 2 1119 0
	lis 3,gameLocal@ha
	lis 4,.LC19@ha
.LVL402:
	la 3,gameLocal@l(3)
	la 4,.LC19@l(4)
	crxor 6,6,6
	bl _ZNK11idGameLocal5ErrorEPKcz
.LVL403:
.LBE1164:
	.loc 2 1124 0
	lwz 0,12(1)
.LBB1165:
	.loc 2 1123 0
	li 3,-1
	li 4,0
.LBE1165:
	.loc 2 1124 0
	mtlr 0
	addi 1,1,8
	.cfi_remember_state
.LCFI53:
	.cfi_def_cfa_offset 0
	blr
.LVL404:
.L277:
.LCFI54:
	.cfi_restore_state
.LBB1166:
	.loc 2 1113 0
	mulli 9,11,12
	.loc 2 1115 0
	mr 3,11
	.loc 2 1113 0
	add 9,0,9
	stw 11,20(9)
	.loc 2 1114 0
	stw 4,24(9)
.LBE1166:
	.loc 2 1124 0
	lwz 0,12(1)
.LVL405:
	addi 1,1,8
.LCFI55:
	.cfi_def_cfa_offset 0
	mtlr 0
	blr
	.cfi_endproc
.LFE2844:
	.size	_ZNK5idPVS15AllocCurrentPVSEj, .-_ZNK5idPVS15AllocCurrentPVSEj
	.align 2
	.globl _ZNK5idPVS15MergeCurrentPVSE11pvsHandle_sS0_
	.type	_ZNK5idPVS15MergeCurrentPVSE11pvsHandle_sS0_, @function
_ZNK5idPVS15MergeCurrentPVSE11pvsHandle_sS0_:
.LFB2843:
	.loc 2 1079 0
	.cfi_startproc
.LVL406:
	mflr 0
	stwu 1,-32(1)
.LCFI56:
	.cfi_def_cfa_offset 32
	.cfi_register 65, 0
	lwz 9,0(5)
	stw 27,12(1)
	stw 29,20(1)
	mulli 27,9,12
	.cfi_offset 29, -12
	.cfi_offset 27, -20
	stw 31,28(1)
	mr 31,3
	.cfi_offset 31, -4
	stw 0,36(1)
	stw 28,16(1)
	stw 30,24(1)
	.loc 2 1079 0
	lwz 0,0(4)
	.cfi_offset 30, -8
	.cfi_offset 28, -16
	.cfi_offset 65, 4
.LVL407:
	lwz 30,4(4)
.LVL408:
.LBB1167:
	.loc 2 1084 0
	cmplwi 7,0,7
	mulli 29,0,12
.LVL409:
.LBE1167:
	.loc 2 1079 0
	lwz 28,4(5)
.LVL410:
.LBB1168:
	.loc 2 1084 0
	bgt- 7,.L279
	.loc 2 1084 0 is_stmt 0 discriminator 1
	add 11,3,29
	lwz 0,24(11)
	cmpw 7,0,30
	beq- 7,.L289
.L279:
	.loc 2 1086 0 is_stmt 1
	lis 3,gameLocal@ha
.LVL411:
	lis 4,.LC20@ha
.LVL412:
	la 3,gameLocal@l(3)
	la 4,.LC20@l(4)
	crxor 6,6,6
	bl _ZNK11idGameLocal5ErrorEPKcz
.LVL413:
.L280:
	.loc 2 1089 0
	mr 3,31
	xor 4,28,30
	bl _ZNK5idPVS15AllocCurrentPVSEj
.LVL414:
	.loc 2 1095 0
	lwz 0,128(31)
	.loc 2 1091 0
	mulli 9,3,12
	.loc 2 1092 0
	add 29,31,29
	.loc 2 1095 0
	cmpwi 7,0,0
	.loc 2 1093 0
	add 27,31,27
	.loc 2 1091 0
	add 9,31,9
	.loc 2 1092 0
	lwz 8,28(29)
	.loc 2 1091 0
	lwz 11,28(9)
.LVL415:
	.loc 2 1093 0
	lwz 10,28(27)
.LVL416:
	.loc 2 1095 0
	ble- 7,.L281
	.loc 2 1079 0
	addi 8,8,-4
	addi 10,10,-4
	addi 11,11,-4
.LBE1168:
	.loc 2 1095 0
	li 9,0
.LVL417:
.L282:
.LBB1169:
	.loc 2 1096 0 discriminator 2
	lwzu 7,4(10)
	.loc 2 1095 0 discriminator 2
	addi 9,9,1
	.loc 2 1096 0 discriminator 2
	lwzu 0,4(8)
	or 0,7,0
	stwu 0,4(11)
.LVL418:
	.loc 2 1095 0 discriminator 2
	lwz 0,128(31)
	cmpw 7,0,9
	bgt+ 7,.L282
.LVL419:
.L281:
.LBE1169:
	.loc 2 1100 0
	lwz 0,36(1)
.LVL420:
	lwz 27,12(1)
	mtlr 0
	lwz 28,16(1)
.LVL421:
	lwz 29,20(1)
	lwz 30,24(1)
.LVL422:
	lwz 31,28(1)
.LVL423:
	addi 1,1,32
	.cfi_remember_state
.LCFI57:
	.cfi_def_cfa_offset 0
	.cfi_restore 31
	.cfi_restore 30
	.cfi_restore 29
	.cfi_restore 28
	.cfi_restore 27
	blr
.LVL424:
.L289:
.LCFI58:
	.cfi_restore_state
.LBB1170:
	.loc 2 1084 0 discriminator 2
	cmpwi 7,9,0
	blt- 7,.L279
	.loc 2 1084 0 is_stmt 0 discriminator 3
	cmpwi 7,9,7
	bgt- 7,.L279
	.loc 2 1084 0 discriminator 4
	add 9,3,27
.LVL425:
	lwz 0,24(9)
	cmpw 7,0,28
	bne+ 7,.L279
	b .L280
.LBE1170:
	.cfi_endproc
.LFE2843:
	.size	_ZNK5idPVS15MergeCurrentPVSE11pvsHandle_sS0_, .-_ZNK5idPVS15MergeCurrentPVSE11pvsHandle_sS0_
	.align 2
	.globl _ZNK5idPVS15SetupCurrentPVSEPKii9pvsType_t
	.type	_ZNK5idPVS15SetupCurrentPVSEPKii9pvsType_t, @function
_ZNK5idPVS15SetupCurrentPVSEPKii9pvsType_t:
.LFB2842:
	.loc 2 1017 0 is_stmt 1
	.cfi_startproc
.LVL426:
	mfcr 12
.LBB1171:
	.loc 2 1024 0
	cmpwi 4,5,0
.LBE1171:
	.loc 2 1017 0
	mflr 0
	stwu 1,-48(1)
.LCFI59:
	.cfi_def_cfa_offset 48
	.cfi_register 65, 0
	.cfi_register 70, 12
	stw 28,32(1)
	mr 28,6
	.cfi_offset 28, -16
	stw 29,36(1)
	mr 29,4
	.cfi_offset 29, -12
	stw 30,40(1)
.LBB1172:
	.loc 2 1024 0
	mr 30,5
	.cfi_offset 30, -8
.LBE1172:
	.loc 2 1017 0
	stw 31,44(1)
	mr 31,3
	.cfi_offset 31, -4
	stw 0,52(1)
	stw 24,16(1)
	stw 25,20(1)
	stw 26,24(1)
	stw 27,28(1)
	stw 12,12(1)
.LBB1173:
	.loc 2 1024 0
	ble- 4,.L291
	.cfi_offset 70, -36
	.cfi_offset 27, -20
	.cfi_offset 26, -24
	.cfi_offset 25, -28
	.cfi_offset 24, -32
	.cfi_offset 65, 4
.LBE1173:
	mtctr 5
.LBB1174:
	.loc 2 1017 0
	addi 9,4,-4
.LBE1174:
	.loc 2 1023 0
	li 4,0
.LVL427:
.L292:
.LBB1175:
	.loc 2 1025 0 discriminator 2
	lwzu 0,4(9)
	xor 4,4,0
.LVL428:
	.loc 2 1024 0 discriminator 2
	bdnz .L292
	.loc 2 1027 0
	mr 3,31
.LVL429:
	bl _ZNK5idPVS15AllocCurrentPVSEj
.LVL430:
	mr 27,3
.LVL431:
	mr 26,4
.LVL432:
.L293:
	.loc 2 1029 0 discriminator 1
	lwz 0,0(29)
	cmpwi 7,0,0
	blt- 7,.L294
	.loc 2 1029 0 is_stmt 0 discriminator 2
	lwz 9,0(31)
	cmpw 7,0,9
	bge- 7,.L294
	.loc 2 1034 0 is_stmt 1
	cmpwi 7,28,2
	beq- 7,.L297
	.loc 2 1036 0
	lwz 5,124(31)
	mulli 25,27,12
	lwz 4,16(31)
	mullw 0,0,5
	add 24,31,25
	lwz 3,28(24)
.LVL433:
	add 4,4,0
	bl memcpy
.LVL434:
	.loc 2 1037 0
	cmpwi 7,30,1
	ble- 7,.L298
	lwz 0,128(31)
	mr 6,29
	li 7,1
.LVL435:
.L301:
	.loc 2 1043 0
	cmpwi 7,0,0
	.loc 2 1041 0
	lwz 8,16(31)
	lwzu 10,4(6)
	lwz 9,124(31)
.LVL436:
	.loc 2 1042 0
	lwz 11,28(24)
.LVL437:
	.loc 2 1043 0
	ble- 7,.L299
	.loc 2 1041 0
	mullw 10,10,9
	.loc 2 1017 0
	addi 11,11,-4
	.loc 2 1043 0
	li 9,0
	.loc 2 1041 0
	add 10,8,10
	.loc 2 1017 0
	addi 10,10,-4
.LVL438:
.L300:
	.loc 2 1044 0 discriminator 2
	lwzu 8,4(11)
	.loc 2 1043 0 discriminator 2
	addi 9,9,1
	.loc 2 1044 0 discriminator 2
	lwzu 0,4(10)
	or 0,8,0
	stw 0,0(11)
.LVL439:
	.loc 2 1043 0 discriminator 2
	lwz 0,128(31)
	cmpw 7,0,9
	bgt+ 7,.L300
.LVL440:
.L299:
	.loc 2 1037 0
	addi 7,7,1
.LVL441:
	cmpw 7,7,30
	bne+ 7,.L301
.LVL442:
.L298:
	.loc 2 1051 0
	cmpwi 7,28,1
	beq- 7,.L296
.L302:
	.loc 2 1055 0
	lwz 3,8(31)
	li 4,0
	lwz 5,0(31)
	bl memset
.LVL443:
	.loc 2 1058 0
	ble- 4,.L303
	.loc 2 1017 0
	addi 28,29,-4
.LVL444:
	.loc 2 1058 0
	li 29,0
.LVL445:
	b .L305
.LVL446:
.L304:
	cmpw 7,29,30
	beq- 7,.L303
.LVL447:
.L305:
	.loc 2 1059 0
	lwz 5,8(31)
	.loc 2 1058 0
	addi 29,29,1
	.loc 2 1059 0
	lwzu 4,4(28)
	lbzx 0,5,4
	cmpwi 7,0,0
	bne+ 7,.L304
	.loc 2 1060 0
	mr 3,31
	bl _ZNK5idPVS17GetConnectedAreasEiPb
.LVL448:
	.loc 2 1058 0
	cmpw 7,29,30
	bne+ 7,.L305
.LVL449:
.L303:
	.loc 2 1065 0 discriminator 1
	lwz 8,0(31)
	cmpwi 7,8,0
	ble- 7,.L296
	.loc 2 1065 0 is_stmt 0
	li 9,0
	.loc 2 1067 0 is_stmt 1
	add 25,31,25
	li 7,1
.LVL450:
.L308:
	.loc 2 1066 0
	lwz 11,8(31)
	.loc 2 1067 0
	srawi 10,9,3
	.loc 2 1066 0
	lbzx 0,11,9
	.loc 2 1067 0
	rlwinm 11,9,0,29,31
	slw 11,7,11
	.loc 2 1065 0
	addi 9,9,1
	.loc 2 1066 0
	cmpwi 7,0,0
	bne- 7,.L307
	.loc 2 1067 0
	lwz 8,28(25)
	lbzx 0,8,10
	andc 11,0,11
	stbx 11,8,10
	lwz 8,0(31)
.L307:
.LVL451:
	.loc 2 1065 0
	cmpw 7,8,9
	bgt+ 7,.L308
.LBE1175:
	.loc 2 1072 0
	lwz 0,52(1)
	mr 3,27
	lwz 12,12(1)
.LVL452:
	mr 4,26
	mtlr 0
	lwz 24,16(1)
	lwz 25,20(1)
	mtcrf 8,12
	lwz 26,24(1)
.LVL453:
	lwz 27,28(1)
.LVL454:
	lwz 28,32(1)
	lwz 29,36(1)
	lwz 30,40(1)
.LVL455:
	lwz 31,44(1)
.LVL456:
	addi 1,1,48
	.cfi_remember_state
	.cfi_restore 24
	.cfi_restore 25
	.cfi_restore 26
	.cfi_restore 27
	.cfi_restore 28
	.cfi_restore 29
	.cfi_restore 30
	.cfi_restore 31
	.cfi_restore 70
.LCFI60:
	.cfi_def_cfa_offset 0
	blr
.LVL457:
.L291:
.LCFI61:
	.cfi_restore_state
.LBB1176:
	.loc 2 1027 0
	li 4,0
.LVL458:
	bl _ZNK5idPVS15AllocCurrentPVSEj
.LVL459:
	mr 27,3
.LVL460:
	mr 26,4
.LVL461:
	.loc 2 1029 0
	bne- 4,.L293
.LVL462:
.L294:
	.loc 2 1030 0
	mulli 0,27,12
	lwz 5,124(31)
	li 4,0
	add 31,31,0
.LVL463:
	lwz 3,28(31)
.LVL464:
	bl memset
.LVL465:
.L296:
.LBE1176:
	.loc 2 1072 0
	lwz 0,52(1)
	mr 3,27
	lwz 12,12(1)
.LVL466:
	mr 4,26
	mtlr 0
	lwz 24,16(1)
	lwz 25,20(1)
	mtcrf 8,12
	lwz 26,24(1)
.LVL467:
	lwz 27,28(1)
.LVL468:
	lwz 28,32(1)
	lwz 29,36(1)
	lwz 30,40(1)
.LVL469:
	lwz 31,44(1)
	addi 1,1,48
	.cfi_remember_state
.LCFI62:
	.cfi_def_cfa_offset 0
	.cfi_restore 70
	.cfi_restore 31
	.cfi_restore 30
	.cfi_restore 29
	.cfi_restore 28
	.cfi_restore 27
	.cfi_restore 26
	.cfi_restore 25
	.cfi_restore 24
	blr
.LVL470:
.L297:
.LCFI63:
	.cfi_restore_state
.LBB1177:
	.loc 2 1048 0
	mulli 25,27,12
	lwz 5,124(31)
	li 4,-1
	add 9,31,25
	lwz 3,28(9)
.LVL471:
	bl memset
	b .L302
.LBE1177:
	.cfi_endproc
.LFE2842:
	.size	_ZNK5idPVS15SetupCurrentPVSEPKii9pvsType_t, .-_ZNK5idPVS15SetupCurrentPVSEPKii9pvsType_t
	.align 2
	.globl _ZNK5idPVS15SetupCurrentPVSERK8idBounds9pvsType_t
	.type	_ZNK5idPVS15SetupCurrentPVSERK8idBounds9pvsType_t, @function
_ZNK5idPVS15SetupCurrentPVSERK8idBounds9pvsType_t:
.LFB2840:
	.loc 2 965 0
	.cfi_startproc
.LVL472:
	mflr 0
	stwu 1,-80(1)
.LCFI64:
	.cfi_def_cfa_offset 80
	.cfi_register 65, 0
.LBB1178:
	.loc 2 968 0
	lis 9,gameRenderWorld@ha
	li 6,16
.LBE1178:
	.loc 2 965 0
	stw 30,72(1)
	mr 30,3
	.cfi_offset 30, -8
	stw 31,76(1)
	mr 31,5
	.cfi_offset 31, -4
	stw 0,84(1)
.LBB1179:
	.loc 2 968 0
	addi 5,1,8
.LVL473:
	lwz 9,gameRenderWorld@l(9)
	lwz 11,0(9)
	mr 3,9
.LVL474:
	lwz 0,108(11)
	.cfi_offset 65, 4
	mtctr 0
	bctrl
.LVL475:
	.loc 2 970 0
	addi 4,1,8
	.loc 2 968 0
	mr 5,3
.LVL476:
	.loc 2 970 0
	mr 6,31
	mr 3,30
.LVL477:
	bl _ZNK5idPVS15SetupCurrentPVSEPKii9pvsType_t
.LVL478:
.LBE1179:
	.loc 2 971 0
	lwz 0,84(1)
	lwz 30,72(1)
.LVL479:
	mtlr 0
	lwz 31,76(1)
.LVL480:
	addi 1,1,80
.LCFI65:
	.cfi_def_cfa_offset 0
	.cfi_restore 31
	.cfi_restore 30
	blr
	.cfi_endproc
.LFE2840:
	.size	_ZNK5idPVS15SetupCurrentPVSERK8idBounds9pvsType_t, .-_ZNK5idPVS15SetupCurrentPVSERK8idBounds9pvsType_t
	.align 2
	.globl _ZNK5idPVS15SetupCurrentPVSEi9pvsType_t
	.type	_ZNK5idPVS15SetupCurrentPVSEi9pvsType_t, @function
_ZNK5idPVS15SetupCurrentPVSEi9pvsType_t:
.LFB2841:
	.loc 2 978 0
	.cfi_startproc
.LVL481:
	stwu 1,-32(1)
.LCFI66:
	.cfi_def_cfa_offset 32
	mflr 0
	stw 30,24(1)
	mr 30,4
	.cfi_offset 30, -8
	.cfi_register 65, 0
	stw 27,12(1)
	mr 27,5
	.cfi_offset 27, -20
	stw 28,16(1)
	stw 29,20(1)
	stw 31,28(1)
	mr 31,3
	.cfi_offset 31, -4
	.cfi_offset 29, -12
	.cfi_offset 28, -16
	stw 0,36(1)
	stw 26,8(1)
.LBB1180:
	.loc 2 982 0
	.cfi_offset 26, -24
	.cfi_offset 65, 4
	bl _ZNK5idPVS15AllocCurrentPVSEj
.LVL482:
	.loc 2 984 0
	cmpwi 7,30,0
	.loc 2 982 0
	mr 29,3
.LVL483:
	mr 28,4
.LVL484:
	.loc 2 984 0
	blt- 7,.L316
	.loc 2 984 0 is_stmt 0 discriminator 1
	lwz 0,0(31)
	cmpw 7,0,30
	ble- 7,.L316
	.loc 2 989 0 is_stmt 1
	cmpwi 7,27,2
	beq- 7,.L319
	.loc 2 990 0
	lwz 5,124(31)
	mulli 26,29,12
	lwz 4,16(31)
	mullw 0,5,30
	add 9,31,26
	lwz 3,28(9)
.LVL485:
	add 4,4,0
	bl memcpy
	.loc 2 995 0
	cmpwi 7,27,1
	bne- 7,.L321
.L318:
.LBE1180:
	.loc 2 1010 0
	lwz 0,36(1)
	mr 3,29
.LVL486:
	mr 4,28
	lwz 26,8(1)
	mtlr 0
	lwz 27,12(1)
.LVL487:
	lwz 28,16(1)
.LVL488:
	lwz 29,20(1)
.LVL489:
	lwz 30,24(1)
.LVL490:
	lwz 31,28(1)
.LVL491:
	addi 1,1,32
	.cfi_remember_state
.LCFI67:
	.cfi_def_cfa_offset 0
	.cfi_restore 31
	.cfi_restore 30
	.cfi_restore 29
	.cfi_restore 28
	.cfi_restore 27
	.cfi_restore 26
	blr
.LVL492:
.L316:
.LCFI68:
	.cfi_restore_state
.LBB1181:
	.loc 2 985 0
	mulli 0,29,12
	lwz 5,124(31)
	li 4,0
	add 31,31,0
.LVL493:
	lwz 3,28(31)
.LVL494:
	bl memset
.LBE1181:
	.loc 2 1010 0
	lwz 0,36(1)
	mr 3,29
.LVL495:
	mr 4,28
	mtlr 0
	lwz 26,8(1)
	lwz 27,12(1)
.LVL496:
	lwz 28,16(1)
.LVL497:
	lwz 29,20(1)
.LVL498:
	lwz 30,24(1)
.LVL499:
	lwz 31,28(1)
	addi 1,1,32
	.cfi_remember_state
	.cfi_restore 26
	.cfi_restore 27
	.cfi_restore 28
	.cfi_restore 29
	.cfi_restore 30
	.cfi_restore 31
.LCFI69:
	.cfi_def_cfa_offset 0
	blr
.LVL500:
.L319:
.LCFI70:
	.cfi_restore_state
.LBB1182:
	.loc 2 992 0
	mulli 26,29,12
	lwz 5,124(31)
	li 4,-1
	add 9,31,26
	lwz 3,28(9)
.LVL501:
	bl memset
.L321:
	.loc 2 999 0
	lwz 5,0(31)
	li 4,0
	lwz 3,8(31)
	bl memset
	.loc 2 1001 0
	lwz 5,8(31)
	mr 3,31
	mr 4,30
	bl _ZNK5idPVS17GetConnectedAreasEiPb
.LVL502:
	.loc 2 1003 0
	lwz 8,0(31)
	cmpwi 7,8,0
	ble- 7,.L318
	li 9,0
	.loc 2 1005 0
	add 26,31,26
	li 7,1
.LVL503:
.L324:
	.loc 2 1004 0
	lwz 11,8(31)
	.loc 2 1005 0
	rlwinm 10,9,0,29,31
	srawi 0,9,3
	slw 10,7,10
	.loc 2 1004 0
	lbzx 11,11,9
	.loc 2 1003 0
	addi 9,9,1
	.loc 2 1004 0
	cmpwi 7,11,0
	bne- 7,.L323
	.loc 2 1005 0
	lwz 11,28(26)
	lbzx 8,11,0
	andc 10,8,10
	stbx 10,11,0
	lwz 8,0(31)
.L323:
.LVL504:
	.loc 2 1003 0
	cmpw 7,8,9
	bgt+ 7,.L324
.LBE1182:
	.loc 2 1010 0
	lwz 0,36(1)
	mr 3,29
.LVL505:
	mr 4,28
	lwz 26,8(1)
	mtlr 0
	lwz 27,12(1)
.LVL506:
	lwz 28,16(1)
.LVL507:
	lwz 29,20(1)
.LVL508:
	lwz 30,24(1)
.LVL509:
	lwz 31,28(1)
.LVL510:
	addi 1,1,32
	.cfi_restore 26
	.cfi_restore 27
	.cfi_restore 28
	.cfi_restore 29
	.cfi_restore 30
	.cfi_restore 31
.LCFI71:
	.cfi_def_cfa_offset 0
	blr
	.cfi_endproc
.LFE2841:
	.size	_ZNK5idPVS15SetupCurrentPVSEi9pvsType_t, .-_ZNK5idPVS15SetupCurrentPVSEi9pvsType_t
	.align 2
	.globl _ZNK5idPVS15SetupCurrentPVSERK6idVec39pvsType_t
	.type	_ZNK5idPVS15SetupCurrentPVSERK6idVec39pvsType_t, @function
_ZNK5idPVS15SetupCurrentPVSERK6idVec39pvsType_t:
.LFB2839:
	.loc 2 952 0
	.cfi_startproc
.LVL511:
	mflr 0
	stwu 1,-24(1)
.LCFI72:
	.cfi_def_cfa_offset 24
	.cfi_register 65, 0
.LBB1183:
	.loc 2 955 0
	lis 9,gameRenderWorld@ha
.LBE1183:
	.loc 2 952 0
	stw 31,20(1)
	mr 31,3
	.cfi_offset 31, -4
	stw 0,28(1)
.LBB1184:
	.loc 2 955 0
	lwz 9,gameRenderWorld@l(9)
	lwz 11,0(9)
	mr 3,9
.LVL512:
	lwz 0,104(11)
	.cfi_offset 65, 4
	stw 5,8(1)
	mtctr 0
	bctrl
.LVL513:
	.loc 2 957 0
	lwz 5,8(1)
	.loc 2 955 0
	mr 4,3
.LVL514:
	.loc 2 957 0
	mr 3,31
.LVL515:
	bl _ZNK5idPVS15SetupCurrentPVSEi9pvsType_t
.LVL516:
.LBE1184:
	.loc 2 958 0
	lwz 0,28(1)
	lwz 31,20(1)
.LVL517:
	mtlr 0
	addi 1,1,24
.LCFI73:
	.cfi_def_cfa_offset 0
	.cfi_restore 31
	blr
	.cfi_endproc
.LFE2839:
	.size	_ZNK5idPVS15SetupCurrentPVSERK6idVec39pvsType_t, .-_ZNK5idPVS15SetupCurrentPVSERK6idVec39pvsType_t
	.align 2
	.globl _ZNK5idPVS14FreeCurrentPVSE11pvsHandle_s
	.type	_ZNK5idPVS14FreeCurrentPVSE11pvsHandle_s, @function
_ZNK5idPVS14FreeCurrentPVSE11pvsHandle_s:
.LFB2845:
	.loc 2 1131 0
	.cfi_startproc
.LVL518:
	mflr 0
	stwu 1,-16(1)
.LCFI74:
	.cfi_def_cfa_offset 16
	.cfi_register 65, 0
	stw 30,8(1)
	mr 30,3
	.cfi_offset 30, -8
	stw 0,20(1)
	stw 31,12(1)
	.loc 2 1131 0
	lwz 31,0(4)
	.cfi_offset 31, -4
	.cfi_offset 65, 4
.LVL519:
	lwz 0,4(4)
	.loc 2 1132 0
	cmplwi 7,31,7
	mulli 31,31,12
	bgt- 7,.L328
	.loc 2 1132 0 is_stmt 0 discriminator 1
	add 9,3,31
	lwz 9,24(9)
	cmpw 7,9,0
	beq- 7,.L329
.L328:
	.loc 2 1133 0 is_stmt 1
	lis 3,gameLocal@ha
.LVL520:
	lis 4,.LC21@ha
.LVL521:
	la 3,gameLocal@l(3)
	la 4,.LC21@l(4)
	crxor 6,6,6
	bl _ZNK11idGameLocal5ErrorEPKcz
.L329:
	.loc 2 1135 0
	add 31,30,31
	li 0,-1
	stw 0,20(31)
	.loc 2 1136 0
	lwz 0,20(1)
	lwz 30,8(1)
.LVL522:
	mtlr 0
	lwz 31,12(1)
	addi 1,1,16
.LCFI75:
	.cfi_def_cfa_offset 0
	.cfi_restore 31
	.cfi_restore 30
	blr
	.cfi_endproc
.LFE2845:
	.size	_ZNK5idPVS14FreeCurrentPVSE11pvsHandle_s, .-_ZNK5idPVS14FreeCurrentPVSE11pvsHandle_s
	.align 2
	.globl _ZNK5idPVS12InCurrentPVSE11pvsHandle_sRK6idVec3
	.type	_ZNK5idPVS12InCurrentPVSE11pvsHandle_sRK6idVec3, @function
_ZNK5idPVS12InCurrentPVSE11pvsHandle_sRK6idVec3:
.LFB2846:
	.loc 2 1143 0
	.cfi_startproc
.LVL523:
	mflr 0
	stwu 1,-24(1)
.LCFI76:
	.cfi_def_cfa_offset 24
	.cfi_register 65, 0
	stw 29,12(1)
	mr 29,5
	.cfi_offset 29, -12
	stw 30,16(1)
	mr 30,3
	.cfi_offset 30, -8
	stw 0,28(1)
	stw 31,20(1)
	.loc 2 1143 0
	lwz 31,0(4)
	.cfi_offset 31, -4
	.cfi_offset 65, 4
.LVL524:
	lwz 0,4(4)
.LBB1185:
	.loc 2 1146 0
	cmplwi 7,31,7
	bgt- 7,.L333
	.loc 2 1146 0 is_stmt 0 discriminator 1
	mulli 9,31,12
	add 9,3,9
	lwz 9,24(9)
	cmpw 7,9,0
	beq- 7,.L334
.L333:
	.loc 2 1148 0 is_stmt 1
	lis 3,gameLocal@ha
.LVL525:
	lis 4,.LC22@ha
.LVL526:
	la 3,gameLocal@l(3)
	la 4,.LC22@l(4)
	crxor 6,6,6
	bl _ZNK11idGameLocal5ErrorEPKcz
.LVL527:
.L334:
	.loc 2 1151 0
	lis 9,gameRenderWorld@ha
	mr 4,29
	lwz 3,gameRenderWorld@l(9)
	lwz 9,0(3)
	lwz 0,104(9)
	mtctr 0
	bctrl
	.loc 2 1153 0
	cmpwi 7,3,-1
	.loc 2 1151 0
	mr 0,3
.LVL528:
	.loc 2 1154 0
	li 3,0
.LVL529:
	.loc 2 1153 0
	beq- 7,.L335
	.loc 2 1157 0
	mulli 31,31,12
.LVL530:
	srawi 9,0,3
	rlwinm 0,0,0,29,31
.LVL531:
	add 30,30,31
.LVL532:
	lwz 11,28(30)
	lbzx 3,11,9
	sraw 3,3,0
	rlwinm 3,3,0,31,31
.L335:
.LBE1185:
	.loc 2 1158 0
	lwz 0,28(1)
	lwz 29,12(1)
.LVL533:
	mtlr 0
	lwz 30,16(1)
	lwz 31,20(1)
	addi 1,1,24
.LCFI77:
	.cfi_def_cfa_offset 0
	.cfi_restore 31
	.cfi_restore 30
	.cfi_restore 29
	blr
	.cfi_endproc
.LFE2846:
	.size	_ZNK5idPVS12InCurrentPVSE11pvsHandle_sRK6idVec3, .-_ZNK5idPVS12InCurrentPVSE11pvsHandle_sRK6idVec3
	.align 2
	.globl _ZNK5idPVS12InCurrentPVSE11pvsHandle_sRK8idBounds
	.type	_ZNK5idPVS12InCurrentPVSE11pvsHandle_sRK8idBounds, @function
_ZNK5idPVS12InCurrentPVSE11pvsHandle_sRK8idBounds:
.LFB2847:
	.loc 2 1165 0
	.cfi_startproc
.LVL534:
	mflr 0
	stwu 1,-88(1)
.LCFI78:
	.cfi_def_cfa_offset 88
	.cfi_register 65, 0
	stw 29,76(1)
	mr 29,5
	.cfi_offset 29, -12
	stw 30,80(1)
	mr 30,3
	.cfi_offset 30, -8
	stw 0,92(1)
	stw 31,84(1)
	.loc 2 1165 0
	lwz 31,0(4)
	.cfi_offset 31, -4
	.cfi_offset 65, 4
.LVL535:
	lwz 0,4(4)
.LBB1186:
	.loc 2 1168 0
	cmplwi 7,31,7
	bgt- 7,.L338
	.loc 2 1168 0 is_stmt 0 discriminator 1
	mulli 9,31,12
	add 9,3,9
	lwz 9,24(9)
	cmpw 7,9,0
	beq- 7,.L339
.L338:
	.loc 2 1170 0 is_stmt 1
	lis 3,gameLocal@ha
.LVL536:
	lis 4,.LC22@ha
.LVL537:
	la 3,gameLocal@l(3)
	la 4,.LC22@l(4)
	crxor 6,6,6
	bl _ZNK11idGameLocal5ErrorEPKcz
.LVL538:
.L339:
	.loc 2 1173 0
	lis 9,gameRenderWorld@ha
	mr 4,29
	lwz 3,gameRenderWorld@l(9)
	addi 5,1,8
	li 6,16
	lwz 9,0(3)
	lwz 0,108(9)
	mtctr 0
	bctrl
.LVL539:
	.loc 2 1175 0
	mr. 11,3
	.loc 2 1180 0
	li 3,0
.LVL540:
	.loc 2 1175 0
	ble- 0,.L340
	.loc 2 1176 0
	mulli 31,31,12
.LVL541:
	lwz 0,8(1)
	.loc 2 1177 0
	li 3,1
	.loc 2 1176 0
	add 30,30,31
.LVL542:
	srawi 9,0,3
	lwz 10,28(30)
	rlwinm 0,0,0,29,31
	lbzx 9,10,9
	sraw 0,9,0
	andi. 9,0,1
	bne- 0,.L340
	.loc 2 1175 0
	mtctr 11
	.loc 2 1176 0
	addi 9,1,8
.LVL543:
.L341:
	.loc 2 1175 0
	bdz .L346
	.loc 2 1176 0
	lwzu 0,4(9)
	srawi 11,0,3
	rlwinm 0,0,0,29,31
	lbzx 11,10,11
	sraw 0,11,0
	andi. 11,0,1
	beq+ 0,.L341
	.loc 2 1177 0
	li 3,1
.L340:
.LBE1186:
	.loc 2 1181 0
	lwz 0,92(1)
	lwz 29,76(1)
.LVL544:
	mtlr 0
	lwz 30,80(1)
	lwz 31,84(1)
	addi 1,1,88
	.cfi_remember_state
.LCFI79:
	.cfi_def_cfa_offset 0
	.cfi_restore 31
	.cfi_restore 30
	.cfi_restore 29
	blr
.LVL545:
.L346:
.LCFI80:
	.cfi_restore_state
	lwz 0,92(1)
.LBB1187:
	.loc 2 1180 0
	li 3,0
.LBE1187:
	.loc 2 1181 0
	lwz 29,76(1)
.LVL546:
	mtlr 0
	lwz 30,80(1)
	lwz 31,84(1)
	addi 1,1,88
	.cfi_restore 29
	.cfi_restore 30
	.cfi_restore 31
.LCFI81:
	.cfi_def_cfa_offset 0
	blr
	.cfi_endproc
.LFE2847:
	.size	_ZNK5idPVS12InCurrentPVSE11pvsHandle_sRK8idBounds, .-_ZNK5idPVS12InCurrentPVSE11pvsHandle_sRK8idBounds
	.align 2
	.globl _ZNK5idPVS12InCurrentPVSE11pvsHandle_si
	.type	_ZNK5idPVS12InCurrentPVSE11pvsHandle_si, @function
_ZNK5idPVS12InCurrentPVSE11pvsHandle_si:
.LFB2848:
	.loc 2 1188 0
	.cfi_startproc
.LVL547:
	mflr 0
	stwu 1,-24(1)
.LCFI82:
	.cfi_def_cfa_offset 24
	.cfi_register 65, 0
	stw 29,12(1)
	mr 29,5
	.cfi_offset 29, -12
	stw 30,16(1)
	mr 30,3
	.cfi_offset 30, -8
	stw 0,28(1)
	stw 31,20(1)
	.loc 2 1188 0
	lwz 31,0(4)
	.cfi_offset 31, -4
	.cfi_offset 65, 4
.LVL548:
	lwz 0,4(4)
	.loc 2 1190 0
	cmplwi 7,31,7
	bgt- 7,.L348
	.loc 2 1190 0 is_stmt 0 discriminator 1
	mulli 9,31,12
	add 9,3,9
	lwz 9,24(9)
	cmpw 7,9,0
	beq- 7,.L349
.L348:
	.loc 2 1192 0 is_stmt 1
	lis 3,gameLocal@ha
.LVL549:
	lis 4,.LC22@ha
.LVL550:
	la 3,gameLocal@l(3)
	la 4,.LC22@l(4)
	crxor 6,6,6
	bl _ZNK11idGameLocal5ErrorEPKcz
.LVL551:
.L349:
	.loc 2 1195 0
	cmpwi 7,29,0
	.loc 2 1196 0
	li 3,0
	.loc 2 1195 0
	blt- 7,.L350
	.loc 2 1195 0 is_stmt 0 discriminator 1
	lwz 0,0(30)
	cmpw 7,29,0
	bge- 7,.L350
	.loc 2 1199 0 is_stmt 1
	mulli 31,31,12
.LVL552:
	srawi 0,29,3
	rlwinm 29,29,0,29,31
.LVL553:
	add 30,30,31
.LVL554:
	lwz 9,28(30)
	lbzx 3,9,0
	sraw 3,3,29
	rlwinm 3,3,0,31,31
.L350:
	.loc 2 1200 0
	lwz 0,28(1)
	lwz 29,12(1)
	mtlr 0
	lwz 30,16(1)
	lwz 31,20(1)
	addi 1,1,24
.LCFI83:
	.cfi_def_cfa_offset 0
	.cfi_restore 31
	.cfi_restore 30
	.cfi_restore 29
	blr
	.cfi_endproc
.LFE2848:
	.size	_ZNK5idPVS12InCurrentPVSE11pvsHandle_si, .-_ZNK5idPVS12InCurrentPVSE11pvsHandle_si
	.align 2
	.globl _ZNK5idPVS12InCurrentPVSE11pvsHandle_sPKii
	.type	_ZNK5idPVS12InCurrentPVSE11pvsHandle_sPKii, @function
_ZNK5idPVS12InCurrentPVSE11pvsHandle_sPKii:
.LFB2849:
	.loc 2 1207 0
	.cfi_startproc
.LVL555:
	mflr 0
	stwu 1,-24(1)
.LCFI84:
	.cfi_def_cfa_offset 24
	.cfi_register 65, 0
	stw 28,8(1)
	mr 28,6
	.cfi_offset 28, -16
	stw 29,12(1)
	mr 29,5
	.cfi_offset 29, -12
	stw 31,20(1)
	mr 31,3
	.cfi_offset 31, -4
	stw 0,28(1)
	stw 30,16(1)
	.loc 2 1207 0
	lwz 30,0(4)
	.cfi_offset 30, -8
	.cfi_offset 65, 4
.LVL556:
	lwz 0,4(4)
.LBB1188:
	.loc 2 1210 0
	cmplwi 7,30,7
	bgt- 7,.L354
	.loc 2 1210 0 is_stmt 0 discriminator 1
	mulli 9,30,12
	add 9,3,9
	lwz 9,24(9)
	cmpw 7,9,0
	beq- 7,.L355
.L354:
	.loc 2 1212 0 is_stmt 1
	lis 3,gameLocal@ha
.LVL557:
	lis 4,.LC22@ha
.LVL558:
	la 3,gameLocal@l(3)
	la 4,.LC22@l(4)
	crxor 6,6,6
	bl _ZNK11idGameLocal5ErrorEPKcz
.LVL559:
.L355:
	.loc 2 1215 0
	cmpwi 7,28,0
	.loc 2 1223 0
	li 3,0
	.loc 2 1215 0
	ble- 7,.L356
	.loc 2 1219 0
	mulli 30,30,12
.LVL560:
	mtctr 28
	.loc 2 1207 0
	addi 29,29,-4
.LVL561:
	.loc 2 1219 0
	add 30,31,30
.LVL562:
.L358:
	.loc 2 1216 0
	lwzu 0,4(29)
	cmpwi 7,0,0
	blt- 7,.L357
	.loc 2 1216 0 is_stmt 0 discriminator 1
	lwz 9,0(31)
	.loc 2 1219 0 is_stmt 1 discriminator 1
	srawi 10,0,3
	rlwinm 11,0,0,29,31
	.loc 2 1216 0 discriminator 1
	cmpw 7,0,9
	bge- 7,.L357
	.loc 2 1219 0
	lwz 9,28(30)
	lbzx 0,9,10
	sraw 11,0,11
	andi. 0,11,1
	bne- 0,.L360
.L357:
	.loc 2 1215 0
	bdnz .L358
	.loc 2 1223 0
	li 3,0
.L356:
.LBE1188:
	.loc 2 1224 0
	lwz 0,28(1)
	lwz 28,8(1)
.LVL563:
	mtlr 0
	lwz 29,12(1)
	lwz 30,16(1)
	lwz 31,20(1)
.LVL564:
	addi 1,1,24
	.cfi_remember_state
.LCFI85:
	.cfi_def_cfa_offset 0
	.cfi_restore 31
	.cfi_restore 30
	.cfi_restore 29
	.cfi_restore 28
	blr
.LVL565:
.L360:
.LCFI86:
	.cfi_restore_state
	lwz 0,28(1)
.LBB1189:
	.loc 2 1220 0
	li 3,1
.LBE1189:
	.loc 2 1224 0
	lwz 28,8(1)
.LVL566:
	mtlr 0
	lwz 29,12(1)
	lwz 30,16(1)
	lwz 31,20(1)
.LVL567:
	addi 1,1,24
	.cfi_restore 28
	.cfi_restore 29
	.cfi_restore 30
	.cfi_restore 31
.LCFI87:
	.cfi_def_cfa_offset 0
	blr
	.cfi_endproc
.LFE2849:
	.size	_ZNK5idPVS12InCurrentPVSE11pvsHandle_sPKii, .-_ZNK5idPVS12InCurrentPVSE11pvsHandle_sPKii
	.align 2
	.globl _ZNK5idPVS7DrawPVSERK6idVec39pvsType_t
	.type	_ZNK5idPVS7DrawPVSERK6idVec39pvsType_t, @function
_ZNK5idPVS7DrawPVSERK6idVec39pvsType_t:
.LFB2850:
	.loc 2 1231 0
	.cfi_startproc
.LVL568:
	stwu 1,-184(1)
.LCFI88:
	.cfi_def_cfa_offset 184
	mflr 0
	stw 21,116(1)
.LBB1190:
	.loc 2 1239 0
	lis 21,gameRenderWorld@ha
	.cfi_offset 21, -68
	.cfi_register 65, 0
.LBE1190:
	.loc 2 1231 0
	stw 18,104(1)
	stw 19,108(1)
	mr 19,3
	.cfi_offset 19, -76
	.cfi_offset 18, -80
	stw 30,152(1)
	mr 30,5
	.cfi_offset 30, -32
	stw 31,156(1)
	mr 31,4
	.cfi_offset 31, -28
	stw 0,188(1)
	stfd 29,160(1)
	stfd 30,168(1)
	stfd 31,176(1)
	stw 14,88(1)
	stw 15,92(1)
	stw 16,96(1)
	stw 17,100(1)
	stw 20,112(1)
	stw 22,120(1)
	stw 23,124(1)
	stw 24,128(1)
	stw 25,132(1)
	stw 26,136(1)
	stw 27,140(1)
	stw 28,144(1)
	stw 29,148(1)
.LBB1225:
	.loc 2 1239 0
	lwz 9,gameRenderWorld@l(21)
	lwz 11,0(9)
	mr 3,9
.LVL569:
	lwz 0,104(11)
	.cfi_offset 29, -36
	.cfi_offset 28, -40
	.cfi_offset 27, -44
	.cfi_offset 26, -48
	.cfi_offset 25, -52
	.cfi_offset 24, -56
	.cfi_offset 23, -60
	.cfi_offset 22, -64
	.cfi_offset 20, -72
	.cfi_offset 17, -84
	.cfi_offset 16, -88
	.cfi_offset 15, -92
	.cfi_offset 14, -96
	.cfi_offset 63, -8
	.cfi_offset 62, -16
	.cfi_offset 61, -24
	.cfi_offset 65, 4
	mtctr 0
	bctrl
.LVL570:
	.loc 2 1241 0
	cmpwi 7,3,-1
	.loc 2 1239 0
	mr 18,3
.LVL571:
	.loc 2 1241 0
	beq- 7,.L362
	.loc 2 1245 0
	mr 3,19
.LVL572:
	mr 4,31
	mr 5,30
	bl _ZNK5idPVS15SetupCurrentPVSERK6idVec39pvsType_t
	.loc 2 1247 0
	lwz 11,0(19)
	.loc 2 1245 0
	mr 14,3
.LVL573:
	stw 4,80(1)
.LVL574:
	.loc 2 1247 0
	cmpwi 7,11,0
	ble- 7,.L364
	mulli 20,14,12
	li 24,0
	lis 17,.LC23@ha
	.loc 2 1257 0
	lis 16,colorCyan@ha
	.loc 2 1249 0
	add 20,19,20
	.loc 2 1254 0
	lis 15,colorRed@ha
.LVL575:
.L370:
	.loc 2 1249 0
	lwz 9,28(20)
	srawi 0,24,3
	lbzx 9,9,0
	rlwinm 0,24,0,29,31
	sraw 0,9,0
	andi. 9,0,1
	beq- 0,.L365
	.loc 2 1253 0
	cmpw 7,24,18
	beq- 7,.L378
	.loc 2 1257 0
	la 26,colorCyan@l(16)
.L366:
.LVL576:
	.loc 2 1260 0
	lwz 3,gameRenderWorld@l(21)
	mr 4,24
	la 27,gameRenderWorld@l(21)
	lwz 9,0(3)
	lwz 0,112(9)
	mtctr 0
	bctrl
.LVL577:
	.loc 2 1263 0
	mr. 22,3
	ble- 0,.L377
	li 25,0
	la 23,.LC23@l(17)
.LVL578:
.L369:
	.loc 2 1264 0
	lwz 4,0(27)
	addi 3,1,48
	mr 5,24
	mr 6,25
	lwz 9,0(4)
	lwz 0,116(9)
	mtctr 0
	bctrl
	lwz 28,56(1)
.LVL579:
	.loc 2 1268 0
	addi 4,1,32
	.loc 2 1388 0
	lwz 29,4(28)
	.loc 2 1268 0
	mr 3,28
	bl _ZNK9idWinding8GetPlaneER7idPlane
.LVL580:
.LBB1191:
.LBB1192:
	.loc 5 439 0
	lfs 0,0(23)
.LBE1192:
.LBE1191:
	.loc 2 1270 0
	cmpwi 7,29,0
.LBB1194:
.LBB1193:
	.loc 5 439 0
	lfs 31,32(1)
	lfs 30,36(1)
	lfs 29,40(1)
	fmuls 31,31,0
	fmuls 30,30,0
	fmuls 29,29,0
.LVL581:
.LBE1193:
.LBE1194:
	.loc 2 1270 0
	ble- 7,.L367
	li 30,0
	li 31,0
.LVL582:
.L368:
	.loc 2 1271 0 discriminator 2
	addi 31,31,1
.LBB1195:
.LBB1196:
	.loc 1 204 0 discriminator 2
	lwz 11,8(28)
.LBE1196:
.LBE1195:
	.loc 2 1271 0 discriminator 2
	divw 0,31,29
	lwz 3,0(27)
.LBB1198:
.LBB1197:
	.loc 1 204 0 discriminator 2
	add 9,11,30
.LBE1197:
.LBE1198:
.LBB1199:
.LBB1200:
	.loc 5 452 0 discriminator 2
	lfsx 0,11,30
	lfs 12,8(9)
.LBE1200:
.LBE1199:
	.loc 2 1271 0 discriminator 2
	mr 4,26
.LBB1212:
.LBB1207:
	.loc 5 452 0 discriminator 2
	lfs 13,4(9)
	fadds 0,31,0
	fadds 12,29,12
.LBE1207:
.LBE1212:
	.loc 2 1271 0 discriminator 2
	lwz 9,0(3)
.LBB1213:
.LBB1208:
	.loc 5 452 0 discriminator 2
	fadds 13,30,13
.LBE1208:
.LBE1213:
	.loc 2 1271 0 discriminator 2
	addi 5,1,20
.LBB1214:
.LBB1209:
.LBB1201:
.LBB1202:
	.loc 5 396 0 discriminator 2
	stfs 0,20(1)
.LBE1202:
.LBE1201:
.LBE1209:
.LBE1214:
	.loc 2 1271 0 discriminator 2
	addi 6,1,8
.LBB1215:
.LBB1210:
.LBB1205:
.LBB1203:
	.loc 5 398 0 discriminator 2
	stfs 12,28(1)
.LBE1203:
.LBE1205:
.LBE1210:
.LBE1215:
	.loc 2 1271 0 discriminator 2
	li 7,0
.LBB1216:
.LBB1211:
.LBB1206:
.LBB1204:
	.loc 5 397 0 discriminator 2
	stfs 13,24(1)
.LBE1204:
.LBE1206:
.LBE1211:
.LBE1216:
	.loc 2 1271 0 discriminator 2
	li 8,0
.LBB1217:
.LBB1218:
	.loc 1 204 0 discriminator 2
	lwz 11,8(28)
.LBE1218:
.LBE1217:
	.loc 2 1271 0 discriminator 2
	addi 30,30,20
	lwz 10,156(9)
.LVL583:
	mtctr 10
	mullw 0,0,29
	subf 0,0,31
.LBB1220:
.LBB1219:
	.loc 1 204 0 discriminator 2
	mulli 0,0,20
	add 9,11,0
.LVL584:
.LBE1219:
.LBE1220:
.LBB1221:
.LBB1222:
	.loc 5 452 0 discriminator 2
	lfsx 0,11,0
	lfs 12,4(9)
.LVL585:
	lfs 13,8(9)
.LVL586:
	fadds 0,31,0
	fadds 12,30,12
	fadds 13,29,13
.LVL587:
.LBB1223:
.LBB1224:
	.loc 5 396 0 discriminator 2
	stfs 0,8(1)
	.loc 5 397 0 discriminator 2
	stfs 12,12(1)
	.loc 5 398 0 discriminator 2
	stfs 13,16(1)
.LBE1224:
.LBE1223:
.LBE1222:
.LBE1221:
	.loc 2 1271 0 discriminator 2
	bctrl
.LVL588:
	.loc 2 1270 0 discriminator 2
	cmpw 7,31,29
	bne+ 7,.L368
.LVL589:
.L367:
	.loc 2 1263 0
	addi 25,25,1
.LVL590:
	cmpw 7,25,22
	bne+ 7,.L369
.LVL591:
.L377:
	lwz 11,0(19)
.LVL592:
.L365:
	.loc 2 1247 0
	addi 24,24,1
.LVL593:
	cmpw 7,11,24
	bgt+ 7,.L370
.LVL594:
.L364:
	.loc 2 1276 0
	lwz 0,80(1)
	mr 3,19
	addi 4,1,72
	stw 14,72(1)
	stw 0,76(1)
	bl _ZNK5idPVS14FreeCurrentPVSE11pvsHandle_s
.L362:
.LBE1225:
	.loc 2 1277 0
	lwz 0,188(1)
	lwz 14,88(1)
	mtlr 0
	lwz 15,92(1)
	lwz 16,96(1)
	lwz 17,100(1)
	lwz 18,104(1)
.LVL595:
	lwz 19,108(1)
.LVL596:
	lwz 20,112(1)
	lwz 21,116(1)
	lwz 22,120(1)
	lwz 23,124(1)
	lwz 24,128(1)
	lwz 25,132(1)
	lwz 26,136(1)
	lwz 27,140(1)
	lwz 28,144(1)
	lwz 29,148(1)
	lwz 30,152(1)
	lwz 31,156(1)
	lfd 29,160(1)
	lfd 30,168(1)
	lfd 31,176(1)
	addi 1,1,184
	.cfi_remember_state
.LCFI89:
	.cfi_def_cfa_offset 0
	.cfi_restore 63
	.cfi_restore 62
	.cfi_restore 61
	.cfi_restore 31
	.cfi_restore 30
	.cfi_restore 29
	.cfi_restore 28
	.cfi_restore 27
	.cfi_restore 26
	.cfi_restore 25
	.cfi_restore 24
	.cfi_restore 23
	.cfi_restore 22
	.cfi_restore 21
	.cfi_restore 20
	.cfi_restore 19
	.cfi_restore 18
	.cfi_restore 17
	.cfi_restore 16
	.cfi_restore 15
	.cfi_restore 14
	blr
.LVL597:
.L378:
.LCFI90:
	.cfi_restore_state
.LBB1226:
	.loc 2 1254 0
	la 26,colorRed@l(15)
	b .L366
.LBE1226:
	.cfi_endproc
.LFE2850:
	.size	_ZNK5idPVS7DrawPVSERK6idVec39pvsType_t, .-_ZNK5idPVS7DrawPVSERK6idVec39pvsType_t
	.align 2
	.globl _ZNK5idPVS7DrawPVSERK8idBounds9pvsType_t
	.type	_ZNK5idPVS7DrawPVSERK8idBounds9pvsType_t, @function
_ZNK5idPVS7DrawPVSERK8idBounds9pvsType_t:
.LFB2851:
	.loc 2 1284 0
	.cfi_startproc
.LVL598:
	stwu 1,-256(1)
.LCFI91:
	.cfi_def_cfa_offset 256
	mflr 0
	mfcr 12
.LBB1227:
	.loc 2 1292 0
	li 6,16
.LBE1227:
	.loc 2 1284 0
	stw 21,188(1)
.LBB1262:
	.loc 2 1292 0
	lis 21,gameRenderWorld@ha
	.cfi_offset 21, -68
	.cfi_register 70, 12
	.cfi_register 65, 0
.LBE1262:
	.loc 2 1284 0
	stw 18,176(1)
	stw 19,180(1)
	mr 19,3
	.cfi_offset 19, -76
	.cfi_offset 18, -80
	stw 30,224(1)
	mr 30,4
	.cfi_offset 30, -32
	stw 31,228(1)
	mr 31,5
	.cfi_offset 31, -28
	stw 0,260(1)
.LBB1263:
	.loc 2 1292 0
	addi 5,1,68
.LVL599:
.LBE1263:
	.loc 2 1284 0
	stfd 29,232(1)
	stfd 30,240(1)
	stfd 31,248(1)
	stw 14,160(1)
	stw 15,164(1)
	stw 16,168(1)
	stw 17,172(1)
	stw 20,184(1)
	stw 22,192(1)
	stw 23,196(1)
	stw 24,200(1)
	stw 25,204(1)
	stw 26,208(1)
	stw 27,212(1)
	stw 28,216(1)
	stw 29,220(1)
	stw 12,156(1)
.LBB1264:
	.loc 2 1292 0
	lwz 9,gameRenderWorld@l(21)
	lwz 11,0(9)
	mr 3,9
.LVL600:
	lwz 0,108(11)
	.cfi_offset 70, -100
	.cfi_offset 29, -36
	.cfi_offset 28, -40
	.cfi_offset 27, -44
	.cfi_offset 26, -48
	.cfi_offset 25, -52
	.cfi_offset 24, -56
	.cfi_offset 23, -60
	.cfi_offset 22, -64
	.cfi_offset 20, -72
	.cfi_offset 17, -84
	.cfi_offset 16, -88
	.cfi_offset 15, -92
	.cfi_offset 14, -96
	.cfi_offset 63, -8
	.cfi_offset 62, -16
	.cfi_offset 61, -24
	.cfi_offset 65, 4
	mtctr 0
	bctrl
.LVL601:
	.loc 2 1294 0
	cmpwi 4,3,0
	mr 18,3
	bne- 4,.L399
.LVL602:
.L379:
.LBE1264:
	.loc 2 1335 0
	lwz 0,260(1)
	lwz 12,156(1)
	mtlr 0
	lwz 14,160(1)
	lwz 15,164(1)
	mtcrf 8,12
	lwz 16,168(1)
	lwz 17,172(1)
	lwz 18,176(1)
.LVL603:
	lwz 19,180(1)
.LVL604:
	lwz 20,184(1)
	lwz 21,188(1)
	lwz 22,192(1)
	lwz 23,196(1)
	lwz 24,200(1)
	lwz 25,204(1)
	lwz 26,208(1)
	lwz 27,212(1)
	lwz 28,216(1)
	lwz 29,220(1)
	lwz 30,224(1)
	lwz 31,228(1)
	lfd 29,232(1)
	lfd 30,240(1)
	lfd 31,248(1)
	addi 1,1,256
	.cfi_remember_state
.LCFI92:
	.cfi_def_cfa_offset 0
	.cfi_restore 70
	.cfi_restore 63
	.cfi_restore 62
	.cfi_restore 61
	.cfi_restore 31
	.cfi_restore 30
	.cfi_restore 29
	.cfi_restore 28
	.cfi_restore 27
	.cfi_restore 26
	.cfi_restore 25
	.cfi_restore 24
	.cfi_restore 23
	.cfi_restore 22
	.cfi_restore 21
	.cfi_restore 20
	.cfi_restore 19
	.cfi_restore 18
	.cfi_restore 17
	.cfi_restore 16
	.cfi_restore 15
	.cfi_restore 14
	blr
.LVL605:
.L399:
.LCFI93:
	.cfi_restore_state
.LBB1265:
	.loc 2 1298 0
	mr 3,19
.LVL606:
	mr 4,30
	mr 5,31
	bl _ZNK5idPVS15SetupCurrentPVSERK8idBounds9pvsType_t
	.loc 2 1300 0
	lwz 11,0(19)
	.loc 2 1298 0
	mr 14,3
	stw 4,144(1)
.LVL607:
	.loc 2 1300 0
	cmpwi 7,11,0
	ble- 7,.L381
	mulli 20,14,12
	li 24,0
	lis 17,.LC23@ha
	.loc 2 1315 0
	lis 16,colorCyan@ha
	.loc 2 1302 0
	add 20,19,20
	.loc 2 1312 0
	lis 15,colorRed@ha
.LVL608:
.L389:
	.loc 2 1302 0
	lwz 9,28(20)
	srawi 0,24,3
	lbzx 9,9,0
	rlwinm 0,24,0,29,31
	sraw 0,9,0
	andi. 9,0,1
	beq- 0,.L382
.LVL609:
	.loc 2 1306 0 discriminator 1
	ble- 4,.L390
	.loc 2 1307 0
	lwz 0,68(1)
	addi 9,1,68
	mtctr 18
	cmpw 7,0,24
	beq- 7,.L392
.LVL610:
.L384:
	.loc 2 1306 0
	bdz .L390
	.loc 2 1307 0
	lwzu 0,4(9)
	cmpw 7,0,24
	bne+ 7,.L384
.L392:
	.loc 2 1312 0
	la 26,colorRed@l(15)
.L383:
.LVL611:
	.loc 2 1318 0
	lwz 3,gameRenderWorld@l(21)
	mr 4,24
	la 27,gameRenderWorld@l(21)
	lwz 9,0(3)
	lwz 0,112(9)
	mtctr 0
	bctrl
.LVL612:
	.loc 2 1321 0
	mr. 22,3
	ble- 0,.L398
	li 25,0
	la 23,.LC23@l(17)
.LVL613:
.L388:
	.loc 2 1322 0
	lwz 4,0(27)
	addi 3,1,48
	mr 5,24
	mr 6,25
	lwz 9,0(4)
	lwz 0,116(9)
	mtctr 0
	bctrl
	lwz 28,56(1)
.LVL614:
	.loc 2 1326 0
	addi 4,1,32
	.loc 2 1388 0
	lwz 29,4(28)
	.loc 2 1326 0
	mr 3,28
	bl _ZNK9idWinding8GetPlaneER7idPlane
.LVL615:
.LBB1228:
.LBB1229:
	.loc 5 439 0
	lfs 0,0(23)
.LBE1229:
.LBE1228:
	.loc 2 1328 0
	cmpwi 7,29,0
.LBB1231:
.LBB1230:
	.loc 5 439 0
	lfs 31,32(1)
	lfs 30,36(1)
	lfs 29,40(1)
	fmuls 31,31,0
	fmuls 30,30,0
	fmuls 29,29,0
.LVL616:
.LBE1230:
.LBE1231:
	.loc 2 1328 0
	ble- 7,.L386
	li 30,0
	li 31,0
.LVL617:
.L387:
	.loc 2 1329 0 discriminator 2
	addi 31,31,1
.LBB1232:
.LBB1233:
	.loc 1 204 0 discriminator 2
	lwz 11,8(28)
.LBE1233:
.LBE1232:
	.loc 2 1329 0 discriminator 2
	divw 0,31,29
	lwz 3,0(27)
.LBB1235:
.LBB1234:
	.loc 1 204 0 discriminator 2
	add 9,11,30
.LBE1234:
.LBE1235:
.LBB1236:
.LBB1237:
	.loc 5 452 0 discriminator 2
	lfsx 0,11,30
	lfs 12,8(9)
.LBE1237:
.LBE1236:
	.loc 2 1329 0 discriminator 2
	mr 4,26
.LBB1249:
.LBB1244:
	.loc 5 452 0 discriminator 2
	lfs 13,4(9)
	fadds 0,31,0
	fadds 12,29,12
.LBE1244:
.LBE1249:
	.loc 2 1329 0 discriminator 2
	lwz 9,0(3)
.LBB1250:
.LBB1245:
	.loc 5 452 0 discriminator 2
	fadds 13,30,13
.LBE1245:
.LBE1250:
	.loc 2 1329 0 discriminator 2
	addi 5,1,20
.LBB1251:
.LBB1246:
.LBB1238:
.LBB1239:
	.loc 5 396 0 discriminator 2
	stfs 0,20(1)
.LBE1239:
.LBE1238:
.LBE1246:
.LBE1251:
	.loc 2 1329 0 discriminator 2
	addi 6,1,8
.LBB1252:
.LBB1247:
.LBB1242:
.LBB1240:
	.loc 5 398 0 discriminator 2
	stfs 12,28(1)
.LBE1240:
.LBE1242:
.LBE1247:
.LBE1252:
	.loc 2 1329 0 discriminator 2
	li 7,0
.LBB1253:
.LBB1248:
.LBB1243:
.LBB1241:
	.loc 5 397 0 discriminator 2
	stfs 13,24(1)
.LBE1241:
.LBE1243:
.LBE1248:
.LBE1253:
	.loc 2 1329 0 discriminator 2
	li 8,0
.LBB1254:
.LBB1255:
	.loc 1 204 0 discriminator 2
	lwz 11,8(28)
.LBE1255:
.LBE1254:
	.loc 2 1329 0 discriminator 2
	addi 30,30,20
	lwz 10,156(9)
.LVL618:
	mtctr 10
	mullw 0,0,29
	subf 0,0,31
.LBB1257:
.LBB1256:
	.loc 1 204 0 discriminator 2
	mulli 0,0,20
	add 9,11,0
.LVL619:
.LBE1256:
.LBE1257:
.LBB1258:
.LBB1259:
	.loc 5 452 0 discriminator 2
	lfsx 0,11,0
	lfs 12,4(9)
.LVL620:
	lfs 13,8(9)
.LVL621:
	fadds 0,31,0
	fadds 12,30,12
	fadds 13,29,13
.LVL622:
.LBB1260:
.LBB1261:
	.loc 5 396 0 discriminator 2
	stfs 0,8(1)
	.loc 5 397 0 discriminator 2
	stfs 12,12(1)
	.loc 5 398 0 discriminator 2
	stfs 13,16(1)
.LBE1261:
.LBE1260:
.LBE1259:
.LBE1258:
	.loc 2 1329 0 discriminator 2
	bctrl
.LVL623:
	.loc 2 1328 0 discriminator 2
	cmpw 7,31,29
	bne+ 7,.L387
.LVL624:
.L386:
	.loc 2 1321 0
	addi 25,25,1
.LVL625:
	cmpw 7,25,22
	bne+ 7,.L388
.LVL626:
.L398:
	lwz 11,0(19)
.LVL627:
.L382:
	.loc 2 1300 0
	addi 24,24,1
.LVL628:
	cmpw 7,11,24
	bgt+ 7,.L389
.LVL629:
.L381:
	.loc 2 1334 0
	lwz 0,144(1)
	mr 3,19
	addi 4,1,136
	stw 14,136(1)
	stw 0,140(1)
	bl _ZNK5idPVS14FreeCurrentPVSE11pvsHandle_s
	b .L379
.L390:
	.loc 2 1315 0
	la 26,colorCyan@l(16)
	b .L383
.LBE1265:
	.cfi_endproc
.LFE2851:
	.size	_ZNK5idPVS7DrawPVSERK8idBounds9pvsType_t, .-_ZNK5idPVS7DrawPVSERK8idBounds9pvsType_t
	.align 2
	.globl _ZNK5idPVS14DrawCurrentPVSE11pvsHandle_sRK6idVec3
	.type	_ZNK5idPVS14DrawCurrentPVSE11pvsHandle_sRK6idVec3, @function
_ZNK5idPVS14DrawCurrentPVSE11pvsHandle_sRK6idVec3:
.LFB2852:
	.loc 2 1342 0
	.cfi_startproc
.LVL630:
	mflr 0
	stwu 1,-176(1)
.LCFI94:
	.cfi_def_cfa_offset 176
	.cfi_register 65, 0
	stw 19,100(1)
	mr 19,3
	.cfi_offset 19, -76
	stw 0,180(1)
	stfd 29,152(1)
	stfd 30,160(1)
	stfd 31,168(1)
	stw 15,84(1)
	stw 16,88(1)
	stw 17,92(1)
	stw 18,96(1)
	stw 20,104(1)
	stw 21,108(1)
	stw 22,112(1)
	stw 23,116(1)
	stw 24,120(1)
	stw 25,124(1)
	stw 26,128(1)
	stw 27,132(1)
	stw 28,136(1)
	stw 29,140(1)
	stw 30,144(1)
	stw 31,148(1)
	.loc 2 1342 0
	lwz 31,0(4)
	.cfi_offset 31, -28
	.cfi_offset 30, -32
	.cfi_offset 29, -36
	.cfi_offset 28, -40
	.cfi_offset 27, -44
	.cfi_offset 26, -48
	.cfi_offset 25, -52
	.cfi_offset 24, -56
	.cfi_offset 23, -60
	.cfi_offset 22, -64
	.cfi_offset 21, -68
	.cfi_offset 20, -72
	.cfi_offset 18, -80
	.cfi_offset 17, -84
	.cfi_offset 16, -88
	.cfi_offset 15, -92
	.cfi_offset 63, -8
	.cfi_offset 62, -16
	.cfi_offset 61, -24
	.cfi_offset 65, 4
.LVL631:
	lwz 0,4(4)
.LBB1266:
	.loc 2 1349 0
	cmplwi 7,31,7
	bgt- 7,.L401
	.loc 2 1349 0 is_stmt 0 discriminator 1
	mulli 20,31,12
	add 20,3,20
	lwz 9,24(20)
	cmpw 7,9,0
	beq- 7,.L402
.L401:
	.loc 2 1351 0 is_stmt 1
	lis 3,gameLocal@ha
.LVL632:
	lis 4,.LC24@ha
.LVL633:
	la 3,gameLocal@l(3)
	la 4,.LC24@l(4)
	stw 5,72(1)
	crxor 6,6,6
	bl _ZNK11idGameLocal5ErrorEPKcz
.LVL634:
	lwz 5,72(1)
.L402:
	.loc 2 1354 0
	lis 21,gameRenderWorld@ha
	mr 4,5
	lwz 3,gameRenderWorld@l(21)
	lwz 9,0(3)
	lwz 0,104(9)
	mtctr 0
	bctrl
	.loc 2 1356 0
	cmpwi 7,3,-1
	.loc 2 1354 0
	mr 18,3
.LVL635:
	.loc 2 1356 0
	beq- 7,.L400
.LVL636:
	.loc 2 1360 0 discriminator 1
	lwz 11,0(19)
	cmpwi 7,11,0
	ble- 7,.L400
	mulli 20,31,12
	.loc 2 1360 0 is_stmt 0
	li 24,0
	lis 17,.LC23@ha
	.loc 2 1370 0 is_stmt 1
	lis 16,colorCyan@ha
	.loc 2 1362 0
	add 20,19,20
	.loc 2 1367 0
	lis 15,colorRed@ha
.LVL637:
.L409:
	.loc 2 1362 0
	lwz 9,28(20)
	srawi 0,24,3
	lbzx 9,9,0
	rlwinm 0,24,0,29,31
	sraw 0,9,0
	andi. 9,0,1
	beq- 0,.L404
	.loc 2 1366 0
	cmpw 7,24,18
	beq- 7,.L417
	.loc 2 1370 0
	la 26,colorCyan@l(16)
.L405:
.LVL638:
	.loc 2 1373 0
	lwz 3,gameRenderWorld@l(21)
	mr 4,24
	la 27,gameRenderWorld@l(21)
	lwz 9,0(3)
	lwz 0,112(9)
	mtctr 0
	bctrl
.LVL639:
	.loc 2 1376 0
	mr. 22,3
	ble- 0,.L416
	li 25,0
	la 23,.LC23@l(17)
.LVL640:
.L408:
	.loc 2 1377 0
	lwz 4,0(27)
	addi 3,1,48
	mr 5,24
	mr 6,25
	lwz 9,0(4)
	lwz 0,116(9)
	mtctr 0
	bctrl
	lwz 28,56(1)
.LVL641:
	.loc 2 1381 0
	addi 4,1,32
	.loc 2 1388 0
	lwz 29,4(28)
	.loc 2 1381 0
	mr 3,28
	bl _ZNK9idWinding8GetPlaneER7idPlane
.LVL642:
.LBB1267:
.LBB1268:
	.loc 5 439 0
	lfs 0,0(23)
.LBE1268:
.LBE1267:
	.loc 2 1383 0
	cmpwi 7,29,0
.LBB1270:
.LBB1269:
	.loc 5 439 0
	lfs 31,32(1)
	lfs 30,36(1)
	lfs 29,40(1)
	fmuls 31,31,0
	fmuls 30,30,0
	fmuls 29,29,0
.LVL643:
.LBE1269:
.LBE1270:
	.loc 2 1383 0
	ble- 7,.L406
	li 30,0
	li 31,0
.LVL644:
.L407:
	.loc 2 1384 0 discriminator 2
	addi 31,31,1
.LBB1271:
.LBB1272:
	.loc 1 204 0 discriminator 2
	lwz 11,8(28)
.LBE1272:
.LBE1271:
	.loc 2 1384 0 discriminator 2
	divw 0,31,29
	lwz 3,0(27)
.LBB1274:
.LBB1273:
	.loc 1 204 0 discriminator 2
	add 9,11,30
.LBE1273:
.LBE1274:
.LBB1275:
.LBB1276:
	.loc 5 452 0 discriminator 2
	lfsx 0,11,30
	lfs 12,8(9)
.LBE1276:
.LBE1275:
	.loc 2 1384 0 discriminator 2
	mr 4,26
.LBB1288:
.LBB1283:
	.loc 5 452 0 discriminator 2
	lfs 13,4(9)
	fadds 0,31,0
	fadds 12,29,12
.LBE1283:
.LBE1288:
	.loc 2 1384 0 discriminator 2
	lwz 9,0(3)
.LBB1289:
.LBB1284:
	.loc 5 452 0 discriminator 2
	fadds 13,30,13
.LBE1284:
.LBE1289:
	.loc 2 1384 0 discriminator 2
	addi 5,1,20
.LBB1290:
.LBB1285:
.LBB1277:
.LBB1278:
	.loc 5 396 0 discriminator 2
	stfs 0,20(1)
.LBE1278:
.LBE1277:
.LBE1285:
.LBE1290:
	.loc 2 1384 0 discriminator 2
	addi 6,1,8
.LBB1291:
.LBB1286:
.LBB1281:
.LBB1279:
	.loc 5 398 0 discriminator 2
	stfs 12,28(1)
.LBE1279:
.LBE1281:
.LBE1286:
.LBE1291:
	.loc 2 1384 0 discriminator 2
	li 7,0
.LBB1292:
.LBB1287:
.LBB1282:
.LBB1280:
	.loc 5 397 0 discriminator 2
	stfs 13,24(1)
.LBE1280:
.LBE1282:
.LBE1287:
.LBE1292:
	.loc 2 1384 0 discriminator 2
	li 8,0
.LBB1293:
.LBB1294:
	.loc 1 204 0 discriminator 2
	lwz 11,8(28)
.LBE1294:
.LBE1293:
	.loc 2 1384 0 discriminator 2
	addi 30,30,20
	lwz 10,156(9)
.LVL645:
	mtctr 10
	mullw 0,0,29
	subf 0,0,31
.LBB1296:
.LBB1295:
	.loc 1 204 0 discriminator 2
	mulli 0,0,20
	add 9,11,0
.LVL646:
.LBE1295:
.LBE1296:
.LBB1297:
.LBB1298:
	.loc 5 452 0 discriminator 2
	lfsx 0,11,0
	lfs 12,4(9)
.LVL647:
	lfs 13,8(9)
.LVL648:
	fadds 0,31,0
	fadds 12,30,12
	fadds 13,29,13
.LVL649:
.LBB1299:
.LBB1300:
	.loc 5 396 0 discriminator 2
	stfs 0,8(1)
	.loc 5 397 0 discriminator 2
	stfs 12,12(1)
	.loc 5 398 0 discriminator 2
	stfs 13,16(1)
.LBE1300:
.LBE1299:
.LBE1298:
.LBE1297:
	.loc 2 1384 0 discriminator 2
	bctrl
.LVL650:
	.loc 2 1383 0 discriminator 2
	cmpw 7,31,29
	bne+ 7,.L407
.LVL651:
.L406:
	.loc 2 1376 0
	addi 25,25,1
.LVL652:
	cmpw 7,25,22
	bne+ 7,.L408
.LVL653:
.L416:
	lwz 11,0(19)
.LVL654:
.L404:
	.loc 2 1360 0
	addi 24,24,1
.LVL655:
	cmpw 7,11,24
	bgt+ 7,.L409
.LVL656:
.L400:
.LBE1266:
	.loc 2 1388 0
	lwz 0,180(1)
	lwz 15,84(1)
	mtlr 0
	lwz 16,88(1)
	lwz 17,92(1)
	lwz 18,96(1)
.LVL657:
	lwz 19,100(1)
.LVL658:
	lwz 20,104(1)
	lwz 21,108(1)
	lwz 22,112(1)
	lwz 23,116(1)
	lwz 24,120(1)
	lwz 25,124(1)
	lwz 26,128(1)
	lwz 27,132(1)
	lwz 28,136(1)
	lwz 29,140(1)
	lwz 30,144(1)
	lwz 31,148(1)
	lfd 29,152(1)
	lfd 30,160(1)
	lfd 31,168(1)
	addi 1,1,176
	.cfi_remember_state
.LCFI95:
	.cfi_def_cfa_offset 0
	.cfi_restore 63
	.cfi_restore 62
	.cfi_restore 61
	.cfi_restore 31
	.cfi_restore 30
	.cfi_restore 29
	.cfi_restore 28
	.cfi_restore 27
	.cfi_restore 26
	.cfi_restore 25
	.cfi_restore 24
	.cfi_restore 23
	.cfi_restore 22
	.cfi_restore 21
	.cfi_restore 20
	.cfi_restore 19
	.cfi_restore 18
	.cfi_restore 17
	.cfi_restore 16
	.cfi_restore 15
	blr
.LVL659:
.L417:
.LCFI96:
	.cfi_restore_state
.LBB1301:
	.loc 2 1367 0
	la 26,colorRed@l(15)
	b .L405
.LBE1301:
	.cfi_endproc
.LFE2852:
	.size	_ZNK5idPVS14DrawCurrentPVSE11pvsHandle_sRK6idVec3, .-_ZNK5idPVS14DrawCurrentPVSE11pvsHandle_sRK6idVec3
	.section	.text.startup,"ax",@progbits
	.align 2
	.type	_GLOBAL__sub_I__ZN5idPVSC2Ev, @function
_GLOBAL__sub_I__ZN5idPVSC2Ev:
.LFB3135:
	.loc 2 1388 0
	.cfi_startproc
.LVL660:
.LBB1302:
.LBB1303:
	.file 8 "d:/Data/Nintendo/DoomGX/src/game/Game_local.h"
	.loc 8 694 0
	lis 9,_ZN6idMath8M_SEC2MSE@ha
	.loc 8 121 0
	lis 11,.LANCHOR0@ha
	.loc 8 694 0
	lfs 0,_ZN6idMath8M_SEC2MSE@l(9)
	.loc 8 121 0
	li 8,3
	la 9,.LANCHOR0@l(11)
.LBB1304:
.LBB1305:
	.loc 5 396 0
	li 0,0
.LBE1305:
.LBE1304:
	.loc 8 694 0
	fadds 0,0,0
	.loc 8 121 0
	stw 8,.LANCHOR0@l(11)
.LVL661:
.LBB1309:
.LBB1306:
	.loc 5 398 0
	lis 11,.LC25@ha
	.loc 5 396 0
	stw 0,4(9)
	.loc 5 397 0
	stw 0,8(9)
.LBE1306:
.LBE1309:
.LBB1310:
.LBB1311:
	.loc 6 825 0
	addi 10,9,16
.LBE1311:
.LBE1310:
.LBB1314:
.LBB1307:
	.loc 5 398 0
	lwz 0,.LC25@l(11)
.LBE1307:
.LBE1314:
.LBB1315:
.LBB1312:
	.loc 6 825 0
	fctiwz 0,0
.LBE1312:
.LBE1315:
.LBB1316:
.LBB1308:
	.loc 5 398 0
	stw 0,12(9)
.LVL662:
.LBE1308:
.LBE1316:
	.file 9 "d:/Data/Nintendo/DoomGX/src/game/Player.h"
	.loc 9 69 0
	li 0,10
.LBB1317:
.LBB1313:
	.loc 6 825 0
	stfiwx 0,0,10
.LVL663:
.LBE1313:
.LBE1317:
	.loc 9 69 0
	stw 0,20(9)
.LBE1303:
.LBE1302:
	.loc 2 1388 0
	blr
	.cfi_endproc
.LFE3135:
	.size	_GLOBAL__sub_I__ZN5idPVSC2Ev, .-_GLOBAL__sub_I__ZN5idPVSC2Ev
	.section	.ctors,"aw",@progbits
	.align 2
	.long	_GLOBAL__sub_I__ZN5idPVSC2Ev
	.weak	_ZTS9idWinding
	.section	.rodata._ZTS9idWinding,"aG",@progbits,_ZTS9idWinding,comdat
	.align 2
	.type	_ZTS9idWinding, @object
	.size	_ZTS9idWinding, 11
_ZTS9idWinding:
	.string	"9idWinding"
	.weak	_ZTI9idWinding
	.section	.sdata._ZTI9idWinding,"awG",@progbits,_ZTI9idWinding,comdat
	.align 2
	.type	_ZTI9idWinding, @object
	.size	_ZTI9idWinding, 8
_ZTI9idWinding:
	.long	_ZTVN10__cxxabiv117__class_type_infoE+8
	.long	_ZTS9idWinding
	.weak	_ZTS14idFixedWinding
	.section	.rodata._ZTS14idFixedWinding,"aG",@progbits,_ZTS14idFixedWinding,comdat
	.align 2
	.type	_ZTS14idFixedWinding, @object
	.size	_ZTS14idFixedWinding, 17
_ZTS14idFixedWinding:
	.string	"14idFixedWinding"
	.weak	_ZTI14idFixedWinding
	.section	.rodata._ZTI14idFixedWinding,"aG",@progbits,_ZTI14idFixedWinding,comdat
	.align 2
	.type	_ZTI14idFixedWinding, @object
	.size	_ZTI14idFixedWinding, 12
_ZTI14idFixedWinding:
	.long	_ZTVN10__cxxabiv120__si_class_type_infoE+8
	.long	_ZTS14idFixedWinding
	.long	_ZTI9idWinding
	.weak	_ZTV9idWinding
	.section	.rodata._ZTV9idWinding,"aG",@progbits,_ZTV9idWinding,comdat
	.align 3
	.type	_ZTV9idWinding, @object
	.size	_ZTV9idWinding, 24
_ZTV9idWinding:
	.long	0
	.long	_ZTI9idWinding
	.long	_ZN9idWindingD1Ev
	.long	_ZN9idWindingD0Ev
	.long	_ZN9idWinding5ClearEv
	.long	_ZN9idWinding10ReAllocateEib
	.weak	_ZTV14idFixedWinding
	.section	.rodata._ZTV14idFixedWinding,"aG",@progbits,_ZTV14idFixedWinding,comdat
	.align 3
	.type	_ZTV14idFixedWinding, @object
	.size	_ZTV14idFixedWinding, 24
_ZTV14idFixedWinding:
	.long	0
	.long	_ZTI14idFixedWinding
	.long	_ZN14idFixedWindingD1Ev
	.long	_ZN14idFixedWindingD0Ev
	.long	_ZN14idFixedWinding5ClearEv
	.long	_ZN14idFixedWinding10ReAllocateEib
	.weak	_ZN9idWindingD1Ev
	.set	_ZN9idWindingD1Ev,_ZN9idWindingD2Ev
	.weak	_ZN14idFixedWindingD1Ev
	.set	_ZN14idFixedWindingD1Ev,_ZN14idFixedWindingD2Ev
	.globl _ZN5idPVSC1Ev
	.set	_ZN5idPVSC1Ev,_ZN5idPVSC2Ev
	.globl _ZN5idPVSD1Ev
	.set	_ZN5idPVSD1Ev,_ZN5idPVSD2Ev
	.section	.rodata.cst4,"aM",@progbits,4
	.align 2
.LC1:
	.4byte	1036831949
.LC2:
	.4byte	-1110651699
.LC3:
	.4byte	1056964608
.LC5:
	.4byte	1069547520
.LC6:
	.4byte	1008981770
.LC7:
	.4byte	981668463
.LC23:
	.4byte	1082130432
.LC25:
	.4byte	-997900288
	.section	.rodata.cst8,"aM",@progbits,8
	.align 3
.LC11:
	.4byte	0
	.4byte	0
.LC13:
	.4byte	1062232653
	.4byte	-755914244
	.section	.rodata.str1.4,"aMS",@progbits,1
	.align 2
.LC0:
	.string	"idPVS::idPVS( void ) size %d\r\n"
	.zero	1
.LC8:
	.string	"max passage boundaries."
.LC9:
	.string	"%5d bytes passage memory used to build PVS\n"
.LC10:
	.string	"%5d KB passage memory used to build PVS\n"
	.zero	3
.LC12:
	.string	"%5.0f msec to calculate PVS\n"
	.zero	3
.LC14:
	.string	"%5d areas\n"
	.zero	1
.LC15:
	.string	"%5d portals\n"
	.zero	3
.LC16:
	.string	"%5d areas visible on average\n"
	.zero	2
.LC17:
	.string	"%5d bytes PVS data\n"
.LC18:
	.string	"%5d KB PVS data\n"
	.zero	3
.LC19:
	.string	"idPVS::AllocCurrentPVS: no free PVS left"
	.zero	3
.LC20:
	.string	"idPVS::MergeCurrentPVS: invalid handle"
	.zero	1
.LC21:
	.string	"idPVS::FreeCurrentPVS: invalid handle"
	.zero	2
.LC22:
	.string	"idPVS::InCurrentPVS: invalid handle"
.LC24:
	.string	"idPVS::DrawCurrentPVS: invalid handle"
	.section	".bss"
	.align 2
	.set	.LANCHOR0,. + 0
	.type	_ZL22NUM_RENDER_PORTAL_BITS, @object
	.size	_ZL22NUM_RENDER_PORTAL_BITS, 4
_ZL22NUM_RENDER_PORTAL_BITS:
	.zero	4
	.type	_ZL20DEFAULT_GRAVITY_VEC3, @object
	.size	_ZL20DEFAULT_GRAVITY_VEC3, 12
_ZL20DEFAULT_GRAVITY_VEC3:
	.zero	12
	.type	_ZL20CINEMATIC_SKIP_DELAY, @object
	.size	_ZL20CINEMATIC_SKIP_DELAY, 4
_ZL20CINEMATIC_SKIP_DELAY:
	.zero	4
	.type	_ZL26ASYNC_PLAYER_INV_AMMO_BITS, @object
	.size	_ZL26ASYNC_PLAYER_INV_AMMO_BITS, 4
_ZL26ASYNC_PLAYER_INV_AMMO_BITS:
	.zero	4
	.section	".text"
.Letext0:
	.file 10 "<built-in>"
	.file 11 "c:\\utils\\devkitpro\\devkitppc\\bin\\../lib/gcc/powerpc-eabi/4.6.3/include/stddef.h"
	.file 12 "c:\\utils\\devkitpro\\devkitppc\\bin\\../lib/gcc/powerpc-eabi/4.6.3/../../../../powerpc-eabi/include/sys/types.h"
	.file 13 "d:/Data/Nintendo/DoomGX/src/game/../idlib/../sys/sys_public.h"
	.file 14 "d:/Data/Nintendo/DoomGX/src/game/../idlib/../framework/Common.h"
	.file 15 "d:/Data/Nintendo/DoomGX/src/game/../idlib/../framework/CVarSystem.h"
	.file 16 "d:/Data/Nintendo/DoomGX/src/game/../idlib/../framework/FileSystem.h"
	.file 17 "d:/Data/Nintendo/DoomGX/src/game/../idlib/../idlib/Lib.h"
	.file 18 "d:/Data/Nintendo/DoomGX/src/game/../idlib/../idlib/CmdArgs.h"
	.file 19 "d:/Data/Nintendo/DoomGX/src/game/../idlib/../idlib/math/Random.h"
	.file 20 "d:/Data/Nintendo/DoomGX/src/game/../idlib/../idlib/math/Angles.h"
	.file 21 "d:/Data/Nintendo/DoomGX/src/game/../idlib/../idlib/math/Matrix.h"
	.file 22 "d:/Data/Nintendo/DoomGX/src/game/../idlib/../idlib/math/Quat.h"
	.file 23 "d:/Data/Nintendo/DoomGX/src/game/../idlib/../idlib/math/Rotation.h"
	.file 24 "d:/Data/Nintendo/DoomGX/src/game/../idlib/../idlib/containers/List.h"
	.file 25 "d:/Data/Nintendo/DoomGX/src/game/../idlib/../idlib/math/Ode.h"
	.file 26 "d:/Data/Nintendo/DoomGX/src/game/../idlib/../idlib/bv/Sphere.h"
	.file 27 "d:/Data/Nintendo/DoomGX/src/game/../idlib/../idlib/bv/Box.h"
	.file 28 "d:/Data/Nintendo/DoomGX/src/game/../idlib/../idlib/bv/Frustum.h"
	.file 29 "d:/Data/Nintendo/DoomGX/src/game/../idlib/../idlib/geometry/DrawVert.h"
	.file 30 "d:/Data/Nintendo/DoomGX/src/game/../idlib/../idlib/geometry/JointTransform.h"
	.file 31 "d:/Data/Nintendo/DoomGX/src/game/../idlib/../idlib/geometry/Surface.h"
	.file 32 "d:/Data/Nintendo/DoomGX/src/game/../idlib/../idlib/geometry/TraceModel.h"
	.file 33 "d:/Data/Nintendo/DoomGX/src/game/../idlib/../idlib/Str.h"
	.file 34 "d:/Data/Nintendo/DoomGX/src/game/../idlib/../idlib/Token.h"
	.file 35 "d:/Data/Nintendo/DoomGX/src/game/../idlib/../idlib/Lexer.h"
	.file 36 "d:/Data/Nintendo/DoomGX/src/game/../idlib/../framework/File.h"
	.file 37 "d:/Data/Nintendo/DoomGX/src/game/../idlib/../idlib/Parser.h"
	.file 38 "d:/Data/Nintendo/DoomGX/src/game/../idlib/../idlib/containers/HashIndex.h"
	.file 39 "d:/Data/Nintendo/DoomGX/src/game/../idlib/../idlib/containers/StrList.h"
	.file 40 "d:/Data/Nintendo/DoomGX/src/game/../idlib/../idlib/containers/StrPool.h"
	.file 41 "d:/Data/Nintendo/DoomGX/src/game/../idlib/../idlib/containers/PlaneSet.h"
	.file 42 "d:/Data/Nintendo/DoomGX/src/game/../idlib/../idlib/Dict.h"
	.file 43 "d:/Data/Nintendo/DoomGX/src/game/../idlib/../idlib/LangDict.h"
	.file 44 "d:/Data/Nintendo/DoomGX/src/game/../idlib/../idlib/BitMsg.h"
	.file 45 "d:/Data/Nintendo/DoomGX/src/game/../idlib/../idlib/MapFile.h"
	.file 46 "d:/Data/Nintendo/DoomGX/src/game/../idlib/../framework/CmdSystem.h"
	.file 47 "d:/Data/Nintendo/DoomGX/src/game/../idlib/../framework/UsercmdGen.h"
	.file 48 "d:/Data/Nintendo/DoomGX/src/game/../idlib/../framework/DeclManager.h"
	.file 49 "d:/Data/Nintendo/DoomGX/src/game/../idlib/../framework/DeclParticle.h"
	.file 50 "d:/Data/Nintendo/DoomGX/src/game/../idlib/../renderer/RenderWorld.h"
	.file 51 "d:/Data/Nintendo/DoomGX/src/game/../idlib/../renderer/Cinematic.h"
	.file 52 "d:/Data/Nintendo/DoomGX/src/game/../idlib/../renderer/Model.h"
	.file 53 "d:/Data/Nintendo/DoomGX/src/game/../idlib/../renderer/RenderSystem.h"
	.file 54 "d:/Data/Nintendo/DoomGX/src/game/../idlib/../sound/sound.h"
	.file 55 "d:/Data/Nintendo/DoomGX/src/game/../idlib/../ui/UserInterface.h"
	.file 56 "d:/Data/Nintendo/DoomGX/src/game/../idlib/../cm/CollisionModel.h"
	.file 57 "d:/Data/Nintendo/DoomGX/src/game/../idlib/../tools/compilers/aas/AASFile.h"
	.file 58 "d:/Data/Nintendo/DoomGX/src/game/../idlib/../game/Game.h"
	.file 59 "d:/Data/Nintendo/DoomGX/src/game/../idlib/../framework/async/NetworkSystem.h"
	.file 60 "d:/Data/Nintendo/DoomGX/src/game/../idlib/../renderer/ModelManager.h"
	.file 61 "d:/Data/Nintendo/DoomGX/src/game/../idlib/../tools/compilers/aas/AASFileManager.h"
	.file 62 "d:/Data/Nintendo/DoomGX/src/game/../idlib/../framework/Session.h"
	.file 63 "d:/Data/Nintendo/DoomGX/src/game/../idlib/../ui/ListGUI.h"
	.file 64 "d:/Data/Nintendo/DoomGX/src/game/gamesys/Event.h"
	.file 65 "d:/Data/Nintendo/DoomGX/src/game/Pvs.h"
	.file 66 "d:/Data/Nintendo/DoomGX/src/game/ai/AAS.h"
	.file 67 "d:/Data/Nintendo/DoomGX/src/game/../idlib/../framework/Console.h"
	.file 68 "d:/Data/Nintendo/DoomGX/src/game/../idlib/../idlib/math/Curve.h"
	.file 69 "d:/Data/Nintendo/DoomGX/src/game/../idlib/../idlib/math/Simd.h"
	.file 70 "d:/Data/Nintendo/DoomGX/src/game/../idlib/../framework/BuildVersion.h"
	.file 71 "d:/Data/Nintendo/DoomGX/src/game/../idlib/precompiled.h"
	.file 72 "d:/Data/Nintendo/DoomGX/src/game/../idlib/../renderer/Material.h"
	.file 73 "d:/Data/Nintendo/DoomGX/src/game/../idlib/../framework/EventLoop.h"
	.file 74 "d:/Data/Nintendo/DoomGX/src/game/../idlib/../framework/EditField.h"
	.file 75 "d:/Data/Nintendo/DoomGX/src/game/../idlib/../framework/async/AsyncNetwork.h"
	.file 76 "d:/Data/Nintendo/DoomGX/src/game/../idlib/../framework/async/AsyncServer.h"
	.file 77 "d:/Data/Nintendo/DoomGX/src/game/gamesys/SaveGame.h"
	.file 78 "d:/Data/Nintendo/DoomGX/src/game/anim/Anim.h"
	.file 79 "d:/Data/Nintendo/DoomGX/src/game/MultiplayerGame.h"
	.file 80 "d:/Data/Nintendo/DoomGX/src/game/Entity.h"
	.file 81 "d:/Data/Nintendo/DoomGX/src/game/AFEntity.h"
	.file 82 "d:/Data/Nintendo/DoomGX/src/game/Weapon.h"
	.file 83 "d:/Data/Nintendo/DoomGX/src/game/ai/AI.h"
	.file 84 "d:/Data/Nintendo/DoomGX/src/game/script/Script_Compiler.h"
	.file 85 "d:/Data/Nintendo/DoomGX/src/game/script/Script_Thread.h"