	.file	"RenderSystem_init.cpp"
	.section	".text"
.Ltext0:
	.section	.text._ZN14idFixedWinding5ClearEv,"axG",@progbits,_ZN14idFixedWinding5ClearEv,comdat
	.align 2
	.weak	_ZN14idFixedWinding5ClearEv
	.type	_ZN14idFixedWinding5ClearEv, @function
_ZN14idFixedWinding5ClearEv:
.LFB1502:
	.file 1 "d:/Data/Nintendo/DoomGX/src/renderer/../idlib/../idlib/geometry/Winding.h"
	.loc 1 398 0
	.cfi_startproc
.LVL0:
	.loc 1 399 0
	li 0,0
	.loc 1 400 0
	.loc 1 399 0
	stw 0,4(3)
	.loc 1 400 0
	blr
	.cfi_endproc
.LFE1502:
	.size	_ZN14idFixedWinding5ClearEv, .-_ZN14idFixedWinding5ClearEv
	.section	.text._ZN6idCVarD2Ev,"axG",@progbits,_ZN6idCVarD5Ev,comdat
	.align 2
	.weak	_ZN6idCVarD2Ev
	.type	_ZN6idCVarD2Ev, @function
_ZN6idCVarD2Ev:
.LFB2175:
	.file 2 "d:/Data/Nintendo/DoomGX/src/renderer/../idlib/../framework/CVarSystem.h"
	.loc 2 127 0
	.cfi_startproc
.LVL1:
.LBB1419:
	.loc 2 127 0
	lis 9,_ZTV6idCVar+8@ha
.LBE1419:
.LBB1420:
	la 0,_ZTV6idCVar+8@l(9)
	stw 0,0(3)
.LBE1420:
	blr
	.cfi_endproc
.LFE2175:
	.size	_ZN6idCVarD2Ev, .-_ZN6idCVarD2Ev
	.section	.text._ZN6idCVar17InternalSetStringEPKc,"axG",@progbits,_ZN6idCVar17InternalSetStringEPKc,comdat
	.align 2
	.weak	_ZN6idCVar17InternalSetStringEPKc
	.type	_ZN6idCVar17InternalSetStringEPKc, @function
_ZN6idCVar17InternalSetStringEPKc:
.LFB2197:
	.loc 2 173 0
	.cfi_startproc
.LVL2:
	.loc 2 173 0
	blr
	.cfi_endproc
.LFE2197:
	.size	_ZN6idCVar17InternalSetStringEPKc, .-_ZN6idCVar17InternalSetStringEPKc
	.section	.text._ZN6idCVar15InternalSetBoolEb,"axG",@progbits,_ZN6idCVar15InternalSetBoolEb,comdat
	.align 2
	.weak	_ZN6idCVar15InternalSetBoolEb
	.type	_ZN6idCVar15InternalSetBoolEb, @function
_ZN6idCVar15InternalSetBoolEb:
.LFB2198:
	.loc 2 174 0
	.cfi_startproc
.LVL3:
	.loc 2 174 0
	blr
	.cfi_endproc
.LFE2198:
	.size	_ZN6idCVar15InternalSetBoolEb, .-_ZN6idCVar15InternalSetBoolEb
	.section	.text._ZN6idCVar18InternalSetIntegerEi,"axG",@progbits,_ZN6idCVar18InternalSetIntegerEi,comdat
	.align 2
	.weak	_ZN6idCVar18InternalSetIntegerEi
	.type	_ZN6idCVar18InternalSetIntegerEi, @function
_ZN6idCVar18InternalSetIntegerEi:
.LFB2199:
	.loc 2 175 0
	.cfi_startproc
.LVL4:
	.loc 2 175 0
	blr
	.cfi_endproc
.LFE2199:
	.size	_ZN6idCVar18InternalSetIntegerEi, .-_ZN6idCVar18InternalSetIntegerEi
	.section	.text._ZN6idCVar16InternalSetFloatEf,"axG",@progbits,_ZN6idCVar16InternalSetFloatEf,comdat
	.align 2
	.weak	_ZN6idCVar16InternalSetFloatEf
	.type	_ZN6idCVar16InternalSetFloatEf, @function
_ZN6idCVar16InternalSetFloatEf:
.LFB2200:
	.loc 2 176 0
	.cfi_startproc
.LVL5:
	.loc 2 176 0
	blr
	.cfi_endproc
.LFE2200:
	.size	_ZN6idCVar16InternalSetFloatEf, .-_ZN6idCVar16InternalSetFloatEf
	.section	".text"
	.align 2
	.globl _ZNK19idRenderSystemLocal15IsOpenGLRunningEv
	.type	_ZNK19idRenderSystemLocal15IsOpenGLRunningEv, @function
_ZNK19idRenderSystemLocal15IsOpenGLRunningEv:
.LFB2607:
	.file 3 "d:/Data/Nintendo/DoomGX/src/renderer/RenderSystem_init.cpp"
	.loc 3 1398 0
	.cfi_startproc
.LVL6:
	.loc 3 1399 0
	lis 9,.LANCHOR0+94@ha
	.loc 3 1403 0
	lbz 3,.LANCHOR0+94@l(9)
.LVL7:
	blr
	.cfi_endproc
.LFE2607:
	.size	_ZNK19idRenderSystemLocal15IsOpenGLRunningEv, .-_ZNK19idRenderSystemLocal15IsOpenGLRunningEv
	.align 2
	.globl _ZNK19idRenderSystemLocal12IsFullScreenEv
	.type	_ZNK19idRenderSystemLocal12IsFullScreenEv, @function
_ZNK19idRenderSystemLocal12IsFullScreenEv:
.LFB2608:
	.loc 3 1411 0
	.cfi_startproc
.LVL8:
	.loc 3 1412 0
	lis 9,.LANCHOR0+88@ha
	.loc 3 1413 0
	lbz 3,.LANCHOR0+88@l(9)
.LVL9:
	blr
	.cfi_endproc
.LFE2608:
	.size	_ZNK19idRenderSystemLocal12IsFullScreenEv, .-_ZNK19idRenderSystemLocal12IsFullScreenEv
	.align 2
	.globl _ZNK19idRenderSystemLocal14GetScreenWidthEv
	.type	_ZNK19idRenderSystemLocal14GetScreenWidthEv, @function
_ZNK19idRenderSystemLocal14GetScreenWidthEv:
.LFB2609:
	.loc 3 1420 0
	.cfi_startproc
.LVL10:
	.loc 3 1421 0
	lis 9,.LANCHOR0+76@ha
	.loc 3 1422 0
	lwz 3,.LANCHOR0+76@l(9)
.LVL11:
	blr
	.cfi_endproc
.LFE2609:
	.size	_ZNK19idRenderSystemLocal14GetScreenWidthEv, .-_ZNK19idRenderSystemLocal14GetScreenWidthEv
	.align 2
	.globl _ZNK19idRenderSystemLocal15GetScreenHeightEv
	.type	_ZNK19idRenderSystemLocal15GetScreenHeightEv, @function
_ZNK19idRenderSystemLocal15GetScreenHeightEv:
.LFB2610:
	.loc 3 1429 0
	.cfi_startproc
.LVL12:
	.loc 3 1430 0
	lis 9,.LANCHOR0+80@ha
	.loc 3 1431 0
	lwz 3,.LANCHOR0+80@l(9)
.LVL13:
	blr
	.cfi_endproc
.LFE2610:
	.size	_ZNK19idRenderSystemLocal15GetScreenHeightEv, .-_ZNK19idRenderSystemLocal15GetScreenHeightEv
	.section	.text._ZN11idCmdSystem18ArgCompletion_DeclILi1EEEvRK9idCmdArgsPFvPKcE,"axG",@progbits,_ZN11idCmdSystem18ArgCompletion_DeclILi1EEEvRK9idCmdArgsPFvPKcE,comdat
	.align 2
	.weak	_ZN11idCmdSystem18ArgCompletion_DeclILi1EEEvRK9idCmdArgsPFvPKcE
	.type	_ZN11idCmdSystem18ArgCompletion_DeclILi1EEEvRK9idCmdArgsPFvPKcE, @function
_ZN11idCmdSystem18ArgCompletion_DeclILi1EEEvRK9idCmdArgsPFvPKcE:
.LFB2788:
	.file 4 "d:/Data/Nintendo/DoomGX/src/renderer/../idlib/../framework/CmdSystem.h"
	.loc 4 148 0
	.cfi_startproc
.LVL14:
	mflr 0
	stwu 1,-8(1)
.LCFI0:
	.cfi_def_cfa_offset 8
	.cfi_register 65, 0
	.loc 4 149 0
	lis 9,cmdSystem@ha
	.loc 4 148 0
	mr 11,3
	.loc 4 149 0
	lwz 9,cmdSystem@l(9)
	.loc 4 148 0
	mr 5,4
	stw 0,12(1)
	.loc 4 149 0
	mr 4,11
.LVL15:
	mr 3,9
.LVL16:
	li 6,1
	lwz 10,0(9)
	lwz 0,48(10)
	.cfi_offset 65, 4
	mtctr 0
	bctrl
.LVL17:
	.loc 4 150 0
	lwz 0,12(1)
	addi 1,1,8
.LCFI1:
	.cfi_def_cfa_offset 0
	mtlr 0
	blr
	.cfi_endproc
.LFE2788:
	.size	_ZN11idCmdSystem18ArgCompletion_DeclILi1EEEvRK9idCmdArgsPFvPKcE, .-_ZN11idCmdSystem18ArgCompletion_DeclILi1EEEvRK9idCmdArgsPFvPKcE
	.section	.text._ZN9idWinding5ClearEv,"axG",@progbits,_ZN9idWinding5ClearEv,comdat
	.align 2
	.weak	_ZN9idWinding5ClearEv
	.type	_ZN9idWinding5ClearEv, @function
_ZN9idWinding5ClearEv:
.LFB1473:
	.loc 1 249 0
	.cfi_startproc
.LVL18:
	mflr 0
	stwu 1,-16(1)
.LCFI2:
	.cfi_def_cfa_offset 16
	.cfi_register 65, 0
	stw 31,12(1)
	mr 31,3
	.cfi_offset 31, -4
	stw 0,20(1)
	.loc 1 250 0
	li 0,0
	.cfi_offset 65, 4
	.loc 1 251 0
	lwz 3,8(3)
.LVL19:
	.loc 1 250 0
	stw 0,4(31)
	.loc 1 251 0
	cmpwi 7,3,0
	beq- 7,.L14
	.loc 1 251 0 is_stmt 0 discriminator 1
	bl _ZdaPv
.L14:
	.loc 1 252 0 is_stmt 1
	li 0,0
	stw 0,8(31)
	.loc 1 253 0
	lwz 0,20(1)
	lwz 31,12(1)
.LVL20:
	mtlr 0
	addi 1,1,16
.LCFI3:
	.cfi_def_cfa_offset 0
	.cfi_restore 31
	blr
	.cfi_endproc
.LFE1473:
	.size	_ZN9idWinding5ClearEv, .-_ZN9idWinding5ClearEv
	.section	.text._ZN9idWindingD2Ev,"axG",@progbits,_ZN9idWindingD5Ev,comdat
	.align 2
	.weak	_ZN9idWindingD2Ev
	.type	_ZN9idWindingD2Ev, @function
_ZN9idWindingD2Ev:
.LFB1461:
	.loc 1 183 0
	.cfi_startproc
.LVL21:
	mflr 0
	stwu 1,-16(1)
.LCFI4:
	.cfi_def_cfa_offset 16
	.cfi_register 65, 0
.LBB1422:
	lis 9,_ZTV9idWinding+8@ha
.LBE1422:
	stw 31,12(1)
	mr 31,3
	.cfi_offset 31, -4
	stw 0,20(1)
.LBB1423:
	.loc 1 183 0
	la 0,_ZTV9idWinding+8@l(9)
	.cfi_offset 65, 4
	.loc 1 184 0
	lwz 3,8(3)
.LVL22:
	.loc 1 183 0
	stw 0,0(31)
	.loc 1 184 0
	cmpwi 7,3,0
	beq- 7,.L17
	.loc 1 184 0 is_stmt 0 discriminator 1
	bl _ZdaPv
.L17:
	.loc 1 185 0 is_stmt 1
	li 0,0
	stw 0,8(31)
.LBE1423:
	.loc 1 186 0
	lwz 0,20(1)
	lwz 31,12(1)
.LVL23:
	mtlr 0
	addi 1,1,16
.LCFI5:
	.cfi_def_cfa_offset 0
	.cfi_restore 31
	blr
	.cfi_endproc
.LFE1461:
	.size	_ZN9idWindingD2Ev, .-_ZN9idWindingD2Ev
	.section	.text._ZN6idCVarD0Ev,"axG",@progbits,_ZN6idCVarD5Ev,comdat
	.align 2
	.weak	_ZN6idCVarD0Ev
	.type	_ZN6idCVarD0Ev, @function
_ZN6idCVarD0Ev:
.LFB2177:
	.loc 2 127 0
	.cfi_startproc
.LVL24:
	mflr 0
	stwu 1,-8(1)
.LCFI6:
	.cfi_def_cfa_offset 8
	.cfi_register 65, 0
.LBB1424:
.LBB1425:
.LBB1426:
	lis 9,_ZTV6idCVar+8@ha
.LBE1426:
.LBE1425:
.LBE1424:
	stw 0,12(1)
.LBB1429:
.LBB1428:
.LBB1427:
	.loc 2 127 0
	la 0,_ZTV6idCVar+8@l(9)
	.cfi_offset 65, 4
	stw 0,0(3)
.LBE1427:
.LBE1428:
.LBE1429:
	bl _ZdlPv
.LVL25:
	lwz 0,12(1)
	addi 1,1,8
.LCFI7:
	.cfi_def_cfa_offset 0
	mtlr 0
	blr
	.cfi_endproc
.LFE2177:
	.size	_ZN6idCVarD0Ev, .-_ZN6idCVarD0Ev
	.section	.text._ZN11idCmdSystem21ArgCompletion_BooleanERK9idCmdArgsPFvPKcE,"axG",@progbits,_ZN11idCmdSystem21ArgCompletion_BooleanERK9idCmdArgsPFvPKcE,comdat
	.align 2
	.weak	_ZN11idCmdSystem21ArgCompletion_BooleanERK9idCmdArgsPFvPKcE
	.type	_ZN11idCmdSystem21ArgCompletion_BooleanERK9idCmdArgsPFvPKcE, @function
_ZN11idCmdSystem21ArgCompletion_BooleanERK9idCmdArgsPFvPKcE:
.LFB2158:
	.loc 4 131 0
	.cfi_startproc
.LVL26:
	mflr 0
	stwu 1,-24(1)
.LCFI8:
	.cfi_def_cfa_offset 24
	.cfi_register 65, 0
	stw 31,20(1)
	mr 31,3
	.cfi_offset 31, -4
.LVL27:
	stw 0,28(1)
	.loc 4 131 0
	stw 4,8(1)
.LBB1430:
.LBB1431:
	.file 5 "d:/Data/Nintendo/DoomGX/src/renderer/../idlib/../idlib/CmdArgs.h"
	.loc 5 50 0
	lwz 0,0(3)
	.cfi_offset 65, 4
	cmpwi 7,0,0
	ble- 7,.L25
.LVL28:
	lwz 4,4(3)
.LVL29:
.LBE1431:
.LBE1430:
	.loc 4 132 0
	lis 3,.LC1@ha
.LVL30:
	la 3,.LC1@l(3)
	crxor 6,6,6
	bl _Z2vaPKcz
	lwz 0,8(1)
	mtctr 0
	bctrl
.LVL31:
.LBB1434:
.LBB1435:
	.loc 5 50 0
	lwz 0,0(31)
	cmpwi 7,0,0
	ble- 7,.L26
.L27:
	lwz 4,4(31)
.LBE1435:
.LBE1434:
	.loc 4 133 0
	lis 3,.LC2@ha
	la 3,.LC2@l(3)
	crxor 6,6,6
	bl _Z2vaPKcz
	lwz 0,8(1)
	mtctr 0
	bctrl
	.loc 4 134 0
	lwz 0,28(1)
	lwz 31,20(1)
.LVL32:
	mtlr 0
	addi 1,1,24
	.cfi_remember_state
.LCFI9:
	.cfi_def_cfa_offset 0
	.cfi_restore 31
	blr
.LVL33:
.L25:
.LCFI10:
	.cfi_restore_state
.LBB1438:
.LBB1432:
	.loc 5 50 0
	lis 4,.LC0@ha
.LBE1432:
.LBE1438:
	.loc 4 132 0
	lis 3,.LC1@ha
.LVL34:
.LBB1439:
.LBB1433:
	.loc 5 50 0
	la 4,.LC0@l(4)
.LBE1433:
.LBE1439:
	.loc 4 132 0
	la 3,.LC1@l(3)
	crxor 6,6,6
	bl _Z2vaPKcz
	lwz 0,8(1)
	mtctr 0
	bctrl
.LVL35:
.LBB1440:
.LBB1436:
	.loc 5 50 0
	lwz 0,0(31)
	cmpwi 7,0,0
	bgt+ 7,.L27
.L26:
	lis 4,.LC0@ha
.LBE1436:
.LBE1440:
	.loc 4 133 0
	lis 3,.LC2@ha
.LBB1441:
.LBB1437:
	.loc 5 50 0
	la 4,.LC0@l(4)
.LBE1437:
.LBE1441:
	.loc 4 133 0
	la 3,.LC2@l(3)
	crxor 6,6,6
	bl _Z2vaPKcz
	lwz 0,8(1)
	mtctr 0
	bctrl
	.loc 4 134 0
	lwz 0,28(1)
	lwz 31,20(1)
.LVL36:
	mtlr 0
	addi 1,1,24
	.cfi_restore 31
.LCFI11:
	.cfi_def_cfa_offset 0
	blr
	.cfi_endproc
.LFE2158:
	.size	_ZN11idCmdSystem21ArgCompletion_BooleanERK9idCmdArgsPFvPKcE, .-_ZN11idCmdSystem21ArgCompletion_BooleanERK9idCmdArgsPFvPKcE
	.section	.text._ZN11idCmdSystem21ArgCompletion_IntegerILi0ELi4EEEvRK9idCmdArgsPFvPKcE,"axG",@progbits,_ZN11idCmdSystem21ArgCompletion_IntegerILi0ELi4EEEvRK9idCmdArgsPFvPKcE,comdat
	.align 2
	.weak	_ZN11idCmdSystem21ArgCompletion_IntegerILi0ELi4EEEvRK9idCmdArgsPFvPKcE
	.type	_ZN11idCmdSystem21ArgCompletion_IntegerILi0ELi4EEEvRK9idCmdArgsPFvPKcE, @function
_ZN11idCmdSystem21ArgCompletion_IntegerILi0ELi4EEEvRK9idCmdArgsPFvPKcE:
.LFB2787:
	.loc 4 136 0
	.cfi_startproc
.LVL37:
	mflr 0
	stwu 1,-32(1)
.LCFI12:
	.cfi_def_cfa_offset 32
	.cfi_register 65, 0
	stw 29,20(1)
	lis 29,.LC3@ha
	.cfi_offset 29, -12
	stw 0,36(1)
	la 29,.LC3@l(29)
	stw 4,8(1)
	stw 28,16(1)
.LBB1442:
.LBB1443:
.LBB1444:
	.loc 5 50 0
	lis 28,.LC0@ha
	.cfi_offset 28, -16
	.cfi_offset 65, 4
.LBE1444:
.LBE1443:
.LBE1442:
	.loc 4 136 0
	stw 30,24(1)
	mr 30,3
	.cfi_offset 30, -8
	stw 31,28(1)
	.loc 4 137 0
	li 31,0
	.cfi_offset 31, -4
.LVL38:
.L30:
.LBB1449:
.LBB1447:
.LBB1445:
	.loc 5 50 0
	lwz 0,0(30)
	cmpwi 7,0,0
	ble- 7,.L31
	lwz 4,4(30)
.L29:
.LBE1445:
.LBE1447:
	.loc 4 138 0
	mr 5,31
	mr 3,29
	crxor 6,6,6
	bl _Z2vaPKcz
	lwz 0,8(1)
	mtctr 0
	bctrl
.LVL39:
	.loc 4 137 0
	cmpwi 7,31,4
	addi 31,31,1
.LVL40:
	bne+ 7,.L30
.LBE1449:
	.loc 4 140 0
	lwz 0,36(1)
	lwz 28,16(1)
	mtlr 0
	lwz 29,20(1)
	lwz 30,24(1)
.LVL41:
	lwz 31,28(1)
.LVL42:
	addi 1,1,32
	.cfi_remember_state
.LCFI13:
	.cfi_def_cfa_offset 0
	.cfi_restore 31
	.cfi_restore 30
	.cfi_restore 29
	.cfi_restore 28
	blr
.LVL43:
.L31:
.LCFI14:
	.cfi_restore_state
.LBB1450:
.LBB1448:
.LBB1446:
	.loc 5 50 0
	la 4,.LC0@l(28)
	b .L29
.LBE1446:
.LBE1448:
.LBE1450:
	.cfi_endproc
.LFE2787:
	.size	_ZN11idCmdSystem21ArgCompletion_IntegerILi0ELi4EEEvRK9idCmdArgsPFvPKcE, .-_ZN11idCmdSystem21ArgCompletion_IntegerILi0ELi4EEEvRK9idCmdArgsPFvPKcE
	.section	.text._ZN11idCmdSystem21ArgCompletion_IntegerILin2ELi2EEEvRK9idCmdArgsPFvPKcE,"axG",@progbits,_ZN11idCmdSystem21ArgCompletion_IntegerILin2ELi2EEEvRK9idCmdArgsPFvPKcE,comdat
	.align 2
	.weak	_ZN11idCmdSystem21ArgCompletion_IntegerILin2ELi2EEEvRK9idCmdArgsPFvPKcE
	.type	_ZN11idCmdSystem21ArgCompletion_IntegerILin2ELi2EEEvRK9idCmdArgsPFvPKcE, @function
_ZN11idCmdSystem21ArgCompletion_IntegerILin2ELi2EEEvRK9idCmdArgsPFvPKcE:
.LFB2786:
	.loc 4 136 0
	.cfi_startproc
.LVL44:
	mflr 0
	stwu 1,-32(1)
.LCFI15:
	.cfi_def_cfa_offset 32
	.cfi_register 65, 0
	stw 29,20(1)
	lis 29,.LC3@ha
	.cfi_offset 29, -12
	stw 0,36(1)
	la 29,.LC3@l(29)
	stw 4,8(1)
	stw 28,16(1)
.LBB1451:
.LBB1452:
.LBB1453:
	.loc 5 50 0
	lis 28,.LC0@ha
	.cfi_offset 28, -16
	.cfi_offset 65, 4
.LBE1453:
.LBE1452:
.LBE1451:
	.loc 4 136 0
	stw 30,24(1)
	mr 30,3
	.cfi_offset 30, -8
	stw 31,28(1)
	.loc 4 137 0
	li 31,-2
	.cfi_offset 31, -4
.LVL45:
.L35:
.LBB1458:
.LBB1456:
.LBB1454:
	.loc 5 50 0
	lwz 0,0(30)
	cmpwi 7,0,0
	ble- 7,.L36
	lwz 4,4(30)
.L34:
.LBE1454:
.LBE1456:
	.loc 4 138 0
	mr 5,31
	mr 3,29
	crxor 6,6,6
	bl _Z2vaPKcz
	lwz 0,8(1)
	mtctr 0
	bctrl
.LVL46:
	.loc 4 137 0
	cmpwi 7,31,2
	addi 31,31,1
.LVL47:
	bne+ 7,.L35
.LBE1458:
	.loc 4 140 0
	lwz 0,36(1)
	lwz 28,16(1)
	mtlr 0
	lwz 29,20(1)
	lwz 30,24(1)
.LVL48:
	lwz 31,28(1)
.LVL49:
	addi 1,1,32
	.cfi_remember_state
.LCFI16:
	.cfi_def_cfa_offset 0
	.cfi_restore 31
	.cfi_restore 30
	.cfi_restore 29
	.cfi_restore 28
	blr
.LVL50:
.L36:
.LCFI17:
	.cfi_restore_state
.LBB1459:
.LBB1457:
.LBB1455:
	.loc 5 50 0
	la 4,.LC0@l(28)
	b .L34
.LBE1455:
.LBE1457:
.LBE1459:
	.cfi_endproc
.LFE2786:
	.size	_ZN11idCmdSystem21ArgCompletion_IntegerILin2ELi2EEEvRK9idCmdArgsPFvPKcE, .-_ZN11idCmdSystem21ArgCompletion_IntegerILin2ELi2EEEvRK9idCmdArgsPFvPKcE
	.section	.text._ZN11idCmdSystem21ArgCompletion_IntegerILi0ELi3EEEvRK9idCmdArgsPFvPKcE,"axG",@progbits,_ZN11idCmdSystem21ArgCompletion_IntegerILi0ELi3EEEvRK9idCmdArgsPFvPKcE,comdat
	.align 2
	.weak	_ZN11idCmdSystem21ArgCompletion_IntegerILi0ELi3EEEvRK9idCmdArgsPFvPKcE
	.type	_ZN11idCmdSystem21ArgCompletion_IntegerILi0ELi3EEEvRK9idCmdArgsPFvPKcE, @function
_ZN11idCmdSystem21ArgCompletion_IntegerILi0ELi3EEEvRK9idCmdArgsPFvPKcE:
.LFB2785:
	.loc 4 136 0
	.cfi_startproc
.LVL51:
	mflr 0
	stwu 1,-32(1)
.LCFI18:
	.cfi_def_cfa_offset 32
	.cfi_register 65, 0
	stw 29,20(1)
	lis 29,.LC3@ha
	.cfi_offset 29, -12
	stw 0,36(1)
	la 29,.LC3@l(29)
	stw 4,8(1)
	stw 28,16(1)
.LBB1460:
.LBB1461:
.LBB1462:
	.loc 5 50 0
	lis 28,.LC0@ha
	.cfi_offset 28, -16
	.cfi_offset 65, 4
.LBE1462:
.LBE1461:
.LBE1460:
	.loc 4 136 0
	stw 30,24(1)
	mr 30,3
	.cfi_offset 30, -8
	stw 31,28(1)
	.loc 4 137 0
	li 31,0
	.cfi_offset 31, -4
.LVL52:
.L40:
.LBB1467:
.LBB1465:
.LBB1463:
	.loc 5 50 0
	lwz 0,0(30)
	cmpwi 7,0,0
	ble- 7,.L41
	lwz 4,4(30)
.L39:
.LBE1463:
.LBE1465:
	.loc 4 138 0
	mr 5,31
	mr 3,29
	crxor 6,6,6
	bl _Z2vaPKcz
	lwz 0,8(1)
	mtctr 0
	bctrl
.LVL53:
	.loc 4 137 0
	cmpwi 7,31,3
	addi 31,31,1
.LVL54:
	bne+ 7,.L40
.LBE1467:
	.loc 4 140 0
	lwz 0,36(1)
	lwz 28,16(1)
	mtlr 0
	lwz 29,20(1)
	lwz 30,24(1)
.LVL55:
	lwz 31,28(1)
.LVL56:
	addi 1,1,32
	.cfi_remember_state
.LCFI19:
	.cfi_def_cfa_offset 0
	.cfi_restore 31
	.cfi_restore 30
	.cfi_restore 29
	.cfi_restore 28
	blr
.LVL57:
.L41:
.LCFI20:
	.cfi_restore_state
.LBB1468:
.LBB1466:
.LBB1464:
	.loc 5 50 0
	la 4,.LC0@l(28)
	b .L39
.LBE1464:
.LBE1466:
.LBE1468:
	.cfi_endproc
.LFE2785:
	.size	_ZN11idCmdSystem21ArgCompletion_IntegerILi0ELi3EEEvRK9idCmdArgsPFvPKcE, .-_ZN11idCmdSystem21ArgCompletion_IntegerILi0ELi3EEEvRK9idCmdArgsPFvPKcE
	.section	.text._ZN11idCmdSystem21ArgCompletion_IntegerILi0ELi2EEEvRK9idCmdArgsPFvPKcE,"axG",@progbits,_ZN11idCmdSystem21ArgCompletion_IntegerILi0ELi2EEEvRK9idCmdArgsPFvPKcE,comdat
	.align 2
	.weak	_ZN11idCmdSystem21ArgCompletion_IntegerILi0ELi2EEEvRK9idCmdArgsPFvPKcE
	.type	_ZN11idCmdSystem21ArgCompletion_IntegerILi0ELi2EEEvRK9idCmdArgsPFvPKcE, @function
_ZN11idCmdSystem21ArgCompletion_IntegerILi0ELi2EEEvRK9idCmdArgsPFvPKcE:
.LFB2784:
	.loc 4 136 0
	.cfi_startproc
.LVL58:
	mflr 0
	stwu 1,-32(1)
.LCFI21:
	.cfi_def_cfa_offset 32
	.cfi_register 65, 0
	stw 29,20(1)
	lis 29,.LC3@ha
	.cfi_offset 29, -12
	stw 0,36(1)
	la 29,.LC3@l(29)
	stw 4,8(1)
	stw 28,16(1)
.LBB1469:
.LBB1470:
.LBB1471:
	.loc 5 50 0
	lis 28,.LC0@ha
	.cfi_offset 28, -16
	.cfi_offset 65, 4
.LBE1471:
.LBE1470:
.LBE1469:
	.loc 4 136 0
	stw 30,24(1)
	mr 30,3
	.cfi_offset 30, -8
	stw 31,28(1)
	.loc 4 137 0
	li 31,0
	.cfi_offset 31, -4
.LVL59:
.L45:
.LBB1476:
.LBB1474:
.LBB1472:
	.loc 5 50 0
	lwz 0,0(30)
	cmpwi 7,0,0
	ble- 7,.L46
	lwz 4,4(30)
.L44:
.LBE1472:
.LBE1474:
	.loc 4 138 0
	mr 5,31
	mr 3,29
	crxor 6,6,6
	bl _Z2vaPKcz
	lwz 0,8(1)
	mtctr 0
	bctrl
.LVL60:
	.loc 4 137 0
	cmpwi 7,31,2
	addi 31,31,1
.LVL61:
	bne+ 7,.L45
.LBE1476:
	.loc 4 140 0
	lwz 0,36(1)
	lwz 28,16(1)
	mtlr 0
	lwz 29,20(1)
	lwz 30,24(1)
.LVL62:
	lwz 31,28(1)
.LVL63:
	addi 1,1,32
	.cfi_remember_state
.LCFI22:
	.cfi_def_cfa_offset 0
	.cfi_restore 31
	.cfi_restore 30
	.cfi_restore 29
	.cfi_restore 28
	blr
.LVL64:
.L46:
.LCFI23:
	.cfi_restore_state
.LBB1477:
.LBB1475:
.LBB1473:
	.loc 5 50 0
	la 4,.LC0@l(28)
	b .L44
.LBE1473:
.LBE1475:
.LBE1477:
	.cfi_endproc
.LFE2784:
	.size	_ZN11idCmdSystem21ArgCompletion_IntegerILi0ELi2EEEvRK9idCmdArgsPFvPKcE, .-_ZN11idCmdSystem21ArgCompletion_IntegerILi0ELi2EEEvRK9idCmdArgsPFvPKcE
	.section	.text._ZN11idCmdSystem20ArgCompletion_StringIXadL_Z14r_rendererArgsEEEEvRK9idCmdArgsPFvPKcE,"axG",@progbits,_ZN11idCmdSystem20ArgCompletion_StringIXadL_Z14r_rendererArgsEEEEvRK9idCmdArgsPFvPKcE,comdat
	.align 2
	.weak	_ZN11idCmdSystem20ArgCompletion_StringIXadL_Z14r_rendererArgsEEEEvRK9idCmdArgsPFvPKcE
	.type	_ZN11idCmdSystem20ArgCompletion_StringIXadL_Z14r_rendererArgsEEEEvRK9idCmdArgsPFvPKcE, @function
_ZN11idCmdSystem20ArgCompletion_StringIXadL_Z14r_rendererArgsEEEEvRK9idCmdArgsPFvPKcE:
.LFB2783:
	.loc 4 142 0
	.cfi_startproc
.LVL65:
	stwu 1,-32(1)
.LCFI24:
	.cfi_def_cfa_offset 32
	mflr 0
	stw 31,28(1)
.LBB1478:
	.loc 4 143 0
	lis 31,.LANCHOR1@ha
	.cfi_offset 31, -4
	.cfi_register 65, 0
	lwz 5,.LANCHOR1@l(31)
	la 31,.LANCHOR1@l(31)
.LBE1478:
	.loc 4 142 0
	stw 30,24(1)
	mr 30,3
	.cfi_offset 30, -8
.LBB1483:
	.loc 4 143 0
	cmpwi 7,5,0
.LBE1483:
	.loc 4 142 0
	stw 0,36(1)
	stw 28,16(1)
	stw 29,20(1)
	.loc 4 142 0
	stw 4,8(1)
.LBB1484:
	.loc 4 143 0
	beq- 7,.L48
	.cfi_offset 29, -12
	.cfi_offset 28, -16
	.cfi_offset 65, 4
	lis 29,.LC4@ha
.LBB1479:
.LBB1480:
	.loc 5 50 0
	lis 28,.LC0@ha
	la 29,.LC4@l(29)
	b .L51
.LVL66:
.L54:
	lwz 4,4(30)
.LBE1480:
.LBE1479:
	.loc 4 144 0
	mr 3,29
	crxor 6,6,6
	bl _Z2vaPKcz
	lwz 0,8(1)
	mtctr 0
	bctrl
	.loc 4 143 0
	lwzu 5,4(31)
	cmpwi 7,5,0
	beq- 7,.L48
.LVL67:
.L51:
.LBB1482:
.LBB1481:
	.loc 5 50 0
	lwz 0,0(30)
	cmpwi 7,0,0
	bgt+ 7,.L54
	la 4,.LC0@l(28)
.LBE1481:
.LBE1482:
	.loc 4 144 0
	mr 3,29
	crxor 6,6,6
	bl _Z2vaPKcz
	lwz 0,8(1)
	mtctr 0
	bctrl
	.loc 4 143 0
	lwzu 5,4(31)
	cmpwi 7,5,0
	bne+ 7,.L51
.LVL68:
.L48:
.LBE1484:
	.loc 4 146 0
	lwz 0,36(1)
	lwz 28,16(1)
	mtlr 0
	lwz 29,20(1)
	lwz 30,24(1)
.LVL69:
	lwz 31,28(1)
	addi 1,1,32
.LCFI25:
	.cfi_def_cfa_offset 0
	.cfi_restore 31
	.cfi_restore 30
	.cfi_restore 29
	.cfi_restore 28
	blr
	.cfi_endproc
.LFE2783:
	.size	_ZN11idCmdSystem20ArgCompletion_StringIXadL_Z14r_rendererArgsEEEEvRK9idCmdArgsPFvPKcE, .-_ZN11idCmdSystem20ArgCompletion_StringIXadL_Z14r_rendererArgsEEEEvRK9idCmdArgsPFvPKcE
	.section	.text._ZN11idCmdSystem21ArgCompletion_IntegerILi0ELi1EEEvRK9idCmdArgsPFvPKcE,"axG",@progbits,_ZN11idCmdSystem21ArgCompletion_IntegerILi0ELi1EEEvRK9idCmdArgsPFvPKcE,comdat
	.align 2
	.weak	_ZN11idCmdSystem21ArgCompletion_IntegerILi0ELi1EEEvRK9idCmdArgsPFvPKcE
	.type	_ZN11idCmdSystem21ArgCompletion_IntegerILi0ELi1EEEvRK9idCmdArgsPFvPKcE, @function
_ZN11idCmdSystem21ArgCompletion_IntegerILi0ELi1EEEvRK9idCmdArgsPFvPKcE:
.LFB2782:
	.loc 4 136 0
	.cfi_startproc
.LVL70:
	mflr 0
	stwu 1,-24(1)
.LCFI26:
	.cfi_def_cfa_offset 24
	.cfi_register 65, 0
	stw 31,20(1)
	mr 31,3
	.cfi_offset 31, -4
.LVL71:
	stw 0,28(1)
	stw 30,16(1)
	.loc 4 136 0
	stw 4,8(1)
.LBB1485:
.LBB1486:
.LBB1487:
	.loc 5 50 0
	lwz 0,0(3)
	.cfi_offset 30, -8
	.cfi_offset 65, 4
	cmpwi 7,0,0
	ble- 7,.L58
.LVL72:
.LBE1487:
.LBE1486:
	.loc 4 138 0
	lis 30,.LC3@ha
.LBB1494:
.LBB1488:
	.loc 5 50 0
	lwz 4,4(3)
.LVL73:
.LBE1488:
.LBE1494:
	.loc 4 138 0
	la 30,.LC3@l(30)
	li 5,0
	mr 3,30
.LVL74:
	crxor 6,6,6
	bl _Z2vaPKcz
	lwz 0,8(1)
	mtctr 0
	bctrl
.LVL75:
.LBB1495:
.LBB1489:
	.loc 5 50 0
	lwz 0,0(31)
	cmpwi 7,0,0
	ble- 7,.L59
.L60:
	lwz 4,4(31)
.LBE1489:
.LBE1495:
	.loc 4 138 0
	li 5,1
	mr 3,30
	crxor 6,6,6
	bl _Z2vaPKcz
	lwz 0,8(1)
	mtctr 0
	bctrl
.LVL76:
.LBE1485:
	.loc 4 140 0
	lwz 0,28(1)
	lwz 30,16(1)
	mtlr 0
	lwz 31,20(1)
.LVL77:
	addi 1,1,24
	.cfi_remember_state
.LCFI27:
	.cfi_def_cfa_offset 0
	.cfi_restore 31
	.cfi_restore 30
	blr
.LVL78:
.L58:
.LCFI28:
	.cfi_restore_state
.LBB1500:
	.loc 4 138 0
	lis 30,.LC3@ha
.LBB1496:
.LBB1490:
	.loc 5 50 0
	lis 4,.LC0@ha
.LBE1490:
.LBE1496:
	.loc 4 138 0
	la 30,.LC3@l(30)
.LBB1497:
.LBB1491:
	.loc 5 50 0
	la 4,.LC0@l(4)
.LBE1491:
.LBE1497:
	.loc 4 138 0
	li 5,0
	mr 3,30
.LVL79:
	crxor 6,6,6
	bl _Z2vaPKcz
	lwz 0,8(1)
	mtctr 0
	bctrl
.LVL80:
.LBB1498:
.LBB1492:
	.loc 5 50 0
	lwz 0,0(31)
	cmpwi 7,0,0
	bgt+ 7,.L60
.L59:
	lis 4,.LC0@ha
.LBE1492:
.LBE1498:
	.loc 4 138 0
	li 5,1
.LBB1499:
.LBB1493:
	.loc 5 50 0
	la 4,.LC0@l(4)
.LBE1493:
.LBE1499:
	.loc 4 138 0
	mr 3,30
	crxor 6,6,6
	bl _Z2vaPKcz
	lwz 0,8(1)
	mtctr 0
	bctrl
.LVL81:
.LBE1500:
	.loc 4 140 0
	lwz 0,28(1)
	lwz 30,16(1)
	mtlr 0
	lwz 31,20(1)
.LVL82:
	addi 1,1,24
	.cfi_restore 30
	.cfi_restore 31
.LCFI29:
	.cfi_def_cfa_offset 0
	blr
	.cfi_endproc
.LFE2782:
	.size	_ZN11idCmdSystem21ArgCompletion_IntegerILi0ELi1EEEvRK9idCmdArgsPFvPKcE, .-_ZN11idCmdSystem21ArgCompletion_IntegerILi0ELi1EEEvRK9idCmdArgsPFvPKcE
	.section	".text"
	.align 2
	.globl _ZN19idRenderSystemLocal11GetCardCapsERbS0_
	.type	_ZN19idRenderSystemLocal11GetCardCapsERbS0_, @function
_ZN19idRenderSystemLocal11GetCardCapsERbS0_:
.LFB2611:
	.loc 3 1439 0
	.cfi_startproc
.LVL83:
	mflr 0
	stwu 1,-8(1)
.LCFI30:
	.cfi_def_cfa_offset 8
	.cfi_register 65, 0
	.loc 3 1440 0
	lis 3,.LC5@ha
.LVL84:
	la 3,.LC5@l(3)
	.loc 3 1439 0
	stw 0,12(1)
	.loc 3 1440 0
	.cfi_offset 65, 4
	crxor 6,6,6
	bl _Z10Sys_PrintfPKcz
.LVL85:
	.loc 3 1441 0
	lwz 0,12(1)
	addi 1,1,8
.LCFI31:
	.cfi_def_cfa_offset 0
	mtlr 0
	blr
	.cfi_endproc
.LFE2611:
	.size	_ZN19idRenderSystemLocal11GetCardCapsERbS0_, .-_ZN19idRenderSystemLocal11GetCardCapsERbS0_
	.align 2
	.globl _Z9GfxInfo_fRK9idCmdArgs
	.type	_Z9GfxInfo_fRK9idCmdArgs, @function
_Z9GfxInfo_fRK9idCmdArgs:
.LFB2589:
	.loc 3 1066 0
	.cfi_startproc
.LVL86:
	mflr 0
	stwu 1,-8(1)
.LCFI32:
	.cfi_def_cfa_offset 8
	.cfi_register 65, 0
	.loc 3 1067 0
	lis 3,.LC6@ha
.LVL87:
	la 3,.LC6@l(3)
	.loc 3 1066 0
	stw 0,12(1)
	.loc 3 1067 0
	.cfi_offset 65, 4
	crxor 6,6,6
	bl _Z10Sys_PrintfPKcz
	.loc 3 1068 0
	lwz 0,12(1)
	addi 1,1,8
.LCFI33:
	.cfi_def_cfa_offset 0
	mtlr 0
	blr
	.cfi_endproc
.LFE2589:
	.size	_Z9GfxInfo_fRK9idCmdArgs, .-_Z9GfxInfo_fRK9idCmdArgs
	.align 2
	.globl _Z14R_ScreenShot_fRK9idCmdArgs
	.type	_Z14R_ScreenShot_fRK9idCmdArgs, @function
_Z14R_ScreenShot_fRK9idCmdArgs:
.LFB2583:
	.loc 3 960 0
	.cfi_startproc
.LVL88:
	mflr 0
	stwu 1,-8(1)
.LCFI34:
	.cfi_def_cfa_offset 8
	.cfi_register 65, 0
	.loc 3 961 0
	lis 3,.LC7@ha
.LVL89:
	la 3,.LC7@l(3)
	.loc 3 960 0
	stw 0,12(1)
	.loc 3 961 0
	.cfi_offset 65, 4
	crxor 6,6,6
	bl _Z10Sys_PrintfPKcz
	.loc 3 962 0
	lwz 0,12(1)
	addi 1,1,8
.LCFI35:
	.cfi_def_cfa_offset 0
	mtlr 0
	blr
	.cfi_endproc
.LFE2583:
	.size	_Z14R_ScreenShot_fRK9idCmdArgs, .-_Z14R_ScreenShot_fRK9idCmdArgs
	.align 2
	.globl _ZN19idRenderSystemLocal14TakeScreenshotEiiPKciP12renderView_s
	.type	_ZN19idRenderSystemLocal14TakeScreenshotEiiPKciP12renderView_s, @function
_ZN19idRenderSystemLocal14TakeScreenshotEiiPKciP12renderView_s:
.LFB2581:
	.loc 3 928 0
	.cfi_startproc
.LVL90:
	mflr 0
	stwu 1,-8(1)
.LCFI36:
	.cfi_def_cfa_offset 8
	.cfi_register 65, 0
	.loc 3 929 0
	lis 3,.LC8@ha
.LVL91:
	la 3,.LC8@l(3)
	.loc 3 928 0
	stw 0,12(1)
	.loc 3 929 0
	.cfi_offset 65, 4
	crxor 6,6,6
	bl _Z10Sys_PrintfPKcz
.LVL92:
	.loc 3 930 0
	lwz 0,12(1)
	addi 1,1,8
.LCFI37:
	.cfi_def_cfa_offset 0
	mtlr 0
	blr
	.cfi_endproc
.LFE2581:
	.size	_ZN19idRenderSystemLocal14TakeScreenshotEiiPKciP12renderView_s, .-_ZN19idRenderSystemLocal14TakeScreenshotEiiPKciP12renderView_s
	.align 2
	.globl _Z13R_Benchmark_fRK9idCmdArgs
	.type	_Z13R_Benchmark_fRK9idCmdArgs, @function
_Z13R_Benchmark_fRK9idCmdArgs:
.LFB2579:
	.loc 3 888 0
	.cfi_startproc
.LVL93:
	mflr 0
	stwu 1,-8(1)
.LCFI38:
	.cfi_def_cfa_offset 8
	.cfi_register 65, 0
	.loc 3 889 0
	lis 3,.LC9@ha
.LVL94:
	la 3,.LC9@l(3)
	.loc 3 888 0
	stw 0,12(1)
	.loc 3 889 0
	.cfi_offset 65, 4
	crxor 6,6,6
	bl _Z10Sys_PrintfPKcz
	.loc 3 890 0
	lwz 0,12(1)
	addi 1,1,8
.LCFI39:
	.cfi_def_cfa_offset 0
	mtlr 0
	blr
	.cfi_endproc
.LFE2579:
	.size	_Z13R_Benchmark_fRK9idCmdArgs, .-_Z13R_Benchmark_fRK9idCmdArgs
	.align 2
	.globl _ZN19idRenderSystemLocal14ShutdownOpenGLEv
	.type	_ZN19idRenderSystemLocal14ShutdownOpenGLEv, @function
_ZN19idRenderSystemLocal14ShutdownOpenGLEv:
.LFB2606:
	.loc 3 1385 0
	.cfi_startproc
.LVL95:
	mflr 0
	stwu 1,-8(1)
.LCFI40:
	.cfi_def_cfa_offset 8
	.cfi_register 65, 0
	stw 0,12(1)
	.loc 3 1387 0
	.cfi_offset 65, 4
	bl _Z19R_ShutdownFrameDatav
.LVL96:
	.loc 3 1388 0
	bl _Z14GLimp_Shutdownv
	.loc 3 1389 0
	lis 9,.LANCHOR0@ha
	li 0,0
	la 9,.LANCHOR0@l(9)
	stb 0,94(9)
	.loc 3 1390 0
	lwz 0,12(1)
	addi 1,1,8
.LCFI41:
	.cfi_def_cfa_offset 0
	mtlr 0
	blr
	.cfi_endproc
.LFE2606:
	.size	_ZN19idRenderSystemLocal14ShutdownOpenGLEv, .-_ZN19idRenderSystemLocal14ShutdownOpenGLEv
	.align 2
	.globl _ZN19idRenderSystemLocal12EndLevelLoadEv
	.type	_ZN19idRenderSystemLocal12EndLevelLoadEv, @function
_ZN19idRenderSystemLocal12EndLevelLoadEv:
.LFB2604:
	.loc 3 1347 0
	.cfi_startproc
.LVL97:
	mflr 0
	stwu 1,-8(1)
.LCFI42:
	.cfi_def_cfa_offset 8
	.cfi_register 65, 0
	.loc 3 1348 0
	lis 9,renderModelManager@ha
	lwz 3,renderModelManager@l(9)
.LVL98:
	.loc 3 1347 0
	stw 0,12(1)
	.loc 3 1348 0
	lwz 9,0(3)
	lwz 0,20(9)
	.cfi_offset 65, 4
	mtctr 0
	bctrl
	.loc 3 1349 0
	lis 9,globalImages@ha
	lwz 3,globalImages@l(9)
	bl _ZN14idImageManager12EndLevelLoadEv
.LBB1501:
.LBB1502:
	.loc 3 1350 0
	lis 9,.LANCHOR0+140@ha
	.loc 2 142 0
	lwz 9,.LANCHOR0+140@l(9)
.LBE1502:
.LBE1501:
	.loc 3 1350 0
	lwz 0,36(9)
	cmpwi 7,0,0
	beq+ 7,.L67
	.loc 3 1351 0
	bl _Z13RB_ShowImagesv
.L67:
	.loc 3 1353 0
	lwz 0,12(1)
	addi 1,1,8
.LCFI43:
	.cfi_def_cfa_offset 0
	mtlr 0
	blr
	.cfi_endproc
.LFE2604:
	.size	_ZN19idRenderSystemLocal12EndLevelLoadEv, .-_ZN19idRenderSystemLocal12EndLevelLoadEv
	.align 2
	.globl _ZN19idRenderSystemLocal14BeginLevelLoadEv
	.type	_ZN19idRenderSystemLocal14BeginLevelLoadEv, @function
_ZN19idRenderSystemLocal14BeginLevelLoadEv:
.LFB2603:
	.loc 3 1337 0
	.cfi_startproc
.LVL99:
	mflr 0
	stwu 1,-8(1)
.LCFI44:
	.cfi_def_cfa_offset 8
	.cfi_register 65, 0
	.loc 3 1338 0
	lis 9,renderModelManager@ha
	lwz 3,renderModelManager@l(9)
.LVL100:
	.loc 3 1337 0
	stw 0,12(1)
	.loc 3 1338 0
	lwz 9,0(3)
	lwz 0,16(9)
	.cfi_offset 65, 4
	mtctr 0
	bctrl
	.loc 3 1339 0
	lis 9,globalImages@ha
	lwz 3,globalImages@l(9)
	bl _ZN14idImageManager14BeginLevelLoadEv
	.loc 3 1340 0
	lwz 0,12(1)
	addi 1,1,8
.LCFI45:
	.cfi_def_cfa_offset 0
	mtlr 0
	blr
	.cfi_endproc
.LFE2603:
	.size	_ZN19idRenderSystemLocal14BeginLevelLoadEv, .-_ZN19idRenderSystemLocal14BeginLevelLoadEv
	.section	.text._ZN14idFixedWindingD2Ev,"axG",@progbits,_ZN14idFixedWindingD5Ev,comdat
	.align 2
	.weak	_ZN14idFixedWindingD2Ev
	.type	_ZN14idFixedWindingD2Ev, @function
_ZN14idFixedWindingD2Ev:
.LFB1498:
	.loc 1 380 0
	.cfi_startproc
.LVL101:
.LBB1508:
	.loc 1 381 0
	li 0,0
.LBB1509:
.LBB1510:
.LBB1511:
	.loc 1 183 0
	lis 9,_ZTV9idWinding+8@ha
.LBE1511:
.LBE1510:
.LBE1509:
	.loc 1 381 0
	stw 0,8(3)
.LVL102:
.LBB1514:
.LBB1513:
.LBB1512:
	.loc 1 183 0
	la 0,_ZTV9idWinding+8@l(9)
	stw 0,0(3)
.LBE1512:
.LBE1513:
.LBE1514:
.LBE1508:
	.loc 1 382 0
	blr
	.cfi_endproc
.LFE1498:
	.size	_ZN14idFixedWindingD2Ev, .-_ZN14idFixedWindingD2Ev
	.section	.text._ZN9idWindingD0Ev,"axG",@progbits,_ZN9idWindingD5Ev,comdat
	.align 2
	.weak	_ZN9idWindingD0Ev
	.type	_ZN9idWindingD0Ev, @function
_ZN9idWindingD0Ev:
.LFB1463:
	.loc 1 183 0
	.cfi_startproc
.LVL103:
	mflr 0
	stwu 1,-16(1)
.LCFI46:
	.cfi_def_cfa_offset 16
	.cfi_register 65, 0
.LBB1518:
.LBB1519:
.LBB1520:
	lis 9,_ZTV9idWinding+8@ha
.LBE1520:
.LBE1519:
.LBE1518:
	stw 31,12(1)
	mr 31,3
	.cfi_offset 31, -4
.LVL104:
	stw 0,20(1)
.LBB1525:
.LBB1523:
.LBB1521:
	.loc 1 183 0
	la 0,_ZTV9idWinding+8@l(9)
	.cfi_offset 65, 4
	.loc 1 184 0
	lwz 3,8(3)
.LVL105:
	.loc 1 183 0
	stw 0,0(31)
	.loc 1 184 0
	cmpwi 7,3,0
	beq- 7,.L74
	bl _ZdaPv
.LVL106:
.L74:
	.loc 1 185 0
	li 0,0
.LBE1521:
.LBE1523:
.LBE1525:
	.loc 1 186 0
	mr 3,31
.LBB1526:
.LBB1524:
.LBB1522:
	.loc 1 185 0
	stw 0,8(31)
.LBE1522:
.LBE1524:
.LBE1526:
	.loc 1 186 0
	bl _ZdlPv
	lwz 0,20(1)
	lwz 31,12(1)
.LVL107:
	mtlr 0
	addi 1,1,16
.LCFI47:
	.cfi_def_cfa_offset 0
	.cfi_restore 31
	blr
	.cfi_endproc
.LFE1463:
	.size	_ZN9idWindingD0Ev, .-_ZN9idWindingD0Ev
	.section	.text._ZN14idFixedWindingD0Ev,"axG",@progbits,_ZN14idFixedWindingD5Ev,comdat
	.align 2
	.weak	_ZN14idFixedWindingD0Ev
	.type	_ZN14idFixedWindingD0Ev, @function
_ZN14idFixedWindingD0Ev:
.LFB1500:
	.loc 1 380 0
	.cfi_startproc
.LVL108:
	mflr 0
	stwu 1,-8(1)
.LCFI48:
	.cfi_def_cfa_offset 8
	.cfi_register 65, 0
.LBB1533:
.LBB1534:
.LBB1535:
.LBB1536:
.LBB1537:
.LBB1538:
	.loc 1 183 0
	lis 11,_ZTV9idWinding+8@ha
.LBE1538:
.LBE1537:
.LBE1536:
.LBE1535:
.LBE1534:
.LBE1533:
	.loc 1 380 0
	stw 0,12(1)
.LBB1544:
.LBB1543:
.LBB1542:
	.loc 1 381 0
	li 0,0
	.cfi_offset 65, 4
	stw 0,8(3)
.LVL109:
.LBB1541:
.LBB1540:
.LBB1539:
	.loc 1 183 0
	la 0,_ZTV9idWinding+8@l(11)
	stw 0,0(3)
.LBE1539:
.LBE1540:
.LBE1541:
.LBE1542:
.LBE1543:
.LBE1544:
	.loc 1 382 0
	bl _ZdlPv
.LVL110:
	lwz 0,12(1)
	addi 1,1,8
.LCFI49:
	.cfi_def_cfa_offset 0
	mtlr 0
	blr
	.cfi_endproc
.LFE1500:
	.size	_ZN14idFixedWindingD0Ev, .-_ZN14idFixedWindingD0Ev
	.section	.text._ZN6idCVarC2EPKcS1_iS1_PFvRK9idCmdArgsPFvS1_EE,"axG",@progbits,_ZN6idCVarC5EPKcS1_iS1_PFvRK9idCmdArgsPFvS1_EE,comdat
	.align 2
	.weak	_ZN6idCVarC2EPKcS1_iS1_PFvRK9idCmdArgsPFvS1_EE
	.type	_ZN6idCVarC2EPKcS1_iS1_PFvRK9idCmdArgsPFvS1_EE, @function
_ZN6idCVarC2EPKcS1_iS1_PFvRK9idCmdArgsPFvS1_EE:
.LFB2202:
	.loc 2 181 0
	.cfi_startproc
.LVL111:
	mflr 0
.LBB1555:
	.loc 2 183 0
	cmpwi 0,8,0
.LBE1555:
	.loc 2 181 0
	stwu 1,-8(1)
.LCFI50:
	.cfi_def_cfa_offset 8
	.cfi_register 65, 0
.LBB1558:
	.loc 2 182 0
	lis 9,_ZTV6idCVar+8@ha
.LBE1558:
	.loc 2 181 0
	stw 0,12(1)
.LBB1559:
	.loc 2 182 0
	la 0,_ZTV6idCVar+8@l(9)
	.cfi_offset 65, 4
	stw 0,0(3)
	.loc 2 183 0
	beq- 0,.L85
.LVL112:
.L82:
.LBB1556:
.LBB1557:
	.loc 2 292 0
	lis 9,_ZN6idCVar10staticVarsE@ha
	.loc 2 285 0
	lis 10,.LC10@ha
	.loc 2 292 0
	lwz 11,_ZN6idCVar10staticVarsE@l(9)
	.loc 2 287 0
	li 0,0
	.loc 2 285 0
	lwz 10,.LC10@l(10)
	.loc 2 284 0
	ori 6,6,4096
.LVL113:
	.loc 2 292 0
	cmpwi 7,11,-1
	.loc 2 287 0
	stw 0,28(3)
	.loc 2 285 0
	stw 10,20(3)
	.loc 2 286 0
	lis 10,.LC11@ha
	lwz 10,.LC11@l(10)
	.loc 2 289 0
	stw 0,36(3)
	.loc 2 290 0
	li 0,0
	.loc 2 280 0
	stw 4,4(3)
	.loc 2 281 0
	stw 5,8(3)
	.loc 2 283 0
	stw 7,12(3)
	.loc 2 284 0
	stw 6,16(3)
	.loc 2 286 0
	stw 10,24(3)
	.loc 2 288 0
	stw 8,32(3)
	.loc 2 290 0
	stw 0,40(3)
	.loc 2 291 0
	stw 3,44(3)
	.loc 2 292 0
	beq- 7,.L83
.LVL114:
	.loc 2 293 0
	stw 11,48(3)
	.loc 2 294 0
	stw 3,_ZN6idCVar10staticVarsE@l(9)
.LBE1557:
.LBE1556:
.LBE1559:
	.loc 2 187 0
	lwz 0,12(1)
	addi 1,1,8
	.cfi_remember_state
.LCFI51:
	.cfi_def_cfa_offset 0
	mtlr 0
	blr
.LVL115:
.L85:
.LCFI52:
	.cfi_restore_state
.LBB1560:
	.loc 2 183 0 discriminator 1
	andi. 0,6,1
	beq- 0,.L82
	.loc 2 184 0
	lis 8,_ZN11idCmdSystem21ArgCompletion_BooleanERK9idCmdArgsPFvPKcE@ha
.LVL116:
	la 8,_ZN11idCmdSystem21ArgCompletion_BooleanERK9idCmdArgsPFvPKcE@l(8)
	b .L82
.LVL117:
.L83:
.LBE1560:
.LBB1561:
.LBB1562:
.LBB1563:
.LBB1564:
.LBB1565:
	.loc 2 296 0
	lis 9,cvarSystem@ha
	mr 4,3
.LVL118:
	lwz 11,cvarSystem@l(9)
	lwz 9,0(11)
	mr 3,11
.LVL119:
	lwz 0,20(9)
	mtctr 0
	bctrl
.LVL120:
.LBE1565:
.LBE1564:
.LBE1563:
.LBE1562:
.LBE1561:
	.loc 2 187 0
	lwz 0,12(1)
	addi 1,1,8
.LCFI53:
	.cfi_def_cfa_offset 0
	mtlr 0
	blr
	.cfi_endproc
.LFE2202:
	.size	_ZN6idCVarC2EPKcS1_iS1_PFvRK9idCmdArgsPFvS1_EE, .-_ZN6idCVarC2EPKcS1_iS1_PFvRK9idCmdArgsPFvS1_EE
	.section	.text._ZN6idCVarC2EPKcS1_iS1_ffPFvRK9idCmdArgsPFvS1_EE,"axG",@progbits,_ZN6idCVarC5EPKcS1_iS1_ffPFvRK9idCmdArgsPFvS1_EE,comdat
	.align 2
	.weak	_ZN6idCVarC2EPKcS1_iS1_ffPFvRK9idCmdArgsPFvS1_EE
	.type	_ZN6idCVarC2EPKcS1_iS1_ffPFvRK9idCmdArgsPFvS1_EE, @function
_ZN6idCVarC2EPKcS1_iS1_ffPFvRK9idCmdArgsPFvS1_EE:
.LFB2205:
	.loc 2 189 0
	.cfi_startproc
.LVL121:
	mflr 0
	stwu 1,-8(1)
.LCFI54:
	.cfi_def_cfa_offset 8
	.cfi_register 65, 0
.LBB1576:
	.loc 2 190 0
	lis 9,_ZTV6idCVar+8@ha
.LBB1577:
.LBB1578:
	.loc 2 284 0
	ori 6,6,4096
.LVL122:
.LBE1578:
.LBE1577:
.LBE1576:
	.loc 2 189 0
	stw 0,12(1)
.LBB1581:
	.loc 2 190 0
	la 0,_ZTV6idCVar+8@l(9)
	.cfi_offset 65, 4
	stw 0,0(3)
.LVL123:
.LBB1580:
.LBB1579:
	.loc 2 292 0
	lis 9,_ZN6idCVar10staticVarsE@ha
	.loc 2 287 0
	li 0,0
	.loc 2 280 0
	stw 4,4(3)
	.loc 2 292 0
	lwz 11,_ZN6idCVar10staticVarsE@l(9)
	.loc 2 287 0
	stw 0,28(3)
	.loc 2 292 0
	cmpwi 7,11,-1
	.loc 2 289 0
	stw 0,36(3)
	.loc 2 290 0
	li 0,0
	.loc 2 281 0
	stw 5,8(3)
	.loc 2 283 0
	stw 7,12(3)
	.loc 2 284 0
	stw 6,16(3)
	.loc 2 285 0
	stfs 1,20(3)
	.loc 2 286 0
	stfs 2,24(3)
	.loc 2 288 0
	stw 8,32(3)
	.loc 2 290 0
	stw 0,40(3)
	.loc 2 291 0
	stw 3,44(3)
	.loc 2 292 0
	beq- 7,.L87
.LVL124:
	.loc 2 293 0
	stw 11,48(3)
	.loc 2 294 0
	stw 3,_ZN6idCVar10staticVarsE@l(9)
.LBE1579:
.LBE1580:
.LBE1581:
	.loc 2 192 0
	lwz 0,12(1)
	addi 1,1,8
	.cfi_remember_state
.LCFI55:
	.cfi_def_cfa_offset 0
	mtlr 0
	blr
.LVL125:
.L87:
.LCFI56:
	.cfi_restore_state
.LBB1582:
.LBB1583:
.LBB1584:
.LBB1585:
.LBB1586:
	.loc 2 296 0
	lis 9,cvarSystem@ha
	mr 4,3
.LVL126:
	lwz 11,cvarSystem@l(9)
	lwz 9,0(11)
	mr 3,11
.LVL127:
	lwz 0,20(9)
	mtctr 0
	bctrl
.LVL128:
.LBE1586:
.LBE1585:
.LBE1584:
.LBE1583:
.LBE1582:
	.loc 2 192 0
	lwz 0,12(1)
	addi 1,1,8
.LCFI57:
	.cfi_def_cfa_offset 0
	mtlr 0
	blr
	.cfi_endproc
.LFE2205:
	.size	_ZN6idCVarC2EPKcS1_iS1_ffPFvRK9idCmdArgsPFvS1_EE, .-_ZN6idCVarC2EPKcS1_iS1_ffPFvRK9idCmdArgsPFvS1_EE
	.section	".text"
	.align 2
	.type	_Z41__static_initialization_and_destruction_0ii.constprop.22, @function
_Z41__static_initialization_and_destruction_0ii.constprop.22:
.LFB2880:
	.loc 3 1441 0
	.cfi_startproc
.LVL129:
	cmpwi 7,3,1
	mflr 0
	stwu 1,-80(1)
.LCFI58:
	.cfi_def_cfa_offset 80
	.cfi_register 65, 0
	stw 0,84(1)
	stfd 29,56(1)
	stfd 30,64(1)
	stfd 31,72(1)
	stw 21,12(1)
	stw 22,16(1)
	stw 23,20(1)
	stw 24,24(1)
	stw 25,28(1)
	stw 26,32(1)
	stw 27,36(1)
	stw 28,40(1)
	stw 29,44(1)
	stw 30,48(1)
	stw 31,52(1)
	.loc 3 1441 0
	beq- 7,.L249
	.cfi_offset 31, -28
	.cfi_offset 30, -32
	.cfi_offset 29, -36
	.cfi_offset 28, -40
	.cfi_offset 27, -44
	.cfi_offset 26, -48
	.cfi_offset 25, -52
	.cfi_offset 24, -56
	.cfi_offset 23, -60
	.cfi_offset 22, -64
	.cfi_offset 21, -68
	.cfi_offset 63, -8
	.cfi_offset 62, -16
	.cfi_offset 61, -24
	.cfi_offset 65, 4
	.loc 3 992 0
	cmpwi 7,3,0
	bne- 7,.L89
.LVL130:
.LBB1587:
.LBB1588:
.LBB1589:
	.loc 2 127 0
	lis 9,.LANCHOR0@ha
	lis 11,_ZTV6idCVar+8@ha
	la 9,.LANCHOR0@l(9)
	la 0,_ZTV6idCVar+8@l(11)
	stw 0,8156(9)
.LVL131:
.LBE1589:
.LBE1588:
.LBE1587:
.LBB1590:
.LBB1591:
.LBB1592:
	stw 0,8104(9)
.LVL132:
.LBE1592:
.LBE1591:
.LBE1590:
.LBB1593:
.LBB1594:
.LBB1595:
	stw 0,8052(9)
.LVL133:
.LBE1595:
.LBE1594:
.LBE1593:
.LBB1596:
.LBB1597:
.LBB1598:
	stw 0,8000(9)
.LVL134:
.LBE1598:
.LBE1597:
.LBE1596:
.LBB1599:
.LBB1600:
.LBB1601:
	stw 0,7948(9)
.LVL135:
.LBE1601:
.LBE1600:
.LBE1599:
.LBB1602:
.LBB1603:
.LBB1604:
	stw 0,7896(9)
.LVL136:
.LBE1604:
.LBE1603:
.LBE1602:
.LBB1605:
.LBB1606:
.LBB1607:
	stw 0,7844(9)
.LVL137:
.LBE1607:
.LBE1606:
.LBE1605:
.LBB1608:
.LBB1609:
.LBB1610:
	stw 0,7792(9)
.LVL138:
.LBE1610:
.LBE1609:
.LBE1608:
.LBB1611:
.LBB1612:
.LBB1613:
	stw 0,7740(9)
.LVL139:
.LBE1613:
.LBE1612:
.LBE1611:
.LBB1614:
.LBB1615:
.LBB1616:
	stw 0,7688(9)
.LVL140:
.LBE1616:
.LBE1615:
.LBE1614:
.LBB1617:
.LBB1618:
.LBB1619:
	stw 0,7636(9)
.LVL141:
.LBE1619:
.LBE1618:
.LBE1617:
.LBB1620:
.LBB1621:
.LBB1622:
	stw 0,7584(9)
.LVL142:
.LBE1622:
.LBE1621:
.LBE1620:
.LBB1623:
.LBB1624:
.LBB1625:
	stw 0,7532(9)
.LVL143:
.LBE1625:
.LBE1624:
.LBE1623:
.LBB1626:
.LBB1627:
.LBB1628:
	stw 0,7480(9)
.LVL144:
.LBE1628:
.LBE1627:
.LBE1626:
.LBB1629:
.LBB1630:
.LBB1631:
	stw 0,7428(9)
.LVL145:
.LBE1631:
.LBE1630:
.LBE1629:
.LBB1632:
.LBB1633:
.LBB1634:
	stw 0,7376(9)
.LVL146:
.LBE1634:
.LBE1633:
.LBE1632:
.LBB1635:
.LBB1636:
.LBB1637:
	stw 0,7324(9)
.LVL147:
.LBE1637:
.LBE1636:
.LBE1635:
.LBB1638:
.LBB1639:
.LBB1640:
	stw 0,7272(9)
.LVL148:
.LBE1640:
.LBE1639:
.LBE1638:
.LBB1641:
.LBB1642:
.LBB1643:
	stw 0,7220(9)
.LVL149:
.LBE1643:
.LBE1642:
.LBE1641:
.LBB1644:
.LBB1645:
.LBB1646:
	stw 0,7168(9)
.LVL150:
.LBE1646:
.LBE1645:
.LBE1644:
.LBB1647:
.LBB1648:
.LBB1649:
	stw 0,7116(9)
.LVL151:
.LBE1649:
.LBE1648:
.LBE1647:
.LBB1650:
.LBB1651:
.LBB1652:
	stw 0,7064(9)
.LVL152:
.LBE1652:
.LBE1651:
.LBE1650:
.LBB1653:
.LBB1654:
.LBB1655:
	stw 0,7012(9)
.LVL153:
.LBE1655:
.LBE1654:
.LBE1653:
.LBB1656:
.LBB1657:
.LBB1658:
	stw 0,6960(9)
.LVL154:
.LBE1658:
.LBE1657:
.LBE1656:
.LBB1659:
.LBB1660:
.LBB1661:
	stw 0,6908(9)
.LVL155:
.LBE1661:
.LBE1660:
.LBE1659:
.LBB1662:
.LBB1663:
.LBB1664:
	stw 0,6856(9)
.LVL156:
.LBE1664:
.LBE1663:
.LBE1662:
.LBB1665:
.LBB1666:
.LBB1667:
	stw 0,6804(9)
.LVL157:
.LBE1667:
.LBE1666:
.LBE1665:
.LBB1668:
.LBB1669:
.LBB1670:
	stw 0,6752(9)
.LVL158:
.LBE1670:
.LBE1669:
.LBE1668:
.LBB1671:
.LBB1672:
.LBB1673:
	stw 0,6700(9)
.LVL159:
.LBE1673:
.LBE1672:
.LBE1671:
.LBB1674:
.LBB1675:
.LBB1676:
	stw 0,6648(9)
.LVL160:
.LBE1676:
.LBE1675:
.LBE1674:
.LBB1677:
.LBB1678:
.LBB1679:
	stw 0,6596(9)
.LVL161:
.LBE1679:
.LBE1678:
.LBE1677:
.LBB1680:
.LBB1681:
.LBB1682:
	stw 0,6544(9)
.LVL162:
.LBE1682:
.LBE1681:
.LBE1680:
.LBB1683:
.LBB1684:
.LBB1685:
	stw 0,6492(9)
.LVL163:
.LBE1685:
.LBE1684:
.LBE1683:
.LBB1686:
.LBB1687:
.LBB1688:
	stw 0,6440(9)
.LVL164:
.LBE1688:
.LBE1687:
.LBE1686:
.LBB1689:
.LBB1690:
.LBB1691:
	stw 0,6388(9)
.LVL165:
.LBE1691:
.LBE1690:
.LBE1689:
.LBB1692:
.LBB1693:
.LBB1694:
	stw 0,6336(9)
.LVL166:
.LBE1694:
.LBE1693:
.LBE1692:
.LBB1695:
.LBB1696:
.LBB1697:
	stw 0,6284(9)
.LVL167:
.LBE1697:
.LBE1696:
.LBE1695:
.LBB1698:
.LBB1699:
.LBB1700:
	stw 0,6232(9)
.LVL168:
.LBE1700:
.LBE1699:
.LBE1698:
.LBB1701:
.LBB1702:
.LBB1703:
	stw 0,6180(9)
.LVL169:
.LBE1703:
.LBE1702:
.LBE1701:
.LBB1704:
.LBB1705:
.LBB1706:
	stw 0,6128(9)
.LVL170:
.LBE1706:
.LBE1705:
.LBE1704:
.LBB1707:
.LBB1708:
.LBB1709:
	stw 0,6076(9)
.LVL171:
.LBE1709:
.LBE1708:
.LBE1707:
.LBB1710:
.LBB1711:
.LBB1712:
	stw 0,6024(9)
.LVL172:
.LBE1712:
.LBE1711:
.LBE1710:
.LBB1713:
.LBB1714:
.LBB1715:
	stw 0,5972(9)
.LVL173:
.LBE1715:
.LBE1714:
.LBE1713:
.LBB1716:
.LBB1717:
.LBB1718:
	stw 0,5920(9)
.LVL174:
.LBE1718:
.LBE1717:
.LBE1716:
.LBB1719:
.LBB1720:
.LBB1721:
	stw 0,5868(9)
.LVL175:
.LBE1721:
.LBE1720:
.LBE1719:
.LBB1722:
.LBB1723:
.LBB1724:
	stw 0,5816(9)
.LVL176:
.LBE1724:
.LBE1723:
.LBE1722:
.LBB1725:
.LBB1726:
.LBB1727:
	stw 0,5764(9)
.LVL177:
.LBE1727:
.LBE1726:
.LBE1725:
.LBB1728:
.LBB1729:
.LBB1730:
	stw 0,5712(9)
.LVL178:
.LBE1730:
.LBE1729:
.LBE1728:
.LBB1731:
.LBB1732:
.LBB1733:
	stw 0,5660(9)
.LVL179:
.LBE1733:
.LBE1732:
.LBE1731:
.LBB1734:
.LBB1735:
.LBB1736:
	stw 0,5608(9)
.LVL180:
.LBE1736:
.LBE1735:
.LBE1734:
.LBB1737:
.LBB1738:
.LBB1739:
	stw 0,5556(9)
.LVL181:
.LBE1739:
.LBE1738:
.LBE1737:
.LBB1740:
.LBB1741:
.LBB1742:
	stw 0,5504(9)
.LVL182:
.LBE1742:
.LBE1741:
.LBE1740:
.LBB1743:
.LBB1744:
.LBB1745:
	stw 0,5452(9)
.LVL183:
.LBE1745:
.LBE1744:
.LBE1743:
.LBB1746:
.LBB1747:
.LBB1748:
	stw 0,96(9)
.LVL184:
.LBE1748:
.LBE1747:
.LBE1746:
.LBB1749:
.LBB1750:
.LBB1751:
	stw 0,5400(9)
.LVL185:
.LBE1751:
.LBE1750:
.LBE1749:
.LBB1752:
.LBB1753:
.LBB1754:
	stw 0,5348(9)
.LVL186:
.LBE1754:
.LBE1753:
.LBE1752:
.LBB1755:
.LBB1756:
.LBB1757:
	stw 0,5296(9)
.LVL187:
.LBE1757:
.LBE1756:
.LBE1755:
.LBB1758:
.LBB1759:
.LBB1760:
	stw 0,5244(9)
.LVL188:
.LBE1760:
.LBE1759:
.LBE1758:
.LBB1761:
.LBB1762:
.LBB1763:
	stw 0,5192(9)
.LVL189:
.LBE1763:
.LBE1762:
.LBE1761:
.LBB1764:
.LBB1765:
.LBB1766:
	stw 0,5140(9)
.LVL190:
.LBE1766:
.LBE1765:
.LBE1764:
.LBB1767:
.LBB1768:
.LBB1769:
	stw 0,5088(9)
.LVL191:
.LBE1769:
.LBE1768:
.LBE1767:
.LBB1770:
.LBB1771:
.LBB1772:
	stw 0,5036(9)
.LVL192:
.LBE1772:
.LBE1771:
.LBE1770:
.LBB1773:
.LBB1774:
.LBB1775:
	stw 0,4984(9)
.LVL193:
.LBE1775:
.LBE1774:
.LBE1773:
.LBB1776:
.LBB1777:
.LBB1778:
	stw 0,4932(9)
.LVL194:
.LBE1778:
.LBE1777:
.LBE1776:
.LBB1779:
.LBB1780:
.LBB1781:
	stw 0,4880(9)
.LVL195:
.LBE1781:
.LBE1780:
.LBE1779:
.LBB1782:
.LBB1783:
.LBB1784:
	stw 0,4828(9)
.LVL196:
.LBE1784:
.LBE1783:
.LBE1782:
.LBB1785:
.LBB1786:
.LBB1787:
	stw 0,4776(9)
.LVL197:
.LBE1787:
.LBE1786:
.LBE1785:
.LBB1788:
.LBB1789:
.LBB1790:
	stw 0,4724(9)
.LVL198:
.LBE1790:
.LBE1789:
.LBE1788:
.LBB1791:
.LBB1792:
.LBB1793:
	stw 0,4672(9)
.LVL199:
.LBE1793:
.LBE1792:
.LBE1791:
.LBB1794:
.LBB1795:
.LBB1796:
	stw 0,4620(9)
.LVL200:
.LBE1796:
.LBE1795:
.LBE1794:
.LBB1797:
.LBB1798:
.LBB1799:
	stw 0,4568(9)
.LVL201:
.LBE1799:
.LBE1798:
.LBE1797:
.LBB1800:
.LBB1801:
.LBB1802:
	stw 0,4516(9)
.LVL202:
.LBE1802:
.LBE1801:
.LBE1800:
.LBB1803:
.LBB1804:
.LBB1805:
	stw 0,4464(9)
.LVL203:
.LBE1805:
.LBE1804:
.LBE1803:
.LBB1806:
.LBB1807:
.LBB1808:
	stw 0,4412(9)
.LVL204:
.LBE1808:
.LBE1807:
.LBE1806:
.LBB1809:
.LBB1810:
.LBB1811:
	stw 0,4360(9)
.LVL205:
.LBE1811:
.LBE1810:
.LBE1809:
.LBB1812:
.LBB1813:
.LBB1814:
	stw 0,4308(9)
.LVL206:
.LBE1814:
.LBE1813:
.LBE1812:
.LBB1815:
.LBB1816:
.LBB1817:
	stw 0,4256(9)
.LVL207:
.LBE1817:
.LBE1816:
.LBE1815:
.LBB1818:
.LBB1819:
.LBB1820:
	stw 0,4204(9)
.LVL208:
.LBE1820:
.LBE1819:
.LBE1818:
.LBB1821:
.LBB1822:
.LBB1823:
	stw 0,4152(9)
.LVL209:
.LBE1823:
.LBE1822:
.LBE1821:
.LBB1824:
.LBB1825:
.LBB1826:
	stw 0,4100(9)
.LVL210:
.LBE1826:
.LBE1825:
.LBE1824:
.LBB1827:
.LBB1828:
.LBB1829:
	stw 0,4048(9)
.LVL211:
.LBE1829:
.LBE1828:
.LBE1827:
.LBB1830:
.LBB1831:
.LBB1832:
	stw 0,3996(9)
.LVL212:
.LBE1832:
.LBE1831:
.LBE1830:
.LBB1833:
.LBB1834:
.LBB1835:
	stw 0,3944(9)
.LVL213:
.LBE1835:
.LBE1834:
.LBE1833:
.LBB1836:
.LBB1837:
.LBB1838:
	stw 0,3892(9)
.LVL214:
.LBE1838:
.LBE1837:
.LBE1836:
.LBB1839:
.LBB1840:
.LBB1841:
	stw 0,3840(9)
.LVL215:
.LBE1841:
.LBE1840:
.LBE1839:
.LBB1842:
.LBB1843:
.LBB1844:
	stw 0,3788(9)
.LVL216:
.LBE1844:
.LBE1843:
.LBE1842:
.LBB1845:
.LBB1846:
.LBB1847:
	stw 0,3736(9)
.LVL217:
.LBE1847:
.LBE1846:
.LBE1845:
.LBB1848:
.LBB1849:
.LBB1850:
	stw 0,3684(9)
.LVL218:
.LBE1850:
.LBE1849:
.LBE1848:
.LBB1851:
.LBB1852:
.LBB1853:
	stw 0,3632(9)
.LVL219:
.LBE1853:
.LBE1852:
.LBE1851:
.LBB1854:
.LBB1855:
.LBB1856:
	stw 0,3580(9)
.LVL220:
.LBE1856:
.LBE1855:
.LBE1854:
.LBB1857:
.LBB1858:
.LBB1859:
	stw 0,3528(9)
.LVL221:
.LBE1859:
.LBE1858:
.LBE1857:
.LBB1860:
.LBB1861:
.LBB1862:
	stw 0,3476(9)
.LVL222:
.LBE1862:
.LBE1861:
.LBE1860:
.LBB1863:
.LBB1864:
.LBB1865:
	stw 0,3424(9)
.LVL223:
.LBE1865:
.LBE1864:
.LBE1863:
.LBB1866:
.LBB1867:
.LBB1868:
	stw 0,3372(9)
.LVL224:
.LBE1868:
.LBE1867:
.LBE1866:
.LBB1869:
.LBB1870:
.LBB1871:
	stw 0,3320(9)
.LVL225:
.LBE1871:
.LBE1870:
.LBE1869:
.LBB1872:
.LBB1873:
.LBB1874:
	stw 0,3268(9)
.LVL226:
.LBE1874:
.LBE1873:
.LBE1872:
.LBB1875:
.LBB1876:
.LBB1877:
	stw 0,3216(9)
.LVL227:
.LBE1877:
.LBE1876:
.LBE1875:
.LBB1878:
.LBB1879:
.LBB1880:
	stw 0,3164(9)
.LVL228:
.LBE1880:
.LBE1879:
.LBE1878:
.LBB1881:
.LBB1882:
.LBB1883:
	stw 0,3112(9)
.LVL229:
.LBE1883:
.LBE1882:
.LBE1881:
.LBB1884:
.LBB1885:
.LBB1886:
	stw 0,3060(9)
.LVL230:
.LBE1886:
.LBE1885:
.LBE1884:
.LBB1887:
.LBB1888:
.LBB1889:
	stw 0,3008(9)
.LVL231:
.LBE1889:
.LBE1888:
.LBE1887:
.LBB1890:
.LBB1891:
.LBB1892:
	stw 0,2956(9)
.LVL232:
.LBE1892:
.LBE1891:
.LBE1890:
.LBB1893:
.LBB1894:
.LBB1895:
	stw 0,2904(9)
.LVL233:
.LBE1895:
.LBE1894:
.LBE1893:
.LBB1896:
.LBB1897:
.LBB1898:
	stw 0,2852(9)
.LVL234:
.LBE1898:
.LBE1897:
.LBE1896:
.LBB1899:
.LBB1900:
.LBB1901:
	stw 0,2800(9)
.LVL235:
.LBE1901:
.LBE1900:
.LBE1899:
.LBB1902:
.LBB1903:
.LBB1904:
	stw 0,2748(9)
.LVL236:
.LBE1904:
.LBE1903:
.LBE1902:
.LBB1905:
.LBB1906:
.LBB1907:
	stw 0,2696(9)
.LVL237:
.LBE1907:
.LBE1906:
.LBE1905:
.LBB1908:
.LBB1909:
.LBB1910:
	stw 0,2644(9)
.LVL238:
.LBE1910:
.LBE1909:
.LBE1908:
.LBB1911:
.LBB1912:
.LBB1913:
	stw 0,2592(9)
.LVL239:
.LBE1913:
.LBE1912:
.LBE1911:
.LBB1914:
.LBB1915:
.LBB1916:
	stw 0,2540(9)
.LVL240:
.LBE1916:
.LBE1915:
.LBE1914:
.LBB1917:
.LBB1918:
.LBB1919:
	stw 0,2488(9)
.LVL241:
.LBE1919:
.LBE1918:
.LBE1917:
.LBB1920:
.LBB1921:
.LBB1922:
	stw 0,2436(9)
.LVL242:
.LBE1922:
.LBE1921:
.LBE1920:
.LBB1923:
.LBB1924:
.LBB1925:
	stw 0,2384(9)
.LVL243:
.LBE1925:
.LBE1924:
.LBE1923:
.LBB1926:
.LBB1927:
.LBB1928:
	stw 0,2332(9)
.LVL244:
.LBE1928:
.LBE1927:
.LBE1926:
.LBB1929:
.LBB1930:
.LBB1931:
	stw 0,2280(9)
.LVL245:
.LBE1931:
.LBE1930:
.LBE1929:
.LBB1932:
.LBB1933:
.LBB1934:
	stw 0,2228(9)
.LVL246:
.LBE1934:
.LBE1933:
.LBE1932:
.LBB1935:
.LBB1936:
.LBB1937:
	stw 0,2176(9)
.LVL247:
.LBE1937:
.LBE1936:
.LBE1935:
.LBB1938:
.LBB1939:
.LBB1940:
	stw 0,2124(9)
.LVL248:
.LBE1940:
.LBE1939:
.LBE1938:
.LBB1941:
.LBB1942:
.LBB1943:
	stw 0,2072(9)
.LVL249:
.LBE1943:
.LBE1942:
.LBE1941:
.LBB1944:
.LBB1945:
.LBB1946:
	stw 0,2020(9)
.LVL250:
.LBE1946:
.LBE1945:
.LBE1944:
.LBB1947:
.LBB1948:
.LBB1949:
	stw 0,1968(9)
.LVL251:
.LBE1949:
.LBE1948:
.LBE1947:
.LBB1950:
.LBB1951:
.LBB1952:
	stw 0,1916(9)
.LVL252:
.LBE1952:
.LBE1951:
.LBE1950:
.LBB1953:
.LBB1954:
.LBB1955:
	stw 0,1864(9)
.LVL253:
.LBE1955:
.LBE1954:
.LBE1953:
.LBB1956:
.LBB1957:
.LBB1958:
	stw 0,1812(9)
.LVL254:
.LBE1958:
.LBE1957:
.LBE1956:
.LBB1959:
.LBB1960:
.LBB1961:
	stw 0,1760(9)
.LVL255:
.LBE1961:
.LBE1960:
.LBE1959:
.LBB1962:
.LBB1963:
.LBB1964:
	stw 0,1708(9)
.LVL256:
.LBE1964:
.LBE1963:
.LBE1962:
.LBB1965:
.LBB1966:
.LBB1967:
	stw 0,1656(9)
.LVL257:
.LBE1967:
.LBE1966:
.LBE1965:
.LBB1968:
.LBB1969:
.LBB1970:
	stw 0,1604(9)
.LVL258:
.LBE1970:
.LBE1969:
.LBE1968:
.LBB1971:
.LBB1972:
.LBB1973:
	stw 0,1552(9)
.LVL259:
.LBE1973:
.LBE1972:
.LBE1971:
.LBB1974:
.LBB1975:
.LBB1976:
	stw 0,1500(9)
.LVL260:
.LBE1976:
.LBE1975:
.LBE1974:
.LBB1977:
.LBB1978:
.LBB1979:
	stw 0,1448(9)
.LVL261:
.LBE1979:
.LBE1978:
.LBE1977:
.LBB1980:
.LBB1981:
.LBB1982:
	stw 0,1396(9)
.LVL262:
.LBE1982:
.LBE1981:
.LBE1980:
.LBB1983:
.LBB1984:
.LBB1985:
	stw 0,1344(9)
.LVL263:
.LBE1985:
.LBE1984:
.LBE1983:
.LBB1986:
.LBB1987:
.LBB1988:
	stw 0,1292(9)
.LVL264:
.LBE1988:
.LBE1987:
.LBE1986:
.LBB1989:
.LBB1990:
.LBB1991:
	stw 0,1240(9)
.LVL265:
.LBE1991:
.LBE1990:
.LBE1989:
.LBB1992:
.LBB1993:
.LBB1994:
	stw 0,1188(9)
.LVL266:
.LBE1994:
.LBE1993:
.LBE1992:
.LBB1995:
.LBB1996:
.LBB1997:
	stw 0,1136(9)
.LVL267:
.LBE1997:
.LBE1996:
.LBE1995:
.LBB1998:
.LBB1999:
.LBB2000:
	stw 0,1084(9)
.LVL268:
.LBE2000:
.LBE1999:
.LBE1998:
.LBB2001:
.LBB2002:
.LBB2003:
	stw 0,1032(9)
.LVL269:
.LBE2003:
.LBE2002:
.LBE2001:
.LBB2004:
.LBB2005:
.LBB2006:
	stw 0,980(9)
.LVL270:
.LBE2006:
.LBE2005:
.LBE2004:
.LBB2007:
.LBB2008:
.LBB2009:
	stw 0,928(9)
.LVL271:
.LBE2009:
.LBE2008:
.LBE2007:
.LBB2010:
.LBB2011:
.LBB2012:
	stw 0,876(9)
.LVL272:
.LBE2012:
.LBE2011:
.LBE2010:
.LBB2013:
.LBB2014:
.LBB2015:
	stw 0,824(9)
.LVL273:
.LBE2015:
.LBE2014:
.LBE2013:
.LBB2016:
.LBB2017:
.LBB2018:
	stw 0,772(9)
.LVL274:
.LBE2018:
.LBE2017:
.LBE2016:
.LBB2019:
.LBB2020:
.LBB2021:
	stw 0,720(9)
.LVL275:
.LBE2021:
.LBE2020:
.LBE2019:
.LBB2022:
.LBB2023:
.LBB2024:
	stw 0,668(9)
.LVL276:
.LBE2024:
.LBE2023:
.LBE2022:
.LBB2025:
.LBB2026:
.LBB2027:
	stw 0,616(9)
.LVL277:
.LBE2027:
.LBE2026:
.LBE2025:
.LBB2028:
.LBB2029:
.LBB2030:
	stw 0,564(9)
.LVL278:
.LBE2030:
.LBE2029:
.LBE2028:
.LBB2031:
.LBB2032:
.LBB2033:
	stw 0,512(9)
.LVL279:
.LBE2033:
.LBE2032:
.LBE2031:
.LBB2034:
.LBB2035:
.LBB2036:
	stw 0,460(9)
.LVL280:
.LBE2036:
.LBE2035:
.LBE2034:
.LBB2037:
.LBB2038:
.LBB2039:
	stw 0,408(9)
.LVL281:
.LBE2039:
.LBE2038:
.LBE2037:
.LBB2040:
.LBB2041:
.LBB2042:
	stw 0,356(9)
.LVL282:
.LBE2042:
.LBE2041:
.LBE2040:
.LBB2043:
.LBB2044:
.LBB2045:
	stw 0,304(9)
.LVL283:
.LBE2045:
.LBE2044:
.LBE2043:
.LBB2046:
.LBB2047:
.LBB2048:
	stw 0,252(9)
.LVL284:
.LBE2048:
.LBE2047:
.LBE2046:
.LBB2049:
.LBB2050:
.LBB2051:
	stw 0,200(9)
.LVL285:
.LBE2051:
.LBE2050:
.LBE2049:
.LBB2052:
.LBB2053:
.LBB2054:
	stw 0,148(9)
.LVL286:
.L89:
.LBE2054:
.LBE2053:
.LBE2052:
	.loc 3 1441 0
	lwz 0,84(1)
	lwz 21,12(1)
	mtlr 0
	lwz 22,16(1)
	lwz 23,20(1)
	lwz 24,24(1)
	lwz 25,28(1)
	lwz 26,32(1)
	lwz 27,36(1)
	lwz 28,40(1)
	lwz 29,44(1)
	lwz 30,48(1)
	lwz 31,52(1)
	lfd 29,56(1)
	lfd 30,64(1)
	lfd 31,72(1)
	addi 1,1,80
	.cfi_remember_state
.LCFI59:
	.cfi_def_cfa_offset 0
	.cfi_restore 63
	.cfi_restore 62
	.cfi_restore 61
	.cfi_restore 31
	.cfi_restore 30
	.cfi_restore 29
	.cfi_restore 28
	.cfi_restore 27
	.cfi_restore 26
	.cfi_restore 25
	.cfi_restore 24
	.cfi_restore 23
	.cfi_restore 22
	.cfi_restore 21
	blr
.LVL287:
.L249:
.LCFI60:
	.cfi_restore_state
	.loc 3 47 0
	lis 31,.LANCHOR0@ha
	lis 30,.LC13@ha
	la 31,.LANCHOR0@l(31)
	la 30,.LC13@l(30)
	lis 4,.LC12@ha
	lis 7,.LC14@ha
	addi 3,31,148
.LVL288:
	la 4,.LC12@l(4)
	mr 5,30
	li 6,17
	la 7,.LC14@l(7)
	li 8,0
	.loc 3 48 0
	lis 24,.LC0@ha
	.loc 3 47 0
	bl _ZN6idCVarC1EPKcS1_iS1_PFvRK9idCmdArgsPFvS1_EE
	.loc 3 48 0
	la 24,.LC0@l(24)
	lis 4,.LC15@ha
	lis 7,.LC16@ha
	addi 3,31,200
	la 4,.LC15@l(4)
	mr 5,24
	li 6,16
	la 7,.LC16@l(7)
	li 8,0
	.loc 3 49 0
	lis 29,.LC18@ha
	la 29,.LC18@l(29)
	.loc 3 48 0
	bl _ZN6idCVarC1EPKcS1_iS1_PFvRK9idCmdArgsPFvS1_EE
	.loc 3 49 0
	lis 4,.LC17@ha
	lis 7,.LC19@ha
	addi 3,31,252
	la 4,.LC17@l(4)
	mr 5,29
	li 6,17
	la 7,.LC19@l(7)
	li 8,0
	bl _ZN6idCVarC1EPKcS1_iS1_PFvRK9idCmdArgsPFvS1_EE
	.loc 3 50 0
	lis 4,.LC20@ha
	lis 6,0x2
	lis 7,.LC21@ha
	addi 3,31,304
	la 4,.LC20@l(4)
	mr 5,30
	ori 6,6,18
	la 7,.LC21@l(7)
	li 8,0
	.loc 3 51 0
	lis 26,.LC23@ha
	.loc 3 50 0
	bl _ZN6idCVarC1EPKcS1_iS1_PFvRK9idCmdArgsPFvS1_EE
	.loc 3 51 0
	la 26,.LC23@l(26)
	lis 4,.LC22@ha
	lis 6,0x2
	lis 7,.LC24@ha
	addi 3,31,356
	la 4,.LC22@l(4)
	mr 5,26
	ori 6,6,18
	la 7,.LC24@l(7)
	li 8,0
	bl _ZN6idCVarC1EPKcS1_iS1_PFvRK9idCmdArgsPFvS1_EE
	.loc 3 52 0
	lis 9,.LC27@ha
	lfs 29,.LC27@l(9)
	lis 9,.LC340@ha
	lfs 31,.LC340@l(9)
	lis 4,.LC25@ha
	fmr 2,29
	lis 7,.LC26@ha
	fmr 1,31
	addi 3,31,408
	la 4,.LC25@l(4)
	mr 5,30
	li 6,16402
	la 7,.LC26@l(7)
	li 8,0
	.loc 3 73 0
	lis 21,.LC10@ha
	.loc 3 52 0
	bl _ZN6idCVarC1EPKcS1_iS1_ffPFvRK9idCmdArgsPFvS1_EE
	.loc 3 53 0
	lis 4,.LC28@ha
	lis 6,0x2
	lis 7,.LC29@ha
	addi 3,31,460
	la 4,.LC28@l(4)
	mr 5,29
	ori 6,6,17
	la 7,.LC29@l(7)
	li 8,0
	bl _ZN6idCVarC1EPKcS1_iS1_PFvRK9idCmdArgsPFvS1_EE
	.loc 3 54 0
	lis 4,.LC30@ha
	lis 5,.LC31@ha
	lis 6,0x2
	lis 7,.LC32@ha
	addi 3,31,512
	la 4,.LC30@l(4)
	la 5,.LC31@l(5)
	ori 6,6,18
	la 7,.LC32@l(7)
	li 8,0
	.loc 3 73 0
	lis 22,_ZN11idCmdSystem21ArgCompletion_IntegerILi0ELi1EEEvRK9idCmdArgsPFvPKcE@ha
	.loc 3 54 0
	bl _ZN6idCVarC1EPKcS1_iS1_PFvRK9idCmdArgsPFvS1_EE
	.loc 3 55 0
	lis 4,.LC33@ha
	lis 5,.LC34@ha
	lis 6,0x2
	lis 7,.LC35@ha
	addi 3,31,564
	la 4,.LC33@l(4)
	la 5,.LC34@l(5)
	ori 6,6,18
	la 7,.LC35@l(7)
	li 8,0
	.loc 3 73 0
	la 22,_ZN11idCmdSystem21ArgCompletion_IntegerILi0ELi1EEEvRK9idCmdArgsPFvPKcE@l(22)
	.loc 3 55 0
	bl _ZN6idCVarC1EPKcS1_iS1_PFvRK9idCmdArgsPFvS1_EE
	.loc 3 56 0
	lis 4,.LC36@ha
	lis 7,.LC37@ha
	addi 3,31,616
	la 4,.LC36@l(4)
	mr 5,30
	li 6,17
	la 7,.LC37@l(7)
	li 8,0
	.loc 3 85 0
	lis 28,.LC86@ha
	.loc 3 56 0
	bl _ZN6idCVarC1EPKcS1_iS1_PFvRK9idCmdArgsPFvS1_EE
	.loc 3 57 0
	lis 4,.LC38@ha
	lis 7,.LC39@ha
	addi 3,31,668
	la 4,.LC38@l(4)
	mr 5,30
	li 6,17
	la 7,.LC39@l(7)
	li 8,0
	.loc 3 85 0
	lis 25,.LC84@ha
	.loc 3 57 0
	bl _ZN6idCVarC1EPKcS1_iS1_PFvRK9idCmdArgsPFvS1_EE
	.loc 3 59 0
	lis 4,.LC40@ha
	lis 7,.LC41@ha
	addi 3,31,720
	la 4,.LC40@l(4)
	mr 5,29
	li 6,18
	la 7,.LC41@l(7)
	li 8,0
	.loc 3 85 0
	la 25,.LC84@l(25)
	.loc 3 59 0
	bl _ZN6idCVarC1EPKcS1_iS1_PFvRK9idCmdArgsPFvS1_EE
	.loc 3 60 0
	lis 4,.LC42@ha
	lis 7,.LC43@ha
	addi 3,31,772
	la 4,.LC42@l(4)
	mr 5,29
	li 6,17
	la 7,.LC43@l(7)
	li 8,0
	.loc 3 86 0
	lis 27,.LC88@ha
	.loc 3 60 0
	bl _ZN6idCVarC1EPKcS1_iS1_PFvRK9idCmdArgsPFvS1_EE
	.loc 3 61 0
	lis 4,.LC44@ha
	lis 7,.LC45@ha
	addi 3,31,824
	la 4,.LC44@l(4)
	mr 5,29
	li 6,17
	la 7,.LC45@l(7)
	li 8,0
.LBB2055:
.LBB2056:
.LBB2057:
.LBB2058:
	.loc 2 281 0
	lis 23,.LC90@ha
.LBE2058:
.LBE2057:
.LBE2056:
.LBE2055:
	.loc 3 61 0
	bl _ZN6idCVarC1EPKcS1_iS1_PFvRK9idCmdArgsPFvS1_EE
	.loc 3 62 0
	lis 4,.LC46@ha
	lis 7,.LC47@ha
	addi 3,31,876
	la 4,.LC46@l(4)
	mr 5,29
	li 6,17
	la 7,.LC47@l(7)
	li 8,0
.LBB2072:
.LBB2069:
.LBB2065:
.LBB2061:
	.loc 2 281 0
	la 23,.LC90@l(23)
.LBE2061:
.LBE2065:
.LBE2069:
.LBE2072:
	.loc 3 62 0
	bl _ZN6idCVarC1EPKcS1_iS1_PFvRK9idCmdArgsPFvS1_EE
	.loc 3 63 0
	lis 4,.LC48@ha
	lis 7,.LC49@ha
	addi 3,31,928
	la 4,.LC48@l(4)
	mr 5,29
	li 6,17
	la 7,.LC49@l(7)
	li 8,0
	bl _ZN6idCVarC1EPKcS1_iS1_PFvRK9idCmdArgsPFvS1_EE
	.loc 3 64 0
	lis 4,.LC50@ha
	lis 7,.LC51@ha
	addi 3,31,980
	la 4,.LC50@l(4)
	mr 5,29
	li 6,17
	la 7,.LC51@l(7)
	li 8,0
	bl _ZN6idCVarC1EPKcS1_iS1_PFvRK9idCmdArgsPFvS1_EE
	.loc 3 65 0
	lis 4,.LC52@ha
	lis 7,.LC53@ha
	addi 3,31,1032
	la 4,.LC52@l(4)
	mr 5,29
	li 6,17
	la 7,.LC53@l(7)
	li 8,0
	bl _ZN6idCVarC1EPKcS1_iS1_PFvRK9idCmdArgsPFvS1_EE
	.loc 3 66 0
	lis 4,.LC54@ha
	lis 7,.LC55@ha
	addi 3,31,1084
	la 4,.LC54@l(4)
	mr 5,29
	li 6,17
	la 7,.LC55@l(7)
	li 8,0
	bl _ZN6idCVarC1EPKcS1_iS1_PFvRK9idCmdArgsPFvS1_EE
	.loc 3 67 0
	lis 4,.LC56@ha
	lis 7,.LC57@ha
	addi 3,31,1136
	la 4,.LC56@l(4)
	mr 5,29
	li 6,17
	la 7,.LC57@l(7)
	li 8,0
	bl _ZN6idCVarC1EPKcS1_iS1_PFvRK9idCmdArgsPFvS1_EE
	.loc 3 68 0
	lis 4,.LC58@ha
	lis 7,.LC59@ha
	addi 3,31,1188
	la 4,.LC58@l(4)
	mr 5,29
	li 6,17
	la 7,.LC59@l(7)
	li 8,0
	bl _ZN6idCVarC1EPKcS1_iS1_PFvRK9idCmdArgsPFvS1_EE
	.loc 3 69 0
	lis 4,.LC60@ha
	lis 7,.LC61@ha
	addi 3,31,1240
	la 4,.LC60@l(4)
	mr 5,29
	li 6,17
	la 7,.LC61@l(7)
	li 8,0
	bl _ZN6idCVarC1EPKcS1_iS1_PFvRK9idCmdArgsPFvS1_EE
	.loc 3 70 0
	lis 4,.LC62@ha
	lis 7,.LC63@ha
	addi 3,31,1292
	la 4,.LC62@l(4)
	mr 5,29
	li 6,17
	la 7,.LC63@l(7)
	li 8,0
	bl _ZN6idCVarC1EPKcS1_iS1_PFvRK9idCmdArgsPFvS1_EE
	.loc 3 71 0
	lis 4,.LC64@ha
	lis 7,.LC65@ha
	addi 3,31,1344
	la 4,.LC64@l(4)
	mr 5,29
	li 6,17
	la 7,.LC65@l(7)
	li 8,0
	bl _ZN6idCVarC1EPKcS1_iS1_PFvRK9idCmdArgsPFvS1_EE
	.loc 3 73 0
	lfs 30,.LC10@l(21)
	fmr 1,31
	lis 4,.LC66@ha
	fmr 2,30
	lis 7,.LC67@ha
	addi 3,31,1396
	la 4,.LC66@l(4)
	mr 5,29
	li 6,18
	la 7,.LC67@l(7)
	mr 8,22
	bl _ZN6idCVarC1EPKcS1_iS1_ffPFvRK9idCmdArgsPFvS1_EE
	.loc 3 74 0
	fmr 1,31
	fmr 2,30
	lis 4,.LC68@ha
	lis 6,0x2
	lis 7,.LC69@ha
	addi 3,31,1448
	la 4,.LC68@l(4)
	mr 5,30
	ori 6,6,18
	la 7,.LC69@l(7)
	mr 8,22
	bl _ZN6idCVarC1EPKcS1_iS1_ffPFvRK9idCmdArgsPFvS1_EE
	.loc 3 76 0
	lis 4,.LC70@ha
	lis 7,.LC71@ha
	addi 3,31,1500
	la 4,.LC70@l(4)
	mr 5,29
	li 6,17
	la 7,.LC71@l(7)
	li 8,0
	bl _ZN6idCVarC1EPKcS1_iS1_PFvRK9idCmdArgsPFvS1_EE
	.loc 3 77 0
	lis 4,.LC72@ha
	lis 7,.LC73@ha
	addi 3,31,1552
	la 4,.LC72@l(4)
	mr 5,29
	li 6,17
	la 7,.LC73@l(7)
	li 8,0
	bl _ZN6idCVarC1EPKcS1_iS1_PFvRK9idCmdArgsPFvS1_EE
	.loc 3 79 0
	fmr 2,29
	lis 9,.LC76@ha
	lis 4,.LC74@ha
	lfs 1,.LC76@l(9)
	lis 7,.LC75@ha
	addi 3,31,1604
	la 4,.LC74@l(4)
	mr 5,26
	li 6,20
	la 7,.LC75@l(7)
	li 8,0
	bl _ZN6idCVarC1EPKcS1_iS1_ffPFvRK9idCmdArgsPFvS1_EE
	.loc 3 81 0
	lis 4,.LC77@ha
	lis 7,.LC78@ha
	addi 3,31,1656
	la 4,.LC77@l(4)
	mr 5,29
	li 6,17
	la 7,.LC78@l(7)
	li 8,0
	bl _ZN6idCVarC1EPKcS1_iS1_PFvRK9idCmdArgsPFvS1_EE
	.loc 3 82 0
	lis 4,.LC79@ha
	lis 7,.LC80@ha
	addi 3,31,1708
	la 4,.LC79@l(4)
	mr 5,30
	li 6,17
	la 7,.LC80@l(7)
	li 8,0
	bl _ZN6idCVarC1EPKcS1_iS1_PFvRK9idCmdArgsPFvS1_EE
	.loc 3 83 0
	lis 4,.LC81@ha
	lis 6,0x2
	lis 7,.LC82@ha
	addi 3,31,1760
	la 4,.LC81@l(4)
	mr 5,30
	ori 6,6,18
	la 7,.LC82@l(7)
	li 8,0
	bl _ZN6idCVarC1EPKcS1_iS1_PFvRK9idCmdArgsPFvS1_EE
	.loc 3 85 0
	lis 9,.LC85@ha
	lfs 29,.LC85@l(9)
	lis 4,.LC83@ha
	lfs 2,.LC86@l(28)
	lis 6,0x2
	fmr 1,29
	addi 3,31,1812
	la 4,.LC83@l(4)
	mr 5,29
	ori 6,6,20
	mr 7,25
	li 8,0
	bl _ZN6idCVarC1EPKcS1_iS1_ffPFvRK9idCmdArgsPFvS1_EE
	.loc 3 86 0
	fmr 1,29
	lfs 2,.LC88@l(27)
	lis 4,.LC87@ha
	lis 6,0x2
	la 4,.LC87@l(4)
	addi 3,31,1864
	mr 5,29
	ori 6,6,20
	mr 7,25
	li 8,0
	bl _ZN6idCVarC1EPKcS1_iS1_ffPFvRK9idCmdArgsPFvS1_EE
.LVL289:
.LBB2073:
.LBB2070:
	.loc 2 195 0
	lis 11,_ZTV6idCVar+8@ha
	la 11,_ZTV6idCVar+8@l(11)
.LBB2066:
.LBB2062:
	.loc 2 292 0
	lis 9,_ZN6idCVar10staticVarsE@ha
.LBE2062:
.LBE2066:
	.loc 2 195 0
	stw 11,1916(31)
.LVL290:
.LBB2067:
.LBB2063:
	.loc 2 280 0
	lis 11,.LC89@ha
	la 11,.LC89@l(11)
	.loc 2 292 0
	lwz 0,_ZN6idCVar10staticVarsE@l(9)
	.loc 2 280 0
	stw 11,1920(31)
	.loc 2 283 0
	lis 11,.LC91@ha
	la 11,.LC91@l(11)
	.loc 2 292 0
	cmpwi 7,0,-1
	.loc 2 283 0
	stw 11,1928(31)
	.loc 2 284 0
	lis 11,0x2
	ori 11,11,4112
	.loc 2 291 0
	addi 4,31,1916
	.loc 2 284 0
	stw 11,1932(31)
	.loc 2 286 0
	lis 11,.LC11@ha
	lwz 11,.LC11@l(11)
	.loc 2 281 0
	stw 23,1924(31)
	.loc 2 286 0
	stw 11,1940(31)
	.loc 2 287 0
	lis 11,.LANCHOR1@ha
	la 11,.LANCHOR1@l(11)
	.loc 2 285 0
	stfs 30,1936(31)
	.loc 2 287 0
	stw 11,1944(31)
	.loc 2 288 0
	lis 11,_ZN11idCmdSystem20ArgCompletion_StringIXadL_Z14r_rendererArgsEEEEvRK9idCmdArgsPFvPKcE@ha
	la 11,_ZN11idCmdSystem20ArgCompletion_StringIXadL_Z14r_rendererArgsEEEEvRK9idCmdArgsPFvPKcE@l(11)
	.loc 2 290 0
	stfs 31,1956(31)
	.loc 2 288 0
	stw 11,1948(31)
	.loc 2 289 0
	li 11,0
	stw 11,1952(31)
	.loc 2 291 0
	stw 4,1960(31)
	.loc 2 292 0
	beq- 7,.L91
	.loc 2 293 0
	stw 0,1964(31)
	.loc 2 294 0
	stw 4,_ZN6idCVar10staticVarsE@l(9)
.L92:
.LBE2063:
.LBE2067:
.LBE2070:
.LBE2073:
	.loc 3 90 0
	lis 4,.LC92@ha
	lis 7,.LC93@ha
	addi 3,31,1968
	mr 5,30
	la 4,.LC92@l(4)
	la 7,.LC93@l(7)
	li 6,17
	li 8,0
	bl _ZN6idCVarC1EPKcS1_iS1_PFvRK9idCmdArgsPFvS1_EE
	.loc 3 92 0
	lis 4,.LC94@ha
	lis 7,.LC95@ha
	addi 3,31,2020
	mr 5,30
	la 4,.LC94@l(4)
	la 7,.LC95@l(7)
	li 6,17
	li 8,0
	.loc 3 115 0
	lis 25,.LC139@ha
	.loc 3 92 0
	bl _ZN6idCVarC1EPKcS1_iS1_PFvRK9idCmdArgsPFvS1_EE
	.loc 3 93 0
	lis 4,.LC96@ha
	lis 7,.LC97@ha
	addi 3,31,2072
	mr 5,30
	la 4,.LC96@l(4)
	la 7,.LC97@l(7)
	li 6,17
	li 8,0
	.loc 3 115 0
	la 25,.LC139@l(25)
	.loc 3 93 0
	bl _ZN6idCVarC1EPKcS1_iS1_PFvRK9idCmdArgsPFvS1_EE
	.loc 3 94 0
	lis 4,.LC98@ha
	lis 7,.LC99@ha
	addi 3,31,2124
	mr 5,30
	la 4,.LC98@l(4)
	la 7,.LC99@l(7)
	li 6,17
	li 8,0
	bl _ZN6idCVarC1EPKcS1_iS1_PFvRK9idCmdArgsPFvS1_EE
	.loc 3 95 0
	lis 4,.LC100@ha
	lis 7,.LC101@ha
	addi 3,31,2176
	mr 5,30
	la 4,.LC100@l(4)
	la 7,.LC101@l(7)
	li 6,17
	li 8,0
	bl _ZN6idCVarC1EPKcS1_iS1_PFvRK9idCmdArgsPFvS1_EE
	.loc 3 96 0
	lis 4,.LC102@ha
	lis 7,.LC103@ha
	addi 3,31,2228
	mr 5,30
	la 4,.LC102@l(4)
	la 7,.LC103@l(7)
	li 6,17
	li 8,0
	bl _ZN6idCVarC1EPKcS1_iS1_PFvRK9idCmdArgsPFvS1_EE
	.loc 3 97 0
	lis 4,.LC104@ha
	lis 7,.LC105@ha
	addi 3,31,2280
	mr 5,30
	la 4,.LC104@l(4)
	la 7,.LC105@l(7)
	li 6,17
	li 8,0
	bl _ZN6idCVarC1EPKcS1_iS1_PFvRK9idCmdArgsPFvS1_EE
	.loc 3 98 0
	lis 4,.LC106@ha
	lis 7,.LC107@ha
	addi 3,31,2332
	mr 5,30
	la 4,.LC106@l(4)
	la 7,.LC107@l(7)
	li 6,17
	li 8,0
	bl _ZN6idCVarC1EPKcS1_iS1_PFvRK9idCmdArgsPFvS1_EE
	.loc 3 99 0
	lis 4,.LC108@ha
	lis 7,.LC109@ha
	addi 3,31,2384
	mr 5,30
	la 4,.LC108@l(4)
	la 7,.LC109@l(7)
	li 6,17
	li 8,0
	bl _ZN6idCVarC1EPKcS1_iS1_PFvRK9idCmdArgsPFvS1_EE
	.loc 3 100 0
	lis 4,.LC110@ha
	lis 7,.LC111@ha
	addi 3,31,2436
	mr 5,30
	la 4,.LC110@l(4)
	la 7,.LC111@l(7)
	li 6,17
	li 8,0
	bl _ZN6idCVarC1EPKcS1_iS1_PFvRK9idCmdArgsPFvS1_EE
	.loc 3 101 0
	lis 4,.LC112@ha
	lis 7,.LC113@ha
	addi 3,31,2488
	mr 5,30
	la 4,.LC112@l(4)
	la 7,.LC113@l(7)
	li 6,17
	li 8,0
	bl _ZN6idCVarC1EPKcS1_iS1_PFvRK9idCmdArgsPFvS1_EE
	.loc 3 102 0
	lis 4,.LC114@ha
	lis 7,.LC115@ha
	addi 3,31,2540
	mr 5,30
	la 4,.LC114@l(4)
	la 7,.LC115@l(7)
	li 6,17
	li 8,0
	bl _ZN6idCVarC1EPKcS1_iS1_PFvRK9idCmdArgsPFvS1_EE
	.loc 3 103 0
	lis 4,.LC116@ha
	lis 6,0x2
	lis 7,.LC117@ha
	addi 3,31,2592
	mr 5,30
	la 4,.LC116@l(4)
	ori 6,6,17
	la 7,.LC117@l(7)
	li 8,0
	bl _ZN6idCVarC1EPKcS1_iS1_PFvRK9idCmdArgsPFvS1_EE
	.loc 3 104 0
	lis 4,.LC118@ha
	lis 7,.LC119@ha
	addi 3,31,2644
	mr 5,30
	la 4,.LC118@l(4)
	la 7,.LC119@l(7)
	li 6,17
	li 8,0
	bl _ZN6idCVarC1EPKcS1_iS1_PFvRK9idCmdArgsPFvS1_EE
	.loc 3 105 0
	lis 4,.LC120@ha
	lis 7,.LC121@ha
	addi 3,31,2696
	mr 5,30
	la 4,.LC120@l(4)
	la 7,.LC121@l(7)
	li 6,17
	li 8,0
	bl _ZN6idCVarC1EPKcS1_iS1_PFvRK9idCmdArgsPFvS1_EE
	.loc 3 106 0
	lis 4,.LC122@ha
	lis 7,.LC123@ha
	addi 3,31,2748
	mr 5,30
	la 4,.LC122@l(4)
	la 7,.LC123@l(7)
	li 6,17
	li 8,0
	bl _ZN6idCVarC1EPKcS1_iS1_PFvRK9idCmdArgsPFvS1_EE
	.loc 3 107 0
	lis 4,.LC124@ha
	lis 7,.LC125@ha
	addi 3,31,2800
	mr 5,30
	la 4,.LC124@l(4)
	la 7,.LC125@l(7)
	li 6,17
	li 8,0
	bl _ZN6idCVarC1EPKcS1_iS1_PFvRK9idCmdArgsPFvS1_EE
	.loc 3 108 0
	lis 4,.LC126@ha
	lis 7,.LC127@ha
	addi 3,31,2852
	mr 5,30
	la 4,.LC126@l(4)
	la 7,.LC127@l(7)
	li 6,17
	li 8,0
	bl _ZN6idCVarC1EPKcS1_iS1_PFvRK9idCmdArgsPFvS1_EE
	.loc 3 109 0
	lis 4,.LC128@ha
	lis 7,.LC129@ha
	addi 3,31,2904
	mr 5,30
	la 4,.LC128@l(4)
	la 7,.LC129@l(7)
	li 6,17
	li 8,0
	bl _ZN6idCVarC1EPKcS1_iS1_PFvRK9idCmdArgsPFvS1_EE
	.loc 3 110 0
	lis 4,.LC130@ha
	lis 6,0x2
	lis 7,.LC131@ha
	addi 3,31,2956
	mr 5,30
	la 4,.LC130@l(4)
	ori 6,6,8209
	la 7,.LC131@l(7)
	li 8,0
	bl _ZN6idCVarC1EPKcS1_iS1_PFvRK9idCmdArgsPFvS1_EE
	.loc 3 111 0
	lis 4,.LC132@ha
	lis 6,0x2
	lis 7,.LC133@ha
	addi 3,31,3008
	mr 5,30
	la 4,.LC132@l(4)
	ori 6,6,17
	la 7,.LC133@l(7)
	li 8,0
	bl _ZN6idCVarC1EPKcS1_iS1_PFvRK9idCmdArgsPFvS1_EE
	.loc 3 112 0
	lis 4,.LC134@ha
	lis 7,.LC135@ha
	addi 3,31,3060
	mr 5,30
	la 4,.LC134@l(4)
	la 7,.LC135@l(7)
	li 6,17
	li 8,0
	bl _ZN6idCVarC1EPKcS1_iS1_PFvRK9idCmdArgsPFvS1_EE
	.loc 3 113 0
	lis 4,.LC136@ha
	lis 7,.LC137@ha
	addi 3,31,3112
	mr 5,30
	la 4,.LC136@l(4)
	la 7,.LC137@l(7)
	li 6,17
	li 8,0
	bl _ZN6idCVarC1EPKcS1_iS1_PFvRK9idCmdArgsPFvS1_EE
	.loc 3 115 0
	lis 4,.LC138@ha
	addi 3,31,3164
	mr 5,30
	mr 7,25
	la 4,.LC138@l(4)
	li 6,16
	li 8,0
	bl _ZN6idCVarC1EPKcS1_iS1_PFvRK9idCmdArgsPFvS1_EE
	.loc 3 116 0
	lis 4,.LC140@ha
	addi 3,31,3216
	mr 5,30
	mr 7,25
	la 4,.LC140@l(4)
	li 6,16
	li 8,0
	bl _ZN6idCVarC1EPKcS1_iS1_PFvRK9idCmdArgsPFvS1_EE
	.loc 3 117 0
	lis 4,.LC141@ha
	lis 7,.LC142@ha
	addi 3,31,3268
	mr 5,30
	la 4,.LC141@l(4)
	la 7,.LC142@l(7)
	li 6,17
	li 8,0
	.loc 3 118 0
	lis 25,.LC144@ha
	.loc 3 117 0
	bl _ZN6idCVarC1EPKcS1_iS1_PFvRK9idCmdArgsPFvS1_EE
	.loc 3 118 0
	lfs 30,.LC88@l(27)
	lis 9,.LC340@ha
	lis 27,_ZN11idCmdSystem21ArgCompletion_IntegerILi0ELi2EEEvRK9idCmdArgsPFvPKcE@ha
	fmr 2,30
	la 27,_ZN11idCmdSystem21ArgCompletion_IntegerILi0ELi2EEEvRK9idCmdArgsPFvPKcE@l(27)
	la 25,.LC144@l(25)
	lfs 1,.LC340@l(9)
	lis 4,.LC143@ha
	lis 7,.LC145@ha
	addi 3,31,3320
	mr 5,25
	mr 8,27
	la 4,.LC143@l(4)
	la 7,.LC145@l(7)
	li 6,18
	bl _ZN6idCVarC1EPKcS1_iS1_ffPFvRK9idCmdArgsPFvS1_EE
	.loc 3 119 0
	lfs 31,.LC86@l(28)
	lis 9,.LC340@ha
	lis 28,_ZN11idCmdSystem21ArgCompletion_IntegerILi0ELi3EEEvRK9idCmdArgsPFvPKcE@ha
	fmr 2,31
	la 28,_ZN11idCmdSystem21ArgCompletion_IntegerILi0ELi3EEEvRK9idCmdArgsPFvPKcE@l(28)
	lfs 1,.LC340@l(9)
	lis 4,.LC146@ha
	lis 7,.LC147@ha
	addi 3,31,3372
	mr 5,26
	mr 8,28
	la 4,.LC146@l(4)
	la 7,.LC147@l(7)
	li 6,18
	.loc 3 130 0
	lis 26,.LC170@ha
	.loc 3 119 0
	bl _ZN6idCVarC1EPKcS1_iS1_ffPFvRK9idCmdArgsPFvS1_EE
	.loc 3 120 0
	lis 4,.LC148@ha
	lis 7,.LC149@ha
	addi 3,31,3424
	mr 5,29
	la 4,.LC148@l(4)
	la 7,.LC149@l(7)
	li 6,17
	li 8,0
	.loc 3 130 0
	la 26,.LC170@l(26)
	.loc 3 120 0
	bl _ZN6idCVarC1EPKcS1_iS1_PFvRK9idCmdArgsPFvS1_EE
	.loc 3 121 0
	fmr 2,30
	lis 9,.LC340@ha
	lis 4,.LC150@ha
	lfs 1,.LC340@l(9)
	lis 7,.LC151@ha
	addi 3,31,3476
	mr 5,29
	mr 8,27
	la 4,.LC150@l(4)
	la 7,.LC151@l(7)
	li 6,18
	bl _ZN6idCVarC1EPKcS1_iS1_ffPFvRK9idCmdArgsPFvS1_EE
	.loc 3 122 0
	lis 4,.LC152@ha
	lis 7,.LC153@ha
	addi 3,31,3528
	mr 5,29
	la 4,.LC152@l(4)
	la 7,.LC153@l(7)
	li 6,17
	li 8,0
	bl _ZN6idCVarC1EPKcS1_iS1_PFvRK9idCmdArgsPFvS1_EE
	.loc 3 123 0
	lis 4,.LC154@ha
	lis 7,.LC155@ha
	addi 3,31,3580
	mr 5,30
	la 4,.LC154@l(4)
	la 7,.LC155@l(7)
	li 6,17
	li 8,0
	bl _ZN6idCVarC1EPKcS1_iS1_PFvRK9idCmdArgsPFvS1_EE
	.loc 3 124 0
	lis 4,.LC156@ha
	lis 7,.LC157@ha
	addi 3,31,3632
	mr 5,29
	la 4,.LC156@l(4)
	la 7,.LC157@l(7)
	li 6,17
	li 8,0
	bl _ZN6idCVarC1EPKcS1_iS1_PFvRK9idCmdArgsPFvS1_EE
	.loc 3 125 0
	fmr 2,30
	lis 9,.LC160@ha
	lis 4,.LC158@ha
	lfs 1,.LC160@l(9)
	lis 7,.LC159@ha
	lis 8,_ZN11idCmdSystem21ArgCompletion_IntegerILin2ELi2EEEvRK9idCmdArgsPFvPKcE@ha
	addi 3,31,3684
	mr 5,25
	la 4,.LC158@l(4)
	la 7,.LC159@l(7)
	la 8,_ZN11idCmdSystem21ArgCompletion_IntegerILin2ELi2EEEvRK9idCmdArgsPFvPKcE@l(8)
	li 6,18
	bl _ZN6idCVarC1EPKcS1_iS1_ffPFvRK9idCmdArgsPFvS1_EE
	.loc 3 126 0
	lis 4,.LC161@ha
	lis 7,.LC162@ha
	addi 3,31,3736
	mr 5,29
	la 4,.LC161@l(4)
	la 7,.LC162@l(7)
	li 6,17
	li 8,0
	bl _ZN6idCVarC1EPKcS1_iS1_PFvRK9idCmdArgsPFvS1_EE
	.loc 3 127 0
	lis 4,.LC163@ha
	lis 7,.LC164@ha
	addi 3,31,3788
	mr 5,30
	la 4,.LC163@l(4)
	la 7,.LC164@l(7)
	li 6,20
	li 8,0
	bl _ZN6idCVarC1EPKcS1_iS1_PFvRK9idCmdArgsPFvS1_EE
	.loc 3 128 0
	lis 4,.LC165@ha
	lis 7,.LC166@ha
	addi 3,31,3840
	mr 5,30
	la 4,.LC165@l(4)
	la 7,.LC166@l(7)
	li 6,18
	li 8,0
	bl _ZN6idCVarC1EPKcS1_iS1_PFvRK9idCmdArgsPFvS1_EE
	.loc 3 129 0
	lis 4,.LC167@ha
	lis 7,.LC168@ha
	addi 3,31,3892
	mr 5,25
	la 4,.LC167@l(4)
	la 7,.LC168@l(7)
	li 6,16
	li 8,0
	bl _ZN6idCVarC1EPKcS1_iS1_PFvRK9idCmdArgsPFvS1_EE
	.loc 3 130 0
	lis 4,.LC169@ha
	addi 3,31,3944
	mr 5,30
	mr 7,26
	la 4,.LC169@l(4)
	li 6,20
	li 8,0
	bl _ZN6idCVarC1EPKcS1_iS1_PFvRK9idCmdArgsPFvS1_EE
	.loc 3 131 0
	lis 4,.LC171@ha
	lis 5,.LC172@ha
	addi 3,31,3996
	mr 7,26
	la 4,.LC171@l(4)
	la 5,.LC172@l(5)
	li 6,20
	li 8,0
	.loc 3 132 0
	lis 26,.LC174@ha
	.loc 3 131 0
	bl _ZN6idCVarC1EPKcS1_iS1_PFvRK9idCmdArgsPFvS1_EE
	.loc 3 132 0
	la 26,.LC174@l(26)
	lis 4,.LC173@ha
	lis 7,.LC175@ha
	addi 3,31,4048
	mr 5,26
	la 4,.LC173@l(4)
	la 7,.LC175@l(7)
	li 6,20
	li 8,0
	bl _ZN6idCVarC1EPKcS1_iS1_PFvRK9idCmdArgsPFvS1_EE
	.loc 3 133 0
	lis 4,.LC176@ha
	lis 7,.LC177@ha
	addi 3,31,4100
	mr 5,30
	la 4,.LC176@l(4)
	la 7,.LC177@l(7)
	li 6,20
	li 8,0
	bl _ZN6idCVarC1EPKcS1_iS1_PFvRK9idCmdArgsPFvS1_EE
	.loc 3 134 0
	lis 4,.LC178@ha
	lis 7,.LC179@ha
	addi 3,31,4152
	mr 5,30
	la 4,.LC178@l(4)
	la 7,.LC179@l(7)
	li 6,17
	li 8,0
	bl _ZN6idCVarC1EPKcS1_iS1_PFvRK9idCmdArgsPFvS1_EE
	.loc 3 135 0
	lis 4,.LC180@ha
	lis 7,.LC181@ha
	addi 3,31,4204
	mr 5,30
	la 4,.LC180@l(4)
	la 7,.LC181@l(7)
	li 6,18
	li 8,0
	bl _ZN6idCVarC1EPKcS1_iS1_PFvRK9idCmdArgsPFvS1_EE
	.loc 3 136 0
	fmr 2,31
	lis 9,.LC340@ha
	lis 4,.LC182@ha
	lfs 1,.LC340@l(9)
	lis 7,.LC183@ha
	addi 3,31,4256
	mr 5,30
	mr 8,28
	la 4,.LC182@l(4)
	la 7,.LC183@l(7)
	li 6,18
	bl _ZN6idCVarC1EPKcS1_iS1_ffPFvRK9idCmdArgsPFvS1_EE
	.loc 3 137 0
	lis 9,.LC340@ha
	lfs 2,.LC10@l(21)
	lis 4,.LC184@ha
	lfs 1,.LC340@l(9)
	lis 7,.LC185@ha
	addi 3,31,4308
	mr 5,30
	mr 8,22
	la 4,.LC184@l(4)
	la 7,.LC185@l(7)
	li 6,18
	bl _ZN6idCVarC1EPKcS1_iS1_ffPFvRK9idCmdArgsPFvS1_EE
	.loc 3 138 0
	lis 4,.LC186@ha
	lis 7,.LC187@ha
	addi 3,31,4360
	mr 5,30
	la 4,.LC186@l(4)
	la 7,.LC187@l(7)
	li 6,17
	li 8,0
	.loc 3 141 0
	lis 22,.LC193@ha
	.loc 3 138 0
	bl _ZN6idCVarC1EPKcS1_iS1_PFvRK9idCmdArgsPFvS1_EE
	.loc 3 139 0
	lis 4,.LC188@ha
	lis 6,0x2
	lis 7,.LC189@ha
	addi 3,31,4412
	mr 5,29
	la 4,.LC188@l(4)
	ori 6,6,17
	la 7,.LC189@l(7)
	li 8,0
	bl _ZN6idCVarC1EPKcS1_iS1_PFvRK9idCmdArgsPFvS1_EE
	.loc 3 140 0
	lis 4,.LC190@ha
	lis 7,.LC191@ha
	addi 3,31,4464
	mr 5,30
	la 4,.LC190@l(4)
	la 7,.LC191@l(7)
	li 6,17
	li 8,0
	.loc 3 141 0
	la 22,.LC193@l(22)
	.loc 3 140 0
	bl _ZN6idCVarC1EPKcS1_iS1_PFvRK9idCmdArgsPFvS1_EE
	.loc 3 141 0
	lis 9,.LC194@ha
	lfs 2,.LC194@l(9)
	lis 9,.LC340@ha
	lfs 1,.LC340@l(9)
	lis 4,.LC192@ha
	addi 3,31,4516
	mr 5,30
	mr 7,22
	la 4,.LC192@l(4)
	li 6,20
	li 8,0
	bl _ZN6idCVarC1EPKcS1_iS1_ffPFvRK9idCmdArgsPFvS1_EE
	.loc 3 142 0
	lis 4,.LC195@ha
	addi 3,31,4568
	mr 5,30
	mr 7,22
	la 4,.LC195@l(4)
	li 6,20
	li 8,0
	bl _ZN6idCVarC1EPKcS1_iS1_PFvRK9idCmdArgsPFvS1_EE
	.loc 3 143 0
	lis 4,.LC196@ha
	addi 3,31,4620
	mr 5,30
	mr 7,22
	la 4,.LC196@l(4)
	li 6,20
	li 8,0
	bl _ZN6idCVarC1EPKcS1_iS1_PFvRK9idCmdArgsPFvS1_EE
	.loc 3 144 0
	lis 4,.LC197@ha
	lis 7,.LC198@ha
	addi 3,31,4672
	mr 5,25
	la 4,.LC197@l(4)
	la 7,.LC198@l(7)
	li 6,20
	li 8,0
	bl _ZN6idCVarC1EPKcS1_iS1_PFvRK9idCmdArgsPFvS1_EE
	.loc 3 145 0
	lis 4,.LC199@ha
	lis 7,.LC200@ha
	addi 3,31,4724
	mr 5,30
	la 4,.LC199@l(4)
	la 7,.LC200@l(7)
	li 6,20
	li 8,0
	bl _ZN6idCVarC1EPKcS1_iS1_PFvRK9idCmdArgsPFvS1_EE
	.loc 3 146 0
	lis 4,.LC201@ha
	lis 7,.LC202@ha
	addi 3,31,4776
	mr 5,29
	la 4,.LC201@l(4)
	la 7,.LC202@l(7)
	li 6,20
	li 8,0
	bl _ZN6idCVarC1EPKcS1_iS1_PFvRK9idCmdArgsPFvS1_EE
	.loc 3 148 0
	fmr 2,30
	lis 9,.LC340@ha
	lis 4,.LC203@ha
	lfs 1,.LC340@l(9)
	lis 7,.LC204@ha
	addi 3,31,4828
	mr 5,29
	mr 8,27
	la 4,.LC203@l(4)
	la 7,.LC204@l(7)
	li 6,18
	bl _ZN6idCVarC1EPKcS1_iS1_ffPFvRK9idCmdArgsPFvS1_EE
	.loc 3 149 0
	lis 4,.LC205@ha
	lis 7,.LC206@ha
	addi 3,31,4880
	mr 5,29
	la 4,.LC205@l(4)
	la 7,.LC206@l(7)
	li 6,17
	li 8,0
	bl _ZN6idCVarC1EPKcS1_iS1_PFvRK9idCmdArgsPFvS1_EE
	.loc 3 150 0
	lis 4,.LC207@ha
	lis 7,.LC208@ha
	addi 3,31,4932
	mr 5,29
	la 4,.LC207@l(4)
	la 7,.LC208@l(7)
	li 6,17
	li 8,0
	bl _ZN6idCVarC1EPKcS1_iS1_PFvRK9idCmdArgsPFvS1_EE
	.loc 3 151 0
	lis 4,.LC209@ha
	lis 7,.LC210@ha
	addi 3,31,4984
	mr 5,29
	la 4,.LC209@l(4)
	la 7,.LC210@l(7)
	li 6,16401
	li 8,0
	bl _ZN6idCVarC1EPKcS1_iS1_PFvRK9idCmdArgsPFvS1_EE
	.loc 3 152 0
	lis 4,.LC211@ha
	lis 7,.LC212@ha
	addi 3,31,5036
	mr 5,29
	la 4,.LC211@l(4)
	la 7,.LC212@l(7)
	li 6,17
	li 8,0
	bl _ZN6idCVarC1EPKcS1_iS1_PFvRK9idCmdArgsPFvS1_EE
	.loc 3 154 0
	lis 4,.LC213@ha
	lis 5,.LC214@ha
	lis 7,.LC215@ha
	addi 3,31,5088
	la 4,.LC213@l(4)
	la 5,.LC214@l(5)
	la 7,.LC215@l(7)
	li 6,18
	li 8,0
	bl _ZN6idCVarC1EPKcS1_iS1_PFvRK9idCmdArgsPFvS1_EE
	.loc 3 155 0
	lis 4,.LC216@ha
	lis 7,.LC217@ha
	addi 3,31,5140
	mr 5,30
	la 4,.LC216@l(4)
	la 7,.LC217@l(7)
	li 6,17
	li 8,0
	bl _ZN6idCVarC1EPKcS1_iS1_PFvRK9idCmdArgsPFvS1_EE
	.loc 3 156 0
	lis 4,.LC218@ha
	lis 7,.LC219@ha
	addi 3,31,5192
	mr 5,29
	la 4,.LC218@l(4)
	la 7,.LC219@l(7)
	li 6,17
	li 8,0
	bl _ZN6idCVarC1EPKcS1_iS1_PFvRK9idCmdArgsPFvS1_EE
	.loc 3 157 0
	lis 4,.LC220@ha
	lis 7,.LC221@ha
	addi 3,31,5244
	mr 5,26
	la 4,.LC220@l(4)
	la 7,.LC221@l(7)
	li 6,18
	li 8,0
	bl _ZN6idCVarC1EPKcS1_iS1_PFvRK9idCmdArgsPFvS1_EE
	.loc 3 158 0
	lis 4,.LC222@ha
	lis 7,.LC223@ha
	addi 3,31,5296
	mr 5,26
	la 4,.LC222@l(4)
	la 7,.LC223@l(7)
	li 6,18
	li 8,0
	bl _ZN6idCVarC1EPKcS1_iS1_PFvRK9idCmdArgsPFvS1_EE
	.loc 3 159 0
	lis 4,.LC224@ha
	lis 7,.LC225@ha
	addi 3,31,5348
	mr 5,26
	la 4,.LC224@l(4)
	la 7,.LC225@l(7)
	li 6,18
	li 8,0
	bl _ZN6idCVarC1EPKcS1_iS1_PFvRK9idCmdArgsPFvS1_EE
	.loc 3 160 0
	lis 4,.LC226@ha
	lis 7,.LC227@ha
	addi 3,31,5400
	mr 5,30
	la 4,.LC226@l(4)
	la 7,.LC227@l(7)
	li 6,17
	li 8,0
	bl _ZN6idCVarC1EPKcS1_iS1_PFvRK9idCmdArgsPFvS1_EE
	.loc 3 161 0
	lis 4,.LC228@ha
	lis 6,0x2
	lis 7,.LC229@ha
	addi 3,31,96
	mr 5,30
	la 4,.LC228@l(4)
	ori 6,6,17
	la 7,.LC229@l(7)
	li 8,0
	bl _ZN6idCVarC1EPKcS1_iS1_PFvRK9idCmdArgsPFvS1_EE
	.loc 3 162 0
	lis 4,.LC230@ha
	lis 7,.LC231@ha
	addi 3,31,5452
	mr 5,29
	la 4,.LC230@l(4)
	la 7,.LC231@l(7)
	li 6,17
	li 8,0
	bl _ZN6idCVarC1EPKcS1_iS1_PFvRK9idCmdArgsPFvS1_EE
	.loc 3 163 0
	lis 4,.LC232@ha
	lis 7,.LC233@ha
	addi 3,31,5504
	mr 5,30
	la 4,.LC232@l(4)
	la 7,.LC233@l(7)
	li 6,17
	li 8,0
	bl _ZN6idCVarC1EPKcS1_iS1_PFvRK9idCmdArgsPFvS1_EE
	.loc 3 166 0
	lis 4,.LC234@ha
	lis 7,.LC235@ha
	addi 3,31,5556
	mr 5,30
	la 4,.LC234@l(4)
	la 7,.LC235@l(7)
	li 6,17
	li 8,0
	bl _ZN6idCVarC1EPKcS1_iS1_PFvRK9idCmdArgsPFvS1_EE
	.loc 3 167 0
	lis 4,.LC236@ha
	lis 7,.LC237@ha
	addi 3,31,5608
	mr 5,30
	la 4,.LC236@l(4)
	la 7,.LC237@l(7)
	li 6,17
	li 8,0
	bl _ZN6idCVarC1EPKcS1_iS1_PFvRK9idCmdArgsPFvS1_EE
	.loc 3 168 0
	lis 4,.LC238@ha
	lis 7,.LC239@ha
	addi 3,31,5660
	mr 5,30
	la 4,.LC238@l(4)
	la 7,.LC239@l(7)
	li 6,17
	li 8,0
	bl _ZN6idCVarC1EPKcS1_iS1_PFvRK9idCmdArgsPFvS1_EE
	.loc 3 169 0
	lis 4,.LC240@ha
	lis 7,.LC241@ha
	addi 3,31,5712
	mr 5,30
	la 4,.LC240@l(4)
	la 7,.LC241@l(7)
	li 6,17
	li 8,0
	bl _ZN6idCVarC1EPKcS1_iS1_PFvRK9idCmdArgsPFvS1_EE
	.loc 3 170 0
	lis 4,.LC242@ha
	lis 7,.LC243@ha
	addi 3,31,5764
	mr 5,30
	la 4,.LC242@l(4)
	la 7,.LC243@l(7)
	li 6,17
	li 8,0
	bl _ZN6idCVarC1EPKcS1_iS1_PFvRK9idCmdArgsPFvS1_EE
	.loc 3 171 0
	lis 4,.LC244@ha
	lis 7,.LC245@ha
	addi 3,31,5816
	mr 5,30
	la 4,.LC244@l(4)
	la 7,.LC245@l(7)
	li 6,17
	li 8,0
	bl _ZN6idCVarC1EPKcS1_iS1_PFvRK9idCmdArgsPFvS1_EE
	.loc 3 172 0
	lis 4,.LC246@ha
	lis 7,.LC247@ha
	addi 3,31,5868
	mr 5,30
	la 4,.LC246@l(4)
	la 7,.LC247@l(7)
	li 6,17
	li 8,0
	bl _ZN6idCVarC1EPKcS1_iS1_PFvRK9idCmdArgsPFvS1_EE
	.loc 3 173 0
	lis 4,.LC248@ha
	lis 7,.LC249@ha
	addi 3,31,5920
	mr 5,30
	la 4,.LC248@l(4)
	la 7,.LC249@l(7)
	li 6,17
	li 8,0
	bl _ZN6idCVarC1EPKcS1_iS1_PFvRK9idCmdArgsPFvS1_EE
	.loc 3 174 0
	lis 4,.LC250@ha
	lis 7,.LC251@ha
	addi 3,31,5972
	mr 5,30
	la 4,.LC250@l(4)
	la 7,.LC251@l(7)
	li 6,17
	li 8,0
	bl _ZN6idCVarC1EPKcS1_iS1_PFvRK9idCmdArgsPFvS1_EE
	.loc 3 175 0
	lis 4,.LC252@ha
	lis 7,.LC253@ha
	addi 3,31,6024
	mr 5,30
	mr 8,27
	la 4,.LC252@l(4)
	la 7,.LC253@l(7)
	li 6,18
	bl _ZN6idCVarC1EPKcS1_iS1_PFvRK9idCmdArgsPFvS1_EE
	.loc 3 176 0
	lis 4,.LC254@ha
	lis 7,.LC255@ha
	addi 3,31,6076
	mr 5,30
	la 4,.LC254@l(4)
	la 7,.LC255@l(7)
	li 6,17
	li 8,0
	bl _ZN6idCVarC1EPKcS1_iS1_PFvRK9idCmdArgsPFvS1_EE
	.loc 3 177 0
	fmr 2,30
	lis 9,.LC340@ha
	lis 4,.LC256@ha
	lfs 1,.LC340@l(9)
	lis 7,.LC257@ha
	addi 3,31,6128
	mr 5,30
	mr 8,27
	la 4,.LC256@l(4)
	la 7,.LC257@l(7)
	li 6,18
	bl _ZN6idCVarC1EPKcS1_iS1_ffPFvRK9idCmdArgsPFvS1_EE
	.loc 3 178 0
	lis 4,.LC258@ha
	lis 7,.LC259@ha
	addi 3,31,6180
	mr 5,30
	la 4,.LC258@l(4)
	la 7,.LC259@l(7)
	li 6,17
	li 8,0
	bl _ZN6idCVarC1EPKcS1_iS1_PFvRK9idCmdArgsPFvS1_EE
	.loc 3 179 0
	fmr 2,31
	lis 9,.LC340@ha
	lis 4,.LC260@ha
	lfs 1,.LC340@l(9)
	lis 7,.LC261@ha
	addi 3,31,6232
	mr 5,30
	mr 8,28
	la 4,.LC260@l(4)
	la 7,.LC261@l(7)
	li 6,18
	bl _ZN6idCVarC1EPKcS1_iS1_ffPFvRK9idCmdArgsPFvS1_EE
	.loc 3 180 0
	fmr 2,31
	lis 9,.LC340@ha
	lis 4,.LC262@ha
	lfs 1,.LC340@l(9)
	lis 7,.LC263@ha
	addi 3,31,6284
	mr 5,30
	mr 8,28
	la 4,.LC262@l(4)
	la 7,.LC263@l(7)
	li 6,18
	bl _ZN6idCVarC1EPKcS1_iS1_ffPFvRK9idCmdArgsPFvS1_EE
	.loc 3 181 0
	lis 9,.LC266@ha
	lfs 2,.LC266@l(9)
	lis 9,.LC340@ha
	lfs 1,.LC340@l(9)
	lis 4,.LC264@ha
	lis 7,.LC265@ha
	lis 8,_ZN11idCmdSystem21ArgCompletion_IntegerILi0ELi4EEEvRK9idCmdArgsPFvPKcE@ha
	addi 3,31,6336
	mr 5,30
	la 4,.LC264@l(4)
	la 7,.LC265@l(7)
	la 8,_ZN11idCmdSystem21ArgCompletion_IntegerILi0ELi4EEEvRK9idCmdArgsPFvPKcE@l(8)
	li 6,18
	bl _ZN6idCVarC1EPKcS1_iS1_ffPFvRK9idCmdArgsPFvS1_EE
	.loc 3 182 0
	lis 4,.LC267@ha
	lis 7,.LC268@ha
	addi 3,31,6388
	mr 5,30
	la 4,.LC267@l(4)
	la 7,.LC268@l(7)
	li 6,17
	li 8,0
	bl _ZN6idCVarC1EPKcS1_iS1_PFvRK9idCmdArgsPFvS1_EE
	.loc 3 183 0
	lis 4,.LC269@ha
	lis 7,.LC270@ha
	addi 3,31,6440
	mr 5,30
	la 4,.LC269@l(4)
	la 7,.LC270@l(7)
	li 6,17
	li 8,0
	bl _ZN6idCVarC1EPKcS1_iS1_PFvRK9idCmdArgsPFvS1_EE
	.loc 3 184 0
	fmr 2,31
	lis 9,.LC340@ha
	lis 4,.LC271@ha
	lfs 1,.LC340@l(9)
	lis 7,.LC272@ha
	addi 3,31,6492
	mr 5,30
	mr 8,28
	la 4,.LC271@l(4)
	la 7,.LC272@l(7)
	li 6,18
	bl _ZN6idCVarC1EPKcS1_iS1_ffPFvRK9idCmdArgsPFvS1_EE
	.loc 3 185 0
	fmr 2,30
	lis 9,.LC340@ha
	lis 4,.LC273@ha
	lfs 1,.LC340@l(9)
	lis 7,.LC274@ha
	addi 3,31,6544
	mr 5,30
	mr 8,27
	la 4,.LC273@l(4)
	la 7,.LC274@l(7)
	li 6,18
	bl _ZN6idCVarC1EPKcS1_iS1_ffPFvRK9idCmdArgsPFvS1_EE
	.loc 3 186 0
	fmr 2,31
	lis 9,.LC340@ha
	lis 4,.LC275@ha
	lfs 1,.LC340@l(9)
	lis 7,.LC276@ha
	addi 3,31,6596
	mr 5,30
	mr 8,28
	la 4,.LC275@l(4)
	la 7,.LC276@l(7)
	li 6,18
	bl _ZN6idCVarC1EPKcS1_iS1_ffPFvRK9idCmdArgsPFvS1_EE
	.loc 3 187 0
	lis 4,.LC277@ha
	lis 7,.LC278@ha
	addi 3,31,6648
	mr 5,30
	la 4,.LC277@l(4)
	la 7,.LC278@l(7)
	li 6,18
	li 8,0
	bl _ZN6idCVarC1EPKcS1_iS1_PFvRK9idCmdArgsPFvS1_EE
	.loc 3 188 0
	fmr 2,31
	lis 9,.LC340@ha
	lis 4,.LC279@ha
	lfs 1,.LC340@l(9)
	lis 7,.LC280@ha
	addi 3,31,6700
	mr 5,30
	mr 8,28
	la 4,.LC279@l(4)
	la 7,.LC280@l(7)
	li 6,18
	bl _ZN6idCVarC1EPKcS1_iS1_ffPFvRK9idCmdArgsPFvS1_EE
	.loc 3 189 0
	lis 4,.LC281@ha
	lis 7,.LC282@ha
	addi 3,31,6752
	mr 5,30
	la 4,.LC281@l(4)
	la 7,.LC282@l(7)
	li 6,17
	li 8,0
	bl _ZN6idCVarC1EPKcS1_iS1_PFvRK9idCmdArgsPFvS1_EE
	.loc 3 190 0
	lis 4,.LC283@ha
	lis 7,.LC284@ha
	addi 3,31,6804
	mr 5,30
	la 4,.LC283@l(4)
	la 7,.LC284@l(7)
	li 6,20
	li 8,0
	bl _ZN6idCVarC1EPKcS1_iS1_PFvRK9idCmdArgsPFvS1_EE
	.loc 3 191 0
	lis 4,.LC285@ha
	lis 7,.LC286@ha
	addi 3,31,6856
	mr 5,30
	la 4,.LC285@l(4)
	la 7,.LC286@l(7)
	li 6,17
	li 8,0
	bl _ZN6idCVarC1EPKcS1_iS1_PFvRK9idCmdArgsPFvS1_EE
	.loc 3 192 0
	lis 4,.LC287@ha
	lis 7,.LC288@ha
	addi 3,31,6908
	mr 5,30
	la 4,.LC287@l(4)
	la 7,.LC288@l(7)
	li 6,17
	li 8,0
	bl _ZN6idCVarC1EPKcS1_iS1_PFvRK9idCmdArgsPFvS1_EE
	.loc 3 193 0
	lis 4,.LC289@ha
	lis 7,.LC290@ha
	addi 3,31,6960
	mr 5,30
	la 4,.LC289@l(4)
	la 7,.LC290@l(7)
	li 6,17
	li 8,0
	bl _ZN6idCVarC1EPKcS1_iS1_PFvRK9idCmdArgsPFvS1_EE
	.loc 3 194 0
	lis 4,.LC291@ha
	lis 7,.LC292@ha
	addi 3,31,7012
	mr 5,30
	la 4,.LC291@l(4)
	la 7,.LC292@l(7)
	li 6,17
	li 8,0
	bl _ZN6idCVarC1EPKcS1_iS1_PFvRK9idCmdArgsPFvS1_EE
	.loc 3 195 0
	lis 4,.LC293@ha
	lis 7,.LC294@ha
	addi 3,31,7064
	mr 5,30
	la 4,.LC293@l(4)
	la 7,.LC294@l(7)
	li 6,17
	li 8,0
	bl _ZN6idCVarC1EPKcS1_iS1_PFvRK9idCmdArgsPFvS1_EE
	.loc 3 196 0
	lis 4,.LC295@ha
	lis 7,.LC296@ha
	addi 3,31,7116
	mr 5,30
	la 4,.LC295@l(4)
	la 7,.LC296@l(7)
	li 6,18
	li 8,0
	bl _ZN6idCVarC1EPKcS1_iS1_PFvRK9idCmdArgsPFvS1_EE
	.loc 3 197 0
	lis 4,.LC297@ha
	lis 7,.LC298@ha
	addi 3,31,7168
	mr 5,30
	la 4,.LC297@l(4)
	la 7,.LC298@l(7)
	li 6,17
	li 8,0
	bl _ZN6idCVarC1EPKcS1_iS1_PFvRK9idCmdArgsPFvS1_EE
	.loc 3 198 0
	lis 4,.LC299@ha
	lis 7,.LC300@ha
	addi 3,31,7220
	mr 5,30
	la 4,.LC299@l(4)
	la 7,.LC300@l(7)
	li 6,17
	li 8,0
	bl _ZN6idCVarC1EPKcS1_iS1_PFvRK9idCmdArgsPFvS1_EE
	.loc 3 199 0
	fmr 2,31
	lis 9,.LC340@ha
	lis 4,.LC301@ha
	lfs 1,.LC340@l(9)
	lis 7,.LC302@ha
	addi 3,31,7272
	mr 5,30
	mr 8,28
	la 4,.LC301@l(4)
	la 7,.LC302@l(7)
	li 6,18
	bl _ZN6idCVarC1EPKcS1_iS1_ffPFvRK9idCmdArgsPFvS1_EE
	.loc 3 200 0
	lis 4,.LC303@ha
	lis 7,.LC304@ha
	addi 3,31,7324
	mr 5,30
	la 4,.LC303@l(4)
	la 7,.LC304@l(7)
	li 6,17
	li 8,0
	bl _ZN6idCVarC1EPKcS1_iS1_PFvRK9idCmdArgsPFvS1_EE
	.loc 3 201 0
	lis 4,.LC305@ha
	lis 7,.LC306@ha
	addi 3,31,7376
	mr 5,30
	la 4,.LC305@l(4)
	la 7,.LC306@l(7)
	li 6,17
	li 8,0
	bl _ZN6idCVarC1EPKcS1_iS1_PFvRK9idCmdArgsPFvS1_EE
	.loc 3 202 0
	lis 4,.LC307@ha
	lis 7,.LC308@ha
	addi 3,31,7428
	mr 5,30
	la 4,.LC307@l(4)
	la 7,.LC308@l(7)
	li 6,20
	li 8,0
	bl _ZN6idCVarC1EPKcS1_iS1_PFvRK9idCmdArgsPFvS1_EE
	.loc 3 203 0
	fmr 2,31
	lis 9,.LC340@ha
	lis 4,.LC309@ha
	lfs 1,.LC340@l(9)
	lis 7,.LC310@ha
	addi 3,31,7480
	mr 5,30
	mr 8,28
	la 4,.LC309@l(4)
	la 7,.LC310@l(7)
	li 6,18
	bl _ZN6idCVarC1EPKcS1_iS1_ffPFvRK9idCmdArgsPFvS1_EE
	.loc 3 205 0
	lis 4,.LC311@ha
	lis 7,.LC312@ha
	addi 3,31,7532
	mr 5,30
	la 4,.LC311@l(4)
	la 7,.LC312@l(7)
	li 6,17
	li 8,0
	bl _ZN6idCVarC1EPKcS1_iS1_PFvRK9idCmdArgsPFvS1_EE
	.loc 3 206 0
	lis 4,.LC313@ha
	lis 7,.LC314@ha
	addi 3,31,7584
	mr 5,29
	la 4,.LC313@l(4)
	la 7,.LC314@l(7)
	li 6,17
	li 8,0
	bl _ZN6idCVarC1EPKcS1_iS1_PFvRK9idCmdArgsPFvS1_EE
	.loc 3 208 0
	fmr 2,30
	lis 9,.LC340@ha
	lis 4,.LC315@ha
	lfs 1,.LC340@l(9)
	lis 7,.LC316@ha
	addi 3,31,7636
	mr 5,30
	mr 8,27
	la 4,.LC315@l(4)
	la 7,.LC316@l(7)
	li 6,18
	bl _ZN6idCVarC1EPKcS1_iS1_ffPFvRK9idCmdArgsPFvS1_EE
	.loc 3 209 0
	lis 4,.LC317@ha
	lis 5,.LC318@ha
	lis 7,.LC319@ha
	addi 3,31,7688
	la 4,.LC317@l(4)
	la 5,.LC318@l(5)
	la 7,.LC319@l(7)
	li 6,20
	li 8,0
	bl _ZN6idCVarC1EPKcS1_iS1_PFvRK9idCmdArgsPFvS1_EE
	.loc 3 210 0
	lis 4,.LC320@ha
	lis 5,.LC321@ha
	lis 7,.LC322@ha
	addi 3,31,7740
	la 4,.LC320@l(4)
	la 5,.LC321@l(5)
	la 7,.LC322@l(7)
	li 6,20
	li 8,0
	bl _ZN6idCVarC1EPKcS1_iS1_PFvRK9idCmdArgsPFvS1_EE
	.loc 3 212 0
	lis 4,.LC323@ha
	lis 6,0x2
	lis 7,.LC324@ha
	addi 3,31,7792
	mr 5,23
	la 4,.LC323@l(4)
	ori 6,6,16
	la 7,.LC324@l(7)
	li 8,0
	bl _ZN6idCVarC1EPKcS1_iS1_PFvRK9idCmdArgsPFvS1_EE
	.loc 3 213 0
	lis 4,.LC325@ha
	lis 6,0x2
	lis 7,.LC326@ha
	addi 3,31,7844
	mr 5,23
	la 4,.LC325@l(4)
	ori 6,6,16
	la 7,.LC326@l(7)
	li 8,0
	bl _ZN6idCVarC1EPKcS1_iS1_PFvRK9idCmdArgsPFvS1_EE
	.loc 3 215 0
	lis 4,.LC327@ha
	lis 6,0x2
	lis 7,.LC328@ha
	addi 3,31,7896
	mr 5,30
	la 4,.LC327@l(4)
	ori 6,6,17
	la 7,.LC328@l(7)
	li 8,0
	bl _ZN6idCVarC1EPKcS1_iS1_PFvRK9idCmdArgsPFvS1_EE
	.loc 3 216 0
	lis 4,.LC329@ha
	lis 6,0x2
	lis 7,.LC330@ha
	addi 3,31,7948
	mr 5,29
	la 4,.LC329@l(4)
	ori 6,6,17
	la 7,.LC330@l(7)
	li 8,0
	bl _ZN6idCVarC1EPKcS1_iS1_PFvRK9idCmdArgsPFvS1_EE
	.loc 3 217 0
	lis 9,.LC334@ha
	lfs 2,.LC334@l(9)
	lis 9,.LC340@ha
	lfs 1,.LC340@l(9)
	lis 4,.LC331@ha
	lis 5,.LC332@ha
	lis 6,0x2
	lis 7,.LC333@ha
	addi 3,31,8000
	la 4,.LC331@l(4)
	la 5,.LC332@l(5)
	ori 6,6,18
	la 7,.LC333@l(7)
	li 8,0
	bl _ZN6idCVarC1EPKcS1_iS1_ffPFvRK9idCmdArgsPFvS1_EE
	.loc 3 218 0
	lis 4,.LC335@ha
	lis 7,.LC336@ha
	addi 3,31,8052
	mr 5,29
	la 4,.LC335@l(4)
	la 7,.LC336@l(7)
	li 6,17
	li 8,0
	bl _ZN6idCVarC1EPKcS1_iS1_PFvRK9idCmdArgsPFvS1_EE
	.loc 3 220 0
	lis 4,.LC337@ha
	lis 7,.LC338@ha
	lis 8,_ZN11idCmdSystem18ArgCompletion_DeclILi1EEEvRK9idCmdArgsPFvPKcE@ha
	addi 3,31,8104
	mr 5,24
	la 4,.LC337@l(4)
	la 7,.LC338@l(7)
	la 8,_ZN11idCmdSystem18ArgCompletion_DeclILi1EEEvRK9idCmdArgsPFvPKcE@l(8)
	li 6,16
	bl _ZN6idCVarC1EPKcS1_iS1_PFvRK9idCmdArgsPFvS1_EE
	.loc 3 222 0
	lis 4,.LC339@ha
	addi 3,31,8156
	la 4,.LC339@l(4)
	mr 5,30
	li 6,18
	mr 7,24
	li 8,0
	bl _ZN6idCVarC1EPKcS1_iS1_PFvRK9idCmdArgsPFvS1_EE
	b .L89
.L91:
.LVL291:
.LBB2074:
.LBB2071:
.LBB2068:
.LBB2064:
.LBB2059:
.LBB2060:
	.loc 2 296 0
	lis 9,cvarSystem@ha
	lwz 3,cvarSystem@l(9)
	lwz 9,0(3)
	lwz 0,20(9)
	mtctr 0
	bctrl
	b .L92
.LBE2060:
.LBE2059:
.LBE2064:
.LBE2068:
.LBE2071:
.LBE2074:
	.cfi_endproc
.LFE2880:
	.size	_Z41__static_initialization_and_destruction_0ii.constprop.22, .-_Z41__static_initialization_and_destruction_0ii.constprop.22
	.align 2
	.globl _Z16R_CheckExtensionPc
	.type	_Z16R_CheckExtensionPc, @function
_Z16R_CheckExtensionPc:
.LFB2566:
	.loc 3 318 0
	.cfi_startproc
.LVL292:
	mflr 0
	stwu 1,-8(1)
.LCFI61:
	.cfi_def_cfa_offset 8
	.cfi_register 65, 0
.LBB2075:
	.loc 3 321 0
	lis 3,.LC341@ha
.LVL293:
	la 3,.LC341@l(3)
.LBE2075:
	.loc 3 318 0
	stw 0,12(1)
.LBB2076:
	.loc 3 321 0
	.cfi_offset 65, 4
	crxor 6,6,6
	bl _Z10Sys_PrintfPKcz
.LBE2076:
	.loc 3 323 0
	lwz 0,12(1)
	li 3,0
	addi 1,1,8
.LCFI62:
	.cfi_def_cfa_offset 0
	mtlr 0
	blr
	.cfi_endproc
.LFE2566:
	.size	_Z16R_CheckExtensionPc, .-_Z16R_CheckExtensionPc
	.align 2
	.globl _Z13R_GetModeInfoPiS_i
	.type	_Z13R_GetModeInfoPiS_i, @function
_Z13R_GetModeInfoPiS_i:
.LFB2568:
	.loc 3 587 0
	.cfi_startproc
.LVL294:
.LBB2077:
	.loc 3 590 0
	cmpwi 7,5,-1
.LBE2077:
	.loc 3 587 0
	mr 9,3
.LBB2084:
	.loc 3 591 0
	li 3,0
.LVL295:
	.loc 3 590 0
	bltlr- 7
	.loc 3 593 0
	cmpwi 6,5,8
	bgtlr- 6
	.loc 3 597 0
	beq- 7,.L258
	.loc 3 605 0
	cmpwi 7,9,0
	.loc 3 603 0
	lis 11,.LANCHOR1@ha
	mulli 5,5,12
.LVL296:
	la 11,.LANCHOR1@l(11)
	addi 0,11,36
	add 5,0,5
.LVL297:
	.loc 3 605 0
	beq- 7,.L254
	.loc 3 606 0
	lwz 0,4(5)
	stw 0,0(9)
.L254:
	.loc 3 608 0
	cmpwi 7,4,0
	.loc 3 612 0
	li 3,1
	.loc 3 608 0
	beqlr- 7
	.loc 3 609 0
	lwz 0,8(5)
	stw 0,0(4)
.LBE2084:
	.loc 3 613 0
	blr
.LVL298:
.L258:
.LBB2085:
.LBB2078:
.LBB2079:
	.loc 3 598 0
	lis 11,.LANCHOR0@ha
.LBE2079:
.LBE2078:
	.loc 3 600 0
	li 3,1
.LBB2081:
.LBB2080:
	.loc 3 598 0
	la 11,.LANCHOR0@l(11)
	.loc 2 143 0
	lwz 10,556(11)
	lwz 0,36(10)
.LBE2080:
.LBE2081:
	.loc 3 598 0
	stw 0,0(9)
.LBB2082:
.LBB2083:
	.loc 2 143 0
	lwz 9,608(11)
.LVL299:
	lwz 0,36(9)
.LBE2083:
.LBE2082:
	.loc 3 599 0
	stw 0,0(4)
	.loc 3 600 0
	blr
.LBE2085:
	.cfi_endproc
.LFE2568:
	.size	_Z13R_GetModeInfoPiS_i, .-_Z13R_GetModeInfoPiS_i
	.align 2
	.globl _Z14GL_CheckErrorsv
	.type	_Z14GL_CheckErrorsv, @function
_Z14GL_CheckErrorsv:
.LFB2570:
	.loc 3 772 0
	.cfi_startproc
	.loc 3 774 0
	blr
	.cfi_endproc
.LFE2570:
	.size	_Z14GL_CheckErrorsv, .-_Z14GL_CheckErrorsv
	.align 2
	.globl _Z13R_TestImage_fRK9idCmdArgs
	.type	_Z13R_TestImage_fRK9idCmdArgs, @function
_Z13R_TestImage_fRK9idCmdArgs:
.LFB2573:
	.loc 3 812 0
	.cfi_startproc
.LVL300:
	mflr 0
	stwu 1,-8(1)
.LCFI63:
	.cfi_def_cfa_offset 8
	.cfi_register 65, 0
	.loc 3 813 0
	lis 3,.LC342@ha
.LVL301:
	la 3,.LC342@l(3)
	.loc 3 812 0
	stw 0,12(1)
	.loc 3 813 0
	.cfi_offset 65, 4
	crxor 6,6,6
	bl _Z10Sys_PrintfPKcz
	.loc 3 814 0
	lwz 0,12(1)
	addi 1,1,8
.LCFI64:
	.cfi_def_cfa_offset 0
	mtlr 0
	blr
	.cfi_endproc
.LFE2573:
	.size	_Z13R_TestImage_fRK9idCmdArgs, .-_Z13R_TestImage_fRK9idCmdArgs
	.align 2
	.globl _Z13R_TestVideo_fRK9idCmdArgs
	.type	_Z13R_TestVideo_fRK9idCmdArgs, @function
_Z13R_TestVideo_fRK9idCmdArgs:
.LFB2574:
	.loc 3 824 0
	.cfi_startproc
.LVL302:
	mflr 0
	stwu 1,-8(1)
.LCFI65:
	.cfi_def_cfa_offset 8
	.cfi_register 65, 0
	.loc 3 825 0
	lis 3,.LC343@ha
.LVL303:
	la 3,.LC343@l(3)
	.loc 3 824 0
	stw 0,12(1)
	.loc 3 825 0
	.cfi_offset 65, 4
	crxor 6,6,6
	bl _Z10Sys_PrintfPKcz
	.loc 3 826 0
	lwz 0,12(1)
	addi 1,1,8
.LCFI66:
	.cfi_def_cfa_offset 0
	mtlr 0
	blr
	.cfi_endproc
.LFE2574:
	.size	_Z13R_TestVideo_fRK9idCmdArgs, .-_Z13R_TestVideo_fRK9idCmdArgs
	.align 2
	.globl _Z22R_ReportSurfaceAreas_fRK9idCmdArgs
	.type	_Z22R_ReportSurfaceAreas_fRK9idCmdArgs, @function
_Z22R_ReportSurfaceAreas_fRK9idCmdArgs:
.LFB2576:
	.loc 3 845 0
	.cfi_startproc
.LVL304:
	mflr 0
	stwu 1,-8(1)
.LCFI67:
	.cfi_def_cfa_offset 8
	.cfi_register 65, 0
	.loc 3 846 0
	lis 3,.LC344@ha
.LVL305:
	la 3,.LC344@l(3)
	.loc 3 845 0
	stw 0,12(1)
	.loc 3 846 0
	.cfi_offset 65, 4
	crxor 6,6,6
	bl _Z10Sys_PrintfPKcz
	.loc 3 847 0
	lwz 0,12(1)
	addi 1,1,8
.LCFI68:
	.cfi_def_cfa_offset 0
	mtlr 0
	blr
	.cfi_endproc
.LFE2576:
	.size	_Z22R_ReportSurfaceAreas_fRK9idCmdArgs, .-_Z22R_ReportSurfaceAreas_fRK9idCmdArgs
	.align 2
	.globl _Z26R_ReportImageDuplication_fRK9idCmdArgs
	.type	_Z26R_ReportImageDuplication_fRK9idCmdArgs, @function
_Z26R_ReportImageDuplication_fRK9idCmdArgs:
.LFB2577:
	.loc 3 857 0
	.cfi_startproc
.LVL306:
	mflr 0
	stwu 1,-8(1)
.LCFI69:
	.cfi_def_cfa_offset 8
	.cfi_register 65, 0
	.loc 3 858 0
	lis 3,.LC345@ha
.LVL307:
	la 3,.LC345@l(3)
	.loc 3 857 0
	stw 0,12(1)
	.loc 3 858 0
	.cfi_offset 65, 4
	crxor 6,6,6
	bl _Z10Sys_PrintfPKcz
	.loc 3 859 0
	lwz 0,12(1)
	addi 1,1,8
.LCFI70:
	.cfi_def_cfa_offset 0
	mtlr 0
	blr
	.cfi_endproc
.LFE2577:
	.size	_Z26R_ReportImageDuplication_fRK9idCmdArgs, .-_Z26R_ReportImageDuplication_fRK9idCmdArgs
	.align 2
	.globl _Z17R_ReadTiledPixelsiiPhP12renderView_s
	.type	_Z17R_ReadTiledPixelsiiPhP12renderView_s, @function
_Z17R_ReadTiledPixelsiiPhP12renderView_s:
.LFB2580:
	.loc 3 912 0
	.cfi_startproc
.LVL308:
	mflr 0
	stwu 1,-8(1)
.LCFI71:
	.cfi_def_cfa_offset 8
	.cfi_register 65, 0
	.loc 3 913 0
	lis 3,.LC346@ha
.LVL309:
	la 3,.LC346@l(3)
	.loc 3 912 0
	stw 0,12(1)
	.loc 3 913 0
	.cfi_offset 65, 4
	crxor 6,6,6
	bl _Z10Sys_PrintfPKcz
.LVL310:
	.loc 3 914 0
	lwz 0,12(1)
	addi 1,1,8
.LCFI72:
	.cfi_def_cfa_offset 0
	mtlr 0
	blr
	.cfi_endproc
.LFE2580:
	.size	_Z17R_ReadTiledPixelsiiPhP12renderView_s, .-_Z17R_ReadTiledPixelsiiPhP12renderView_s
	.align 2
	.globl _Z20R_ScreenshotFilenameRiPKcR5idStr
	.type	_Z20R_ScreenshotFilenameRiPKcR5idStr, @function
_Z20R_ScreenshotFilenameRiPKcR5idStr:
.LFB2582:
	.loc 3 944 0
	.cfi_startproc
.LVL311:
	mflr 0
	stwu 1,-8(1)
.LCFI73:
	.cfi_def_cfa_offset 8
	.cfi_register 65, 0
	.loc 3 945 0
	lis 3,.LC347@ha
.LVL312:
	la 3,.LC347@l(3)
	.loc 3 944 0
	stw 0,12(1)
	.loc 3 945 0
	.cfi_offset 65, 4
	crxor 6,6,6
	bl _Z10Sys_PrintfPKcz
.LVL313:
	.loc 3 946 0
	lwz 0,12(1)
	addi 1,1,8
.LCFI74:
	.cfi_def_cfa_offset 0
	mtlr 0
	blr
	.cfi_endproc
.LFE2582:
	.size	_Z20R_ScreenshotFilenameRiPKcR5idStr, .-_Z20R_ScreenshotFilenameRiPKcR5idStr
	.align 2
	.globl _Z13R_StencilShotv
	.type	_Z13R_StencilShotv, @function
_Z13R_StencilShotv:
.LFB2584:
	.loc 3 971 0
	.cfi_startproc
	mflr 0
	stwu 1,-8(1)
.LCFI75:
	.cfi_def_cfa_offset 8
	.cfi_register 65, 0
	.loc 3 972 0
	lis 3,.LC348@ha
	la 3,.LC348@l(3)
	.loc 3 971 0
	stw 0,12(1)
	.loc 3 972 0
	.cfi_offset 65, 4
	crxor 6,6,6
	bl _Z10Sys_PrintfPKcz
	.loc 3 973 0
	lwz 0,12(1)
	addi 1,1,8
.LCFI76:
	.cfi_def_cfa_offset 0
	mtlr 0
	blr
	.cfi_endproc
.LFE2584:
	.size	_Z13R_StencilShotv, .-_Z13R_StencilShotv
	.align 2
	.globl _Z11R_EnvShot_fRK9idCmdArgs
	.type	_Z11R_EnvShot_fRK9idCmdArgs, @function
_Z11R_EnvShot_fRK9idCmdArgs:
.LFB2585:
	.loc 3 985 0
	.cfi_startproc
.LVL314:
	mflr 0
	stwu 1,-8(1)
.LCFI77:
	.cfi_def_cfa_offset 8
	.cfi_register 65, 0
	.loc 3 986 0
	lis 3,.LC349@ha
.LVL315:
	la 3,.LC349@l(3)
	.loc 3 985 0
	stw 0,12(1)
	.loc 3 986 0
	.cfi_offset 65, 4
	crxor 6,6,6
	bl _Z10Sys_PrintfPKcz
	.loc 3 987 0
	lwz 0,12(1)
	addi 1,1,8
.LCFI78:
	.cfi_def_cfa_offset 0
	mtlr 0
	blr
	.cfi_endproc
.LFE2585:
	.size	_Z11R_EnvShot_fRK9idCmdArgs, .-_Z11R_EnvShot_fRK9idCmdArgs
	.align 2
	.globl _Z15R_SampleCubeMapRK6idVec3iPPhS2_
	.type	_Z15R_SampleCubeMapRK6idVec3iPPhS2_, @function
_Z15R_SampleCubeMapRK6idVec3iPPhS2_:
.LFB2586:
	.loc 3 1000 0
	.cfi_startproc
.LVL316:
	mflr 0
	stwu 1,-8(1)
.LCFI79:
	.cfi_def_cfa_offset 8
	.cfi_register 65, 0
	.loc 3 1001 0
	lis 3,.LC350@ha
.LVL317:
	la 3,.LC350@l(3)
	.loc 3 1000 0
	stw 0,12(1)
	.loc 3 1001 0
	.cfi_offset 65, 4
	crxor 6,6,6
	bl _Z10Sys_PrintfPKcz
.LVL318:
	.loc 3 1002 0
	lwz 0,12(1)
	addi 1,1,8
.LCFI80:
	.cfi_def_cfa_offset 0
	mtlr 0
	blr
	.cfi_endproc
.LFE2586:
	.size	_Z15R_SampleCubeMapRK6idVec3iPPhS2_, .-_Z15R_SampleCubeMapRK6idVec3iPPhS2_
	.align 2
	.globl _Z18R_MakeAmbientMap_fRK9idCmdArgs
	.type	_Z18R_MakeAmbientMap_fRK9idCmdArgs, @function
_Z18R_MakeAmbientMap_fRK9idCmdArgs:
.LFB2587:
	.loc 3 1014 0
	.cfi_startproc
.LVL319:
	mflr 0
	stwu 1,-8(1)
.LCFI81:
	.cfi_def_cfa_offset 8
	.cfi_register 65, 0
	.loc 3 1015 0
	lis 3,.LC351@ha
.LVL320:
	la 3,.LC351@l(3)
	.loc 3 1014 0
	stw 0,12(1)
	.loc 3 1015 0
	.cfi_offset 65, 4
	crxor 6,6,6
	bl _Z10Sys_PrintfPKcz
	.loc 3 1016 0
	lwz 0,12(1)
	addi 1,1,8
.LCFI82:
	.cfi_def_cfa_offset 0
	mtlr 0
	blr
	.cfi_endproc
.LFE2587:
	.size	_Z18R_MakeAmbientMap_fRK9idCmdArgs, .-_Z18R_MakeAmbientMap_fRK9idCmdArgs
	.align 2
	.globl _Z18R_SetColorMappingsv
	.type	_Z18R_SetColorMappingsv, @function
_Z18R_SetColorMappingsv:
.LFB2588:
	.loc 3 1027 0
	.cfi_startproc
	mflr 0
	stwu 1,-96(1)
.LCFI83:
	.cfi_def_cfa_offset 96
	.cfi_register 65, 0
.LBB2086:
.LBB2087:
.LBB2088:
	.loc 3 1032 0
	lis 9,.LANCHOR0@ha
.LBE2088:
.LBE2087:
.LBE2086:
	.loc 3 1027 0
	stfd 29,72(1)
.LBB2105:
.LBB2092:
.LBB2089:
	.loc 3 1032 0
	la 9,.LANCHOR0@l(9)
.LBE2089:
.LBE2092:
.LBE2105:
	.loc 3 1027 0
	stfd 31,88(1)
	stw 24,32(1)
.LBB2106:
	.loc 3 1044 0
	lis 24,.LC354@ha
	.cfi_offset 24, -64
	.cfi_offset 63, -8
	.cfi_offset 61, -24
.LBE2106:
	.loc 3 1027 0
	stw 25,36(1)
.LBB2107:
	.loc 3 1044 0
	lis 25,.LC356@ha
	.cfi_offset 25, -60
.LBE2107:
	.loc 3 1027 0
	stw 26,40(1)
.LBB2108:
	.loc 3 1044 0
	lis 26,.LC85@ha
	.cfi_offset 26, -56
.LBE2108:
	.loc 3 1027 0
	stw 27,44(1)
	lis 27,.LC353@ha
	.cfi_offset 27, -52
	stw 28,48(1)
	la 27,.LC353@l(27)
	stw 29,52(1)
.LBB2109:
	.loc 3 1049 0
	li 28,0
	.cfi_offset 29, -44
	.cfi_offset 28, -48
.LBE2109:
	.loc 3 1027 0
	stw 30,56(1)
.LBB2110:
.LBB2093:
.LBB2094:
	.loc 2 144 0
	lis 30,tr+686@ha
	.cfi_offset 30, -40
.LBE2094:
.LBE2093:
.LBE2110:
	.loc 3 1027 0
	stw 31,60(1)
.LBB2111:
.LBB2099:
.LBB2095:
	.loc 2 144 0
	la 30,tr+686@l(30)
.LBE2095:
.LBE2099:
.LBE2111:
	.loc 3 1027 0
	stw 0,100(1)
.LBB2112:
.LBB2100:
.LBB2096:
	.loc 3 1035 0
	li 31,0
	.cfi_offset 65, 4
	.cfi_offset 31, -36
.LBE2096:
.LBE2100:
.LBE2112:
	.loc 3 1027 0
	stfd 28,64(1)
.LBB2113:
	.loc 3 1036 0
	lis 29,0x4330
.LBE2113:
	.loc 3 1027 0
	stfd 30,80(1)
.LBB2114:
	.loc 3 1049 0
	ori 28,28,65535
	.loc 3 1036 0
	lfs 29,0(27)
.LBB2101:
.LBB2090:
	.loc 2 144 0
	lwz 11,1908(9)
.LBE2090:
.LBE2101:
.LBB2102:
.LBB2097:
	lwz 9,1856(9)
.LBE2097:
.LBE2102:
.LBB2103:
.LBB2091:
	lfs 28,40(11)
	.cfi_offset 62, -16
	.cfi_offset 60, -32
.LBE2091:
.LBE2103:
.LBB2104:
.LBB2098:
	lfs 30,40(9)
.LVL321:
.LBE2098:
.LBE2104:
	.loc 3 1041 0
	lis 9,.LC10@ha
	lfs 31,.LC10@l(9)
	b .L276
.LVL322:
.L282:
	.loc 3 1042 0
	or 0,9,0
.LVL323:
.L273:
	.loc 3 1046 0
	cmpwi 6,0,0
	.loc 3 1035 0
	cmpwi 7,31,255
	.loc 3 1049 0
	cmpw 1,0,28
	.loc 3 1046 0
	li 9,0
	blt- 6,.L275
	.loc 3 1049 0
	ori 9,9,65535
	ble- 1,.L280
.L275:
.LVL324:
	.loc 3 1053 0
	sthu 9,2(30)
	.loc 3 1035 0
	addi 31,31,1
.LVL325:
	beq- 7,.L281
.LVL326:
.L276:
	.loc 3 1036 0
	xoris 0,31,0x8000
	stw 29,8(1)
	stw 0,12(1)
	addi 9,1,28
	.loc 3 1041 0
	fcmpu 7,30,31
	.loc 3 1036 0
	lfd 0,8(1)
	fsub 0,0,29
	frsp 0,0
	fmuls 0,0,28
.LVL327:
	fctiwz 0,0
.LVL328:
	stfiwx 0,0,9
	lwz 0,28(1)
	cmpwi 6,0,255
	ble- 6,.L271
	li 0,255
.L271:
.LVL329:
	.loc 3 1042 0
	slwi 9,0,8
	.loc 3 1041 0
	beq+ 7,.L282
	.loc 3 1044 0
	xoris 0,0,0x8000
.LVL330:
	stw 29,16(1)
	stw 0,20(1)
	fdivs 2,31,30
	lfs 13,0(27)
	lfd 1,16(1)
	lfs 0,.LC354@l(24)
	fsub 1,1,13
	frsp 1,1
	fdivs 1,1,0
	bl pow
.LVL331:
	lfs 13,.LC356@l(25)
	lfs 0,.LC85@l(26)
	addi 9,1,24
	fmadd 0,1,13,0
	fctiwz 0,0
	stfiwx 0,0,9
	lwz 0,24(1)
.LVL332:
	b .L273
.LVL333:
.L280:
	.loc 3 1049 0
	rlwinm 9,0,0,0xffff
.LVL334:
	.loc 3 1035 0
	addi 31,31,1
.LVL335:
	.loc 3 1053 0
	sthu 9,2(30)
	.loc 3 1035 0
	bne+ 7,.L276
.L281:
	.loc 3 1056 0
	lis 3,tr+688@ha
	la 3,tr+688@l(3)
	mr 4,3
	mr 5,3
	bl _Z14GLimp_SetGammaPtS_S_
.LBE2114:
	.loc 3 1057 0
	lwz 0,100(1)
	lwz 24,32(1)
	mtlr 0
	lwz 25,36(1)
	lwz 26,40(1)
	lwz 27,44(1)
	lwz 28,48(1)
	lwz 29,52(1)
	lwz 30,56(1)
	lwz 31,60(1)
.LVL336:
	lfd 28,64(1)
	lfd 29,72(1)
	lfd 30,80(1)
	lfd 31,88(1)
	addi 1,1,96
.LCFI84:
	.cfi_def_cfa_offset 0
	.cfi_restore 63
	.cfi_restore 62
	.cfi_restore 61
	.cfi_restore 60
	.cfi_restore 31
	.cfi_restore 30
	.cfi_restore 29
	.cfi_restore 28
	.cfi_restore 27
	.cfi_restore 26
	.cfi_restore 25
	.cfi_restore 24
	blr
	.cfi_endproc
.LFE2588:
	.size	_Z18R_SetColorMappingsv, .-_Z18R_SetColorMappingsv
	.align 2
	.globl _Z12R_InitOpenGLv
	.type	_Z12R_InitOpenGLv, @function
_Z12R_InitOpenGLv:
.LFB2569:
	.loc 3 633 0
	.cfi_startproc
	stwu 1,-2440(1)
.LCFI85:
	.cfi_def_cfa_offset 2440
	mflr 0
.LBB2115:
	.loc 3 638 0
	lis 4,.LC358@ha
.LBE2115:
	.loc 3 633 0
	stw 20,2392(1)
.LBB2148:
	.loc 3 638 0
	lis 20,common@ha
	.cfi_offset 20, -48
	.cfi_register 65, 0
.LBE2148:
	.loc 3 633 0
	stw 23,2404(1)
.LBB2149:
	.loc 3 638 0
	la 4,.LC358@l(4)
.LBE2149:
	.loc 3 633 0
	stw 31,2436(1)
.LBB2150:
	.loc 3 640 0
	lis 23,.LANCHOR0@ha
	.cfi_offset 31, -4
	.cfi_offset 23, -36
.LBE2150:
	.loc 3 633 0
	stw 0,2444(1)
.LBB2151:
	.loc 3 640 0
	la 31,.LANCHOR0@l(23)
.LBE2151:
	.loc 3 633 0
	stw 18,2384(1)
	stw 19,2388(1)
	stw 21,2396(1)
	stw 22,2400(1)
	stw 24,2408(1)
	stw 25,2412(1)
	stw 26,2416(1)
	stw 27,2420(1)
	stw 28,2424(1)
	stw 29,2428(1)
	stw 30,2432(1)
.LBB2152:
	.loc 3 638 0
	lwz 3,common@l(20)
	lwz 9,0(3)
	lwz 0,68(9)
	.cfi_offset 30, -8
	.cfi_offset 29, -12
	.cfi_offset 28, -16
	.cfi_offset 27, -20
	.cfi_offset 26, -24
	.cfi_offset 25, -28
	.cfi_offset 24, -32
	.cfi_offset 22, -40
	.cfi_offset 21, -44
	.cfi_offset 19, -52
	.cfi_offset 18, -56
	.cfi_offset 65, 4
	mtctr 0
	crxor 6,6,6
	bctrl
	.loc 3 640 0
	lbz 0,94(31)
	cmpwi 7,0,0
	bne- 7,.L290
.L284:
	.loc 3 645 0
	lis 30,tr@ha
	li 0,0
	la 30,tr@l(30)
	lis 28,.LANCHOR0+76@ha
	la 28,.LANCHOR0+76@l(28)
	.loc 3 659 0
	lis 19,.LC360@ha
	.loc 3 671 0
	lis 18,.LC361@ha
	.loc 3 645 0
	stw 0,24(30)
	.loc 3 646 0
	stw 0,28(30)
.LVL337:
	.loc 3 651 0
	li 29,0
	addi 21,28,4
	addi 24,28,280
	addi 25,28,384
	addi 26,28,332
	addi 27,28,228
	.loc 3 659 0
	la 19,.LC360@l(19)
	.loc 3 663 0
	li 22,0
	.loc 3 671 0
	la 18,.LC361@l(18)
.LVL338:
.L288:
.LBB2116:
.LBB2117:
	.loc 2 143 0
	lwz 9,44(24)
.LBE2117:
.LBE2116:
	.loc 3 653 0
	mr 4,21
	mr 3,28
	lwz 5,36(9)
	bl _Z13R_GetModeInfoPiS_i
.LBB2118:
.LBB2119:
	.loc 2 142 0
	lwz 9,44(25)
.LBE2119:
.LBE2118:
	.loc 3 655 0
	lwz 0,76(31)
.LBB2124:
.LBB2120:
	.loc 2 142 0
	lwz 11,36(9)
.LBE2120:
.LBE2124:
	.loc 3 655 0
	stw 0,8(1)
.LBB2125:
.LBB2121:
	.loc 2 142 0
	cmpwi 7,11,0
.LBE2121:
.LBE2125:
	.loc 3 656 0
	lwz 9,80(31)
.LBB2126:
.LBB2122:
	.loc 2 142 0
	mfcr 0
	rlwinm 0,0,31,1
.LBE2122:
.LBE2126:
	.loc 3 656 0
	stw 9,12(1)
.LBB2127:
.LBB2123:
	.loc 2 142 0
	xori 0,0,1
.LBE2123:
.LBE2127:
	.loc 3 657 0
	stb 0,16(1)
	.loc 3 658 0
	beq- 7,.L291
.L285:
.LBB2128:
.LBB2129:
	.loc 2 143 0
	lwz 11,44(27)
.LBE2129:
.LBE2128:
	.loc 3 665 0
	addi 3,1,2352
.LBB2130:
.LBB2131:
	.loc 2 143 0
	lwz 9,44(26)
.LBE2131:
.LBE2130:
	.loc 3 662 0
	lwz 0,36(11)
	.loc 3 665 0
	lwz 11,8(1)
	.loc 3 661 0
	lwz 9,36(9)
	.loc 3 663 0
	stb 22,17(1)
	.loc 3 665 0
	stw 11,2352(1)
	lwz 11,12(1)
	.loc 3 661 0
	stw 9,20(1)
	.loc 3 665 0
	stw 11,2356(1)
	lwz 11,16(1)
	.loc 3 662 0
	stw 0,24(1)
	.loc 3 665 0
	stw 11,2360(1)
	stw 9,2364(1)
	stw 0,2368(1)
	bl _Z10GLimp_Init12glimpParms_t
	cmpwi 7,3,0
	.loc 3 670 0
	cmpwi 6,29,1
	.loc 3 665 0
	bne- 7,.L286
	.loc 3 670 0
	beq- 6,.L292
.L287:
	.loc 3 676 0
	lwz 3,44(24)
.LVL339:
.LBB2132:
.LBB2133:
	.loc 2 148 0
	li 4,3
	lwz 9,0(3)
	lwz 0,16(9)
	mtctr 0
	bctrl
	.loc 3 677 0
	lwz 3,44(25)
.LVL340:
.LBE2133:
.LBE2132:
.LBB2134:
.LBB2135:
	.loc 2 148 0
	li 4,1
	lwz 9,0(3)
	lwz 0,16(9)
	mtctr 0
	bctrl
	.loc 3 678 0
	lwz 3,44(26)
.LVL341:
.LBE2135:
.LBE2134:
.LBB2136:
.LBB2137:
	.loc 2 148 0
	li 4,0
	lwz 9,0(3)
	lwz 0,16(9)
	mtctr 0
	bctrl
	.loc 3 679 0
	lwz 3,44(27)
.LVL342:
.LBE2137:
.LBE2136:
.LBB2138:
.LBB2139:
	.loc 2 148 0
	li 4,0
	lwz 9,0(3)
	lwz 0,16(9)
	mtctr 0
	bctrl
.LVL343:
.LBE2139:
.LBE2138:
	.loc 3 651 0
	cmpwi 7,29,1
	addi 29,29,1
.LVL344:
	bne- 7,.L288
.LVL345:
.L286:
	.loc 3 683 0
	bl _Z13Sys_InitInputv
	.loc 3 684 0
	lis 3,.LC362@ha
	la 3,.LC362@l(3)
	.loc 3 713 0
	li 29,1
	.loc 3 684 0
	crxor 6,6,6
	bl _Z10Sys_PrintfPKcz
	.loc 3 699 0
	lis 9,.LC363@ha
	la 0,.LC363@l(9)
	.loc 3 700 0
	lis 9,.LC364@ha
	.loc 3 699 0
	stw 0,4(31)
	.loc 3 700 0
	la 0,.LC364@l(9)
	.loc 3 701 0
	lis 9,.LC365@ha
	.loc 3 700 0
	stw 0,.LANCHOR0@l(23)
	.loc 3 701 0
	la 0,.LC365@l(9)
	.loc 3 702 0
	lis 9,.LC366@ha
	.loc 3 701 0
	stw 0,8(31)
	.loc 3 702 0
	la 0,.LC366@l(9)
	stw 0,12(31)
	.loc 3 710 0
	li 0,256
	stw 0,24(31)
.LBB2140:
.LBB2141:
	.loc 3 334 0
	lis 3,.LC367@ha
.LBE2141:
.LBE2140:
	.loc 3 713 0
	stb 29,94(31)
.LBB2143:
.LBB2142:
	.loc 3 334 0
	la 3,.LC367@l(3)
	crxor 6,6,6
	bl _Z10Sys_PrintfPKcz
	.loc 3 335 0
	lwz 3,8(31)
	bl atof
	.loc 3 336 0
	li 9,7682
	stw 9,536(30)
	.loc 3 337 0
	li 9,7683
	.loc 3 335 0
	frsp 1,1
	.loc 3 337 0
	stw 9,540(30)
	.loc 3 342 0
	lis 9,.LC10@ha
	.loc 3 340 0
	li 0,0
	.loc 3 342 0
	lwz 9,.LC10@l(9)
	.loc 3 340 0
	stb 0,63(31)
	.loc 3 343 0
	stb 0,57(31)
	.loc 3 344 0
	li 0,8
	.loc 3 335 0
	stfs 1,20(31)
	.loc 3 338 0
	stb 29,56(31)
	.loc 3 339 0
	stb 29,61(31)
	.loc 3 341 0
	stb 29,64(31)
	.loc 3 342 0
	stw 9,40(31)
	.loc 3 344 0
	stw 0,28(31)
.LBE2142:
.LBE2143:
	.loc 3 725 0
	bl _Z11R_ARB2_Initv
	.loc 3 727 0
	lis 9,cmdSystem@ha
	lwz 3,cmdSystem@l(9)
	lis 4,.LC368@ha
	lis 5,_Z21R_ReloadARBPrograms_fRK9idCmdArgs@ha
	lis 7,.LC369@ha
	lwz 9,0(3)
	la 4,.LC368@l(4)
	la 5,_Z21R_ReloadARBPrograms_fRK9idCmdArgs@l(5)
	li 6,4
	lwz 0,16(9)
	la 7,.LC369@l(7)
	li 8,0
	mtctr 0
	bctrl
.LBB2144:
.LBB2145:
	.loc 5 42 0
	mr 3,1
	li 0,0
	stwu 0,28(3)
.LBE2145:
.LBE2144:
	.loc 3 728 0
	bl _Z21R_ReloadARBPrograms_fRK9idCmdArgs
	.loc 3 731 0
	lis 3,vertexCache@ha
	la 3,vertexCache@l(3)
	bl _ZN13idVertexCache4InitEv
	.loc 3 734 0
	lwz 9,1960(31)
	.loc 3 735 0
	mr 3,30
.LBB2146:
.LBB2147:
	.loc 2 138 0
	lwz 0,16(9)
	oris 0,0,0x4
	stw 0,16(9)
.LBE2147:
.LBE2146:
	.loc 3 735 0
	bl _ZN19idRenderSystemLocal18SetBackEndRendererEv
	.loc 3 738 0
	bl _Z15R_InitFrameDatav
	.loc 3 741 0
	bl _Z18R_SetColorMappingsv
.LBE2152:
	.loc 3 764 0
	lwz 0,2444(1)
	lwz 18,2384(1)
	mtlr 0
	lwz 19,2388(1)
	lwz 20,2392(1)
	lwz 21,2396(1)
	lwz 22,2400(1)
	lwz 23,2404(1)
	lwz 24,2408(1)
	lwz 25,2412(1)
	lwz 26,2416(1)
	lwz 27,2420(1)
	lwz 28,2424(1)
	lwz 29,2428(1)
	lwz 30,2432(1)
	lwz 31,2436(1)
	addi 1,1,2440
	.cfi_remember_state
.LCFI86:
	.cfi_def_cfa_offset 0
	.cfi_restore 31
	.cfi_restore 30
	.cfi_restore 29
	.cfi_restore 28
	.cfi_restore 27
	.cfi_restore 26
	.cfi_restore 25
	.cfi_restore 24
	.cfi_restore 23
	.cfi_restore 22
	.cfi_restore 21
	.cfi_restore 20
	.cfi_restore 19
	.cfi_restore 18
	blr
.L291:
.LCFI87:
	.cfi_restore_state
.LBB2153:
	.loc 3 659 0
	mr 3,19
	crxor 6,6,6
	bl _Z9Sys_ErrorPKcz
	b .L285
.L290:
	.loc 3 641 0
	lwz 3,common@l(20)
	lis 4,.LC359@ha
	la 4,.LC359@l(4)
	lwz 9,0(3)
	lwz 0,100(9)
	mtctr 0
	crxor 6,6,6
	bctrl
	b .L284
.L292:
	.loc 3 671 0
	lwz 3,common@l(20)
	mr 4,18
	lwz 9,0(3)
	lwz 0,100(9)
	mtctr 0
	crxor 6,6,6
	bctrl
	b .L287
.LBE2153:
	.cfi_endproc
.LFE2569:
	.size	_Z12R_InitOpenGLv, .-_Z12R_InitOpenGLv
	.align 2
	.globl _ZN19idRenderSystemLocal10InitOpenGLEv
	.type	_ZN19idRenderSystemLocal10InitOpenGLEv, @function
_ZN19idRenderSystemLocal10InitOpenGLEv:
.LFB2605:
	.loc 3 1361 0
	.cfi_startproc
.LVL346:
	mflr 0
	stwu 1,-8(1)
.LCFI88:
	.cfi_def_cfa_offset 8
	.cfi_register 65, 0
.LBB2159:
	.loc 3 1363 0
	lis 9,.LANCHOR0+94@ha
.LBE2159:
	.loc 3 1361 0
	stw 0,12(1)
.LBB2160:
	.loc 3 1363 0
	lbz 0,.LANCHOR0+94@l(9)
	.cfi_offset 65, 4
	cmpwi 7,0,0
	bne+ 7,.L293
.LBE2160:
.LBB2161:
.LBB2162:
.LBB2163:
	.loc 3 1366 0
	bl _Z12R_InitOpenGLv
.LVL347:
	.loc 3 1368 0
	lis 9,globalImages@ha
	lwz 3,globalImages@l(9)
	bl _ZN14idImageManager15ReloadAllImagesEv
.L293:
.LBE2163:
.LBE2162:
.LBE2161:
	.loc 3 1377 0
	lwz 0,12(1)
	addi 1,1,8
.LCFI89:
	.cfi_def_cfa_offset 0
	mtlr 0
	blr
	.cfi_endproc
.LFE2605:
	.size	_ZN19idRenderSystemLocal10InitOpenGLEv, .-_ZN19idRenderSystemLocal10InitOpenGLEv
	.align 2
	.globl _Z14R_VidRestart_fRK9idCmdArgs
	.type	_Z14R_VidRestart_fRK9idCmdArgs, @function
_Z14R_VidRestart_fRK9idCmdArgs:
.LFB2590:
	.loc 3 1076 0
	.cfi_startproc
.LVL348:
	mflr 0
	stwu 1,-8(1)
.LCFI90:
	.cfi_def_cfa_offset 8
	.cfi_register 65, 0
	.loc 3 1077 0
	lis 3,.LC370@ha
.LVL349:
	la 3,.LC370@l(3)
	.loc 3 1076 0
	stw 0,12(1)
	.loc 3 1077 0
	.cfi_offset 65, 4
	crxor 6,6,6
	bl _Z10Sys_PrintfPKcz
	.loc 3 1078 0
	lwz 0,12(1)
	addi 1,1,8
.LCFI91:
	.cfi_def_cfa_offset 0
	mtlr 0
	blr
	.cfi_endproc
.LFE2590:
	.size	_Z14R_VidRestart_fRK9idCmdArgs, .-_Z14R_VidRestart_fRK9idCmdArgs
	.align 2
	.globl _Z15R_InitMaterialsv
	.type	_Z15R_InitMaterialsv, @function
_Z15R_InitMaterialsv:
.LFB2591:
	.loc 3 1087 0
	.cfi_startproc
	stwu 1,-16(1)
.LCFI92:
	.cfi_def_cfa_offset 16
	mflr 0
	.loc 3 1088 0
	li 5,0
	li 6,0
	.loc 3 1087 0
	stw 31,12(1)
	.loc 3 1088 0
	lis 31,declManager@ha
	.cfi_offset 31, -4
	.cfi_register 65, 0
	.loc 3 1087 0
	stw 30,8(1)
	.loc 3 1088 0
	lis 30,.LC371@ha
	.cfi_offset 30, -8
	.loc 3 1087 0
	stw 0,20(1)
	.loc 3 1088 0
	la 30,.LC371@l(30)
	lwz 3,declManager@l(31)
	mr 4,30
	lwz 9,0(3)
	lwz 0,104(9)
	.cfi_offset 65, 4
	mtctr 0
	bctrl
	lis 9,tr+232@ha
	.loc 3 1089 0
	cmpwi 7,3,0
	.loc 3 1088 0
	stw 3,tr+232@l(9)
	.loc 3 1089 0
	beq- 7,.L298
.L297:
	.loc 3 1092 0
	lwz 3,declManager@l(31)
	mr 4,30
	li 5,0
	li 6,0
	lwz 9,0(3)
	lwz 0,104(9)
	mtctr 0
	bctrl
	.loc 3 1095 0
	lwz 3,declManager@l(31)
	lis 4,.LC373@ha
	li 5,1
	lwz 9,0(3)
	la 4,.LC373@l(4)
	li 6,0
	lwz 0,104(9)
	mtctr 0
	bctrl
	.loc 3 1096 0
	lwz 3,declManager@l(31)
	lis 4,.LC374@ha
	li 5,1
	lwz 9,0(3)
	la 4,.LC374@l(4)
	li 6,0
	lwz 0,104(9)
	mtctr 0
	bctrl
	.loc 3 1097 0
	lwz 0,20(1)
	lwz 30,8(1)
	mtlr 0
	lwz 31,12(1)
	addi 1,1,16
	.cfi_remember_state
.LCFI93:
	.cfi_def_cfa_offset 0
	.cfi_restore 31
	.cfi_restore 30
	blr
.L298:
.LCFI94:
	.cfi_restore_state
	.loc 3 1090 0
	lis 9,common@ha
	lis 4,.LC372@ha
	lwz 3,common@l(9)
	la 4,.LC372@l(4)
	lwz 9,0(3)
	lwz 0,100(9)
	mtctr 0
	crxor 6,6,6
	bctrl
	b .L297
	.cfi_endproc
.LFE2591:
	.size	_Z15R_InitMaterialsv, .-_Z15R_InitMaterialsv
	.align 2
	.globl _Z12R_TouchGui_fRK9idCmdArgs
	.type	_Z12R_TouchGui_fRK9idCmdArgs, @function
_Z12R_TouchGui_fRK9idCmdArgs:
.LFB2594:
	.loc 3 1134 0
	.cfi_startproc
.LVL350:
	mflr 0
	stwu 1,-8(1)
.LCFI95:
	.cfi_def_cfa_offset 8
	.cfi_register 65, 0
	.loc 3 1135 0
	lis 3,.LC375@ha
.LVL351:
	la 3,.LC375@l(3)
	.loc 3 1134 0
	stw 0,12(1)
	.loc 3 1135 0
	.cfi_offset 65, 4
	crxor 6,6,6
	bl _Z10Sys_PrintfPKcz
	.loc 3 1136 0
	lwz 0,12(1)
	addi 1,1,8
.LCFI96:
	.cfi_def_cfa_offset 0
	mtlr 0
	blr
	.cfi_endproc
.LFE2594:
	.size	_Z12R_TouchGui_fRK9idCmdArgs, .-_Z12R_TouchGui_fRK9idCmdArgs
	.align 2
	.globl _Z11R_InitCvarsv
	.type	_Z11R_InitCvarsv, @function
_Z11R_InitCvarsv:
.LFB2595:
	.loc 3 1144 0
	.cfi_startproc
	.loc 3 1146 0
	blr
	.cfi_endproc
.LFE2595:
	.size	_Z11R_InitCvarsv, .-_Z11R_InitCvarsv
	.align 2
	.globl _Z14R_InitCommandsv
	.type	_Z14R_InitCommandsv, @function
_Z14R_InitCommandsv:
.LFB2596:
	.loc 3 1154 0
	.cfi_startproc
	stwu 1,-16(1)
.LCFI97:
	.cfi_def_cfa_offset 16
	mflr 0
	.loc 3 1155 0
	lis 3,.LC376@ha
	.loc 3 1154 0
	stw 31,12(1)
	.loc 3 1155 0
	la 3,.LC376@l(3)
	.loc 3 1162 0
	lis 31,cmdSystem@ha
	.cfi_offset 31, -4
	.cfi_register 65, 0
	.loc 3 1154 0
	stw 0,20(1)
	.loc 3 1155 0
	.cfi_offset 65, 4
	crxor 6,6,6
	bl _Z10Sys_PrintfPKcz
	.loc 3 1162 0
	lwz 3,cmdSystem@l(31)
	lis 4,.LC377@ha
	lis 5,_Z14R_ScreenShot_fRK9idCmdArgs@ha
	lwz 9,0(3)
	lis 7,.LC378@ha
	la 4,.LC377@l(4)
	la 5,_Z14R_ScreenShot_fRK9idCmdArgs@l(5)
	lwz 0,16(9)
	li 6,4
	la 7,.LC378@l(7)
	li 8,0
	mtctr 0
	bctrl
	.loc 3 1165 0
	lwz 3,cmdSystem@l(31)
	lis 4,.LC379@ha
	lis 5,_Z13R_Benchmark_fRK9idCmdArgs@ha
	lwz 9,0(3)
	la 4,.LC379@l(4)
	mr 7,4
	la 5,_Z13R_Benchmark_fRK9idCmdArgs@l(5)
	lwz 0,16(9)
	li 6,4
	li 8,0
	mtctr 0
	bctrl
	.loc 3 1166 0
	lwz 3,cmdSystem@l(31)
	lis 4,.LC380@ha
	lis 5,_Z9GfxInfo_fRK9idCmdArgs@ha
	lwz 9,0(3)
	lis 7,.LC381@ha
	la 4,.LC380@l(4)
	la 5,_Z9GfxInfo_fRK9idCmdArgs@l(5)
	lwz 0,16(9)
	li 6,4
	la 7,.LC381@l(7)
	li 8,0
	mtctr 0
	bctrl
	.loc 3 1181 0
	lwz 0,20(1)
	lwz 31,12(1)
	mtlr 0
	addi 1,1,16
.LCFI98:
	.cfi_def_cfa_offset 0
	.cfi_restore 31
	blr
	.cfi_endproc
.LFE2596:
	.size	_Z14R_InitCommandsv, .-_Z14R_InitCommandsv
	.align 2
	.globl _ZN19idRenderSystemLocal4InitEv
	.type	_ZN19idRenderSystemLocal4InitEv, @function
_ZN19idRenderSystemLocal4InitEv:
.LFB2598:
	.loc 3 1233 0
	.cfi_startproc
	.cfi_personality 0,__gxx_personality_v0
	.cfi_lsda 0,.LLSDA2598
.LVL352:
	stwu 1,-24(1)
.LCFI99:
	.cfi_def_cfa_offset 24
	mflr 0
	.loc 3 1235 0
	lis 4,.LC382@ha
	.loc 3 1233 0
	stw 30,16(1)
	.loc 3 1235 0
	lis 30,common@ha
	.cfi_offset 30, -8
	.cfi_register 65, 0
	.loc 3 1233 0
	stw 28,8(1)
	.loc 3 1235 0
	la 4,.LC382@l(4)
	.loc 3 1233 0
	stw 29,12(1)
	.loc 3 1245 0
	lis 28,.LC10@ha
	.cfi_offset 29, -12
	.cfi_offset 28, -16
	.loc 3 1233 0
	stw 31,20(1)
	mr 31,3
	.cfi_offset 31, -4
	.loc 3 1235 0
	lwz 9,common@l(30)
	.loc 3 1233 0
	stw 0,28(1)
	.loc 3 1235 0
	mr 3,9
.LVL353:
	lwz 11,0(9)
	lwz 0,68(11)
	.cfi_offset 65, 4
	mtctr 0
.LEHB0:
	crxor 6,6,6
	bctrl
	.loc 3 1238 0
	li 9,1
	stw 9,12(31)
.LVL354:
	.loc 3 1242 0
	lis 9,.LC85@ha
	lwz 9,.LC85@l(9)
	.loc 3 1247 0
	lis 3,backEnd@ha
	.loc 3 1245 0
	lwz 0,.LC10@l(28)
	.loc 3 1247 0
	li 4,0
	.loc 3 1242 0
	stw 9,52(31)
.LVL355:
	.loc 3 1243 0
	lis 9,.LC383@ha
	lwz 9,.LC383@l(9)
	.loc 3 1247 0
	li 5,376
	.loc 3 1245 0
	stw 0,64(31)
	.loc 3 1247 0
	la 3,backEnd@l(3)
	.loc 3 1243 0
	stw 9,56(31)
.LVL356:
	.loc 3 1244 0
	lis 9,.LC384@ha
	lwz 9,.LC384@l(9)
	stw 9,60(31)
.LVL357:
	.loc 3 1247 0
	bl memset
	.loc 3 1251 0
	bl _Z14R_InitCommandsv
	.loc 3 1253 0
	li 3,52
	bl _Znwj
.LEHE0:
	mr 29,3
.LEHB1:
	bl _ZN10idGuiModelC1Ev
.LEHE1:
	.loc 3 1253 0 is_stmt 0 discriminator 1
	stw 29,680(31)
	.loc 3 1254 0 is_stmt 1 discriminator 1
	mr 3,29
.LEHB2:
	bl _ZN10idGuiModel5ClearEv
	.loc 3 1256 0 discriminator 1
	li 3,52
	bl _Znwj
.LEHE2:
	mr 29,3
.LEHB3:
	bl _ZN10idGuiModelC1Ev
.LEHE3:
	stw 29,684(31)
	.loc 3 1257 0 discriminator 1
	mr 3,29
.LEHB4:
	bl _ZN10idGuiModel5ClearEv
	.loc 3 1259 0 discriminator 1
	bl _Z17R_InitTriSurfDatav
	.loc 3 1261 0 discriminator 1
	lis 9,globalImages@ha
	lwz 3,globalImages@l(9)
	bl _ZN14idImageManager4InitEv
	.loc 3 1263 0 discriminator 1
	bl _ZN11idCinematic13InitCinematicEv
	.loc 3 1266 0 discriminator 1
	bl _Z18R_SetColorMappingsv
	.loc 3 1268 0 discriminator 1
	bl _Z15R_InitMaterialsv
	.loc 3 1269 0 discriminator 1
	lis 3,.LC385@ha
	la 3,.LC385@l(3)
	crxor 6,6,6
	bl _Z10Sys_PrintfPKcz
	.loc 3 1270 0 discriminator 1
	lis 9,renderModelManager@ha
	lwz 3,renderModelManager@l(9)
	lwz 9,0(3)
	lwz 0,8(9)
	mtctr 0
	bctrl
	.loc 3 1273 0 discriminator 1
	lwz 0,.LC10@l(28)
	.loc 3 1279 0 discriminator 1
	lis 3,.LC386@ha
	.loc 3 1273 0 discriminator 1
	stw 0,404(31)
	.loc 3 1279 0 discriminator 1
	la 3,.LC386@l(3)
	.loc 3 1274 0 discriminator 1
	stw 0,424(31)
	.loc 3 1275 0 discriminator 1
	stw 0,444(31)
	.loc 3 1279 0 discriminator 1
	crxor 6,6,6
	bl _Z10Sys_PrintfPKcz
	.loc 3 1280 0 discriminator 1
	mr 3,31
	bl _ZN19idRenderSystemLocal18SetBackEndRendererEv
	.loc 3 1282 0 discriminator 1
	lwz 3,common@l(30)
	lis 4,.LC387@ha
	lwz 9,0(3)
	la 4,.LC387@l(4)
	lwz 0,68(9)
	mtctr 0
	crxor 6,6,6
	bctrl
	.loc 3 1283 0 discriminator 1
	lwz 3,common@l(30)
	lis 4,.LC388@ha
	lwz 9,0(3)
	la 4,.LC388@l(4)
	lwz 0,68(9)
	mtctr 0
	crxor 6,6,6
	bctrl
	.loc 3 1284 0 discriminator 1
	lwz 0,28(1)
	lwz 28,8(1)
	mtlr 0
	lwz 29,12(1)
	lwz 30,16(1)
	lwz 31,20(1)
.LVL358:
	addi 1,1,24
	.cfi_remember_state
.LCFI100:
	.cfi_def_cfa_offset 0
	.cfi_restore 31
	.cfi_restore 30
	.cfi_restore 29
	.cfi_restore 28
	blr
.LVL359:
.L305:
.L307:
.LCFI101:
	.cfi_restore_state
	mr 31,3
.LVL360:
	.loc 3 1256 0
	mr 3,29
	bl _ZdlPv
	mr 3,31
	bl _Unwind_Resume
.LEHE4:
.LVL361:
.L306:
	b .L307
	.cfi_endproc
.LFE2598:
	.globl __gxx_personality_v0
	.section	.gcc_except_table,"a",@progbits
.LLSDA2598:
	.byte	0xff
	.byte	0xff
	.byte	0x1
	.uleb128 .LLSDACSE2598-.LLSDACSB2598
.LLSDACSB2598:
	.uleb128 .LEHB0-.LFB2598
	.uleb128 .LEHE0-.LEHB0
	.uleb128 0
	.uleb128 0
	.uleb128 .LEHB1-.LFB2598
	.uleb128 .LEHE1-.LEHB1
	.uleb128 .L305-.LFB2598
	.uleb128 0
	.uleb128 .LEHB2-.LFB2598
	.uleb128 .LEHE2-.LEHB2
	.uleb128 0
	.uleb128 0
	.uleb128 .LEHB3-.LFB2598
	.uleb128 .LEHE3-.LEHB3
	.uleb128 .L306-.LFB2598
	.uleb128 0
	.uleb128 .LEHB4-.LFB2598
	.uleb128 .LEHE4-.LEHB4
	.uleb128 0
	.uleb128 0
.LLSDACSE2598:
	.section	".text"
	.size	_ZN19idRenderSystemLocal4InitEv, .-_ZN19idRenderSystemLocal4InitEv
	.align 2
	.globl _ZN19idRenderSystemLocal5ClearEv
	.type	_ZN19idRenderSystemLocal5ClearEv, @function
_ZN19idRenderSystemLocal5ClearEv:
.LFB2597:
	.loc 3 1189 0
	.cfi_startproc
.LVL362:
	mflr 0
	stwu 1,-16(1)
.LCFI102:
	.cfi_def_cfa_offset 16
	.cfi_register 65, 0
	.loc 3 1190 0
	li 11,0
	.loc 3 1194 0
	li 9,0
	.loc 3 1189 0
	stw 31,12(1)
	mr 31,3
	.cfi_offset 31, -4
	stw 0,20(1)
	.loc 3 1191 0
	li 0,0
	.cfi_offset 65, 4
	.loc 3 1189 0
	stw 30,8(1)
.LBB2164:
.LBB2165:
	.file 6 "d:/Data/Nintendo/DoomGX/src/renderer/../idlib/../idlib/containers/List.h"
	.loc 6 193 0
	lwz 3,84(3)
.LVL363:
.LBE2165:
.LBE2164:
	.loc 3 1190 0
	stb 11,4(31)
	.loc 3 1199 0
	li 11,5
.LBB2171:
.LBB2166:
	.loc 6 193 0
	cmpwi 7,3,0
.LBE2166:
.LBE2171:
	.loc 3 1199 0
	stw 11,40(31)
	.loc 3 1201 0
	lis 11,.LC10@ha
	.loc 3 1191 0
	stw 0,8(31)
	.loc 3 1192 0
	stw 0,12(31)
	.loc 3 1193 0
	stw 0,16(31)
	.loc 3 1195 0
	stw 0,24(31)
	.loc 3 1196 0
	stw 0,28(31)
	.loc 3 1197 0
	stw 0,32(31)
	.loc 3 1198 0
	stw 0,36(31)
	.loc 3 1200 0
	stb 0,44(31)
	.loc 3 1201 0
	lwz 0,.LC10@l(11)
	.loc 3 1194 0
	stw 9,20(31)
	.loc 3 1201 0
	stw 0,48(31)
.LVL364:
.LBB2172:
.LBB2173:
	.file 7 "d:/Data/Nintendo/DoomGX/src/renderer/../idlib/../idlib/math/Vector.h"
	.loc 7 881 0
	stw 9,64(31)
	stw 9,60(31)
	stw 9,56(31)
	stw 9,52(31)
.LBE2173:
.LBE2172:
	.loc 3 1203 0
	stw 9,68(31)
.LVL365:
.LBB2174:
.LBB2167:
	.loc 6 193 0
	beq- 7,.L309
	.cfi_offset 30, -8
	.loc 6 194 0
	bl _ZdaPv
.L309:
	.loc 6 197 0
	li 30,0
.LBE2167:
.LBE2174:
	.loc 3 1206 0
	li 4,0
.LBB2175:
.LBB2168:
	.loc 6 197 0
	stw 30,84(31)
.LBE2168:
.LBE2175:
	.loc 3 1206 0
	li 5,136
.LBB2176:
.LBB2169:
	.loc 6 198 0
	stw 30,72(31)
.LBE2169:
.LBE2176:
	.loc 3 1206 0
	addi 3,31,92
.LBB2177:
.LBB2170:
	.loc 6 199 0
	stw 30,76(31)
.LBE2170:
.LBE2177:
	.loc 3 1205 0
	stw 30,88(31)
	.loc 3 1206 0
	bl memset
	.loc 3 1207 0
	stw 30,228(31)
	.loc 3 1208 0
	stw 30,232(31)
	.loc 3 1212 0
	li 4,0
	.loc 3 1209 0
	stw 30,236(31)
	.loc 3 1212 0
	li 5,104
	.loc 3 1210 0
	stw 30,248(31)
	.loc 3 1212 0
	addi 3,31,256
	.loc 3 1211 0
	stw 30,252(31)
	.loc 3 1212 0
	bl memset
	.loc 3 1213 0
	stw 30,360(31)
	stw 30,364(31)
	.loc 3 1214 0
	li 4,0
	.loc 3 1213 0
	stw 30,368(31)
	.loc 3 1214 0
	li 5,160
	addi 3,31,372
	bl memset
	.loc 3 1215 0
	stw 30,532(31)
	.loc 3 1216 0
	stw 30,536(31)
	.loc 3 1218 0
	li 4,0
	.loc 3 1217 0
	stw 30,540(31)
	.loc 3 1218 0
	li 5,128
	addi 3,31,544
	bl memset
	.loc 3 1219 0
	stw 30,672(31)
	.loc 3 1220 0
	stw 30,676(31)
	.loc 3 1223 0
	addi 3,31,688
	.loc 3 1221 0
	stw 30,680(31)
	.loc 3 1223 0
	li 4,0
	.loc 3 1222 0
	stw 30,684(31)
	.loc 3 1223 0
	li 5,512
	bl memset
	.loc 3 1224 0
	stb 30,5(31)
	.loc 3 1225 0
	lwz 0,20(1)
	lwz 30,8(1)
	mtlr 0
	lwz 31,12(1)
.LVL366:
	addi 1,1,16
.LCFI103:
	.cfi_def_cfa_offset 0
	.cfi_restore 31
	.cfi_restore 30
	blr
	.cfi_endproc
.LFE2597:
	.size	_ZN19idRenderSystemLocal5ClearEv, .-_ZN19idRenderSystemLocal5ClearEv
	.align 2
	.globl _ZN19idRenderSystemLocal8ShutdownEv
	.type	_ZN19idRenderSystemLocal8ShutdownEv, @function
_ZN19idRenderSystemLocal8ShutdownEv:
.LFB2599:
	.loc 3 1292 0
	.cfi_startproc
.LVL367:
	mflr 0
	stwu 1,-16(1)
.LCFI104:
	.cfi_def_cfa_offset 16
	.cfi_register 65, 0
	.loc 3 1293 0
	lis 9,common@ha
	lis 4,.LC389@ha
	lwz 9,common@l(9)
	la 4,.LC389@l(4)
	.loc 3 1292 0
	stw 30,8(1)
	lis 30,globalImages@ha
	.cfi_offset 30, -8
	stw 31,12(1)
	mr 31,3
	.cfi_offset 31, -4
	stw 0,20(1)
	.loc 3 1293 0
	mr 3,9
.LVL368:
	lwz 11,0(9)
	lwz 0,68(11)
	.cfi_offset 65, 4
	mtctr 0
	crxor 6,6,6
	bctrl
	.loc 3 1295 0
	bl _Z14R_DoneFreeTypev
	.loc 3 1297 0
	lis 9,.LANCHOR0+94@ha
	lbz 0,.LANCHOR0+94@l(9)
	cmpwi 7,0,0
	bne- 7,.L330
.L311:
	.loc 3 1301 0
	lis 9,renderModelManager@ha
	lwz 3,renderModelManager@l(9)
	lwz 9,0(3)
	lwz 0,12(9)
	mtctr 0
	bctrl
	.loc 3 1303 0
	bl _ZN11idCinematic17ShutdownCinematicEv
	.loc 3 1305 0
	lwz 3,globalImages@l(30)
	bl _ZN14idImageManager8ShutdownEv
	.loc 3 1308 0
	lwz 6,532(31)
	cmpwi 7,6,0
	beq- 7,.L312
	.loc 3 1309 0
	lis 3,.LC390@ha
	li 4,1
	li 5,20
	la 3,.LC390@l(3)
	bl fwrite
	.loc 3 1310 0
	lwz 3,532(31)
	bl fclose
	.loc 3 1311 0
	li 0,0
	stw 0,532(31)
.L312:
	.loc 3 1315 0
	bl _Z19R_ShutdownFrameDatav
	.loc 3 1318 0
	lis 3,vertexCache@ha
	la 3,vertexCache@l(3)
	bl _ZN13idVertexCache8ShutdownEv
	.loc 3 1320 0
	bl _Z21R_ShutdownTriSurfDatav
	.loc 3 1322 0
	bl _Z21RB_ShutdownDebugToolsv
	.loc 3 1324 0
	lwz 30,680(31)
	cmpwi 7,30,0
	beq- 7,.L313
.LVL369:
.LBB2208:
.LBB2209:
.LBB2210:
.LBB2211:
.LBB2212:
.LBB2213:
	.loc 6 193 0
	lwz 3,48(30)
	cmpwi 7,3,0
	beq- 7,.L314
	.loc 6 194 0
	bl _ZdaPv
.LVL370:
.L314:
.LBE2213:
.LBE2212:
.LBE2211:
.LBE2210:
.LBB2220:
.LBB2221:
.LBB2222:
.LBB2223:
	.loc 6 193 0
	lwz 3,32(30)
.LBE2223:
.LBE2222:
.LBE2221:
.LBE2220:
.LBB2236:
.LBB2218:
.LBB2216:
.LBB2214:
	.loc 6 197 0
	li 0,0
	stw 0,48(30)
.LBE2214:
.LBE2216:
.LBE2218:
.LBE2236:
.LBB2237:
.LBB2232:
.LBB2228:
.LBB2224:
	.loc 6 193 0
	cmpwi 7,3,0
.LBE2224:
.LBE2228:
.LBE2232:
.LBE2237:
.LBB2238:
.LBB2219:
.LBB2217:
.LBB2215:
	.loc 6 198 0
	stw 0,36(30)
	.loc 6 199 0
	stw 0,40(30)
.LVL371:
.LBE2215:
.LBE2217:
.LBE2219:
.LBE2238:
.LBB2239:
.LBB2233:
.LBB2229:
.LBB2225:
	.loc 6 193 0
	beq- 7,.L316
	.loc 6 194 0
	bl _ZdaPv
.L316:
.LBE2225:
.LBE2229:
.LBE2233:
.LBE2239:
.LBB2240:
.LBB2241:
.LBB2242:
.LBB2243:
	.loc 6 193 0
	lwz 3,16(30)
.LBE2243:
.LBE2242:
.LBE2241:
.LBE2240:
.LBB2253:
.LBB2234:
.LBB2230:
.LBB2226:
	.loc 6 197 0
	li 0,0
	stw 0,32(30)
.LBE2226:
.LBE2230:
.LBE2234:
.LBE2253:
.LBB2254:
.LBB2250:
.LBB2247:
.LBB2244:
	.loc 6 193 0
	cmpwi 7,3,0
.LBE2244:
.LBE2247:
.LBE2250:
.LBE2254:
.LBB2255:
.LBB2235:
.LBB2231:
.LBB2227:
	.loc 6 198 0
	stw 0,20(30)
	.loc 6 199 0
	stw 0,24(30)
.LVL372:
.LBE2227:
.LBE2231:
.LBE2235:
.LBE2255:
.LBB2256:
.LBB2251:
.LBB2248:
.LBB2245:
	.loc 6 193 0
	beq- 7,.L318
	.loc 6 194 0
	bl _ZdaPv
.L318:
	.loc 6 197 0
	li 0,0
.LBE2245:
.LBE2248:
.LBE2251:
.LBE2256:
.LBE2209:
.LBE2208:
	.loc 3 1324 0
	mr 3,30
.LBB2259:
.LBB2258:
.LBB2257:
.LBB2252:
.LBB2249:
.LBB2246:
	.loc 6 197 0
	stw 0,16(30)
	.loc 6 198 0
	stw 0,4(30)
	.loc 6 199 0
	stw 0,8(30)
.LBE2246:
.LBE2249:
.LBE2252:
.LBE2257:
.LBE2258:
.LBE2259:
	.loc 3 1324 0
	bl _ZdlPv
.LVL373:
.L313:
	.loc 3 1325 0
	lwz 30,684(31)
	cmpwi 7,30,0
	beq- 7,.L321
.LVL374:
.LBB2260:
.LBB2261:
.LBB2262:
.LBB2263:
.LBB2264:
.LBB2265:
	.loc 6 193 0
	lwz 3,48(30)
	cmpwi 7,3,0
	beq- 7,.L322
	.loc 6 194 0
	bl _ZdaPv
.LVL375:
.L322:
.LBE2265:
.LBE2264:
.LBE2263:
.LBE2262:
.LBB2272:
.LBB2273:
.LBB2274:
.LBB2275:
	.loc 6 193 0
	lwz 3,32(30)
.LBE2275:
.LBE2274:
.LBE2273:
.LBE2272:
.LBB2288:
.LBB2270:
.LBB2268:
.LBB2266:
	.loc 6 197 0
	li 0,0
	stw 0,48(30)
.LBE2266:
.LBE2268:
.LBE2270:
.LBE2288:
.LBB2289:
.LBB2284:
.LBB2280:
.LBB2276:
	.loc 6 193 0
	cmpwi 7,3,0
.LBE2276:
.LBE2280:
.LBE2284:
.LBE2289:
.LBB2290:
.LBB2271:
.LBB2269:
.LBB2267:
	.loc 6 198 0
	stw 0,36(30)
	.loc 6 199 0
	stw 0,40(30)
.LVL376:
.LBE2267:
.LBE2269:
.LBE2271:
.LBE2290:
.LBB2291:
.LBB2285:
.LBB2281:
.LBB2277:
	.loc 6 193 0
	beq- 7,.L324
	.loc 6 194 0
	bl _ZdaPv
.L324:
.LBE2277:
.LBE2281:
.LBE2285:
.LBE2291:
.LBB2292:
.LBB2293:
.LBB2294:
.LBB2295:
	.loc 6 193 0
	lwz 3,16(30)
.LBE2295:
.LBE2294:
.LBE2293:
.LBE2292:
.LBB2305:
.LBB2286:
.LBB2282:
.LBB2278:
	.loc 6 197 0
	li 0,0
	stw 0,32(30)
.LBE2278:
.LBE2282:
.LBE2286:
.LBE2305:
.LBB2306:
.LBB2302:
.LBB2299:
.LBB2296:
	.loc 6 193 0
	cmpwi 7,3,0
.LBE2296:
.LBE2299:
.LBE2302:
.LBE2306:
.LBB2307:
.LBB2287:
.LBB2283:
.LBB2279:
	.loc 6 198 0
	stw 0,20(30)
	.loc 6 199 0
	stw 0,24(30)
.LVL377:
.LBE2279:
.LBE2283:
.LBE2287:
.LBE2307:
.LBB2308:
.LBB2303:
.LBB2300:
.LBB2297:
	.loc 6 193 0
	beq- 7,.L326
	.loc 6 194 0
	bl _ZdaPv
.L326:
	.loc 6 197 0
	li 0,0
.LBE2297:
.LBE2300:
.LBE2303:
.LBE2308:
.LBE2261:
.LBE2260:
	.loc 3 1325 0
	mr 3,30
.LBB2311:
.LBB2310:
.LBB2309:
.LBB2304:
.LBB2301:
.LBB2298:
	.loc 6 197 0
	stw 0,16(30)
	.loc 6 198 0
	stw 0,4(30)
	.loc 6 199 0
	stw 0,8(30)
.LBE2298:
.LBE2301:
.LBE2304:
.LBE2309:
.LBE2310:
.LBE2311:
	.loc 3 1325 0
	bl _ZdlPv
.LVL378:
.L321:
	.loc 3 1327 0
	mr 3,31
	bl _ZN19idRenderSystemLocal5ClearEv
	.loc 3 1329 0
	lwz 9,0(31)
	mr 3,31
	lwz 0,20(9)
	mtctr 0
	bctrl
	.loc 3 1330 0
	lwz 0,20(1)
	lwz 30,8(1)
	mtlr 0
	lwz 31,12(1)
.LVL379:
	addi 1,1,16
	.cfi_remember_state
.LCFI105:
	.cfi_def_cfa_offset 0
	.cfi_restore 31
	.cfi_restore 30
	blr
.LVL380:
.L330:
.LCFI106:
	.cfi_restore_state
	.loc 3 1298 0
	lwz 3,globalImages@l(30)
	bl _ZN14idImageManager14PurgeAllImagesEv
	b .L311
	.cfi_endproc
.LFE2599:
	.size	_ZN19idRenderSystemLocal8ShutdownEv, .-_ZN19idRenderSystemLocal8ShutdownEv
	.section	.text.startup,"ax",@progbits
	.align 2
	.type	_GLOBAL__sub_I_glConfig, @function
_GLOBAL__sub_I_glConfig:
.LFB2856:
	.loc 3 1441 0
	.cfi_startproc
	.loc 3 1441 0
	li 3,1
	b _Z41__static_initialization_and_destruction_0ii.constprop.22
	.cfi_endproc
.LFE2856:
	.size	_GLOBAL__sub_I_glConfig, .-_GLOBAL__sub_I_glConfig
	.section	.ctors,"aw",@progbits
	.align 2
	.long	_GLOBAL__sub_I_glConfig
	.section	.text.exit,"ax",@progbits
	.align 2
	.type	_GLOBAL__sub_D_glConfig, @function
_GLOBAL__sub_D_glConfig:
.LFB2857:
	.loc 3 1441 0
	.cfi_startproc
	.loc 3 1441 0
	li 3,0
	b _Z41__static_initialization_and_destruction_0ii.constprop.22
	.cfi_endproc
.LFE2857:
	.size	_GLOBAL__sub_D_glConfig, .-_GLOBAL__sub_D_glConfig
	.section	.dtors,"aw",@progbits
	.align 2
	.long	_GLOBAL__sub_D_glConfig
	.weak	_ZTS9idWinding
	.section	.rodata._ZTS9idWinding,"aG",@progbits,_ZTS9idWinding,comdat
	.align 2
	.type	_ZTS9idWinding, @object
	.size	_ZTS9idWinding, 11
_ZTS9idWinding:
	.string	"9idWinding"
	.weak	_ZTI9idWinding
	.section	.sdata._ZTI9idWinding,"awG",@progbits,_ZTI9idWinding,comdat
	.align 2
	.type	_ZTI9idWinding, @object
	.size	_ZTI9idWinding, 8
_ZTI9idWinding:
	.long	_ZTVN10__cxxabiv117__class_type_infoE+8
	.long	_ZTS9idWinding
	.weak	_ZTS14idFixedWinding
	.section	.rodata._ZTS14idFixedWinding,"aG",@progbits,_ZTS14idFixedWinding,comdat
	.align 2
	.type	_ZTS14idFixedWinding, @object
	.size	_ZTS14idFixedWinding, 17
_ZTS14idFixedWinding:
	.string	"14idFixedWinding"
	.weak	_ZTI14idFixedWinding
	.section	.rodata._ZTI14idFixedWinding,"aG",@progbits,_ZTI14idFixedWinding,comdat
	.align 2
	.type	_ZTI14idFixedWinding, @object
	.size	_ZTI14idFixedWinding, 12
_ZTI14idFixedWinding:
	.long	_ZTVN10__cxxabiv120__si_class_type_infoE+8
	.long	_ZTS14idFixedWinding
	.long	_ZTI9idWinding
	.weak	_ZTS19idRenderSystemLocal
	.section	.rodata._ZTS19idRenderSystemLocal,"aG",@progbits,_ZTS19idRenderSystemLocal,comdat
	.align 2
	.type	_ZTS19idRenderSystemLocal, @object
	.size	_ZTS19idRenderSystemLocal, 22
_ZTS19idRenderSystemLocal:
	.string	"19idRenderSystemLocal"
	.weak	_ZTI19idRenderSystemLocal
	.section	.rodata._ZTI19idRenderSystemLocal,"aG",@progbits,_ZTI19idRenderSystemLocal,comdat
	.align 2
	.type	_ZTI19idRenderSystemLocal, @object
	.size	_ZTI19idRenderSystemLocal, 12
_ZTI19idRenderSystemLocal:
	.long	_ZTVN10__cxxabiv120__si_class_type_infoE+8
	.long	_ZTS19idRenderSystemLocal
	.long	_ZTI14idRenderSystem
	.weak	_ZTV9idWinding
	.section	.rodata._ZTV9idWinding,"aG",@progbits,_ZTV9idWinding,comdat
	.align 3
	.type	_ZTV9idWinding, @object
	.size	_ZTV9idWinding, 24
_ZTV9idWinding:
	.long	0
	.long	_ZTI9idWinding
	.long	_ZN9idWindingD1Ev
	.long	_ZN9idWindingD0Ev
	.long	_ZN9idWinding5ClearEv
	.long	_ZN9idWinding10ReAllocateEib
	.weak	_ZTV14idFixedWinding
	.section	.rodata._ZTV14idFixedWinding,"aG",@progbits,_ZTV14idFixedWinding,comdat
	.align 3
	.type	_ZTV14idFixedWinding, @object
	.size	_ZTV14idFixedWinding, 24
_ZTV14idFixedWinding:
	.long	0
	.long	_ZTI14idFixedWinding
	.long	_ZN14idFixedWindingD1Ev
	.long	_ZN14idFixedWindingD0Ev
	.long	_ZN14idFixedWinding5ClearEv
	.long	_ZN14idFixedWinding10ReAllocateEib
	.weak	_ZTV19idRenderSystemLocal
	.section	.rodata._ZTV19idRenderSystemLocal,"aG",@progbits,_ZTV19idRenderSystemLocal,comdat
	.align 3
	.type	_ZTV19idRenderSystemLocal, @object
	.size	_ZTV19idRenderSystemLocal, 160
_ZTV19idRenderSystemLocal:
	.long	0
	.long	_ZTI19idRenderSystemLocal
	.long	_ZN19idRenderSystemLocalD1Ev
	.long	_ZN19idRenderSystemLocalD0Ev
	.long	_ZN19idRenderSystemLocal4InitEv
	.long	_ZN19idRenderSystemLocal8ShutdownEv
	.long	_ZN19idRenderSystemLocal10InitOpenGLEv
	.long	_ZN19idRenderSystemLocal14ShutdownOpenGLEv
	.long	_ZNK19idRenderSystemLocal15IsOpenGLRunningEv
	.long	_ZNK19idRenderSystemLocal12IsFullScreenEv
	.long	_ZNK19idRenderSystemLocal14GetScreenWidthEv
	.long	_ZNK19idRenderSystemLocal15GetScreenHeightEv
	.long	_ZN19idRenderSystemLocal16AllocRenderWorldEv
	.long	_ZN19idRenderSystemLocal15FreeRenderWorldEP13idRenderWorld
	.long	_ZN19idRenderSystemLocal14BeginLevelLoadEv
	.long	_ZN19idRenderSystemLocal12EndLevelLoadEv
	.long	_ZN19idRenderSystemLocal12RegisterFontEPKcR12fontInfoEx_t
	.long	_ZN19idRenderSystemLocal8SetColorERK6idVec4
	.long	_ZN19idRenderSystemLocal9SetColor4Effff
	.long	_ZN19idRenderSystemLocal14DrawStretchPicEPK10idDrawVertPKiiiPK10idMaterialbffff
	.long	_ZN19idRenderSystemLocal14DrawStretchPicEffffffffPK10idMaterial
	.long	_ZN19idRenderSystemLocal14DrawStretchTriE6idVec2S0_S0_S0_S0_S0_PK10idMaterial
	.long	_ZN19idRenderSystemLocal35GlobalToNormalizedDeviceCoordinatesERK6idVec3RS0_
	.long	_ZN19idRenderSystemLocal13GetGLSettingsERiS0_
	.long	_ZN19idRenderSystemLocal12PrintMemInfoEP9MemInfo_t
	.long	_ZN19idRenderSystemLocal13DrawSmallCharEiiiPK10idMaterial
	.long	_ZN19idRenderSystemLocal18DrawSmallStringExtEiiPKcRK6idVec4bPK10idMaterial
	.long	_ZN19idRenderSystemLocal11DrawBigCharEiiiPK10idMaterial
	.long	_ZN19idRenderSystemLocal16DrawBigStringExtEiiPKcRK6idVec4bPK10idMaterial
	.long	_ZN19idRenderSystemLocal13WriteDemoPicsEv
	.long	_ZN19idRenderSystemLocal12DrawDemoPicsEv
	.long	_ZN19idRenderSystemLocal10BeginFrameEii
	.long	_ZN19idRenderSystemLocal8EndFrameEPiS0_
	.long	_ZN19idRenderSystemLocal14TakeScreenshotEiiPKciP12renderView_s
	.long	_ZN19idRenderSystemLocal14CropRenderSizeEiibb
	.long	_ZN19idRenderSystemLocal20CaptureRenderToImageEPKc
	.long	_ZN19idRenderSystemLocal19CaptureRenderToFileEPKcb
	.long	_ZN19idRenderSystemLocal6UnCropEv
	.long	_ZN19idRenderSystemLocal11GetCardCapsERbS0_
	.long	_ZN19idRenderSystemLocal11UploadImageEPKcPKhii
	.globl r_vidModes
	.globl qglDepthBoundsEXT
	.globl qglProgramLocalParameter4fvARB
	.globl qglProgramEnvParameter4fvARB
	.globl qglGenProgramsARB
	.globl qglBindProgramARB
	.globl qglProgramStringARB
	.globl qglDisableVertexAttribArrayARB
	.globl qglEnableVertexAttribArrayARB
	.globl qglVertexAttribPointerARB
	.globl qglGetBufferPointervARB
	.globl qglGetBufferParameterivARB
	.globl qglUnmapBufferARB
	.globl qglMapBufferARB
	.globl qglGetBufferSubDataARB
	.globl qglBufferSubDataARB
	.globl qglBufferDataARB
	.globl qglIsBufferARB
	.globl qglGenBuffersARB
	.globl qglDeleteBuffersARB
	.globl qglBindBufferARB
	.globl qglGetCompressedTexImageARB
	.globl qglCompressedTexImage2DARB
	.globl qglStencilFuncSeparateATI
	.globl qglStencilOpSeparateATI
	.globl qglActiveStencilFaceEXT
	.globl qglSetFragmentShaderConstantATI
	.globl qglAlphaFragmentOp3ATI
	.globl qglAlphaFragmentOp2ATI
	.globl qglAlphaFragmentOp1ATI
	.globl qglColorFragmentOp3ATI
	.globl qglColorFragmentOp2ATI
	.globl qglColorFragmentOp1ATI
	.globl qglSampleMapATI
	.globl qglPassTexCoordATI
	.globl qglEndFragmentShaderATI
	.globl qglBeginFragmentShaderATI
	.globl qglDeleteFragmentShaderATI
	.globl qglBindFragmentShaderATI
	.globl qglGenFragmentShadersATI
	.globl qglColorTableEXT
	.globl qglTexImage3D
	.globl qFreeMemoryNV
	.globl qAllocateMemoryNV
	.globl qglVertexArrayRangeNV
	.globl qglFinalCombinerInputNV
	.globl qglCombinerOutputNV
	.globl qglCombinerInputNV
	.globl qglCombinerParameteriNV
	.globl qglCombinerParameterfNV
	.globl qglCombinerParameterivNV
	.globl qglCombinerParameterfvNV
	.globl qglClientActiveTextureARB
	.globl qglActiveTextureARB
	.globl qglMultiTexCoord2fvARB
	.globl qglMultiTexCoord2fARB
	.globl r_debugRenderToTexture
	.globl r_materialOverride
	.globl r_debugPolygonFilled
	.globl r_debugArrowStep
	.globl r_debugLineWidth
	.globl r_debugLineDepthTest
	.globl r_cgFragmentProfile
	.globl r_cgVertexProfile
	.globl r_jointNameOffset
	.globl r_jointNameScale
	.globl r_showSkel
	.globl r_useEntityCallbacks
	.globl r_lockSurfaces
	.globl r_showOverDraw
	.globl r_showTextureVectors
	.globl r_showAlloc
	.globl r_showDominantTri
	.globl r_showTangentSpace
	.globl r_showTexturePolarity
	.globl r_showEdges
	.globl r_showPrimitives
	.globl r_showSurfaces
	.globl r_showDepth
	.globl r_showInteractions
	.globl r_showCull
	.globl r_showMemory
	.globl r_showNormals
	.globl r_showSurfaceInfo
	.globl r_showTris
	.globl r_showViewEntitys
	.globl r_showLightCount
	.globl r_showInteractionScissors
	.globl r_showInteractionFrustums
	.globl r_showEntityScissors
	.globl r_showLightScissors
	.globl r_showShadowCount
	.globl r_showShadows
	.globl r_showLights
	.globl r_showSmp
	.globl r_showImages
	.globl r_showIntensity
	.globl r_showTrace
	.globl r_showDefs
	.globl r_showLightScale
	.globl r_showDynamic
	.globl r_showDemo
	.globl r_showUpdates
	.globl r_showVertexColor
	.globl r_showSilhouette
	.globl r_showUnsmoothedTangents
	.globl r_showPortals
	.globl r_lightAllBackFaces
	.globl r_orderIndexes
	.globl r_forceLoadImages
	.globl r_singleArea
	.globl r_singleSurface
	.globl r_singleEntity
	.globl r_singleLight
	.globl r_usePortals
	.globl r_demonstrateBug
	.globl r_screenFraction
	.globl r_useDepthBoundsTest
	.globl r_useCombinerDisplayLists
	.globl r_useScissor
	.globl r_useOptimizedShadows
	.globl r_useExternalShadows
	.globl r_flareSize
	.globl r_lightSourceRadius
	.globl r_lightScale
	.globl r_testStepGamma
	.globl r_testGammaBias
	.globl r_testGamma
	.globl r_testARBProgram
	.globl r_shadows
	.globl r_subviewOnly
	.globl r_skipParticles
	.globl r_skipGuiShaders
	.globl r_skipSubviews
	.globl r_frontBuffer
	.globl r_shadowPolygonFactor
	.globl r_shadowPolygonOffset
	.globl r_offsetUnits
	.globl r_offsetFactor
	.globl r_clear
	.globl r_logFile
	.globl r_useFrustumFarDistance
	.globl r_useShadowCulling
	.globl r_useInteractionScissors
	.globl r_useInteractionCulling
	.globl r_useEntityScissors
	.globl r_useEntityCulling
	.globl r_useClippedLightScissors
	.globl r_useLightScissors
	.globl r_useLightCulling
	.globl r_useCulling
	.globl r_usePreciseTriangleInteractions
	.globl r_ignore2
	.globl r_ignore
	.globl r_skipROQ
	.globl r_skipDiffuse
	.globl r_skipBump
	.globl r_skipSpecular
	.globl r_skipOverlays
	.globl r_skipUpdates
	.globl r_skipFrontEnd
	.globl r_skipDeforms
	.globl r_skipFogLights
	.globl r_skipBlendLights
	.globl r_skipNewAmbient
	.globl r_skipAmbient
	.globl r_skipTranslucent
	.globl r_skipRenderContext
	.globl r_skipRender
	.globl r_skipBackEnd
	.globl r_skipCopyTexture
	.globl r_skipDynamicTextures
	.globl r_skipInteractions
	.globl r_skipLightScale
	.globl r_skipPostProcess
	.globl r_skipSuppress
	.globl r_jitter
	.globl r_renderer
	.globl r_brightness
	.globl r_gamma
	.globl r_swapInterval
	.globl r_finish
	.globl r_ignoreGLErrors
	.globl r_znear
	.globl r_useInfiniteFarZ
	.globl r_useStateCaching
	.globl r_useIndexBuffers
	.globl r_useVertexBuffers
	.globl r_useCachedDynamicModels
	.globl r_useDeferredTangents
	.globl r_useTwoSidedStencil
	.globl r_useTurboShadow
	.globl r_useInteractionTable
	.globl r_useShadowSurfaceScissor
	.globl r_useShadowVertexProgram
	.globl r_useShadowProjectedCull
	.globl r_useNodeCommonChildren
	.globl r_useSilRemap
	.globl r_useTripleTextureARB
	.globl r_useConstantMaterials
	.globl r_useNV20MonoLights
	.globl r_checkBounds
	.globl r_singleTriangle
	.globl r_customHeight
	.globl r_customWidth
	.globl r_fullscreen
	.globl r_displayRefresh
	.globl r_mode
	.globl r_multiSamples
	.globl r_useLightPortalFlow
	.globl r_glDriver
	.globl r_inhibitFragmentProgram
	.globl r_rendererArgs
	.globl glConfig
	.weak	_ZTV6idCVar
	.section	.rodata._ZTV6idCVar,"aG",@progbits,_ZTV6idCVar,comdat
	.align 3
	.type	_ZTV6idCVar, @object
	.size	_ZTV6idCVar, 32
_ZTV6idCVar:
	.long	0
	.long	_ZTI6idCVar
	.long	_ZN6idCVarD1Ev
	.long	_ZN6idCVarD0Ev
	.long	_ZN6idCVar17InternalSetStringEPKc
	.long	_ZN6idCVar15InternalSetBoolEb
	.long	_ZN6idCVar18InternalSetIntegerEi
	.long	_ZN6idCVar16InternalSetFloatEf
	.weak	_ZTI14idRenderSystem
	.section	.sdata._ZTI14idRenderSystem,"awG",@progbits,_ZTI14idRenderSystem,comdat
	.align 2
	.type	_ZTI14idRenderSystem, @object
	.size	_ZTI14idRenderSystem, 8
_ZTI14idRenderSystem:
	.long	_ZTVN10__cxxabiv117__class_type_infoE+8
	.long	_ZTS14idRenderSystem
	.weak	_ZTI6idCVar
	.section	.sdata._ZTI6idCVar,"awG",@progbits,_ZTI6idCVar,comdat
	.align 2
	.type	_ZTI6idCVar, @object
	.size	_ZTI6idCVar, 8
_ZTI6idCVar:
	.long	_ZTVN10__cxxabiv117__class_type_infoE+8
	.long	_ZTS6idCVar
	.weak	_ZTS14idRenderSystem
	.section	.rodata._ZTS14idRenderSystem,"aG",@progbits,_ZTS14idRenderSystem,comdat
	.align 2
	.type	_ZTS14idRenderSystem, @object
	.size	_ZTS14idRenderSystem, 17
_ZTS14idRenderSystem:
	.string	"14idRenderSystem"
	.weak	_ZTS6idCVar
	.section	.sdata._ZTS6idCVar,"awG",@progbits,_ZTS6idCVar,comdat
	.align 2
	.type	_ZTS6idCVar, @object
	.size	_ZTS6idCVar, 8
_ZTS6idCVar:
	.string	"6idCVar"
	.weak	_ZN6idCVarD1Ev
	.set	_ZN6idCVarD1Ev,_ZN6idCVarD2Ev
	.weak	_ZN9idWindingD1Ev
	.set	_ZN9idWindingD1Ev,_ZN9idWindingD2Ev
	.weak	_ZN14idFixedWindingD1Ev
	.set	_ZN14idFixedWindingD1Ev,_ZN14idFixedWindingD2Ev
	.weak	_ZN6idCVarC1EPKcS1_iS1_PFvRK9idCmdArgsPFvS1_EE
	.set	_ZN6idCVarC1EPKcS1_iS1_PFvRK9idCmdArgsPFvS1_EE,_ZN6idCVarC2EPKcS1_iS1_PFvRK9idCmdArgsPFvS1_EE
	.weak	_ZN6idCVarC1EPKcS1_iS1_ffPFvRK9idCmdArgsPFvS1_EE
	.set	_ZN6idCVarC1EPKcS1_iS1_ffPFvRK9idCmdArgsPFvS1_EE,_ZN6idCVarC2EPKcS1_iS1_ffPFvRK9idCmdArgsPFvS1_EE
	.section	.rodata.cst4,"aM",@progbits,4
	.align 2
.LC10:
	.4byte	1065353216
.LC11:
	.4byte	-1082130432
.LC27:
	.4byte	1128792064
.LC76:
	.4byte	981668463
.LC85:
	.4byte	1056964608
.LC86:
	.4byte	1077936128
.LC88:
	.4byte	1073741824
.LC160:
	.4byte	-1073741824
.LC194:
	.4byte	1128464384
.LC266:
	.4byte	1082130432
.LC334:
	.4byte	1123024896
.LC340:
	.4byte	0
.LC353:
	.4byte	1501560836
.LC354:
	.4byte	1132396544
.LC356:
	.4byte	1199570688
.LC383:
	.4byte	1038845216
.LC384:
	.4byte	1063549665
	.section	".data"
	.align 2
	.set	.LANCHOR1,. + 0
	.type	r_rendererArgs, @object
	.size	r_rendererArgs, 36
r_rendererArgs:
	.long	.LC90
	.long	.LC400
	.long	.LC401
	.long	.LC402
	.long	.LC403
	.long	.LC404
	.long	.LC405
	.long	.LC406
	.long	0
	.type	r_vidModes, @object
	.size	r_vidModes, 108
r_vidModes:
	.long	.LC391
	.long	320
	.long	240
	.long	.LC392
	.long	400
	.long	300
	.long	.LC393
	.long	512
	.long	384
	.long	.LC394
	.long	640
	.long	480
	.long	.LC395
	.long	800
	.long	600
	.long	.LC396
	.long	1024
	.long	768
	.long	.LC397
	.long	1152
	.long	864
	.long	.LC398
	.long	1280
	.long	1024
	.long	.LC399
	.long	1600
	.long	1200
	.section	.rodata.str1.4,"aMS",@progbits,1
	.align 2
.LC0:
	.string	""
	.zero	3
.LC1:
	.string	"%s 0"
	.zero	3
.LC2:
	.string	"%s 1"
	.zero	3
.LC3:
	.string	"%s %d"
	.zero	2
.LC4:
	.string	"%s %s"
	.zero	2
.LC5:
	.string	"void idRenderSystemLocal::GetCardCaps( bool &oldCard, bool &nv10or20 )\r\n"
	.zero	3
.LC6:
	.string	"void GfxInfo_f( const idCmdArgs &args )\r\n"
	.zero	2
.LC7:
	.string	"void R_ScreenShot_f( const idCmdArgs &args )\r\n"
	.zero	1
.LC8:
	.string	"void idRenderSystemLocal::TakeScreenshot( int width, int height, const char *fileName, int blends, renderView_t *ref )\r\n"
	.zero	3
.LC9:
	.string	"void R_Benchmark_f( const idCmdArgs &args )\r\n"
	.zero	2
.LC12:
	.string	"r_inhibitFragmentProgram"
	.zero	3
.LC13:
	.string	"0"
	.zero	2
.LC14:
	.string	"ignore the fragment program extension"
	.zero	2
.LC15:
	.string	"r_glDriver"
	.zero	1
.LC16:
	.string	"\"opengl32\", etc."
	.zero	3
.LC17:
	.string	"r_useLightPortalFlow"
	.zero	3
.LC18:
	.string	"1"
	.zero	2
.LC19:
	.string	"use a more precise area reference determination"
.LC20:
	.string	"r_multiSamples"
	.zero	1
.LC21:
	.string	"number of antialiasing samples"
	.zero	1
.LC22:
	.string	"r_mode"
	.zero	1
.LC23:
	.string	"3"
	.zero	2
.LC24:
	.string	"video mode number"
	.zero	2
.LC25:
	.string	"r_displayRefresh"
	.zero	3
.LC26:
	.string	"optional display refresh rate option for vid mode"
	.zero	2
.LC28:
	.string	"r_fullscreen"
	.zero	3
.LC29:
	.string	"0 = windowed, 1 = full screen"
	.zero	2
.LC30:
	.string	"r_customWidth"
	.zero	2
.LC31:
	.string	"720"
.LC32:
	.string	"custom screen width. set r_mode to -1 to activate"
	.zero	2
.LC33:
	.string	"r_customHeight"
	.zero	1
.LC34:
	.string	"486"
.LC35:
	.string	"custom screen height. set r_mode to -1 to activate"
	.zero	1
.LC36:
	.string	"r_singleTriangle"
	.zero	3
.LC37:
	.string	"only draw a single triangle per primitive"
	.zero	2
.LC38:
	.string	"r_checkBounds"
	.zero	2
.LC39:
	.string	"compare all surface bounds with precalculated ones"
	.zero	1
.LC40:
	.string	"r_useNV20MonoLights"
.LC41:
	.string	"use pass optimization for mono lights"
	.zero	2
.LC42:
	.string	"r_useConstantMaterials"
	.zero	1
.LC43:
	.string	"use pre-calculated material registers if possible"
	.zero	2
.LC44:
	.string	"r_useTripleTextureARB"
	.zero	2
.LC45:
	.string	"cards with 3+ texture units do a two pass instead of three pass"
.LC46:
	.string	"r_useSilRemap"
	.zero	2
.LC47:
	.string	"consider verts with the same XYZ, but different ST the same for shadows"
.LC48:
	.string	"r_useNodeCommonChildren"
.LC49:
	.string	"stop pushing reference bounds early when possible"
	.zero	2
.LC50:
	.string	"r_useShadowProjectedCull"
	.zero	3
.LC51:
	.string	"discard triangles outside light volume before shadowing"
.LC52:
	.string	"r_useShadowVertexProgram"
	.zero	3
.LC53:
	.string	"do the shadow projection in the vertex program on capable cards"
.LC54:
	.string	"r_useShadowSurfaceScissor"
	.zero	2
.LC55:
	.string	"scissor shadows by the scissor rect of the interaction surfaces"
.LC56:
	.string	"r_useInteractionTable"
	.zero	2
.LC57:
	.string	"create a full entityDefs * lightDefs table to make finding interactions faster"
	.zero	1
.LC58:
	.string	"r_useTurboShadow"
	.zero	3
.LC59:
	.string	"use the infinite projection with W technique for dynamic shadows"
	.zero	3
.LC60:
	.string	"r_useTwoSidedStencil"
	.zero	3
.LC61:
	.string	"do stencil shadows in one pass with different ops on each side"
	.zero	1
.LC62:
	.string	"r_useDeferredTangents"
	.zero	2
.LC63:
	.string	"defer tangents calculations after deform"
	.zero	3
.LC64:
	.string	"r_useCachedDynamicModels"
	.zero	3
.LC65:
	.string	"cache snapshots of dynamic models"
	.zero	2
.LC66:
	.string	"r_useVertexBuffers"
	.zero	1
.LC67:
	.string	"use ARB_vertex_buffer_object for vertexes"
	.zero	2
.LC68:
	.string	"r_useIndexBuffers"
	.zero	2
.LC69:
	.string	"use ARB_vertex_buffer_object for indexes"
	.zero	3
.LC70:
	.string	"r_useStateCaching"
	.zero	2
.LC71:
	.string	"avoid redundant state changes in GL_*() calls"
	.zero	2
.LC72:
	.string	"r_useInfiniteFarZ"
	.zero	2
.LC73:
	.string	"use the no-far-clip-plane trick"
.LC74:
	.string	"r_znear"
.LC75:
	.string	"near Z clip plane distance"
	.zero	1
.LC77:
	.string	"r_ignoreGLErrors"
	.zero	3
.LC78:
	.string	"ignore GL errors"
	.zero	3
.LC79:
	.string	"r_finish"
	.zero	3
.LC80:
	.string	"force a call to glFinish() every frame"
	.zero	1
.LC81:
	.string	"r_swapInterval"
	.zero	1
.LC82:
	.string	"changes wglSwapIntarval"
.LC83:
	.string	"r_gamma"
.LC84:
	.string	"changes gamma tables"
	.zero	3
.LC87:
	.string	"r_brightness"
	.zero	3
.LC89:
	.string	"r_renderer"
	.zero	1
.LC90:
	.string	"best"
	.zero	3
.LC91:
	.string	"hardware specific renderer path to use"
	.zero	1
.LC92:
	.string	"r_jitter"
	.zero	3
.LC93:
	.string	"randomly subpixel jitter the projection matrix"
	.zero	1
.LC94:
	.string	"r_skipSuppress"
	.zero	1
.LC95:
	.string	"ignore the per-view suppressions"
	.zero	3
.LC96:
	.string	"r_skipPostProcess"
	.zero	2
.LC97:
	.string	"skip all post-process renderings"
	.zero	3
.LC98:
	.string	"r_skipLightScale"
	.zero	3
.LC99:
	.string	"don't do any post-interaction light scaling, makes things dim on low-dynamic range cards"
	.zero	3
.LC100:
	.string	"r_skipInteractions"
	.zero	1
.LC101:
	.string	"skip all light/surface interaction drawing"
	.zero	1
.LC102:
	.string	"r_skipDynamicTextures"
	.zero	2
.LC103:
	.string	"don't dynamically create textures"
	.zero	2
.LC104:
	.string	"r_skipCopyTexture"
	.zero	2
.LC105:
	.string	"do all rendering, but don't actually copyTexSubImage2D"
	.zero	1
.LC106:
	.string	"r_skipBackEnd"
	.zero	2
.LC107:
	.string	"don't draw anything"
.LC108:
	.string	"r_skipRender"
	.zero	3
.LC109:
	.string	"skip 3D rendering, but pass 2D"
	.zero	1
.LC110:
	.string	"r_skipRenderContext"
.LC111:
	.string	"NULL the rendering context during backend 3D rendering"
	.zero	1
.LC112:
	.string	"r_skipTranslucent"
	.zero	2
.LC113:
	.string	"skip the translucent interaction rendering"
	.zero	1
.LC114:
	.string	"r_skipAmbient"
	.zero	2
.LC115:
	.string	"bypasses all non-interaction drawing"
	.zero	3
.LC116:
	.string	"r_skipNewAmbient"
	.zero	3
.LC117:
	.string	"bypasses all vertex/fragment program ambient drawing"
	.zero	3
.LC118:
	.string	"r_skipBlendLights"
	.zero	2
.LC119:
	.string	"skip all blend lights"
	.zero	2
.LC120:
	.string	"r_skipFogLights"
.LC121:
	.string	"skip all fog lights"
.LC122:
	.string	"r_skipDeforms"
	.zero	2
.LC123:
	.string	"leave all deform materials in their original state"
	.zero	1
.LC124:
	.string	"r_skipFrontEnd"
	.zero	1
.LC125:
	.string	"bypasses all front end work, but 2D gui rendering still draws"
	.zero	2
.LC126:
	.string	"r_skipUpdates"
	.zero	2
.LC127:
	.string	"1 = don't accept any entity or light updates, making everything static"
	.zero	1
.LC128:
	.string	"r_skipOverlays"
	.zero	1
.LC129:
	.string	"skip overlay surfaces"
	.zero	2
.LC130:
	.string	"r_skipSpecular"
	.zero	1
.LC131:
	.string	"use black for specular1"
.LC132:
	.string	"r_skipBump"
	.zero	1
.LC133:
	.string	"uses a flat surface instead of the bump map"
.LC134:
	.string	"r_skipDiffuse"
	.zero	2
.LC135:
	.string	"use black for diffuse"
	.zero	2
.LC136:
	.string	"r_skipROQ"
	.zero	2
.LC137:
	.string	"skip ROQ decoding"
	.zero	2
.LC138:
	.string	"r_ignore"
	.zero	3
.LC139:
	.string	"used for random debugging without defining new vars"
.LC140:
	.string	"r_ignore2"
	.zero	2
.LC141:
	.string	"r_usePreciseTriangleInteractions"
	.zero	3
.LC142:
	.string	"1 = do winding clipping to determine if each ambiguous tri should be lit"
	.zero	3
.LC143:
	.string	"r_useCulling"
	.zero	3
.LC144:
	.string	"2"
	.zero	2
.LC145:
	.string	"0 = none, 1 = sphere, 2 = sphere + box"
	.zero	1
.LC146:
	.string	"r_useLightCulling"
	.zero	2
.LC147:
	.string	"0 = none, 1 = box, 2 = exact clip of polyhedron faces, 3 = also areas"
	.zero	2
.LC148:
	.string	"r_useLightScissors"
	.zero	1
.LC149:
	.string	"1 = use custom scissor rectangle for each light"
.LC150:
	.string	"r_useClippedLightScissors"
	.zero	2
.LC151:
	.string	"0 = full screen when near clipped, 1 = exact when near clipped, 2 = exact always"
	.zero	3
.LC152:
	.string	"r_useEntityCulling"
	.zero	1
.LC153:
	.string	"0 = none, 1 = box"
	.zero	2
.LC154:
	.string	"r_useEntityScissors"
.LC155:
	.string	"1 = use custom scissor rectangle for each entity"
	.zero	3
.LC156:
	.string	"r_useInteractionCulling"
.LC157:
	.string	"1 = cull interactions"
	.zero	2
.LC158:
	.string	"r_useInteractionScissors"
	.zero	3
.LC159:
	.string	"1 = use a custom scissor rectangle for each shadow interaction, 2 = also crop using portal scissors"
.LC161:
	.string	"r_useShadowCulling"
	.zero	1
.LC162:
	.string	"try to cull shadows from partially visible lights"
	.zero	2
.LC163:
	.string	"r_useFrustumFarDistance"
.LC164:
	.string	"if != 0 force the view frustum far distance to this distance"
	.zero	3
.LC165:
	.string	"r_logFile"
	.zero	2
.LC166:
	.string	"number of frames to emit GL logs"
	.zero	3
.LC167:
	.string	"r_clear"
.LC168:
	.string	"force screen clear every frame, 1 = purple, 2 = black, 'r g b' = custom"
.LC169:
	.string	"r_offsetfactor"
	.zero	1
.LC170:
	.string	"polygon offset parameter"
	.zero	3
.LC171:
	.string	"r_offsetunits"
	.zero	2
.LC172:
	.string	"-600"
	.zero	3
.LC173:
	.string	"r_shadowPolygonOffset"
	.zero	2
.LC174:
	.string	"-1"
	.zero	1
.LC175:
	.string	"bias value added to depth test for stencil shadow drawing"
	.zero	2
.LC176:
	.string	"r_shadowPolygonFactor"
	.zero	2
.LC177:
	.string	"scale value for stencil shadow drawing"
	.zero	1
.LC178:
	.string	"r_frontBuffer"
	.zero	2
.LC179:
	.string	"draw to front buffer for debugging"
	.zero	1
.LC180:
	.string	"r_skipSubviews"
	.zero	1
.LC181:
	.string	"1 = don't render any gui elements on surfaces"
	.zero	2
.LC182:
	.string	"r_skipGuiShaders"
	.zero	3
.LC183:
	.string	"1 = skip all gui elements on surfaces, 2 = skip drawing but still handle events, 3 = draw but skip events"
	.zero	2
.LC184:
	.string	"r_skipParticles"
.LC185:
	.string	"1 = skip all particle systems"
	.zero	2
.LC186:
	.string	"r_subviewOnly"
	.zero	2
.LC187:
	.string	"1 = don't render main view, allowing subviews to be debugged"
	.zero	3
.LC188:
	.string	"r_shadows"
	.zero	2
.LC189:
	.string	"enable shadows"
	.zero	1
.LC190:
	.string	"r_testARBProgram"
	.zero	3
.LC191:
	.string	"experiment with vertex/fragment programs"
	.zero	3
.LC192:
	.string	"r_testGamma"
.LC193:
	.string	"if > 0 draw a grid pattern to test gamma levels"
.LC195:
	.string	"r_testGammaBias"
.LC196:
	.string	"r_testStepGamma"
.LC197:
	.string	"r_lightScale"
	.zero	3
.LC198:
	.string	"all light intensities are multiplied by this"
	.zero	3
.LC199:
	.string	"r_lightSourceRadius"
.LC200:
	.string	"for soft-shadow sampling"
	.zero	3
.LC201:
	.string	"r_flareSize"
.LC202:
	.string	"scale the flare deforms from the material def"
	.zero	2
.LC203:
	.string	"r_useExternalShadows"
	.zero	3
.LC204:
	.string	"1 = skip drawing caps when outside the light volume, 2 = force to no caps for testing"
	.zero	2
.LC205:
	.string	"r_useOptimizedShadows"
	.zero	2
.LC206:
	.string	"use the dmap generated static shadow volumes"
	.zero	3
.LC207:
	.string	"r_useScissor"
	.zero	3
.LC208:
	.string	"scissor clip as portals and lights are processed"
	.zero	3
.LC209:
	.string	"r_useCombinerDisplayLists"
	.zero	2
.LC210:
	.string	"put all nvidia register combiner programming in display lists"
	.zero	2
.LC211:
	.string	"r_useDepthBoundsTest"
	.zero	3
.LC212:
	.string	"use depth bounds test to reduce shadow fill"
.LC213:
	.string	"r_screenFraction"
	.zero	3
.LC214:
	.string	"100"
.LC215:
	.string	"for testing fill rate, the resolution of the entire screen can be changed"
	.zero	2
.LC216:
	.string	"r_demonstrateBug"
	.zero	3
.LC217:
	.string	"used during development to show IHV's their problems"
	.zero	3
.LC218:
	.string	"r_usePortals"
	.zero	3
.LC219:
	.string	" 1 = use portals to perform area culling, otherwise draw everything"
.LC220:
	.string	"r_singleLight"
	.zero	2
.LC221:
	.string	"suppress all but one light"
	.zero	1
.LC222:
	.string	"r_singleEntity"
	.zero	1
.LC223:
	.string	"suppress all but one entity"
.LC224:
	.string	"r_singleSurface"
.LC225:
	.string	"suppress all but one surface on each entity"
.LC226:
	.string	"r_singleArea"
	.zero	3
.LC227:
	.string	"only draw the portal area the view is actually in"
	.zero	2
.LC228:
	.string	"r_forceLoadImages"
	.zero	2
.LC229:
	.string	"draw all images to screen after registration"
	.zero	3
.LC230:
	.string	"r_orderIndexes"
	.zero	1
.LC231:
	.string	"perform index reorganization to optimize vertex use"
.LC232:
	.string	"r_lightAllBackFaces"
.LC233:
	.string	"light all the back faces, even when they would be shadowed"
	.zero	1
.LC234:
	.string	"r_showPortals"
	.zero	2
.LC235:
	.string	"draw portal outlines in color based on passed / not passed"
	.zero	1
.LC236:
	.string	"r_showUnsmoothedTangents"
	.zero	3
.LC237:
	.string	"if 1, put all nvidia register combiner programming in display lists"
.LC238:
	.string	"r_showSilhouette"
	.zero	3
.LC239:
	.string	"highlight edges that are casting shadow planes"
	.zero	1
.LC240:
	.string	"r_showVertexColor"
	.zero	2
.LC241:
	.string	"draws all triangles with the solid vertex color"
.LC242:
	.string	"r_showUpdates"
	.zero	2
.LC243:
	.string	"report entity and light updates and ref counts"
	.zero	1
.LC244:
	.string	"r_showDemo"
	.zero	1
.LC245:
	.string	"report reads and writes to the demo file"
	.zero	3
.LC246:
	.string	"r_showDynamic"
	.zero	2
.LC247:
	.string	"report stats on dynamic surface generation"
	.zero	1
.LC248:
	.string	"r_showLightScale"
	.zero	3
.LC249:
	.string	"report the scale factor applied to drawing for overbrights"
	.zero	1
.LC250:
	.string	"r_showDefs"
	.zero	1
.LC251:
	.string	"report the number of modeDefs and lightDefs in view"
.LC252:
	.string	"r_showTrace"
.LC253:
	.string	"show the intersection of an eye trace with the world"
	.zero	3
.LC254:
	.string	"r_showIntensity"
.LC255:
	.string	"draw the screen colors based on intensity, red = 0, green = 128, blue = 255"
.LC256:
	.string	"r_showImages"
	.zero	3
.LC257:
	.string	"1 = show all images instead of rendering, 2 = show in proportional size"
.LC258:
	.string	"r_showSmp"
	.zero	2
.LC259:
	.string	"show which end (front or back) is blocking"
	.zero	1
.LC260:
	.string	"r_showLights"
	.zero	3
.LC261:
	.string	"1 = just print volumes numbers, highlighting ones covering the view, 2 = also draw planes of each volume, 3 = also draw edges of each volume"
	.zero	3
.LC262:
	.string	"r_showShadows"
	.zero	2
.LC263:
	.string	"1 = visualize the stencil shadow volumes, 2 = draw filled in"
	.zero	3
.LC264:
	.string	"r_showShadowCount"
	.zero	2
.LC265:
	.string	"colors screen based on shadow volume depth complexity, >= 2 = print overdraw count based on stencil index values, 3 = only show turboshadows, 4 = only show static shadows"
	.zero	1
.LC267:
	.string	"r_showLightScissors"
.LC268:
	.string	"show light scissor rectangles"
	.zero	2
.LC269:
	.string	"r_showEntityScissors"
	.zero	3
.LC270:
	.string	"show entity scissor rectangles"
	.zero	1
.LC271:
	.string	"r_showInteractionFrustums"
	.zero	2
.LC272:
	.string	"1 = show a frustum for each interaction, 2 = also draw lines to light origin, 3 = also draw entity bbox"
.LC273:
	.string	"r_showInteractionScissors"
	.zero	2
.LC274:
	.string	"1 = show screen rectangle which contains the interaction frustum, 2 = also draw construction lines"
	.zero	1
.LC275:
	.string	"r_showLightCount"
	.zero	3
.LC276:
	.string	"1 = colors surfaces based on light count, 2 = also count everything through walls, 3 = also print overdraw"
	.zero	1
.LC277:
	.string	"r_showViewEntitys"
	.zero	2
.LC278:
	.string	"1 = displays the bounding boxes of all view models, 2 = print index numbers"
.LC279:
	.string	"r_showTris"
	.zero	1
.LC280:
	.string	"enables wireframe rendering of the world, 1 = only draw visible ones, 2 = draw all front facing, 3 = draw all"
	.zero	2
.LC281:
	.string	"r_showSurfaceInfo"
	.zero	2
.LC282:
	.string	"show surface material name under crosshair"
	.zero	1
.LC283:
	.string	"r_showNormals"
	.zero	2
.LC284:
	.string	"draws wireframe normals"
.LC285:
	.string	"r_showMemory"
	.zero	3
.LC286:
	.string	"print frame memory utilization"
	.zero	1
.LC287:
	.string	"r_showCull"
	.zero	1
.LC288:
	.string	"report sphere and box culling stats"
.LC289:
	.string	"r_showInteractions"
	.zero	1
.LC290:
	.string	"report interaction generation activity"
	.zero	1
.LC291:
	.string	"r_showDepth"
.LC292:
	.string	"display the contents of the depth buffer and the depth range"
	.zero	3
.LC293:
	.string	"r_showSurfaces"
	.zero	1
.LC294:
	.string	"report surface/light/shadow counts"
	.zero	1
.LC295:
	.string	"r_showPrimitives"
	.zero	3
.LC296:
	.string	"report drawsurf/index/vertex counts"
.LC297:
	.string	"r_showEdges"
.LC298:
	.string	"draw the sil edges"
	.zero	1
.LC299:
	.string	"r_showTexturePolarity"
	.zero	2
.LC300:
	.string	"shade triangles by texture area polarity"
	.zero	3
.LC301:
	.string	"r_showTangentSpace"
	.zero	1
.LC302:
	.string	"shade triangles by tangent space, 1 = use 1st tangent vector, 2 = use 2nd tangent vector, 3 = use normal vector"
.LC303:
	.string	"r_showDominantTri"
	.zero	2
.LC304:
	.string	"draw lines from vertexes to center of dominant triangles"
	.zero	3
.LC305:
	.string	"r_showAlloc"
.LC306:
	.string	"report alloc/free counts"
	.zero	3
.LC307:
	.string	"r_showTextureVectors"
	.zero	3
.LC308:
	.string	" if > 0 draw each triangles texture (tangent) vectors"
	.zero	2
.LC309:
	.string	"r_showOverDraw"
	.zero	1
.LC310:
	.string	"1 = geometry overdraw, 2 = light interaction overdraw, 3 = geometry and light interaction overdraw"
	.zero	1
.LC311:
	.string	"r_lockSurfaces"
	.zero	1
.LC312:
	.string	"allow moving the view point without changing the composition of the scene, including culling"
	.zero	3
.LC313:
	.string	"r_useEntityCallbacks"
	.zero	3
.LC314:
	.string	"if 0, issue the callback immediately at update time, rather than defering"
	.zero	2
.LC315:
	.string	"r_showSkel"
	.zero	1
.LC316:
	.string	"draw the skeleton when model animates, 1 = draw model with skeleton, 2 = draw skeleton only"
.LC317:
	.string	"r_jointNameScale"
	.zero	3
.LC318:
	.string	"0.02"
	.zero	3
.LC319:
	.string	"size of joint names when r_showskel is set to 1"
.LC320:
	.string	"r_jointNameOffset"
	.zero	2
.LC321:
	.string	"0.5"
.LC322:
	.string	"offset of joint names when r_showskel is set to 1"
	.zero	2
.LC323:
	.string	"r_cgVertexProfile"
	.zero	2
.LC324:
	.string	"arbvp1, vp20, vp30"
	.zero	1
.LC325:
	.string	"r_cgFragmentProfile"
.LC326:
	.string	"arbfp1, fp30"
	.zero	3
.LC327:
	.string	"r_debugLineDepthTest"
	.zero	3
.LC328:
	.string	"perform depth test on debug lines"
	.zero	2
.LC329:
	.string	"r_debugLineWidth"
	.zero	3
.LC330:
	.string	"width of debug lines"
	.zero	3
.LC331:
	.string	"r_debugArrowStep"
	.zero	3
.LC332:
	.string	"120"
.LC333:
	.string	"step size of arrow cone line rotation in degrees"
	.zero	3
.LC335:
	.string	"r_debugPolygonFilled"
	.zero	3
.LC336:
	.string	"draw a filled polygon"
	.zero	2
.LC337:
	.string	"r_materialOverride"
	.zero	1
.LC338:
	.string	"overrides all materials"
.LC339:
	.string	"r_debugRenderToTexture"
	.zero	1
.LC341:
	.string	"bool R_CheckExtension( char *name )\r\n"
	.zero	2
.LC342:
	.string	"void R_TestImage_f( const idCmdArgs &args )\r\n"
	.zero	2
.LC343:
	.string	"void R_TestVideo_f( const idCmdArgs &args )\r\n"
	.zero	2
.LC344:
	.string	"void R_ReportSurfaceAreas_f( const idCmdArgs &args )\r\n"
	.zero	1
.LC345:
	.string	"void R_ReportImageDuplication_f( const idCmdArgs &args )\r\n"
	.zero	1
.LC346:
	.string	"void R_ReadTiledPixels( int width, int height, byte *buffer, renderView_t *ref = NULL )\r\n"
	.zero	2
.LC347:
	.string	"void R_ScreenshotFilename( int &lastNumber, const char *base, idStr &fileName )\r\n"
	.zero	2
.LC348:
	.string	"void R_StencilShot( void )\r\n"
	.zero	3
.LC349:
	.string	"void R_EnvShot_f( const idCmdArgs &args )\r\n"
.LC350:
	.string	"void R_SampleCubeMap( const idVec3 &dir, int size, byte *buffers[6], byte result[4] )\r\n"
.LC351:
	.string	"void R_MakeAmbientMap_f( const idCmdArgs &args )\r\n"
	.zero	1
.LC358:
	.string	"----- R_InitOpenGL -----\n"
	.zero	2
.LC359:
	.string	"R_InitOpenGL called while active"
	.zero	3
.LC360:
	.string	"Must be full screen\r\n"
	.zero	2
.LC361:
	.string	"Unable to initialize OpenGL"
.LC362:
	.string	"DRS TODO RenderSystem_init.cpp R_InitOpenGL soundSystem->InitHW()"
	.zero	2
.LC363:
	.string	"F U N N Y M A N"
.LC364:
	.string	"GX"
	.zero	1
.LC365:
	.string	"1.0"
.LC366:
	.string	"Normally GL extensions would be listed here..."
	.zero	1
.LC367:
	.string	">>> void R_CheckPortableExtensions( void ) TODO: GL render params\r\n"
.LC368:
	.string	"reloadARBprograms"
	.zero	2
.LC369:
	.string	"reloads ARB programs"
	.zero	3
.LC370:
	.string	"void R_VidRestart_f( const idCmdArgs &args )\r\n"
	.zero	1
.LC371:
	.string	"_default"
	.zero	3
.LC372:
	.string	"_default material not found"
.LC373:
	.string	"lights/defaultPointLight"
	.zero	3
.LC374:
	.string	"lights/defaultProjectedLight"
	.zero	3
.LC375:
	.string	"void R_TouchGui_f( const idCmdArgs &args )\r\n"
	.zero	3
.LC376:
	.string	">>> void R_InitCommands( void ) has TODO\r\n"
	.zero	1
.LC377:
	.string	"screenshot"
	.zero	1
.LC378:
	.string	"takes a screenshot"
	.zero	1
.LC379:
	.string	"benchmark"
	.zero	2
.LC380:
	.string	"gfxInfo"
.LC381:
	.string	"show graphics info"
	.zero	1
.LC382:
	.string	"------- Initializing renderSystem --------\n"
.LC385:
	.string	">>> Call renderModelManager->Init();\r\n"
	.zero	1
.LC386:
	.string	">>> Call SetBackEndRenderer()\r\n"
.LC387:
	.string	"renderSystem initialized.\n"
	.zero	1
.LC388:
	.string	"--------------------------------------\n"
.LC389:
	.string	"idRenderSystem::Shutdown()\n"
.LC390:
	.string	"*** CLOSING LOG ***\n"
	.zero	3
.LC391:
	.string	"Mode  0: 320x240"
	.zero	3
.LC392:
	.string	"Mode  1: 400x300"
	.zero	3
.LC393:
	.string	"Mode  2: 512x384"
	.zero	3
.LC394:
	.string	"Mode  3: 640x480"
	.zero	3
.LC395:
	.string	"Mode  4: 800x600"
	.zero	3
.LC396:
	.string	"Mode  5: 1024x768"
	.zero	2
.LC397:
	.string	"Mode  6: 1152x864"
	.zero	2
.LC398:
	.string	"Mode  7: 1280x1024"
	.zero	1
.LC399:
	.string	"Mode  8: 1600x1200"
	.zero	1
.LC400:
	.string	"arb"
.LC401:
	.string	"arb2"
	.zero	3
.LC402:
	.string	"Cg"
	.zero	1
.LC403:
	.string	"exp"
.LC404:
	.string	"nv10"
	.zero	3
.LC405:
	.string	"nv20"
	.zero	3
.LC406:
	.string	"r200"
	.section	.sbss,"aw",@nobits
	.align 2
	.type	qglDepthBoundsEXT, @object
	.size	qglDepthBoundsEXT, 4
qglDepthBoundsEXT:
	.zero	4
	.type	qglProgramLocalParameter4fvARB, @object
	.size	qglProgramLocalParameter4fvARB, 4
qglProgramLocalParameter4fvARB:
	.zero	4
	.type	qglProgramEnvParameter4fvARB, @object
	.size	qglProgramEnvParameter4fvARB, 4
qglProgramEnvParameter4fvARB:
	.zero	4
	.type	qglGenProgramsARB, @object
	.size	qglGenProgramsARB, 4
qglGenProgramsARB:
	.zero	4
	.type	qglBindProgramARB, @object
	.size	qglBindProgramARB, 4
qglBindProgramARB:
	.zero	4
	.type	qglProgramStringARB, @object
	.size	qglProgramStringARB, 4
qglProgramStringARB:
	.zero	4
	.type	qglDisableVertexAttribArrayARB, @object
	.size	qglDisableVertexAttribArrayARB, 4
qglDisableVertexAttribArrayARB:
	.zero	4
	.type	qglEnableVertexAttribArrayARB, @object
	.size	qglEnableVertexAttribArrayARB, 4
qglEnableVertexAttribArrayARB:
	.zero	4
	.type	qglVertexAttribPointerARB, @object
	.size	qglVertexAttribPointerARB, 4
qglVertexAttribPointerARB:
	.zero	4
	.type	qglGetBufferPointervARB, @object
	.size	qglGetBufferPointervARB, 4
qglGetBufferPointervARB:
	.zero	4
	.type	qglGetBufferParameterivARB, @object
	.size	qglGetBufferParameterivARB, 4
qglGetBufferParameterivARB:
	.zero	4
	.type	qglUnmapBufferARB, @object
	.size	qglUnmapBufferARB, 4
qglUnmapBufferARB:
	.zero	4
	.type	qglMapBufferARB, @object
	.size	qglMapBufferARB, 4
qglMapBufferARB:
	.zero	4
	.type	qglGetBufferSubDataARB, @object
	.size	qglGetBufferSubDataARB, 4
qglGetBufferSubDataARB:
	.zero	4
	.type	qglBufferSubDataARB, @object
	.size	qglBufferSubDataARB, 4
qglBufferSubDataARB:
	.zero	4
	.type	qglBufferDataARB, @object
	.size	qglBufferDataARB, 4
qglBufferDataARB:
	.zero	4
	.type	qglIsBufferARB, @object
	.size	qglIsBufferARB, 4
qglIsBufferARB:
	.zero	4
	.type	qglGenBuffersARB, @object
	.size	qglGenBuffersARB, 4
qglGenBuffersARB:
	.zero	4
	.type	qglDeleteBuffersARB, @object
	.size	qglDeleteBuffersARB, 4
qglDeleteBuffersARB:
	.zero	4
	.type	qglBindBufferARB, @object
	.size	qglBindBufferARB, 4
qglBindBufferARB:
	.zero	4
	.type	qglGetCompressedTexImageARB, @object
	.size	qglGetCompressedTexImageARB, 4
qglGetCompressedTexImageARB:
	.zero	4
	.type	qglCompressedTexImage2DARB, @object
	.size	qglCompressedTexImage2DARB, 4
qglCompressedTexImage2DARB:
	.zero	4
	.type	qglStencilFuncSeparateATI, @object
	.size	qglStencilFuncSeparateATI, 4
qglStencilFuncSeparateATI:
	.zero	4
	.type	qglStencilOpSeparateATI, @object
	.size	qglStencilOpSeparateATI, 4
qglStencilOpSeparateATI:
	.zero	4
	.type	qglActiveStencilFaceEXT, @object
	.size	qglActiveStencilFaceEXT, 4
qglActiveStencilFaceEXT:
	.zero	4
	.type	qglSetFragmentShaderConstantATI, @object
	.size	qglSetFragmentShaderConstantATI, 4
qglSetFragmentShaderConstantATI:
	.zero	4
	.type	qglAlphaFragmentOp3ATI, @object
	.size	qglAlphaFragmentOp3ATI, 4
qglAlphaFragmentOp3ATI:
	.zero	4
	.type	qglAlphaFragmentOp2ATI, @object
	.size	qglAlphaFragmentOp2ATI, 4
qglAlphaFragmentOp2ATI:
	.zero	4
	.type	qglAlphaFragmentOp1ATI, @object
	.size	qglAlphaFragmentOp1ATI, 4
qglAlphaFragmentOp1ATI:
	.zero	4
	.type	qglColorFragmentOp3ATI, @object
	.size	qglColorFragmentOp3ATI, 4
qglColorFragmentOp3ATI:
	.zero	4
	.type	qglColorFragmentOp2ATI, @object
	.size	qglColorFragmentOp2ATI, 4
qglColorFragmentOp2ATI:
	.zero	4
	.type	qglColorFragmentOp1ATI, @object
	.size	qglColorFragmentOp1ATI, 4
qglColorFragmentOp1ATI:
	.zero	4
	.type	qglSampleMapATI, @object
	.size	qglSampleMapATI, 4
qglSampleMapATI:
	.zero	4
	.type	qglPassTexCoordATI, @object
	.size	qglPassTexCoordATI, 4
qglPassTexCoordATI:
	.zero	4
	.type	qglEndFragmentShaderATI, @object
	.size	qglEndFragmentShaderATI, 4
qglEndFragmentShaderATI:
	.zero	4
	.type	qglBeginFragmentShaderATI, @object
	.size	qglBeginFragmentShaderATI, 4
qglBeginFragmentShaderATI:
	.zero	4
	.type	qglDeleteFragmentShaderATI, @object
	.size	qglDeleteFragmentShaderATI, 4
qglDeleteFragmentShaderATI:
	.zero	4
	.type	qglBindFragmentShaderATI, @object
	.size	qglBindFragmentShaderATI, 4
qglBindFragmentShaderATI:
	.zero	4
	.type	qglGenFragmentShadersATI, @object
	.size	qglGenFragmentShadersATI, 4
qglGenFragmentShadersATI:
	.zero	4
	.type	qglColorTableEXT, @object
	.size	qglColorTableEXT, 4
qglColorTableEXT:
	.zero	4
	.type	qglTexImage3D, @object
	.size	qglTexImage3D, 4
qglTexImage3D:
	.zero	4
	.type	qFreeMemoryNV, @object
	.size	qFreeMemoryNV, 4
qFreeMemoryNV:
	.zero	4
	.type	qAllocateMemoryNV, @object
	.size	qAllocateMemoryNV, 4
qAllocateMemoryNV:
	.zero	4
	.type	qglVertexArrayRangeNV, @object
	.size	qglVertexArrayRangeNV, 4
qglVertexArrayRangeNV:
	.zero	4
	.type	qglFinalCombinerInputNV, @object
	.size	qglFinalCombinerInputNV, 4
qglFinalCombinerInputNV:
	.zero	4
	.type	qglCombinerOutputNV, @object
	.size	qglCombinerOutputNV, 4
qglCombinerOutputNV:
	.zero	4
	.type	qglCombinerInputNV, @object
	.size	qglCombinerInputNV, 4
qglCombinerInputNV:
	.zero	4
	.type	qglCombinerParameteriNV, @object
	.size	qglCombinerParameteriNV, 4
qglCombinerParameteriNV:
	.zero	4
	.type	qglCombinerParameterfNV, @object
	.size	qglCombinerParameterfNV, 4
qglCombinerParameterfNV:
	.zero	4
	.type	qglCombinerParameterivNV, @object
	.size	qglCombinerParameterivNV, 4
qglCombinerParameterivNV:
	.zero	4
	.type	qglCombinerParameterfvNV, @object
	.size	qglCombinerParameterfvNV, 4
qglCombinerParameterfvNV:
	.zero	4
	.type	qglClientActiveTextureARB, @object
	.size	qglClientActiveTextureARB, 4
qglClientActiveTextureARB:
	.zero	4
	.type	qglActiveTextureARB, @object
	.size	qglActiveTextureARB, 4
qglActiveTextureARB:
	.zero	4
	.type	qglMultiTexCoord2fvARB, @object
	.size	qglMultiTexCoord2fvARB, 4
qglMultiTexCoord2fvARB:
	.zero	4
	.type	qglMultiTexCoord2fARB, @object
	.size	qglMultiTexCoord2fARB, 4
qglMultiTexCoord2fARB:
	.zero	4
	.section	".bss"
	.align 2
	.set	.LANCHOR0,. + 0
	.type	glConfig, @object
	.size	glConfig, 96
glConfig:
	.zero	96
	.type	r_forceLoadImages, @object
	.size	r_forceLoadImages, 52
r_forceLoadImages:
	.zero	52
	.type	r_inhibitFragmentProgram, @object
	.size	r_inhibitFragmentProgram, 52
r_inhibitFragmentProgram:
	.zero	52
	.type	r_glDriver, @object
	.size	r_glDriver, 52
r_glDriver:
	.zero	52
	.type	r_useLightPortalFlow, @object
	.size	r_useLightPortalFlow, 52
r_useLightPortalFlow:
	.zero	52
	.type	r_multiSamples, @object
	.size	r_multiSamples, 52
r_multiSamples:
	.zero	52
	.type	r_mode, @object
	.size	r_mode, 52
r_mode:
	.zero	52
	.type	r_displayRefresh, @object
	.size	r_displayRefresh, 52
r_displayRefresh:
	.zero	52
	.type	r_fullscreen, @object
	.size	r_fullscreen, 52
r_fullscreen:
	.zero	52
	.type	r_customWidth, @object
	.size	r_customWidth, 52
r_customWidth:
	.zero	52
	.type	r_customHeight, @object
	.size	r_customHeight, 52
r_customHeight:
	.zero	52
	.type	r_singleTriangle, @object
	.size	r_singleTriangle, 52
r_singleTriangle:
	.zero	52
	.type	r_checkBounds, @object
	.size	r_checkBounds, 52
r_checkBounds:
	.zero	52
	.type	r_useNV20MonoLights, @object
	.size	r_useNV20MonoLights, 52
r_useNV20MonoLights:
	.zero	52
	.type	r_useConstantMaterials, @object
	.size	r_useConstantMaterials, 52
r_useConstantMaterials:
	.zero	52
	.type	r_useTripleTextureARB, @object
	.size	r_useTripleTextureARB, 52
r_useTripleTextureARB:
	.zero	52
	.type	r_useSilRemap, @object
	.size	r_useSilRemap, 52
r_useSilRemap:
	.zero	52
	.type	r_useNodeCommonChildren, @object
	.size	r_useNodeCommonChildren, 52
r_useNodeCommonChildren:
	.zero	52
	.type	r_useShadowProjectedCull, @object
	.size	r_useShadowProjectedCull, 52
r_useShadowProjectedCull:
	.zero	52
	.type	r_useShadowVertexProgram, @object
	.size	r_useShadowVertexProgram, 52
r_useShadowVertexProgram:
	.zero	52
	.type	r_useShadowSurfaceScissor, @object
	.size	r_useShadowSurfaceScissor, 52
r_useShadowSurfaceScissor:
	.zero	52
	.type	r_useInteractionTable, @object
	.size	r_useInteractionTable, 52
r_useInteractionTable:
	.zero	52
	.type	r_useTurboShadow, @object
	.size	r_useTurboShadow, 52
r_useTurboShadow:
	.zero	52
	.type	r_useTwoSidedStencil, @object
	.size	r_useTwoSidedStencil, 52
r_useTwoSidedStencil:
	.zero	52
	.type	r_useDeferredTangents, @object
	.size	r_useDeferredTangents, 52
r_useDeferredTangents:
	.zero	52
	.type	r_useCachedDynamicModels, @object
	.size	r_useCachedDynamicModels, 52
r_useCachedDynamicModels:
	.zero	52
	.type	r_useVertexBuffers, @object
	.size	r_useVertexBuffers, 52
r_useVertexBuffers:
	.zero	52
	.type	r_useIndexBuffers, @object
	.size	r_useIndexBuffers, 52
r_useIndexBuffers:
	.zero	52
	.type	r_useStateCaching, @object
	.size	r_useStateCaching, 52
r_useStateCaching:
	.zero	52
	.type	r_useInfiniteFarZ, @object
	.size	r_useInfiniteFarZ, 52
r_useInfiniteFarZ:
	.zero	52
	.type	r_znear, @object
	.size	r_znear, 52
r_znear:
	.zero	52
	.type	r_ignoreGLErrors, @object
	.size	r_ignoreGLErrors, 52
r_ignoreGLErrors:
	.zero	52
	.type	r_finish, @object
	.size	r_finish, 52
r_finish:
	.zero	52
	.type	r_swapInterval, @object
	.size	r_swapInterval, 52
r_swapInterval:
	.zero	52
	.type	r_gamma, @object
	.size	r_gamma, 52
r_gamma:
	.zero	52
	.type	r_brightness, @object
	.size	r_brightness, 52
r_brightness:
	.zero	52
	.type	r_renderer, @object
	.size	r_renderer, 52
r_renderer:
	.zero	52
	.type	r_jitter, @object
	.size	r_jitter, 52
r_jitter:
	.zero	52
	.type	r_skipSuppress, @object
	.size	r_skipSuppress, 52
r_skipSuppress:
	.zero	52
	.type	r_skipPostProcess, @object
	.size	r_skipPostProcess, 52
r_skipPostProcess:
	.zero	52
	.type	r_skipLightScale, @object
	.size	r_skipLightScale, 52
r_skipLightScale:
	.zero	52
	.type	r_skipInteractions, @object
	.size	r_skipInteractions, 52
r_skipInteractions:
	.zero	52
	.type	r_skipDynamicTextures, @object
	.size	r_skipDynamicTextures, 52
r_skipDynamicTextures:
	.zero	52
	.type	r_skipCopyTexture, @object
	.size	r_skipCopyTexture, 52
r_skipCopyTexture:
	.zero	52
	.type	r_skipBackEnd, @object
	.size	r_skipBackEnd, 52
r_skipBackEnd:
	.zero	52
	.type	r_skipRender, @object
	.size	r_skipRender, 52
r_skipRender:
	.zero	52
	.type	r_skipRenderContext, @object
	.size	r_skipRenderContext, 52
r_skipRenderContext:
	.zero	52
	.type	r_skipTranslucent, @object
	.size	r_skipTranslucent, 52
r_skipTranslucent:
	.zero	52
	.type	r_skipAmbient, @object
	.size	r_skipAmbient, 52
r_skipAmbient:
	.zero	52
	.type	r_skipNewAmbient, @object
	.size	r_skipNewAmbient, 52
r_skipNewAmbient:
	.zero	52
	.type	r_skipBlendLights, @object
	.size	r_skipBlendLights, 52
r_skipBlendLights:
	.zero	52
	.type	r_skipFogLights, @object
	.size	r_skipFogLights, 52
r_skipFogLights:
	.zero	52
	.type	r_skipDeforms, @object
	.size	r_skipDeforms, 52
r_skipDeforms:
	.zero	52
	.type	r_skipFrontEnd, @object
	.size	r_skipFrontEnd, 52
r_skipFrontEnd:
	.zero	52
	.type	r_skipUpdates, @object
	.size	r_skipUpdates, 52
r_skipUpdates:
	.zero	52
	.type	r_skipOverlays, @object
	.size	r_skipOverlays, 52
r_skipOverlays:
	.zero	52
	.type	r_skipSpecular, @object
	.size	r_skipSpecular, 52
r_skipSpecular:
	.zero	52
	.type	r_skipBump, @object
	.size	r_skipBump, 52
r_skipBump:
	.zero	52
	.type	r_skipDiffuse, @object
	.size	r_skipDiffuse, 52
r_skipDiffuse:
	.zero	52
	.type	r_skipROQ, @object
	.size	r_skipROQ, 52
r_skipROQ:
	.zero	52
	.type	r_ignore, @object
	.size	r_ignore, 52
r_ignore:
	.zero	52
	.type	r_ignore2, @object
	.size	r_ignore2, 52
r_ignore2:
	.zero	52
	.type	r_usePreciseTriangleInteractions, @object
	.size	r_usePreciseTriangleInteractions, 52
r_usePreciseTriangleInteractions:
	.zero	52
	.type	r_useCulling, @object
	.size	r_useCulling, 52
r_useCulling:
	.zero	52
	.type	r_useLightCulling, @object
	.size	r_useLightCulling, 52
r_useLightCulling:
	.zero	52
	.type	r_useLightScissors, @object
	.size	r_useLightScissors, 52
r_useLightScissors:
	.zero	52
	.type	r_useClippedLightScissors, @object
	.size	r_useClippedLightScissors, 52
r_useClippedLightScissors:
	.zero	52
	.type	r_useEntityCulling, @object
	.size	r_useEntityCulling, 52
r_useEntityCulling:
	.zero	52
	.type	r_useEntityScissors, @object
	.size	r_useEntityScissors, 52
r_useEntityScissors:
	.zero	52
	.type	r_useInteractionCulling, @object
	.size	r_useInteractionCulling, 52
r_useInteractionCulling:
	.zero	52
	.type	r_useInteractionScissors, @object
	.size	r_useInteractionScissors, 52
r_useInteractionScissors:
	.zero	52
	.type	r_useShadowCulling, @object
	.size	r_useShadowCulling, 52
r_useShadowCulling:
	.zero	52
	.type	r_useFrustumFarDistance, @object
	.size	r_useFrustumFarDistance, 52
r_useFrustumFarDistance:
	.zero	52
	.type	r_logFile, @object
	.size	r_logFile, 52
r_logFile:
	.zero	52
	.type	r_clear, @object
	.size	r_clear, 52
r_clear:
	.zero	52
	.type	r_offsetFactor, @object
	.size	r_offsetFactor, 52
r_offsetFactor:
	.zero	52
	.type	r_offsetUnits, @object
	.size	r_offsetUnits, 52
r_offsetUnits:
	.zero	52
	.type	r_shadowPolygonOffset, @object
	.size	r_shadowPolygonOffset, 52
r_shadowPolygonOffset:
	.zero	52
	.type	r_shadowPolygonFactor, @object
	.size	r_shadowPolygonFactor, 52
r_shadowPolygonFactor:
	.zero	52
	.type	r_frontBuffer, @object
	.size	r_frontBuffer, 52
r_frontBuffer:
	.zero	52
	.type	r_skipSubviews, @object
	.size	r_skipSubviews, 52
r_skipSubviews:
	.zero	52
	.type	r_skipGuiShaders, @object
	.size	r_skipGuiShaders, 52
r_skipGuiShaders:
	.zero	52
	.type	r_skipParticles, @object
	.size	r_skipParticles, 52
r_skipParticles:
	.zero	52
	.type	r_subviewOnly, @object
	.size	r_subviewOnly, 52
r_subviewOnly:
	.zero	52
	.type	r_shadows, @object
	.size	r_shadows, 52
r_shadows:
	.zero	52
	.type	r_testARBProgram, @object
	.size	r_testARBProgram, 52
r_testARBProgram:
	.zero	52
	.type	r_testGamma, @object
	.size	r_testGamma, 52
r_testGamma:
	.zero	52
	.type	r_testGammaBias, @object
	.size	r_testGammaBias, 52
r_testGammaBias:
	.zero	52
	.type	r_testStepGamma, @object
	.size	r_testStepGamma, 52
r_testStepGamma:
	.zero	52
	.type	r_lightScale, @object
	.size	r_lightScale, 52
r_lightScale:
	.zero	52
	.type	r_lightSourceRadius, @object
	.size	r_lightSourceRadius, 52
r_lightSourceRadius:
	.zero	52
	.type	r_flareSize, @object
	.size	r_flareSize, 52
r_flareSize:
	.zero	52
	.type	r_useExternalShadows, @object
	.size	r_useExternalShadows, 52
r_useExternalShadows:
	.zero	52
	.type	r_useOptimizedShadows, @object
	.size	r_useOptimizedShadows, 52
r_useOptimizedShadows:
	.zero	52
	.type	r_useScissor, @object
	.size	r_useScissor, 52
r_useScissor:
	.zero	52
	.type	r_useCombinerDisplayLists, @object
	.size	r_useCombinerDisplayLists, 52
r_useCombinerDisplayLists:
	.zero	52
	.type	r_useDepthBoundsTest, @object
	.size	r_useDepthBoundsTest, 52
r_useDepthBoundsTest:
	.zero	52
	.type	r_screenFraction, @object
	.size	r_screenFraction, 52
r_screenFraction:
	.zero	52
	.type	r_demonstrateBug, @object
	.size	r_demonstrateBug, 52
r_demonstrateBug:
	.zero	52
	.type	r_usePortals, @object
	.size	r_usePortals, 52
r_usePortals:
	.zero	52
	.type	r_singleLight, @object
	.size	r_singleLight, 52
r_singleLight:
	.zero	52
	.type	r_singleEntity, @object
	.size	r_singleEntity, 52
r_singleEntity:
	.zero	52
	.type	r_singleSurface, @object
	.size	r_singleSurface, 52
r_singleSurface:
	.zero	52
	.type	r_singleArea, @object
	.size	r_singleArea, 52
r_singleArea:
	.zero	52
	.type	r_orderIndexes, @object
	.size	r_orderIndexes, 52
r_orderIndexes:
	.zero	52
	.type	r_lightAllBackFaces, @object
	.size	r_lightAllBackFaces, 52
r_lightAllBackFaces:
	.zero	52
	.type	r_showPortals, @object
	.size	r_showPortals, 52
r_showPortals:
	.zero	52
	.type	r_showUnsmoothedTangents, @object
	.size	r_showUnsmoothedTangents, 52
r_showUnsmoothedTangents:
	.zero	52
	.type	r_showSilhouette, @object
	.size	r_showSilhouette, 52
r_showSilhouette:
	.zero	52
	.type	r_showVertexColor, @object
	.size	r_showVertexColor, 52
r_showVertexColor:
	.zero	52
	.type	r_showUpdates, @object
	.size	r_showUpdates, 52
r_showUpdates:
	.zero	52
	.type	r_showDemo, @object
	.size	r_showDemo, 52
r_showDemo:
	.zero	52
	.type	r_showDynamic, @object
	.size	r_showDynamic, 52
r_showDynamic:
	.zero	52
	.type	r_showLightScale, @object
	.size	r_showLightScale, 52
r_showLightScale:
	.zero	52
	.type	r_showDefs, @object
	.size	r_showDefs, 52
r_showDefs:
	.zero	52
	.type	r_showTrace, @object
	.size	r_showTrace, 52
r_showTrace:
	.zero	52
	.type	r_showIntensity, @object
	.size	r_showIntensity, 52
r_showIntensity:
	.zero	52
	.type	r_showImages, @object
	.size	r_showImages, 52
r_showImages:
	.zero	52
	.type	r_showSmp, @object
	.size	r_showSmp, 52
r_showSmp:
	.zero	52
	.type	r_showLights, @object
	.size	r_showLights, 52
r_showLights:
	.zero	52
	.type	r_showShadows, @object
	.size	r_showShadows, 52
r_showShadows:
	.zero	52
	.type	r_showShadowCount, @object
	.size	r_showShadowCount, 52
r_showShadowCount:
	.zero	52
	.type	r_showLightScissors, @object
	.size	r_showLightScissors, 52
r_showLightScissors:
	.zero	52
	.type	r_showEntityScissors, @object
	.size	r_showEntityScissors, 52
r_showEntityScissors:
	.zero	52
	.type	r_showInteractionFrustums, @object
	.size	r_showInteractionFrustums, 52
r_showInteractionFrustums:
	.zero	52
	.type	r_showInteractionScissors, @object
	.size	r_showInteractionScissors, 52
r_showInteractionScissors:
	.zero	52
	.type	r_showLightCount, @object
	.size	r_showLightCount, 52
r_showLightCount:
	.zero	52
	.type	r_showViewEntitys, @object
	.size	r_showViewEntitys, 52
r_showViewEntitys:
	.zero	52
	.type	r_showTris, @object
	.size	r_showTris, 52
r_showTris:
	.zero	52
	.type	r_showSurfaceInfo, @object
	.size	r_showSurfaceInfo, 52
r_showSurfaceInfo:
	.zero	52
	.type	r_showNormals, @object
	.size	r_showNormals, 52
r_showNormals:
	.zero	52
	.type	r_showMemory, @object
	.size	r_showMemory, 52
r_showMemory:
	.zero	52
	.type	r_showCull, @object
	.size	r_showCull, 52
r_showCull:
	.zero	52
	.type	r_showInteractions, @object
	.size	r_showInteractions, 52
r_showInteractions:
	.zero	52
	.type	r_showDepth, @object
	.size	r_showDepth, 52
r_showDepth:
	.zero	52
	.type	r_showSurfaces, @object
	.size	r_showSurfaces, 52
r_showSurfaces:
	.zero	52
	.type	r_showPrimitives, @object
	.size	r_showPrimitives, 52
r_showPrimitives:
	.zero	52
	.type	r_showEdges, @object
	.size	r_showEdges, 52
r_showEdges:
	.zero	52
	.type	r_showTexturePolarity, @object
	.size	r_showTexturePolarity, 52
r_showTexturePolarity:
	.zero	52
	.type	r_showTangentSpace, @object
	.size	r_showTangentSpace, 52
r_showTangentSpace:
	.zero	52
	.type	r_showDominantTri, @object
	.size	r_showDominantTri, 52
r_showDominantTri:
	.zero	52
	.type	r_showAlloc, @object
	.size	r_showAlloc, 52
r_showAlloc:
	.zero	52
	.type	r_showTextureVectors, @object
	.size	r_showTextureVectors, 52
r_showTextureVectors:
	.zero	52
	.type	r_showOverDraw, @object
	.size	r_showOverDraw, 52
r_showOverDraw:
	.zero	52
	.type	r_lockSurfaces, @object
	.size	r_lockSurfaces, 52
r_lockSurfaces:
	.zero	52
	.type	r_useEntityCallbacks, @object
	.size	r_useEntityCallbacks, 52
r_useEntityCallbacks:
	.zero	52
	.type	r_showSkel, @object
	.size	r_showSkel, 52
r_showSkel:
	.zero	52
	.type	r_jointNameScale, @object
	.size	r_jointNameScale, 52
r_jointNameScale:
	.zero	52
	.type	r_jointNameOffset, @object
	.size	r_jointNameOffset, 52
r_jointNameOffset:
	.zero	52
	.type	r_cgVertexProfile, @object
	.size	r_cgVertexProfile, 52
r_cgVertexProfile:
	.zero	52
	.type	r_cgFragmentProfile, @object
	.size	r_cgFragmentProfile, 52
r_cgFragmentProfile:
	.zero	52
	.type	r_debugLineDepthTest, @object
	.size	r_debugLineDepthTest, 52
r_debugLineDepthTest:
	.zero	52
	.type	r_debugLineWidth, @object
	.size	r_debugLineWidth, 52
r_debugLineWidth:
	.zero	52
	.type	r_debugArrowStep, @object
	.size	r_debugArrowStep, 52
r_debugArrowStep:
	.zero	52
	.type	r_debugPolygonFilled, @object
	.size	r_debugPolygonFilled, 52
r_debugPolygonFilled:
	.zero	52
	.type	r_materialOverride, @object
	.size	r_materialOverride, 52
r_materialOverride:
	.zero	52
	.type	r_debugRenderToTexture, @object
	.size	r_debugRenderToTexture, 52
r_debugRenderToTexture:
	.zero	52
	.section	".text"
.Letext0:
	.file 8 "<built-in>"
	.file 9 "c:\\utils\\devkitpro\\devkitppc\\bin\\../lib/gcc/powerpc-eabi/4.6.3/include/stddef.h"
	.file 10 "c:\\utils\\devkitpro\\devkitppc\\bin\\../lib/gcc/powerpc-eabi/4.6.3/../../../../powerpc-eabi/include/machine/_types.h"
	.file 11 "c:\\utils\\devkitpro\\devkitppc\\bin\\../lib/gcc/powerpc-eabi/4.6.3/../../../../powerpc-eabi/include/sys/lock.h"
	.file 12 "c:\\utils\\devkitpro\\devkitppc\\bin\\../lib/gcc/powerpc-eabi/4.6.3/../../../../powerpc-eabi/include/sys/_types.h"
	.file 13 "c:\\utils\\devkitpro\\devkitppc\\bin\\../lib/gcc/powerpc-eabi/4.6.3/../../../../powerpc-eabi/include/sys/reent.h"
	.file 14 "c:\\utils\\devkitpro\\devkitppc\\bin\\../lib/gcc/powerpc-eabi/4.6.3/../../../../powerpc-eabi/include/sys/types.h"
	.file 15 "c:\\utils\\devkitpro\\devkitppc\\bin\\../lib/gcc/powerpc-eabi/4.6.3/../../../../powerpc-eabi/include/stdio.h"
	.file 16 "d:/Data/Nintendo/DoomGX/src/renderer/../idlib/../sys/sys_public.h"
	.file 17 "d:/Data/Nintendo/DoomGX/src/renderer/../idlib/../framework/Common.h"
	.file 18 "d:/Data/Nintendo/DoomGX/src/renderer/../idlib/../framework/FileSystem.h"
	.file 19 "d:/Data/Nintendo/DoomGX/src/renderer/../idlib/../idlib/Lib.h"
	.file 20 "d:/Data/Nintendo/DoomGX/src/renderer/../idlib/../idlib/math/Random.h"
	.file 21 "d:/Data/Nintendo/DoomGX/src/renderer/../idlib/../idlib/math/Angles.h"
	.file 22 "d:/Data/Nintendo/DoomGX/src/renderer/../idlib/../idlib/math/Matrix.h"
	.file 23 "d:/Data/Nintendo/DoomGX/src/renderer/../idlib/../idlib/math/Quat.h"
	.file 24 "d:/Data/Nintendo/DoomGX/src/renderer/../idlib/../idlib/math/Rotation.h"
	.file 25 "d:/Data/Nintendo/DoomGX/src/renderer/../idlib/../idlib/math/Plane.h"
	.file 26 "d:/Data/Nintendo/DoomGX/src/renderer/../idlib/../idlib/math/Ode.h"
	.file 27 "d:/Data/Nintendo/DoomGX/src/renderer/../idlib/../idlib/bv/Sphere.h"
	.file 28 "d:/Data/Nintendo/DoomGX/src/renderer/../idlib/../idlib/bv/Bounds.h"
	.file 29 "d:/Data/Nintendo/DoomGX/src/renderer/../idlib/../idlib/bv/Box.h"
	.file 30 "d:/Data/Nintendo/DoomGX/src/renderer/../idlib/../idlib/bv/Frustum.h"
	.file 31 "d:/Data/Nintendo/DoomGX/src/renderer/../idlib/../idlib/geometry/DrawVert.h"
	.file 32 "d:/Data/Nintendo/DoomGX/src/renderer/../idlib/../idlib/geometry/JointTransform.h"
	.file 33 "d:/Data/Nintendo/DoomGX/src/renderer/../idlib/../idlib/geometry/Surface.h"
	.file 34 "d:/Data/Nintendo/DoomGX/src/renderer/../idlib/../idlib/geometry/TraceModel.h"
	.file 35 "d:/Data/Nintendo/DoomGX/src/renderer/../idlib/../idlib/Str.h"
	.file 36 "d:/Data/Nintendo/DoomGX/src/renderer/../idlib/../idlib/Token.h"
	.file 37 "d:/Data/Nintendo/DoomGX/src/renderer/../idlib/../idlib/Lexer.h"
	.file 38 "d:/Data/Nintendo/DoomGX/src/renderer/../idlib/../framework/File.h"
	.file 39 "d:/Data/Nintendo/DoomGX/src/renderer/../idlib/../idlib/Parser.h"
	.file 40 "d:/Data/Nintendo/DoomGX/src/renderer/../idlib/../idlib/containers/HashIndex.h"
	.file 41 "d:/Data/Nintendo/DoomGX/src/renderer/../idlib/../idlib/containers/StrList.h"
	.file 42 "d:/Data/Nintendo/DoomGX/src/renderer/../idlib/../idlib/containers/StrPool.h"
	.file 43 "d:/Data/Nintendo/DoomGX/src/renderer/../idlib/../idlib/containers/PlaneSet.h"
	.file 44 "d:/Data/Nintendo/DoomGX/src/renderer/../idlib/../idlib/Dict.h"
	.file 45 "d:/Data/Nintendo/DoomGX/src/renderer/../idlib/../idlib/LangDict.h"
	.file 46 "d:/Data/Nintendo/DoomGX/src/renderer/../idlib/../idlib/BitMsg.h"
	.file 47 "d:/Data/Nintendo/DoomGX/src/renderer/../idlib/../idlib/MapFile.h"
	.file 48 "d:/Data/Nintendo/DoomGX/src/renderer/../idlib/../framework/UsercmdGen.h"
	.file 49 "d:/Data/Nintendo/DoomGX/src/renderer/../idlib/../framework/DeclManager.h"
	.file 50 "d:/Data/Nintendo/DoomGX/src/renderer/../idlib/../framework/DeclParticle.h"
	.file 51 "d:/Data/Nintendo/DoomGX/src/renderer/../idlib/../renderer/RenderWorld.h"
	.file 52 "d:/Data/Nintendo/DoomGX/gl2gx/include/GL/gl.h"
	.file 53 "d:/Data/Nintendo/DoomGX/gl2gx/include/GL/glext.h"
	.file 54 "d:/Data/Nintendo/DoomGX/src/renderer/../idlib/../renderer/Cinematic.h"
	.file 55 "d:/Data/Nintendo/DoomGX/src/renderer/../idlib/../renderer/Material.h"
	.file 56 "d:/Data/Nintendo/DoomGX/src/renderer/Image.h"
	.file 57 "d:/Data/Nintendo/DoomGX/src/renderer/../idlib/../renderer/Model.h"
	.file 58 "d:/Data/Nintendo/DoomGX/src/renderer/VertexCache.h"
	.file 59 "d:/Data/Nintendo/DoomGX/src/renderer/../idlib/../renderer/RenderSystem.h"
	.file 60 "d:/Data/Nintendo/DoomGX/src/renderer/../idlib/../sound/sound.h"
	.file 61 "d:/Data/Nintendo/DoomGX/src/renderer/../idlib/../ui/UserInterface.h"
	.file 62 "d:/Data/Nintendo/DoomGX/src/renderer/../idlib/../cm/CollisionModel.h"
	.file 63 "d:/Data/Nintendo/DoomGX/src/renderer/../idlib/../tools/compilers/aas/AASFile.h"
	.file 64 "d:/Data/Nintendo/DoomGX/src/renderer/../idlib/../game/Game.h"
	.file 65 "d:/Data/Nintendo/DoomGX/src/renderer/../idlib/../framework/async/NetworkSystem.h"
	.file 66 "d:/Data/Nintendo/DoomGX/src/renderer/../idlib/../renderer/ModelManager.h"
	.file 67 "d:/Data/Nintendo/DoomGX/src/renderer/../idlib/../tools/compilers/aas/AASFileManager.h"
	.file 68 "d:/Data/Nintendo/DoomGX/src/renderer/../idlib/../framework/Session.h"
	.file 69 "d:/Data/Nintendo/DoomGX/src/renderer/../idlib/../ui/ListGUI.h"
	.file 70 "d:/Data/Nintendo/DoomGX/src/renderer/tr_local.h"
	.file 71 "d:/Data/Nintendo/DoomGX/src/renderer/GuiModel.h"
	.file 72 "d:/Data/Nintendo/DoomGX/src/renderer/../idlib/../idlib/Heap.h"
	.file 73 "d:/Data/Nintendo/DoomGX/src/renderer/../idlib/../framework/Console.h"
	.file 74 "d:/Data/Nintendo/DoomGX/src/renderer/../idlib/../idlib/math/Curve.h"
	.file 75 "d:/Data/Nintendo/DoomGX/src/renderer/../idlib/../idlib/math/Simd.h"
	.file 76 "d:/Data/Nintendo/DoomGX/src/renderer/../idlib/../framework/BuildVersion.h"
	.file 77 "d:/Data/Nintendo/DoomGX/src/renderer/../idlib/precompiled.h"
	.file 78 "d:/Data/Nintendo/DoomGX/src/renderer/../idlib/../framework/EventLoop.h"
	.file 79 "d:/Data/Nintendo/DoomGX/src/renderer/../idlib/../framework/EditField.h"
	.file 80 "d:/Data/Nintendo/DoomGX/src/renderer/../idlib/../framework/async/AsyncNetwork.h"
	.file 81 "d:/Data/Nintendo/DoomGX/src/renderer/../idlib/../framework/async/AsyncServer.h"
	.file 82 "d:/Data/Nintendo/DoomGX/src/renderer/MegaTexture.h"
	.file 83 "d:/Data/Nintendo/DoomGX/src/renderer/ModelDecal.h"
	.file 84 "d:/Data/Nintendo/DoomGX/src/renderer/ModelOverlay.h"
	.file 85 "d:/Data/Nintendo/DoomGX/src/renderer/RenderWorld_local.h"