	.file	"RenderWorld_load.cpp"
	.section	".text"
.Ltext0:
	.section	.text._ZN14idFixedWinding5ClearEv,"axG",@progbits,_ZN14idFixedWinding5ClearEv,comdat
	.align 2
	.weak	_ZN14idFixedWinding5ClearEv
	.type	_ZN14idFixedWinding5ClearEv, @function
_ZN14idFixedWinding5ClearEv:
.LFB1502:
	.file 1 "d:/Data/Nintendo/DoomGX/src/renderer/../idlib/../idlib/geometry/Winding.h"
	.loc 1 398 0
	.cfi_startproc
.LVL0:
	.loc 1 399 0
	li 0,0
	.loc 1 400 0
	.loc 1 399 0
	stw 0,4(3)
	.loc 1 400 0
	blr
	.cfi_endproc
.LFE1502:
	.size	_ZN14idFixedWinding5ClearEv, .-_ZN14idFixedWinding5ClearEv
	.section	.text._ZN9idWinding5ClearEv,"axG",@progbits,_ZN9idWinding5ClearEv,comdat
	.align 2
	.weak	_ZN9idWinding5ClearEv
	.type	_ZN9idWinding5ClearEv, @function
_ZN9idWinding5ClearEv:
.LFB1473:
	.loc 1 249 0
	.cfi_startproc
.LVL1:
	mflr 0
	stwu 1,-16(1)
.LCFI0:
	.cfi_def_cfa_offset 16
	.cfi_register 65, 0
	stw 31,12(1)
	mr 31,3
	.cfi_offset 31, -4
	stw 0,20(1)
	.loc 1 250 0
	li 0,0
	.cfi_offset 65, 4
	.loc 1 251 0
	lwz 3,8(3)
.LVL2:
	.loc 1 250 0
	stw 0,4(31)
	.loc 1 251 0
	cmpwi 7,3,0
	beq- 7,.L3
	.loc 1 251 0 is_stmt 0 discriminator 1
	bl _ZdaPv
.L3:
	.loc 1 252 0 is_stmt 1
	li 0,0
	stw 0,8(31)
	.loc 1 253 0
	lwz 0,20(1)
	lwz 31,12(1)
.LVL3:
	mtlr 0
	addi 1,1,16
.LCFI1:
	.cfi_def_cfa_offset 0
	.cfi_restore 31
	blr
	.cfi_endproc
.LFE1473:
	.size	_ZN9idWinding5ClearEv, .-_ZN9idWinding5ClearEv
	.section	.text._ZN9idWindingD2Ev,"axG",@progbits,_ZN9idWindingD5Ev,comdat
	.align 2
	.weak	_ZN9idWindingD2Ev
	.type	_ZN9idWindingD2Ev, @function
_ZN9idWindingD2Ev:
.LFB1461:
	.loc 1 183 0
	.cfi_startproc
.LVL4:
	mflr 0
	stwu 1,-16(1)
.LCFI2:
	.cfi_def_cfa_offset 16
	.cfi_register 65, 0
.LBB823:
	lis 9,_ZTV9idWinding+8@ha
.LBE823:
	stw 31,12(1)
	mr 31,3
	.cfi_offset 31, -4
	stw 0,20(1)
.LBB824:
	.loc 1 183 0
	la 0,_ZTV9idWinding+8@l(9)
	.cfi_offset 65, 4
	.loc 1 184 0
	lwz 3,8(3)
.LVL5:
	.loc 1 183 0
	stw 0,0(31)
	.loc 1 184 0
	cmpwi 7,3,0
	beq- 7,.L6
	.loc 1 184 0 is_stmt 0 discriminator 1
	bl _ZdaPv
.L6:
	.loc 1 185 0 is_stmt 1
	li 0,0
	stw 0,8(31)
.LBE824:
	.loc 1 186 0
	lwz 0,20(1)
	lwz 31,12(1)
.LVL6:
	mtlr 0
	addi 1,1,16
.LCFI3:
	.cfi_def_cfa_offset 0
	.cfi_restore 31
	blr
	.cfi_endproc
.LFE1461:
	.size	_ZN9idWindingD2Ev, .-_ZN9idWindingD2Ev
	.section	.text._ZN14idFixedWindingD0Ev,"axG",@progbits,_ZN14idFixedWindingD5Ev,comdat
	.align 2
	.weak	_ZN14idFixedWindingD0Ev
	.type	_ZN14idFixedWindingD0Ev, @function
_ZN14idFixedWindingD0Ev:
.LFB1500:
	.loc 1 380 0
	.cfi_startproc
.LVL7:
	mflr 0
	stwu 1,-8(1)
.LCFI4:
	.cfi_def_cfa_offset 8
	.cfi_register 65, 0
.LBB831:
.LBB832:
.LBB833:
.LBB834:
.LBB835:
.LBB836:
	.loc 1 183 0
	lis 11,_ZTV9idWinding+8@ha
.LBE836:
.LBE835:
.LBE834:
.LBE833:
.LBE832:
.LBE831:
	.loc 1 380 0
	stw 0,12(1)
.LBB842:
.LBB841:
.LBB840:
	.loc 1 381 0
	li 0,0
	.cfi_offset 65, 4
	stw 0,8(3)
.LVL8:
.LBB839:
.LBB838:
.LBB837:
	.loc 1 183 0
	la 0,_ZTV9idWinding+8@l(11)
	stw 0,0(3)
.LBE837:
.LBE838:
.LBE839:
.LBE840:
.LBE841:
.LBE842:
	.loc 1 382 0
	bl _ZdlPv
.LVL9:
	lwz 0,12(1)
	addi 1,1,8
.LCFI5:
	.cfi_def_cfa_offset 0
	mtlr 0
	blr
	.cfi_endproc
.LFE1500:
	.size	_ZN14idFixedWindingD0Ev, .-_ZN14idFixedWindingD0Ev
	.section	.text._ZN14idFixedWindingD2Ev,"axG",@progbits,_ZN14idFixedWindingD5Ev,comdat
	.align 2
	.weak	_ZN14idFixedWindingD2Ev
	.type	_ZN14idFixedWindingD2Ev, @function
_ZN14idFixedWindingD2Ev:
.LFB1498:
	.loc 1 380 0
	.cfi_startproc
.LVL10:
.LBB847:
	.loc 1 381 0
	li 0,0
.LBB848:
.LBB849:
.LBB850:
	.loc 1 183 0
	lis 9,_ZTV9idWinding+8@ha
.LBE850:
.LBE849:
.LBE848:
	.loc 1 381 0
	stw 0,8(3)
.LVL11:
.LBB853:
.LBB852:
.LBB851:
	.loc 1 183 0
	la 0,_ZTV9idWinding+8@l(9)
	stw 0,0(3)
.LBE851:
.LBE852:
.LBE853:
.LBE847:
	.loc 1 382 0
	blr
	.cfi_endproc
.LFE1498:
	.size	_ZN14idFixedWindingD2Ev, .-_ZN14idFixedWindingD2Ev
	.section	.text._ZN9idWindingD0Ev,"axG",@progbits,_ZN9idWindingD5Ev,comdat
	.align 2
	.weak	_ZN9idWindingD0Ev
	.type	_ZN9idWindingD0Ev, @function
_ZN9idWindingD0Ev:
.LFB1463:
	.loc 1 183 0
	.cfi_startproc
.LVL12:
	mflr 0
	stwu 1,-16(1)
.LCFI6:
	.cfi_def_cfa_offset 16
	.cfi_register 65, 0
.LBB857:
.LBB858:
.LBB859:
	lis 9,_ZTV9idWinding+8@ha
.LBE859:
.LBE858:
.LBE857:
	stw 31,12(1)
	mr 31,3
	.cfi_offset 31, -4
.LVL13:
	stw 0,20(1)
.LBB864:
.LBB862:
.LBB860:
	.loc 1 183 0
	la 0,_ZTV9idWinding+8@l(9)
	.cfi_offset 65, 4
	.loc 1 184 0
	lwz 3,8(3)
.LVL14:
	.loc 1 183 0
	stw 0,0(31)
	.loc 1 184 0
	cmpwi 7,3,0
	beq- 7,.L16
	bl _ZdaPv
.LVL15:
.L16:
	.loc 1 185 0
	li 0,0
.LBE860:
.LBE862:
.LBE864:
	.loc 1 186 0
	mr 3,31
.LBB865:
.LBB863:
.LBB861:
	.loc 1 185 0
	stw 0,8(31)
.LBE861:
.LBE863:
.LBE865:
	.loc 1 186 0
	bl _ZdlPv
	lwz 0,20(1)
	lwz 31,12(1)
.LVL16:
	mtlr 0
	addi 1,1,16
.LCFI7:
	.cfi_def_cfa_offset 0
	.cfi_restore 31
	blr
	.cfi_endproc
.LFE1463:
	.size	_ZN9idWindingD0Ev, .-_ZN9idWindingD0Ev
	.section	".text"
	.align 2
	.globl _ZN18idRenderWorldLocal16TouchWorldModelsEv
	.type	_ZN18idRenderWorldLocal16TouchWorldModelsEv, @function
_ZN18idRenderWorldLocal16TouchWorldModelsEv:
.LFB2567:
	.file 2 "d:/Data/Nintendo/DoomGX/src/renderer/RenderWorld_load.cpp"
	.loc 2 108 0
	.cfi_startproc
.LVL17:
	stwu 1,-32(1)
.LCFI8:
	.cfi_def_cfa_offset 32
	mflr 0
	stw 30,24(1)
	mr 30,3
	.cfi_offset 30, -8
	.cfi_register 65, 0
.LBB866:
	.loc 2 109 0
	lis 3,.LC0@ha
.LVL18:
.LBE866:
	.loc 2 108 0
	stw 0,36(1)
.LBB867:
	.loc 2 109 0
	la 3,.LC0@l(3)
.LBE867:
	.loc 2 108 0
	stw 27,12(1)
	stw 28,16(1)
	stw 29,20(1)
	stw 31,28(1)
.LBB868:
	.loc 2 109 0
	.cfi_offset 31, -4
	.cfi_offset 29, -12
	.cfi_offset 28, -16
	.cfi_offset 27, -20
	.cfi_offset 65, 4
	crxor 6,6,6
	bl _Z10Sys_PrintfPKcz
.LVL19:
	.loc 2 112 0
	lwz 0,72(30)
	cmpwi 7,0,0
	ble- 7,.L19
	lis 28,renderModelManager@ha
	li 31,0
	la 28,renderModelManager@l(28)
.LVL20:
.L21:
	.loc 2 113 0 discriminator 2
	lwz 9,84(30)
	slwi 0,31,2
	lwz 27,0(28)
	.loc 2 112 0 discriminator 2
	addi 31,31,1
	.loc 2 113 0 discriminator 2
	lwzx 3,9,0
	lwz 9,0(3)
	lwz 0,60(9)
	lwz 9,0(27)
	mtctr 0
	lwz 29,36(9)
	bctrl
	mtctr 29
	mr 4,3
	mr 3,27
	bctrl
.LVL21:
	.loc 2 112 0 discriminator 2
	lwz 0,72(30)
	cmpw 7,0,31
	bgt+ 7,.L21
.LVL22:
.L19:
.LBE868:
	.loc 2 115 0
	lwz 0,36(1)
	lwz 27,12(1)
	mtlr 0
	lwz 28,16(1)
	lwz 29,20(1)
	lwz 30,24(1)
.LVL23:
	lwz 31,28(1)
	addi 1,1,32
.LCFI9:
	.cfi_def_cfa_offset 0
	.cfi_restore 31
	.cfi_restore 30
	.cfi_restore 29
	.cfi_restore 28
	.cfi_restore 27
	blr
	.cfi_endproc
.LFE2567:
	.size	_ZN18idRenderWorldLocal16TouchWorldModelsEv, .-_ZN18idRenderWorldLocal16TouchWorldModelsEv
	.align 2
	.globl _ZN18idRenderWorldLocal10ParseModelEP7idLexerPKciP13idRenderModel
	.type	_ZN18idRenderWorldLocal10ParseModelEP7idLexerPKciP13idRenderModel, @function
_ZN18idRenderWorldLocal10ParseModelEP7idLexerPKciP13idRenderModel:
.LFB2568:
	.loc 2 123 0
	.cfi_startproc
	.cfi_personality 0,__gxx_personality_v0
	.cfi_lsda 0,.LLSDA2568
.LVL24:
	stwu 1,-208(1)
.LCFI10:
	.cfi_def_cfa_offset 208
	mflr 0
.LBB869:
	.loc 2 124 0
	lis 3,.LC1@ha
.LVL25:
.LBE869:
	.loc 2 123 0
	stw 21,164(1)
.LBB899:
	.loc 2 124 0
	la 3,.LC1@l(3)
	.loc 2 131 0
	lis 21,.LC2@ha
	.cfi_offset 21, -44
	.cfi_register 65, 0
.LBE899:
	.loc 2 123 0
	stw 0,212(1)
	stw 24,176(1)
.LBB900:
	.loc 2 131 0
	la 21,.LC2@l(21)
.LBE900:
	.loc 2 123 0
	stw 26,184(1)
	mr 26,7
	.cfi_offset 26, -24
	.cfi_offset 24, -32
	.cfi_offset 65, 4
	stw 29,196(1)
	mr 29,4
	.cfi_offset 29, -12
	stw 30,200(1)
	mr 30,5
	.cfi_offset 30, -8
	stw 31,204(1)
	mr 31,6
	.cfi_offset 31, -4
	stw 20,160(1)
	addi 24,1,56
	stw 22,168(1)
	stw 23,172(1)
	stw 25,180(1)
	stw 27,188(1)
	stw 28,192(1)
.LEHB0:
.LBB901:
	.loc 2 124 0
	.cfi_offset 28, -16
	.cfi_offset 27, -20
	.cfi_offset 25, -28
	.cfi_offset 23, -36
	.cfi_offset 22, -40
	.cfi_offset 20, -48
	crxor 6,6,6
	bl _Z10Sys_PrintfPKcz
.LEHE0:
.LVL26:
.LBB870:
.LBB871:
.LBB872:
.LBB873:
	.file 3 "d:/Data/Nintendo/DoomGX/src/renderer/../idlib/../idlib/Str.h"
	.loc 3 357 0
	li 9,20
	.loc 3 356 0
	li 0,0
	.loc 3 357 0
	stw 9,64(1)
.LBE873:
.LBE872:
.LBE871:
.LBE870:
	.loc 2 131 0
	mr 3,29
.LBB880:
.LBB878:
.LBB876:
.LBB874:
	.loc 3 358 0
	addi 9,1,68
.LBE874:
.LBE876:
.LBE878:
.LBE880:
	.loc 2 131 0
	mr 4,21
.LBB881:
.LBB879:
.LBB877:
.LBB875:
	.loc 3 356 0
	stw 0,56(1)
	.loc 3 358 0
	stw 9,60(1)
	.loc 3 359 0
	stb 0,68(1)
.LEHB1:
.LBE875:
.LBE877:
.LBE879:
.LBE881:
	.loc 2 131 0
	bl _ZN7idLexer17ExpectTokenStringEPKc
	.loc 2 134 0
	addi 24,1,56
	mr 3,29
	mr 4,24
	bl _ZN7idLexer14ExpectAnyTokenEP7idToken
	.loc 2 136 0
	cmpwi 7,26,0
	beq- 7,.L44
.LVL27:
.L24:
	.loc 2 143 0
	mr 3,29
	bl _ZN7idLexer8ParseIntEv
.LVL28:
	.loc 2 144 0
	mr. 20,3
	blt- 0,.L25
.LVL29:
.LBB882:
	.loc 2 148 0 discriminator 1
	ble- 0,.L43
.LBB883:
	.loc 2 183 0
	lis 23,.LC4@ha
.LBE883:
	.loc 2 148 0
	li 28,0
.LBB888:
	.loc 2 153 0
	lis 22,declManager@ha
	.loc 2 183 0
	la 23,.LC4@l(23)
.LVL30:
.L26:
	.loc 2 149 0
	mr 3,29
	mr 4,21
	bl _ZN7idLexer17ExpectTokenStringEPKc
	.loc 2 151 0
	mr 3,29
	mr 4,24
	bl _ZN7idLexer14ExpectAnyTokenEP7idToken
	.loc 2 153 0
	lwz 3,declManager@l(22)
.LVL31:
	li 5,1
	lwz 4,4(24)
	li 6,0
	lwz 9,0(3)
	lwz 0,104(9)
	mtctr 0
	bctrl
	mr 27,3
.LVL32:
	.loc 2 155 0
	bl _ZN10idMaterial12AddReferenceEv
.LVL33:
	.loc 2 157 0
	bl _Z20R_AllocStaticTriSurfv
	mr 31,3
.LVL34:
	.loc 2 160 0
	mr 3,29
.LVL35:
	.loc 2 158 0
	stw 31,16(1)
	.loc 2 160 0
	bl _ZN7idLexer8ParseIntEv
	.loc 2 160 0 is_stmt 0 discriminator 1
	stw 3,36(31)
	.loc 2 161 0 is_stmt 1 discriminator 1
	mr 3,29
	bl _ZN7idLexer8ParseIntEv
	stw 3,44(31)
	.loc 2 163 0 discriminator 1
	mr 3,31
	lwz 4,36(31)
	bl _Z25R_AllocStaticTriSurfVertsP14srfTriangles_si
.LVL36:
.LBB884:
	.loc 2 164 0 discriminator 1
	lwz 0,36(31)
	cmpwi 7,0,0
	ble- 7,.L28
	.loc 2 164 0 is_stmt 0
	li 30,0
	li 25,0
.LVL37:
.L29:
.LBB885:
	.loc 2 167 0 is_stmt 1
	mr 3,29
	li 4,8
	addi 5,1,20
	bl _ZN7idLexer13Parse1DMatrixEiPf
.LVL38:
	.loc 2 169 0
	lwz 9,40(31)
.LBE885:
	.loc 2 164 0
	addi 25,25,1
.LBB886:
	.loc 2 169 0
	lwz 0,20(1)
	stwx 0,9,30
.LVL39:
	.loc 2 170 0
	lwz 9,40(31)
	lwz 0,24(1)
	add 9,9,30
	stw 0,4(9)
.LVL40:
	.loc 2 171 0
	lwz 9,40(31)
	lwz 0,28(1)
	add 9,9,30
	stw 0,8(9)
.LVL41:
	.loc 2 172 0
	lwz 9,40(31)
	lwz 0,32(1)
	add 9,9,30
	stw 0,12(9)
.LVL42:
	.loc 2 173 0
	lwz 9,40(31)
	lwz 0,36(1)
	add 9,9,30
	stw 0,16(9)
.LVL43:
	.loc 2 174 0
	lwz 9,40(31)
	lwz 0,40(1)
	add 9,9,30
	stw 0,20(9)
.LVL44:
	.loc 2 175 0
	lwz 9,40(31)
	lwz 0,44(1)
	add 9,9,30
	stw 0,24(9)
.LVL45:
	.loc 2 176 0
	lwz 9,40(31)
	lwz 0,48(1)
	add 9,9,30
.LBE886:
	.loc 2 164 0
	addi 30,30,60
.LVL46:
.LBB887:
	.loc 2 176 0
	stw 0,28(9)
.LBE887:
	.loc 2 164 0
	lwz 0,36(31)
	cmpw 7,0,25
	bgt+ 7,.L29
.LVL47:
.L28:
.LBE884:
	.loc 2 179 0
	lwz 4,44(31)
	mr 3,31
	bl _Z27R_AllocStaticTriSurfIndexesP14srfTriangles_si
.LVL48:
	.loc 2 180 0 discriminator 1
	lwz 0,44(31)
	cmpwi 7,0,0
	ble- 7,.L30
	.loc 2 180 0 is_stmt 0
	li 30,0
.LVL49:
.L31:
	.loc 2 181 0 is_stmt 1
	mr 3,29
	lwz 25,48(31)
	bl _ZN7idLexer8ParseIntEv
	slwi 0,30,2
	.loc 2 180 0
	addi 30,30,1
.LVL50:
	.loc 2 181 0
	stwx 3,25,0
	.loc 2 180 0
	lwz 0,44(31)
	cmpw 7,0,30
	bgt+ 7,.L31
.LVL51:
.L30:
	.loc 2 183 0
	mr 3,29
	mr 4,23
	mr 31,23
.LVL52:
	bl _ZN7idLexer17ExpectTokenStringEPKc
	.loc 2 186 0
	lwz 9,0(26)
	mr 3,26
	stw 27,12(1)
	addi 4,1,144
	lwz 0,20(9)
	lwz 9,8(1)
	stw 27,148(1)
	mtctr 0
	stw 9,144(1)
	lwz 9,16(1)
	stw 9,152(1)
	bctrl
.LBE888:
	.loc 2 148 0
	addi 28,28,1
.LVL53:
	cmpw 7,28,20
	bne+ 7,.L26
.LVL54:
.L27:
.LBE882:
	.loc 2 189 0
	mr 3,29
	mr 4,31
	bl _ZN7idLexer17ExpectTokenStringEPKc
	.loc 2 191 0
	lwz 9,0(26)
	mr 3,26
	lwz 0,24(9)
	mtctr 0
	bctrl
.LEHE1:
.LVL55:
.LBB889:
.LBB890:
.LBB891:
.LBB892:
.LBB893:
	.loc 3 501 0
	mr 3,24
.LEHB2:
	bl _ZN5idStr8FreeDataEv
.LEHE2:
.LBE893:
.LBE892:
.LBE891:
.LBE890:
.LBE889:
.LBE901:
	.loc 2 194 0
	lwz 0,212(1)
	mr 3,26
	lwz 20,160(1)
.LVL56:
	mtlr 0
	lwz 21,164(1)
	lwz 22,168(1)
	lwz 23,172(1)
	lwz 24,176(1)
.LVL57:
	lwz 25,180(1)
	lwz 26,184(1)
.LVL58:
	lwz 27,188(1)
	lwz 28,192(1)
	lwz 29,196(1)
.LVL59:
	lwz 30,200(1)
	lwz 31,204(1)
	addi 1,1,208
	.cfi_remember_state
.LCFI11:
	.cfi_def_cfa_offset 0
	.cfi_restore 31
	.cfi_restore 30
	.cfi_restore 29
	.cfi_restore 28
	.cfi_restore 27
	.cfi_restore 26
	.cfi_restore 25
	.cfi_restore 24
	.cfi_restore 23
	.cfi_restore 22
	.cfi_restore 21
	.cfi_restore 20
	blr
.LVL60:
.L44:
.LCFI12:
	.cfi_restore_state
.LBB902:
	.loc 2 137 0
	lis 9,renderModelManager@ha
	lwz 3,renderModelManager@l(9)
	lwz 9,0(3)
	lwz 0,24(9)
	mtctr 0
.LEHB3:
	bctrl
	.loc 2 138 0
	lwz 9,0(3)
	mr 5,30
	lwz 4,4(24)
	mr 6,31
	lwz 0,16(9)
	.loc 2 137 0
	mr 26,3
.LVL61:
	.loc 2 138 0
	mtctr 0
	bctrl
.LVL62:
	b .L24
.LVL63:
.L25:
	.loc 2 145 0
	lis 4,.LC3@ha
	mr 3,29
.LVL64:
	la 4,.LC3@l(4)
	crxor 6,6,6
	bl _ZN7idLexer5ErrorEPKcz
.LEHE3:
.L43:
	lis 31,.LC4@ha
.LVL65:
	la 31,.LC4@l(31)
	b .L27
.LVL66:
.L39:
	mr 31,3
.LVL67:
.LBB894:
.LBB895:
.LBB896:
.LBB897:
.LBB898:
	.loc 3 501 0
	mr 3,24
	bl _ZN5idStr8FreeDataEv
	mr 3,31
.LEHB4:
	bl _Unwind_Resume
.LEHE4:
.LBE898:
.LBE897:
.LBE896:
.LBE895:
.LBE894:
.LBE902:
	.cfi_endproc
.LFE2568:
	.globl __gxx_personality_v0
	.section	.gcc_except_table,"a",@progbits
.LLSDA2568:
	.byte	0xff
	.byte	0xff
	.byte	0x1
	.uleb128 .LLSDACSE2568-.LLSDACSB2568
.LLSDACSB2568:
	.uleb128 .LEHB0-.LFB2568
	.uleb128 .LEHE0-.LEHB0
	.uleb128 0
	.uleb128 0
	.uleb128 .LEHB1-.LFB2568
	.uleb128 .LEHE1-.LEHB1
	.uleb128 .L39-.LFB2568
	.uleb128 0
	.uleb128 .LEHB2-.LFB2568
	.uleb128 .LEHE2-.LEHB2
	.uleb128 0
	.uleb128 0
	.uleb128 .LEHB3-.LFB2568
	.uleb128 .LEHE3-.LEHB3
	.uleb128 .L39-.LFB2568
	.uleb128 0
	.uleb128 .LEHB4-.LFB2568
	.uleb128 .LEHE4-.LEHB4
	.uleb128 0
	.uleb128 0
.LLSDACSE2568:
	.section	".text"
	.size	_ZN18idRenderWorldLocal10ParseModelEP7idLexerPKciP13idRenderModel, .-_ZN18idRenderWorldLocal10ParseModelEP7idLexerPKciP13idRenderModel
	.align 2
	.globl _ZN18idRenderWorldLocal16ParseShadowModelEP7idLexerPKciP13idRenderModel
	.type	_ZN18idRenderWorldLocal16ParseShadowModelEP7idLexerPKciP13idRenderModel, @function
_ZN18idRenderWorldLocal16ParseShadowModelEP7idLexerPKciP13idRenderModel:
.LFB2569:
	.loc 2 203 0
	.cfi_startproc
	.cfi_personality 0,__gxx_personality_v0
	.cfi_lsda 0,.LLSDA2569
.LVL68:
	mflr 0
	stwu 1,-184(1)
.LCFI13:
	.cfi_def_cfa_offset 184
	.cfi_register 65, 0
.LBB903:
	.loc 2 204 0
	lis 3,.LC5@ha
.LVL69:
	la 3,.LC5@l(3)
.LBE903:
	.loc 2 203 0
	stw 26,160(1)
	stw 0,188(1)
	addi 26,1,56
	.cfi_offset 65, 4
	.cfi_offset 26, -24
	stw 27,164(1)
	mr 27,7
	.cfi_offset 27, -20
	stw 29,172(1)
	mr 29,4
	.cfi_offset 29, -12
	stw 30,176(1)
	mr 30,5
	.cfi_offset 30, -8
	stw 31,180(1)
	mr 31,6
	.cfi_offset 31, -4
	stw 28,168(1)
.LEHB5:
.LBB957:
	.loc 2 204 0
	.cfi_offset 28, -16
	crxor 6,6,6
	bl _Z10Sys_PrintfPKcz
.LEHE5:
.LVL70:
.LBB904:
.LBB905:
.LBB906:
.LBB907:
	.loc 3 357 0
	li 9,20
.LBE907:
.LBE906:
.LBE905:
.LBE904:
	.loc 2 211 0
	lis 4,.LC2@ha
.LBB917:
.LBB914:
.LBB911:
.LBB908:
	.loc 3 356 0
	li 0,0
	.loc 3 357 0
	stw 9,64(1)
.LBE908:
.LBE911:
.LBE914:
.LBE917:
	.loc 2 211 0
	mr 3,29
.LBB918:
.LBB915:
.LBB912:
.LBB909:
	.loc 3 358 0
	addi 9,1,68
.LBE909:
.LBE912:
.LBE915:
.LBE918:
	.loc 2 211 0
	la 4,.LC2@l(4)
.LBB919:
.LBB916:
.LBB913:
.LBB910:
	.loc 3 356 0
	stw 0,56(1)
	.loc 3 358 0
	stw 9,60(1)
	.loc 3 359 0
	stb 0,68(1)
.LEHB6:
.LBE910:
.LBE913:
.LBE916:
.LBE919:
	.loc 2 211 0
	bl _ZN7idLexer17ExpectTokenStringEPKc
	.loc 2 214 0
	addi 26,1,56
	mr 3,29
	mr 4,26
	bl _ZN7idLexer14ExpectAnyTokenEP7idToken
	.loc 2 215 0
	cmpwi 7,27,0
	beq- 7,.L78
.LVL71:
.L46:
	.loc 2 221 0
	lis 9,tr+232@ha
	lwz 0,tr+232@l(9)
	stw 0,12(1)
	.loc 2 223 0
	bl _Z20R_AllocStaticTriSurfv
	mr 31,3
.LVL72:
	.loc 2 226 0
	mr 3,29
.LVL73:
	.loc 2 224 0
	stw 31,16(1)
	.loc 2 226 0
	bl _ZN7idLexer8ParseIntEv
	.loc 2 226 0 is_stmt 0 discriminator 1
	stw 3,36(31)
	.loc 2 227 0 is_stmt 1 discriminator 1
	mr 3,29
	bl _ZN7idLexer8ParseIntEv
	stw 3,92(31)
	.loc 2 228 0 discriminator 1
	mr 3,29
	bl _ZN7idLexer8ParseIntEv
	stw 3,88(31)
	.loc 2 229 0 discriminator 1
	mr 3,29
	bl _ZN7idLexer8ParseIntEv
	stw 3,44(31)
	.loc 2 230 0 discriminator 1
	mr 3,29
	bl _ZN7idLexer8ParseIntEv
	stw 3,96(31)
	.loc 2 232 0 discriminator 1
	mr 3,31
	lwz 4,36(31)
	bl _Z31R_AllocStaticTriSurfShadowVertsP14srfTriangles_si
.LVL74:
.LBB920:
	.loc 2 234 0
	lwz 0,36(31)
.LBE920:
.LBB941:
.LBB942:
	.file 4 "d:/Data/Nintendo/DoomGX/src/renderer/../idlib/../idlib/bv/Bounds.h"
	.loc 4 202 0
	lis 9,_ZN6idMath8INFINITYE@ha
	lfs 0,_ZN6idMath8INFINITYE@l(9)
.LBE942:
.LBE941:
.LBB944:
	.loc 2 234 0
	cmpwi 7,0,0
.LBE944:
.LBB945:
.LBB943:
	.loc 4 203 0
	fneg 13,0
	.loc 4 202 0
	stfs 0,8(31)
	stfs 0,4(31)
	stfs 0,0(31)
.LVL75:
	.loc 4 203 0
	stfs 13,20(31)
	stfs 13,16(31)
	stfs 13,12(31)
.LVL76:
.LBE943:
.LBE945:
.LBB946:
	.loc 2 234 0
	ble- 7,.L47
	li 30,0
.LVL77:
.LBB921:
	.loc 2 241 0
	lis 28,.LC6@ha
.LVL78:
.L60:
	.loc 2 237 0
	mr 3,29
	li 4,3
	addi 5,1,20
	bl _ZN7idLexer13Parse1DMatrixEiPf
	.loc 2 238 0
	lwz 9,100(31)
	.loc 2 203 0
	slwi 0,30,4
.LVL79:
	.loc 2 238 0
	lwz 11,20(1)
	stwx 11,9,0
.LVL80:
	.loc 2 241 0
	lwz 11,.LC6@l(28)
	.loc 2 239 0
	lwz 9,100(31)
	lwz 10,24(1)
	add 9,9,0
	stw 10,4(9)
.LVL81:
	.loc 2 240 0
	lwz 9,100(31)
	lwz 10,28(1)
	add 9,9,0
	stw 10,8(9)
.LVL82:
	.loc 2 241 0
	lwz 9,100(31)
	add 9,9,0
	stw 11,12(9)
	.loc 2 243 0
	lwz 11,100(31)
.LBB922:
.LBB923:
	.loc 4 228 0
	lfs 0,0(31)
.LBB924:
.LBB925:
	.file 5 "d:/Data/Nintendo/DoomGX/src/renderer/../idlib/../idlib/math/Vector.h"
	.loc 5 402 0
	lfsx 13,11,0
.LBE925:
.LBE924:
.LBE923:
.LBE922:
	.loc 2 243 0
	add 9,11,0
.LVL83:
.LBB938:
.LBB936:
	.loc 4 228 0
	fcmpu 7,13,0
	bnl- 7,.L48
	.loc 4 229 0
	fmr 0,13
.L48:
	.loc 4 228 0
	stfs 0,0(31)
.LVL84:
	.loc 4 232 0
	lfs 0,12(31)
.LBB926:
.LBB927:
	.loc 5 402 0
	lfsx 13,11,0
.LVL85:
.LBE927:
.LBE926:
	.loc 4 232 0
	fcmpu 7,13,0
	bng- 7,.L50
	.loc 4 233 0
	fmr 0,13
.L50:
	.loc 4 232 0
	stfs 0,12(31)
.LVL86:
	.loc 4 236 0
	lfs 0,4(31)
.LBB928:
.LBB929:
	.loc 5 402 0
	lfs 13,4(9)
.LVL87:
.LBE929:
.LBE928:
	.loc 4 236 0
	fcmpu 7,13,0
	bnl- 7,.L52
	.loc 4 237 0
	fmr 0,13
.L52:
	.loc 4 236 0
	stfs 0,4(31)
.LVL88:
	.loc 4 240 0
	lfs 0,16(31)
.LBB930:
.LBB931:
	.loc 5 402 0
	lfs 13,4(9)
.LVL89:
.LBE931:
.LBE930:
	.loc 4 240 0
	fcmpu 7,13,0
	bng- 7,.L54
	.loc 4 241 0
	fmr 0,13
.L54:
	.loc 4 240 0
	stfs 0,16(31)
.LVL90:
	.loc 4 244 0
	lfs 0,8(31)
.LBB932:
.LBB933:
	.loc 5 402 0
	lfs 13,8(9)
.LVL91:
.LBE933:
.LBE932:
	.loc 4 244 0
	fcmpu 7,13,0
	bnl- 7,.L56
	.loc 4 245 0
	fmr 0,13
.L56:
	.loc 4 244 0
	stfs 0,8(31)
.LVL92:
	.loc 4 248 0
	lfs 0,20(31)
.LBB934:
.LBB935:
	.loc 5 402 0
	lfs 13,8(9)
.LVL93:
.LBE935:
.LBE934:
	.loc 4 248 0
	fcmpu 7,13,0
	bng- 7,.L58
	.loc 4 249 0
	fmr 0,13
.L58:
.LBE936:
.LBE938:
.LBE921:
	.loc 2 234 0
	lwz 0,36(31)
.LVL94:
	addi 30,30,1
.LBB940:
.LBB939:
.LBB937:
	.loc 4 248 0
	stfs 0,20(31)
.LVL95:
.LBE937:
.LBE939:
.LBE940:
	.loc 2 234 0
	cmpw 7,0,30
	bgt+ 7,.L60
.LVL96:
.L47:
.LBE946:
	.loc 2 246 0
	lwz 4,44(31)
	mr 3,31
	bl _Z27R_AllocStaticTriSurfIndexesP14srfTriangles_si
.LVL97:
	.loc 2 247 0 discriminator 1
	lwz 0,44(31)
	cmpwi 7,0,0
	ble- 7,.L61
	.loc 2 247 0 is_stmt 0
	li 30,0
.LVL98:
.L62:
	.loc 2 248 0 is_stmt 1
	mr 3,29
	lwz 28,48(31)
	bl _ZN7idLexer8ParseIntEv
	slwi 0,30,2
	.loc 2 247 0
	addi 30,30,1
.LVL99:
	.loc 2 248 0
	stwx 3,28,0
	.loc 2 247 0
	lwz 0,44(31)
	cmpw 7,0,30
	bgt+ 7,.L62
.LVL100:
.L61:
	.loc 2 252 0
	lwz 0,8(1)
	mr 3,27
	addi 4,1,144
	stw 0,144(1)
	lwz 0,12(1)
	stw 0,148(1)
	lwz 0,16(1)
	stw 0,152(1)
	lwz 9,0(27)
	lwz 0,20(9)
	mtctr 0
	bctrl
	.loc 2 254 0
	lis 4,.LC4@ha
	mr 3,29
	la 4,.LC4@l(4)
	bl _ZN7idLexer17ExpectTokenStringEPKc
.LEHE6:
.LVL101:
.LBB947:
.LBB948:
.LBB949:
.LBB950:
.LBB951:
	.loc 3 501 0
	mr 3,26
.LEHB7:
	bl _ZN5idStr8FreeDataEv
.LEHE7:
.LBE951:
.LBE950:
.LBE949:
.LBE948:
.LBE947:
.LBE957:
	.loc 2 260 0
	lwz 0,188(1)
	mr 3,27
	lwz 26,160(1)
.LVL102:
	mtlr 0
	lwz 27,164(1)
.LVL103:
	lwz 28,168(1)
	lwz 29,172(1)
.LVL104:
	lwz 30,176(1)
	lwz 31,180(1)
.LVL105:
	addi 1,1,184
	.cfi_remember_state
.LCFI14:
	.cfi_def_cfa_offset 0
	.cfi_restore 31
	.cfi_restore 30
	.cfi_restore 29
	.cfi_restore 28
	.cfi_restore 27
	.cfi_restore 26
	blr
.LVL106:
.L78:
.LCFI15:
	.cfi_restore_state
.LBB958:
	.loc 2 216 0
	lis 9,renderModelManager@ha
	lwz 3,renderModelManager@l(9)
	lwz 9,0(3)
	lwz 0,24(9)
	mtctr 0
.LEHB8:
	bctrl
	.loc 2 217 0
	lwz 9,0(3)
	mr 5,30
	lwz 4,4(26)
	mr 6,31
	lwz 0,16(9)
	.loc 2 216 0
	mr 27,3
.LVL107:
	.loc 2 217 0
	mtctr 0
	bctrl
.LEHE8:
.LVL108:
	b .L46
.LVL109:
.L69:
	mr 31,3
.LVL110:
.LBB952:
.LBB953:
.LBB954:
.LBB955:
.LBB956:
	.loc 3 501 0
	mr 3,26
	bl _ZN5idStr8FreeDataEv
	mr 3,31
.LEHB9:
	bl _Unwind_Resume
.LEHE9:
.LBE956:
.LBE955:
.LBE954:
.LBE953:
.LBE952:
.LBE958:
	.cfi_endproc
.LFE2569:
	.section	.gcc_except_table
.LLSDA2569:
	.byte	0xff
	.byte	0xff
	.byte	0x1
	.uleb128 .LLSDACSE2569-.LLSDACSB2569
.LLSDACSB2569:
	.uleb128 .LEHB5-.LFB2569
	.uleb128 .LEHE5-.LEHB5
	.uleb128 0
	.uleb128 0
	.uleb128 .LEHB6-.LFB2569
	.uleb128 .LEHE6-.LEHB6
	.uleb128 .L69-.LFB2569
	.uleb128 0
	.uleb128 .LEHB7-.LFB2569
	.uleb128 .LEHE7-.LEHB7
	.uleb128 0
	.uleb128 0
	.uleb128 .LEHB8-.LFB2569
	.uleb128 .LEHE8-.LEHB8
	.uleb128 .L69-.LFB2569
	.uleb128 0
	.uleb128 .LEHB9-.LFB2569
	.uleb128 .LEHE9-.LEHB9
	.uleb128 0
	.uleb128 0
.LLSDACSE2569:
	.section	".text"
	.size	_ZN18idRenderWorldLocal16ParseShadowModelEP7idLexerPKciP13idRenderModel, .-_ZN18idRenderWorldLocal16ParseShadowModelEP7idLexerPKciP13idRenderModel
	.align 2
	.globl _ZN18idRenderWorldLocal13SetupAreaRefsEv
	.type	_ZN18idRenderWorldLocal13SetupAreaRefsEv, @function
_ZN18idRenderWorldLocal13SetupAreaRefsEv:
.LFB2570:
	.loc 2 268 0
	.cfi_startproc
.LVL111:
	stwu 1,-16(1)
.LCFI16:
	.cfi_def_cfa_offset 16
	mflr 0
	stw 31,12(1)
	mr 31,3
	.cfi_offset 31, -4
	.cfi_register 65, 0
.LBB959:
	.loc 2 269 0
	lis 3,.LC7@ha
.LVL112:
.LBE959:
	.loc 2 268 0
	stw 0,20(1)
.LBB960:
	.loc 2 269 0
	la 3,.LC7@l(3)
	.cfi_offset 65, 4
	crxor 6,6,6
	bl _Z10Sys_PrintfPKcz
	.loc 2 273 0
	lwz 0,52(31)
	cmpwi 7,0,0
	.loc 2 272 0
	li 0,0
	stw 0,56(31)
.LVL113:
	.loc 2 273 0
	ble- 7,.L79
	li 9,0
	li 11,0
.LVL114:
.L81:
	.loc 2 274 0 discriminator 2
	lwz 10,48(31)
	stwx 11,10,9
	.loc 2 273 0 discriminator 2
	addi 11,11,1
.LVL115:
	.loc 2 277 0 discriminator 2
	lwz 10,48(31)
	add 10,10,9
	addi 0,10,48
	stw 0,52(10)
	stw 0,48(10)
	.loc 2 280 0 discriminator 2
	lwz 10,48(31)
	add 10,10,9
	.loc 2 273 0 discriminator 2
	addi 9,9,72
	.loc 2 280 0 discriminator 2
	addi 0,10,24
	stw 0,28(10)
	stw 0,24(10)
	.loc 2 273 0 discriminator 2
	lwz 0,52(31)
	cmpw 7,0,11
	bgt+ 7,.L81
.LVL116:
.L79:
.LBE960:
	.loc 2 283 0
	lwz 0,20(1)
	lwz 31,12(1)
.LVL117:
	mtlr 0
	addi 1,1,16
.LCFI17:
	.cfi_def_cfa_offset 0
	.cfi_restore 31
	blr
	.cfi_endproc
.LFE2570:
	.size	_ZN18idRenderWorldLocal13SetupAreaRefsEv, .-_ZN18idRenderWorldLocal13SetupAreaRefsEv
	.align 2
	.globl _ZN18idRenderWorldLocal21ParseInterAreaPortalsEP7idLexer
	.type	_ZN18idRenderWorldLocal21ParseInterAreaPortalsEP7idLexer, @function
_ZN18idRenderWorldLocal21ParseInterAreaPortalsEP7idLexer:
.LFB2571:
	.loc 2 291 0
	.cfi_startproc
	.cfi_personality 0,__gxx_personality_v0
	.cfi_lsda 0,.LLSDA2571
.LVL118:
	stwu 1,-64(1)
.LCFI18:
	.cfi_def_cfa_offset 64
	mflr 0
	mfcr 12
	stw 27,44(1)
	mr 27,3
	.cfi_offset 27, -20
	.cfi_register 70, 12
	.cfi_register 65, 0
.LBB961:
	.loc 2 292 0
	lis 3,.LC8@ha
.LVL119:
.LBE961:
	.loc 2 291 0
	stw 0,68(1)
.LBB998:
	.loc 2 292 0
	la 3,.LC8@l(3)
.LBE998:
	.loc 2 291 0
	stw 12,8(1)
	stw 28,48(1)
	mr 28,4
	.cfi_offset 28, -16
	.cfi_offset 70, -56
	.cfi_offset 65, 4
	stw 19,12(1)
	stw 20,16(1)
	stw 21,20(1)
	stw 22,24(1)
	stw 23,28(1)
	stw 24,32(1)
	stw 25,36(1)
	stw 26,40(1)
	stw 29,52(1)
	stw 30,56(1)
	stw 31,60(1)
.LEHB10:
.LBB999:
	.loc 2 292 0
	.cfi_offset 31, -4
	.cfi_offset 30, -8
	.cfi_offset 29, -12
	.cfi_offset 26, -24
	.cfi_offset 25, -28
	.cfi_offset 24, -32
	.cfi_offset 23, -36
	.cfi_offset 22, -40
	.cfi_offset 21, -44
	.cfi_offset 20, -48
	.cfi_offset 19, -52
	crxor 6,6,6
	bl _Z10Sys_PrintfPKcz
.LVL120:
	.loc 2 295 0
	lis 4,.LC2@ha
	mr 3,28
	la 4,.LC2@l(4)
	bl _ZN7idLexer17ExpectTokenStringEPKc
	.loc 2 297 0
	mr 3,28
	bl _ZN7idLexer8ParseIntEv
	.loc 2 298 0
	cmpwi 7,3,0
	.loc 2 297 0
	stw 3,52(27)
	.loc 2 298 0
	blt- 7,.L97
	.loc 2 302 0
	mulli 3,3,72
	bl _Z20R_ClearedStaticAlloci
	.loc 2 303 0
	lwz 0,52(27)
	.loc 2 302 0
	stw 3,48(27)
	.loc 2 303 0
	slwi 3,0,4
	bl _Z20R_ClearedStaticAlloci
	stw 3,60(27)
	.loc 2 306 0
	mr 3,27
	bl _ZN18idRenderWorldLocal13SetupAreaRefsEv
	.loc 2 308 0
	mr 3,28
	bl _ZN7idLexer8ParseIntEv
	.loc 2 309 0
	cmpwi 7,3,0
	.loc 2 308 0
	stw 3,68(27)
	.loc 2 309 0
	blt- 7,.L98
	.loc 2 315 0
	mulli 3,3,20
	bl _Z20R_ClearedStaticAlloci
.LBB962:
	.loc 2 317 0
	lwz 0,68(27)
.LBE962:
	.loc 2 315 0
	stw 3,64(27)
.LVL121:
.LBB995:
	.loc 2 317 0
	cmpwi 7,0,0
	ble- 7,.L87
	lis 21,_ZTV9idWinding+8@ha
	li 26,0
	li 25,0
	la 21,_ZTV9idWinding+8@l(21)
.LBB963:
.LBB964:
.LBB965:
	.loc 1 138 0
	li 24,0
.LBE965:
.LBE964:
	.loc 2 331 0
	li 30,0
.LVL122:
.L92:
	.loc 2 322 0
	mr 3,28
	bl _ZN7idLexer8ParseIntEv
	mr 29,3
.LVL123:
	.loc 2 323 0
	mr 3,28
.LVL124:
	bl _ZN7idLexer8ParseIntEv
.LBB977:
.LBB974:
.LBB966:
.LBB967:
	.loc 1 260 0
	cmpwi 4,29,0
.LBE967:
.LBE966:
.LBE974:
.LBE977:
	.loc 2 323 0
	mr 23,3
.LVL125:
	.loc 2 324 0
	mr 3,28
.LVL126:
	bl _ZN7idLexer8ParseIntEv
	mr 22,3
.LVL127:
	.loc 2 326 0
	li 3,16
.LVL128:
	bl _Znwj
	mr 31,3
.LVL129:
.LBB978:
.LBB975:
	.loc 1 137 0
	stw 21,0(3)
	.loc 1 138 0
	stw 24,12(3)
	stw 24,4(3)
	.loc 1 139 0
	stw 24,8(3)
.LVL130:
.LBB972:
.LBB970:
	.loc 1 260 0
	bgt- 4,.L99
.LVL131:
.L88:
.LBE970:
.LBE972:
.LBE975:
.LBE978:
.LBB979:
.LBB980:
	.loc 1 246 0
	stw 29,4(31)
.LVL132:
.LBE980:
.LBE979:
	.loc 2 328 0
	ble- 4,.L90
.LVL133:
.L89:
.LBE963:
	.loc 2 317 0 discriminator 2
	li 20,0
	li 19,0
.L91:
.LVL134:
.LBB990:
.LBB986:
.LBB987:
	.loc 1 209 0 discriminator 2
	lwz 5,8(31)
.LBE987:
.LBE986:
	.loc 2 329 0 discriminator 2
	mr 3,28
	li 4,3
	.loc 2 328 0 discriminator 2
	addi 19,19,1
.LVL135:
	.loc 2 329 0 discriminator 2
	add 5,5,20
	bl _ZN7idLexer13Parse1DMatrixEiPf
.LVL136:
	.loc 2 331 0 discriminator 2
	lwz 9,8(31)
	.loc 2 328 0 discriminator 2
	cmpw 7,19,29
	.loc 2 331 0 discriminator 2
	add 9,9,20
	stw 30,12(9)
.LVL137:
	.loc 2 332 0 discriminator 2
	lwz 9,8(31)
	add 9,9,20
	.loc 2 328 0 discriminator 2
	addi 20,20,20
.LVL138:
	.loc 2 332 0 discriminator 2
	stw 30,16(9)
	.loc 2 328 0 discriminator 2
	bne+ 7,.L91
.LVL139:
.L90:
	.loc 2 336 0
	li 3,32
.LBE990:
	.loc 2 317 0
	addi 25,25,1
.LBB991:
	.loc 2 336 0
	bl _Z20R_ClearedStaticAlloci
	.loc 2 337 0
	stw 22,0(3)
	.loc 2 336 0
	mr 29,3
.LVL140:
	.loc 2 340 0
	addi 4,3,8
	.loc 2 354 0
	mulli 22,22,72
.LVL141:
	.loc 2 338 0
	lwz 0,64(27)
	.loc 2 339 0
	stw 31,4(3)
	.loc 2 338 0
	add 0,0,26
	stw 0,28(3)
	.loc 2 340 0
	mr 3,31
.LVL142:
	bl _ZNK9idWinding8GetPlaneER7idPlane
.LVL143:
	.loc 2 342 0
	lwz 9,48(27)
	mulli 0,23,72
	.loc 2 348 0
	li 3,32
	.loc 2 342 0
	add 9,9,0
	lwz 9,20(9)
	stw 9,24(29)
	.loc 2 343 0
	lwz 9,48(27)
	add 9,9,0
	stw 29,20(9)
	.loc 2 345 0
	lwz 9,64(27)
	stwx 29,9,26
	.loc 2 348 0
	bl _Z20R_ClearedStaticAlloci
	.loc 2 349 0
	stw 23,0(3)
	.loc 2 348 0
	mr 29,3
.LVL144:
	.loc 2 351 0
	mr 3,31
.LVL145:
	.loc 2 350 0
	lwz 0,64(27)
	add 0,0,26
	stw 0,28(29)
	.loc 2 351 0
	bl _ZNK9idWinding7ReverseEv
	.loc 2 352 0
	addi 4,29,8
	.loc 2 351 0
	stw 3,4(29)
	.loc 2 352 0
	bl _ZNK9idWinding8GetPlaneER7idPlane
.LVL146:
	.loc 2 354 0
	lwz 9,48(27)
	add 9,9,22
	lwz 0,20(9)
	stw 0,24(29)
	.loc 2 355 0
	lwz 0,48(27)
	add 22,0,22
	stw 29,20(22)
	.loc 2 357 0
	lwz 9,64(27)
	add 9,9,26
.LBE991:
	.loc 2 317 0
	addi 26,26,20
.LBB992:
	.loc 2 357 0
	stw 29,4(9)
.LBE992:
	.loc 2 317 0
	lwz 0,68(27)
	cmpw 7,0,25
	bgt+ 7,.L92
.LVL147:
.L87:
.LBE995:
	.loc 2 360 0
	lis 4,.LC4@ha
	mr 3,28
	la 4,.LC4@l(4)
	bl _ZN7idLexer17ExpectTokenStringEPKc
.LEHE10:
.L83:
.LBE999:
	.loc 2 361 0
	lwz 0,68(1)
	lwz 12,8(1)
	mtlr 0
	lwz 19,12(1)
	lwz 20,16(1)
	mtcrf 8,12
	lwz 21,20(1)
	lwz 22,24(1)
	lwz 23,28(1)
	lwz 24,32(1)
	lwz 25,36(1)
	lwz 26,40(1)
	lwz 27,44(1)
.LVL148:
	lwz 28,48(1)
.LVL149:
	lwz 29,52(1)
	lwz 30,56(1)
	lwz 31,60(1)
	addi 1,1,64
	.cfi_remember_state
.LCFI19:
	.cfi_def_cfa_offset 0
	.cfi_restore 70
	.cfi_restore 31
	.cfi_restore 30
	.cfi_restore 29
	.cfi_restore 28
	.cfi_restore 27
	.cfi_restore 26
	.cfi_restore 25
	.cfi_restore 24
	.cfi_restore 23
	.cfi_restore 22
	.cfi_restore 21
	.cfi_restore 20
	.cfi_restore 19
	blr
.LVL150:
.L99:
.LCFI20:
	.cfi_restore_state
.LBB1000:
.LBB996:
.LBB993:
.LBB988:
.LBB976:
.LBB973:
.LBB971:
.LBB968:
.LBB969:
	.loc 1 261 0
	mr 4,29
	li 5,0
.LEHB11:
	bl _ZN9idWinding10ReAllocateEib
.LEHE11:
.LVL151:
.LBE969:
.LBE968:
.LBE971:
.LBE973:
.LBE976:
.LBE988:
.LBB989:
.LBB985:
.LBB981:
.LBB982:
	.loc 1 260 0
	lwz 0,12(31)
	cmpw 7,29,0
	ble- 7,.L88
.LVL152:
.LBB983:
.LBB984:
	.loc 1 261 0
	lwz 9,0(31)
	mr 3,31
	mr 4,29
	li 5,1
	lwz 0,12(9)
	mtctr 0
.LEHB12:
	bctrl
.LBE984:
.LBE983:
.LBE982:
.LBE981:
	.loc 1 243 0
	cmpwi 7,3,0
	beq+ 7,.L89
	b .L88
.LVL153:
.L97:
.LBE985:
.LBE989:
.LBE993:
.LBE996:
	.loc 2 299 0
	lis 4,.LC9@ha
	mr 3,28
	la 4,.LC9@l(4)
	crxor 6,6,6
	bl _ZN7idLexer5ErrorEPKcz
	.loc 2 300 0
	b .L83
.L98:
	.loc 2 310 0
	lis 4,.LC10@ha
	mr 3,28
	la 4,.LC10@l(4)
	crxor 6,6,6
	bl _ZN7idLexer5ErrorEPKcz
	.loc 2 311 0
	b .L83
.LVL154:
.L94:
	mr 30,3
.LBB997:
.LBB994:
	.loc 2 326 0
	mr 3,31
	bl _ZdlPv
	mr 3,30
	bl _Unwind_Resume
.LEHE12:
.LBE994:
.LBE997:
.LBE1000:
	.cfi_endproc
.LFE2571:
	.section	.gcc_except_table
.LLSDA2571:
	.byte	0xff
	.byte	0xff
	.byte	0x1
	.uleb128 .LLSDACSE2571-.LLSDACSB2571
.LLSDACSB2571:
	.uleb128 .LEHB10-.LFB2571
	.uleb128 .LEHE10-.LEHB10
	.uleb128 0
	.uleb128 0
	.uleb128 .LEHB11-.LFB2571
	.uleb128 .LEHE11-.LEHB11
	.uleb128 .L94-.LFB2571
	.uleb128 0
	.uleb128 .LEHB12-.LFB2571
	.uleb128 .LEHE12-.LEHB12
	.uleb128 0
	.uleb128 0
.LLSDACSE2571:
	.section	".text"
	.size	_ZN18idRenderWorldLocal21ParseInterAreaPortalsEP7idLexer, .-_ZN18idRenderWorldLocal21ParseInterAreaPortalsEP7idLexer
	.align 2
	.globl _ZN18idRenderWorldLocal10ParseNodesEP7idLexer
	.type	_ZN18idRenderWorldLocal10ParseNodesEP7idLexer, @function
_ZN18idRenderWorldLocal10ParseNodesEP7idLexer:
.LFB2572:
	.loc 2 369 0
	.cfi_startproc
.LVL155:
	stwu 1,-32(1)
.LCFI21:
	.cfi_def_cfa_offset 32
	mflr 0
	stw 27,12(1)
	mr 27,3
	.cfi_offset 27, -20
	.cfi_register 65, 0
.LBB1001:
	.loc 2 370 0
	lis 3,.LC11@ha
.LVL156:
.LBE1001:
	.loc 2 369 0
	stw 0,36(1)
.LBB1007:
	.loc 2 370 0
	la 3,.LC11@l(3)
.LBE1007:
	.loc 2 369 0
	stw 30,24(1)
	stw 28,16(1)
	mr 30,4
	.cfi_offset 28, -16
	.cfi_offset 30, -8
	.cfi_offset 65, 4
	stw 29,20(1)
	stw 31,28(1)
.LBB1008:
	.loc 2 370 0
	.cfi_offset 31, -4
	.cfi_offset 29, -12
	crxor 6,6,6
	bl _Z10Sys_PrintfPKcz
.LVL157:
	.loc 2 373 0
	lis 4,.LC2@ha
	mr 3,30
	la 4,.LC2@l(4)
	bl _ZN7idLexer17ExpectTokenStringEPKc
	.loc 2 375 0
	mr 3,30
	bl _ZN7idLexer8ParseIntEv
	.loc 2 376 0
	cmpwi 7,3,0
	.loc 2 375 0
	stw 3,44(27)
	.loc 2 376 0
	blt- 7,.L104
.L101:
	.loc 2 379 0
	mulli 3,3,28
	bl _Z20R_ClearedStaticAlloci
.LBB1002:
	.loc 2 381 0
	lwz 0,44(27)
.LBE1002:
	.loc 2 379 0
	stw 3,40(27)
.LVL158:
.LBB1006:
	.loc 2 381 0
	cmpwi 7,0,0
	ble- 7,.L102
	li 28,0
	li 29,0
	b .L103
.LVL159:
.L105:
	lwz 3,40(27)
.LVL160:
.L103:
.LBB1003:
	.loc 2 384 0 discriminator 2
	add 31,3,28
.LVL161:
	.loc 2 386 0 discriminator 2
	li 4,4
	mr 5,31
	mr 3,30
	bl _ZN7idLexer13Parse1DMatrixEiPf
	.loc 2 387 0 discriminator 2
	mr 3,30
	bl _ZN7idLexer8ParseIntEv
.LBE1003:
	.loc 2 381 0 discriminator 2
	addi 29,29,1
.LBB1004:
	.loc 2 387 0 discriminator 2
	stw 3,16(31)
	.loc 2 388 0 discriminator 2
	mr 3,30
.LBE1004:
	.loc 2 381 0 discriminator 2
	addi 28,28,28
.LBB1005:
	.loc 2 388 0 discriminator 2
	bl _ZN7idLexer8ParseIntEv
.LVL162:
	stw 3,20(31)
.LBE1005:
	.loc 2 381 0 discriminator 2
	lwz 0,44(27)
	cmpw 7,0,29
	bgt+ 7,.L105
.LVL163:
.L102:
.LBE1006:
	.loc 2 391 0
	lis 4,.LC4@ha
	mr 3,30
	la 4,.LC4@l(4)
	bl _ZN7idLexer17ExpectTokenStringEPKc
.LBE1008:
	.loc 2 392 0
	lwz 0,36(1)
	lwz 27,12(1)
.LVL164:
	mtlr 0
	lwz 28,16(1)
	lwz 29,20(1)
	lwz 30,24(1)
.LVL165:
	lwz 31,28(1)
	addi 1,1,32
	.cfi_remember_state
.LCFI22:
	.cfi_def_cfa_offset 0
	.cfi_restore 31
	.cfi_restore 30
	.cfi_restore 29
	.cfi_restore 28
	.cfi_restore 27
	blr
.LVL166:
.L104:
.LCFI23:
	.cfi_restore_state
.LBB1009:
	.loc 2 377 0
	lis 4,.LC12@ha
	mr 3,30
	la 4,.LC12@l(4)
	crxor 6,6,6
	bl _ZN7idLexer5ErrorEPKcz
	lwz 3,44(27)
	b .L101
.LBE1009:
	.cfi_endproc
.LFE2572:
	.size	_ZN18idRenderWorldLocal10ParseNodesEP7idLexer, .-_ZN18idRenderWorldLocal10ParseNodesEP7idLexer
	.align 2
	.globl _ZN18idRenderWorldLocal20CommonChildrenArea_rEP10areaNode_t
	.type	_ZN18idRenderWorldLocal20CommonChildrenArea_rEP10areaNode_t, @function
_ZN18idRenderWorldLocal20CommonChildrenArea_rEP10areaNode_t:
.LFB2573:
	.loc 2 400 0
	.cfi_startproc
.LVL167:
	stwu 1,-24(1)
.LCFI24:
	.cfi_def_cfa_offset 24
	mflr 0
	stw 30,16(1)
	mr 30,3
	.cfi_offset 30, -8
	.cfi_register 65, 0
.LBB1010:
	.loc 2 401 0
	lis 3,.LC13@ha
.LVL168:
.LBE1010:
	.loc 2 400 0
	stw 31,20(1)
.LBB1012:
	.loc 2 401 0
	la 3,.LC13@l(3)
.LBE1012:
	.loc 2 400 0
	mr 31,4
	.cfi_offset 31, -4
	stw 0,28(1)
	stw 29,12(1)
.LBB1013:
	.loc 2 401 0
	.cfi_offset 29, -12
	.cfi_offset 65, 4
	crxor 6,6,6
	bl _Z10Sys_PrintfPKcz
.LVL169:
.LBB1011:
	.loc 2 405 0
	lwz 0,16(31)
	cmpwi 7,0,0
	.loc 2 406 0
	nor 29,0,0
.LVL170:
	.loc 2 405 0
	ble- 7,.L108
	.loc 2 408 0
	mulli 0,0,28
	lwz 4,40(30)
	mr 3,30
	add 4,4,0
	bl _ZN18idRenderWorldLocal20CommonChildrenArea_rEP10areaNode_t
	mr 29,3
.L108:
.LVL171:
	.loc 2 405 0
	lwz 0,20(31)
	cmpwi 7,0,0
	.loc 2 406 0
	nor 3,0,0
	.loc 2 405 0
	ble- 7,.L110
	.loc 2 408 0
	mulli 0,0,28
	lwz 4,40(30)
	mr 3,30
	add 4,4,0
	bl _ZN18idRenderWorldLocal20CommonChildrenArea_rEP10areaNode_t
.L110:
.LVL172:
.LBE1011:
	.loc 2 413 0
	cmpwi 7,29,-1
	beq- 7,.L116
.L112:
	.loc 2 416 0
	cmpwi 7,3,-1
	beq- 7,.L114
	.loc 2 421 0
	cmpw 7,29,3
	bne- 7,.L117
.L114:
.LVL173:
	.loc 2 427 0
	stw 29,24(31)
.LBE1013:
	.loc 2 430 0
	mr 3,29
	lwz 0,28(1)
	lwz 29,12(1)
.LVL174:
	mtlr 0
	lwz 30,16(1)
.LVL175:
	lwz 31,20(1)
.LVL176:
	addi 1,1,24
	.cfi_remember_state
.LCFI25:
	.cfi_def_cfa_offset 0
	.cfi_restore 31
	.cfi_restore 30
	.cfi_restore 29
	blr
.LVL177:
.L116:
.LCFI26:
	.cfi_restore_state
.LBB1014:
	.loc 2 414 0
	mr 29,3
	b .L112
.L117:
	.loc 2 424 0
	li 29,-2
	b .L114
.LBE1014:
	.cfi_endproc
.LFE2573:
	.size	_ZN18idRenderWorldLocal20CommonChildrenArea_rEP10areaNode_t, .-_ZN18idRenderWorldLocal20CommonChildrenArea_rEP10areaNode_t
	.align 2
	.globl _ZN18idRenderWorldLocal10ClearWorldEv
	.type	_ZN18idRenderWorldLocal10ClearWorldEv, @function
_ZN18idRenderWorldLocal10ClearWorldEv:
.LFB2574:
	.loc 2 440 0
	.cfi_startproc
.LVL178:
	stwu 1,-16(1)
.LCFI27:
	.cfi_def_cfa_offset 16
	mflr 0
	stw 31,12(1)
	mr 31,3
	.cfi_offset 31, -4
	.cfi_register 65, 0
	.loc 2 441 0
	lis 3,.LC14@ha
.LVL179:
	.loc 2 440 0
	stw 0,20(1)
	.loc 2 441 0
	la 3,.LC14@l(3)
	.cfi_offset 65, 4
	crxor 6,6,6
	bl _Z10Sys_PrintfPKcz
	.loc 2 442 0
	li 0,1
	stw 0,52(31)
	.loc 2 443 0
	li 3,72
	bl _Z20R_ClearedStaticAlloci
	stw 3,48(31)
	.loc 2 444 0
	li 3,16
	bl _Z20R_ClearedStaticAlloci
	stw 3,60(31)
	.loc 2 446 0
	mr 3,31
	bl _ZN18idRenderWorldLocal13SetupAreaRefsEv
	.loc 2 451 0
	li 3,28
	bl _Z20R_ClearedStaticAlloci
	.loc 2 452 0
	lis 9,.LC6@ha
	lwz 0,.LC6@l(9)
	.loc 2 451 0
	stw 3,40(31)
.LVL180:
	.loc 2 452 0
	stw 0,12(3)
	.loc 2 453 0
	li 0,-1
	lwz 9,40(31)
	stw 0,16(9)
	.loc 2 454 0
	lwz 9,40(31)
	stw 0,20(9)
	.loc 2 456 0
	lwz 0,20(1)
	lwz 31,12(1)
.LVL181:
	mtlr 0
	addi 1,1,16
.LCFI28:
	.cfi_def_cfa_offset 0
	.cfi_restore 31
	blr
	.cfi_endproc
.LFE2574:
	.size	_ZN18idRenderWorldLocal10ClearWorldEv, .-_ZN18idRenderWorldLocal10ClearWorldEv
	.align 2
	.globl _ZN18idRenderWorldLocal8FreeDefsEv
	.type	_ZN18idRenderWorldLocal8FreeDefsEv, @function
_ZN18idRenderWorldLocal8FreeDefsEv:
.LFB2575:
	.loc 2 466 0
	.cfi_startproc
.LVL182:
	stwu 1,-24(1)
.LCFI29:
	.cfi_def_cfa_offset 24
	mflr 0
	stw 31,20(1)
	mr 31,3
	.cfi_offset 31, -4
	.cfi_register 65, 0
.LBB1015:
	.loc 2 467 0
	lis 3,.LC15@ha
.LVL183:
.LBE1015:
	.loc 2 466 0
	stw 0,28(1)
.LBB1026:
	.loc 2 467 0
	la 3,.LC15@l(3)
.LBE1026:
	.loc 2 466 0
	stw 28,8(1)
	stw 29,12(1)
	stw 30,16(1)
.LBB1027:
	.loc 2 467 0
	.cfi_offset 30, -8
	.cfi_offset 29, -12
	.cfi_offset 28, -16
	.cfi_offset 65, 4
	crxor 6,6,6
	bl _Z10Sys_PrintfPKcz
	.loc 2 472 0
	lwz 3,168(31)
	.loc 2 470 0
	li 0,0
	stb 0,180(31)
	.loc 2 472 0
	cmpwi 7,3,0
	beq- 7,.L120
	.loc 2 473 0
	bl _Z12R_StaticFreePv
	.loc 2 474 0
	li 0,0
	stw 0,168(31)
.L120:
.LVL184:
.LBB1016:
	.loc 2 478 0 discriminator 1
	lwz 11,104(31)
	cmpwi 7,11,0
	ble- 7,.L121
	.loc 2 478 0 is_stmt 0
	li 30,0
.LBB1017:
	.loc 2 484 0 is_stmt 1
	li 28,0
.LVL185:
.L123:
	.loc 2 481 0
	lwz 9,116(31)
.LBE1017:
	.loc 2 466 0
	slwi 29,30,2
.LBB1018:
	.loc 2 481 0
	lwzx 9,9,29
.LVL186:
	.loc 2 482 0
	cmpwi 7,9,0
	beq- 7,.L122
	.loc 2 482 0 is_stmt 0 discriminator 1
	lwz 0,280(9)
	cmpw 7,0,31
	beq- 7,.L129
.LVL187:
.L122:
.LBE1018:
	.loc 2 478 0 is_stmt 1
	addi 30,30,1
.LVL188:
	cmpw 7,11,30
	bgt+ 7,.L123
.LVL189:
.L121:
.LBE1016:
.LBB1020:
	.loc 2 489 0 discriminator 1
	lwz 11,88(31)
	cmpwi 7,11,0
	ble- 7,.L119
	.loc 2 489 0 is_stmt 0
	li 30,0
.LBB1021:
	.loc 2 495 0 is_stmt 1
	li 28,0
.LVL190:
.L126:
	.loc 2 492 0
	lwz 9,100(31)
.LBE1021:
	.loc 2 466 0
	slwi 29,30,2
.LBB1022:
	.loc 2 492 0
	lwzx 9,9,29
.LVL191:
	.loc 2 493 0
	cmpwi 7,9,0
	beq- 7,.L125
	.loc 2 493 0 is_stmt 0 discriminator 1
	lwz 0,284(9)
	cmpw 7,0,31
	beq- 7,.L130
.LVL192:
.L125:
.LBE1022:
	.loc 2 489 0 is_stmt 1
	addi 30,30,1
.LVL193:
	cmpw 7,11,30
	bgt+ 7,.L126
.LVL194:
.L119:
.LBE1020:
.LBE1027:
	.loc 2 499 0
	lwz 0,28(1)
	lwz 28,8(1)
	mtlr 0
	lwz 29,12(1)
	lwz 30,16(1)
	lwz 31,20(1)
.LVL195:
	addi 1,1,24
	.cfi_remember_state
.LCFI30:
	.cfi_def_cfa_offset 0
	.cfi_restore 31
	.cfi_restore 30
	.cfi_restore 29
	.cfi_restore 28
	blr
.LVL196:
.L129:
.LCFI31:
	.cfi_restore_state
.LBB1028:
.LBB1024:
.LBB1019:
	.loc 2 483 0
	lwz 9,0(31)
.LVL197:
	mr 4,30
	mr 3,31
	lwz 0,40(9)
	mtctr 0
	bctrl
.LVL198:
	.loc 2 484 0
	lwz 9,116(31)
	stwx 28,9,29
	lwz 11,104(31)
	b .L122
.LVL199:
.L130:
.LBE1019:
.LBE1024:
.LBB1025:
.LBB1023:
	.loc 2 494 0
	lwz 9,0(31)
.LVL200:
	mr 4,30
	mr 3,31
	lwz 0,24(9)
	mtctr 0
	bctrl
.LVL201:
	.loc 2 495 0
	lwz 9,100(31)
	stwx 28,9,29
	lwz 11,88(31)
	b .L125
.LBE1023:
.LBE1025:
.LBE1028:
	.cfi_endproc
.LFE2575:
	.size	_ZN18idRenderWorldLocal8FreeDefsEv, .-_ZN18idRenderWorldLocal8FreeDefsEv
	.align 2
	.globl _ZN18idRenderWorldLocal9FreeWorldEv
	.type	_ZN18idRenderWorldLocal9FreeWorldEv, @function
_ZN18idRenderWorldLocal9FreeWorldEv:
.LFB2566:
	.loc 2 40 0
	.cfi_startproc
.LVL202:
	stwu 1,-48(1)
.LCFI32:
	.cfi_def_cfa_offset 48
	mflr 0
	stw 31,44(1)
	mr 31,3
	.cfi_offset 31, -4
	.cfi_register 65, 0
.LBB1044:
	.loc 2 41 0
	lis 3,.LC16@ha
.LVL203:
.LBE1044:
	.loc 2 40 0
	stw 0,52(1)
.LBB1062:
	.loc 2 41 0
	la 3,.LC16@l(3)
.LBE1062:
	.loc 2 40 0
	stw 23,12(1)
	stw 24,16(1)
	stw 25,20(1)
	stw 26,24(1)
	stw 27,28(1)
	stw 28,32(1)
	stw 29,36(1)
	stw 30,40(1)
.LBB1063:
	.loc 2 41 0
	.cfi_offset 30, -8
	.cfi_offset 29, -12
	.cfi_offset 28, -16
	.cfi_offset 27, -20
	.cfi_offset 26, -24
	.cfi_offset 25, -28
	.cfi_offset 24, -32
	.cfi_offset 23, -36
	.cfi_offset 65, 4
	crxor 6,6,6
	bl _Z10Sys_PrintfPKcz
	.loc 2 45 0
	mr 3,31
	bl _ZN18idRenderWorldLocal8FreeDefsEv
.LVL204:
.LBB1045:
	.loc 2 48 0
	lwz 0,52(31)
	cmpwi 7,0,0
	ble- 7,.L132
.LBB1046:
	.loc 2 61 0
	lis 25,.LC17@ha
	.loc 2 64 0
	lis 26,.LC18@ha
.LBE1046:
	.loc 2 48 0
	li 28,0
	li 29,0
.LBB1047:
	.loc 2 61 0
	lis 27,common@ha
	la 25,.LC17@l(25)
	.loc 2 64 0
	la 26,.LC18@l(26)
.LVL205:
.L138:
	.loc 2 52 0
	lwz 30,48(31)
	add 30,30,28
.LVL206:
	.loc 2 53 0
	lwz 24,20(30)
.LVL207:
	cmpwi 7,24,0
	beq- 7,.L133
.LVL208:
.L150:
	.loc 2 55 0
	lwz 9,4(24)
	.loc 2 54 0
	lwz 23,24(24)
.LVL209:
	.loc 2 55 0
	cmpwi 7,9,0
	mr 3,9
	beq- 7,.L134
.LVL210:
	.loc 2 55 0 is_stmt 0 discriminator 1
	lwz 9,0(9)
	lwz 0,4(9)
	mtctr 0
	bctrl
.LVL211:
.L134:
	.loc 2 56 0 is_stmt 1
	mr 3,24
	.loc 2 53 0
	mr 24,23
.LVL212:
	.loc 2 56 0
	bl _Z12R_StaticFreePv
.LVL213:
	.loc 2 53 0
	cmpwi 7,23,0
	bne+ 7,.L150
.LVL214:
.L133:
	.loc 2 60 0
	lwz 9,48(30)
	addi 0,30,48
	cmpw 7,9,0
	beq- 7,.L136
	.loc 2 61 0
	lwz 3,common@l(27)
	mr 4,25
	lwz 9,0(3)
	lwz 0,96(9)
	mtctr 0
	crxor 6,6,6
	bctrl
.L136:
	.loc 2 63 0
	lwz 0,24(30)
	addi 30,30,24
.LVL215:
	cmpw 7,0,30
	beq- 7,.L137
	.loc 2 64 0
	lwz 3,common@l(27)
	mr 4,26
	lwz 9,0(3)
	lwz 0,96(9)
	mtctr 0
	crxor 6,6,6
	bctrl
.L137:
.LBE1047:
	.loc 2 48 0
	lwz 0,52(31)
	addi 29,29,1
.LVL216:
	addi 28,28,72
	cmpw 7,0,29
	bgt+ 7,.L138
.LVL217:
.L132:
.LBE1045:
	.loc 2 68 0
	lwz 3,48(31)
	cmpwi 7,3,0
	beq- 7,.L139
	.loc 2 70 0
	li 30,0
	.loc 2 69 0
	bl _Z12R_StaticFreePv
	.loc 2 70 0
	stw 30,48(31)
	.loc 2 71 0
	stw 30,52(31)
	.loc 2 72 0
	lwz 3,60(31)
	bl _Z12R_StaticFreePv
	.loc 2 73 0
	stw 30,60(31)
.L139:
	.loc 2 76 0
	lwz 3,64(31)
	cmpwi 7,3,0
	beq- 7,.L140
	.loc 2 77 0
	bl _Z12R_StaticFreePv
	.loc 2 78 0
	li 0,0
	stw 0,64(31)
	.loc 2 79 0
	stw 0,68(31)
.L140:
	.loc 2 82 0
	lwz 3,40(31)
	cmpwi 7,3,0
	beq- 7,.L141
	.loc 2 83 0
	bl _Z12R_StaticFreePv
	.loc 2 84 0
	li 0,0
	stw 0,40(31)
.L141:
.LVL218:
	.loc 2 88 0 discriminator 1
	lwz 0,72(31)
	lwz 9,84(31)
	cmpwi 7,0,0
	ble- 7,.L143
	lis 28,renderModelManager@ha
	.loc 2 88 0 is_stmt 0
	li 30,0
	la 28,renderModelManager@l(28)
.LVL219:
.L145:
	.loc 2 89 0 is_stmt 1
	lwz 3,0(28)
.LVL220:
	.loc 2 40 0
	slwi 29,30,2
	.loc 2 89 0
	lwzx 4,9,29
	.loc 2 88 0
	addi 30,30,1
.LVL221:
	.loc 2 89 0
	lwz 11,0(3)
	lwz 0,48(11)
	mtctr 0
	bctrl
	.loc 2 785 0
	lwz 9,84(31)
	.loc 2 90 0
	lwzx 11,9,29
	cmpwi 7,11,0
	mr 3,11
	beq- 7,.L144
	.loc 2 90 0 is_stmt 0 discriminator 1
	lwz 9,0(11)
	lwz 0,4(9)
	mtctr 0
	bctrl
	lwz 9,84(31)
.L144:
.LVL222:
	.loc 2 88 0 is_stmt 1
	lwz 0,72(31)
	cmpw 7,0,30
	bgt+ 7,.L145
.LVL223:
.L143:
.LBB1048:
.LBB1049:
	.file 6 "d:/Data/Nintendo/DoomGX/src/renderer/../idlib/../idlib/containers/List.h"
	.loc 6 193 0
	cmpwi 7,9,0
	beq- 7,.L146
	.loc 6 194 0
	mr 3,9
	bl _ZdaPv
.L146:
	.loc 6 197 0
	li 0,0
.LBE1049:
.LBE1048:
	.loc 2 98 0
	lis 4,.LC19@ha
.LBB1053:
.LBB1050:
	.loc 6 197 0
	stw 0,84(31)
.LBE1050:
.LBE1053:
	.loc 2 98 0
	addi 3,31,4
.LBB1054:
.LBB1051:
	.loc 6 198 0
	stw 0,72(31)
.LBE1051:
.LBE1054:
	.loc 2 98 0
	la 4,.LC19@l(4)
.LBB1055:
.LBB1052:
	.loc 6 199 0
	stw 0,76(31)
.LBE1052:
.LBE1055:
.LBB1056:
.LBB1057:
	.file 7 "d:/Data/Nintendo/DoomGX/src/renderer/../idlib/../idlib/Heap.h"
	.loc 7 245 0
	stw 0,132(31)
	stw 0,128(31)
.LBE1057:
.LBE1056:
.LBB1058:
.LBB1059:
	stw 0,148(31)
	stw 0,144(31)
.LBE1059:
.LBE1058:
.LBB1060:
.LBB1061:
	stw 0,164(31)
	stw 0,160(31)
.LBE1061:
.LBE1060:
	.loc 2 98 0
	bl _ZN5idStraSEPKc
.LBE1063:
	.loc 2 100 0
	lwz 0,52(1)
	lwz 23,12(1)
	mtlr 0
	lwz 24,16(1)
	lwz 25,20(1)
	lwz 26,24(1)
	lwz 27,28(1)
	lwz 28,32(1)
	lwz 29,36(1)
	lwz 30,40(1)
	lwz 31,44(1)
.LVL224:
	addi 1,1,48
.LCFI33:
	.cfi_def_cfa_offset 0
	.cfi_restore 31
	.cfi_restore 30
	.cfi_restore 29
	.cfi_restore 28
	.cfi_restore 27
	.cfi_restore 26
	.cfi_restore 25
	.cfi_restore 24
	.cfi_restore 23
	blr
	.cfi_endproc
.LFE2566:
	.size	_ZN18idRenderWorldLocal9FreeWorldEv, .-_ZN18idRenderWorldLocal9FreeWorldEv
	.align 2
	.globl _ZN18idRenderWorldLocal22ReloadModelFromMapFileEP13idRenderModel
	.type	_ZN18idRenderWorldLocal22ReloadModelFromMapFileEP13idRenderModel, @function
_ZN18idRenderWorldLocal22ReloadModelFromMapFileEP13idRenderModel:
.LFB2576:
	.loc 2 501 0
	.cfi_startproc
	.cfi_personality 0,__gxx_personality_v0
	.cfi_lsda 0,.LLSDA2576
.LVL225:
	stwu 1,-160(1)
.LCFI34:
	.cfi_def_cfa_offset 160
	mflr 0
	stw 26,136(1)
	mr 26,3
	.cfi_offset 26, -24
	.cfi_register 65, 0
.LBB1064:
	.loc 2 502 0
	lis 3,.LC20@ha
.LVL226:
.LBE1064:
	.loc 2 501 0
	stw 29,148(1)
.LBB1112:
	.loc 2 502 0
	la 3,.LC20@l(3)
.LBE1112:
	.loc 2 501 0
	mr 29,4
	.cfi_offset 29, -12
	stw 0,164(1)
	stw 30,152(1)
	addi 30,1,12
	.cfi_offset 30, -8
	.cfi_offset 65, 4
	stw 31,156(1)
	addi 31,1,48
	.cfi_offset 31, -4
	stw 27,140(1)
	stw 28,144(1)
.LEHB13:
.LBB1113:
	.loc 2 502 0
	.cfi_offset 28, -16
	.cfi_offset 27, -20
	crxor 6,6,6
	bl _Z10Sys_PrintfPKcz
.LEHE13:
.LVL227:
	.loc 2 509 0
	cmpwi 7,29,0
.LBB1065:
.LBB1066:
.LBB1067:
.LBB1068:
	.loc 3 357 0
	li 9,20
	.loc 3 356 0
	li 0,0
	.loc 3 357 0
	stw 9,56(1)
	.loc 3 358 0
	addi 11,1,60
.LBE1068:
.LBE1067:
.LBE1066:
.LBE1065:
.LBB1072:
.LBB1073:
.LBB1074:
	.loc 3 357 0
	stw 9,20(1)
	.loc 3 358 0
	addi 9,1,24
.LBE1074:
.LBE1073:
.LBE1072:
.LBB1077:
.LBB1071:
.LBB1070:
.LBB1069:
	.loc 3 356 0
	stw 0,48(1)
	.loc 3 358 0
	stw 11,52(1)
	.loc 3 359 0
	stb 0,60(1)
.LVL228:
.LBE1069:
.LBE1070:
.LBE1071:
.LBE1077:
.LBB1078:
.LBB1076:
.LBB1075:
	.loc 3 356 0
	stw 0,12(1)
	.loc 3 358 0
	stw 9,16(1)
	.loc 3 359 0
	stb 0,24(1)
.LBE1075:
.LBE1076:
.LBE1078:
	.loc 2 509 0
	beq- 7,.L152
	.loc 2 514 0
	lwz 9,0(29)
	mr 3,29
	addi 30,1,12
	addi 31,1,48
	lwz 0,64(9)
	mtctr 0
.LEHB14:
	bctrl
	addi 30,1,12
	mr 4,3
	mr 3,30
	addi 31,1,48
	bl _ZN5idStraSEPKc
.LVL229:
	.loc 2 516 0
	li 3,208
.LBB1079:
	.loc 2 785 0
	lwz 27,4(30)
	addi 31,1,48
.LBE1079:
	.loc 2 516 0
	bl _Znwj
.LEHE14:
	mr 4,27
	li 5,40
	li 6,0
	mr 28,3
.LEHB15:
	bl _ZN7idLexerC1EPKcib
.LEHE15:
.LVL230:
	.loc 2 517 0 discriminator 1
	lwz 0,0(28)
	cmpwi 7,0,0
	bne- 7,.L153
	.loc 2 518 0 discriminator 1
	mr 3,28
	addi 31,1,48
.LEHB16:
	bl _ZN7idLexerD1Ev
	mr 3,28
	addi 31,1,48
	bl _ZdlPv
	.loc 2 519 0 discriminator 1
	lis 3,.LC21@ha
	lwz 4,4(30)
	la 3,.LC21@l(3)
	crxor 6,6,6
	bl _Z9Sys_ErrorPKcz
.LEHE16:
	addi 31,1,48
.LVL231:
.L152:
.LBB1080:
.LBB1081:
.LBB1082:
	.loc 3 501 0
	mr 3,30
.LEHB17:
	bl _ZN5idStr8FreeDataEv
.LEHE17:
.LVL232:
.LBE1082:
.LBE1081:
.LBE1080:
.LBB1083:
.LBB1084:
.LBB1085:
.LBB1086:
.LBB1087:
	mr 3,31
.LEHB18:
	bl _ZN5idStr8FreeDataEv
.LEHE18:
	li 3,0
.LVL233:
.L151:
.LBE1087:
.LBE1086:
.LBE1085:
.LBE1084:
.LBE1083:
.LBE1113:
	.loc 2 541 0
	lwz 0,164(1)
	lwz 26,136(1)
.LVL234:
	mtlr 0
	lwz 27,140(1)
	lwz 28,144(1)
	lwz 29,148(1)
.LVL235:
	lwz 30,152(1)
.LVL236:
	lwz 31,156(1)
.LVL237:
	addi 1,1,160
	.cfi_remember_state
.LCFI35:
	.cfi_def_cfa_offset 0
	.cfi_restore 31
	.cfi_restore 30
	.cfi_restore 29
	.cfi_restore 28
	.cfi_restore 27
	.cfi_restore 26
	blr
.LVL238:
.L153:
.LCFI36:
	.cfi_restore_state
.LBB1114:
	.loc 2 524 0
	lwz 9,0(29)
	mr 3,29
	addi 31,1,48
	lwz 0,68(9)
	mtctr 0
.LEHB19:
	bctrl
.LVL239:
	mr 4,1
	addi 31,1,48
	stwu 3,8(4)
.LVL240:
.LBB1088:
.LBB1089:
	.file 8 "d:/Data/Nintendo/DoomGX/src/renderer/../idlib/../idlib/Lexer.h"
	.loc 8 353 0
	addi 3,28,40
	bl _ZN11fileDataPtraSERKi
.LBE1089:
.LBE1088:
	.loc 2 527 0
	addi 31,1,48
	mr 3,28
	mr 4,31
	bl _ZN7idLexer9ReadTokenEP7idToken
	cmpwi 7,3,0
	bne- 7,.L154
	.loc 2 528 0 discriminator 1
	mr 3,28
	bl _ZN7idLexerD1Ev
	mr 3,28
	bl _ZdlPv
	.loc 2 529 0 discriminator 1
	lis 3,.LC22@ha
	la 3,.LC22@l(3)
	crxor 6,6,6
	bl _Z9Sys_ErrorPKcz
	b .L152
.L154:
.LVL241:
.LBB1090:
.LBB1091:
	.loc 3 653 0
	lis 4,.LC23@ha
	lwz 3,4(31)
	la 4,.LC23@l(4)
	bl _ZN5idStr3CmpEPKcS1_
.LBE1091:
.LBE1090:
	.loc 2 533 0
	cmpwi 7,3,0
	beq- 7,.L176
.LVL242:
.LBB1092:
.LBB1093:
	.loc 3 653 0
	lis 4,.LC24@ha
	lwz 3,4(31)
	la 4,.LC24@l(4)
	bl _ZN5idStr3CmpEPKcS1_
.LBE1093:
.LBE1092:
	.loc 2 535 0
	cmpwi 7,3,0
	beq- 7,.L177
.LVL243:
.L156:
	.loc 2 539 0
	mr 3,28
	bl _ZN7idLexerD1Ev
.LEHE19:
	.loc 2 539 0 is_stmt 0 discriminator 1
	mr 3,28
	bl _ZdlPv
.LVL244:
.LBB1094:
.LBB1095:
.LBB1096:
	.loc 3 501 0 is_stmt 1 discriminator 1
	mr 3,30
.LEHB20:
	bl _ZN5idStr8FreeDataEv
.LEHE20:
.LVL245:
.LBE1096:
.LBE1095:
.LBE1094:
.LBB1097:
.LBB1098:
.LBB1099:
.LBB1100:
.LBB1101:
	.loc 3 501 0 is_stmt 0
	mr 3,31
.LEHB21:
	bl _ZN5idStr8FreeDataEv
.LEHE21:
	b .L151
.LVL246:
.L176:
.LBE1101:
.LBE1100:
.LBE1099:
.LBE1098:
.LBE1097:
	.loc 2 534 0 is_stmt 1
	lwz 9,0(29)
	mr 3,29
.LBB1102:
	.loc 2 785 0
	lwz 27,4(30)
.LBE1102:
	.loc 2 534 0
	lwz 0,68(9)
	mtctr 0
.LEHB22:
	bctrl
	mr 6,3
	mr 4,28
	mr 3,26
	mr 5,27
	mr 7,29
	bl _ZN18idRenderWorldLocal10ParseModelEP7idLexerPKciP13idRenderModel
	b .L156
.LVL247:
.L177:
	.loc 2 536 0
	lwz 9,0(29)
	mr 3,29
.LBB1103:
	.loc 2 785 0
	lwz 27,4(30)
.LBE1103:
	.loc 2 536 0
	lwz 0,68(9)
	mtctr 0
	bctrl
	mr 6,3
	mr 4,28
	mr 3,26
	mr 5,27
	mr 7,29
	bl _ZN18idRenderWorldLocal16ParseShadowModelEP7idLexerPKciP13idRenderModel
.LEHE22:
	b .L156
.LVL248:
.L169:
	mr 29,3
.LVL249:
.L164:
.LBB1104:
.LBB1105:
.LBB1106:
	.loc 3 501 0
	mr 3,30
	mr 30,29
.LVL250:
	bl _ZN5idStr8FreeDataEv
.LVL251:
.L166:
.LBE1106:
.LBE1105:
.LBE1104:
.LBB1107:
.LBB1108:
.LBB1109:
.LBB1110:
.LBB1111:
	mr 3,31
	bl _ZN5idStr8FreeDataEv
	mr 3,30
.LEHB23:
	bl _Unwind_Resume
.LEHE23:
.LVL252:
.L171:
	mr 30,3
.LVL253:
	b .L166
.LVL254:
.L170:
	mr 29,3
.LVL255:
.LBE1111:
.LBE1110:
.LBE1109:
.LBE1108:
.LBE1107:
	.loc 2 516 0
	mr 3,28
	bl _ZdlPv
	addi 31,1,48
	b .L164
.LBE1114:
	.cfi_endproc
.LFE2576:
	.section	.gcc_except_table
.LLSDA2576:
	.byte	0xff
	.byte	0xff
	.byte	0x1
	.uleb128 .LLSDACSE2576-.LLSDACSB2576
.LLSDACSB2576:
	.uleb128 .LEHB13-.LFB2576
	.uleb128 .LEHE13-.LEHB13
	.uleb128 0
	.uleb128 0
	.uleb128 .LEHB14-.LFB2576
	.uleb128 .LEHE14-.LEHB14
	.uleb128 .L169-.LFB2576
	.uleb128 0
	.uleb128 .LEHB15-.LFB2576
	.uleb128 .LEHE15-.LEHB15
	.uleb128 .L170-.LFB2576
	.uleb128 0
	.uleb128 .LEHB16-.LFB2576
	.uleb128 .LEHE16-.LEHB16
	.uleb128 .L169-.LFB2576
	.uleb128 0
	.uleb128 .LEHB17-.LFB2576
	.uleb128 .LEHE17-.LEHB17
	.uleb128 .L171-.LFB2576
	.uleb128 0
	.uleb128 .LEHB18-.LFB2576
	.uleb128 .LEHE18-.LEHB18
	.uleb128 0
	.uleb128 0
	.uleb128 .LEHB19-.LFB2576
	.uleb128 .LEHE19-.LEHB19
	.uleb128 .L169-.LFB2576
	.uleb128 0
	.uleb128 .LEHB20-.LFB2576
	.uleb128 .LEHE20-.LEHB20
	.uleb128 .L171-.LFB2576
	.uleb128 0
	.uleb128 .LEHB21-.LFB2576
	.uleb128 .LEHE21-.LEHB21
	.uleb128 0
	.uleb128 0
	.uleb128 .LEHB22-.LFB2576
	.uleb128 .LEHE22-.LEHB22
	.uleb128 .L169-.LFB2576
	.uleb128 0
	.uleb128 .LEHB23-.LFB2576
	.uleb128 .LEHE23-.LEHB23
	.uleb128 0
	.uleb128 0
.LLSDACSE2576:
	.section	".text"
	.size	_ZN18idRenderWorldLocal22ReloadModelFromMapFileEP13idRenderModel, .-_ZN18idRenderWorldLocal22ReloadModelFromMapFileEP13idRenderModel
	.align 2
	.globl _ZN18idRenderWorldLocal17ClearPortalStatesEv
	.type	_ZN18idRenderWorldLocal17ClearPortalStatesEv, @function
_ZN18idRenderWorldLocal17ClearPortalStatesEv:
.LFB2578:
	.loc 2 682 0
	.cfi_startproc
.LVL256:
	stwu 1,-24(1)
.LCFI37:
	.cfi_def_cfa_offset 24
	mflr 0
	stw 31,20(1)
	mr 31,3
	.cfi_offset 31, -4
	.cfi_register 65, 0
.LBB1115:
	.loc 2 683 0
	lis 3,.LC25@ha
.LVL257:
.LBE1115:
	.loc 2 682 0
	stw 0,28(1)
.LBB1116:
	.loc 2 683 0
	la 3,.LC25@l(3)
.LBE1116:
	.loc 2 682 0
	stw 28,8(1)
	stw 29,12(1)
	stw 30,16(1)
.LBB1117:
	.loc 2 683 0
	.cfi_offset 30, -8
	.cfi_offset 29, -12
	.cfi_offset 28, -16
	.cfi_offset 65, 4
	crxor 6,6,6
	bl _Z10Sys_PrintfPKcz
.LVL258:
	.loc 2 687 0
	lwz 0,68(31)
	cmpwi 7,0,0
	ble- 7,.L179
	li 11,0
	li 9,0
	.loc 2 688 0
	li 8,0
.LVL259:
.L180:
	.loc 2 688 0 is_stmt 0 discriminator 2
	lwz 10,64(31)
	.loc 2 687 0 is_stmt 1 discriminator 2
	addi 9,9,1
.LVL260:
	.loc 2 688 0 discriminator 2
	add 10,10,11
	.loc 2 687 0 discriminator 2
	addi 11,11,20
	.loc 2 688 0 discriminator 2
	stw 8,8(10)
	.loc 2 687 0 discriminator 2
	lwz 0,68(31)
	cmpw 7,0,9
	bgt+ 7,.L180
.LVL261:
.L179:
	.loc 2 692 0 discriminator 1
	lwz 0,52(31)
	li 29,0
	li 28,0
	cmpwi 7,0,0
	ble- 7,.L178
.LVL262:
.L185:
	.loc 2 687 0
	li 30,0
.LVL263:
.L183:
	.loc 2 694 0 discriminator 2
	lwz 9,56(31)
	.loc 2 695 0 discriminator 2
	mr 5,30
	lwz 4,48(31)
	mr 3,31
	.loc 2 694 0 discriminator 2
	addi 0,9,1
	stw 0,56(31)
	.loc 2 695 0 discriminator 2
	add 4,4,29
	bl _ZN18idRenderWorldLocal19FloodConnectedAreasEP12portalArea_si
.LVL264:
	.loc 2 693 0 discriminator 2
	cmpwi 7,30,2
	addi 30,30,1
.LVL265:
	bne+ 7,.L183
	.loc 2 692 0
	lwz 0,52(31)
	addi 28,28,1
.LVL266:
	addi 29,29,72
	cmpw 7,0,28
	bgt+ 7,.L185
.LVL267:
.L178:
.LBE1117:
	.loc 2 698 0
	lwz 0,28(1)
	lwz 28,8(1)
	mtlr 0
	lwz 29,12(1)
	lwz 30,16(1)
	lwz 31,20(1)
.LVL268:
	addi 1,1,24
.LCFI38:
	.cfi_def_cfa_offset 0
	.cfi_restore 31
	.cfi_restore 30
	.cfi_restore 29
	.cfi_restore 28
	blr
	.cfi_endproc
.LFE2578:
	.size	_ZN18idRenderWorldLocal17ClearPortalStatesEv, .-_ZN18idRenderWorldLocal17ClearPortalStatesEv
	.align 2
	.globl _ZN18idRenderWorldLocal21AddWorldModelEntitiesEv
	.type	_ZN18idRenderWorldLocal21AddWorldModelEntitiesEv, @function
_ZN18idRenderWorldLocal21AddWorldModelEntitiesEv:
.LFB2579:
	.loc 2 706 0
	.cfi_startproc
	.cfi_personality 0,__gxx_personality_v0
	.cfi_lsda 0,.LLSDA2579
.LVL269:
	stwu 1,-152(1)
.LCFI39:
	.cfi_def_cfa_offset 152
	mflr 0
	stw 22,112(1)
	mr 22,3
	.cfi_offset 22, -40
	.cfi_register 65, 0
.LBB1167:
	.loc 2 707 0
	lis 3,.LC26@ha
.LVL270:
.LBE1167:
	.loc 2 706 0
	stw 0,156(1)
.LBB1290:
	.loc 2 707 0
	la 3,.LC26@l(3)
.LBE1290:
	.loc 2 706 0
	stw 14,80(1)
	stw 15,84(1)
	stw 16,88(1)
	stw 17,92(1)
	stw 18,96(1)
	stw 19,100(1)
	stw 20,104(1)
	stw 21,108(1)
	stw 23,116(1)
	stw 24,120(1)
	stw 25,124(1)
	stw 26,128(1)
	stw 27,132(1)
	stw 28,136(1)
	stw 29,140(1)
	stw 30,144(1)
	stw 31,148(1)
.LEHB24:
.LBB1291:
	.loc 2 707 0
	.cfi_offset 31, -4
	.cfi_offset 30, -8
	.cfi_offset 29, -12
	.cfi_offset 28, -16
	.cfi_offset 27, -20
	.cfi_offset 26, -24
	.cfi_offset 25, -28
	.cfi_offset 24, -32
	.cfi_offset 23, -36
	.cfi_offset 21, -44
	.cfi_offset 20, -48
	.cfi_offset 19, -52
	.cfi_offset 18, -56
	.cfi_offset 17, -60
	.cfi_offset 16, -64
	.cfi_offset 15, -68
	.cfi_offset 14, -72
	.cfi_offset 65, 4
	crxor 6,6,6
	bl _Z10Sys_PrintfPKcz
.LVL271:
.LBB1168:
	.loc 2 713 0
	lwz 0,52(22)
	cmpwi 7,0,0
	ble- 7,.L189
.LBB1169:
	.loc 2 730 0
	lis 18,.LC27@ha
	.loc 2 732 0
	lis 15,.LC28@ha
.LBE1169:
	.loc 2 713 0
	li 20,0
	li 21,0
.LBB1285:
.LBB1170:
.LBB1171:
.LBB1172:
.LBB1173:
	.loc 6 393 0
	li 29,0
	.loc 6 663 0
	li 14,16
.LBE1173:
.LBE1172:
.LBE1171:
.LBE1170:
	.loc 2 730 0
	lis 19,renderModelManager@ha
	la 18,.LC27@l(18)
	.loc 2 732 0
	lis 16,common@ha
	la 15,.LC28@l(15)
.LBB1205:
.LBB1206:
.LBB1207:
.LBB1208:
.LBB1209:
.LBB1210:
	.loc 3 358 0
	addi 24,1,44
.LBE1210:
.LBE1209:
.LBB1213:
.LBB1214:
	.loc 3 415 0
	lis 28,.LC29@ha
.LBE1214:
.LBE1213:
.LBE1208:
.LBE1207:
.LBE1206:
.LBE1205:
	.loc 2 747 0
	lis 17,.LC6@ha
.LVL272:
.L218:
	.loc 2 717 0
	li 3,372
	bl _ZN19idRenderEntityLocalnwEj
.LEHE24:
	mr 27,3
.LEHB25:
	bl _ZN19idRenderEntityLocalC1Ev
.LEHE25:
.LVL273:
	.loc 2 785 0 discriminator 1
	lwz 8,88(22)
.LVL274:
.LBB1257:
.LBB1258:
	.loc 6 816 0 discriminator 1
	lwz 31,100(22)
	.loc 6 815 0 discriminator 1
	cmpwi 7,8,0
	ble- 7,.L195
	.loc 6 816 0
	lwz 0,0(31)
	cmpwi 7,0,0
	beq- 7,.L223
	mr 9,31
	.loc 6 815 0
	li 11,0
	mtctr 8
	b .L193
.LVL275:
.L194:
	.loc 2 706 0
	addi 9,9,4
	.loc 6 816 0
	lwz 0,0(9)
	.loc 2 706 0
	mr 10,9
	.loc 6 816 0
	cmpwi 7,0,0
	beq- 7,.L192
.LVL276:
.L193:
	.loc 6 815 0
	addi 11,11,1
.LVL277:
	bdnz .L194
.LVL278:
.L195:
.LBE1258:
.LBE1257:
.LBB1260:
.LBB1201:
	.loc 6 655 0
	cmpwi 7,31,0
.LBE1201:
.LBE1260:
	.loc 2 722 0
	addi 30,22,88
.LVL279:
.LBB1261:
.LBB1202:
	.loc 6 655 0
	beq- 7,.L222
.L230:
	lwz 0,92(22)
.L199:
.LBB1189:
	.loc 6 659 0
	cmpw 7,8,0
	beq- 7,.L225
.L236:
	slwi 8,8,2
	add 31,31,8
.L203:
.LBE1189:
	.loc 6 669 0
	stw 27,0(31)
	.loc 6 670 0
	lwz 11,88(22)
	addi 0,11,1
	stw 0,88(22)
.LVL280:
.L196:
.LBE1202:
.LBE1261:
	.loc 2 727 0
	stw 11,288(27)
	.loc 2 730 0
	mr 4,21
	lwz 31,renderModelManager@l(19)
	mr 3,18
	.loc 2 728 0
	stw 22,284(27)
	.loc 2 730 0
	lwz 9,0(31)
	lwz 30,32(9)
.LEHB26:
	crxor 6,6,6
	bl _Z2vaPKcz
.LVL281:
	mr 4,3
	mr 3,31
	mtctr 30
	bctrl
	stw 3,4(27)
	.loc 2 731 0
	lwz 9,0(3)
	lwz 0,124(9)
	mtctr 0
	bctrl
	cmpwi 7,3,0
	beq- 7,.L232
.L212:
	.loc 2 732 0 discriminator 4
	lwz 3,common@l(16)
	mr 4,15
	lwz 9,0(3)
	lwz 0,96(9)
	mtctr 0
	crxor 6,6,6
	bctrl
.L213:
	.loc 2 735 0
	lwz 31,4(27)
.LVL282:
.LBB1262:
	.loc 2 737 0
	li 30,0
.LVL283:
.LBB1253:
.LBB1232:
.LBB1227:
.LBB1220:
.LBB1211:
	.loc 3 357 0
	li 25,20
.LBE1211:
.LBE1220:
	.loc 3 416 0
	li 26,23
.LBE1227:
.LBE1232:
.LBE1253:
	.loc 2 737 0
	lwz 9,0(31)
	mr 3,31
.LBB1254:
	.loc 2 741 0
	li 23,1
.LBE1254:
	.loc 2 737 0
	lwz 0,88(9)
	mtctr 0
	bctrl
.LVL284:
	cmpw 7,30,3
	bge- 7,.L233
.LVL285:
.L217:
.LBB1255:
	.loc 2 738 0
	lwz 9,0(31)
	mr 4,30
	mr 3,31
	lwz 0,96(9)
	mtctr 0
	bctrl
.LVL286:
	.loc 2 785 0
	lwz 9,4(3)
	lwz 3,4(9)
.LVL287:
.LBB1233:
.LBB1234:
	.file 9 "d:/Data/Nintendo/DoomGX/src/renderer/../idlib/../framework/DeclManager.h"
	.loc 9 140 0
	lwz 9,0(3)
	lwz 0,8(9)
	mtctr 0
	bctrl
.LBE1234:
.LBE1233:
.LBB1236:
.LBB1228:
.LBB1221:
.LBB1215:
	.loc 3 351 0
	li 4,24
.LBE1215:
.LBE1221:
.LBE1228:
.LBE1236:
.LBB1237:
.LBB1235:
	.loc 9 140 0
	mr 0,3
.LVL288:
.LBE1235:
.LBE1237:
.LBB1238:
.LBB1229:
.LBB1222:
.LBB1216:
	.loc 3 351 0
	li 5,1
	addi 3,1,32
	stw 0,72(1)
.LBE1216:
.LBE1222:
.LBB1223:
.LBB1212:
	.loc 3 356 0
	stw 29,32(1)
	.loc 3 357 0
	stw 25,40(1)
	.loc 3 358 0
	stw 24,36(1)
	.loc 3 359 0
	stb 29,44(1)
.LVL289:
.LBE1212:
.LBE1223:
.LBB1224:
.LBB1217:
	.loc 3 351 0
	bl _ZN5idStr10ReAllocateEib
.LEHE26:
	.loc 3 415 0
	la 11,.LC29@l(28)
	lwz 9,36(1)
	lwz 10,12(11)
	lwz 7,4(11)
	lwz 8,8(11)
	lwz 6,.LC29@l(28)
	stw 7,4(9)
	stw 6,0(9)
	stw 8,8(9)
	stw 10,12(9)
.LBE1217:
.LBE1224:
.LBE1229:
.LBE1238:
.LBB1239:
.LBB1240:
	.loc 3 658 0
	lwz 0,72(1)
.LBE1240:
.LBE1239:
.LBB1243:
.LBB1230:
.LBB1225:
.LBB1218:
	.loc 3 415 0
	lwz 10,16(11)
.LBE1218:
.LBE1225:
.LBE1230:
.LBE1243:
.LBB1244:
.LBB1241:
	.loc 3 658 0
	mr 3,0
.LBE1241:
.LBE1244:
.LBB1245:
.LBB1231:
.LBB1226:
.LBB1219:
	.loc 3 415 0
	lwz 0,20(11)
	stw 10,16(9)
	stw 0,20(9)
.LBE1219:
.LBE1226:
	.loc 3 416 0
	stw 26,32(1)
.LVL290:
.LBE1231:
.LBE1245:
.LBB1246:
.LBB1242:
	.loc 3 658 0
	lwz 4,36(1)
.LEHB27:
	bl _ZN5idStr3CmpEPKcS1_
.LEHE27:
.LVL291:
	mr 0,3
.LVL292:
.LBE1242:
.LBE1246:
.LBB1247:
.LBB1248:
.LBB1249:
	.loc 3 501 0
	addi 3,1,32
	stw 0,72(1)
.LEHB28:
	bl _ZN5idStr8FreeDataEv
.LBE1249:
.LBE1248:
.LBE1247:
	.loc 2 740 0
	lwz 0,72(1)
	cmpwi 7,0,0
	bne- 7,.L216
	.loc 2 741 0
	stb 23,368(27)
.L216:
.LBE1255:
	.loc 2 737 0
	lwz 9,0(31)
	mr 3,31
	addi 30,30,1
.LVL293:
	lwz 0,88(9)
	mtctr 0
	bctrl
	cmpw 7,30,3
	blt+ 7,.L217
.LVL294:
.L233:
.LBE1262:
	.loc 2 745 0
	lwz 4,4(27)
	addi 3,1,8
	li 5,0
.LBE1285:
	.loc 2 713 0
	addi 21,21,1
.LBB1286:
	.loc 2 745 0
	lwz 9,0(4)
	lwz 0,128(9)
	mtctr 0
	bctrl
.LVL295:
.LBB1263:
.LBB1264:
.LBB1265:
	.loc 5 424 0
	lwz 0,8(1)
.LBE1265:
.LBE1264:
.LBE1263:
	.loc 2 747 0
	lwz 31,.LC6@l(17)
.LVL296:
	.loc 2 751 0
	addi 3,27,76
.LBB1276:
.LBB1271:
.LBB1266:
	.loc 5 424 0
	stw 0,312(27)
.LBE1266:
.LBE1271:
.LBE1276:
	.loc 2 751 0
	addi 4,27,64
.LBB1277:
.LBB1272:
.LBB1267:
	.loc 5 425 0
	lwz 0,12(1)
.LBE1267:
.LBE1272:
.LBE1277:
	.loc 2 751 0
	addi 5,27,220
	.loc 2 747 0
	stw 31,76(27)
.LBB1278:
.LBB1273:
.LBB1268:
	.loc 5 425 0
	stw 0,316(27)
	.loc 5 426 0
	lwz 0,16(1)
.LBE1268:
.LBE1273:
.LBE1278:
	.loc 2 748 0
	stw 31,92(27)
.LBB1279:
.LBB1274:
.LBB1269:
	.loc 5 426 0
	stw 0,320(27)
.LVL297:
	.loc 5 424 0
	lwz 0,20(1)
.LBE1269:
.LBE1274:
.LBE1279:
	.loc 2 749 0
	stw 31,108(27)
.LBB1280:
.LBB1275:
.LBB1270:
	.loc 5 424 0
	stw 0,324(27)
	.loc 5 425 0
	lwz 0,24(1)
	stw 0,328(27)
	.loc 5 426 0
	lwz 0,28(1)
	stw 0,332(27)
.LVL298:
.LBE1270:
.LBE1275:
.LBE1280:
	.loc 2 751 0
	bl _Z19R_AxisToModelMatrixRK6idMat3RK6idVec3Pf
.LVL299:
	.loc 2 758 0
	stw 31,140(27)
	stw 31,136(27)
	.loc 2 760 0
	mr 3,22
	.loc 2 758 0
	stw 31,132(27)
	.loc 2 760 0
	mr 4,27
	.loc 2 758 0
	stw 31,128(27)
	.loc 2 760 0
	lwz 5,48(22)
	add 5,5,20
.LBE1286:
	.loc 2 713 0
	addi 20,20,72
.LBB1287:
	.loc 2 760 0
	bl _ZN18idRenderWorldLocal18AddEntityRefToAreaEP19idRenderEntityLocalP12portalArea_s
.LVL300:
.LBE1287:
	.loc 2 713 0
	lwz 0,52(22)
	cmpw 7,0,21
	bgt+ 7,.L218
.LVL301:
.L189:
.LBE1168:
.LBE1291:
	.loc 2 762 0
	lwz 0,156(1)
	lwz 14,80(1)
	mtlr 0
	lwz 15,84(1)
	lwz 16,88(1)
	lwz 17,92(1)
	lwz 18,96(1)
	lwz 19,100(1)
	lwz 20,104(1)
	lwz 21,108(1)
	lwz 22,112(1)
.LVL302:
	lwz 23,116(1)
	lwz 24,120(1)
	lwz 25,124(1)
	lwz 26,128(1)
	lwz 27,132(1)
	lwz 28,136(1)
	lwz 29,140(1)
	lwz 30,144(1)
	lwz 31,148(1)
	addi 1,1,152
	.cfi_remember_state
.LCFI40:
	.cfi_def_cfa_offset 0
	.cfi_restore 31
	.cfi_restore 30
	.cfi_restore 29
	.cfi_restore 28
	.cfi_restore 27
	.cfi_restore 26
	.cfi_restore 25
	.cfi_restore 24
	.cfi_restore 23
	.cfi_restore 22
	.cfi_restore 21
	.cfi_restore 20
	.cfi_restore 19
	.cfi_restore 18
	.cfi_restore 17
	.cfi_restore 16
	.cfi_restore 15
	.cfi_restore 14
	blr
.LVL303:
.L222:
.LCFI41:
	.cfi_restore_state
.LBB1292:
.LBB1289:
.LBB1288:
.LBB1281:
.LBB1203:
	.loc 6 656 0
	lwz 3,96(22)
.LVL304:
.LBB1190:
.LBB1191:
	.loc 6 375 0
	cmpwi 7,3,0
	ble- 7,.L234
	.loc 6 380 0
	lwz 0,92(22)
	cmpw 7,3,0
	beq- 7,.L199
.LVL305:
	.loc 6 387 0
	cmpw 7,8,3
	.loc 6 386 0
	stw 3,92(22)
	.loc 6 387 0
	ble- 7,.L200
	.loc 6 388 0
	stw 3,88(22)
.L200:
	.loc 6 392 0
	slwi 3,3,2
	bl _Znaj
.LVL306:
	.loc 6 393 0
	lwz 8,88(22)
	.loc 6 392 0
	mr 31,3
	stw 3,100(22)
.LVL307:
	.loc 6 393 0
	cmpwi 7,8,0
	li 9,0
	li 11,0
	bgt+ 7,.L229
	b .L230
.LVL308:
.L235:
	lwz 31,100(22)
.LVL309:
.L229:
	.loc 6 394 0
	lwz 0,0(9)
	.loc 6 393 0
	addi 11,11,1
.LVL310:
	.loc 6 394 0
	stwx 0,31,9
	.loc 6 393 0
	addi 9,9,4
	lwz 8,0(30)
	cmpw 7,11,8
	blt+ 7,.L235
	lwz 0,92(22)
	lwz 31,100(22)
.LBE1191:
.LBE1190:
.LBB1197:
	.loc 6 659 0
	cmpw 7,8,0
	bne+ 7,.L236
.LVL311:
.L225:
	lwz 3,96(22)
	mr 11,8
.L198:
.LBB1186:
	.loc 6 662 0
	cmpwi 7,3,0
	mr 0,3
	bne- 7,.L204
	.loc 6 663 0
	stw 14,96(22)
	li 0,16
.L204:
	.loc 6 665 0
	add 9,8,0
.LVL312:
	.loc 6 666 0
	divw 9,9,0
.LVL313:
.LBB1174:
.LBB1175:
	.loc 6 375 0
	mullw. 0,9,0
.LVL314:
	ble- 0,.L237
	.loc 6 380 0
	cmpw 7,0,8
	beq- 7,.L238
.LVL315:
	.loc 6 387 0
	cmpw 7,0,11
	.loc 6 386 0
	stw 0,92(22)
	.loc 6 387 0
	bge- 7,.L208
	.loc 6 388 0
	stw 0,88(22)
.L208:
	.loc 6 392 0
	slwi 3,0,2
	bl _Znaj
.LVL316:
	.loc 6 393 0
	lwz 0,88(22)
	.loc 6 392 0
	stw 3,100(22)
.LVL317:
	.loc 6 393 0
	cmpwi 7,0,0
	ble- 7,.L209
	.loc 2 706 0
	addi 11,31,-4
.LBE1175:
.LBE1174:
	.loc 6 393 0
	li 9,0
	b .L210
.LVL318:
.L239:
.LBB1183:
.LBB1176:
	lwz 3,100(22)
.LVL319:
.L210:
	.loc 6 394 0
	lwzu 10,4(11)
	slwi 0,9,2
	.loc 6 393 0
	addi 9,9,1
.LVL320:
	.loc 6 394 0
	stwx 10,3,0
	.loc 6 393 0
	lwz 0,0(30)
	cmpw 7,9,0
	blt+ 7,.L239
.LVL321:
.L209:
	.loc 6 398 0
	cmpwi 7,31,0
	beq- 7,.L231
	.loc 6 399 0
	mr 3,31
	bl _ZdaPv
.L231:
	lwz 0,88(22)
	lwz 31,100(22)
.LVL322:
	slwi 0,0,2
	add 31,31,0
	b .L203
.LVL323:
.L223:
.LBE1176:
.LBE1183:
.LBE1186:
.LBE1197:
.LBE1203:
.LBE1281:
.LBB1282:
.LBB1259:
	.loc 6 816 0
	mr 10,31
	.loc 6 815 0
	li 11,0
.LVL324:
.L192:
.LBE1259:
.LBE1282:
	.loc 2 724 0
	stw 27,0(10)
	b .L196
.LVL325:
.L232:
	.loc 2 731 0 discriminator 2
	lwz 3,4(27)
	lwz 9,0(3)
	lwz 0,112(9)
	mtctr 0
	bctrl
.LEHE28:
	cmpwi 7,3,0
	bne- 7,.L213
	b .L212
.LVL326:
.L237:
.LBB1283:
.LBB1204:
.LBB1198:
.LBB1187:
.LBB1184:
.LBB1177:
.LBB1178:
.LBB1179:
.LBB1180:
.LBB1181:
	.loc 6 193 0
	cmpwi 7,31,0
	beq- 7,.L206
	.loc 6 194 0
	mr 3,31
	bl _ZdaPv
.LVL327:
.L206:
	.loc 6 197 0
	stw 29,100(22)
	.loc 6 199 0
	li 31,0
	.loc 6 198 0
	stw 29,88(22)
	.loc 6 199 0
	stw 29,92(22)
	b .L203
.LVL328:
.L234:
.LBE1181:
.LBE1180:
.LBE1179:
.LBE1178:
.LBE1177:
.LBE1184:
.LBE1187:
.LBE1198:
.LBB1199:
.LBB1192:
.LBB1193:
.LBB1194:
.LBB1195:
.LBB1196:
	.loc 6 197 0
	stw 31,100(22)
	.loc 6 199 0
	li 8,0
	.loc 6 198 0
	stw 31,88(22)
	.loc 6 199 0
	li 11,0
	stw 31,92(22)
	b .L198
.LVL329:
.L238:
.LBE1196:
.LBE1195:
.LBE1194:
.LBE1193:
.LBE1192:
.LBE1199:
.LBB1200:
.LBB1188:
.LBB1185:
.LBB1182:
	.loc 6 380 0
	slwi 11,11,2
	add 31,31,11
	b .L203
.LVL330:
.L227:
	mr 31,3
.LVL331:
.LBE1182:
.LBE1185:
.LBE1188:
.LBE1200:
.LBE1204:
.LBE1283:
.LBB1284:
.LBB1256:
.LBB1250:
.LBB1251:
.LBB1252:
	.loc 3 501 0
	addi 3,1,32
	bl _ZN5idStr8FreeDataEv
	mr 3,31
.LEHB29:
	bl _Unwind_Resume
.LVL332:
.L226:
	mr 31,3
.LBE1252:
.LBE1251:
.LBE1250:
.LBE1256:
.LBE1284:
	.loc 2 717 0
	mr 3,27
	bl _ZN19idRenderEntityLocaldlEPv
	mr 3,31
	bl _Unwind_Resume
.LEHE29:
.LBE1288:
.LBE1289:
.LBE1292:
	.cfi_endproc
.LFE2579:
	.section	.gcc_except_table
.LLSDA2579:
	.byte	0xff
	.byte	0xff
	.byte	0x1
	.uleb128 .LLSDACSE2579-.LLSDACSB2579
.LLSDACSB2579:
	.uleb128 .LEHB24-.LFB2579
	.uleb128 .LEHE24-.LEHB24
	.uleb128 0
	.uleb128 0
	.uleb128 .LEHB25-.LFB2579
	.uleb128 .LEHE25-.LEHB25
	.uleb128 .L226-.LFB2579
	.uleb128 0
	.uleb128 .LEHB26-.LFB2579
	.uleb128 .LEHE26-.LEHB26
	.uleb128 0
	.uleb128 0
	.uleb128 .LEHB27-.LFB2579
	.uleb128 .LEHE27-.LEHB27
	.uleb128 .L227-.LFB2579
	.uleb128 0
	.uleb128 .LEHB28-.LFB2579
	.uleb128 .LEHE28-.LEHB28
	.uleb128 0
	.uleb128 0
	.uleb128 .LEHB29-.LFB2579
	.uleb128 .LEHE29-.LEHB29
	.uleb128 0
	.uleb128 0
.LLSDACSE2579:
	.section	".text"
	.size	_ZN18idRenderWorldLocal21AddWorldModelEntitiesEv, .-_ZN18idRenderWorldLocal21AddWorldModelEntitiesEv
	.align 2
	.globl _ZN18idRenderWorldLocal11InitFromMapEPKc
	.type	_ZN18idRenderWorldLocal11InitFromMapEPKc, @function
_ZN18idRenderWorldLocal11InitFromMapEPKc:
.LFB2577:
	.loc 2 551 0
	.cfi_startproc
	.cfi_personality 0,__gxx_personality_v0
	.cfi_lsda 0,.LLSDA2577
.LVL333:
	stwu 1,-192(1)
.LCFI42:
	.cfi_def_cfa_offset 192
	mflr 0
	stw 31,188(1)
	mr 31,3
	.cfi_offset 31, -4
	.cfi_register 65, 0
.LBB1370:
	.loc 2 552 0
	lis 3,.LC30@ha
.LVL334:
.LBE1370:
	.loc 2 551 0
	stw 29,180(1)
.LBB1517:
	.loc 2 552 0
	la 3,.LC30@l(3)
.LBE1517:
	.loc 2 551 0
	mr 29,4
	.cfi_offset 29, -12
	stw 0,196(1)
	stw 18,136(1)
	stw 19,140(1)
	stw 20,144(1)
	stw 21,148(1)
	stw 22,152(1)
	stw 23,156(1)
	stw 24,160(1)
	stw 25,164(1)
	stw 26,168(1)
	stw 27,172(1)
	stw 28,176(1)
	stw 30,184(1)
.LEHB30:
.LBB1518:
	.loc 2 552 0
	.cfi_offset 30, -8
	.cfi_offset 28, -16
	.cfi_offset 27, -20
	.cfi_offset 26, -24
	.cfi_offset 25, -28
	.cfi_offset 24, -32
	.cfi_offset 23, -36
	.cfi_offset 22, -40
	.cfi_offset 21, -44
	.cfi_offset 20, -48
	.cfi_offset 19, -52
	.cfi_offset 18, -56
	.cfi_offset 65, 4
	crxor 6,6,6
	bl _Z10Sys_PrintfPKcz
.LEHE30:
.LVL335:
	.loc 2 559 0
	cmpwi 7,29,0
.LBB1371:
.LBB1372:
.LBB1373:
.LBB1374:
	.loc 3 357 0
	li 9,20
	.loc 3 356 0
	li 0,0
	.loc 3 357 0
	stw 9,56(1)
	.loc 3 358 0
	addi 11,1,60
.LBE1374:
.LBE1373:
.LBE1372:
.LBE1371:
.LBB1378:
.LBB1379:
.LBB1380:
	.loc 3 357 0
	stw 9,20(1)
	.loc 3 358 0
	addi 9,1,24
.LBE1380:
.LBE1379:
.LBE1378:
.LBB1383:
.LBB1377:
.LBB1376:
.LBB1375:
	.loc 3 356 0
	stw 0,48(1)
	.loc 3 358 0
	stw 11,52(1)
	.loc 3 359 0
	stb 0,60(1)
.LVL336:
.LBE1375:
.LBE1376:
.LBE1377:
.LBE1383:
.LBB1384:
.LBB1382:
.LBB1381:
	.loc 3 356 0
	stw 0,12(1)
	.loc 3 358 0
	stw 9,16(1)
	.loc 3 359 0
	stb 0,24(1)
.LBE1381:
.LBE1382:
.LBE1384:
	.loc 2 559 0
	beq- 7,.L241
	.loc 2 559 0 is_stmt 0 discriminator 1
	lbz 0,0(29)
	cmpwi 7,0,0
	bne- 7,.L242
.L241:
	.loc 2 560 0 is_stmt 1
	mr 3,31
	addi 30,1,48
.LEHB31:
	bl _ZN18idRenderWorldLocal9FreeWorldEv
.LVL337:
.LBB1385:
.LBB1386:
	.loc 3 746 0
	addi 3,31,4
	addi 30,1,48
	bl _ZN5idStr8FreeDataEv
.LVL338:
.LBB1387:
.LBB1388:
	.loc 3 356 0
	li 0,0
	.loc 3 358 0
	addi 9,31,16
	.loc 3 357 0
	li 11,20
	.loc 3 356 0
	stw 0,4(31)
	.loc 3 357 0
	stw 11,12(31)
.LBE1388:
.LBE1387:
.LBE1386:
.LBE1385:
	.loc 2 562 0
	mr 3,31
.LBB1392:
.LBB1391:
.LBB1390:
.LBB1389:
	.loc 3 358 0
	stw 9,8(31)
	addi 30,1,48
	.loc 3 359 0
	stb 0,16(31)
.LBE1389:
.LBE1390:
.LBE1391:
.LBE1392:
	.loc 2 562 0
	bl _ZN18idRenderWorldLocal10ClearWorldEv
.LEHE31:
.LVL339:
.L316:
	.loc 2 583 0
	li 31,1
.LVL340:
	addi 30,1,48
.LVL341:
.L243:
.LBB1393:
.LBB1394:
.LBB1395:
	.loc 3 501 0
	addi 3,1,12
.LEHB32:
	bl _ZN5idStr8FreeDataEv
.LEHE32:
.LVL342:
.LBE1395:
.LBE1394:
.LBE1393:
.LBB1396:
.LBB1397:
.LBB1398:
.LBB1399:
.LBB1400:
	mr 3,30
.LEHB33:
	bl _ZN5idStr8FreeDataEv
.LEHE33:
.LBE1400:
.LBE1399:
.LBE1398:
.LBE1397:
.LBE1396:
.LBE1518:
	.loc 2 674 0
	lwz 0,196(1)
	mr 3,31
	lwz 18,136(1)
	mtlr 0
	lwz 19,140(1)
	lwz 20,144(1)
	lwz 21,148(1)
	lwz 22,152(1)
	lwz 23,156(1)
	lwz 24,160(1)
	lwz 25,164(1)
	lwz 26,168(1)
	lwz 27,172(1)
	lwz 28,176(1)
	lwz 29,180(1)
	lwz 30,184(1)
	lwz 31,188(1)
	addi 1,1,192
	.cfi_remember_state
.LCFI43:
	.cfi_def_cfa_offset 0
	.cfi_restore 31
	.cfi_restore 30
	.cfi_restore 29
	.cfi_restore 28
	.cfi_restore 27
	.cfi_restore 26
	.cfi_restore 25
	.cfi_restore 24
	.cfi_restore 23
	.cfi_restore 22
	.cfi_restore 21
	.cfi_restore 20
	.cfi_restore 19
	.cfi_restore 18
	blr
.LVL343:
.L242:
.LCFI44:
	.cfi_restore_state
.LBB1519:
	.loc 2 568 0
	addi 3,1,12
	mr 4,29
	addi 30,1,48
.LEHB34:
	bl _ZN5idStraSEPKc
	.loc 2 569 0
	lis 4,.LC31@ha
	addi 3,1,12
	la 4,.LC31@l(4)
	addi 30,1,48
	bl _ZN5idStr16SetFileExtensionEPKc
	.loc 2 574 0
	lis 9,fileSystem@ha
	lwz 4,16(1)
	lwz 3,fileSystem@l(9)
.LVL344:
	li 5,0
	addi 6,1,8
	addi 30,1,48
	lwz 9,0(3)
	lwz 0,96(9)
	mtctr 0
	bctrl
.LVL345:
.LBB1401:
.LBB1402:
	.loc 3 658 0
	lwz 4,8(31)
	mr 3,29
	addi 30,1,48
	bl _ZN5idStr3CmpEPKcS1_
.LBE1402:
.LBE1401:
	.loc 2 576 0
	cmpwi 7,3,0
	bne- 7,.L244
.LVL346:
	.loc 2 577 0
	lwz 0,8(1)
	.loc 2 578 0
	lis 9,common@ha
	lwz 3,common@l(9)
	.loc 2 577 0
	cmpwi 7,0,-1
	beq- 7,.L245
	.loc 2 577 0 is_stmt 0 discriminator 1
	lwz 9,36(31)
	cmpw 7,0,9
	beq- 7,.L326
.L245:
	.loc 2 585 0 is_stmt 1
	lwz 9,0(3)
	lis 4,.LC33@ha
	la 4,.LC33@l(4)
	addi 30,1,48
	lwz 0,68(9)
	mtctr 0
	crxor 6,6,6
	bctrl
.L244:
	.loc 2 588 0
	mr 3,31
	addi 30,1,48
	bl _ZN18idRenderWorldLocal9FreeWorldEv
.LVL347:
	.loc 2 590 0
	li 3,208
.LBB1403:
	.loc 2 785 0
	lwz 27,16(1)
	addi 30,1,48
.LBE1403:
	.loc 2 590 0
	bl _Znwj
.LEHE34:
	mr 4,27
	li 5,40
	li 6,0
	mr 28,3
.LEHB35:
	bl _ZN7idLexerC1EPKcib
.LEHE35:
.LVL348:
	.loc 2 591 0 discriminator 1
	lwz 0,0(28)
	cmpwi 7,0,0
	beq- 7,.L327
	.loc 2 598 0
	addi 3,31,4
	mr 4,29
	addi 30,1,48
.LEHB36:
	bl _ZN5idStraSEPKc
	.loc 2 599 0
	lwz 0,8(1)
	.loc 2 607 0
	addi 30,1,48
	mr 3,28
	mr 4,30
	.loc 2 599 0
	stw 0,36(31)
	.loc 2 607 0
	bl _ZN7idLexer9ReadTokenEP7idToken
	cmpwi 7,3,0
	lis 29,.LC35@ha
.LVL349:
	la 29,.LC35@l(29)
	bne- 7,.L318
.L247:
	.loc 2 608 0 discriminator 4
	lis 9,common@ha
	lis 4,.LC36@ha
	lwz 3,common@l(9)
	la 4,.LC36@l(4)
	lwz 5,4(30)
	mr 6,29
	lwz 9,0(3)
	lwz 0,68(9)
	mtctr 0
	crxor 6,6,6
	bctrl
	.loc 2 609 0 discriminator 1
	mr 3,28
	bl _ZN7idLexerD1Ev
	mr 3,28
	.loc 2 610 0 discriminator 1
	li 31,0
.LVL350:
	.loc 2 609 0 discriminator 1
	bl _ZdlPv
	b .L243
.LVL351:
.L327:
	.loc 2 592 0
	lis 9,common@ha
	lis 4,.LC34@ha
	lwz 3,common@l(9)
	la 4,.LC34@l(4)
	lwz 5,16(1)
	addi 30,1,48
	lwz 9,0(3)
	lwz 0,68(9)
	mtctr 0
	crxor 6,6,6
	bctrl
	.loc 2 593 0
	mr 3,31
	addi 30,1,48
	bl _ZN18idRenderWorldLocal10ClearWorldEv
	.loc 2 594 0
	li 31,0
.LVL352:
	addi 30,1,48
	b .L243
.LVL353:
.L318:
.LBB1404:
.LBB1405:
	.loc 3 690 0 discriminator 2
	lwz 3,4(30)
	mr 4,29
	bl _ZN5idStr4IcmpEPKcS1_
.LBE1405:
.LBE1404:
	.loc 2 607 0 discriminator 2
	cmpwi 7,3,0
	addi 24,28,40
	bne- 7,.L247
.LBB1406:
.LBB1407:
.LBB1408:
	.loc 3 653 0
	lis 23,.LC23@ha
.LBE1408:
.LBE1407:
.LBB1411:
.LBB1412:
	lis 22,.LC24@ha
.LBE1412:
.LBE1411:
.LBB1415:
.LBB1416:
	lis 21,.LC37@ha
.LBE1416:
.LBE1415:
.LBB1419:
.LBB1420:
	lis 19,.LC38@ha
.LBE1420:
.LBE1419:
	.loc 2 656 0
	lis 18,.LC39@ha
.LBB1423:
.LBB1409:
	.loc 3 653 0
	la 23,.LC23@l(23)
.LBE1409:
.LBE1423:
.LBB1424:
.LBB1413:
	la 22,.LC24@l(22)
.LBE1413:
.LBE1424:
.LBB1425:
.LBB1417:
	la 21,.LC37@l(21)
.LBE1417:
.LBE1425:
.LBB1426:
.LBB1421:
	la 19,.LC38@l(19)
.LBE1421:
.LBE1426:
	.loc 2 656 0
	la 18,.LC39@l(18)
	.loc 2 639 0
	lis 25,renderModelManager@ha
.LBB1427:
.LBB1428:
.LBB1429:
.LBB1430:
	.loc 6 663 0
	li 20,16
.L319:
.LBE1430:
.LBE1429:
.LBE1428:
.LBE1427:
.LBB1466:
.LBB1467:
	.loc 8 349 0
	mr 3,24
	bl _ZN11fileDataPtrcvKiEv
.L328:
	mr 29,3
.LVL354:
.LBE1467:
.LBE1466:
	.loc 2 617 0
	mr 4,30
	mr 3,28
.LVL355:
	bl _ZN7idLexer9ReadTokenEP7idToken
	cmpwi 7,3,0
	beq- 7,.L249
.LVL356:
.LBB1470:
.LBB1410:
	.loc 3 653 0
	lwz 3,4(30)
	mr 4,23
	bl _ZN5idStr3CmpEPKcS1_
.LBE1410:
.LBE1470:
	.loc 2 621 0
	cmpwi 7,3,0
	bne- 7,.L250
.LVL357:
	.loc 2 625 0
	lwz 5,16(1)
	mr 3,31
	mr 4,28
	mr 6,29
	li 7,0
	bl _ZN18idRenderWorldLocal10ParseModelEP7idLexerPKciP13idRenderModel
	mr 26,3
.LVL358:
	.loc 2 628 0
	lwz 3,renderModelManager@l(25)
.LVL359:
	mr 4,26
	lwz 9,0(3)
	lwz 0,44(9)
	mtctr 0
	bctrl
.LBB1471:
.LBB1472:
	.loc 6 655 0
	lwz 29,84(31)
.LVL360:
.LBE1472:
.LBE1471:
	.loc 2 631 0
	addi 27,31,72
.LVL361:
.LBB1492:
.LBB1488:
	.loc 6 655 0
	cmpwi 7,29,0
	beq- 7,.L251
	lwz 0,72(31)
	lwz 9,76(31)
.L252:
.LBB1473:
	.loc 6 659 0
	cmpw 7,0,9
	beq- 7,.L303
.LVL362:
.L320:
.LBE1473:
.LBE1488:
.LBE1492:
.LBB1493:
.LBB1459:
.LBB1447:
.LBB1443:
.LBB1431:
.LBB1432:
	.loc 6 399 0
	slwi 0,0,2
	add 29,29,0
.L278:
.LBE1432:
.LBE1431:
.LBE1443:
.LBE1447:
	.loc 6 669 0
	stw 26,0(29)
.LBE1459:
.LBE1493:
.LBB1494:
.LBB1468:
	.loc 8 349 0
	mr 3,24
.LBE1468:
.LBE1494:
.LBB1495:
.LBB1460:
	.loc 6 670 0
	lwz 9,72(31)
	addi 0,9,1
	stw 0,72(31)
.LBE1460:
.LBE1495:
.LBB1496:
.LBB1469:
	.loc 8 349 0
	bl _ZN11fileDataPtrcvKiEv
	b .L328
.LVL363:
.L250:
.LBE1469:
.LBE1496:
.LBB1497:
.LBB1414:
	.loc 3 653 0
	lwz 3,4(30)
	mr 4,22
	bl _ZN5idStr3CmpEPKcS1_
.LBE1414:
.LBE1497:
	.loc 2 635 0
	cmpwi 7,3,0
	bne- 7,.L269
.LVL364:
	.loc 2 636 0
	lwz 5,16(1)
	mr 3,31
	mr 4,28
	mr 6,29
	li 7,0
	bl _ZN18idRenderWorldLocal16ParseShadowModelEP7idLexerPKciP13idRenderModel
	mr 26,3
.LVL365:
	.loc 2 639 0
	lwz 3,renderModelManager@l(25)
.LVL366:
	mr 4,26
	lwz 9,0(3)
	lwz 0,44(9)
	mtctr 0
	bctrl
.LBB1498:
.LBB1461:
	.loc 6 655 0
	lwz 29,84(31)
.LVL367:
.LBE1461:
.LBE1498:
	.loc 2 642 0
	addi 27,31,72
.LVL368:
.LBB1499:
.LBB1462:
	.loc 6 655 0
	cmpwi 7,29,0
	beq- 7,.L270
	lwz 0,72(31)
	lwz 9,76(31)
.L271:
.LBB1448:
	.loc 6 659 0
	cmpw 7,0,9
	bne+ 7,.L320
	lwz 3,80(31)
	mr 11,0
.L273:
.LBB1444:
	.loc 6 662 0
	cmpwi 7,3,0
	bne- 7,.L279
	.loc 6 663 0
	stw 20,80(31)
	li 3,16
.L279:
	.loc 6 665 0
	add 9,0,3
.LVL369:
	.loc 6 666 0
	divw 9,9,3
.LVL370:
.LBB1439:
.LBB1435:
	.loc 6 375 0
	mullw. 3,9,3
.LVL371:
	ble- 0,.L325
	.loc 6 380 0
	cmpw 7,0,3
	beq- 7,.L322
.LVL372:
	.loc 6 387 0
	cmpw 7,3,11
	.loc 6 386 0
	stw 3,76(31)
	.loc 6 387 0
	bge- 7,.L283
	.loc 6 388 0
	stw 3,72(31)
.L283:
	.loc 6 392 0
	slwi 3,3,2
.LVL373:
	bl _Znaj
.LVL374:
	.loc 6 393 0
	lwz 0,72(31)
	.loc 6 392 0
	stw 3,84(31)
.LVL375:
	.loc 6 393 0
	cmpwi 7,0,0
	ble- 7,.L284
	.loc 2 551 0
	addi 11,29,-4
.LBE1435:
.LBE1439:
	.loc 6 393 0
	li 9,0
	b .L285
.LVL376:
.L329:
.LBB1440:
.LBB1436:
	lwz 3,84(31)
.LVL377:
.L285:
	.loc 6 394 0
	lwzu 10,4(11)
	slwi 0,9,2
	.loc 6 393 0
	addi 9,9,1
.LVL378:
	.loc 6 394 0
	stwx 10,3,0
	.loc 6 393 0
	lwz 0,0(27)
	cmpw 7,9,0
	blt+ 7,.L329
.LVL379:
.L284:
	.loc 6 398 0
	cmpwi 7,29,0
	beq- 7,.L321
	.loc 6 399 0
	mr 3,29
	bl _ZdaPv
	lwz 0,72(31)
	lwz 29,84(31)
.LVL380:
	b .L320
.LVL381:
.L269:
.LBE1436:
.LBE1440:
.LBE1444:
.LBE1448:
.LBE1462:
.LBE1499:
.LBB1500:
.LBB1418:
	.loc 3 653 0
	lwz 3,4(30)
	mr 4,21
	bl _ZN5idStr3CmpEPKcS1_
.LBE1418:
.LBE1500:
	.loc 2 646 0
	cmpwi 7,3,0
	bne- 7,.L287
	.loc 2 647 0
	mr 3,31
	mr 4,28
	bl _ZN18idRenderWorldLocal21ParseInterAreaPortalsEP7idLexer
	b .L319
.LVL382:
.L303:
	lwz 3,80(31)
.LBB1501:
.LBB1489:
.LBB1479:
	.loc 6 659 0
	mr 11,0
.L254:
.LBB1474:
	.loc 6 662 0
	cmpwi 7,3,0
	bne- 7,.L260
	.loc 6 663 0
	stw 20,80(31)
	li 3,16
.L260:
	.loc 6 665 0
	add 9,0,3
.LVL383:
	.loc 6 666 0
	divw 9,9,3
.LVL384:
.LBB1475:
.LBB1476:
	.loc 6 375 0
	mullw. 3,9,3
.LVL385:
	ble- 0,.L325
	.loc 6 380 0
	cmpw 7,3,0
	beq- 7,.L322
.LVL386:
	.loc 6 387 0
	cmpw 7,3,11
	.loc 6 386 0
	stw 3,76(31)
	.loc 6 387 0
	bge- 7,.L264
	.loc 6 388 0
	stw 3,72(31)
.L264:
	.loc 6 392 0
	slwi 3,3,2
.LVL387:
	bl _Znaj
.LVL388:
	.loc 6 393 0
	lwz 0,72(31)
	.loc 6 392 0
	stw 3,84(31)
.LVL389:
	.loc 6 393 0
	cmpwi 7,0,0
	ble- 7,.L265
	.loc 2 551 0
	addi 11,29,-4
.LBE1476:
.LBE1475:
	.loc 6 393 0
	li 9,0
	b .L266
.LVL390:
.L330:
.LBB1478:
.LBB1477:
	lwz 3,84(31)
.LVL391:
.L266:
	.loc 6 394 0
	lwzu 10,4(11)
	slwi 0,9,2
	.loc 6 393 0
	addi 9,9,1
.LVL392:
	.loc 6 394 0
	stwx 10,3,0
	.loc 6 393 0
	lwz 0,0(27)
	cmpw 7,9,0
	blt+ 7,.L330
.LVL393:
.L265:
	.loc 6 398 0
	cmpwi 7,29,0
	beq- 7,.L321
	.loc 6 399 0
	mr 3,29
	bl _ZdaPv
	lwz 0,72(31)
	lwz 29,84(31)
.LVL394:
	slwi 0,0,2
	add 29,29,0
	b .L278
.LVL395:
.L287:
.LBE1477:
.LBE1478:
.LBE1474:
.LBE1479:
.LBE1489:
.LBE1501:
.LBB1502:
.LBB1422:
	.loc 3 653 0
	lwz 3,4(30)
	mr 4,19
	bl _ZN5idStr3CmpEPKcS1_
.LBE1422:
.LBE1502:
	.loc 2 651 0
	cmpwi 7,3,0
	bne- 7,.L288
	.loc 2 652 0
	mr 3,31
	mr 4,28
	bl _ZN18idRenderWorldLocal10ParseNodesEP7idLexer
	b .L319
.L288:
	.loc 2 656 0
	lwz 5,4(30)
	mr 3,28
	mr 4,18
	crxor 6,6,6
	bl _ZN7idLexer5ErrorEPKcz
	b .L319
.LVL396:
.L322:
.LBB1503:
.LBB1463:
.LBB1449:
.LBB1445:
.LBB1441:
.LBB1437:
	.loc 6 380 0
	slwi 11,11,2
	add 29,29,11
	b .L278
.LVL397:
.L251:
.LBE1437:
.LBE1441:
.LBE1445:
.LBE1449:
.LBE1463:
.LBE1503:
.LBB1504:
.LBB1490:
	.loc 6 656 0
	lwz 3,80(31)
.LBB1480:
.LBB1481:
	.loc 6 375 0
	cmpwi 7,3,0
.LBE1481:
.LBE1480:
	.loc 6 656 0
	mr 9,3
.LVL398:
.LBB1486:
.LBB1484:
	.loc 6 375 0
	ble- 7,.L331
	.loc 6 380 0
	lwz 0,76(31)
	cmpw 7,3,0
	lwz 0,72(31)
	beq- 7,.L252
.LVL399:
	.loc 6 387 0
	cmpw 7,3,0
	.loc 6 386 0
	stw 3,76(31)
	.loc 6 387 0
	bge- 7,.L256
	.loc 6 388 0
	stw 3,72(31)
.L256:
	.loc 6 392 0
	slwi 3,3,2
	bl _Znaj
.LVL400:
	.loc 6 393 0
	lwz 0,72(31)
	.loc 6 392 0
	mr 29,3
	stw 3,84(31)
.LVL401:
	.loc 6 393 0
	li 9,0
	cmpwi 7,0,0
	li 11,0
	bgt+ 7,.L313
	b .L337
.LVL402:
.L333:
	lwz 29,84(31)
.LVL403:
.L313:
	.loc 6 394 0
	lwz 0,0(9)
	.loc 6 393 0
	addi 11,11,1
.LVL404:
	.loc 6 394 0
	stwx 0,29,9
	.loc 6 393 0
	addi 9,9,4
	lwz 0,0(27)
	cmpw 7,11,0
	blt+ 7,.L333
	lwz 9,76(31)
	lwz 29,84(31)
	b .L252
.LVL405:
.L325:
.LBE1484:
.LBE1486:
.LBE1490:
.LBE1504:
.LBB1505:
.LBB1464:
.LBB1450:
.LBB1446:
.LBB1442:
.LBB1438:
.LBB1433:
.LBB1434:
	.loc 6 193 0
	cmpwi 7,29,0
	beq- 7,.L281
	.loc 6 194 0
	mr 3,29
	bl _ZdaPv
.L281:
	.loc 6 197 0
	li 0,0
	.loc 6 199 0
	li 29,0
	.loc 6 197 0
	stw 0,84(31)
	.loc 6 198 0
	stw 0,72(31)
	.loc 6 199 0
	stw 0,76(31)
	b .L278
.L321:
.LBE1434:
.LBE1433:
	.loc 6 398 0
	lwz 0,72(31)
	lwz 29,84(31)
	slwi 0,0,2
	add 29,29,0
	b .L278
.LVL406:
.L270:
.LBE1438:
.LBE1442:
.LBE1446:
.LBE1450:
	.loc 6 656 0
	lwz 3,80(31)
.LBB1451:
.LBB1452:
	.loc 6 375 0
	cmpwi 7,3,0
.LBE1452:
.LBE1451:
	.loc 6 656 0
	mr 9,3
.LVL407:
.LBB1457:
.LBB1455:
	.loc 6 375 0
	ble- 7,.L334
	.loc 6 380 0
	lwz 0,76(31)
	cmpw 7,3,0
	lwz 0,72(31)
	beq- 7,.L271
.LVL408:
	.loc 6 387 0
	cmpw 7,3,0
	.loc 6 386 0
	stw 3,76(31)
	.loc 6 387 0
	bge- 7,.L275
	.loc 6 388 0
	stw 3,72(31)
.L275:
	.loc 6 392 0
	slwi 3,3,2
	bl _Znaj
.LVL409:
	.loc 6 393 0
	lwz 0,72(31)
	.loc 6 392 0
	mr 29,3
	stw 3,84(31)
.LVL410:
	.loc 6 393 0
	li 9,0
	cmpwi 7,0,0
	li 11,0
	bgt+ 7,.L314
	b .L338
.LVL411:
.L336:
	lwz 29,84(31)
.LVL412:
.L314:
	.loc 6 394 0
	lwz 0,0(9)
	.loc 6 393 0
	addi 11,11,1
.LVL413:
	.loc 6 394 0
	stwx 0,29,9
	.loc 6 393 0
	addi 9,9,4
	lwz 0,0(27)
	cmpw 7,11,0
	blt+ 7,.L336
	lwz 9,76(31)
	lwz 29,84(31)
	b .L271
.LVL414:
.L249:
.LBE1455:
.LBE1457:
.LBE1464:
.LBE1505:
.LBE1406:
	.loc 2 659 0 discriminator 1
	mr 3,28
	bl _ZN7idLexerD1Ev
	mr 3,28
	bl _ZdlPv
	.loc 2 662 0 discriminator 1
	lwz 0,52(31)
	cmpwi 7,0,0
	bne- 7,.L289
	.loc 2 663 0
	mr 3,31
	bl _ZN18idRenderWorldLocal10ClearWorldEv
.L289:
	.loc 2 667 0
	lwz 4,40(31)
	mr 3,31
	bl _ZN18idRenderWorldLocal20CommonChildrenArea_rEP10areaNode_t
	.loc 2 669 0
	mr 3,31
	bl _ZN18idRenderWorldLocal21AddWorldModelEntitiesEv
	.loc 2 670 0
	mr 3,31
	bl _ZN18idRenderWorldLocal17ClearPortalStatesEv
	.loc 2 673 0
	li 31,1
.LVL415:
	b .L243
.LVL416:
.L326:
	.loc 2 578 0
	lwz 9,0(3)
	lis 4,.LC32@ha
	la 4,.LC32@l(4)
	addi 30,1,48
	lwz 0,68(9)
	mtctr 0
	crxor 6,6,6
	bctrl
	.loc 2 579 0
	mr 3,31
	addi 30,1,48
	bl _ZN18idRenderWorldLocal8FreeDefsEv
	.loc 2 580 0
	mr 3,31
	addi 30,1,48
	bl _ZN18idRenderWorldLocal16TouchWorldModelsEv
	.loc 2 581 0
	mr 3,31
	addi 30,1,48
	bl _ZN18idRenderWorldLocal21AddWorldModelEntitiesEv
	.loc 2 582 0
	mr 3,31
	addi 30,1,48
	bl _ZN18idRenderWorldLocal17ClearPortalStatesEv
.LEHE36:
	b .L316
.LVL417:
.L331:
.LBB1508:
.LBB1506:
.LBB1491:
.LBB1487:
.LBB1485:
.LBB1482:
.LBB1483:
	.loc 6 198 0
	stw 29,72(31)
	.loc 6 199 0
	li 0,0
	stw 29,76(31)
	li 11,0
	b .L254
.LVL418:
.L337:
.LBE1483:
.LBE1482:
	.loc 6 393 0
	lwz 9,76(31)
	b .L252
.LVL419:
.L334:
.LBE1485:
.LBE1487:
.LBE1491:
.LBE1506:
.LBB1507:
.LBB1465:
.LBB1458:
.LBB1456:
.LBB1453:
.LBB1454:
	.loc 6 198 0
	stw 29,72(31)
	.loc 6 199 0
	li 0,0
	stw 29,76(31)
	li 11,0
	b .L273
.LVL420:
.L338:
.LBE1454:
.LBE1453:
	.loc 6 393 0
	lwz 9,76(31)
	b .L271
.LVL421:
.L308:
	mr 31,3
.LVL422:
.L296:
.LBE1456:
.LBE1458:
.LBE1465:
.LBE1507:
.LBE1508:
.LBB1509:
.LBB1510:
.LBB1511:
.LBB1512:
.LBB1513:
	.loc 3 501 0
	mr 3,30
	bl _ZN5idStr8FreeDataEv
	mr 3,31
.LEHB37:
	bl _Unwind_Resume
.LEHE37:
.LVL423:
.L306:
	mr 31,3
.LVL424:
.L294:
.LBE1513:
.LBE1512:
.LBE1511:
.LBE1510:
.LBE1509:
.LBB1514:
.LBB1515:
.LBB1516:
	addi 3,1,12
	bl _ZN5idStr8FreeDataEv
	b .L296
.LVL425:
.L307:
	mr 31,3
.LVL426:
.LBE1516:
.LBE1515:
.LBE1514:
	.loc 2 590 0
	mr 3,28
	bl _ZdlPv
	addi 30,1,48
	b .L294
.LBE1519:
	.cfi_endproc
.LFE2577:
	.section	.gcc_except_table
.LLSDA2577:
	.byte	0xff
	.byte	0xff
	.byte	0x1
	.uleb128 .LLSDACSE2577-.LLSDACSB2577
.LLSDACSB2577:
	.uleb128 .LEHB30-.LFB2577
	.uleb128 .LEHE30-.LEHB30
	.uleb128 0
	.uleb128 0
	.uleb128 .LEHB31-.LFB2577
	.uleb128 .LEHE31-.LEHB31
	.uleb128 .L306-.LFB2577
	.uleb128 0
	.uleb128 .LEHB32-.LFB2577
	.uleb128 .LEHE32-.LEHB32
	.uleb128 .L308-.LFB2577
	.uleb128 0
	.uleb128 .LEHB33-.LFB2577
	.uleb128 .LEHE33-.LEHB33
	.uleb128 0
	.uleb128 0
	.uleb128 .LEHB34-.LFB2577
	.uleb128 .LEHE34-.LEHB34
	.uleb128 .L306-.LFB2577
	.uleb128 0
	.uleb128 .LEHB35-.LFB2577
	.uleb128 .LEHE35-.LEHB35
	.uleb128 .L307-.LFB2577
	.uleb128 0
	.uleb128 .LEHB36-.LFB2577
	.uleb128 .LEHE36-.LEHB36
	.uleb128 .L306-.LFB2577
	.uleb128 0
	.uleb128 .LEHB37-.LFB2577
	.uleb128 .LEHE37-.LEHB37
	.uleb128 0
	.uleb128 0
.LLSDACSE2577:
	.section	".text"
	.size	_ZN18idRenderWorldLocal11InitFromMapEPKc, .-_ZN18idRenderWorldLocal11InitFromMapEPKc
	.align 2
	.globl _ZN18idRenderWorldLocal21CheckAreaForPortalSkyEi
	.type	_ZN18idRenderWorldLocal21CheckAreaForPortalSkyEi, @function
_ZN18idRenderWorldLocal21CheckAreaForPortalSkyEi:
.LFB2580:
	.loc 2 770 0
	.cfi_startproc
.LVL427:
	stwu 1,-16(1)
.LCFI45:
	.cfi_def_cfa_offset 16
	mflr 0
	stw 30,8(1)
	mr 30,3
	.cfi_offset 30, -8
	.cfi_register 65, 0
.LBB1520:
	.loc 2 771 0
	lis 3,.LC40@ha
.LVL428:
.LBE1520:
	.loc 2 770 0
	stw 31,12(1)
.LBB1521:
	.loc 2 771 0
	la 3,.LC40@l(3)
.LBE1521:
	.loc 2 770 0
	mr 31,4
	.cfi_offset 31, -4
	stw 0,20(1)
.LBB1522:
	.loc 2 776 0
	mulli 31,31,72
	.loc 2 771 0
	.cfi_offset 65, 4
	crxor 6,6,6
	bl _Z10Sys_PrintfPKcz
.LVL429:
	.loc 2 776 0
	lwz 0,48(30)
	.loc 2 784 0
	li 3,0
	.loc 2 776 0
	add 31,0,31
	lwz 9,24(31)
.LVL430:
	lwz 11,12(9)
	cmpwi 7,11,0
	beq- 7,.L340
	.loc 2 779 0
	lbz 0,368(11)
	.loc 2 780 0
	li 3,1
	.loc 2 779 0
	cmpwi 7,0,0
	bne- 7,.L340
.LVL431:
.L347:
	.loc 2 776 0
	lwz 9,0(9)
.LVL432:
	lwz 11,12(9)
	cmpwi 7,11,0
	beq- 7,.L348
	.loc 2 779 0 discriminator 1
	lbz 0,368(11)
	cmpwi 7,0,0
	beq+ 7,.L347
	.loc 2 780 0
	li 3,1
.L340:
.LBE1522:
	.loc 2 785 0
	lwz 0,20(1)
	lwz 30,8(1)
.LVL433:
	mtlr 0
	lwz 31,12(1)
	addi 1,1,16
	.cfi_remember_state
.LCFI46:
	.cfi_def_cfa_offset 0
	.cfi_restore 31
	.cfi_restore 30
	blr
.LVL434:
.L348:
.LCFI47:
	.cfi_restore_state
	lwz 0,20(1)
.LBB1523:
	.loc 2 784 0
	li 3,0
.LBE1523:
	.loc 2 785 0
	lwz 30,8(1)
.LVL435:
	mtlr 0
	lwz 31,12(1)
	addi 1,1,16
	.cfi_restore 30
	.cfi_restore 31
.LCFI48:
	.cfi_def_cfa_offset 0
	blr
	.cfi_endproc
.LFE2580:
	.size	_ZN18idRenderWorldLocal21CheckAreaForPortalSkyEi, .-_ZN18idRenderWorldLocal21CheckAreaForPortalSkyEi
	.weak	_ZTS9idWinding
	.section	.rodata._ZTS9idWinding,"aG",@progbits,_ZTS9idWinding,comdat
	.align 2
	.type	_ZTS9idWinding, @object
	.size	_ZTS9idWinding, 11
_ZTS9idWinding:
	.string	"9idWinding"
	.weak	_ZTI9idWinding
	.section	.sdata._ZTI9idWinding,"awG",@progbits,_ZTI9idWinding,comdat
	.align 2
	.type	_ZTI9idWinding, @object
	.size	_ZTI9idWinding, 8
_ZTI9idWinding:
	.long	_ZTVN10__cxxabiv117__class_type_infoE+8
	.long	_ZTS9idWinding
	.weak	_ZTS14idFixedWinding
	.section	.rodata._ZTS14idFixedWinding,"aG",@progbits,_ZTS14idFixedWinding,comdat
	.align 2
	.type	_ZTS14idFixedWinding, @object
	.size	_ZTS14idFixedWinding, 17
_ZTS14idFixedWinding:
	.string	"14idFixedWinding"
	.weak	_ZTI14idFixedWinding
	.section	.rodata._ZTI14idFixedWinding,"aG",@progbits,_ZTI14idFixedWinding,comdat
	.align 2
	.type	_ZTI14idFixedWinding, @object
	.size	_ZTI14idFixedWinding, 12
_ZTI14idFixedWinding:
	.long	_ZTVN10__cxxabiv120__si_class_type_infoE+8
	.long	_ZTS14idFixedWinding
	.long	_ZTI9idWinding
	.weak	_ZTV9idWinding
	.section	.rodata._ZTV9idWinding,"aG",@progbits,_ZTV9idWinding,comdat
	.align 3
	.type	_ZTV9idWinding, @object
	.size	_ZTV9idWinding, 24
_ZTV9idWinding:
	.long	0
	.long	_ZTI9idWinding
	.long	_ZN9idWindingD1Ev
	.long	_ZN9idWindingD0Ev
	.long	_ZN9idWinding5ClearEv
	.long	_ZN9idWinding10ReAllocateEib
	.weak	_ZTV14idFixedWinding
	.section	.rodata._ZTV14idFixedWinding,"aG",@progbits,_ZTV14idFixedWinding,comdat
	.align 3
	.type	_ZTV14idFixedWinding, @object
	.size	_ZTV14idFixedWinding, 24
_ZTV14idFixedWinding:
	.long	0
	.long	_ZTI14idFixedWinding
	.long	_ZN14idFixedWindingD1Ev
	.long	_ZN14idFixedWindingD0Ev
	.long	_ZN14idFixedWinding5ClearEv
	.long	_ZN14idFixedWinding10ReAllocateEib
	.weak	_ZN9idWindingD1Ev
	.set	_ZN9idWindingD1Ev,_ZN9idWindingD2Ev
	.weak	_ZN14idFixedWindingD1Ev
	.set	_ZN14idFixedWindingD1Ev,_ZN14idFixedWindingD2Ev
	.section	.rodata.cst4,"aM",@progbits,4
	.align 2
.LC6:
	.4byte	1065353216
	.section	.rodata.str1.4,"aMS",@progbits,1
	.align 2
.LC0:
	.string	">>> void idRenderWorldLocal::TouchWorldModels( void )\r\n"
.LC1:
	.string	">>> idRenderModel *idRenderWorldLocal::ParseModel( idLexer *src )\r\n"
.LC2:
	.string	"{"
	.zero	2
.LC3:
	.string	"R_ParseModel: bad numSurfaces"
	.zero	2
.LC4:
	.string	"}"
	.zero	2
.LC5:
	.string	">>> idRenderModel *idRenderWorldLocal::ParseShadowModel( idLexer *src )\r\n"
	.zero	2
.LC7:
	.string	">>> void idRenderWorldLocal::SetupAreaRefs()\r\n"
	.zero	1
.LC8:
	.string	">>> void idRenderWorldLocal::ParseInterAreaPortals( idLexer *src ) TODO: allocates windings and vec5_t in arena 1\r\n"
.LC9:
	.string	"R_ParseInterAreaPortals: bad numPortalAreas"
.LC10:
	.string	"R_ParseInterAreaPortals: bad numInterAreaPortals"
	.zero	3
.LC11:
	.string	">>> void idRenderWorldLocal::ParseNodes( idLexer *src )\r\n"
	.zero	2
.LC12:
	.string	"R_ParseNodes: bad numAreaNodes"
	.zero	1
.LC13:
	.string	">>> int idRenderWorldLocal::CommonChildrenArea_r( areaNode_t *node )\r\n"
	.zero	1
.LC14:
	.string	">>> void idRenderWorldLocal::ClearWorld()\r\n"
.LC15:
	.string	">>> void idRenderWorldLocal::FreeDefs()\r\n"
	.zero	2
.LC16:
	.string	">>> void idRenderWorldLocal::FreeWorld()\r\n"
	.zero	1
.LC17:
	.string	"FreeWorld: unexpected remaining lightRefs"
	.zero	2
.LC18:
	.string	"FreeWorld: unexpected remaining entityRefs"
	.zero	1
.LC19:
	.string	"<FREED>"
.LC20:
	.string	">>> bool idRenderWorldLocal::ReloadModelFromMapFile( %p )\r\n"
.LC21:
	.string	"idRenderWorldLocal::InitFromMap: %s not found\r\n"
.LC22:
	.string	"no token found\r\n"
	.zero	3
.LC23:
	.string	"model"
	.zero	2
.LC24:
	.string	"shadowModel"
.LC25:
	.string	">>> void idRenderWorldLocal::ClearPortalStates()\r\n"
	.zero	1
.LC26:
	.string	">>> void idRenderWorldLocal::AddWorldModelEntities()\r\n"
	.zero	1
.LC27:
	.string	"_area%i"
.LC28:
	.string	"idRenderWorldLocal::InitFromMap: bad area model lookup"
	.zero	1
.LC29:
	.string	"textures/smf/portal_sky"
.LC30:
	.string	">>> bool idRenderWorldLocal::InitFromMap( %s )\r\n"
	.zero	3
.LC31:
	.string	"proc"
	.zero	3
.LC32:
	.string	"idRenderWorldLocal::InitFromMap: retaining existing map\n"
	.zero	3
.LC33:
	.string	"idRenderWorldLocal::InitFromMap: timestamp has changed, reloading.\n"
.LC34:
	.string	"idRenderWorldLocal::InitFromMap: %s not found\n"
	.zero	1
.LC35:
	.string	"mapProcFile003"
	.zero	1
.LC36:
	.string	"idRenderWorldLocal::InitFromMap: bad id '%s' instead of '%s'\n"
	.zero	2
.LC37:
	.string	"interAreaPortals"
	.zero	3
.LC38:
	.string	"nodes"
	.zero	2
.LC39:
	.string	"idRenderWorldLocal::InitFromMap: bad token \"%s\""
.LC40:
	.string	">>> bool idRenderWorldLocal::CheckAreaForPortalSky( %d )\r\n"
	.section	".text"
.Letext0:
	.file 10 "<built-in>"
	.file 11 "c:\\utils\\devkitpro\\devkitppc\\bin\\../lib/gcc/powerpc-eabi/4.6.3/include/stddef.h"
	.file 12 "c:\\utils\\devkitpro\\devkitppc\\bin\\../lib/gcc/powerpc-eabi/4.6.3/../../../../powerpc-eabi/include/sys/types.h"
	.file 13 "d:/Data/Nintendo/DoomGX/src/renderer/../idlib/../sys/sys_public.h"
	.file 14 "d:/Data/Nintendo/DoomGX/src/renderer/../idlib/../framework/Common.h"
	.file 15 "d:/Data/Nintendo/DoomGX/src/renderer/../idlib/../framework/CVarSystem.h"
	.file 16 "d:/Data/Nintendo/DoomGX/src/renderer/../idlib/../framework/FileSystem.h"
	.file 17 "d:/Data/Nintendo/DoomGX/src/renderer/../idlib/../idlib/Lib.h"
	.file 18 "d:/Data/Nintendo/DoomGX/src/renderer/../idlib/../idlib/CmdArgs.h"
	.file 19 "d:/Data/Nintendo/DoomGX/src/renderer/../idlib/../idlib/math/Random.h"
	.file 20 "d:/Data/Nintendo/DoomGX/src/renderer/../idlib/../idlib/math/Angles.h"
	.file 21 "d:/Data/Nintendo/DoomGX/src/renderer/../idlib/../idlib/math/Matrix.h"
	.file 22 "d:/Data/Nintendo/DoomGX/src/renderer/../idlib/../idlib/math/Quat.h"
	.file 23 "d:/Data/Nintendo/DoomGX/src/renderer/../idlib/../idlib/math/Rotation.h"
	.file 24 "d:/Data/Nintendo/DoomGX/src/renderer/../idlib/../idlib/math/Plane.h"
	.file 25 "d:/Data/Nintendo/DoomGX/src/renderer/../idlib/../idlib/math/Ode.h"
	.file 26 "d:/Data/Nintendo/DoomGX/src/renderer/../idlib/../idlib/bv/Sphere.h"
	.file 27 "d:/Data/Nintendo/DoomGX/src/renderer/../idlib/../idlib/bv/Box.h"
	.file 28 "d:/Data/Nintendo/DoomGX/src/renderer/../idlib/../idlib/bv/Frustum.h"
	.file 29 "d:/Data/Nintendo/DoomGX/src/renderer/../idlib/../idlib/geometry/DrawVert.h"
	.file 30 "d:/Data/Nintendo/DoomGX/src/renderer/../idlib/../idlib/geometry/JointTransform.h"
	.file 31 "d:/Data/Nintendo/DoomGX/src/renderer/../idlib/../idlib/geometry/Surface.h"
	.file 32 "d:/Data/Nintendo/DoomGX/src/renderer/../idlib/../idlib/geometry/TraceModel.h"
	.file 33 "d:/Data/Nintendo/DoomGX/src/renderer/../idlib/../idlib/Token.h"
	.file 34 "d:/Data/Nintendo/DoomGX/src/renderer/../idlib/../framework/File.h"
	.file 35 "d:/Data/Nintendo/DoomGX/src/renderer/../idlib/../idlib/Parser.h"
	.file 36 "d:/Data/Nintendo/DoomGX/src/renderer/../idlib/../idlib/containers/HashIndex.h"
	.file 37 "d:/Data/Nintendo/DoomGX/src/renderer/../idlib/../idlib/containers/StrList.h"
	.file 38 "d:/Data/Nintendo/DoomGX/src/renderer/../idlib/../idlib/containers/StrPool.h"
	.file 39 "d:/Data/Nintendo/DoomGX/src/renderer/../idlib/../idlib/containers/PlaneSet.h"
	.file 40 "d:/Data/Nintendo/DoomGX/src/renderer/../idlib/../idlib/Dict.h"
	.file 41 "d:/Data/Nintendo/DoomGX/src/renderer/../idlib/../idlib/LangDict.h"
	.file 42 "d:/Data/Nintendo/DoomGX/src/renderer/../idlib/../idlib/BitMsg.h"
	.file 43 "d:/Data/Nintendo/DoomGX/src/renderer/../idlib/../idlib/MapFile.h"
	.file 44 "d:/Data/Nintendo/DoomGX/src/renderer/../idlib/../framework/CmdSystem.h"
	.file 45 "d:/Data/Nintendo/DoomGX/src/renderer/../idlib/../framework/UsercmdGen.h"
	.file 46 "d:/Data/Nintendo/DoomGX/src/renderer/../idlib/../framework/DeclParticle.h"
	.file 47 "d:/Data/Nintendo/DoomGX/src/renderer/../idlib/../renderer/RenderWorld.h"
	.file 48 "d:/Data/Nintendo/DoomGX/gl2gx/include/GL/gl.h"
	.file 49 "d:/Data/Nintendo/DoomGX/src/renderer/../idlib/../renderer/Cinematic.h"
	.file 50 "d:/Data/Nintendo/DoomGX/src/renderer/../idlib/../renderer/Material.h"
	.file 51 "d:/Data/Nintendo/DoomGX/src/renderer/Image.h"
	.file 52 "d:/Data/Nintendo/DoomGX/src/renderer/../idlib/../renderer/Model.h"
	.file 53 "d:/Data/Nintendo/DoomGX/src/renderer/VertexCache.h"
	.file 54 "d:/Data/Nintendo/DoomGX/src/renderer/../idlib/../renderer/RenderSystem.h"
	.file 55 "d:/Data/Nintendo/DoomGX/src/renderer/../idlib/../sound/sound.h"
	.file 56 "d:/Data/Nintendo/DoomGX/src/renderer/../idlib/../ui/UserInterface.h"
	.file 57 "d:/Data/Nintendo/DoomGX/src/renderer/../idlib/../cm/CollisionModel.h"
	.file 58 "d:/Data/Nintendo/DoomGX/src/renderer/../idlib/../tools/compilers/aas/AASFile.h"
	.file 59 "d:/Data/Nintendo/DoomGX/src/renderer/../idlib/../game/Game.h"
	.file 60 "d:/Data/Nintendo/DoomGX/src/renderer/../idlib/../framework/async/NetworkSystem.h"
	.file 61 "d:/Data/Nintendo/DoomGX/src/renderer/../idlib/../renderer/ModelManager.h"
	.file 62 "d:/Data/Nintendo/DoomGX/src/renderer/../idlib/../tools/compilers/aas/AASFileManager.h"
	.file 63 "d:/Data/Nintendo/DoomGX/src/renderer/../idlib/../framework/Session.h"
	.file 64 "d:/Data/Nintendo/DoomGX/src/renderer/../idlib/../ui/ListGUI.h"
	.file 65 "d:/Data/Nintendo/DoomGX/src/renderer/tr_local.h"
	.file 66 "d:/Data/Nintendo/DoomGX/src/renderer/Interaction.h"
	.file 67 "d:/Data/Nintendo/DoomGX/src/renderer/RenderWorld_local.h"
	.file 68 "d:/Data/Nintendo/DoomGX/src/renderer/../idlib/../framework/Console.h"
	.file 69 "d:/Data/Nintendo/DoomGX/src/renderer/../idlib/../idlib/math/Curve.h"
	.file 70 "d:/Data/Nintendo/DoomGX/src/renderer/../idlib/../idlib/math/Simd.h"
	.file 71 "d:/Data/Nintendo/DoomGX/src/renderer/../idlib/../framework/BuildVersion.h"
	.file 72 "d:/Data/Nintendo/DoomGX/src/renderer/../idlib/precompiled.h"
	.file 73 "d:/Data/Nintendo/DoomGX/src/renderer/../idlib/../framework/EventLoop.h"
	.file 74 "d:/Data/Nintendo/DoomGX/src/renderer/../idlib/../framework/EditField.h"
	.file 75 "d:/Data/Nintendo/DoomGX/src/renderer/../idlib/../framework/async/AsyncNetwork.h"
	.file 76 "d:/Data/Nintendo/DoomGX/src/renderer/../idlib/../framework/async/AsyncServer.h"
	.file 77 "d:/Data/Nintendo/DoomGX/src/renderer/MegaTexture.h"
	.file 78 "d:/Data/Nintendo/DoomGX/src/renderer/ModelDecal.h"
	.file 79 "d:/Data/Nintendo/DoomGX/src/renderer/ModelOverlay.h"