	.file	"Rotation.cpp"
	.section	".text"
.Ltext0:
	.section	.text._ZN14idFixedWinding5ClearEv,"axG",@progbits,_ZN14idFixedWinding5ClearEv,comdat
	.align 2
	.weak	_ZN14idFixedWinding5ClearEv
	.type	_ZN14idFixedWinding5ClearEv, @function
_ZN14idFixedWinding5ClearEv:
.LFB1502:
	.file 1 "d:/Data/Nintendo/DoomGX/src/idlib/math/../../idlib/geometry/Winding.h"
	.loc 1 398 0
	.cfi_startproc
.LVL0:
	.loc 1 399 0
	li 0,0
	.loc 1 400 0
	.loc 1 399 0
	stw 0,4(3)
	.loc 1 400 0
	blr
	.cfi_endproc
.LFE1502:
	.size	_ZN14idFixedWinding5ClearEv, .-_ZN14idFixedWinding5ClearEv
	.section	.text._ZN9idWinding5ClearEv,"axG",@progbits,_ZN9idWinding5ClearEv,comdat
	.align 2
	.weak	_ZN9idWinding5ClearEv
	.type	_ZN9idWinding5ClearEv, @function
_ZN9idWinding5ClearEv:
.LFB1473:
	.loc 1 249 0
	.cfi_startproc
.LVL1:
	mflr 0
	stwu 1,-16(1)
.LCFI0:
	.cfi_def_cfa_offset 16
	.cfi_register 65, 0
	stw 31,12(1)
	mr 31,3
	.cfi_offset 31, -4
	stw 0,20(1)
	.loc 1 250 0
	li 0,0
	.cfi_offset 65, 4
	.loc 1 251 0
	lwz 3,8(3)
.LVL2:
	.loc 1 250 0
	stw 0,4(31)
	.loc 1 251 0
	cmpwi 7,3,0
	beq- 7,.L3
	.loc 1 251 0 is_stmt 0 discriminator 1
	bl _ZdaPv
.L3:
	.loc 1 252 0 is_stmt 1
	li 0,0
	stw 0,8(31)
	.loc 1 253 0
	lwz 0,20(1)
	lwz 31,12(1)
.LVL3:
	mtlr 0
	addi 1,1,16
.LCFI1:
	.cfi_def_cfa_offset 0
	.cfi_restore 31
	blr
	.cfi_endproc
.LFE1473:
	.size	_ZN9idWinding5ClearEv, .-_ZN9idWinding5ClearEv
	.section	.text._ZN9idWindingD2Ev,"axG",@progbits,_ZN9idWindingD5Ev,comdat
	.align 2
	.weak	_ZN9idWindingD2Ev
	.type	_ZN9idWindingD2Ev, @function
_ZN9idWindingD2Ev:
.LFB1461:
	.loc 1 183 0
	.cfi_startproc
.LVL4:
	mflr 0
	stwu 1,-16(1)
.LCFI2:
	.cfi_def_cfa_offset 16
	.cfi_register 65, 0
.LBB494:
	lis 9,_ZTV9idWinding+8@ha
.LBE494:
	stw 31,12(1)
	mr 31,3
	.cfi_offset 31, -4
	stw 0,20(1)
.LBB495:
	.loc 1 183 0
	la 0,_ZTV9idWinding+8@l(9)
	.cfi_offset 65, 4
	.loc 1 184 0
	lwz 3,8(3)
.LVL5:
	.loc 1 183 0
	stw 0,0(31)
	.loc 1 184 0
	cmpwi 7,3,0
	beq- 7,.L6
	.loc 1 184 0 is_stmt 0 discriminator 1
	bl _ZdaPv
.L6:
	.loc 1 185 0 is_stmt 1
	li 0,0
	stw 0,8(31)
.LBE495:
	.loc 1 186 0
	lwz 0,20(1)
	lwz 31,12(1)
.LVL6:
	mtlr 0
	addi 1,1,16
.LCFI3:
	.cfi_def_cfa_offset 0
	.cfi_restore 31
	blr
	.cfi_endproc
.LFE1461:
	.size	_ZN9idWindingD2Ev, .-_ZN9idWindingD2Ev
	.section	.text._ZN14idFixedWindingD2Ev,"axG",@progbits,_ZN14idFixedWindingD5Ev,comdat
	.align 2
	.weak	_ZN14idFixedWindingD2Ev
	.type	_ZN14idFixedWindingD2Ev, @function
_ZN14idFixedWindingD2Ev:
.LFB1498:
	.loc 1 380 0
	.cfi_startproc
.LVL7:
.LBB501:
	.loc 1 381 0
	li 0,0
.LBB502:
.LBB503:
.LBB504:
	.loc 1 183 0
	lis 9,_ZTV9idWinding+8@ha
.LBE504:
.LBE503:
.LBE502:
	.loc 1 381 0
	stw 0,8(3)
.LVL8:
.LBB507:
.LBB506:
.LBB505:
	.loc 1 183 0
	la 0,_ZTV9idWinding+8@l(9)
	stw 0,0(3)
.LBE505:
.LBE506:
.LBE507:
.LBE501:
	.loc 1 382 0
	blr
	.cfi_endproc
.LFE1498:
	.size	_ZN14idFixedWindingD2Ev, .-_ZN14idFixedWindingD2Ev
	.section	.text._ZN9idWindingD0Ev,"axG",@progbits,_ZN9idWindingD5Ev,comdat
	.align 2
	.weak	_ZN9idWindingD0Ev
	.type	_ZN9idWindingD0Ev, @function
_ZN9idWindingD0Ev:
.LFB1463:
	.loc 1 183 0
	.cfi_startproc
.LVL9:
	mflr 0
	stwu 1,-16(1)
.LCFI4:
	.cfi_def_cfa_offset 16
	.cfi_register 65, 0
.LBB511:
.LBB512:
.LBB513:
	lis 9,_ZTV9idWinding+8@ha
.LBE513:
.LBE512:
.LBE511:
	stw 31,12(1)
	mr 31,3
	.cfi_offset 31, -4
.LVL10:
	stw 0,20(1)
.LBB518:
.LBB516:
.LBB514:
	.loc 1 183 0
	la 0,_ZTV9idWinding+8@l(9)
	.cfi_offset 65, 4
	.loc 1 184 0
	lwz 3,8(3)
.LVL11:
	.loc 1 183 0
	stw 0,0(31)
	.loc 1 184 0
	cmpwi 7,3,0
	beq- 7,.L12
	bl _ZdaPv
.LVL12:
.L12:
	.loc 1 185 0
	li 0,0
.LBE514:
.LBE516:
.LBE518:
	.loc 1 186 0
	mr 3,31
.LBB519:
.LBB517:
.LBB515:
	.loc 1 185 0
	stw 0,8(31)
.LBE515:
.LBE517:
.LBE519:
	.loc 1 186 0
	bl _ZdlPv
	lwz 0,20(1)
	lwz 31,12(1)
.LVL13:
	mtlr 0
	addi 1,1,16
.LCFI5:
	.cfi_def_cfa_offset 0
	.cfi_restore 31
	blr
	.cfi_endproc
.LFE1463:
	.size	_ZN9idWindingD0Ev, .-_ZN9idWindingD0Ev
	.section	.text._ZN14idFixedWindingD0Ev,"axG",@progbits,_ZN14idFixedWindingD5Ev,comdat
	.align 2
	.weak	_ZN14idFixedWindingD0Ev
	.type	_ZN14idFixedWindingD0Ev, @function
_ZN14idFixedWindingD0Ev:
.LFB1500:
	.loc 1 380 0
	.cfi_startproc
.LVL14:
	mflr 0
	stwu 1,-8(1)
.LCFI6:
	.cfi_def_cfa_offset 8
	.cfi_register 65, 0
.LBB526:
.LBB527:
.LBB528:
.LBB529:
.LBB530:
.LBB531:
	.loc 1 183 0
	lis 11,_ZTV9idWinding+8@ha
.LBE531:
.LBE530:
.LBE529:
.LBE528:
.LBE527:
.LBE526:
	.loc 1 380 0
	stw 0,12(1)
.LBB537:
.LBB536:
.LBB535:
	.loc 1 381 0
	li 0,0
	.cfi_offset 65, 4
	stw 0,8(3)
.LVL15:
.LBB534:
.LBB533:
.LBB532:
	.loc 1 183 0
	la 0,_ZTV9idWinding+8@l(11)
	stw 0,0(3)
.LBE532:
.LBE533:
.LBE534:
.LBE535:
.LBE536:
.LBE537:
	.loc 1 382 0
	bl _ZdlPv
.LVL16:
	lwz 0,12(1)
	addi 1,1,8
.LCFI7:
	.cfi_def_cfa_offset 0
	mtlr 0
	blr
	.cfi_endproc
.LFE1500:
	.size	_ZN14idFixedWindingD0Ev, .-_ZN14idFixedWindingD0Ev
	.section	".text"
	.align 2
	.globl _ZNK10idRotation6ToQuatEv
	.type	_ZNK10idRotation6ToQuatEv, @function
_ZNK10idRotation6ToQuatEv:
.LFB2539:
	.file 2 "d:/Data/Nintendo/DoomGX/src/idlib/math/Rotation.cpp"
	.loc 2 47 0
	.cfi_startproc
.LVL17:
	stwu 1,-40(1)
.LCFI8:
	.cfi_def_cfa_offset 40
.LBB538:
	.loc 2 50 0
	lis 9,_ZN6idMath9M_DEG2RADE@ha
.LBE538:
	.loc 2 47 0
	mflr 0
	stfd 30,24(1)
.LBB547:
	.loc 2 50 0
	lfs 30,_ZN6idMath9M_DEG2RADE@l(9)
	.cfi_offset 62, -16
	.cfi_register 65, 0
	lis 9,.LC0@ha
	lfs 0,.LC0@l(9)
.LBE547:
	.loc 2 47 0
	stw 0,44(1)
.LBB548:
	.loc 2 50 0
	fmuls 30,30,0
	lfs 0,24(4)
.LBB539:
.LBB540:
	.file 3 "d:/Data/Nintendo/DoomGX/src/idlib/math/../../idlib/math/Math.h"
	.loc 3 401 0
	stw 3,8(1)
.LBE540:
.LBE539:
.LBE548:
	.loc 2 47 0
	stfd 31,32(1)
.LBB549:
	.loc 2 50 0
	fmuls 30,30,0
.LVL18:
.LBE549:
	.loc 2 47 0
	stw 31,20(1)
	.loc 2 47 0
	mr 31,4
	.cfi_offset 31, -20
	.cfi_offset 63, -8
	.cfi_offset 65, 4
.LBB550:
.LBB542:
.LBB541:
	.loc 3 401 0
	fmr 1,30
	bl sinf
.LVL19:
	fmr 31,1
.LVL20:
	.loc 3 402 0
	fmr 1,30
.LVL21:
	bl cosf
.LVL22:
.LBE541:
.LBE542:
	.loc 2 52 0
	lfs 13,16(31)
	lfs 0,20(31)
	lfs 12,12(31)
	fmuls 13,31,13
	fmuls 0,31,0
.LVL23:
.LBB543:
.LBB544:
	.file 4 "d:/Data/Nintendo/DoomGX/src/idlib/math/../../idlib/math/Quat.h"
	.loc 4 107 0
	lwz 3,8(1)
.LVL24:
.LBE544:
.LBE543:
	.loc 2 52 0
	fmuls 31,12,31
.LVL25:
.LBB546:
.LBB545:
	.loc 4 107 0
	stfs 13,4(3)
	.loc 4 108 0
	stfs 0,8(3)
	.loc 4 106 0
	stfs 31,0(3)
	.loc 4 109 0
	stfs 1,12(3)
.LBE545:
.LBE546:
.LBE550:
	.loc 2 53 0
	lwz 0,44(1)
	lwz 31,20(1)
.LVL26:
	mtlr 0
	lfd 30,24(1)
.LVL27:
	lfd 31,32(1)
	addi 1,1,40
.LCFI9:
	.cfi_def_cfa_offset 0
	.cfi_restore 63
	.cfi_restore 62
	.cfi_restore 31
	blr
	.cfi_endproc
.LFE2539:
	.size	_ZNK10idRotation6ToQuatEv, .-_ZNK10idRotation6ToQuatEv
	.align 2
	.globl _ZNK10idRotation6ToMat3Ev
	.type	_ZNK10idRotation6ToMat3Ev, @function
_ZNK10idRotation6ToMat3Ev:
.LFB2540:
	.loc 2 60 0
	.cfi_startproc
.LVL28:
	mflr 0
	stwu 1,-32(1)
.LCFI10:
	.cfi_def_cfa_offset 32
	.cfi_register 65, 0
	stw 31,12(1)
	mr 31,3
	.cfi_offset 31, -20
	stw 0,36(1)
	stfd 30,16(1)
	stfd 31,24(1)
.LBB563:
	.loc 2 67 0
	lbz 0,64(3)
	.cfi_offset 63, -8
	.cfi_offset 62, -16
	.cfi_offset 65, 4
	cmpwi 7,0,0
	bne- 7,.L23
.LVL29:
.LBE563:
.LBB564:
.LBB565:
	.loc 2 71 0
	lis 9,.LC0@ha
	lfs 0,24(3)
	lfs 13,.LC0@l(9)
	lis 9,_ZN6idMath9M_DEG2RADE@ha
	lfs 30,_ZN6idMath9M_DEG2RADE@l(9)
	fmuls 30,30,13
	fmuls 30,30,0
.LVL30:
.LBB566:
.LBB567:
	.loc 3 401 0
	fmr 1,30
	bl sinf
.LVL31:
	fmr 31,1
.LVL32:
	.loc 3 402 0
	fmr 1,30
.LVL33:
	bl cosf
.LVL34:
.LBE567:
.LBE566:
	.loc 2 75 0
	lfs 13,16(31)
	.loc 2 76 0
	lfs 10,20(31)
	.loc 2 94 0
	lis 9,.LC1@ha
	.loc 2 75 0
	fmuls 13,31,13
	.loc 2 74 0
	lfs 0,12(31)
	.loc 2 76 0
	fmuls 10,31,10
	.loc 2 106 0
	li 0,1
	.loc 2 74 0
	fmuls 31,31,0
.LVL35:
	.loc 2 106 0
	stb 0,64(31)
	.loc 2 79 0
	fadds 12,13,13
	.loc 2 80 0
	fadds 0,10,10
	.loc 2 78 0
	fadds 11,31,31
.LVL36:
	.loc 2 86 0
	fmuls 7,13,12
.LVL37:
	.loc 2 88 0
	fmuls 10,10,0
.LVL38:
	.loc 2 90 0
	fmuls 9,1,11
.LVL39:
	.loc 2 91 0
	fmuls 8,1,12
.LVL40:
	.loc 2 94 0
	fadds 3,7,10
	.loc 2 92 0
	fmuls 1,1,0
.LVL41:
	.loc 2 99 0
	fmadds 10,31,11,10
.LVL42:
	.loc 2 104 0
	fmadds 7,31,11,7
.LVL43:
	.loc 2 94 0
	lfs 11,.LC1@l(9)
.LVL44:
	.loc 2 95 0
	fmsubs 4,31,12,1
	.loc 2 96 0
	fmadds 5,31,0,8
	.loc 2 94 0
	fsubs 3,11,3
	.loc 2 98 0
	fmadds 1,31,12,1
.LVL45:
	.loc 2 95 0
	stfs 4,32(31)
	.loc 2 99 0
	fsubs 10,11,10
	.loc 2 96 0
	stfs 5,36(31)
	.loc 2 100 0
	fmsubs 6,13,0,9
	.loc 2 94 0
	stfs 3,28(31)
.LVL46:
	.loc 2 102 0
	fmsubs 31,31,0,8
.LVL47:
	.loc 2 98 0
	stfs 1,40(31)
.LVL48:
	.loc 2 103 0
	fmadds 0,13,0,9
.LVL49:
	.loc 2 99 0
	stfs 10,44(31)
.LVL50:
	.loc 2 104 0
	fsubs 11,11,7
	.loc 2 100 0
	stfs 6,48(31)
.LVL51:
	.loc 2 102 0
	stfs 31,52(31)
.LVL52:
	.loc 2 103 0
	stfs 0,56(31)
.LVL53:
	.loc 2 104 0
	stfs 11,60(31)
.LVL54:
.L23:
.LBE565:
.LBE564:
	.loc 2 109 0
	lwz 0,36(1)
.LBB569:
.LBB568:
	.loc 2 106 0
	addi 3,31,28
.LBE568:
.LBE569:
	.loc 2 109 0
	lfd 30,16(1)
	mtlr 0
	lwz 31,12(1)
.LVL55:
	lfd 31,24(1)
	addi 1,1,32
.LCFI11:
	.cfi_def_cfa_offset 0
	.cfi_restore 63
	.cfi_restore 62
	.cfi_restore 31
	blr
	.cfi_endproc
.LFE2540:
	.size	_ZNK10idRotation6ToMat3Ev, .-_ZNK10idRotation6ToMat3Ev
	.align 2
	.globl _ZNK10idRotation8ToAnglesEv
	.type	_ZNK10idRotation8ToAnglesEv, @function
_ZNK10idRotation8ToAnglesEv:
.LFB2538:
	.loc 2 38 0
	.cfi_startproc
.LVL56:
	stwu 1,-16(1)
.LCFI12:
	.cfi_def_cfa_offset 16
	mflr 0
	stw 31,12(1)
	mr 31,3
	.cfi_offset 31, -4
	.cfi_register 65, 0
	.loc 2 39 0
	mr 3,4
.LVL57:
	.loc 2 38 0
	stw 0,20(1)
	.loc 2 39 0
	.cfi_offset 65, 4
	bl _ZNK10idRotation6ToMat3Ev
.LVL58:
	mr 4,3
	mr 3,31
	bl _ZNK6idMat38ToAnglesEv
	.loc 2 40 0
	lwz 0,20(1)
	mr 3,31
	lwz 31,12(1)
.LVL59:
	mtlr 0
	addi 1,1,16
.LCFI13:
	.cfi_def_cfa_offset 0
	.cfi_restore 31
	blr
	.cfi_endproc
.LFE2538:
	.size	_ZNK10idRotation8ToAnglesEv, .-_ZNK10idRotation8ToAnglesEv
	.align 2
	.globl _ZNK10idRotation6ToMat4Ev
	.type	_ZNK10idRotation6ToMat4Ev, @function
_ZNK10idRotation6ToMat4Ev:
.LFB2541:
	.loc 2 116 0
	.cfi_startproc
.LVL60:
	stwu 1,-16(1)
.LCFI14:
	.cfi_def_cfa_offset 16
	mflr 0
	stw 31,12(1)
	mr 31,3
	.cfi_offset 31, -4
	.cfi_register 65, 0
	.loc 2 117 0
	mr 3,4
.LVL61:
	.loc 2 116 0
	stw 0,20(1)
	.loc 2 117 0
	.cfi_offset 65, 4
	bl _ZNK10idRotation6ToMat3Ev
.LVL62:
.LBB570:
.LBB571:
.LBB572:
	.file 5 "d:/Data/Nintendo/DoomGX/src/idlib/math/../../idlib/math/Matrix.h"
	.loc 5 847 0
	li 0,0
.LBE572:
.LBE571:
.LBB576:
.LBB577:
	.file 6 "d:/Data/Nintendo/DoomGX/src/idlib/math/../../idlib/math/Vector.h"
	.loc 6 402 0
	lwz 9,32(3)
.LBE577:
.LBE576:
.LBB578:
.LBB573:
	.loc 5 847 0
	stw 0,12(31)
	.loc 5 849 0
	stw 9,40(31)
	.loc 5 850 0
	lis 9,.LC1@ha
	.loc 5 848 0
	stw 0,28(31)
	.loc 5 849 0
	stw 0,44(31)
	.loc 5 850 0
	stw 0,48(31)
	stw 0,52(31)
	stw 0,56(31)
.LBE573:
.LBE578:
.LBB579:
.LBB580:
	.loc 6 402 0
	lwz 4,12(3)
.LVL63:
.LBE580:
.LBE579:
.LBB581:
.LBB582:
	lwz 5,24(3)
.LVL64:
.LBE582:
.LBE581:
.LBB583:
.LBB584:
	lwz 6,4(3)
.LVL65:
.LBE584:
.LBE583:
.LBB585:
.LBB586:
	lwz 7,16(3)
.LVL66:
.LBE586:
.LBE585:
.LBB587:
.LBB588:
	lwz 8,28(3)
.LVL67:
.LBE588:
.LBE587:
.LBB589:
.LBB590:
	lwz 10,8(3)
.LVL68:
.LBE590:
.LBE589:
.LBB591:
.LBB592:
	lwz 11,20(3)
.LVL69:
.LBE592:
.LBE591:
.LBB593:
.LBB574:
	.loc 5 850 0
	lwz 0,.LC1@l(9)
	.loc 5 847 0
	lwz 3,0(3)
.LVL70:
	stw 4,4(31)
	stw 3,0(31)
.LVL71:
.LBE574:
.LBE593:
.LBE570:
	.loc 2 118 0
	mr 3,31
.LVL72:
.LBB595:
.LBB594:
.LBB575:
	.loc 5 847 0
	stw 5,8(31)
.LVL73:
	.loc 5 848 0
	stw 6,16(31)
.LVL74:
	stw 7,20(31)
.LVL75:
	stw 8,24(31)
.LVL76:
	.loc 5 849 0
	stw 10,32(31)
.LVL77:
	stw 11,36(31)
.LVL78:
	.loc 5 850 0
	stw 0,60(31)
.LBE575:
.LBE594:
.LBE595:
	.loc 2 118 0
	lwz 0,20(1)
	lwz 31,12(1)
.LVL79:
	mtlr 0
	addi 1,1,16
.LCFI15:
	.cfi_def_cfa_offset 0
	.cfi_restore 31
	blr
	.cfi_endproc
.LFE2541:
	.size	_ZNK10idRotation6ToMat4Ev, .-_ZNK10idRotation6ToMat4Ev
	.align 2
	.globl _ZNK10idRotation17ToAngularVelocityEv
	.type	_ZNK10idRotation17ToAngularVelocityEv, @function
_ZNK10idRotation17ToAngularVelocityEv:
.LFB2542:
	.loc 2 125 0
	.cfi_startproc
.LVL80:
	.loc 2 126 0
	lis 9,_ZN6idMath9M_DEG2RADE@ha
	lfs 13,24(4)
	lfs 0,_ZN6idMath9M_DEG2RADE@l(9)
	.loc 2 127 0
.LBB596:
.LBB597:
	.loc 6 439 0
	lfs 12,16(4)
.LBE597:
.LBE596:
	.loc 2 126 0
	fmuls 0,13,0
.LVL81:
.LBB601:
.LBB600:
	.loc 6 439 0
	lfs 11,12(4)
	lfs 13,20(4)
	fmuls 12,0,12
	fmuls 13,0,13
	fmuls 0,0,11
.LVL82:
.LBB598:
.LBB599:
	.loc 6 397 0
	stfs 12,4(3)
	.loc 6 398 0
	stfs 13,8(3)
	.loc 6 396 0
	stfs 0,0(3)
.LBE599:
.LBE598:
.LBE600:
.LBE601:
	.loc 2 127 0
	blr
	.cfi_endproc
.LFE2542:
	.size	_ZNK10idRotation17ToAngularVelocityEv, .-_ZNK10idRotation17ToAngularVelocityEv
	.align 2
	.globl _ZN10idRotation12Normalize180Ev
	.type	_ZN10idRotation12Normalize180Ev, @function
_ZN10idRotation12Normalize180Ev:
.LFB2543:
	.loc 2 134 0
	.cfi_startproc
.LVL83:
	stwu 1,-32(1)
.LCFI16:
	.cfi_def_cfa_offset 32
	.loc 2 135 0
	lis 9,.LC2@ha
	.loc 2 134 0
	mflr 0
	stfd 30,16(1)
	stfd 31,24(1)
	.loc 2 135 0
	lfs 30,24(3)
	.cfi_offset 63, -8
	.cfi_offset 62, -16
	.cfi_register 65, 0
	lfs 31,.LC2@l(9)
	.loc 2 134 0
	stw 31,12(1)
	mr 31,3
	.cfi_offset 31, -20
	.loc 2 135 0
	fdivs 1,30,31
	.loc 2 134 0
	stw 0,36(1)
	.loc 2 135 0
	.cfi_offset 65, 4
	bl floor
.LVL84:
	fmr 0,30
	.loc 2 134 0
	fneg 1,1
	.loc 2 136 0
	lis 9,.LC4@ha
	.loc 2 135 0
	fmr 13,31
	fmadd 30,1,13,0
	.loc 2 136 0
	lfs 0,.LC4@l(9)
	.loc 2 135 0
	frsp 30,30
	.loc 2 136 0
	fcmpu 7,30,0
	.loc 2 135 0
	stfs 30,24(31)
	.loc 2 136 0
	bgt- 7,.L35
	.loc 2 139 0
	lis 9,.LC5@ha
	lfs 0,.LC5@l(9)
	fcmpu 7,30,0
	bnl- 7,.L27
	.loc 2 140 0
	fadds 31,30,31
	stfs 31,24(31)
.L27:
	.loc 2 142 0
	lwz 0,36(1)
	lwz 31,12(1)
.LVL85:
	mtlr 0
	lfd 30,16(1)
	lfd 31,24(1)
	addi 1,1,32
	.cfi_remember_state
.LCFI17:
	.cfi_def_cfa_offset 0
	.cfi_restore 63
	.cfi_restore 62
	.cfi_restore 31
	blr
.LVL86:
.L35:
.LCFI18:
	.cfi_restore_state
	.loc 2 137 0
	fsubs 31,30,31
	stfs 31,24(31)
	.loc 2 142 0
	lwz 0,36(1)
	lwz 31,12(1)
.LVL87:
	mtlr 0
	lfd 30,16(1)
	lfd 31,24(1)
	addi 1,1,32
	.cfi_restore 31
	.cfi_restore 62
	.cfi_restore 63
.LCFI19:
	.cfi_def_cfa_offset 0
	blr
	.cfi_endproc
.LFE2543:
	.size	_ZN10idRotation12Normalize180Ev, .-_ZN10idRotation12Normalize180Ev
	.align 2
	.globl _ZN10idRotation12Normalize360Ev
	.type	_ZN10idRotation12Normalize360Ev, @function
_ZN10idRotation12Normalize360Ev:
.LFB2544:
	.loc 2 149 0
	.cfi_startproc
.LVL88:
	stwu 1,-32(1)
.LCFI20:
	.cfi_def_cfa_offset 32
	.loc 2 150 0
	lis 9,.LC2@ha
	.loc 2 149 0
	mflr 0
	stfd 30,16(1)
	stfd 31,24(1)
	.loc 2 150 0
	lfs 30,24(3)
	.cfi_offset 63, -8
	.cfi_offset 62, -16
	.cfi_register 65, 0
	lfs 31,.LC2@l(9)
	.loc 2 149 0
	stw 31,12(1)
	mr 31,3
	.cfi_offset 31, -20
	.loc 2 150 0
	fdivs 1,30,31
	.loc 2 149 0
	stw 0,36(1)
	.loc 2 150 0
	.cfi_offset 65, 4
	bl floor
.LVL89:
	fmr 0,30
	.loc 2 149 0
	fneg 1,1
	.loc 2 150 0
	fmr 13,31
	fmadd 30,1,13,0
	frsp 30,30
	.loc 2 151 0
	fcmpu 7,30,31
	.loc 2 150 0
	stfs 30,24(31)
	.loc 2 151 0
	bgt- 7,.L44
	.loc 2 154 0
	lis 9,.LC6@ha
	lfs 0,.LC6@l(9)
	fcmpu 7,30,0
	bnl- 7,.L36
	.loc 2 155 0
	fadds 31,30,31
	stfs 31,24(31)
.L36:
	.loc 2 157 0
	lwz 0,36(1)
	lwz 31,12(1)
.LVL90:
	mtlr 0
	lfd 30,16(1)
	lfd 31,24(1)
	addi 1,1,32
	.cfi_remember_state
.LCFI21:
	.cfi_def_cfa_offset 0
	.cfi_restore 63
	.cfi_restore 62
	.cfi_restore 31
	blr
.LVL91:
.L44:
.LCFI22:
	.cfi_restore_state
	.loc 2 152 0
	fsubs 31,30,31
	stfs 31,24(31)
	.loc 2 157 0
	lwz 0,36(1)
	lwz 31,12(1)
.LVL92:
	mtlr 0
	lfd 30,16(1)
	lfd 31,24(1)
	addi 1,1,32
	.cfi_restore 31
	.cfi_restore 62
	.cfi_restore 63
.LCFI23:
	.cfi_def_cfa_offset 0
	blr
	.cfi_endproc
.LFE2544:
	.size	_ZN10idRotation12Normalize360Ev, .-_ZN10idRotation12Normalize360Ev
	.weak	_ZTS9idWinding
	.section	.rodata._ZTS9idWinding,"aG",@progbits,_ZTS9idWinding,comdat
	.align 2
	.type	_ZTS9idWinding, @object
	.size	_ZTS9idWinding, 11
_ZTS9idWinding:
	.string	"9idWinding"
	.weak	_ZTI9idWinding
	.section	.sdata._ZTI9idWinding,"awG",@progbits,_ZTI9idWinding,comdat
	.align 2
	.type	_ZTI9idWinding, @object
	.size	_ZTI9idWinding, 8
_ZTI9idWinding:
	.long	_ZTVN10__cxxabiv117__class_type_infoE+8
	.long	_ZTS9idWinding
	.weak	_ZTS14idFixedWinding
	.section	.rodata._ZTS14idFixedWinding,"aG",@progbits,_ZTS14idFixedWinding,comdat
	.align 2
	.type	_ZTS14idFixedWinding, @object
	.size	_ZTS14idFixedWinding, 17
_ZTS14idFixedWinding:
	.string	"14idFixedWinding"
	.weak	_ZTI14idFixedWinding
	.section	.rodata._ZTI14idFixedWinding,"aG",@progbits,_ZTI14idFixedWinding,comdat
	.align 2
	.type	_ZTI14idFixedWinding, @object
	.size	_ZTI14idFixedWinding, 12
_ZTI14idFixedWinding:
	.long	_ZTVN10__cxxabiv120__si_class_type_infoE+8
	.long	_ZTS14idFixedWinding
	.long	_ZTI9idWinding
	.weak	_ZTV9idWinding
	.section	.rodata._ZTV9idWinding,"aG",@progbits,_ZTV9idWinding,comdat
	.align 3
	.type	_ZTV9idWinding, @object
	.size	_ZTV9idWinding, 24
_ZTV9idWinding:
	.long	0
	.long	_ZTI9idWinding
	.long	_ZN9idWindingD1Ev
	.long	_ZN9idWindingD0Ev
	.long	_ZN9idWinding5ClearEv
	.long	_ZN9idWinding10ReAllocateEib
	.weak	_ZTV14idFixedWinding
	.section	.rodata._ZTV14idFixedWinding,"aG",@progbits,_ZTV14idFixedWinding,comdat
	.align 3
	.type	_ZTV14idFixedWinding, @object
	.size	_ZTV14idFixedWinding, 24
_ZTV14idFixedWinding:
	.long	0
	.long	_ZTI14idFixedWinding
	.long	_ZN14idFixedWindingD1Ev
	.long	_ZN14idFixedWindingD0Ev
	.long	_ZN14idFixedWinding5ClearEv
	.long	_ZN14idFixedWinding10ReAllocateEib
	.weak	_ZN9idWindingD1Ev
	.set	_ZN9idWindingD1Ev,_ZN9idWindingD2Ev
	.weak	_ZN14idFixedWindingD1Ev
	.set	_ZN14idFixedWindingD1Ev,_ZN14idFixedWindingD2Ev
	.section	.rodata.cst4,"aM",@progbits,4
	.align 2
.LC0:
	.4byte	1056964608
.LC1:
	.4byte	1065353216
.LC2:
	.4byte	1135869952
.LC4:
	.4byte	1127481344
.LC5:
	.4byte	-1020002304
.LC6:
	.4byte	0
	.section	".text"
.Letext0:
	.file 7 "<built-in>"
	.file 8 "c:\\utils\\devkitpro\\devkitppc\\bin\\../lib/gcc/powerpc-eabi/4.6.3/include/stddef.h"
	.file 9 "c:\\utils\\devkitpro\\devkitppc\\bin\\../lib/gcc/powerpc-eabi/4.6.3/../../../../powerpc-eabi/include/sys/types.h"
	.file 10 "d:/Data/Nintendo/DoomGX/src/idlib/math/../../sys/sys_public.h"
	.file 11 "d:/Data/Nintendo/DoomGX/src/idlib/math/../../framework/Common.h"
	.file 12 "d:/Data/Nintendo/DoomGX/src/idlib/math/../../framework/CVarSystem.h"
	.file 13 "d:/Data/Nintendo/DoomGX/src/idlib/math/../../framework/FileSystem.h"
	.file 14 "d:/Data/Nintendo/DoomGX/src/idlib/math/../../idlib/Lib.h"
	.file 15 "d:/Data/Nintendo/DoomGX/src/idlib/math/../../idlib/CmdArgs.h"
	.file 16 "d:/Data/Nintendo/DoomGX/src/idlib/math/../../idlib/math/Random.h"
	.file 17 "d:/Data/Nintendo/DoomGX/src/idlib/math/../../idlib/math/Angles.h"
	.file 18 "d:/Data/Nintendo/DoomGX/src/idlib/math/../../idlib/math/Rotation.h"
	.file 19 "d:/Data/Nintendo/DoomGX/src/idlib/math/../../idlib/math/Plane.h"
	.file 20 "d:/Data/Nintendo/DoomGX/src/idlib/math/../../idlib/containers/List.h"
	.file 21 "d:/Data/Nintendo/DoomGX/src/idlib/math/../../idlib/math/Ode.h"
	.file 22 "d:/Data/Nintendo/DoomGX/src/idlib/math/../../idlib/bv/Sphere.h"
	.file 23 "d:/Data/Nintendo/DoomGX/src/idlib/math/../../idlib/bv/Bounds.h"
	.file 24 "d:/Data/Nintendo/DoomGX/src/idlib/math/../../idlib/bv/Box.h"
	.file 25 "d:/Data/Nintendo/DoomGX/src/idlib/math/../../idlib/bv/Frustum.h"
	.file 26 "d:/Data/Nintendo/DoomGX/src/idlib/math/../../idlib/geometry/DrawVert.h"
	.file 27 "d:/Data/Nintendo/DoomGX/src/idlib/math/../../idlib/geometry/JointTransform.h"
	.file 28 "d:/Data/Nintendo/DoomGX/src/idlib/math/../../idlib/geometry/Surface.h"
	.file 29 "d:/Data/Nintendo/DoomGX/src/idlib/math/../../idlib/geometry/TraceModel.h"
	.file 30 "d:/Data/Nintendo/DoomGX/src/idlib/math/../../idlib/Str.h"
	.file 31 "d:/Data/Nintendo/DoomGX/src/idlib/math/../../idlib/Token.h"
	.file 32 "d:/Data/Nintendo/DoomGX/src/idlib/math/../../idlib/Lexer.h"
	.file 33 "d:/Data/Nintendo/DoomGX/src/idlib/math/../../framework/File.h"
	.file 34 "d:/Data/Nintendo/DoomGX/src/idlib/math/../../idlib/Parser.h"
	.file 35 "d:/Data/Nintendo/DoomGX/src/idlib/math/../../idlib/containers/HashIndex.h"
	.file 36 "d:/Data/Nintendo/DoomGX/src/idlib/math/../../idlib/containers/StrList.h"
	.file 37 "d:/Data/Nintendo/DoomGX/src/idlib/math/../../idlib/containers/StrPool.h"
	.file 38 "d:/Data/Nintendo/DoomGX/src/idlib/math/../../idlib/containers/PlaneSet.h"
	.file 39 "d:/Data/Nintendo/DoomGX/src/idlib/math/../../idlib/Dict.h"
	.file 40 "d:/Data/Nintendo/DoomGX/src/idlib/math/../../idlib/LangDict.h"
	.file 41 "d:/Data/Nintendo/DoomGX/src/idlib/math/../../idlib/BitMsg.h"
	.file 42 "d:/Data/Nintendo/DoomGX/src/idlib/math/../../idlib/MapFile.h"
	.file 43 "d:/Data/Nintendo/DoomGX/src/idlib/math/../../framework/CmdSystem.h"
	.file 44 "d:/Data/Nintendo/DoomGX/src/idlib/math/../../framework/UsercmdGen.h"
	.file 45 "d:/Data/Nintendo/DoomGX/src/idlib/math/../../framework/DeclManager.h"
	.file 46 "d:/Data/Nintendo/DoomGX/src/idlib/math/../../framework/DeclParticle.h"
	.file 47 "d:/Data/Nintendo/DoomGX/src/idlib/math/../../renderer/RenderWorld.h"
	.file 48 "d:/Data/Nintendo/DoomGX/src/idlib/math/../../renderer/Cinematic.h"
	.file 49 "d:/Data/Nintendo/DoomGX/src/idlib/math/../../renderer/Model.h"
	.file 50 "d:/Data/Nintendo/DoomGX/src/idlib/math/../../renderer/RenderSystem.h"
	.file 51 "d:/Data/Nintendo/DoomGX/src/idlib/math/../../sound/sound.h"
	.file 52 "d:/Data/Nintendo/DoomGX/src/idlib/math/../../ui/UserInterface.h"
	.file 53 "d:/Data/Nintendo/DoomGX/src/idlib/math/../../cm/CollisionModel.h"
	.file 54 "d:/Data/Nintendo/DoomGX/src/idlib/math/../../tools/compilers/aas/AASFile.h"
	.file 55 "d:/Data/Nintendo/DoomGX/src/idlib/math/../../game/Game.h"
	.file 56 "d:/Data/Nintendo/DoomGX/src/idlib/math/../../framework/async/NetworkSystem.h"
	.file 57 "d:/Data/Nintendo/DoomGX/src/idlib/math/../../renderer/ModelManager.h"
	.file 58 "d:/Data/Nintendo/DoomGX/src/idlib/math/../../tools/compilers/aas/AASFileManager.h"
	.file 59 "d:/Data/Nintendo/DoomGX/src/idlib/math/../../framework/Session.h"
	.file 60 "d:/Data/Nintendo/DoomGX/src/idlib/math/../../ui/ListGUI.h"
	.file 61 "d:/Data/Nintendo/DoomGX/src/idlib/math/../../framework/Console.h"
	.file 62 "d:/Data/Nintendo/DoomGX/src/idlib/math/../../idlib/math/Curve.h"
	.file 63 "d:/Data/Nintendo/DoomGX/src/idlib/math/../../idlib/math/Simd.h"
	.file 64 "d:/Data/Nintendo/DoomGX/src/idlib/math/../../framework/BuildVersion.h"
	.file 65 "d:/Data/Nintendo/DoomGX/src/idlib/math/../precompiled.h"
	.file 66 "d:/Data/Nintendo/DoomGX/src/idlib/math/../../renderer/Material.h"
	.file 67 "d:/Data/Nintendo/DoomGX/src/idlib/math/../../framework/EventLoop.h"
	.file 68 "d:/Data/Nintendo/DoomGX/src/idlib/math/../../framework/EditField.h"
	.file 69 "d:/Data/Nintendo/DoomGX/src/idlib/math/../../framework/async/AsyncNetwork.h"
	.file 70 "d:/Data/Nintendo/DoomGX/src/idlib/math/../../framework/async/AsyncServer.h"