	.file	"Script_Program.cpp"
	.section	".text"
.Ltext0:
	.section	.text._ZN14idFixedWinding5ClearEv,"axG",@progbits,_ZN14idFixedWinding5ClearEv,comdat
	.align 2
	.weak	_ZN14idFixedWinding5ClearEv
	.type	_ZN14idFixedWinding5ClearEv, @function
_ZN14idFixedWinding5ClearEv:
.LFB1502:
	.file 1 "d:/Data/Nintendo/DoomGX/src/game/script/../../idlib/../idlib/geometry/Winding.h"
	.loc 1 398 0
	.cfi_startproc
.LVL0:
	.loc 1 399 0
	li 0,0
	.loc 1 400 0
	.loc 1 399 0
	stw 0,4(3)
	.loc 1 400 0
	blr
	.cfi_endproc
.LFE1502:
	.size	_ZN14idFixedWinding5ClearEv, .-_ZN14idFixedWinding5ClearEv
	.section	.text._ZN9idWinding5ClearEv,"axG",@progbits,_ZN9idWinding5ClearEv,comdat
	.align 2
	.weak	_ZN9idWinding5ClearEv
	.type	_ZN9idWinding5ClearEv, @function
_ZN9idWinding5ClearEv:
.LFB1473:
	.loc 1 249 0
	.cfi_startproc
.LVL1:
	mflr 0
	stwu 1,-16(1)
.LCFI0:
	.cfi_def_cfa_offset 16
	.cfi_register 65, 0
	stw 31,12(1)
	mr 31,3
	.cfi_offset 31, -4
	stw 0,20(1)
	.loc 1 250 0
	li 0,0
	.cfi_offset 65, 4
	.loc 1 251 0
	lwz 3,8(3)
.LVL2:
	.loc 1 250 0
	stw 0,4(31)
	.loc 1 251 0
	cmpwi 7,3,0
	beq- 7,.L3
	.loc 1 251 0 is_stmt 0 discriminator 1
	bl _ZdaPv
.L3:
	.loc 1 252 0 is_stmt 1
	li 0,0
	stw 0,8(31)
	.loc 1 253 0
	lwz 0,20(1)
	lwz 31,12(1)
.LVL3:
	mtlr 0
	addi 1,1,16
.LCFI1:
	.cfi_def_cfa_offset 0
	.cfi_restore 31
	blr
	.cfi_endproc
.LFE1473:
	.size	_ZN9idWinding5ClearEv, .-_ZN9idWinding5ClearEv
	.section	.text._ZN9idWindingD2Ev,"axG",@progbits,_ZN9idWindingD5Ev,comdat
	.align 2
	.weak	_ZN9idWindingD2Ev
	.type	_ZN9idWindingD2Ev, @function
_ZN9idWindingD2Ev:
.LFB1461:
	.loc 1 183 0
	.cfi_startproc
.LVL4:
	mflr 0
	stwu 1,-16(1)
.LCFI2:
	.cfi_def_cfa_offset 16
	.cfi_register 65, 0
.LBB1678:
	lis 9,_ZTV9idWinding+8@ha
.LBE1678:
	stw 31,12(1)
	mr 31,3
	.cfi_offset 31, -4
	stw 0,20(1)
.LBB1679:
	.loc 1 183 0
	la 0,_ZTV9idWinding+8@l(9)
	.cfi_offset 65, 4
	.loc 1 184 0
	lwz 3,8(3)
.LVL5:
	.loc 1 183 0
	stw 0,0(31)
	.loc 1 184 0
	cmpwi 7,3,0
	beq- 7,.L6
	.loc 1 184 0 is_stmt 0 discriminator 1
	bl _ZdaPv
.L6:
	.loc 1 185 0 is_stmt 1
	li 0,0
	stw 0,8(31)
.LBE1679:
	.loc 1 186 0
	lwz 0,20(1)
	lwz 31,12(1)
.LVL6:
	mtlr 0
	addi 1,1,16
.LCFI3:
	.cfi_def_cfa_offset 0
	.cfi_restore 31
	blr
	.cfi_endproc
.LFE1461:
	.size	_ZN9idWindingD2Ev, .-_ZN9idWindingD2Ev
	.section	.text._ZN14idFixedWindingD2Ev,"axG",@progbits,_ZN14idFixedWindingD5Ev,comdat
	.align 2
	.weak	_ZN14idFixedWindingD2Ev
	.type	_ZN14idFixedWindingD2Ev, @function
_ZN14idFixedWindingD2Ev:
.LFB1498:
	.loc 1 380 0
	.cfi_startproc
.LVL7:
.LBB1685:
	.loc 1 381 0
	li 0,0
.LBB1686:
.LBB1687:
.LBB1688:
	.loc 1 183 0
	lis 9,_ZTV9idWinding+8@ha
.LBE1688:
.LBE1687:
.LBE1686:
	.loc 1 381 0
	stw 0,8(3)
.LVL8:
.LBB1691:
.LBB1690:
.LBB1689:
	.loc 1 183 0
	la 0,_ZTV9idWinding+8@l(9)
	stw 0,0(3)
.LBE1689:
.LBE1690:
.LBE1691:
.LBE1685:
	.loc 1 382 0
	blr
	.cfi_endproc
.LFE1498:
	.size	_ZN14idFixedWindingD2Ev, .-_ZN14idFixedWindingD2Ev
	.section	.text._ZN9idWindingD0Ev,"axG",@progbits,_ZN9idWindingD5Ev,comdat
	.align 2
	.weak	_ZN9idWindingD0Ev
	.type	_ZN9idWindingD0Ev, @function
_ZN9idWindingD0Ev:
.LFB1463:
	.loc 1 183 0
	.cfi_startproc
.LVL9:
	mflr 0
	stwu 1,-16(1)
.LCFI4:
	.cfi_def_cfa_offset 16
	.cfi_register 65, 0
.LBB1695:
.LBB1696:
.LBB1697:
	lis 9,_ZTV9idWinding+8@ha
.LBE1697:
.LBE1696:
.LBE1695:
	stw 31,12(1)
	mr 31,3
	.cfi_offset 31, -4
.LVL10:
	stw 0,20(1)
.LBB1702:
.LBB1700:
.LBB1698:
	.loc 1 183 0
	la 0,_ZTV9idWinding+8@l(9)
	.cfi_offset 65, 4
	.loc 1 184 0
	lwz 3,8(3)
.LVL11:
	.loc 1 183 0
	stw 0,0(31)
	.loc 1 184 0
	cmpwi 7,3,0
	beq- 7,.L12
	bl _ZdaPv
.LVL12:
.L12:
	.loc 1 185 0
	li 0,0
.LBE1698:
.LBE1700:
.LBE1702:
	.loc 1 186 0
	mr 3,31
.LBB1703:
.LBB1701:
.LBB1699:
	.loc 1 185 0
	stw 0,8(31)
.LBE1699:
.LBE1701:
.LBE1703:
	.loc 1 186 0
	bl _ZdlPv
	lwz 0,20(1)
	lwz 31,12(1)
.LVL13:
	mtlr 0
	addi 1,1,16
.LCFI5:
	.cfi_def_cfa_offset 0
	.cfi_restore 31
	blr
	.cfi_endproc
.LFE1463:
	.size	_ZN9idWindingD0Ev, .-_ZN9idWindingD0Ev
	.section	.text._ZN14idFixedWindingD0Ev,"axG",@progbits,_ZN14idFixedWindingD5Ev,comdat
	.align 2
	.weak	_ZN14idFixedWindingD0Ev
	.type	_ZN14idFixedWindingD0Ev, @function
_ZN14idFixedWindingD0Ev:
.LFB1500:
	.loc 1 380 0
	.cfi_startproc
.LVL14:
	mflr 0
	stwu 1,-8(1)
.LCFI6:
	.cfi_def_cfa_offset 8
	.cfi_register 65, 0
.LBB1710:
.LBB1711:
.LBB1712:
.LBB1713:
.LBB1714:
.LBB1715:
	.loc 1 183 0
	lis 11,_ZTV9idWinding+8@ha
.LBE1715:
.LBE1714:
.LBE1713:
.LBE1712:
.LBE1711:
.LBE1710:
	.loc 1 380 0
	stw 0,12(1)
.LBB1721:
.LBB1720:
.LBB1719:
	.loc 1 381 0
	li 0,0
	.cfi_offset 65, 4
	stw 0,8(3)
.LVL15:
.LBB1718:
.LBB1717:
.LBB1716:
	.loc 1 183 0
	la 0,_ZTV9idWinding+8@l(11)
	stw 0,0(3)
.LBE1716:
.LBE1717:
.LBE1718:
.LBE1719:
.LBE1720:
.LBE1721:
	.loc 1 382 0
	bl _ZdlPv
.LVL16:
	lwz 0,12(1)
	addi 1,1,8
.LCFI7:
	.cfi_def_cfa_offset 0
	mtlr 0
	blr
	.cfi_endproc
.LFE1500:
	.size	_ZN14idFixedWindingD0Ev, .-_ZN14idFixedWindingD0Ev
	.section	.text._ZN14idCompileErrorC2EPKc,"axG",@progbits,_ZN14idCompileErrorC5EPKc,comdat
	.align 2
	.weak	_ZN14idCompileErrorC2EPKc
	.type	_ZN14idCompileErrorC2EPKc, @function
_ZN14idCompileErrorC2EPKc:
.LFB2589:
	.file 2 "d:/Data/Nintendo/DoomGX/src/game/script/../script/Script_Program.h"
	.loc 2 285 0
	.cfi_startproc
.LVL17:
	mflr 0
	stwu 1,-8(1)
.LCFI8:
	.cfi_def_cfa_offset 8
	.cfi_register 65, 0
	stw 0,12(1)
.LBB1724:
.LBB1725:
	.file 3 "d:/Data/Nintendo/DoomGX/src/game/script/../../idlib/../idlib/Lib.h"
	.loc 3 154 0
	.cfi_offset 65, 4
	bl strcpy
.LVL18:
.LBE1725:
.LBE1724:
	.loc 2 285 0
	lwz 0,12(1)
	addi 1,1,8
.LCFI9:
	.cfi_def_cfa_offset 0
	mtlr 0
	blr
	.cfi_endproc
.LFE2589:
	.size	_ZN14idCompileErrorC2EPKc, .-_ZN14idCompileErrorC2EPKc
	.section	".text"
	.align 2
	.globl _ZNK10function_t9AllocatedEv
	.type	_ZNK10function_t9AllocatedEv, @function
_ZNK10function_t9AllocatedEv:
.LFB2813:
	.file 4 "d:/Data/Nintendo/DoomGX/src/game/script/Script_Program.cpp"
	.loc 4 95 0
	.cfi_startproc
.LVL19:
.LBB1726:
.LBB1727:
	.file 5 "d:/Data/Nintendo/DoomGX/src/game/script/../../idlib/../idlib/Str.h"
	.loc 5 728 0
	lwz 9,4(3)
	addi 0,3,12
	cmpw 7,9,0
	li 0,0
	beq- 7,.L21
	lwz 0,8(3)
.L21:
.LBE1727:
.LBE1726:
.LBB1728:
.LBB1729:
	.file 6 "d:/Data/Nintendo/DoomGX/src/game/script/../../idlib/../idlib/containers/List.h"
	.loc 6 239 0
	lwz 3,68(3)
.LVL20:
.LBE1729:
.LBE1728:
	.loc 4 97 0
.LBB1731:
.LBB1730:
	.loc 6 239 0
	slwi 3,3,2
.LBE1730:
.LBE1731:
	.loc 4 97 0
	add 3,0,3
	blr
	.cfi_endproc
.LFE2813:
	.size	_ZNK10function_t9AllocatedEv, .-_ZNK10function_t9AllocatedEv
	.align 2
	.globl _ZN10function_t7SetNameEPKc
	.type	_ZN10function_t7SetNameEPKc, @function
_ZN10function_t7SetNameEPKc:
.LFB2814:
	.loc 4 104 0
	.cfi_startproc
.LVL21:
	mflr 0
	stwu 1,-8(1)
.LCFI10:
	.cfi_def_cfa_offset 8
	.cfi_register 65, 0
	stw 0,12(1)
	.loc 4 105 0
	.cfi_offset 65, 4
	bl _ZN5idStraSEPKc
.LVL22:
	.loc 4 106 0
	lwz 0,12(1)
	addi 1,1,8
.LCFI11:
	.cfi_def_cfa_offset 0
	mtlr 0
	blr
	.cfi_endproc
.LFE2814:
	.size	_ZN10function_t7SetNameEPKc, .-_ZN10function_t7SetNameEPKc
	.align 2
	.globl _ZNK10function_t4NameEv
	.type	_ZNK10function_t4NameEv, @function
_ZNK10function_t4NameEv:
.LFB2815:
	.loc 4 113 0
	.cfi_startproc
.LVL23:
	.loc 4 115 0
	lwz 3,4(3)
.LVL24:
	blr
	.cfi_endproc
.LFE2815:
	.size	_ZNK10function_t4NameEv, .-_ZNK10function_t4NameEv
	.align 2
	.globl _ZN10function_t5ClearEv
	.type	_ZN10function_t5ClearEv, @function
_ZN10function_t5ClearEv:
.LFB2816:
	.loc 4 122 0
	.cfi_startproc
.LVL25:
	stwu 1,-16(1)
.LCFI12:
	.cfi_def_cfa_offset 16
	mflr 0
	stw 30,8(1)
	.loc 4 123 0
	li 30,0
	.cfi_offset 30, -8
	.cfi_register 65, 0
	.loc 4 122 0
	stw 0,20(1)
	stw 31,12(1)
	.loc 4 122 0
	mr 31,3
	.cfi_offset 31, -4
	.cfi_offset 65, 4
	.loc 4 123 0
	stw 30,32(3)
	.loc 4 124 0
	stw 30,36(3)
	.loc 4 125 0
	stw 30,40(3)
	.loc 4 126 0
	stw 30,44(3)
	.loc 4 127 0
	stw 30,48(3)
	.loc 4 128 0
	stw 30,52(3)
	.loc 4 129 0
	stw 30,56(3)
	.loc 4 130 0
	stw 30,60(3)
.LVL26:
.LBB1738:
.LBB1739:
	.loc 5 746 0
	bl _ZN5idStr8FreeDataEv
.LVL27:
.LBE1739:
.LBE1738:
.LBB1746:
.LBB1747:
	.loc 6 193 0
	lwz 3,76(31)
.LBE1747:
.LBE1746:
.LBB1750:
.LBB1744:
.LBB1740:
.LBB1741:
	.loc 5 358 0
	addi 0,31,12
	.loc 5 357 0
	li 9,20
.LBE1741:
.LBE1740:
.LBE1744:
.LBE1750:
.LBB1751:
.LBB1748:
	.loc 6 193 0
	cmpwi 7,3,0
.LBE1748:
.LBE1751:
.LBB1752:
.LBB1745:
.LBB1743:
.LBB1742:
	.loc 5 356 0
	stw 30,0(31)
	.loc 5 357 0
	stw 9,8(31)
	.loc 5 358 0
	stw 0,4(31)
	.loc 5 359 0
	stb 30,12(31)
.LVL28:
.LBE1742:
.LBE1743:
.LBE1745:
.LBE1752:
.LBB1753:
.LBB1749:
	.loc 6 193 0
	beq- 7,.L26
	.loc 6 194 0
	bl _ZdaPv
.L26:
	.loc 6 197 0
	li 0,0
	stw 0,76(31)
	.loc 6 198 0
	stw 0,64(31)
	.loc 6 199 0
	stw 0,68(31)
.LBE1749:
.LBE1753:
	.loc 4 133 0
	lwz 0,20(1)
	lwz 30,8(1)
	mtlr 0
	lwz 31,12(1)
.LVL29:
	addi 1,1,16
.LCFI13:
	.cfi_def_cfa_offset 0
	.cfi_restore 31
	.cfi_restore 30
	blr
	.cfi_endproc
.LFE2816:
	.size	_ZN10function_t5ClearEv, .-_ZN10function_t5ClearEv
	.align 2
	.globl _ZN9idTypeDefnwEj
	.type	_ZN9idTypeDefnwEj, @function
_ZN9idTypeDefnwEj:
.LFB2823:
	.loc 4 176 0
	.cfi_startproc
	.cfi_personality 0,__gxx_personality_v0
	.cfi_lsda 0,.LLSDA2823
.LVL30:
	mflr 0
	stwu 1,-8(1)
.LCFI14:
	.cfi_def_cfa_offset 8
	.cfi_register 65, 0
	stw 0,12(1)
.LEHB0:
.LBB1754:
	.loc 4 177 0
	.cfi_offset 65, 4
	bl _Z11Mem_Alloc16i
.LVL31:
	.loc 4 178 0
	cmpwi 7,3,0
	beq- 7,.L32
.LBE1754:
	.loc 4 182 0
	lwz 0,12(1)
	addi 1,1,8
	.cfi_remember_state
.LCFI15:
	.cfi_def_cfa_offset 0
	mtlr 0
	blr
.L32:
.LCFI16:
	.cfi_restore_state
.LBB1759:
	.loc 4 179 0
	li 3,4
.LVL32:
	bl __cxa_allocate_exception
.LVL33:
.LBB1755:
.LBB1756:
	.file 7 "c:\\utils\\devkitpro\\devkitppc\\bin\\../lib/gcc/powerpc-eabi/4.6.3/../../../../powerpc-eabi/include/c++/4.6.3/new"
	.loc 7 59 0
	lis 9,_ZTVSt9bad_alloc+8@ha
	la 0,_ZTVSt9bad_alloc+8@l(9)
.LBE1756:
.LBE1755:
	.loc 4 179 0
	lis 4,_ZTISt9bad_alloc@ha
	lis 5,_ZNSt9bad_allocD1Ev@ha
.LBB1758:
.LBB1757:
	.loc 7 59 0
	stw 0,0(3)
.LBE1757:
.LBE1758:
	.loc 4 179 0
	la 4,_ZTISt9bad_alloc@l(4)
	la 5,_ZNSt9bad_allocD1Ev@l(5)
	bl __cxa_throw
.LEHE0:
.LVL34:
.L31:
	.loc 4 181 0
	cmpwi 7,4,-1
	beq- 7,.L30
.LEHB1:
	bl _Unwind_Resume
.L30:
.LBE1759:
	.loc 4 176 0
	bl __cxa_call_unexpected
.LEHE1:
	.cfi_endproc
.LFE2823:
	.globl __gxx_personality_v0
	.section	.gcc_except_table,"a",@progbits
	.align 2
.LLSDA2823:
	.byte	0xff
	.byte	0
	.uleb128 .LLSDATT2823-.LLSDATTD2823
.LLSDATTD2823:
	.byte	0x1
	.uleb128 .LLSDACSE2823-.LLSDACSB2823
.LLSDACSB2823:
	.uleb128 .LEHB0-.LFB2823
	.uleb128 .LEHE0-.LEHB0
	.uleb128 .L31-.LFB2823
	.uleb128 0x1
	.uleb128 .LEHB1-.LFB2823
	.uleb128 .LEHE1-.LEHB1
	.uleb128 0
	.uleb128 0
.LLSDACSE2823:
	.byte	0x7f
	.byte	0
	.align 2
	.long	_ZTISt9bad_alloc
.LLSDATT2823:
	.byte	0x1
	.byte	0
	.section	".text"
	.size	_ZN9idTypeDefnwEj, .-_ZN9idTypeDefnwEj
	.align 2
	.globl _ZN9idTypeDefdlEPv
	.type	_ZN9idTypeDefdlEPv, @function
_ZN9idTypeDefdlEPv:
.LFB2830:
	.loc 4 184 0
	.cfi_startproc
	.cfi_personality 0,__gxx_personality_v0
	.cfi_lsda 0,.LLSDA2830
.LVL35:
	mflr 0
	stwu 1,-8(1)
.LCFI17:
	.cfi_def_cfa_offset 8
	.cfi_register 65, 0
	stw 0,12(1)
	.loc 4 185 0
	lis 0,0x8fff
	.cfi_offset 65, 4
	ori 0,0,65535
	cmplw 7,3,0
	ble- 7,.L34
.LEHB2:
	.loc 4 186 0
	bl _Z10Mem_Free16Pv
.LEHE2:
.LVL36:
	.loc 4 190 0
	lwz 0,12(1)
	addi 1,1,8
	.cfi_remember_state
.LCFI18:
	.cfi_def_cfa_offset 0
	mtlr 0
	blr
.LVL37:
.L34:
.LCFI19:
	.cfi_restore_state
	.loc 4 188 0
	bl free
.LVL38:
	.loc 4 190 0
	lwz 0,12(1)
	addi 1,1,8
	.cfi_remember_state
.LCFI20:
	.cfi_def_cfa_offset 0
	mtlr 0
	blr
.L38:
.LCFI21:
	.cfi_restore_state
	cmpwi 7,4,-1
	beq- 7,.L37
.LEHB3:
	bl _Unwind_Resume
.L37:
	.loc 4 184 0
	bl __cxa_call_unexpected
.LEHE3:
	.cfi_endproc
.LFE2830:
	.section	.gcc_except_table
	.align 2
.LLSDA2830:
	.byte	0xff
	.byte	0
	.uleb128 .LLSDATT2830-.LLSDATTD2830
.LLSDATTD2830:
	.byte	0x1
	.uleb128 .LLSDACSE2830-.LLSDACSB2830
.LLSDACSB2830:
	.uleb128 .LEHB2-.LFB2830
	.uleb128 .LEHE2-.LEHB2
	.uleb128 .L38-.LFB2830
	.uleb128 0x1
	.uleb128 .LEHB3-.LFB2830
	.uleb128 .LEHE3-.LEHB3
	.uleb128 0
	.uleb128 0
.LLSDACSE2830:
	.byte	0x7f
	.byte	0
	.align 2
.LLSDATT2830:
	.byte	0
	.section	".text"
	.size	_ZN9idTypeDefdlEPv, .-_ZN9idTypeDefdlEPv
	.align 2
	.globl _ZN9idTypeDefaSERKS_
	.type	_ZN9idTypeDefaSERKS_, @function
_ZN9idTypeDefaSERKS_:
.LFB2831:
	.loc 4 198 0
	.cfi_startproc
.LVL39:
	mflr 0
	stwu 1,-40(1)
.LCFI22:
	.cfi_def_cfa_offset 40
	.cfi_register 65, 0
	stw 30,32(1)
	mr 30,4
	.cfi_offset 30, -8
	stw 31,36(1)
	mr 31,3
	.cfi_offset 31, -4
	stw 0,44(1)
	stw 25,12(1)
	stw 26,16(1)
	stw 27,20(1)
	stw 28,24(1)
	stw 29,28(1)
	.loc 4 199 0
	lwz 0,0(4)
	.cfi_offset 29, -12
	.cfi_offset 28, -16
	.cfi_offset 27, -20
	.cfi_offset 26, -24
	.cfi_offset 25, -28
	.cfi_offset 65, 4
	stw 0,0(3)
.LBB1788:
.LBB1789:
.LBB1790:
.LBB1791:
	.loc 5 350 0
	lwz 0,12(3)
.LBE1791:
.LBE1790:
.LBE1789:
.LBE1788:
	.loc 4 200 0
	lwz 9,92(4)
	stw 9,92(3)
.LVL40:
.LBB1795:
	.loc 4 2214 0
	lwz 29,4(4)
.LBB1794:
	.loc 5 534 0
	addi 4,29,1
.LVL41:
.LBB1793:
.LBB1792:
	.loc 5 350 0
	cmpw 7,4,0
	ble+ 7,.L40
	.loc 5 351 0
	addi 3,3,4
.LVL42:
	li 5,0
	bl _ZN5idStr10ReAllocateEib
.LVL43:
.L40:
.LBE1792:
.LBE1793:
	.loc 5 535 0
	lwz 3,8(31)
	mr 5,29
	lwz 4,8(30)
	bl memcpy
	.loc 5 536 0
	lwz 9,8(31)
	li 0,0
	stbx 0,9,29
	.loc 5 537 0
	stw 29,4(31)
.LBE1794:
.LBE1795:
.LBB1796:
.LBB1797:
.LBB1798:
.LBB1799:
	.loc 6 193 0
	lwz 3,56(31)
.LBE1799:
.LBE1798:
.LBE1797:
.LBE1796:
	.loc 4 202 0
	lwz 0,36(30)
.LBB1807:
.LBB1804:
.LBB1802:
.LBB1800:
	.loc 6 193 0
	cmpwi 7,3,0
.LBE1800:
.LBE1802:
.LBE1804:
.LBE1807:
	.loc 4 202 0
	stw 0,36(31)
	.loc 4 203 0
	lwz 0,40(30)
	stw 0,40(31)
.LVL44:
.LBB1808:
.LBB1805:
.LBB1803:
.LBB1801:
	.loc 6 193 0
	beq- 7,.L41
	.loc 6 194 0
	bl _ZdaPv
.L41:
	.loc 6 197 0
	li 0,0
	.loc 6 198 0
	stw 0,44(31)
	.loc 6 199 0
	stw 0,48(31)
	.loc 6 197 0
	stw 0,56(31)
.LBE1801:
.LBE1803:
	.loc 6 546 0
	lwz 0,44(30)
	stw 0,44(31)
	.loc 6 547 0
	lwz 3,48(30)
	stw 3,48(31)
	.loc 6 550 0
	cmpwi 7,3,0
	.loc 6 548 0
	lwz 0,52(30)
	stw 0,52(31)
	.loc 6 550 0
	bne- 7,.L60
.L42:
.LBE1805:
.LBE1808:
.LBB1809:
.LBB1810:
.LBB1811:
.LBB1812:
	.loc 6 193 0
	lwz 3,72(31)
.LBE1812:
.LBE1811:
.LBE1810:
.LBE1809:
	.loc 4 205 0
	addi 28,31,60
.LVL45:
.LBB1835:
.LBB1833:
.LBB1817:
.LBB1816:
	.loc 6 193 0
	cmpwi 7,3,0
	beq- 7,.L44
	.loc 6 194 0
	lwz 29,-4(3)
	slwi 29,29,5
	add 29,3,29
	cmpw 7,3,29
	beq- 7,.L45
.L58:
	addi 29,29,-32
.LVL46:
.LBB1813:
.LBB1814:
.LBB1815:
	.loc 5 501 0
	mr 3,29
	bl _ZN5idStr8FreeDataEv
.LBE1815:
.LBE1814:
.LBE1813:
	.loc 6 194 0
	lwz 3,12(28)
	cmpw 7,3,29
	bne+ 7,.L58
.LVL47:
.L45:
	addi 3,3,-4
	bl _ZdaPv
.L44:
	.loc 6 197 0
	li 0,0
	.loc 6 198 0
	stw 0,60(31)
	.loc 6 199 0
	stw 0,64(31)
	.loc 6 197 0
	stw 0,72(31)
.LBE1816:
.LBE1817:
	.loc 6 546 0
	lwz 0,60(30)
	stw 0,60(31)
	.loc 6 547 0
	lwz 28,64(30)
.LVL48:
	stw 28,64(31)
	.loc 6 550 0
	cmpwi 7,28,0
	.loc 6 548 0
	lwz 0,68(30)
	stw 0,68(31)
	.loc 6 550 0
	bne- 7,.L61
.LVL49:
.L49:
.LBE1833:
.LBE1835:
.LBB1836:
.LBB1837:
.LBB1838:
.LBB1839:
	.loc 6 193 0
	lwz 3,88(31)
	cmpwi 7,3,0
	beq- 7,.L54
	.loc 6 194 0
	bl _ZdaPv
.L54:
	.loc 6 197 0
	li 0,0
	.loc 6 198 0
	stw 0,76(31)
	.loc 6 199 0
	stw 0,80(31)
	.loc 6 197 0
	stw 0,88(31)
.LBE1839:
.LBE1838:
	.loc 6 546 0
	lwz 0,76(30)
	stw 0,76(31)
	.loc 6 547 0
	lwz 3,80(30)
	stw 3,80(31)
	.loc 6 550 0
	cmpwi 7,3,0
	.loc 6 548 0
	lwz 0,84(30)
	stw 0,84(31)
	.loc 6 550 0
	bne- 7,.L62
.L39:
.LBE1837:
.LBE1836:
	.loc 4 207 0
	lwz 0,44(1)
	lwz 25,12(1)
	mtlr 0
	lwz 26,16(1)
	lwz 27,20(1)
	lwz 28,24(1)
	lwz 29,28(1)
	lwz 30,32(1)
.LVL50:
	lwz 31,36(1)
.LVL51:
	addi 1,1,40
	.cfi_remember_state
.LCFI23:
	.cfi_def_cfa_offset 0
	.cfi_restore 31
	.cfi_restore 30
	.cfi_restore 29
	.cfi_restore 28
	.cfi_restore 27
	.cfi_restore 26
	.cfi_restore 25
	blr
.LVL52:
.L62:
.LCFI24:
	.cfi_restore_state
.LBB1841:
.LBB1840:
	.loc 6 551 0
	slwi 3,3,2
	bl _Znaj
	.loc 6 552 0
	lwz 0,76(31)
	.loc 6 551 0
	stw 3,88(31)
.LVL53:
	.loc 6 552 0
	cmpwi 7,0,0
	ble- 7,.L39
	li 9,0
	b .L56
.LVL54:
.L63:
	lwz 3,88(31)
.LVL55:
.L56:
	.loc 6 553 0
	lwz 11,88(30)
	.loc 4 198 0
	slwi 0,9,2
	.loc 6 552 0
	addi 9,9,1
.LVL56:
	.loc 6 553 0
	lwzx 11,11,0
	stwx 11,3,0
	.loc 6 552 0
	lwz 0,76(31)
	cmpw 7,9,0
	blt+ 7,.L63
.LBE1840:
.LBE1841:
	.loc 4 207 0
	lwz 0,44(1)
	lwz 25,12(1)
	mtlr 0
	lwz 26,16(1)
	lwz 27,20(1)
	lwz 28,24(1)
	lwz 29,28(1)
	lwz 30,32(1)
.LVL57:
	lwz 31,36(1)
.LVL58:
	addi 1,1,40
	.cfi_remember_state
	.cfi_restore 25
	.cfi_restore 26
	.cfi_restore 27
	.cfi_restore 28
	.cfi_restore 29
	.cfi_restore 30
	.cfi_restore 31
.LCFI25:
	.cfi_def_cfa_offset 0
	blr
.LVL59:
.L61:
.LCFI26:
	.cfi_restore_state
.LBB1842:
.LBB1834:
	.loc 6 551 0
	slwi 3,28,5
	addi 3,3,4
	bl _Znaj
.LBB1818:
.LBB1819:
.LBB1820:
	.loc 5 357 0
	mtctr 28
.LBE1820:
.LBE1819:
.LBE1818:
	.loc 6 551 0
	addi 29,3,4
	stw 28,0(3)
	mr 9,29
.LBB1823:
.LBB1822:
.LBB1821:
	.loc 5 356 0
	li 0,0
	.loc 5 357 0
	li 10,20
.L51:
.LVL60:
	.loc 5 358 0
	addi 11,9,12
	.loc 5 356 0
	stw 0,0(9)
	.loc 5 357 0
	stw 10,8(9)
	.loc 5 358 0
	stw 11,4(9)
	.loc 5 359 0
	stb 0,12(9)
	addi 9,9,32
.LVL61:
.LBE1821:
.LBE1822:
.LBE1823:
	.loc 6 551 0
	bdnz .L51
	.loc 6 552 0
	lwz 0,60(31)
	.loc 6 551 0
	stw 29,72(31)
.LVL62:
	.loc 6 552 0
	cmpwi 7,0,0
	ble- 7,.L49
	li 27,0
.LBB1824:
.LBB1825:
	.loc 5 536 0
	li 25,0
	b .L53
.LVL63:
.L64:
.LBE1825:
.LBE1824:
	.loc 6 552 0
	lwz 29,72(31)
.LVL64:
.L53:
	.loc 6 553 0
	lwz 26,72(30)
	.loc 4 198 0
	slwi 0,27,5
	.loc 6 553 0
	add 29,29,0
	.loc 6 552 0
	addi 27,27,1
.LBB1831:
	.loc 4 2214 0
	lwzx 28,26,0
.LBE1831:
	.loc 6 553 0
	add 26,26,0
.LVL65:
.LBB1832:
.LBB1830:
.LBB1826:
.LBB1827:
	.loc 5 350 0
	lwz 9,8(29)
.LBE1827:
.LBE1826:
	.loc 5 534 0
	addi 4,28,1
.LVL66:
.LBB1829:
.LBB1828:
	.loc 5 350 0
	cmpw 7,4,9
	ble+ 7,.L52
	.loc 5 351 0
	mr 3,29
	li 5,0
	bl _ZN5idStr10ReAllocateEib
.LVL67:
.L52:
.LBE1828:
.LBE1829:
	.loc 5 535 0
	lwz 3,4(29)
	mr 5,28
	lwz 4,4(26)
	bl memcpy
.LVL68:
	.loc 5 536 0
	lwz 9,4(29)
	stbx 25,9,28
	.loc 5 537 0
	stw 28,0(29)
.LBE1830:
.LBE1832:
	.loc 6 552 0
	lwz 0,60(31)
	cmpw 7,27,0
	blt+ 7,.L64
	b .L49
.LVL69:
.L60:
.LBE1834:
.LBE1842:
.LBB1843:
.LBB1806:
	.loc 6 551 0
	slwi 3,3,2
	bl _Znaj
	.loc 6 552 0
	lwz 0,44(31)
	.loc 6 551 0
	stw 3,56(31)
.LVL70:
	.loc 6 552 0
	cmpwi 7,0,0
	ble- 7,.L42
	li 9,0
	b .L43
.LVL71:
.L65:
	lwz 3,56(31)
.LVL72:
.L43:
	.loc 6 553 0
	lwz 11,56(30)
	.loc 4 198 0
	slwi 0,9,2
	.loc 6 552 0
	addi 9,9,1
.LVL73:
	.loc 6 553 0
	lwzx 11,11,0
	stwx 11,3,0
	.loc 6 552 0
	lwz 0,44(31)
	cmpw 7,9,0
	blt+ 7,.L65
	b .L42
.LBE1806:
.LBE1843:
	.cfi_endproc
.LFE2831:
	.size	_ZN9idTypeDefaSERKS_, .-_ZN9idTypeDefaSERKS_
	.align 2
	.globl _ZNK9idTypeDef9AllocatedEv
	.type	_ZNK9idTypeDef9AllocatedEv, @function
_ZNK9idTypeDef9AllocatedEv:
.LFB2832:
	.loc 4 214 0
	.cfi_startproc
.LVL74:
.LBB1844:
.LBB1845:
.LBB1846:
	.loc 5 728 0
	lwz 9,8(3)
	addi 0,3,16
	cmpw 7,9,0
	li 9,0
	beq- 7,.L67
.LVL75:
	lwz 9,12(3)
.LVL76:
.L67:
.LBE1846:
.LBE1845:
	.loc 4 2214 0
	lwz 0,44(3)
.LBB1849:
.LBB1847:
	.loc 5 728 0
	lwz 8,80(3)
	lwz 10,48(3)
.LBE1847:
.LBE1849:
	.loc 4 219 0
	cmpwi 7,0,0
.LBB1850:
.LBB1851:
	.loc 6 239 0
	lwz 11,64(3)
.LBE1851:
.LBE1850:
.LBB1853:
.LBB1848:
	.loc 5 728 0
	add 10,8,10
.LBE1848:
.LBE1853:
	.loc 4 218 0
	slwi 10,10,2
.LBB1854:
.LBB1852:
	.loc 6 239 0
	slwi 11,11,5
.LBE1852:
.LBE1854:
	.loc 4 218 0
	add 10,10,11
	add 10,10,9
.LVL77:
	.loc 4 219 0
	ble- 7,.L68
	lwz 7,72(3)
.LBB1855:
.LBB1856:
	.loc 5 728 0
	mtctr 0
.LBE1856:
.LBE1855:
	.loc 4 219 0
	li 11,0
.LVL78:
.L70:
.LBB1858:
.LBB1859:
	.loc 4 214 0 discriminator 2
	slwi 9,11,5
.LBE1859:
.LBE1858:
	.loc 4 219 0 discriminator 2
	addi 11,11,1
.LVL79:
.LBB1861:
.LBB1860:
	.loc 6 573 0 discriminator 2
	add 9,7,9
.LVL80:
.LBE1860:
.LBE1861:
.LBB1862:
.LBB1857:
	.loc 5 728 0 discriminator 2
	lwz 8,4(9)
	addi 0,9,12
	cmpw 7,8,0
	li 0,0
	beq- 7,.L69
	.loc 5 728 0 is_stmt 0
	lwz 0,8(9)
.L69:
.LBE1857:
.LBE1862:
	.loc 4 220 0 is_stmt 1
	add 10,10,0
.LVL81:
	.loc 4 219 0
	bdnz .L70
.LVL82:
.L68:
.LBE1844:
	.loc 4 224 0
	mr 3,10
.LVL83:
	blr
	.cfi_endproc
.LFE2832:
	.size	_ZNK9idTypeDef9AllocatedEv, .-_ZNK9idTypeDef9AllocatedEv
	.align 2
	.globl _ZNK9idTypeDef8InheritsEPKS_
	.type	_ZNK9idTypeDef8InheritsEPKS_, @function
_ZNK9idTypeDef8InheritsEPKS_:
.LFB2833:
	.loc 4 233 0
	.cfi_startproc
.LVL84:
.LBB1867:
	.loc 4 236 0
	lwz 0,0(3)
.LBE1867:
	.loc 4 233 0
	mr 9,3
.LBB1868:
	.loc 4 237 0
	li 3,0
.LVL85:
	.loc 4 236 0
	cmpwi 7,0,11
	bnelr+ 7
	.loc 4 240 0
	cmpw 7,9,4
	.loc 4 241 0
	li 3,1
	.loc 4 240 0
	beqlr- 7
.LVL86:
.LBE1868:
.LBB1869:
.LBB1870:
	.loc 4 243 0
	lwz 9,40(9)
.LVL87:
	.loc 4 249 0
	li 3,0
	.loc 4 243 0
	cmpwi 7,9,0
	beqlr- 7
	.loc 4 244 0
	cmpw 7,4,9
	.loc 4 245 0
	li 3,1
	.loc 4 244 0
	bne+ 7,.L85
	blr
.L79:
	beq- 6,.L84
.L85:
	.loc 4 243 0
	lwz 9,40(9)
.LVL88:
	cmpwi 7,9,0
	.loc 4 244 0
	cmpw 6,4,9
	.loc 4 243 0
	bne+ 7,.L79
	.loc 4 249 0
	li 3,0
	blr
.L84:
	.loc 4 245 0
	li 3,1
.LBE1870:
.LBE1869:
	.loc 4 250 0
	blr
	.cfi_endproc
.LFE2833:
	.size	_ZNK9idTypeDef8InheritsEPKS_, .-_ZNK9idTypeDef8InheritsEPKS_
	.align 2
	.globl _ZNK9idTypeDef11MatchesTypeERKS_
	.type	_ZNK9idTypeDef11MatchesTypeERKS_, @function
_ZNK9idTypeDef11MatchesTypeERKS_:
.LFB2834:
	.loc 4 259 0
	.cfi_startproc
.LVL89:
.LBB1871:
	.loc 4 262 0
	cmpw 7,3,4
.LBE1871:
	.loc 4 259 0
	mr 9,3
.LBB1872:
	.loc 4 263 0
	li 3,1
.LVL90:
	.loc 4 262 0
	beqlr- 7
	.loc 4 266 0
	lwz 11,0(9)
	.loc 4 267 0
	li 3,0
	.loc 4 266 0
	lwz 0,0(4)
	cmpw 7,11,0
	bnelr+ 7
	.loc 4 266 0 is_stmt 0 discriminator 1
	lwz 11,40(9)
	lwz 0,40(4)
	cmpw 7,11,0
	bnelr+ 7
	.loc 4 2214 0 is_stmt 1
	lwz 0,44(9)
	.loc 4 270 0
	lwz 11,44(4)
	cmpw 7,0,11
	bnelr+ 7
.LVL91:
	.loc 4 274 0 discriminator 1
	cmpwi 7,0,0
	.loc 4 280 0 discriminator 1
	li 3,1
	.loc 4 274 0 discriminator 1
	blelr- 7
	.loc 4 2214 0
	lwz 10,56(9)
.LVL92:
	.loc 4 276 0
	li 3,0
	.loc 4 2214 0
	lwz 8,56(4)
.LVL93:
	.loc 4 275 0
	lwz 11,0(10)
	lwz 9,0(8)
.LVL94:
	cmpw 7,11,9
	bnelr- 7
	li 9,0
	mtctr 0
	b .L89
.LVL95:
.L90:
	lwzx 11,10,0
	lwzx 0,8,0
	cmpw 7,11,0
	bne- 7,.L97
.LVL96:
.L89:
	.loc 4 274 0
	addi 9,9,1
.LVL97:
	.loc 4 259 0
	slwi 0,9,2
	.loc 4 274 0
	bdnz .L90
	.loc 4 280 0
	li 3,1
	blr
.LVL98:
.L97:
	.loc 4 276 0
	li 3,0
.LBE1872:
	.loc 4 281 0
	blr
	.cfi_endproc
.LFE2834:
	.size	_ZNK9idTypeDef11MatchesTypeERKS_, .-_ZNK9idTypeDef11MatchesTypeERKS_
	.align 2
	.globl _ZNK9idTypeDef22MatchesVirtualFunctionERKS_
	.type	_ZNK9idTypeDef22MatchesVirtualFunctionERKS_, @function
_ZNK9idTypeDef22MatchesVirtualFunctionERKS_:
.LFB2835:
	.loc 4 290 0
	.cfi_startproc
.LVL99:
.LBB1873:
	.loc 4 293 0
	cmpw 7,3,4
.LBE1873:
	.loc 4 290 0
	mflr 0
	stwu 1,-24(1)
.LCFI27:
	.cfi_def_cfa_offset 24
	.cfi_register 65, 0
	mr 9,3
.LBB1874:
	.loc 4 294 0
	li 3,1
.LVL100:
.LBE1874:
	.loc 4 290 0
	stw 0,28(1)
	stw 29,12(1)
	stw 30,16(1)
	stw 31,20(1)
.LBB1875:
	.loc 4 293 0
	beq- 7,.L99
	.cfi_offset 31, -4
	.cfi_offset 30, -8
	.cfi_offset 29, -12
	.cfi_offset 65, 4
	.loc 4 297 0
	lwz 11,0(9)
	.loc 4 298 0
	li 3,0
	.loc 4 297 0
	lwz 0,0(4)
	cmpw 7,11,0
	beq- 7,.L112
.LVL101:
.L99:
.LBE1875:
	.loc 4 318 0
	lwz 0,28(1)
	lwz 29,12(1)
	mtlr 0
	lwz 30,16(1)
	lwz 31,20(1)
	addi 1,1,24
	.cfi_remember_state
.LCFI28:
	.cfi_def_cfa_offset 0
	.cfi_restore 31
	.cfi_restore 30
	.cfi_restore 29
	blr
.LVL102:
.L112:
.LCFI29:
	.cfi_restore_state
.LBB1876:
	.loc 4 297 0 discriminator 1
	lwz 11,40(9)
	lwz 0,40(4)
	cmpw 7,11,0
	bne+ 7,.L99
	.loc 4 2214 0
	lwz 29,44(9)
	.loc 4 301 0
	lwz 0,44(4)
	cmpw 7,29,0
	bne+ 7,.L99
	.loc 4 305 0
	cmpwi 7,29,0
	.loc 4 317 0
	li 3,1
	.loc 4 305 0
	ble- 7,.L99
	.loc 4 2214 0
	lwz 31,56(9)
.LVL103:
	lwz 30,56(4)
.LVL104:
	.loc 4 306 0
	lwz 3,0(31)
	lwz 4,0(30)
.LVL105:
	bl _ZNK9idTypeDef8InheritsEPKS_
.LVL106:
	cmpwi 7,3,0
	.loc 4 307 0
	li 3,0
	.loc 4 306 0
	beq- 7,.L99
.LVL107:
	.loc 4 311 0 discriminator 1
	cmpwi 7,29,1
	.loc 4 317 0 discriminator 1
	li 3,1
	.loc 4 311 0 discriminator 1
	ble- 7,.L99
.LVL108:
	.loc 4 312 0
	lwz 9,4(31)
	.loc 4 313 0
	li 3,0
	.loc 4 312 0
	lwz 0,4(30)
	cmpw 7,9,0
	bne- 7,.L99
	addi 29,29,-1
	li 9,1
	mtctr 29
	b .L101
.LVL109:
.L102:
	lwzx 11,31,0
	lwzx 0,30,0
	cmpw 7,11,0
	bne- 7,.L111
.LVL110:
.L101:
	.loc 4 311 0
	addi 9,9,1
.LVL111:
	.loc 4 290 0
	slwi 0,9,2
	.loc 4 311 0
	bdnz .L102
	.loc 4 317 0
	li 3,1
	b .L99
.LVL112:
.L111:
	.loc 4 313 0
	li 3,0
	b .L99
.LBE1876:
	.cfi_endproc
.LFE2835:
	.size	_ZNK9idTypeDef22MatchesVirtualFunctionERKS_, .-_ZNK9idTypeDef22MatchesVirtualFunctionERKS_
	.align 2
	.globl _ZN9idTypeDef15AddFunctionParmEPS_PKc
	.type	_ZN9idTypeDef15AddFunctionParmEPS_PKc, @function
_ZN9idTypeDef15AddFunctionParmEPS_PKc:
.LFB2836:
	.loc 4 327 0
	.cfi_startproc
.LVL113:
	mflr 0
	stwu 1,-48(1)
.LCFI30:
	.cfi_def_cfa_offset 48
	.cfi_register 65, 0
	mfcr 12
	stw 24,16(1)
	mr 24,5
	.cfi_offset 24, -32
	.cfi_register 70, 12
	stw 30,40(1)
	mr 30,4
	.cfi_offset 30, -8
	stw 31,44(1)
	mr 31,3
	.cfi_offset 31, -4
	stw 0,52(1)
	stw 23,12(1)
	stw 25,20(1)
	stw 26,24(1)
	stw 27,28(1)
	stw 28,32(1)
	stw 29,36(1)
	stw 12,8(1)
.LBB1933:
	.loc 4 328 0
	lwz 0,0(3)
	.cfi_offset 70, -40
	.cfi_offset 29, -12
	.cfi_offset 28, -16
	.cfi_offset 27, -20
	.cfi_offset 26, -24
	.cfi_offset 25, -28
	.cfi_offset 23, -36
	.cfi_offset 65, 4
	cmpwi 7,0,8
	bne- 7,.L180
.LBB1934:
.LBB1935:
	.loc 6 655 0
	lwz 29,56(3)
.LBE1935:
.LBE1934:
	.loc 4 332 0
	addi 28,3,44
.LVL114:
.LBB1977:
.LBB1968:
	.loc 6 655 0
	cmpwi 7,29,0
	beq- 7,.L115
	lwz 0,44(3)
	lwz 9,48(3)
.LVL115:
.L116:
.LBB1936:
	.loc 6 659 0
	cmpw 7,9,0
	beq- 7,.L163
.L177:
.LBB1937:
.LBB1938:
.LBB1939:
	.loc 6 399 0
	slwi 0,0,2
	add 29,29,0
.L123:
.LBE1939:
.LBE1938:
.LBE1937:
.LBE1936:
	.loc 6 669 0
	stw 30,0(29)
.LBE1968:
.LBE1977:
	.loc 4 333 0
	addi 25,31,60
.LVL116:
.LBB1978:
.LBB1979:
	.loc 6 633 0
	lwz 30,72(31)
.LVL117:
.LBE1979:
.LBE1978:
.LBB2043:
.LBB1969:
	.loc 6 670 0
	lwz 9,44(31)
.LBE1969:
.LBE2043:
.LBB2044:
.LBB2036:
	.loc 6 633 0
	cmpwi 7,30,0
.LBE2036:
.LBE2044:
.LBB2045:
.LBB1970:
	.loc 6 670 0
	addi 0,9,1
	stw 0,44(31)
.LBE1970:
.LBE2045:
.LBB2046:
.LBB2037:
	.loc 6 633 0
	beq- 7,.L132
	lwz 9,60(31)
	lwz 0,64(31)
.LVL118:
.L133:
	.loc 6 637 0
	cmpw 7,9,0
	beq- 7,.L181
.L178:
.LBB1980:
.LBB1981:
	.loc 6 380 0
	slwi 3,9,5
	addi 9,9,1
	add 3,30,3
.L143:
.LBE1981:
.LBE1980:
	.loc 6 641 0
	stw 9,60(31)
.LBE2037:
.LBE2046:
	.loc 4 334 0
	mr 4,24
	bl _ZN5idStraSEPKc
.LBE1933:
	.loc 4 335 0
	lwz 0,52(1)
	lwz 12,8(1)
	mtlr 0
	lwz 23,12(1)
	lwz 24,16(1)
.LVL119:
	mtcrf 8,12
	lwz 25,20(1)
.LVL120:
	lwz 26,24(1)
	lwz 27,28(1)
	lwz 28,32(1)
	lwz 29,36(1)
	lwz 30,40(1)
	lwz 31,44(1)
.LVL121:
	addi 1,1,48
	.cfi_remember_state
.LCFI31:
	.cfi_def_cfa_offset 0
	.cfi_restore 70
	.cfi_restore 31
	.cfi_restore 30
	.cfi_restore 29
	.cfi_restore 28
	.cfi_restore 27
	.cfi_restore 26
	.cfi_restore 25
	.cfi_restore 24
	.cfi_restore 23
	blr
.LVL122:
.L163:
.LCFI32:
	.cfi_restore_state
	lwz 0,52(31)
.LBB2058:
.LBB2047:
.LBB1971:
.LBB1955:
	.loc 6 659 0
	mr 10,9
.L118:
.LBB1952:
	.loc 6 662 0
	cmpwi 7,0,0
	beq- 7,.L182
.L124:
	.loc 6 665 0
	add 11,10,0
.LVL123:
	.loc 6 666 0
	divw 11,11,0
.LVL124:
.LBB1947:
.LBB1942:
	.loc 6 375 0
	mullw. 0,11,0
.LVL125:
	ble- 0,.L183
	.loc 6 380 0
	cmpw 7,0,10
	beq- 7,.L184
.LVL126:
	.loc 6 387 0
	cmpw 7,0,9
	.loc 6 386 0
	stw 0,48(31)
	.loc 6 387 0
	blt- 7,.L185
.L128:
	.loc 6 392 0
	slwi 3,0,2
	bl _Znaj
.LVL127:
	.loc 6 393 0
	lwz 0,44(31)
	.loc 6 392 0
	stw 3,56(31)
.LVL128:
	.loc 6 393 0
	cmpwi 7,0,0
	ble- 7,.L129
	.loc 4 327 0
	addi 11,29,-4
.LBE1942:
.LBE1947:
	.loc 6 393 0
	li 9,0
	b .L130
.LVL129:
.L186:
.LBB1948:
.LBB1943:
	lwz 3,56(31)
.LVL130:
.L130:
	.loc 6 394 0
	lwzu 10,4(11)
	slwi 0,9,2
	.loc 6 393 0
	addi 9,9,1
.LVL131:
	.loc 6 394 0
	stwx 10,3,0
	.loc 6 393 0
	lwz 0,0(28)
	cmpw 7,9,0
	blt+ 7,.L186
.LVL132:
.L129:
	.loc 6 398 0
	cmpwi 7,29,0
	beq- 7,.L187
	.loc 6 399 0
	mr 3,29
	bl _ZdaPv
	lwz 0,44(31)
	lwz 29,56(31)
.LVL133:
	b .L177
.LVL134:
.L182:
.LBE1943:
.LBE1948:
	.loc 6 663 0
	li 0,16
	stw 0,52(31)
	b .L124
.LVL135:
.L185:
.LBB1949:
.LBB1944:
	.loc 6 388 0
	stw 0,44(31)
	b .L128
.LVL136:
.L181:
	lwz 29,68(31)
.L135:
.LVL137:
.LBE1944:
.LBE1949:
.LBE1952:
.LBE1955:
.LBE1971:
.LBE2047:
.LBB2048:
.LBB2038:
.LBB2008:
.LBB2006:
	.loc 6 375 0
	add 28,9,29
	cmpwi 4,28,0
	ble- 4,.L188
	.loc 6 380 0
	cmpw 7,28,9
	beq- 7,.L178
.LVL138:
	.loc 6 386 0
	stw 28,64(31)
	.loc 6 387 0
	bge- 7,.L151
	.loc 6 388 0
	stw 28,60(31)
.L151:
	.loc 6 392 0
	slwi 3,28,5
	addi 3,3,4
	bl _Znaj
.LVL139:
	stw 28,0(3)
	addi 29,3,4
	beq- 4,.L152
.LBB1982:
.LBB1983:
.LBB1984:
	.loc 5 357 0
	mtctr 28
.LBE1984:
.LBE1983:
.LBE1982:
	.loc 6 392 0
	mr 9,29
.LBB1987:
.LBB1986:
.LBB1985:
	.loc 5 356 0
	li 0,0
	.loc 5 357 0
	li 10,20
.L153:
.LVL140:
	.loc 5 358 0
	addi 11,9,12
	.loc 5 356 0
	stw 0,0(9)
	.loc 5 357 0
	stw 10,8(9)
	.loc 5 358 0
	stw 11,4(9)
	.loc 5 359 0
	stb 0,12(9)
	addi 9,9,32
.LVL141:
.LBE1985:
.LBE1986:
.LBE1987:
	.loc 6 392 0
	bdnz .L153
.LVL142:
.L152:
	.loc 6 393 0
	lwz 0,60(31)
	.loc 6 392 0
	stw 29,72(31)
.LVL143:
	.loc 6 393 0
	cmpwi 7,0,0
	ble- 7,.L154
	li 28,0
.LVL144:
	li 26,0
.LBB1988:
.LBB1989:
	.loc 5 536 0
	li 23,0
	b .L156
.LVL145:
.L189:
.LBE1989:
.LBE1988:
	.loc 6 393 0
	lwz 29,72(31)
.LVL146:
.L156:
	.loc 6 394 0
	add 29,29,28
.LVL147:
.LBB1996:
	.loc 4 2214 0
	lwzx 27,30,28
.LBB1994:
.LBB1990:
.LBB1991:
	.loc 5 350 0
	lwz 0,8(29)
.LBE1991:
.LBE1990:
	.loc 5 534 0
	addi 4,27,1
.LVL148:
.LBB1993:
.LBB1992:
	.loc 5 350 0
	cmpw 7,4,0
	ble+ 7,.L155
	.loc 5 351 0
	mr 3,29
	li 5,0
	bl _ZN5idStr10ReAllocateEib
.LVL149:
.L155:
.LBE1992:
.LBE1993:
	.loc 4 327 0
	add 9,30,28
	.loc 5 535 0
	lwz 3,4(29)
	lwz 4,4(9)
	mr 5,27
.LBE1994:
.LBE1996:
	.loc 6 393 0
	addi 26,26,1
	addi 28,28,32
.LVL150:
.LBB1997:
.LBB1995:
	.loc 5 535 0
	bl memcpy
.LVL151:
	.loc 5 536 0
	lwz 9,4(29)
	stbx 23,9,27
	.loc 5 537 0
	stw 27,0(29)
.LBE1995:
.LBE1997:
	.loc 6 393 0
	lwz 0,0(25)
	cmpw 7,26,0
	blt+ 7,.L189
.LVL152:
.L154:
	.loc 6 398 0
	cmpwi 7,30,0
	beq- 7,.L179
	.loc 6 399 0
	lwz 29,-4(30)
	slwi 29,29,5
	add 29,30,29
	cmpw 7,30,29
	beq- 7,.L158
.L176:
	addi 29,29,-32
.LVL153:
.LBB1998:
.LBB1999:
.LBB2000:
	.loc 5 501 0
	mr 3,29
	bl _ZN5idStr8FreeDataEv
.LBE2000:
.LBE1999:
.LBE1998:
	.loc 6 399 0
	cmpw 7,30,29
	bne+ 7,.L176
.LVL154:
.L158:
	addi 3,30,-4
	bl _ZdaPv
.L179:
	lwz 9,60(31)
	lwz 3,72(31)
	slwi 0,9,5
	addi 9,9,1
	add 3,3,0
	b .L143
.LVL155:
.L184:
.LBE2006:
.LBE2008:
.LBE2038:
.LBE2048:
.LBB2049:
.LBB1972:
.LBB1956:
.LBB1953:
.LBB1950:
.LBB1945:
	.loc 6 380 0
	slwi 9,9,2
	add 29,29,9
	b .L123
.LVL156:
.L132:
.LBE1945:
.LBE1950:
.LBE1953:
.LBE1956:
.LBE1972:
.LBE2049:
.LBB2050:
.LBB2039:
	.loc 6 634 0
	lwz 29,68(31)
.LVL157:
.LBB2009:
.LBB2010:
	.loc 6 375 0
	cmpwi 4,29,0
.LBE2010:
.LBE2009:
	.loc 6 634 0
	mr 0,29
.LVL158:
.LBB2032:
.LBB2029:
	.loc 6 375 0
	ble- 4,.L190
	.loc 6 380 0
	lwz 9,64(31)
	cmpw 7,29,9
	beq- 7,.L191
.LVL159:
	.loc 6 387 0
	lwz 0,60(31)
	.loc 6 386 0
	stw 29,64(31)
	.loc 6 387 0
	cmpw 7,29,0
	bge- 7,.L137
	.loc 6 388 0
	stw 29,60(31)
.L137:
	.loc 6 392 0
	slwi 3,29,5
	addi 3,3,4
	bl _Znaj
.LVL160:
	stw 29,0(3)
	addi 30,3,4
	beq- 4,.L138
.LBB2011:
.LBB2012:
.LBB2013:
	.loc 5 357 0
	mtctr 29
.LBE2013:
.LBE2012:
.LBE2011:
	.loc 6 392 0
	mr 9,30
.LBB2016:
.LBB2015:
.LBB2014:
	.loc 5 356 0
	li 0,0
	.loc 5 357 0
	li 10,20
.L139:
.LVL161:
	.loc 5 358 0
	addi 11,9,12
	.loc 5 356 0
	stw 0,0(9)
	.loc 5 357 0
	stw 10,8(9)
	.loc 5 358 0
	stw 11,4(9)
	.loc 5 359 0
	stb 0,12(9)
	addi 9,9,32
.LVL162:
.LBE2014:
.LBE2015:
.LBE2016:
	.loc 6 392 0
	bdnz .L139
.LVL163:
.L138:
	.loc 6 393 0
	lwz 9,60(31)
	li 29,0
.LVL164:
	.loc 6 392 0
	stw 30,72(31)
.LVL165:
	.loc 6 393 0
	li 27,0
	cmpwi 7,9,0
.LBB2017:
.LBB2018:
	.loc 5 536 0
	li 26,0
.LBE2018:
.LBE2017:
	.loc 6 393 0
	bgt+ 7,.L171
	b .L198
.LVL166:
.L193:
	lwz 30,72(31)
.LVL167:
.L171:
	.loc 6 394 0
	add 30,30,29
.LVL168:
.LBB2025:
	.loc 4 2214 0
	lwz 28,0(29)
.LBB2023:
.LBB2019:
.LBB2020:
	.loc 5 350 0
	lwz 0,8(30)
.LBE2020:
.LBE2019:
	.loc 5 534 0
	addi 4,28,1
.LVL169:
.LBB2022:
.LBB2021:
	.loc 5 350 0
	cmpw 7,4,0
	ble+ 7,.L141
	.loc 5 351 0
	mr 3,30
	li 5,0
	bl _ZN5idStr10ReAllocateEib
.LVL170:
.L141:
.LBE2021:
.LBE2022:
	.loc 5 535 0
	lwz 4,4(29)
	mr 5,28
	lwz 3,4(30)
.LBE2023:
.LBE2025:
	.loc 6 393 0
	addi 27,27,1
	addi 29,29,32
.LVL171:
.LBB2026:
.LBB2024:
	.loc 5 535 0
	bl memcpy
.LVL172:
	.loc 5 536 0
	lwz 9,4(30)
	stbx 26,9,28
	.loc 5 537 0
	stw 28,0(30)
.LBE2024:
.LBE2026:
	.loc 6 393 0
	lwz 9,0(25)
	cmpw 7,27,9
	blt+ 7,.L193
	lwz 0,64(31)
	lwz 30,72(31)
.LVL173:
	b .L133
.LVL174:
.L115:
.LBE2029:
.LBE2032:
.LBE2039:
.LBE2050:
.LBB2051:
.LBB1973:
	.loc 6 656 0
	lwz 9,52(3)
.LBB1957:
.LBB1958:
	.loc 6 375 0
	cmpwi 7,9,0
.LBE1958:
.LBE1957:
	.loc 6 656 0
	mr 0,9
.LVL175:
.LBB1964:
.LBB1961:
	.loc 6 375 0
	ble- 7,.L194
	.loc 6 380 0
	lwz 11,48(3)
	cmpw 7,9,11
	beq- 7,.L195
.LVL176:
	.loc 6 387 0
	lwz 9,44(3)
	.loc 6 386 0
	stw 0,48(3)
	.loc 6 387 0
	cmpw 7,0,9
	bge- 7,.L120
	.loc 6 388 0
	stw 0,44(3)
.L120:
	.loc 6 392 0
	slwi 3,0,2
	bl _Znaj
.LVL177:
	.loc 6 393 0
	lwz 0,44(31)
	.loc 6 392 0
	mr 29,3
	stw 3,56(31)
.LVL178:
	.loc 6 393 0
	cmpwi 7,0,0
	li 9,0
	li 11,0
	bgt+ 7,.L170
	b .L199
.LVL179:
.L197:
	lwz 29,56(31)
.LVL180:
.L170:
	.loc 6 394 0
	lwz 0,0(9)
	.loc 6 393 0
	addi 11,11,1
.LVL181:
	.loc 6 394 0
	stwx 0,29,9
	.loc 6 393 0
	addi 9,9,4
	lwz 0,0(28)
	cmpw 7,11,0
	blt+ 7,.L197
	lwz 9,48(31)
	lwz 29,56(31)
	b .L116
.LVL182:
.L195:
	.loc 6 380 0
	lwz 0,44(3)
.LVL183:
	b .L116
.LVL184:
.L191:
.LBE1961:
.LBE1964:
.LBE1973:
.LBE2051:
.LBB2052:
.LBB2040:
.LBB2033:
.LBB2030:
	lwz 9,60(31)
	b .L133
.LVL185:
.L183:
.LBE2030:
.LBE2033:
.LBE2040:
.LBE2052:
.LBB2053:
.LBB1974:
.LBB1965:
.LBB1954:
.LBB1951:
.LBB1946:
.LBB1940:
.LBB1941:
	.loc 6 193 0
	cmpwi 7,29,0
	beq- 7,.L126
	.loc 6 194 0
	mr 3,29
	bl _ZdaPv
.LVL186:
.L126:
	.loc 6 197 0
	li 0,0
	.loc 6 199 0
	li 29,0
	.loc 6 197 0
	stw 0,56(31)
	.loc 6 198 0
	stw 0,44(31)
	.loc 6 199 0
	stw 0,48(31)
	b .L123
.LVL187:
.L187:
.LBE1941:
.LBE1940:
	.loc 6 398 0
	lwz 0,44(31)
	lwz 29,56(31)
.LVL188:
	slwi 0,0,2
	add 29,29,0
	b .L123
.LVL189:
.L188:
.LBE1946:
.LBE1951:
.LBE1954:
.LBE1965:
.LBE1974:
.LBE2053:
.LBB2054:
.LBB2041:
.LBB2034:
.LBB2007:
.LBB2001:
.LBB2002:
	.loc 6 193 0
	cmpwi 7,30,0
	beq- 7,.L145
	.loc 6 194 0
	lwz 29,-4(30)
	slwi 29,29,5
	add 29,30,29
	cmpw 7,30,29
	beq- 7,.L146
.L174:
	addi 29,29,-32
.LVL190:
.LBB2003:
.LBB2004:
.LBB2005:
	.loc 5 501 0
	mr 3,29
	bl _ZN5idStr8FreeDataEv
.LBE2005:
.LBE2004:
.LBE2003:
	.loc 6 194 0
	lwz 30,12(25)
	cmpw 7,30,29
	bne+ 7,.L174
.LVL191:
.L146:
	addi 3,30,-4
	bl _ZdaPv
.L145:
	.loc 6 197 0
	li 0,0
	.loc 6 199 0
	li 9,1
	.loc 6 197 0
	stw 0,72(31)
	.loc 6 199 0
	li 3,0
	stw 0,64(31)
	b .L143
.LVL192:
.L194:
.LBE2002:
.LBE2001:
.LBE2007:
.LBE2034:
.LBE2041:
.LBE2054:
.LBB2055:
.LBB1975:
.LBB1966:
.LBB1962:
.LBB1959:
.LBB1960:
	.loc 6 198 0
	stw 29,44(3)
	.loc 6 199 0
	li 9,0
	stw 29,48(3)
	li 10,0
	b .L118
.LVL193:
.L190:
.LBE1960:
.LBE1959:
.LBE1962:
.LBE1966:
.LBE1975:
.LBE2055:
.LBB2056:
.LBB2042:
.LBB2035:
.LBB2031:
.LBB2027:
.LBB2028:
	.loc 6 198 0
	stw 30,60(31)
	.loc 6 199 0
	li 9,0
	stw 30,64(31)
	b .L135
.LVL194:
.L198:
.LBE2028:
.LBE2027:
	.loc 6 393 0
	lwz 0,64(31)
	b .L133
.LVL195:
.L199:
.LBE2031:
.LBE2035:
.LBE2042:
.LBE2056:
.LBB2057:
.LBB1976:
.LBB1967:
.LBB1963:
	lwz 9,48(31)
	b .L116
.LVL196:
.L180:
.LBE1963:
.LBE1967:
.LBE1976:
.LBE2057:
	.loc 4 329 0
	li 3,1024
	bl __cxa_allocate_exception
	lis 4,.LC0@ha
	la 4,.LC0@l(4)
	mr 31,3
.LVL197:
	bl _ZN14idCompileErrorC1EPKc
	lis 4,_ZTI14idCompileError@ha
	mr 3,31
	la 4,_ZTI14idCompileError@l(4)
	li 5,0
	bl __cxa_throw
.LBE2058:
	.cfi_endproc
.LFE2836:
	.size	_ZN9idTypeDef15AddFunctionParmEPS_PKc, .-_ZN9idTypeDef15AddFunctionParmEPS_PKc
	.align 2
	.globl _ZN9idTypeDef7SetNameEPKc
	.type	_ZN9idTypeDef7SetNameEPKc, @function
_ZN9idTypeDef7SetNameEPKc:
.LFB2838:
	.loc 4 365 0
	.cfi_startproc
.LVL198:
	mflr 0
	stwu 1,-8(1)
.LCFI33:
	.cfi_def_cfa_offset 8
	.cfi_register 65, 0
	.loc 4 366 0
	addi 3,3,4
.LVL199:
	.loc 4 365 0
	stw 0,12(1)
	.loc 4 366 0
	.cfi_offset 65, 4
	bl _ZN5idStraSEPKc
.LVL200:
	.loc 4 367 0
	lwz 0,12(1)
	addi 1,1,8
.LCFI34:
	.cfi_def_cfa_offset 0
	mtlr 0
	blr
	.cfi_endproc
.LFE2838:
	.size	_ZN9idTypeDef7SetNameEPKc, .-_ZN9idTypeDef7SetNameEPKc
	.align 2
	.globl _ZNK9idTypeDef4NameEv
	.type	_ZNK9idTypeDef4NameEv, @function
_ZNK9idTypeDef4NameEv:
.LFB2839:
	.loc 4 374 0
	.cfi_startproc
.LVL201:
	.loc 4 376 0
	lwz 3,8(3)
.LVL202:
	blr
	.cfi_endproc
.LFE2839:
	.size	_ZNK9idTypeDef4NameEv, .-_ZNK9idTypeDef4NameEv
	.align 2
	.globl _ZNK9idTypeDef4TypeEv
	.type	_ZNK9idTypeDef4TypeEv, @function
_ZNK9idTypeDef4TypeEv:
.LFB2840:
	.loc 4 383 0
	.cfi_startproc
.LVL203:
	.loc 4 385 0
	lwz 3,0(3)
.LVL204:
	blr
	.cfi_endproc
.LFE2840:
	.size	_ZNK9idTypeDef4TypeEv, .-_ZNK9idTypeDef4TypeEv
	.align 2
	.globl _ZNK9idTypeDef4SizeEv
	.type	_ZNK9idTypeDef4SizeEv, @function
_ZNK9idTypeDef4SizeEv:
.LFB2841:
	.loc 4 392 0
	.cfi_startproc
.LVL205:
	.loc 4 394 0
	lwz 3,36(3)
.LVL206:
	blr
	.cfi_endproc
.LFE2841:
	.size	_ZNK9idTypeDef4SizeEv, .-_ZNK9idTypeDef4SizeEv
	.align 2
	.globl _ZNK9idTypeDef10SuperClassEv
	.type	_ZNK9idTypeDef10SuperClassEv, @function
_ZNK9idTypeDef10SuperClassEv:
.LFB2842:
	.loc 4 403 0
	.cfi_startproc
.LVL207:
	mflr 0
	stwu 1,-16(1)
.LCFI35:
	.cfi_def_cfa_offset 16
	.cfi_register 65, 0
	stw 31,12(1)
	stw 0,20(1)
	.loc 4 404 0
	lwz 0,0(3)
	.cfi_offset 65, 4
	.cfi_offset 31, -4
	cmpwi 7,0,11
	bne- 7,.L206
	.loc 4 409 0
	lwz 0,20(1)
	lwz 3,40(3)
.LVL208:
	mtlr 0
	lwz 31,12(1)
	addi 1,1,16
	.cfi_remember_state
.LCFI36:
	.cfi_def_cfa_offset 0
	.cfi_restore 31
	blr
.LVL209:
.L206:
.LCFI37:
	.cfi_restore_state
.LBB2061:
.LBB2062:
	.loc 4 405 0
	li 3,1024
.LVL210:
	bl __cxa_allocate_exception
	lis 4,.LC1@ha
	la 4,.LC1@l(4)
	mr 31,3
	bl _ZN14idCompileErrorC1EPKc
	lis 4,_ZTI14idCompileError@ha
	mr 3,31
	la 4,_ZTI14idCompileError@l(4)
	li 5,0
	bl __cxa_throw
.LBE2062:
.LBE2061:
	.cfi_endproc
.LFE2842:
	.size	_ZNK9idTypeDef10SuperClassEv, .-_ZNK9idTypeDef10SuperClassEv
	.align 2
	.globl _ZNK9idTypeDef10ReturnTypeEv
	.type	_ZNK9idTypeDef10ReturnTypeEv, @function
_ZNK9idTypeDef10ReturnTypeEv:
.LFB2843:
	.loc 4 418 0
	.cfi_startproc
.LVL211:
	mflr 0
	stwu 1,-16(1)
.LCFI38:
	.cfi_def_cfa_offset 16
	.cfi_register 65, 0
	stw 31,12(1)
	stw 0,20(1)
	.loc 4 419 0
	lwz 0,0(3)
	.cfi_offset 65, 4
	.cfi_offset 31, -4
	cmpwi 7,0,8
	bne- 7,.L209
	.loc 4 424 0
	lwz 0,20(1)
	lwz 3,40(3)
.LVL212:
	mtlr 0
	lwz 31,12(1)
	addi 1,1,16
	.cfi_remember_state
.LCFI39:
	.cfi_def_cfa_offset 0
	.cfi_restore 31
	blr
.LVL213:
.L209:
.LCFI40:
	.cfi_restore_state
	.loc 4 420 0
	li 3,1024
.LVL214:
	bl __cxa_allocate_exception
	lis 4,.LC2@ha
	la 4,.LC2@l(4)
	mr 31,3
	bl _ZN14idCompileErrorC1EPKc
	lis 4,_ZTI14idCompileError@ha
	mr 3,31
	la 4,_ZTI14idCompileError@l(4)
	li 5,0
	bl __cxa_throw
	.cfi_endproc
.LFE2843:
	.size	_ZNK9idTypeDef10ReturnTypeEv, .-_ZNK9idTypeDef10ReturnTypeEv
	.align 2
	.globl _ZN9idTypeDef13SetReturnTypeEPS_
	.type	_ZN9idTypeDef13SetReturnTypeEPS_, @function
_ZN9idTypeDef13SetReturnTypeEPS_:
.LFB2844:
	.loc 4 433 0
	.cfi_startproc
.LVL215:
	mflr 0
	stwu 1,-16(1)
.LCFI41:
	.cfi_def_cfa_offset 16
	.cfi_register 65, 0
	stw 31,12(1)
	stw 0,20(1)
	.loc 4 434 0
	lwz 0,0(3)
	.cfi_offset 65, 4
	.cfi_offset 31, -4
	cmpwi 7,0,8
	bne- 7,.L212
	.loc 4 438 0
	stw 4,40(3)
	.loc 4 439 0
	lwz 0,20(1)
	lwz 31,12(1)
	mtlr 0
	addi 1,1,16
	.cfi_remember_state
.LCFI42:
	.cfi_def_cfa_offset 0
	.cfi_restore 31
	blr
.L212:
.LCFI43:
	.cfi_restore_state
	.loc 4 435 0
	li 3,1024
.LVL216:
	bl __cxa_allocate_exception
.LVL217:
	lis 4,.LC3@ha
	la 4,.LC3@l(4)
	mr 31,3
	bl _ZN14idCompileErrorC1EPKc
	lis 4,_ZTI14idCompileError@ha
	mr 3,31
	la 4,_ZTI14idCompileError@l(4)
	li 5,0
	bl __cxa_throw
	.cfi_endproc
.LFE2844:
	.size	_ZN9idTypeDef13SetReturnTypeEPS_, .-_ZN9idTypeDef13SetReturnTypeEPS_
	.align 2
	.globl _ZNK9idTypeDef9FieldTypeEv
	.type	_ZNK9idTypeDef9FieldTypeEv, @function
_ZNK9idTypeDef9FieldTypeEv:
.LFB2845:
	.loc 4 448 0
	.cfi_startproc
.LVL218:
	mflr 0
	stwu 1,-16(1)
.LCFI44:
	.cfi_def_cfa_offset 16
	.cfi_register 65, 0
	stw 31,12(1)
	stw 0,20(1)
	.loc 4 449 0
	lwz 0,0(3)
	.cfi_offset 65, 4
	.cfi_offset 31, -4
	cmpwi 7,0,7
	bne- 7,.L215
	.loc 4 454 0
	lwz 0,20(1)
	lwz 3,40(3)
.LVL219:
	mtlr 0
	lwz 31,12(1)
	addi 1,1,16
	.cfi_remember_state
.LCFI45:
	.cfi_def_cfa_offset 0
	.cfi_restore 31
	blr
.LVL220:
.L215:
.LCFI46:
	.cfi_restore_state
.LBB2065:
.LBB2066:
	.loc 4 450 0
	li 3,1024
.LVL221:
	bl __cxa_allocate_exception
	lis 4,.LC4@ha
	la 4,.LC4@l(4)
	mr 31,3
	bl _ZN14idCompileErrorC1EPKc
	lis 4,_ZTI14idCompileError@ha
	mr 3,31
	la 4,_ZTI14idCompileError@l(4)
	li 5,0
	bl __cxa_throw
.LBE2066:
.LBE2065:
	.cfi_endproc
.LFE2845:
	.size	_ZNK9idTypeDef9FieldTypeEv, .-_ZNK9idTypeDef9FieldTypeEv
	.align 2
	.globl _ZN9idTypeDef8AddFieldEPS_PKc
	.type	_ZN9idTypeDef8AddFieldEPS_PKc, @function
_ZN9idTypeDef8AddFieldEPS_PKc:
.LFB2837:
	.loc 4 344 0
	.cfi_startproc
.LVL222:
	mflr 0
	stwu 1,-56(1)
.LCFI47:
	.cfi_def_cfa_offset 56
	.cfi_register 65, 0
	mfcr 12
	stw 23,20(1)
	mr 23,5
	.cfi_offset 23, -36
	.cfi_register 70, 12
	stw 25,28(1)
	mr 25,4
	.cfi_offset 25, -28
	stw 31,52(1)
	mr 31,3
	.cfi_offset 31, -4
	stw 0,60(1)
	stw 22,16(1)
	stw 24,24(1)
	stw 26,32(1)
	stw 27,36(1)
	stw 28,40(1)
	stw 29,44(1)
	stw 30,48(1)
	stw 12,12(1)
.LBB2127:
	.loc 4 345 0
	lwz 0,0(3)
	.cfi_offset 70, -44
	.cfi_offset 30, -8
	.cfi_offset 29, -12
	.cfi_offset 28, -16
	.cfi_offset 27, -20
	.cfi_offset 26, -24
	.cfi_offset 24, -32
	.cfi_offset 22, -40
	.cfi_offset 65, 4
	cmpwi 7,0,11
	bne- 7,.L285
.LBB2128:
.LBB2129:
	.loc 6 655 0
	lwz 30,56(3)
.LBE2129:
.LBE2128:
	.loc 4 349 0
	addi 29,3,44
.LVL223:
.LBB2171:
.LBB2162:
	.loc 6 655 0
	cmpwi 7,30,0
	beq- 7,.L218
	lwz 0,44(3)
	lwz 9,48(3)
.LVL224:
.L219:
.LBB2130:
	.loc 6 659 0
	cmpw 7,9,0
	beq- 7,.L268
.L282:
.LBB2131:
.LBB2132:
.LBB2133:
	.loc 6 399 0
	slwi 0,0,2
	add 30,30,0
.L226:
.LBE2133:
.LBE2132:
.LBE2131:
.LBE2130:
	.loc 6 669 0
	stw 25,0(30)
.LBE2162:
.LBE2171:
	.loc 4 350 0
	addi 24,31,60
.LVL225:
.LBB2172:
.LBB2173:
	.loc 6 633 0
	lwz 30,72(31)
.LBE2173:
.LBE2172:
.LBB2237:
.LBB2163:
	.loc 6 670 0
	lwz 9,44(31)
.LBE2163:
.LBE2237:
.LBB2238:
.LBB2230:
	.loc 6 633 0
	cmpwi 7,30,0
.LBE2230:
.LBE2238:
.LBB2239:
.LBB2164:
	.loc 6 670 0
	addi 0,9,1
	stw 0,44(31)
.LBE2164:
.LBE2239:
.LBB2240:
.LBB2231:
	.loc 6 633 0
	beq- 7,.L235
	lwz 9,60(31)
	lwz 0,64(31)
.LVL226:
.L236:
	.loc 6 637 0
	cmpw 7,9,0
	beq- 7,.L286
.L283:
.LBB2174:
.LBB2175:
	.loc 6 380 0
	slwi 3,9,5
	addi 9,9,1
	add 3,30,3
.L246:
.LBE2175:
.LBE2174:
	.loc 6 641 0
	stw 9,60(31)
.LBE2231:
.LBE2240:
	.loc 4 351 0
	mr 4,23
	.loc 4 353 0
	lis 30,.LANCHOR0@ha
	.loc 4 351 0
	bl _ZN5idStraSEPKc
	.loc 4 353 0
	la 30,.LANCHOR0@l(30)
	mr 3,25
	bl _ZNK9idTypeDef9FieldTypeEv
	mr 4,30
	bl _ZNK9idTypeDef8InheritsEPKS_
	cmpwi 7,3,0
	beq- 7,.L265
.LVL227:
	.loc 4 354 0
	lwz 9,36(31)
	lwz 0,36(30)
	add 0,9,0
	stw 0,36(31)
.LBE2127:
	.loc 4 358 0
	lwz 0,60(1)
	lwz 12,12(1)
	mtlr 0
	lwz 22,16(1)
	lwz 23,20(1)
.LVL228:
	mtcrf 8,12
	lwz 24,24(1)
.LVL229:
	lwz 25,28(1)
.LVL230:
	lwz 26,32(1)
	lwz 27,36(1)
	lwz 28,40(1)
	lwz 29,44(1)
	lwz 30,48(1)
	lwz 31,52(1)
.LVL231:
	addi 1,1,56
	.cfi_remember_state
.LCFI48:
	.cfi_def_cfa_offset 0
	.cfi_restore 70
	.cfi_restore 31
	.cfi_restore 30
	.cfi_restore 29
	.cfi_restore 28
	.cfi_restore 27
	.cfi_restore 26
	.cfi_restore 25
	.cfi_restore 24
	.cfi_restore 23
	.cfi_restore 22
	blr
.LVL232:
.L265:
.LCFI49:
	.cfi_restore_state
.LBB2252:
	.loc 4 356 0
	mr 3,25
	lwz 30,36(31)
	bl _ZNK9idTypeDef9FieldTypeEv
.LVL233:
	lwz 0,36(3)
	add 30,30,0
	stw 30,36(31)
.LBE2252:
	.loc 4 358 0
	lwz 0,60(1)
	lwz 12,12(1)
	mtlr 0
	lwz 22,16(1)
	lwz 23,20(1)
.LVL234:
	mtcrf 8,12
	lwz 24,24(1)
.LVL235:
	lwz 25,28(1)
.LVL236:
	lwz 26,32(1)
	lwz 27,36(1)
	lwz 28,40(1)
	lwz 29,44(1)
	lwz 30,48(1)
	lwz 31,52(1)
.LVL237:
	addi 1,1,56
	.cfi_remember_state
	.cfi_restore 22
	.cfi_restore 23
	.cfi_restore 24
	.cfi_restore 25
	.cfi_restore 26
	.cfi_restore 27
	.cfi_restore 28
	.cfi_restore 29
	.cfi_restore 30
	.cfi_restore 31
	.cfi_restore 70
.LCFI50:
	.cfi_def_cfa_offset 0
	blr
.LVL238:
.L268:
.LCFI51:
	.cfi_restore_state
	lwz 0,52(31)
.LBB2253:
.LBB2241:
.LBB2165:
.LBB2149:
	.loc 6 659 0
	mr 10,9
.L221:
.LBB2146:
	.loc 6 662 0
	cmpwi 7,0,0
	beq- 7,.L287
.L227:
	.loc 6 665 0
	add 11,10,0
.LVL239:
	.loc 6 666 0
	divw 11,11,0
.LVL240:
.LBB2141:
.LBB2136:
	.loc 6 375 0
	mullw. 0,11,0
.LVL241:
	ble- 0,.L288
	.loc 6 380 0
	cmpw 7,0,10
	beq- 7,.L289
.LVL242:
	.loc 6 387 0
	cmpw 7,0,9
	.loc 6 386 0
	stw 0,48(31)
	.loc 6 387 0
	blt- 7,.L290
.L231:
	.loc 6 392 0
	slwi 3,0,2
	bl _Znaj
.LVL243:
	.loc 6 393 0
	lwz 0,44(31)
	.loc 6 392 0
	stw 3,56(31)
.LVL244:
	.loc 6 393 0
	cmpwi 7,0,0
	ble- 7,.L232
	.loc 4 344 0
	addi 11,30,-4
.LBE2136:
.LBE2141:
	.loc 6 393 0
	li 9,0
	b .L233
.LVL245:
.L291:
.LBB2142:
.LBB2137:
	lwz 3,56(31)
.LVL246:
.L233:
	.loc 6 394 0
	lwzu 10,4(11)
	slwi 0,9,2
	.loc 6 393 0
	addi 9,9,1
.LVL247:
	.loc 6 394 0
	stwx 10,3,0
	.loc 6 393 0
	lwz 0,0(29)
	cmpw 7,9,0
	blt+ 7,.L291
.LVL248:
.L232:
	.loc 6 398 0
	cmpwi 7,30,0
	beq- 7,.L292
	.loc 6 399 0
	mr 3,30
	bl _ZdaPv
	lwz 0,44(31)
	lwz 30,56(31)
.LVL249:
	b .L282
.LVL250:
.L287:
.LBE2137:
.LBE2142:
	.loc 6 663 0
	li 0,16
	stw 0,52(31)
	b .L227
.LVL251:
.L290:
.LBB2143:
.LBB2138:
	.loc 6 388 0
	stw 0,44(31)
	b .L231
.LVL252:
.L286:
	lwz 28,68(31)
.L238:
.LVL253:
.LBE2138:
.LBE2143:
.LBE2146:
.LBE2149:
.LBE2165:
.LBE2241:
.LBB2242:
.LBB2232:
.LBB2202:
.LBB2200:
	.loc 6 375 0
	add 28,9,28
.LVL254:
	cmpwi 4,28,0
	ble- 4,.L293
	.loc 6 380 0
	cmpw 7,9,28
	beq- 7,.L283
.LVL255:
	.loc 6 387 0
	cmpw 7,28,9
	.loc 6 386 0
	stw 28,64(31)
	.loc 6 387 0
	bge- 7,.L254
	.loc 6 388 0
	stw 28,60(31)
.L254:
	.loc 6 392 0
	slwi 3,28,5
	addi 3,3,4
	bl _Znaj
	stw 28,0(3)
	addi 29,3,4
	beq- 4,.L255
.LBB2176:
.LBB2177:
.LBB2178:
	.loc 5 357 0
	mtctr 28
.LBE2178:
.LBE2177:
.LBE2176:
	.loc 6 392 0
	mr 9,29
.LBB2181:
.LBB2180:
.LBB2179:
	.loc 5 356 0
	li 0,0
	.loc 5 357 0
	li 10,20
.L256:
.LVL256:
	.loc 5 358 0
	addi 11,9,12
	.loc 5 356 0
	stw 0,0(9)
	.loc 5 357 0
	stw 10,8(9)
	.loc 5 358 0
	stw 11,4(9)
	.loc 5 359 0
	stb 0,12(9)
	addi 9,9,32
.LVL257:
.LBE2179:
.LBE2180:
.LBE2181:
	.loc 6 392 0
	bdnz .L256
.LVL258:
.L255:
	.loc 6 393 0
	lwz 0,60(31)
	.loc 6 392 0
	stw 29,72(31)
.LVL259:
	.loc 6 393 0
	cmpwi 7,0,0
	ble- 7,.L257
	li 28,0
.LVL260:
	li 26,0
.LBB2182:
.LBB2183:
	.loc 5 536 0
	li 22,0
	b .L259
.LVL261:
.L294:
.LBE2183:
.LBE2182:
	.loc 6 393 0
	lwz 29,72(31)
.LVL262:
.L259:
	.loc 6 394 0
	add 29,29,28
.LVL263:
.LBB2190:
	.loc 4 2214 0
	lwzx 27,30,28
.LBB2188:
.LBB2184:
.LBB2185:
	.loc 5 350 0
	lwz 0,8(29)
.LBE2185:
.LBE2184:
	.loc 5 534 0
	addi 4,27,1
.LVL264:
.LBB2187:
.LBB2186:
	.loc 5 350 0
	cmpw 7,4,0
	ble+ 7,.L258
	.loc 5 351 0
	mr 3,29
	li 5,0
	bl _ZN5idStr10ReAllocateEib
.LVL265:
.L258:
.LBE2186:
.LBE2187:
	.loc 4 344 0
	add 9,30,28
	.loc 5 535 0
	lwz 3,4(29)
	lwz 4,4(9)
	mr 5,27
.LBE2188:
.LBE2190:
	.loc 6 393 0
	addi 26,26,1
	addi 28,28,32
.LVL266:
.LBB2191:
.LBB2189:
	.loc 5 535 0
	bl memcpy
.LVL267:
	.loc 5 536 0
	lwz 9,4(29)
	stbx 22,9,27
	.loc 5 537 0
	stw 27,0(29)
.LBE2189:
.LBE2191:
	.loc 6 393 0
	lwz 0,0(24)
	cmpw 7,26,0
	blt+ 7,.L294
.LVL268:
.L257:
	.loc 6 398 0
	cmpwi 7,30,0
	beq- 7,.L284
	.loc 6 399 0
	lwz 29,-4(30)
	slwi 29,29,5
	add 29,30,29
	cmpw 7,30,29
	beq- 7,.L261
.L281:
	addi 29,29,-32
.LVL269:
.LBB2192:
.LBB2193:
.LBB2194:
	.loc 5 501 0
	mr 3,29
	bl _ZN5idStr8FreeDataEv
.LBE2194:
.LBE2193:
.LBE2192:
	.loc 6 399 0
	cmpw 7,30,29
	bne+ 7,.L281
.LVL270:
.L261:
	addi 3,30,-4
	bl _ZdaPv
.L284:
	lwz 9,60(31)
	lwz 3,72(31)
	slwi 0,9,5
	addi 9,9,1
	add 3,3,0
	b .L246
.LVL271:
.L289:
.LBE2200:
.LBE2202:
.LBE2232:
.LBE2242:
.LBB2243:
.LBB2166:
.LBB2150:
.LBB2147:
.LBB2144:
.LBB2139:
	.loc 6 380 0
	slwi 9,9,2
	add 30,30,9
	b .L226
.LVL272:
.L235:
.LBE2139:
.LBE2144:
.LBE2147:
.LBE2150:
.LBE2166:
.LBE2243:
.LBB2244:
.LBB2233:
	.loc 6 634 0
	lwz 28,68(31)
.LBB2203:
.LBB2204:
	.loc 6 375 0
	cmpwi 4,28,0
.LBE2204:
.LBE2203:
	.loc 6 634 0
	mr 0,28
.LVL273:
.LBB2226:
.LBB2223:
	.loc 6 375 0
	ble- 4,.L295
	.loc 6 380 0
	lwz 9,64(31)
	cmpw 7,28,9
	beq- 7,.L296
.LVL274:
	.loc 6 387 0
	lwz 0,60(31)
	.loc 6 386 0
	stw 28,64(31)
	.loc 6 387 0
	cmpw 7,28,0
	bge- 7,.L240
	.loc 6 388 0
	stw 28,60(31)
.L240:
	.loc 6 392 0
	slwi 3,28,5
	addi 3,3,4
	bl _Znaj
.LVL275:
	stw 28,0(3)
	addi 30,3,4
	beq- 4,.L241
.LBB2205:
.LBB2206:
.LBB2207:
	.loc 5 357 0
	mtctr 28
.LBE2207:
.LBE2206:
.LBE2205:
	.loc 6 392 0
	mr 9,30
.LBB2210:
.LBB2209:
.LBB2208:
	.loc 5 356 0
	li 0,0
	.loc 5 357 0
	li 10,20
.L242:
.LVL276:
	.loc 5 358 0
	addi 11,9,12
	.loc 5 356 0
	stw 0,0(9)
	.loc 5 357 0
	stw 10,8(9)
	.loc 5 358 0
	stw 11,4(9)
	.loc 5 359 0
	stb 0,12(9)
	addi 9,9,32
.LVL277:
.LBE2208:
.LBE2209:
.LBE2210:
	.loc 6 392 0
	bdnz .L242
.LVL278:
.L241:
	.loc 6 393 0
	lwz 9,60(31)
	li 29,0
.LVL279:
	.loc 6 392 0
	stw 30,72(31)
.LVL280:
	.loc 6 393 0
	li 27,0
	cmpwi 7,9,0
.LBB2211:
.LBB2212:
	.loc 5 536 0
	li 26,0
.LBE2212:
.LBE2211:
	.loc 6 393 0
	bgt+ 7,.L276
	b .L303
.LVL281:
.L298:
	lwz 30,72(31)
.LVL282:
.L276:
	.loc 6 394 0
	add 30,30,29
.LVL283:
.LBB2219:
	.loc 4 2214 0
	lwz 28,0(29)
.LBB2217:
.LBB2213:
.LBB2214:
	.loc 5 350 0
	lwz 0,8(30)
.LBE2214:
.LBE2213:
	.loc 5 534 0
	addi 4,28,1
.LVL284:
.LBB2216:
.LBB2215:
	.loc 5 350 0
	cmpw 7,4,0
	ble+ 7,.L244
	.loc 5 351 0
	mr 3,30
	li 5,0
	bl _ZN5idStr10ReAllocateEib
.LVL285:
.L244:
.LBE2215:
.LBE2216:
	.loc 5 535 0
	lwz 4,4(29)
	mr 5,28
	lwz 3,4(30)
.LBE2217:
.LBE2219:
	.loc 6 393 0
	addi 27,27,1
	addi 29,29,32
.LVL286:
.LBB2220:
.LBB2218:
	.loc 5 535 0
	bl memcpy
.LVL287:
	.loc 5 536 0
	lwz 9,4(30)
	stbx 26,9,28
	.loc 5 537 0
	stw 28,0(30)
.LBE2218:
.LBE2220:
	.loc 6 393 0
	lwz 9,0(24)
	cmpw 7,27,9
	blt+ 7,.L298
	lwz 0,64(31)
	lwz 30,72(31)
.LVL288:
	b .L236
.LVL289:
.L218:
.LBE2223:
.LBE2226:
.LBE2233:
.LBE2244:
.LBB2245:
.LBB2167:
	.loc 6 656 0
	lwz 9,52(3)
.LBB2151:
.LBB2152:
	.loc 6 375 0
	cmpwi 7,9,0
.LBE2152:
.LBE2151:
	.loc 6 656 0
	mr 0,9
.LVL290:
.LBB2158:
.LBB2155:
	.loc 6 375 0
	ble- 7,.L299
	.loc 6 380 0
	lwz 11,48(3)
	cmpw 7,9,11
	beq- 7,.L300
.LVL291:
	.loc 6 387 0
	lwz 9,44(3)
	.loc 6 386 0
	stw 0,48(3)
	.loc 6 387 0
	cmpw 7,0,9
	bge- 7,.L223
	.loc 6 388 0
	stw 0,44(3)
.L223:
	.loc 6 392 0
	slwi 3,0,2
	bl _Znaj
.LVL292:
	.loc 6 393 0
	lwz 0,44(31)
	.loc 6 392 0
	mr 30,3
	stw 3,56(31)
.LVL293:
	.loc 6 393 0
	cmpwi 7,0,0
	li 9,0
	li 11,0
	bgt+ 7,.L275
	b .L304
.LVL294:
.L302:
	lwz 30,56(31)
.LVL295:
.L275:
	.loc 6 394 0
	lwz 0,0(9)
	.loc 6 393 0
	addi 11,11,1
.LVL296:
	.loc 6 394 0
	stwx 0,30,9
	.loc 6 393 0
	addi 9,9,4
	lwz 0,0(29)
	cmpw 7,11,0
	blt+ 7,.L302
	lwz 9,48(31)
	lwz 30,56(31)
	b .L219
.LVL297:
.L300:
	.loc 6 380 0
	lwz 0,44(3)
.LVL298:
	b .L219
.LVL299:
.L296:
.LBE2155:
.LBE2158:
.LBE2167:
.LBE2245:
.LBB2246:
.LBB2234:
.LBB2227:
.LBB2224:
	lwz 9,60(31)
	b .L236
.LVL300:
.L288:
.LBE2224:
.LBE2227:
.LBE2234:
.LBE2246:
.LBB2247:
.LBB2168:
.LBB2159:
.LBB2148:
.LBB2145:
.LBB2140:
.LBB2134:
.LBB2135:
	.loc 6 193 0
	cmpwi 7,30,0
	beq- 7,.L229
	.loc 6 194 0
	mr 3,30
	bl _ZdaPv
.LVL301:
.L229:
	.loc 6 197 0
	li 0,0
	.loc 6 199 0
	li 30,0
	.loc 6 197 0
	stw 0,56(31)
	.loc 6 198 0
	stw 0,44(31)
	.loc 6 199 0
	stw 0,48(31)
	b .L226
.LVL302:
.L292:
.LBE2135:
.LBE2134:
	.loc 6 398 0
	lwz 0,44(31)
	lwz 30,56(31)
.LVL303:
	slwi 0,0,2
	add 30,30,0
	b .L226
.LVL304:
.L293:
.LBE2140:
.LBE2145:
.LBE2148:
.LBE2159:
.LBE2168:
.LBE2247:
.LBB2248:
.LBB2235:
.LBB2228:
.LBB2201:
.LBB2195:
.LBB2196:
	.loc 6 193 0
	cmpwi 7,30,0
	beq- 7,.L248
	.loc 6 194 0
	lwz 29,-4(30)
	slwi 29,29,5
	add 29,30,29
	cmpw 7,30,29
	beq- 7,.L249
.L279:
	addi 29,29,-32
.LVL305:
.LBB2197:
.LBB2198:
.LBB2199:
	.loc 5 501 0
	mr 3,29
	bl _ZN5idStr8FreeDataEv
.LBE2199:
.LBE2198:
.LBE2197:
	.loc 6 194 0
	lwz 30,12(24)
	cmpw 7,30,29
	bne+ 7,.L279
.LVL306:
.L249:
	addi 3,30,-4
	bl _ZdaPv
.L248:
	.loc 6 197 0
	li 0,0
	.loc 6 199 0
	li 9,1
	.loc 6 197 0
	stw 0,72(31)
	.loc 6 199 0
	li 3,0
	stw 0,64(31)
	b .L246
.LVL307:
.L299:
.LBE2196:
.LBE2195:
.LBE2201:
.LBE2228:
.LBE2235:
.LBE2248:
.LBB2249:
.LBB2169:
.LBB2160:
.LBB2156:
.LBB2153:
.LBB2154:
	.loc 6 198 0
	stw 30,44(3)
	.loc 6 199 0
	li 9,0
	stw 30,48(3)
	li 10,0
	b .L221
.LVL308:
.L295:
.LBE2154:
.LBE2153:
.LBE2156:
.LBE2160:
.LBE2169:
.LBE2249:
.LBB2250:
.LBB2236:
.LBB2229:
.LBB2225:
.LBB2221:
.LBB2222:
	.loc 6 198 0
	stw 30,60(31)
	.loc 6 199 0
	li 9,0
	stw 30,64(31)
	b .L238
.LVL309:
.L303:
.LBE2222:
.LBE2221:
	.loc 6 393 0
	lwz 0,64(31)
	b .L236
.LVL310:
.L304:
.LBE2225:
.LBE2229:
.LBE2236:
.LBE2250:
.LBB2251:
.LBB2170:
.LBB2161:
.LBB2157:
	lwz 9,48(31)
	b .L219
.LVL311:
.L285:
.LBE2157:
.LBE2161:
.LBE2170:
.LBE2251:
	.loc 4 346 0
	li 3,1024
	bl __cxa_allocate_exception
	lis 4,.LC5@ha
	la 4,.LC5@l(4)
	mr 31,3
.LVL312:
	bl _ZN14idCompileErrorC1EPKc
	lis 4,_ZTI14idCompileError@ha
	mr 3,31
	la 4,_ZTI14idCompileError@l(4)
	li 5,0
	bl __cxa_throw
.LBE2253:
	.cfi_endproc
.LFE2837:
	.size	_ZN9idTypeDef8AddFieldEPS_PKc, .-_ZN9idTypeDef8AddFieldEPS_PKc
	.align 2
	.globl _ZN9idTypeDef12SetFieldTypeEPS_
	.type	_ZN9idTypeDef12SetFieldTypeEPS_, @function
_ZN9idTypeDef12SetFieldTypeEPS_:
.LFB2846:
	.loc 4 463 0
	.cfi_startproc
.LVL313:
	mflr 0
	stwu 1,-16(1)
.LCFI52:
	.cfi_def_cfa_offset 16
	.cfi_register 65, 0
	stw 31,12(1)
	stw 0,20(1)
	.loc 4 464 0
	lwz 0,0(3)
	.cfi_offset 65, 4
	.cfi_offset 31, -4
	cmpwi 7,0,7
	bne- 7,.L307
	.loc 4 468 0
	stw 4,40(3)
	.loc 4 469 0
	lwz 0,20(1)
	lwz 31,12(1)
	mtlr 0
	addi 1,1,16
	.cfi_remember_state
.LCFI53:
	.cfi_def_cfa_offset 0
	.cfi_restore 31
	blr
.L307:
.LCFI54:
	.cfi_restore_state
	.loc 4 465 0
	li 3,1024
.LVL314:
	bl __cxa_allocate_exception
.LVL315:
	lis 4,.LC6@ha
	la 4,.LC6@l(4)
	mr 31,3
	bl _ZN14idCompileErrorC1EPKc
	lis 4,_ZTI14idCompileError@ha
	mr 3,31
	la 4,_ZTI14idCompileError@l(4)
	li 5,0
	bl __cxa_throw
	.cfi_endproc
.LFE2846:
	.size	_ZN9idTypeDef12SetFieldTypeEPS_, .-_ZN9idTypeDef12SetFieldTypeEPS_
	.align 2
	.globl _ZNK9idTypeDef11PointerTypeEv
	.type	_ZNK9idTypeDef11PointerTypeEv, @function
_ZNK9idTypeDef11PointerTypeEv:
.LFB2847:
	.loc 4 478 0
	.cfi_startproc
.LVL316:
	mflr 0
	stwu 1,-16(1)
.LCFI55:
	.cfi_def_cfa_offset 16
	.cfi_register 65, 0
	stw 31,12(1)
	stw 0,20(1)
	.loc 4 479 0
	lwz 0,0(3)
	.cfi_offset 65, 4
	.cfi_offset 31, -4
	cmpwi 7,0,10
	bne- 7,.L310
	.loc 4 484 0
	lwz 0,20(1)
	lwz 3,40(3)
.LVL317:
	mtlr 0
	lwz 31,12(1)
	addi 1,1,16
	.cfi_remember_state
.LCFI56:
	.cfi_def_cfa_offset 0
	.cfi_restore 31
	blr
.LVL318:
.L310:
.LCFI57:
	.cfi_restore_state
	.loc 4 480 0
	li 3,1024
.LVL319:
	bl __cxa_allocate_exception
	lis 4,.LC7@ha
	la 4,.LC7@l(4)
	mr 31,3
	bl _ZN14idCompileErrorC1EPKc
	lis 4,_ZTI14idCompileError@ha
	mr 3,31
	la 4,_ZTI14idCompileError@l(4)
	li 5,0
	bl __cxa_throw
	.cfi_endproc
.LFE2847:
	.size	_ZNK9idTypeDef11PointerTypeEv, .-_ZNK9idTypeDef11PointerTypeEv
	.align 2
	.globl _ZN9idTypeDef14SetPointerTypeEPS_
	.type	_ZN9idTypeDef14SetPointerTypeEPS_, @function
_ZN9idTypeDef14SetPointerTypeEPS_:
.LFB2848:
	.loc 4 493 0
	.cfi_startproc
.LVL320:
	mflr 0
	stwu 1,-16(1)
.LCFI58:
	.cfi_def_cfa_offset 16
	.cfi_register 65, 0
	stw 31,12(1)
	stw 0,20(1)
	.loc 4 494 0
	lwz 0,0(3)
	.cfi_offset 65, 4
	.cfi_offset 31, -4
	cmpwi 7,0,10
	bne- 7,.L313
	.loc 4 498 0
	stw 4,40(3)
	.loc 4 499 0
	lwz 0,20(1)
	lwz 31,12(1)
	mtlr 0
	addi 1,1,16
	.cfi_remember_state
.LCFI59:
	.cfi_def_cfa_offset 0
	.cfi_restore 31
	blr
.L313:
.LCFI60:
	.cfi_restore_state
	.loc 4 495 0
	li 3,1024
.LVL321:
	bl __cxa_allocate_exception
.LVL322:
	lis 4,.LC8@ha
	la 4,.LC8@l(4)
	mr 31,3
	bl _ZN14idCompileErrorC1EPKc
	lis 4,_ZTI14idCompileError@ha
	mr 3,31
	la 4,_ZTI14idCompileError@l(4)
	li 5,0
	bl __cxa_throw
	.cfi_endproc
.LFE2848:
	.size	_ZN9idTypeDef14SetPointerTypeEPS_, .-_ZN9idTypeDef14SetPointerTypeEPS_
	.align 2
	.globl _ZNK9idTypeDef13NumParametersEv
	.type	_ZNK9idTypeDef13NumParametersEv, @function
_ZNK9idTypeDef13NumParametersEv:
.LFB2849:
	.loc 4 506 0
	.cfi_startproc
.LVL323:
	.loc 4 508 0
	lwz 3,44(3)
.LVL324:
	blr
	.cfi_endproc
.LFE2849:
	.size	_ZNK9idTypeDef13NumParametersEv, .-_ZNK9idTypeDef13NumParametersEv
	.align 2
	.globl _ZNK9idTypeDef11GetParmTypeEi
	.type	_ZNK9idTypeDef11GetParmTypeEi, @function
_ZNK9idTypeDef11GetParmTypeEi:
.LFB2850:
	.loc 4 515 0
	.cfi_startproc
.LVL325:
	.loc 4 518 0
	lwz 9,56(3)
	slwi 4,4,2
.LVL326:
	.loc 4 519 0
	lwzx 3,9,4
.LVL327:
	blr
	.cfi_endproc
.LFE2850:
	.size	_ZNK9idTypeDef11GetParmTypeEi, .-_ZNK9idTypeDef11GetParmTypeEi
	.align 2
	.globl _ZNK9idTypeDef11GetParmNameEi
	.type	_ZNK9idTypeDef11GetParmNameEi, @function
_ZNK9idTypeDef11GetParmNameEi:
.LFB2851:
	.loc 4 526 0
	.cfi_startproc
.LVL328:
.LBB2254:
	.loc 4 2214 0
	lwz 0,72(3)
	slwi 4,4,5
.LVL329:
	add 4,0,4
.LVL330:
.LBE2254:
	.loc 4 530 0
	lwz 3,4(4)
.LVL331:
	blr
	.cfi_endproc
.LFE2851:
	.size	_ZNK9idTypeDef11GetParmNameEi, .-_ZNK9idTypeDef11GetParmNameEi
	.align 2
	.globl _ZNK9idTypeDef12NumFunctionsEv
	.type	_ZNK9idTypeDef12NumFunctionsEv, @function
_ZNK9idTypeDef12NumFunctionsEv:
.LFB2852:
	.loc 4 537 0
	.cfi_startproc
.LVL332:
	.loc 4 539 0
	lwz 3,76(3)
.LVL333:
	blr
	.cfi_endproc
.LFE2852:
	.size	_ZNK9idTypeDef12NumFunctionsEv, .-_ZNK9idTypeDef12NumFunctionsEv
	.align 2
	.globl _ZNK9idTypeDef17GetFunctionNumberEPK10function_t
	.type	_ZNK9idTypeDef17GetFunctionNumberEPK10function_t, @function
_ZNK9idTypeDef17GetFunctionNumberEPK10function_t:
.LFB2853:
	.loc 4 546 0
	.cfi_startproc
.LVL334:
.LBB2255:
	.loc 4 2214 0
	lwz 0,76(3)
.LBE2255:
	.loc 4 546 0
	mr 9,3
.LBB2256:
	.loc 4 554 0
	li 3,-1
.LVL335:
	.loc 4 549 0
	cmpwi 7,0,0
	blelr- 7
	.loc 4 2214 0
	lwz 9,88(9)
.LVL336:
	.loc 4 549 0
	li 3,0
	.loc 4 550 0
	mtctr 0
	lwz 11,0(9)
	cmpw 7,11,4
	bne+ 7,.L321
	blr
.LVL337:
.L322:
	lwzx 0,9,0
	cmpw 7,0,4
	beqlr- 7
.LVL338:
.L321:
	.loc 4 549 0
	addi 3,3,1
.LVL339:
	.loc 4 550 0
	slwi 0,3,2
	.loc 4 549 0
	bdnz .L322
	.loc 4 554 0
	li 3,-1
.LVL340:
.LBE2256:
	.loc 4 555 0
	blr
	.cfi_endproc
.LFE2853:
	.size	_ZNK9idTypeDef17GetFunctionNumberEPK10function_t, .-_ZNK9idTypeDef17GetFunctionNumberEPK10function_t
	.align 2
	.globl _ZNK9idTypeDef11GetFunctionEi
	.type	_ZNK9idTypeDef11GetFunctionEi, @function
_ZNK9idTypeDef11GetFunctionEi:
.LFB2854:
	.loc 4 562 0
	.cfi_startproc
.LVL341:
	.loc 4 565 0
	lwz 9,88(3)
	slwi 4,4,2
.LVL342:
	.loc 4 566 0
	lwzx 3,9,4
.LVL343:
	blr
	.cfi_endproc
.LFE2854:
	.size	_ZNK9idTypeDef11GetFunctionEi, .-_ZNK9idTypeDef11GetFunctionEi
	.align 2
	.globl _ZN9idTypeDef11AddFunctionEPK10function_t
	.type	_ZN9idTypeDef11AddFunctionEPK10function_t, @function
_ZN9idTypeDef11AddFunctionEPK10function_t:
.LFB2855:
	.loc 4 573 0
	.cfi_startproc
.LVL344:
	mflr 0
	stwu 1,-32(1)
.LCFI61:
	.cfi_def_cfa_offset 32
	.cfi_register 65, 0
	stw 27,12(1)
	mr 27,4
	.cfi_offset 27, -20
	stw 29,20(1)
	mr 29,3
	.cfi_offset 29, -12
	stw 31,28(1)
.LBB2292:
	.loc 4 576 0
	li 31,0
	.cfi_offset 31, -4
.LBE2292:
	.loc 4 573 0
	stw 0,36(1)
	stw 28,16(1)
	stw 30,24(1)
.LBB2345:
.LBB2293:
.LBB2294:
.LBB2295:
.LBB2296:
.LBB2297:
.LBB2298:
.LBB2299:
.LBB2300:
	.loc 4 2214 0
	lwz 0,76(3)
	.cfi_offset 30, -8
	.cfi_offset 28, -16
	.cfi_offset 65, 4
.LBE2300:
.LBE2299:
.LBE2298:
.LBE2297:
.LBE2296:
.LBE2295:
.LBE2294:
.LBE2293:
	.loc 4 576 0
	lwz 30,88(3)
	cmpwi 7,0,0
	bgt+ 7,.L332
	b .L328
.LVL345:
.L330:
	.loc 4 2214 0
	lwz 0,76(29)
	.loc 4 576 0
	cmpw 7,0,31
	ble- 7,.L328
.LVL346:
.L332:
	.loc 4 573 0
	slwi 28,31,2
.LVL347:
.LBB2328:
.LBB2329:
	.loc 4 649 0
	lwz 11,36(27)
.LBE2329:
.LBE2328:
	.loc 4 577 0
	lwzx 9,30,28
	.loc 4 576 0
	addi 31,31,1
.LVL348:
.LBB2333:
.LBB2332:
.LBB2330:
.LBB2331:
	.loc 4 2214 0
	lwz 11,24(11)
.LBE2331:
.LBE2330:
.LBE2332:
.LBE2333:
.LBB2334:
.LBB2335:
	.loc 4 649 0
	lwz 9,36(9)
.LBE2335:
.LBE2334:
	.loc 4 577 0
	lwz 4,4(11)
.LBB2339:
.LBB2338:
.LBB2336:
.LBB2337:
	.loc 4 2214 0
	lwz 9,24(9)
.LBE2337:
.LBE2336:
.LBE2338:
.LBE2339:
	.loc 4 577 0
	lwz 3,4(9)
	bl _ZN5idStr3CmpEPKcS1_
.LVL349:
	.loc 4 2214 0
	lwz 30,88(29)
	.loc 4 577 0
	cmpwi 7,3,0
	bne+ 7,.L330
	.loc 4 578 0
	lwzx 9,30,28
.LBB2340:
.LBB2341:
	.loc 6 589 0
	add 28,30,28
.LBE2341:
.LBE2340:
	.loc 4 2214 0
	lwz 11,36(27)
	lwz 9,36(9)
	.loc 4 578 0
	lwz 3,20(11)
	lwz 4,20(9)
	bl _ZNK9idTypeDef22MatchesVirtualFunctionERKS_
	cmpwi 7,3,0
	beq+ 7,.L330
	.loc 4 579 0
	stw 27,0(28)
.LBE2345:
	.loc 4 585 0
	lwz 0,36(1)
	lwz 27,12(1)
.LVL350:
	mtlr 0
	lwz 28,16(1)
.LVL351:
	lwz 29,20(1)
.LVL352:
	lwz 30,24(1)
	lwz 31,28(1)
.LVL353:
	addi 1,1,32
	.cfi_remember_state
	.cfi_restore 27
	.cfi_restore 28
	.cfi_restore 29
	.cfi_restore 30
	.cfi_restore 31
.LCFI62:
	.cfi_def_cfa_offset 0
	blr
.LVL354:
.L328:
.LCFI63:
	.cfi_restore_state
.LBB2346:
.LBB2342:
.LBB2325:
	.loc 6 655 0
	cmpwi 7,30,0
.LBE2325:
.LBE2342:
	.loc 4 584 0
	addi 31,29,76
.LVL355:
.LBB2343:
.LBB2326:
	.loc 6 655 0
	beq- 7,.L333
	lwz 0,76(29)
	lwz 9,80(29)
.L334:
.LBB2314:
	.loc 6 659 0
	cmpw 7,0,9
	beq- 7,.L351
.L354:
.LBB2311:
.LBB2307:
.LBB2303:
	.loc 6 399 0
	slwi 0,0,2
	add 30,30,0
.L341:
.LBE2303:
.LBE2307:
.LBE2311:
.LBE2314:
	.loc 6 669 0
	stw 27,0(30)
	.loc 6 670 0
	lwz 9,76(29)
	addi 0,9,1
	stw 0,76(29)
.LBE2326:
.LBE2343:
.LBE2346:
	.loc 4 585 0
	lwz 0,36(1)
	lwz 27,12(1)
.LVL356:
	mtlr 0
	lwz 28,16(1)
	lwz 29,20(1)
.LVL357:
	lwz 30,24(1)
.LVL358:
	lwz 31,28(1)
.LVL359:
	addi 1,1,32
	.cfi_remember_state
.LCFI64:
	.cfi_def_cfa_offset 0
	.cfi_restore 31
	.cfi_restore 30
	.cfi_restore 29
	.cfi_restore 28
	.cfi_restore 27
	blr
.LVL360:
.L351:
.LCFI65:
	.cfi_restore_state
	lwz 3,84(29)
.LBB2347:
.LBB2344:
.LBB2327:
.LBB2315:
	.loc 6 659 0
	mr 11,0
.L336:
.LBB2312:
	.loc 6 662 0
	cmpwi 7,3,0
	mr 9,3
	beq- 7,.L355
.L342:
	.loc 6 665 0
	add 10,11,9
.LVL361:
	.loc 6 666 0
	divw 10,10,9
.LVL362:
.LBB2308:
.LBB2304:
	.loc 6 375 0
	mullw. 9,10,9
.LVL363:
	ble- 0,.L356
	.loc 6 380 0
	cmpw 7,9,11
	beq- 7,.L354
.LVL364:
	.loc 6 387 0
	cmpw 7,9,0
	.loc 6 386 0
	stw 9,80(29)
	.loc 6 387 0
	bge- 7,.L346
	.loc 6 388 0
	stw 9,76(29)
.L346:
	.loc 6 392 0
	slwi 3,9,2
	bl _Znaj
.LVL365:
	.loc 6 393 0
	lwz 0,76(29)
	.loc 6 392 0
	stw 3,88(29)
.LVL366:
	.loc 6 393 0
	cmpwi 7,0,0
	ble- 7,.L347
	.loc 4 573 0
	addi 11,30,-4
.LBE2304:
.LBE2308:
	.loc 6 393 0
	li 9,0
	b .L348
.LVL367:
.L357:
.LBB2309:
.LBB2305:
	lwz 3,88(29)
.LVL368:
.L348:
	.loc 6 394 0
	lwzu 10,4(11)
	slwi 0,9,2
	.loc 6 393 0
	addi 9,9,1
.LVL369:
	.loc 6 394 0
	stwx 10,3,0
	.loc 6 393 0
	lwz 0,0(31)
	cmpw 7,9,0
	blt+ 7,.L357
.LVL370:
.L347:
	.loc 6 398 0
	cmpwi 7,30,0
	beq- 7,.L358
	.loc 6 399 0
	mr 3,30
	bl _ZdaPv
	lwz 0,76(29)
	lwz 30,88(29)
.LVL371:
	b .L354
.LVL372:
.L355:
.LBE2305:
.LBE2309:
	.loc 6 663 0
	li 9,16
	stw 9,84(29)
	b .L342
.L333:
.LBE2312:
.LBE2315:
	.loc 6 656 0
	lwz 3,84(29)
.LBB2316:
.LBB2317:
	.loc 6 375 0
	cmpwi 7,3,0
.LBE2317:
.LBE2316:
	.loc 6 656 0
	mr 9,3
.LVL373:
.LBB2322:
.LBB2320:
	.loc 6 375 0
	ble- 7,.L359
	.loc 6 380 0
	lwz 11,80(29)
	cmpw 7,3,11
	beq- 7,.L360
.LVL374:
	.loc 6 387 0
	cmpw 7,3,0
	.loc 6 386 0
	stw 3,80(29)
	.loc 6 387 0
	bge- 7,.L338
	.loc 6 388 0
	stw 3,76(29)
.L338:
	.loc 6 392 0
	slwi 3,3,2
	bl _Znaj
.LVL375:
	.loc 6 393 0
	lwz 0,76(29)
	.loc 6 392 0
	mr 30,3
	stw 3,88(29)
.LVL376:
	.loc 6 393 0
	cmpwi 7,0,0
	li 9,0
	li 11,0
	bgt+ 7,.L353
	b .L363
.LVL377:
.L362:
	lwz 30,88(29)
.LVL378:
.L353:
	.loc 6 394 0
	lwz 0,0(9)
	.loc 6 393 0
	addi 11,11,1
.LVL379:
	.loc 6 394 0
	stwx 0,30,9
	.loc 6 393 0
	addi 9,9,4
	lwz 0,0(31)
	cmpw 7,11,0
	blt+ 7,.L362
	lwz 9,80(29)
	lwz 30,88(29)
	b .L334
.LVL380:
.L360:
	.loc 6 380 0
	lwz 0,76(29)
	b .L334
.L359:
.LVL381:
.LBB2318:
.LBB2319:
	.loc 6 197 0
	stw 30,88(29)
	.loc 6 199 0
	li 11,0
	.loc 6 198 0
	stw 30,76(29)
	.loc 6 199 0
	li 0,0
	stw 30,80(29)
	b .L336
.LVL382:
.L356:
.LBE2319:
.LBE2318:
.LBE2320:
.LBE2322:
.LBB2323:
.LBB2313:
.LBB2310:
.LBB2306:
.LBB2302:
.LBB2301:
	.loc 6 193 0
	cmpwi 7,30,0
	beq- 7,.L344
	.loc 6 194 0
	mr 3,30
	bl _ZdaPv
.LVL383:
.L344:
	.loc 6 197 0
	li 0,0
	.loc 6 199 0
	li 30,0
	.loc 6 197 0
	stw 0,88(29)
	.loc 6 198 0
	stw 0,76(29)
	.loc 6 199 0
	stw 0,80(29)
	b .L341
.LVL384:
.L358:
.LBE2301:
.LBE2302:
	.loc 6 398 0
	lwz 0,76(29)
	lwz 30,88(29)
.LVL385:
	slwi 0,0,2
	add 30,30,0
	b .L341
.LVL386:
.L363:
.LBE2306:
.LBE2310:
.LBE2313:
.LBE2323:
.LBB2324:
.LBB2321:
	.loc 6 393 0
	lwz 9,80(29)
	b .L334
.LBE2321:
.LBE2324:
.LBE2327:
.LBE2344:
.LBE2347:
	.cfi_endproc
.LFE2855:
	.size	_ZN9idTypeDef11AddFunctionEPK10function_t, .-_ZN9idTypeDef11AddFunctionEPK10function_t
	.align 2
	.globl _ZN8idVarDefC2EP9idTypeDef
	.type	_ZN8idVarDefC2EP9idTypeDef, @function
_ZN8idVarDefC2EP9idTypeDef:
.LFB2857:
	.loc 4 598 0
	.cfi_startproc
.LVL387:
.LBB2348:
	.loc 4 604 0
	li 0,0
	.loc 4 603 0
	stw 4,20(3)
	.loc 4 604 0
	stw 0,0(3)
.LBE2348:
	.loc 4 611 0
.LBB2349:
	.loc 4 605 0
	stw 0,8(3)
	.loc 4 606 0
	stw 0,12(3)
	.loc 4 607 0
	stw 0,16(3)
	.loc 4 608 0
	stw 0,4(3)
	.loc 4 609 0
	stw 0,24(3)
	.loc 4 610 0
	stw 0,28(3)
.LBE2349:
	.loc 4 611 0
	blr
	.cfi_endproc
.LFE2857:
	.size	_ZN8idVarDefC2EP9idTypeDef, .-_ZN8idVarDefC2EP9idTypeDef
	.align 2
	.globl _ZN8idVarDefD2Ev
	.type	_ZN8idVarDefD2Ev, @function
_ZN8idVarDefD2Ev:
.LFB2860:
	.loc 4 618 0
	.cfi_startproc
.LVL388:
.LBB2350:
	.loc 4 619 0
	lwz 11,24(3)
	cmpwi 7,11,0
	beqlr- 7
.LVL389:
.LBB2351:
.LBB2352:
.LBB2353:
	.loc 4 899 0
	lwz 9,32(11)
	cmpw 7,3,9
	bne+ 7,.L372
	b .L375
.LVL390:
.L370:
.LBB2354:
	.loc 4 903 0
	beq- 6,.L374
	mr 9,0
.LVL391:
.L372:
	.loc 4 902 0
	lwz 0,28(9)
	cmpwi 7,0,0
	.loc 4 903 0
	cmpw 6,3,0
	.loc 4 902 0
	bne+ 7,.L370
.LBE2354:
.LBE2353:
	.loc 4 909 0
	li 0,0
	stw 0,28(3)
	.loc 4 910 0
	stw 0,24(3)
	blr
.L374:
.LBB2356:
.LBB2355:
	.loc 4 904 0
	lwz 0,28(3)
	stw 0,28(9)
.LBE2355:
.LBE2356:
	.loc 4 909 0
	li 0,0
	stw 0,28(3)
	.loc 4 910 0
	stw 0,24(3)
	blr
.LVL392:
.L375:
.LBB2357:
	.loc 4 900 0
	lwz 0,28(3)
	stw 0,32(11)
.LBE2357:
	.loc 4 909 0
	li 0,0
	stw 0,28(3)
	.loc 4 910 0
	stw 0,24(3)
	blr
.LBE2352:
.LBE2351:
.LBE2350:
	.cfi_endproc
.LFE2860:
	.size	_ZN8idVarDefD2Ev, .-_ZN8idVarDefD2Ev
	.align 2
	.globl _ZN8idVarDefnwEj
	.type	_ZN8idVarDefnwEj, @function
_ZN8idVarDefnwEj:
.LFB2862:
	.loc 4 625 0
	.cfi_startproc
	.cfi_personality 0,__gxx_personality_v0
	.cfi_lsda 0,.LLSDA2862
.LVL393:
	mflr 0
	stwu 1,-8(1)
.LCFI66:
	.cfi_def_cfa_offset 8
	.cfi_register 65, 0
	stw 0,12(1)
.LEHB4:
.LBB2358:
	.loc 4 626 0
	.cfi_offset 65, 4
	bl _Z11Mem_Alloc16i
.LVL394:
	.loc 4 627 0
	cmpwi 7,3,0
	beq- 7,.L381
.LBE2358:
	.loc 4 631 0
	lwz 0,12(1)
	addi 1,1,8
	.cfi_remember_state
.LCFI67:
	.cfi_def_cfa_offset 0
	mtlr 0
	blr
.L381:
.LCFI68:
	.cfi_restore_state
.LBB2363:
	.loc 4 628 0
	li 3,4
.LVL395:
	bl __cxa_allocate_exception
.LVL396:
.LBB2359:
.LBB2360:
	.loc 7 59 0
	lis 9,_ZTVSt9bad_alloc+8@ha
	la 0,_ZTVSt9bad_alloc+8@l(9)
.LBE2360:
.LBE2359:
	.loc 4 628 0
	lis 4,_ZTISt9bad_alloc@ha
	lis 5,_ZNSt9bad_allocD1Ev@ha
.LBB2362:
.LBB2361:
	.loc 7 59 0
	stw 0,0(3)
.LBE2361:
.LBE2362:
	.loc 4 628 0
	la 4,_ZTISt9bad_alloc@l(4)
	la 5,_ZNSt9bad_allocD1Ev@l(5)
	bl __cxa_throw
.LEHE4:
.LVL397:
.L380:
	.loc 4 630 0
	cmpwi 7,4,-1
	beq- 7,.L379
.LEHB5:
	bl _Unwind_Resume
.L379:
.LBE2363:
	.loc 4 625 0
	bl __cxa_call_unexpected
.LEHE5:
	.cfi_endproc
.LFE2862:
	.section	.gcc_except_table
	.align 2
.LLSDA2862:
	.byte	0xff
	.byte	0
	.uleb128 .LLSDATT2862-.LLSDATTD2862
.LLSDATTD2862:
	.byte	0x1
	.uleb128 .LLSDACSE2862-.LLSDACSB2862
.LLSDACSB2862:
	.uleb128 .LEHB4-.LFB2862
	.uleb128 .LEHE4-.LEHB4
	.uleb128 .L380-.LFB2862
	.uleb128 0x1
	.uleb128 .LEHB5-.LFB2862
	.uleb128 .LEHE5-.LEHB5
	.uleb128 0
	.uleb128 0
.LLSDACSE2862:
	.byte	0x7f
	.byte	0
	.align 2
	.long	_ZTISt9bad_alloc
.LLSDATT2862:
	.byte	0x1
	.byte	0
	.section	".text"
	.size	_ZN8idVarDefnwEj, .-_ZN8idVarDefnwEj
	.align 2
	.globl _ZN8idVarDefdlEPv
	.type	_ZN8idVarDefdlEPv, @function
_ZN8idVarDefdlEPv:
.LFB2863:
	.loc 4 633 0
	.cfi_startproc
	.cfi_personality 0,__gxx_personality_v0
	.cfi_lsda 0,.LLSDA2863
.LVL398:
	mflr 0
	stwu 1,-8(1)
.LCFI69:
	.cfi_def_cfa_offset 8
	.cfi_register 65, 0
	stw 0,12(1)
	.loc 4 634 0
	lis 0,0x8fff
	.cfi_offset 65, 4
	ori 0,0,65535
	cmplw 7,3,0
	ble- 7,.L383
.LEHB6:
	.loc 4 635 0
	bl _Z10Mem_Free16Pv
.LEHE6:
.LVL399:
	.loc 4 639 0
	lwz 0,12(1)
	addi 1,1,8
	.cfi_remember_state
.LCFI70:
	.cfi_def_cfa_offset 0
	mtlr 0
	blr
.LVL400:
.L383:
.LCFI71:
	.cfi_restore_state
	.loc 4 637 0
	bl free
.LVL401:
	.loc 4 639 0
	lwz 0,12(1)
	addi 1,1,8
	.cfi_remember_state
.LCFI72:
	.cfi_def_cfa_offset 0
	mtlr 0
	blr
.L387:
.LCFI73:
	.cfi_restore_state
	cmpwi 7,4,-1
	beq- 7,.L386
.LEHB7:
	bl _Unwind_Resume
.L386:
	.loc 4 633 0
	bl __cxa_call_unexpected
.LEHE7:
	.cfi_endproc
.LFE2863:
	.section	.gcc_except_table
	.align 2
.LLSDA2863:
	.byte	0xff
	.byte	0
	.uleb128 .LLSDATT2863-.LLSDATTD2863
.LLSDATTD2863:
	.byte	0x1
	.uleb128 .LLSDACSE2863-.LLSDACSB2863
.LLSDACSB2863:
	.uleb128 .LEHB6-.LFB2863
	.uleb128 .LEHE6-.LEHB6
	.uleb128 .L387-.LFB2863
	.uleb128 0x1
	.uleb128 .LEHB7-.LFB2863
	.uleb128 .LEHE7-.LEHB7
	.uleb128 0
	.uleb128 0
.LLSDACSE2863:
	.byte	0x7f
	.byte	0
	.align 2
.LLSDATT2863:
	.byte	0
	.section	".text"
	.size	_ZN8idVarDefdlEPv, .-_ZN8idVarDefdlEPv
	.align 2
	.globl _ZNK8idVarDef4NameEv
	.type	_ZNK8idVarDef4NameEv, @function
_ZNK8idVarDef4NameEv:
.LFB2864:
	.loc 4 648 0
	.cfi_startproc
.LVL402:
.LBB2364:
.LBB2365:
	.loc 4 2214 0
	lwz 9,24(3)
.LBE2365:
.LBE2364:
	.loc 4 650 0
	lwz 3,4(9)
.LVL403:
	blr
	.cfi_endproc
.LFE2864:
	.size	_ZNK8idVarDef4NameEv, .-_ZNK8idVarDef4NameEv
	.align 2
	.globl _ZNK8idVarDef10GlobalNameEv
	.type	_ZNK8idVarDef10GlobalNameEv, @function
_ZNK8idVarDef10GlobalNameEv:
.LFB2865:
	.loc 4 657 0
	.cfi_startproc
.LVL404:
	mflr 0
	stwu 1,-16(1)
.LCFI74:
	.cfi_def_cfa_offset 16
	.cfi_register 65, 0
	.loc 4 658 0
	lis 9,.LANCHOR0@ha
	.loc 4 657 0
	stw 31,12(1)
	.loc 4 658 0
	la 9,.LANCHOR0@l(9)
	.loc 4 657 0
	stw 0,20(1)
	.loc 4 657 0
	mr 31,3
	.cfi_offset 65, 4
	.cfi_offset 31, -4
	.loc 4 658 0
	addi 0,9,96
	lwz 3,8(3)
.LVL405:
	cmpw 7,3,0
	beq- 7,.L390
.LVL406:
.LBB2374:
.LBB2375:
	.loc 4 659 0
	bl _ZNK8idVarDef10GlobalNameEv
.LBB2376:
.LBB2377:
	.loc 4 2214 0
	lwz 9,24(31)
.LBE2377:
.LBE2376:
	.loc 4 659 0
	mr 4,3
.LVL407:
	lis 3,.LC9@ha
	lwz 5,4(9)
	la 3,.LC9@l(3)
	crxor 6,6,6
	bl _Z2vaPKcz
.LVL408:
.LBE2375:
.LBE2374:
	.loc 4 663 0
	lwz 0,20(1)
	lwz 31,12(1)
.LVL409:
	mtlr 0
	addi 1,1,16
	.cfi_remember_state
.LCFI75:
	.cfi_def_cfa_offset 0
	.cfi_restore 31
	blr
.LVL410:
.L390:
.LCFI76:
	.cfi_restore_state
	lwz 0,20(1)
.LBB2378:
.LBB2379:
	.loc 4 2214 0
	lwz 9,24(31)
.LBE2379:
.LBE2378:
	.loc 4 663 0
	mtlr 0
	lwz 31,12(1)
.LVL411:
.LBB2381:
.LBB2380:
	.loc 4 2214 0
	lwz 3,4(9)
.LBE2380:
.LBE2381:
	.loc 4 663 0
	addi 1,1,16
	.cfi_restore 31
.LCFI77:
	.cfi_def_cfa_offset 0
	blr
	.cfi_endproc
.LFE2865:
	.size	_ZNK8idVarDef10GlobalNameEv, .-_ZNK8idVarDef10GlobalNameEv
	.align 2
	.globl _ZNK8idVarDef12DepthOfScopeEPKS_
	.type	_ZNK8idVarDef12DepthOfScopeEPKS_, @function
_ZNK8idVarDef12DepthOfScopeEPKS_:
.LFB2866:
	.loc 4 670 0
	.cfi_startproc
.LVL412:
.LBB2382:
	.loc 4 675 0
	cmpwi 0,4,0
.LVL413:
	.loc 4 682 0
	li 9,0
	.loc 4 675 0
	beq- 0,.L393
	.loc 4 676 0
	lwz 0,8(3)
	.loc 4 674 0
	li 9,1
	.loc 4 676 0
	cmpw 7,4,0
	bne+ 7,.L395
	b .L393
.LVL414:
.L396:
	beq- 6,.L393
.LVL415:
.L395:
	.loc 4 675 0
	lwz 4,8(4)
.LVL416:
	.loc 4 679 0
	addi 9,9,1
.LVL417:
	.loc 4 675 0
	cmpwi 7,4,0
	.loc 4 676 0
	cmpw 6,4,0
	.loc 4 675 0
	bne+ 7,.L396
	.loc 4 682 0
	li 9,0
.LVL418:
.L393:
.LBE2382:
	.loc 4 683 0
	mr 3,9
.LVL419:
	blr
	.cfi_endproc
.LFE2866:
	.size	_ZNK8idVarDef12DepthOfScopeEPKS_, .-_ZNK8idVarDef12DepthOfScopeEPKS_
	.align 2
	.globl _ZN8idVarDef11SetFunctionEP10function_t
	.type	_ZN8idVarDef11SetFunctionEP10function_t, @function
_ZN8idVarDef11SetFunctionEP10function_t:
.LFB2867:
	.loc 4 690 0
	.cfi_startproc
.LVL420:
	.loc 4 692 0
	li 0,2
	.loc 4 694 0
	stw 4,4(3)
	.loc 4 692 0
	stw 0,16(3)
	.loc 4 695 0
	blr
	.cfi_endproc
.LFE2867:
	.size	_ZN8idVarDef11SetFunctionEP10function_t, .-_ZN8idVarDef11SetFunctionEP10function_t
	.align 2
	.globl _ZN8idVarDef9SetObjectEP14idScriptObject
	.type	_ZN8idVarDef9SetObjectEP14idScriptObject, @function
_ZN8idVarDef9SetObjectEP14idScriptObject:
.LFB2868:
	.loc 4 702 0
	.cfi_startproc
.LVL421:
	.loc 4 706 0
	lwz 9,4(3)
	stw 4,0(9)
	.loc 4 707 0
	blr
	.cfi_endproc
.LFE2868:
	.size	_ZN8idVarDef9SetObjectEP14idScriptObject, .-_ZN8idVarDef9SetObjectEP14idScriptObject
	.align 2
	.globl _ZN8idVarDef8SetValueERK6eval_sb
	.type	_ZN8idVarDef8SetValueERK6eval_sb, @function
_ZN8idVarDef8SetValueERK6eval_sb:
.LFB2869:
	.loc 4 714 0
	.cfi_startproc
	.cfi_personality 0,__gxx_personality_v0
	.cfi_lsda 0,.LLSDA2869
.LVL422:
	mflr 0
	stwu 1,-16(1)
.LCFI78:
	.cfi_def_cfa_offset 16
	.cfi_register 65, 0
	.loc 4 717 0
	cntlzw 5,5
.LVL423:
	.loc 4 714 0
	stw 30,8(1)
	.loc 4 717 0
	srwi 5,5,5
	.loc 4 714 0
	stw 0,20(1)
	.loc 4 717 0
	subfic 5,5,2
	.loc 4 714 0
	stw 31,12(1)
	.loc 4 714 0
	mr 30,3
	.cfi_offset 31, -4
	.cfi_offset 65, 4
	.cfi_offset 30, -8
	.loc 4 716 0
	stw 5,16(3)
.LVL424:
.LBB2393:
.LBB2394:
	.loc 4 384 0
	lwz 9,20(3)
.LBE2394:
.LBE2393:
	.loc 4 722 0
	lwz 9,0(9)
	addi 0,9,-3
	cmplwi 7,0,11
	ble- 7,.L419
	.loc 4 768 0
	li 3,1024
.LVL425:
	bl __cxa_allocate_exception
.LVL426:
.LBB2395:
.LBB2396:
.LBB2397:
.LBB2398:
	.loc 4 2214 0
	lwz 9,24(30)
.LBE2398:
.LBE2397:
.LBE2396:
.LBE2395:
	.loc 4 768 0
	mr 31,3
.LVL427:
	lis 3,.LC10@ha
	lwz 4,4(9)
	la 3,.LC10@l(3)
.LEHB8:
	crxor 6,6,6
	bl _Z2vaPKcz
.LEHE8:
.LVL428:
	mr 4,3
.LVL429:
.LBB2399:
.LBB2400:
.LBB2401:
	.loc 3 154 0
	mr 3,31
.LVL430:
	bl strcpy
.LVL431:
.LBE2401:
.LBE2400:
.LBE2399:
	.loc 4 768 0
	lis 4,_ZTI14idCompileError@ha
	mr 3,31
	la 4,_ZTI14idCompileError@l(4)
	li 5,0
.LEHB9:
	bl __cxa_throw
.LVL432:
.L419:
	.loc 4 722 0
	lis 9,.L414@ha
	slwi 0,0,2
	la 9,.L414@l(9)
	lwzx 0,9,0
	add 9,0,9
	mtctr 9
	bctr
	.section	.rodata
	.align 2
	.align 2
.L414:
	.long .L404-.L414
	.long .L405-.L414
	.long .L406-.L414
	.long .L411-.L414
	.long .L411-.L414
	.long .L410-.L414
	.long .L410-.L414
	.long .L411-.L414
	.long .L411-.L414
	.long .L410-.L414
	.long .L410-.L414
	.long .L411-.L414
	.section	".text"
.L410:
	.loc 4 760 0
	lwz 0,0(4)
	stw 0,4(3)
.LVL433:
.L401:
	.loc 4 771 0
	lwz 0,20(1)
	lwz 30,8(1)
.LVL434:
	mtlr 0
	lwz 31,12(1)
	addi 1,1,16
	.cfi_remember_state
.LCFI79:
	.cfi_def_cfa_offset 0
	.cfi_restore 31
	.cfi_restore 30
	blr
.LVL435:
.L411:
.LCFI80:
	.cfi_restore_state
	.loc 4 764 0
	lwz 0,0(4)
	lwz 9,4(3)
	stw 0,0(9)
	.loc 4 771 0
	lwz 0,20(1)
	lwz 30,8(1)
	mtlr 0
	lwz 31,12(1)
	addi 1,1,16
	.cfi_remember_state
	.cfi_restore 30
	.cfi_restore 31
.LCFI81:
	.cfi_def_cfa_offset 0
	blr
.L406:
.LCFI82:
	.cfi_restore_state
	.loc 4 750 0
	lwz 9,4(3)
	lwz 0,0(4)
	stw 0,0(9)
	.loc 4 751 0
	lwz 9,4(3)
	lwz 0,4(4)
	stw 0,4(9)
	.loc 4 752 0
	lwz 9,4(3)
	lwz 0,8(4)
	stw 0,8(9)
	.loc 4 753 0
	b .L401
.L404:
	.loc 4 742 0
	lwz 3,4(3)
.LVL436:
	li 5,128
	lwz 4,0(4)
.LVL437:
	bl _ZN5idStr6CopynzEPcPKci
.LVL438:
	.loc 4 743 0
	b .L401
.LVL439:
.L405:
	.loc 4 746 0
	lwz 9,4(3)
	lwz 0,0(4)
	stw 0,0(9)
	.loc 4 747 0
	b .L401
.LVL440:
.L418:
	mr 30,3
.LVL441:
	.loc 4 768 0
	mr 3,31
	bl __cxa_free_exception
	mr 3,30
	bl _Unwind_Resume
.LEHE9:
	.cfi_endproc
.LFE2869:
	.section	.gcc_except_table
.LLSDA2869:
	.byte	0xff
	.byte	0xff
	.byte	0x1
	.uleb128 .LLSDACSE2869-.LLSDACSB2869
.LLSDACSB2869:
	.uleb128 .LEHB8-.LFB2869
	.uleb128 .LEHE8-.LEHB8
	.uleb128 .L418-.LFB2869
	.uleb128 0
	.uleb128 .LEHB9-.LFB2869
	.uleb128 .LEHE9-.LEHB9
	.uleb128 0
	.uleb128 0
.LLSDACSE2869:
	.section	".text"
	.size	_ZN8idVarDef8SetValueERK6eval_sb, .-_ZN8idVarDef8SetValueERK6eval_sb
	.align 2
	.globl _ZN8idVarDef9SetStringEPKcb
	.type	_ZN8idVarDef9SetStringEPKcb, @function
_ZN8idVarDef9SetStringEPKcb:
.LFB2870:
	.loc 4 778 0
	.cfi_startproc
.LVL442:
	mflr 0
	stwu 1,-8(1)
.LCFI83:
	.cfi_def_cfa_offset 8
	.cfi_register 65, 0
	.loc 4 780 0
	cntlzw 5,5
.LVL443:
	srwi 5,5,5
	.loc 4 778 0
	stw 0,12(1)
	.loc 4 780 0
	subfic 5,5,2
	.loc 4 779 0
	stw 5,16(3)
	.loc 4 786 0
	li 5,128
	lwz 3,4(3)
.LVL444:
	.cfi_offset 65, 4
	bl _ZN5idStr6CopynzEPcPKci
.LVL445:
	.loc 4 787 0
	lwz 0,12(1)
	addi 1,1,8
.LCFI84:
	.cfi_def_cfa_offset 0
	mtlr 0
	blr
	.cfi_endproc
.LFE2870:
	.size	_ZN8idVarDef9SetStringEPKcb, .-_ZN8idVarDef9SetStringEPKcb
	.align 2
	.globl _ZNK8idVarDef9PrintInfoEP6idFilei
	.type	_ZNK8idVarDef9PrintInfoEP6idFilei, @function
_ZNK8idVarDef9PrintInfoEP6idFilei:
.LFB2871:
	.loc 4 794 0
	.cfi_startproc
.LVL446:
	mflr 0
	stwu 1,-48(1)
.LCFI85:
	.cfi_def_cfa_offset 48
	.cfi_register 65, 0
	stw 30,40(1)
	mr 30,4
	.cfi_offset 30, -8
	stw 31,44(1)
	mr 31,3
	.cfi_offset 31, -4
	stw 0,52(1)
	stw 24,16(1)
	stw 25,20(1)
	stw 26,24(1)
	stw 27,28(1)
	stw 28,32(1)
	stw 29,36(1)
.LBB2402:
	.loc 4 802 0
	lwz 0,16(3)
	.cfi_offset 29, -12
	.cfi_offset 28, -16
	.cfi_offset 27, -20
	.cfi_offset 26, -24
	.cfi_offset 25, -28
	.cfi_offset 24, -32
	.cfi_offset 65, 4
	cmpwi 7,0,2
	beq- 7,.L450
.LVL447:
.L424:
	.loc 4 806 0
	lwz 9,20(31)
.LVL448:
.LBB2403:
.LBB2404:
	.loc 4 384 0
	lwz 29,0(9)
.LBE2404:
.LBE2403:
	.loc 4 807 0
	cmpwi 7,29,8
	beq- 7,.L427
	ble- 7,.L451
	cmpwi 7,29,12
	beq- 7,.L428
	cmpwi 7,29,13
	bne+ 7,.L425
	.loc 4 827 0
	lwz 9,0(30)
	lis 4,.LC16@ha
	mr 3,30
	la 4,.LC16@l(4)
	lwz 0,56(9)
	lwz 5,4(31)
	mtctr 0
	crxor 6,6,6
	bctrl
.LVL449:
.L423:
.LBE2402:
	.loc 4 873 0
	lwz 0,52(1)
	lwz 24,16(1)
	mtlr 0
	lwz 25,20(1)
	lwz 26,24(1)
	lwz 27,28(1)
	lwz 28,32(1)
	lwz 29,36(1)
	lwz 30,40(1)
.LVL450:
	lwz 31,44(1)
	addi 1,1,48
	.cfi_remember_state
.LCFI86:
	.cfi_def_cfa_offset 0
	.cfi_restore 31
	.cfi_restore 30
	.cfi_restore 29
	.cfi_restore 28
	.cfi_restore 27
	.cfi_restore 26
	.cfi_restore 25
	.cfi_restore 24
	blr
.LVL451:
.L451:
.LCFI87:
	.cfi_restore_state
.LBB2416:
	.loc 4 807 0
	cmpwi 7,29,7
	beq- 7,.L452
.L425:
.LVL452:
	.loc 4 831 0
	lwz 11,0(30)
	lis 4,.LC17@ha
	mr 3,30
	la 4,.LC17@l(4)
	lwz 0,56(11)
	lwz 5,8(9)
	mtctr 0
	crxor 6,6,6
	bctrl
.LVL453:
	.loc 4 832 0
	lwz 0,16(31)
	cmpwi 7,0,2
	beq- 7,.L453
	.loc 4 866 0
	cmpwi 7,0,3
	.loc 4 867 0
	lwz 9,0(30)
	mr 3,30
	lwz 0,56(9)
	.loc 4 866 0
	beq- 7,.L454
	.loc 4 869 0
	lis 4,.LC27@ha
	lwz 5,0(31)
	mtctr 0
	la 4,.LC27@l(4)
	crxor 6,6,6
	bctrl
.LBE2416:
	.loc 4 873 0
	lwz 0,52(1)
	lwz 24,16(1)
	mtlr 0
	lwz 25,20(1)
	lwz 26,24(1)
	lwz 27,28(1)
	lwz 28,32(1)
	lwz 29,36(1)
	lwz 30,40(1)
.LVL454:
	lwz 31,44(1)
.LVL455:
	addi 1,1,48
	.cfi_remember_state
	.cfi_restore 24
	.cfi_restore 25
	.cfi_restore 26
	.cfi_restore 27
	.cfi_restore 28
	.cfi_restore 29
	.cfi_restore 30
	.cfi_restore 31
.LCFI88:
	.cfi_def_cfa_offset 0
	blr
.LVL456:
.L428:
.LCFI89:
	.cfi_restore_state
.LBB2417:
	.loc 4 809 0
	lwz 0,4(31)
	.loc 4 810 0
	lis 11,gameLocal@ha
	la 11,gameLocal@l(11)
	.loc 4 811 0
	lis 4,.LC12@ha
	.loc 4 809 0
	add 5,5,0
.LVL457:
.LBB2405:
	.loc 4 2214 0
	addis 10,11,0x1
.LBE2405:
	.loc 4 810 0
	mulli 9,5,20
.LVL458:
.LBB2408:
.LBB2406:
	.loc 4 2214 0
	lwz 0,-32048(10)
.LBE2406:
.LBE2408:
	.loc 4 811 0
	lwz 10,0(30)
	mr 3,30
	.loc 4 810 0
	add 9,9,11
	.loc 4 811 0
	la 4,.LC12@l(4)
	.loc 4 810 0
	addis 9,9,0xa
.LVL459:
	.loc 4 811 0
	lhz 11,17178(9)
	lhz 7,17176(9)
.LBB2409:
.LBB2407:
	.loc 4 2214 0
	slwi 11,11,5
	add 11,0,11
.LBE2407:
.LBE2409:
	.loc 4 811 0
	lwz 0,56(10)
	lwz 6,4(11)
	mtctr 0
	crxor 6,6,6
	bctrl
.LVL460:
.LBE2417:
	.loc 4 873 0
	lwz 0,52(1)
	lwz 24,16(1)
	mtlr 0
	lwz 25,20(1)
	lwz 26,24(1)
	lwz 27,28(1)
	lwz 28,32(1)
	lwz 29,36(1)
	lwz 30,40(1)
.LVL461:
	lwz 31,44(1)
.LVL462:
	addi 1,1,48
	.cfi_remember_state
	.cfi_restore 24
	.cfi_restore 25
	.cfi_restore 26
	.cfi_restore 27
	.cfi_restore 28
	.cfi_restore 29
	.cfi_restore 30
	.cfi_restore 31
.LCFI90:
	.cfi_def_cfa_offset 0
	blr
.LVL463:
.L452:
.LCFI91:
	.cfi_restore_state
.LBB2418:
	.loc 4 823 0
	lwz 9,0(30)
.LVL464:
	lis 4,.LC15@ha
	mr 3,30
	lwz 5,4(31)
	lwz 0,56(9)
	la 4,.LC15@l(4)
	mtctr 0
	crxor 6,6,6
	bctrl
.LVL465:
.LBE2418:
	.loc 4 873 0
	lwz 0,52(1)
	lwz 24,16(1)
	mtlr 0
	lwz 25,20(1)
	lwz 26,24(1)
	lwz 27,28(1)
	lwz 28,32(1)
	lwz 29,36(1)
	lwz 30,40(1)
.LVL466:
	lwz 31,44(1)
.LVL467:
	addi 1,1,48
	.cfi_remember_state
	.cfi_restore 24
	.cfi_restore 25
	.cfi_restore 26
	.cfi_restore 27
	.cfi_restore 28
	.cfi_restore 29
	.cfi_restore 30
	.cfi_restore 31
.LCFI92:
	.cfi_def_cfa_offset 0
	blr
.LVL468:
.L427:
.LCFI93:
	.cfi_restore_state
.LBB2419:
	.loc 4 815 0
	lwz 9,4(31)
.LVL469:
	.loc 4 816 0
	mr 3,31
	.loc 4 815 0
	lwz 0,32(9)
	.loc 4 816 0
	lwz 9,0(30)
	.loc 4 815 0
	cmpwi 7,0,0
	.loc 4 816 0
	lwz 31,56(9)
.LVL470:
	.loc 4 815 0
	beq- 7,.L432
	.loc 4 816 0
	bl _ZNK8idVarDef10GlobalNameEv
.LVL471:
	lis 4,.LC13@ha
	mr 5,3
	mtctr 31
	mr 3,30
	la 4,.LC13@l(4)
	crxor 6,6,6
	bctrl
.LBE2419:
	.loc 4 873 0
	lwz 0,52(1)
	lwz 24,16(1)
	mtlr 0
	lwz 25,20(1)
	lwz 26,24(1)
	lwz 27,28(1)
	lwz 28,32(1)
	lwz 29,36(1)
	lwz 30,40(1)
.LVL472:
	lwz 31,44(1)
	addi 1,1,48
	.cfi_remember_state
	.cfi_restore 24
	.cfi_restore 25
	.cfi_restore 26
	.cfi_restore 27
	.cfi_restore 28
	.cfi_restore 29
	.cfi_restore 30
	.cfi_restore 31
.LCFI94:
	.cfi_def_cfa_offset 0
	blr
.LVL473:
.L453:
.LCFI95:
	.cfi_restore_state
.LBB2420:
	.loc 4 833 0
	cmpwi 7,29,4
	beq- 7,.L436
	bgt- 7,.L439
	cmpwi 7,29,3
	beq- 7,.L455
.L434:
	.loc 4 863 0
	lwz 11,0(30)
	lis 4,.LC25@ha
	lwz 9,4(31)
	mr 3,30
	lwz 0,56(11)
	la 4,.LC25@l(4)
	lwz 5,0(9)
	mtctr 0
	crxor 6,6,6
	bctrl
	.loc 4 864 0
	b .L423
.LVL474:
.L450:
	.loc 4 803 0
	lwz 9,0(4)
	mr 3,4
	lis 4,.LC11@ha
	lwz 0,56(9)
	la 4,.LC11@l(4)
	stw 5,8(1)
	mtctr 0
	crxor 6,6,6
	bctrl
.LVL475:
	lwz 5,8(1)
	b .L424
.LVL476:
.L432:
	.loc 4 818 0
	bl _ZNK8idVarDef10GlobalNameEv
.LVL477:
	lis 4,.LC14@ha
	mr 5,3
	la 4,.LC14@l(4)
	mr 3,30
	mtctr 31
	crxor 6,6,6
	bctrl
	b .L423
.LVL478:
.L436:
	.loc 4 855 0
	lwz 11,0(30)
	lis 4,.LC23@ha
	lwz 9,4(31)
	mr 3,30
	lwz 0,56(11)
	la 4,.LC23@l(4)
	lfs 1,0(9)
	mtctr 0
	creqv 6,6,6
	bctrl
	.loc 4 856 0
	b .L423
.L454:
	.loc 4 867 0
	lis 4,.LC26@ha
	lwz 5,4(31)
	la 4,.LC26@l(4)
	mtctr 0
	crxor 6,6,6
	bctrl
	b .L423
.L439:
	.loc 4 833 0
	cmpwi 7,29,5
	beq- 7,.L437
	cmpwi 7,29,9
	bne+ 7,.L434
	.loc 4 859 0
	lwz 9,0(30)
	lis 4,.LC24@ha
	mr 3,30
	la 4,.LC24@l(4)
	lwz 0,56(9)
	lwz 5,4(31)
	mtctr 0
	crxor 6,6,6
	bctrl
	.loc 4 860 0
	b .L423
.L455:
	.loc 4 835 0
	lwz 9,0(30)
	lis 25,.LC18@ha
	la 25,.LC18@l(25)
	mr 3,30
	lwz 0,56(9)
	mr 4,25
	mtctr 0
	crxor 6,6,6
	bctrl
	.loc 4 836 0
	lwz 29,4(31)
	mr 3,29
	bl strlen
.LVL479:
	.loc 4 838 0
	mr. 28,3
	ble- 0,.L440
	.loc 4 840 0
	lis 27,.LC19@ha
	.loc 4 844 0
	lis 26,.LC21@ha
	.loc 4 842 0
	lis 24,.LC20@ha
	.loc 4 838 0
	li 31,0
.LVL480:
	.loc 4 840 0
	la 27,.LC19@l(27)
	.loc 4 844 0
	la 26,.LC21@l(26)
	.loc 4 842 0
	la 24,.LC20@l(24)
.LVL481:
.L444:
	.loc 4 839 0
	lbzx 9,29,31
.LVL482:
	.loc 4 840 0
	mr 3,30
	mr 4,27
.LBB2410:
.LBB2411:
	.loc 5 1026 0
	addi 11,9,-32
	addi 0,9,-161
	cmplwi 7,11,94
.LBE2411:
.LBE2410:
	.loc 4 840 0
	mr 5,9
.LBB2414:
.LBB2412:
	.loc 5 1026 0
	cmplwi 6,0,94
	ble- 7,.L449
.LBE2412:
.LBE2414:
	.loc 4 841 0
	cmpwi 7,9,10
.LBB2415:
.LBB2413:
	.loc 5 1026 0
	ble- 6,.L449
.LBE2413:
.LBE2415:
	.loc 4 844 0
	mr 3,30
	mr 4,26
	mr 5,9
	.loc 4 841 0
	beq- 7,.L456
.L449:
	.loc 4 844 0
	lwz 9,0(30)
.LVL483:
	lwz 0,56(9)
	mtctr 0
	crxor 6,6,6
	bctrl
.LVL484:
.L443:
	.loc 4 838 0
	addi 31,31,1
.LVL485:
	cmpw 7,28,31
	bne+ 7,.L444
.LVL486:
.L440:
	.loc 4 847 0
	lwz 9,0(30)
	mr 3,30
	mr 4,25
	lwz 0,56(9)
	mtctr 0
	crxor 6,6,6
	bctrl
	.loc 4 848 0
	b .L423
.LVL487:
.L456:
	.loc 4 842 0
	lwz 9,0(30)
	mr 3,30
	mr 4,24
	lwz 0,56(9)
	mtctr 0
	crxor 6,6,6
	bctrl
.LVL488:
	b .L443
.LVL489:
.L437:
	.loc 4 851 0
	lwz 9,0(30)
	li 4,2
	lwz 3,4(31)
	lwz 31,56(9)
.LVL490:
	bl _ZNK6idVec38ToStringEi
	lis 4,.LC22@ha
	mr 5,3
	la 4,.LC22@l(4)
	mr 3,30
	mtctr 31
	crxor 6,6,6
	bctrl
	.loc 4 852 0
	b .L423
.LBE2420:
	.cfi_endproc
.LFE2871:
	.size	_ZNK8idVarDef9PrintInfoEP6idFilei, .-_ZNK8idVarDef9PrintInfoEP6idFilei
	.align 2
	.globl _ZN12idVarDefName6AddDefEP8idVarDef
	.type	_ZN12idVarDefName6AddDefEP8idVarDef, @function
_ZN12idVarDefName6AddDefEP8idVarDef:
.LFB2872:
	.loc 4 886 0
	.cfi_startproc
.LVL491:
	.loc 4 888 0
	stw 3,24(4)
	.loc 4 891 0
	.loc 4 889 0
	lwz 0,32(3)
	stw 0,28(4)
	.loc 4 890 0
	stw 4,32(3)
	.loc 4 891 0
	blr
	.cfi_endproc
.LFE2872:
	.size	_ZN12idVarDefName6AddDefEP8idVarDef, .-_ZN12idVarDefName6AddDefEP8idVarDef
	.align 2
	.globl _ZN12idVarDefName9RemoveDefEP8idVarDef
	.type	_ZN12idVarDefName9RemoveDefEP8idVarDef, @function
_ZN12idVarDefName9RemoveDefEP8idVarDef:
.LFB2873:
	.loc 4 898 0
	.cfi_startproc
.LVL492:
.LBB2421:
.LBB2422:
	.loc 4 899 0
	lwz 9,32(3)
	cmpw 7,9,4
	bne+ 7,.L464
	b .L467
.LVL493:
.L462:
.LBB2423:
	.loc 4 903 0
	beq- 6,.L466
	mr 9,0
.LVL494:
.L464:
	.loc 4 902 0 discriminator 1
	lwz 0,28(9)
	cmpwi 7,0,0
	.loc 4 903 0 discriminator 1
	cmpw 6,4,0
	.loc 4 902 0 discriminator 1
	bne+ 7,.L462
.LBE2423:
.LBE2422:
	.loc 4 909 0
	li 0,0
.LBE2421:
	.loc 4 911 0
.LBB2428:
	.loc 4 909 0
	stw 0,28(4)
	.loc 4 910 0
	stw 0,24(4)
.LBE2428:
	.loc 4 911 0
	blr
.L466:
.LBB2429:
.LBB2425:
.LBB2424:
	.loc 4 904 0
	lwz 0,28(4)
	stw 0,28(9)
.LBE2424:
.LBE2425:
	.loc 4 909 0
	li 0,0
	stw 0,28(4)
	.loc 4 910 0
	stw 0,24(4)
.LBE2429:
	.loc 4 911 0
	blr
.LVL495:
.L467:
.LBB2430:
.LBB2426:
	.loc 4 900 0
	lwz 0,28(4)
.LBE2426:
.LBE2430:
	.loc 4 911 0
.LBB2431:
.LBB2427:
	.loc 4 900 0
	stw 0,32(3)
.LBE2427:
	.loc 4 909 0
	li 0,0
	stw 0,28(4)
	.loc 4 910 0
	stw 0,24(4)
.LBE2431:
	.loc 4 911 0
	blr
	.cfi_endproc
.LFE2873:
	.size	_ZN12idVarDefName9RemoveDefEP8idVarDef, .-_ZN12idVarDefName9RemoveDefEP8idVarDef
	.align 2
	.globl _ZN14idScriptObjectC2Ev
	.type	_ZN14idScriptObjectC2Ev, @function
_ZN14idScriptObjectC2Ev:
.LFB2875:
	.loc 4 924 0
	.cfi_startproc
.LVL496:
	stwu 1,-16(1)
.LCFI96:
	.cfi_def_cfa_offset 16
	mflr 0
.LBB2432:
	.loc 4 926 0
	li 4,8
.LBE2432:
	.loc 4 924 0
	stw 31,12(1)
	mr 31,3
	.cfi_offset 31, -4
	.cfi_register 65, 0
.LBB2433:
	.loc 4 926 0
	lis 3,.LC28@ha
.LVL497:
.LBE2433:
	.loc 4 924 0
	stw 0,20(1)
.LBB2434:
	.loc 4 926 0
	la 3,.LC28@l(3)
	.cfi_offset 65, 4
	crxor 6,6,6
	bl _Z15Sys_DebugPrintfPKcz
	.loc 4 929 0
	li 0,0
	.loc 4 930 0
	lis 9,.LANCHOR0@ha
	.loc 4 929 0
	stw 0,4(31)
	.loc 4 930 0
	la 0,.LANCHOR0@l(9)
	stw 0,0(31)
.LBE2434:
	.loc 4 931 0
	lwz 0,20(1)
	lwz 31,12(1)
.LVL498:
	mtlr 0
	addi 1,1,16
.LCFI97:
	.cfi_def_cfa_offset 0
	.cfi_restore 31
	blr
	.cfi_endproc
.LFE2875:
	.size	_ZN14idScriptObjectC2Ev, .-_ZN14idScriptObjectC2Ev
	.align 2
	.globl _ZN14idScriptObject4FreeEv
	.type	_ZN14idScriptObject4FreeEv, @function
_ZN14idScriptObject4FreeEv:
.LFB2880:
	.loc 4 947 0
	.cfi_startproc
.LVL499:
	mflr 0
	stwu 1,-16(1)
.LCFI98:
	.cfi_def_cfa_offset 16
	.cfi_register 65, 0
	stw 31,12(1)
	mr 31,3
	.cfi_offset 31, -4
	stw 0,20(1)
	.loc 4 948 0
	lwz 3,4(3)
.LVL500:
	cmpwi 7,3,0
	beq- 7,.L470
	.cfi_offset 65, 4
	.loc 4 949 0
	bl _Z8Mem_FreePv
.L470:
	.loc 4 952 0
	li 0,0
	.loc 4 953 0
	lis 9,.LANCHOR0@ha
	.loc 4 952 0
	stw 0,4(31)
	.loc 4 953 0
	la 0,.LANCHOR0@l(9)
	stw 0,0(31)
	.loc 4 954 0
	lwz 0,20(1)
	lwz 31,12(1)
.LVL501:
	mtlr 0
	addi 1,1,16
.LCFI99:
	.cfi_def_cfa_offset 0
	.cfi_restore 31
	blr
	.cfi_endproc
.LFE2880:
	.size	_ZN14idScriptObject4FreeEv, .-_ZN14idScriptObject4FreeEv
	.align 2
	.globl _ZN14idScriptObjectD2Ev
	.type	_ZN14idScriptObjectD2Ev, @function
_ZN14idScriptObjectD2Ev:
.LFB2878:
	.loc 4 938 0
	.cfi_startproc
.LVL502:
	.loc 4 940 0
.LBB2435:
	.loc 4 939 0
	b _ZN14idScriptObject4FreeEv
.LVL503:
.LBE2435:
	.cfi_endproc
.LFE2878:
	.size	_ZN14idScriptObjectD2Ev, .-_ZN14idScriptObjectD2Ev
	.align 2
	.globl _ZNK14idScriptObject4SaveEP10idSaveGame
	.type	_ZNK14idScriptObject4SaveEP10idSaveGame, @function
_ZNK14idScriptObject4SaveEP10idSaveGame:
.LFB2881:
	.loc 4 961 0
	.cfi_startproc
.LVL504:
	mflr 0
	stwu 1,-24(1)
.LCFI100:
	.cfi_def_cfa_offset 24
	.cfi_register 65, 0
.LBB2436:
	.loc 4 964 0
	lis 11,.LANCHOR0@ha
.LBE2436:
	.loc 4 961 0
	stw 30,16(1)
	mr 30,4
	.cfi_offset 30, -8
	stw 0,28(1)
.LBB2441:
	.loc 4 964 0
	la 0,.LANCHOR0@l(11)
	.cfi_offset 65, 4
.LBE2441:
	.loc 4 961 0
	stw 31,20(1)
	mr 31,3
	.cfi_offset 31, -4
	stw 29,12(1)
.LBB2442:
	.loc 4 964 0
	lwz 9,0(3)
	cmpw 7,9,0
	beq- 7,.L476
	.cfi_offset 29, -12
.L474:
.LVL505:
	.loc 4 968 0
	lwz 4,8(9)
.LVL506:
	mr 3,30
.LVL507:
	bl _ZN10idSaveGame11WriteStringEPKc
.LVL508:
.LBB2437:
.LBB2438:
	.loc 4 393 0
	lwz 9,0(31)
.LBE2438:
.LBE2437:
	.loc 4 970 0
	mr 3,30
.LBB2440:
.LBB2439:
	.loc 4 393 0
	lwz 29,36(9)
.LVL509:
.LBE2439:
.LBE2440:
	.loc 4 970 0
	mr 4,29
	bl _ZN10idSaveGame8WriteIntEi
.LVL510:
	.loc 4 971 0
	lwz 4,4(31)
	mr 3,30
	mr 5,29
	bl _ZN10idSaveGame5WriteEPKvi
.LVL511:
.L473:
.LBE2442:
	.loc 4 973 0
	lwz 0,28(1)
	lwz 29,12(1)
	mtlr 0
	lwz 30,16(1)
.LVL512:
	lwz 31,20(1)
.LVL513:
	addi 1,1,24
	.cfi_remember_state
.LCFI101:
	.cfi_def_cfa_offset 0
	.cfi_restore 31
	.cfi_restore 30
	.cfi_restore 29
	blr
.LVL514:
.L476:
.LCFI102:
	.cfi_restore_state
.LBB2443:
	.loc 4 964 0 discriminator 1
	lwz 0,4(3)
	cmpwi 7,0,0
	bne+ 7,.L474
	.loc 4 966 0
	mr 3,4
.LVL515:
	lis 4,.LC29@ha
.LVL516:
	la 4,.LC29@l(4)
	bl _ZN10idSaveGame11WriteStringEPKc
	b .L473
.LBE2443:
	.cfi_endproc
.LFE2881:
	.size	_ZNK14idScriptObject4SaveEP10idSaveGame, .-_ZNK14idScriptObject4SaveEP10idSaveGame
	.align 2
	.globl _ZN14idScriptObject11ClearObjectEv
	.type	_ZN14idScriptObject11ClearObjectEv, @function
_ZN14idScriptObject11ClearObjectEv:
.LFB2884:
	.loc 4 1051 0
	.cfi_startproc
.LVL517:
	mflr 0
	stwu 1,-8(1)
.LCFI103:
	.cfi_def_cfa_offset 8
	.cfi_register 65, 0
.LBB2444:
	.loc 4 1054 0
	lis 11,.LANCHOR0@ha
.LBE2444:
	.loc 4 1051 0
	stw 0,12(1)
.LBB2445:
	.loc 4 1054 0
	la 0,.LANCHOR0@l(11)
	.cfi_offset 65, 4
	lwz 9,0(3)
	cmpw 7,9,0
	beq- 7,.L477
.LVL518:
	.loc 4 1057 0
	lwz 3,4(3)
.LVL519:
	li 4,0
	lwz 5,36(9)
	bl memset
.LVL520:
.L477:
.LBE2445:
	.loc 4 1059 0
	lwz 0,12(1)
	addi 1,1,8
.LCFI104:
	.cfi_def_cfa_offset 0
	mtlr 0
	blr
	.cfi_endproc
.LFE2884:
	.size	_ZN14idScriptObject11ClearObjectEv, .-_ZN14idScriptObject11ClearObjectEv
	.align 2
	.globl _ZNK14idScriptObject9HasObjectEv
	.type	_ZNK14idScriptObject9HasObjectEv, @function
_ZNK14idScriptObject9HasObjectEv:
.LFB2885:
	.loc 4 1066 0
	.cfi_startproc
.LVL521:
	.loc 4 1067 0
	lwz 0,0(3)
	lis 3,.LANCHOR0@ha
.LVL522:
	la 3,.LANCHOR0@l(3)
	.loc 4 1068 0
	.loc 4 1067 0
	xor 3,3,0
	cntlzw 3,3
	srwi 3,3,5
	.loc 4 1068 0
	xori 3,3,1
	blr
	.cfi_endproc
.LFE2885:
	.size	_ZNK14idScriptObject9HasObjectEv, .-_ZNK14idScriptObject9HasObjectEv
	.align 2
	.globl _ZNK14idScriptObject10GetTypeDefEv
	.type	_ZNK14idScriptObject10GetTypeDefEv, @function
_ZNK14idScriptObject10GetTypeDefEv:
.LFB2886:
	.loc 4 1075 0
	.cfi_startproc
.LVL523:
	.loc 4 1077 0
	lwz 3,0(3)
.LVL524:
	blr
	.cfi_endproc
.LFE2886:
	.size	_ZNK14idScriptObject10GetTypeDefEv, .-_ZNK14idScriptObject10GetTypeDefEv
	.align 2
	.globl _ZNK14idScriptObject11GetTypeNameEv
	.type	_ZNK14idScriptObject11GetTypeNameEv, @function
_ZNK14idScriptObject11GetTypeNameEv:
.LFB2887:
	.loc 4 1084 0
	.cfi_startproc
.LVL525:
.LBB2446:
.LBB2447:
	.loc 4 2214 0
	lwz 9,0(3)
.LBE2447:
.LBE2446:
	.loc 4 1086 0
	lwz 3,8(9)
.LVL526:
	blr
	.cfi_endproc
.LFE2887:
	.size	_ZNK14idScriptObject11GetTypeNameEv, .-_ZNK14idScriptObject11GetTypeNameEv
	.align 2
	.globl _ZNK14idScriptObject11GetVariableEPKc7etype_t
	.type	_ZNK14idScriptObject11GetVariableEPKc7etype_t, @function
_ZNK14idScriptObject11GetVariableEPKc7etype_t:
.LFB2891:
	.loc 4 1133 0
	.cfi_startproc
.LVL527:
	mflr 0
	stwu 1,-40(1)
.LCFI105:
	.cfi_def_cfa_offset 40
	.cfi_register 65, 0
	stw 24,8(1)
	mr 24,5
	.cfi_offset 24, -32
	stw 28,24(1)
	mr 28,3
	.cfi_offset 28, -16
	stw 29,28(1)
	mr 29,4
	.cfi_offset 29, -12
	stw 30,32(1)
.LBB2448:
	.loc 4 1139 0
	lis 30,.LANCHOR0@ha
	.cfi_offset 30, -8
.LBE2448:
	.loc 4 1133 0
	stw 0,44(1)
.LBB2461:
	.loc 4 1139 0
	la 30,.LANCHOR0@l(30)
.LBE2461:
	.loc 4 1133 0
	stw 25,12(1)
	stw 26,16(1)
	stw 27,20(1)
	stw 31,36(1)
.LBB2462:
	.loc 4 1139 0
	lwz 31,0(3)
	.cfi_offset 31, -4
	.cfi_offset 27, -20
	.cfi_offset 26, -24
	.cfi_offset 25, -28
	.cfi_offset 65, 4
	.loc 4 1140 0
	li 3,0
.LVL528:
	.loc 4 1139 0
	cmpw 7,31,30
	beq- 7,.L483
.LVL529:
.L495:
	.loc 4 1145 0
	mr 3,31
	.loc 4 1148 0
	li 25,0
	.loc 4 1145 0
	bl _ZNK9idTypeDef10SuperClassEv
	cmpw 7,30,3
	beq- 7,.L484
	.loc 4 1146 0
	mr 3,31
	bl _ZNK9idTypeDef10SuperClassEv
.LVL530:
.LBB2449:
.LBB2450:
	.loc 4 393 0
	lwz 25,36(3)
.LVL531:
.L484:
.LBE2450:
.LBE2449:
	.loc 4 1150 0 discriminator 1
	lwz 0,44(31)
	cmpwi 7,0,0
	ble- 7,.L485
	.loc 4 1150 0 is_stmt 0
	li 27,0
	b .L489
.LVL532:
.L499:
	.loc 4 1160 0 is_stmt 1
	lwz 0,36(30)
	.loc 4 1150 0
	addi 27,27,1
.LVL533:
	.loc 4 1160 0
	add 25,25,0
.LVL534:
	.loc 4 1150 0
	lwz 0,44(31)
	cmpw 7,27,0
	bge- 7,.L485
.LVL535:
.L489:
.LBB2451:
.LBB2452:
	.loc 4 2214 0
	lwz 11,72(31)
	slwi 0,27,5
.LBE2452:
.LBE2451:
.LBB2454:
.LBB2455:
	.loc 4 518 0
	lwz 9,56(31)
.LBE2455:
.LBE2454:
	.loc 4 1152 0
	mr 4,29
.LBB2458:
.LBB2453:
	.loc 4 2214 0
	add 11,11,0
.LBE2453:
.LBE2458:
.LBB2459:
.LBB2456:
	.loc 4 518 0
	slwi 0,27,2
.LBE2456:
.LBE2459:
	.loc 4 1152 0
	lwz 3,4(11)
.LBB2460:
.LBB2457:
	.loc 4 518 0
	lwzx 26,9,0
.LVL536:
.LBE2457:
.LBE2460:
	.loc 4 1152 0
	bl _ZN5idStr3CmpEPKcS1_
.LVL537:
	cmpwi 7,3,0
	.loc 4 1159 0
	mr 3,26
	.loc 4 1152 0
	beq- 7,.L498
	.loc 4 1159 0
	bl _ZNK9idTypeDef9FieldTypeEv
	mr 4,30
	bl _ZNK9idTypeDef8InheritsEPKS_
	cmpwi 7,3,0
	bne+ 7,.L499
	.loc 4 1162 0
	mr 3,26
	.loc 4 1150 0
	addi 27,27,1
.LVL538:
	.loc 4 1162 0
	bl _ZNK9idTypeDef9FieldTypeEv
.LVL539:
	lwz 0,36(3)
	add 25,25,0
.LVL540:
	.loc 4 1150 0
	lwz 0,44(31)
	cmpw 7,27,0
	blt+ 7,.L489
.LVL541:
.L485:
	.loc 4 1165 0
	mr 3,31
	bl _ZNK9idTypeDef10SuperClassEv
.LVL542:
	.loc 4 1144 0
	mr. 31,3
.LVL543:
	beq- 0,.L494
	.loc 4 1144 0 is_stmt 0 discriminator 1
	cmpw 7,31,30
	bne+ 7,.L495
.L494:
	.loc 4 1168 0 is_stmt 1
	li 3,0
.LVL544:
.L483:
.LBE2462:
	.loc 4 1169 0
	lwz 0,44(1)
	lwz 24,8(1)
.LVL545:
	mtlr 0
	lwz 25,12(1)
	lwz 26,16(1)
	lwz 27,20(1)
	lwz 28,24(1)
.LVL546:
	lwz 29,28(1)
.LVL547:
	lwz 30,32(1)
	lwz 31,36(1)
	addi 1,1,40
	.cfi_remember_state
.LCFI106:
	.cfi_def_cfa_offset 0
	.cfi_restore 31
	.cfi_restore 30
	.cfi_restore 29
	.cfi_restore 28
	.cfi_restore 27
	.cfi_restore 26
	.cfi_restore 25
	.cfi_restore 24
	blr
.LVL548:
.L498:
.LCFI107:
	.cfi_restore_state
.LBB2463:
	.loc 4 1153 0
	bl _ZNK9idTypeDef9FieldTypeEv
.LVL549:
	lwz 0,0(3)
	.loc 4 1154 0
	li 3,0
.LVL550:
	.loc 4 1153 0
	cmpw 7,24,0
	bne- 7,.L483
.LBE2463:
	.loc 4 1169 0
	lwz 0,44(1)
.LBB2464:
	.loc 4 1156 0
	lwz 3,4(28)
.LBE2464:
	.loc 4 1169 0
	mtlr 0
	lwz 24,8(1)
.LVL551:
.LBB2465:
	.loc 4 1156 0
	add 3,3,25
.LBE2465:
	.loc 4 1169 0
	lwz 26,16(1)
.LVL552:
	lwz 25,12(1)
.LVL553:
	lwz 27,20(1)
.LVL554:
	lwz 28,24(1)
.LVL555:
	lwz 29,28(1)
.LVL556:
	lwz 30,32(1)
	lwz 31,36(1)
.LVL557:
	addi 1,1,40
	.cfi_restore 24
	.cfi_restore 25
	.cfi_restore 26
	.cfi_restore 27
	.cfi_restore 28
	.cfi_restore 29
	.cfi_restore 30
	.cfi_restore 31
.LCFI108:
	.cfi_def_cfa_offset 0
	blr
	.cfi_endproc
.LFE2891:
	.size	_ZNK14idScriptObject11GetVariableEPKc7etype_t, .-_ZNK14idScriptObject11GetVariableEPKc7etype_t
	.align 2
	.globl _ZN9idProgram8FindTypeEPKc
	.type	_ZN9idProgram8FindTypeEPKc, @function
_ZN9idProgram8FindTypeEPKc:
.LFB2895:
	.loc 4 1238 0
	.cfi_startproc
.LVL558:
	mflr 0
	stwu 1,-32(1)
.LCFI109:
	.cfi_def_cfa_offset 32
	.cfi_register 65, 0
	stw 27,12(1)
	mr 27,4
	.cfi_offset 27, -20
	stw 28,16(1)
.LBB2466:
	.loc 4 2214 0
	addis 28,3,0x23
	.cfi_offset 28, -16
.LBE2466:
	.loc 4 1238 0
	stw 29,20(1)
.LBB2467:
	.loc 4 1249 0
	li 29,0
	.cfi_offset 29, -12
.LBE2467:
	.loc 4 1238 0
	stw 0,36(1)
	stw 30,24(1)
	stw 31,28(1)
.LBB2468:
	.loc 4 1242 0
	lwz 31,-16316(28)
	.cfi_offset 31, -4
	.cfi_offset 30, -8
	.cfi_offset 65, 4
.LVL559:
	addic. 31,31,-1
	blt- 0,.L501
	slwi 30,31,2
	b .L502
.LVL560:
.L506:
	beq- 6,.L505
.LVL561:
.L502:
	.loc 4 1243 0
	lwz 9,-16304(28)
	.loc 4 1244 0
	mr 4,27
	.loc 4 1243 0
	lwzx 29,9,30
.LVL562:
	.loc 4 1242 0
	addi 30,30,-4
.LVL563:
	.loc 4 1244 0
	lwz 3,8(29)
	bl _ZN5idStr3CmpEPKcS1_
.LVL564:
	.loc 4 1242 0
	cmpwi 6,31,0
	.loc 4 1244 0
	cmpwi 7,3,0
	.loc 4 1242 0
	addi 31,31,-1
.LVL565:
	.loc 4 1244 0
	bne+ 7,.L506
.LVL566:
.L501:
.LBE2468:
	.loc 4 1250 0
	lwz 0,36(1)
	mr 3,29
	lwz 27,12(1)
.LVL567:
	mtlr 0
	lwz 28,16(1)
.LVL568:
	lwz 29,20(1)
	lwz 30,24(1)
	lwz 31,28(1)
	addi 1,1,32
	.cfi_remember_state
.LCFI110:
	.cfi_def_cfa_offset 0
	.cfi_restore 31
	.cfi_restore 30
	.cfi_restore 29
	.cfi_restore 28
	.cfi_restore 27
	blr
.LVL569:
.L505:
.LCFI111:
	.cfi_restore_state
	lwz 0,36(1)
.LBB2469:
	.loc 4 1249 0
	li 29,0
.LVL570:
.LBE2469:
	.loc 4 1250 0
	mr 3,29
	lwz 27,12(1)
.LVL571:
	mtlr 0
	lwz 28,16(1)
.LVL572:
	lwz 29,20(1)
	lwz 30,24(1)
	lwz 31,28(1)
.LVL573:
	addi 1,1,32
	.cfi_restore 27
	.cfi_restore 28
	.cfi_restore 29
	.cfi_restore 30
	.cfi_restore 31
.LCFI112:
	.cfi_def_cfa_offset 0
	blr
	.cfi_endproc
.LFE2895:
	.size	_ZN9idProgram8FindTypeEPKc, .-_ZN9idProgram8FindTypeEPKc
	.align 2
	.globl _ZN14idScriptObject7SetTypeEPKc
	.type	_ZN14idScriptObject7SetTypeEPKc, @function
_ZN14idScriptObject7SetTypeEPKc:
.LFB2883:
	.loc 4 1010 0
	.cfi_startproc
.LVL574:
	stwu 1,-24(1)
.LCFI113:
	.cfi_def_cfa_offset 24
	mflr 0
	stw 30,16(1)
	mr 30,3
	.cfi_offset 30, -8
	.cfi_register 65, 0
.LBB2470:
	.loc 4 1015 0
	lis 3,gameLocal+33476@ha
.LVL575:
.LBE2470:
	.loc 4 1010 0
	stw 0,28(1)
.LBB2471:
	.loc 4 1015 0
	la 3,gameLocal+33476@l(3)
.LBE2471:
	.loc 4 1010 0
	stw 29,12(1)
	stw 31,20(1)
	.loc 4 1010 0
	mr 29,4
	.cfi_offset 31, -4
	.cfi_offset 29, -12
	.cfi_offset 65, 4
.LBB2472:
	.loc 4 1015 0
	bl _ZN9idProgram8FindTypeEPKc
.LVL576:
	.loc 4 1018 0
	lwz 0,0(30)
	.loc 4 1015 0
	mr 31,3
.LVL577:
	.loc 4 1018 0
	cmpw 7,3,0
	beq- 7,.L508
	.loc 4 1019 0
	mr 3,30
.LVL578:
	bl _ZN14idScriptObject4FreeEv
	.loc 4 1020 0
	cmpwi 7,31,0
	beq- 7,.L512
	.loc 4 1025 0
	lis 4,.LANCHOR0@ha
	mr 3,31
	la 4,.LANCHOR0@l(4)
	bl _ZNK9idTypeDef8InheritsEPKS_
	cmpwi 7,3,0
	beq- 7,.L513
	.loc 4 1031 0
	stw 31,0(30)
.LVL579:
	.loc 4 1035 0
	lwz 3,36(31)
	bl _Z9Mem_Alloci
.LVL580:
	stw 3,4(30)
.LVL581:
.L508:
	.loc 4 1039 0
	mr 3,30
	bl _ZN14idScriptObject11ClearObjectEv
	.loc 4 1041 0
	li 3,1
.L510:
.LBE2472:
	.loc 4 1042 0
	lwz 0,28(1)
	lwz 29,12(1)
.LVL582:
	mtlr 0
	lwz 30,16(1)
.LVL583:
	lwz 31,20(1)
.LVL584:
	addi 1,1,24
	.cfi_remember_state
.LCFI114:
	.cfi_def_cfa_offset 0
	.cfi_restore 31
	.cfi_restore 30
	.cfi_restore 29
	blr
.LVL585:
.L513:
.LCFI115:
	.cfi_restore_state
.LBB2473:
	.loc 4 1026 0
	lwz 5,8(31)
	lis 3,gameLocal@ha
	lis 4,.LC31@ha
	la 3,gameLocal@l(3)
	la 4,.LC31@l(4)
	crxor 6,6,6
	bl _ZNK11idGameLocal7WarningEPKcz
.LBE2473:
	.loc 4 1042 0
	lwz 0,28(1)
	lwz 29,12(1)
.LVL586:
.LBB2474:
	.loc 4 1027 0
	li 3,0
.LBE2474:
	.loc 4 1042 0
	mtlr 0
	lwz 30,16(1)
.LVL587:
	lwz 31,20(1)
.LVL588:
	addi 1,1,24
	.cfi_remember_state
	.cfi_restore 29
	.cfi_restore 30
	.cfi_restore 31
.LCFI116:
	.cfi_def_cfa_offset 0
	blr
.LVL589:
.L512:
.LCFI117:
	.cfi_restore_state
.LBB2475:
	.loc 4 1021 0
	lis 3,gameLocal@ha
	lis 4,.LC30@ha
	la 3,gameLocal@l(3)
	la 4,.LC30@l(4)
	mr 5,29
	crxor 6,6,6
	bl _ZNK11idGameLocal7WarningEPKcz
	.loc 4 1022 0
	li 3,0
	b .L510
.LBE2475:
	.cfi_endproc
.LFE2883:
	.size	_ZN14idScriptObject7SetTypeEPKc, .-_ZN14idScriptObject7SetTypeEPKc
	.align 2
	.globl _ZN14idScriptObject7RestoreEP13idRestoreGame
	.type	_ZN14idScriptObject7RestoreEP13idRestoreGame, @function
_ZN14idScriptObject7RestoreEP13idRestoreGame:
.LFB2882:
	.loc 4 980 0
	.cfi_startproc
	.cfi_personality 0,__gxx_personality_v0
	.cfi_lsda 0,.LLSDA2882
.LVL590:
	mflr 0
	stwu 1,-64(1)
.LCFI118:
	.cfi_def_cfa_offset 64
	.cfi_register 65, 0
.LVL591:
.LBB2476:
.LBB2477:
.LBB2478:
.LBB2479:
	.loc 5 357 0
	li 9,20
.LBE2479:
.LBE2478:
.LBE2477:
.LBE2476:
	.loc 4 980 0
	stw 30,56(1)
	mr 30,3
	.cfi_offset 30, -8
	stw 0,68(1)
.LBB2500:
	.loc 4 984 0
	mr 3,4
.LVL592:
.LBB2488:
.LBB2484:
.LBB2480:
	.loc 5 356 0
	li 0,0
	.cfi_offset 65, 4
.LBE2480:
.LBE2484:
.LBE2488:
.LBE2500:
	.loc 4 980 0
	stw 31,60(1)
.LBB2501:
.LBB2489:
.LBB2485:
.LBB2481:
	.loc 5 357 0
	stw 9,20(1)
.LBE2481:
.LBE2485:
.LBE2489:
.LBE2501:
	.loc 4 980 0
	mr 31,4
	.cfi_offset 31, -4
.LBB2502:
.LBB2490:
.LBB2486:
.LBB2482:
	.loc 5 358 0
	addi 9,1,24
.LBE2482:
.LBE2486:
.LBE2490:
	.loc 4 984 0
	addi 4,1,12
.LVL593:
.LBB2491:
.LBB2487:
.LBB2483:
	.loc 5 356 0
	stw 0,12(1)
	.loc 5 358 0
	stw 9,16(1)
	.loc 5 359 0
	stb 0,24(1)
.LEHB10:
.LBE2483:
.LBE2487:
.LBE2491:
	.loc 4 984 0
	bl _ZN13idRestoreGame10ReadStringER5idStr
.LVL594:
	.loc 4 987 0
	lwz 0,12(1)
	cmpwi 7,0,0
	beq- 7,.L515
.LVL595:
	.loc 4 991 0
	lwz 4,16(1)
	mr 3,30
	bl _ZN14idScriptObject7SetTypeEPKc
	cmpwi 7,3,0
	beq- 7,.L523
.L516:
	.loc 4 995 0
	mr 3,31
	addi 4,1,8
	bl _ZN13idRestoreGame7ReadIntERi
.LVL596:
.LBB2492:
.LBB2493:
	.loc 4 393 0
	lwz 9,0(30)
.LVL597:
.LBE2493:
.LBE2492:
	.loc 4 996 0
	lwz 5,8(1)
	lwz 0,36(9)
	cmpw 7,0,5
	beq- 7,.L517
	.loc 4 997 0
	lis 4,.LC33@ha
	lwz 5,16(1)
	mr 3,31
	la 4,.LC33@l(4)
	crxor 6,6,6
	bl _ZN13idRestoreGame5ErrorEPKcz
.LVL598:
	lwz 5,8(1)
.L517:
	.loc 4 1000 0
	lwz 4,4(30)
	mr 3,31
	bl _ZN13idRestoreGame4ReadEPvi
.LEHE10:
.LVL599:
.L515:
.LBB2494:
.LBB2495:
.LBB2496:
	.loc 5 501 0
	addi 3,1,12
.LEHB11:
	bl _ZN5idStr8FreeDataEv
.LEHE11:
.LBE2496:
.LBE2495:
.LBE2494:
.LBE2502:
	.loc 4 1001 0
	lwz 0,68(1)
	lwz 30,56(1)
.LVL600:
	mtlr 0
	lwz 31,60(1)
.LVL601:
	addi 1,1,64
	.cfi_remember_state
.LCFI119:
	.cfi_def_cfa_offset 0
	.cfi_restore 31
	.cfi_restore 30
	blr
.LVL602:
.L523:
.LCFI120:
	.cfi_restore_state
.LBB2503:
	.loc 4 992 0
	lis 4,.LC32@ha
	lwz 5,16(1)
	mr 3,31
	la 4,.LC32@l(4)
.LEHB12:
	crxor 6,6,6
	bl _ZN13idRestoreGame5ErrorEPKcz
.LEHE12:
	b .L516
.LVL603:
.L522:
	mr 31,3
.LVL604:
.LBB2497:
.LBB2498:
.LBB2499:
	.loc 5 501 0
	addi 3,1,12
	bl _ZN5idStr8FreeDataEv
	mr 3,31
.LEHB13:
	bl _Unwind_Resume
.LEHE13:
.LBE2499:
.LBE2498:
.LBE2497:
.LBE2503:
	.cfi_endproc
.LFE2882:
	.section	.gcc_except_table
.LLSDA2882:
	.byte	0xff
	.byte	0xff
	.byte	0x1
	.uleb128 .LLSDACSE2882-.LLSDACSB2882
.LLSDACSB2882:
	.uleb128 .LEHB10-.LFB2882
	.uleb128 .LEHE10-.LEHB10
	.uleb128 .L522-.LFB2882
	.uleb128 0
	.uleb128 .LEHB11-.LFB2882
	.uleb128 .LEHE11-.LEHB11
	.uleb128 0
	.uleb128 0
	.uleb128 .LEHB12-.LFB2882
	.uleb128 .LEHE12-.LEHB12
	.uleb128 .L522-.LFB2882
	.uleb128 0
	.uleb128 .LEHB13-.LFB2882
	.uleb128 .LEHE13-.LEHB13
	.uleb128 0
	.uleb128 0
.LLSDACSE2882:
	.section	".text"
	.size	_ZN14idScriptObject7RestoreEP13idRestoreGame, .-_ZN14idScriptObject7RestoreEP13idRestoreGame
	.align 2
	.globl _ZNK9idProgram10GetDefListEPKc
	.type	_ZNK9idProgram10GetDefListEPKc, @function
_ZNK9idProgram10GetDefListEPKc:
.LFB2896:
	.loc 4 1257 0
	.cfi_startproc
.LVL605:
	mflr 0
	stwu 1,-24(1)
.LCFI121:
	.cfi_def_cfa_offset 24
	.cfi_register 65, 0
.LBB2529:
.LBB2530:
.LBB2531:
.LBB2532:
.LBB2533:
	.loc 5 976 0
	li 11,0
.LBE2533:
.LBE2532:
.LBE2531:
.LBE2530:
.LBE2529:
	.loc 4 1257 0
	stw 28,8(1)
	mr 28,4
	.cfi_offset 28, -16
.LVL606:
	stw 30,16(1)
	addis 30,3,0x23
	.cfi_offset 30, -8
	stw 0,28(1)
	stw 29,12(1)
	stw 31,20(1)
.LBB2552:
.LBB2540:
.LBB2538:
.LBB2536:
.LBB2534:
	.loc 5 976 0
	lbz 0,0(4)
	.cfi_offset 31, -4
	.cfi_offset 29, -12
	.cfi_offset 65, 4
	cmpwi 7,0,0
	beq- 7,.L525
.LVL607:
	mr 10,4
.LBE2534:
.LBE2536:
.LBE2538:
.LBE2540:
.LBE2552:
	.loc 4 1257 0
	li 9,119
.LVL608:
.L526:
.LBB2553:
.LBB2541:
.LBB2539:
.LBB2537:
.LBB2535:
	.loc 5 977 0
	mullw 8,0,9
	.loc 5 976 0
	lbzu 0,1(10)
	addi 9,9,1
	cmpwi 7,0,0
	.loc 5 977 0
	add 11,11,8
.LVL609:
	.loc 5 976 0
	bne+ 7,.L526
	addis 30,3,0x23
	lwz 9,-16264(30)
	lwz 0,-16260(30)
	and 0,9,0
	and 11,0,11
.LVL610:
	slwi 11,11,2
.L525:
.LBE2535:
.LBE2537:
.LBE2539:
.LBE2541:
.LBB2542:
.LBB2543:
	.file 8 "d:/Data/Nintendo/DoomGX/src/game/script/../../idlib/../idlib/containers/HashIndex.h"
	.loc 8 239 0
	lwz 9,-16280(30)
.LBE2543:
.LBE2542:
	.loc 4 1266 0
	li 3,0
.LVL611:
.LBB2545:
.LBB2544:
	.loc 8 239 0
	lwzx 31,9,11
.LVL612:
.LBE2544:
.LBE2545:
	.loc 4 1261 0
	cmpwi 7,31,-1
	bne+ 7,.L532
	b .L527
.LVL613:
.L528:
.LBB2546:
.LBB2547:
	.loc 8 249 0
	lwz 0,-16260(30)
	lwz 9,-16272(30)
	and 31,31,0
.LVL614:
	slwi 31,31,2
	lwzx 31,9,31
.LVL615:
.LBE2547:
.LBE2546:
	.loc 4 1261 0
	cmpwi 7,31,-1
	beq- 7,.L535
.LVL616:
.L532:
	.loc 4 1262 0
	lwz 9,-16288(30)
.LBB2548:
.LBB2549:
	.loc 6 573 0
	slwi 29,31,2
.LBE2549:
.LBE2548:
	.loc 4 1262 0
	mr 4,28
.LBB2550:
.LBB2551:
	.loc 4 2214 0
	lwzx 9,9,29
.LBE2551:
.LBE2550:
	.loc 4 1262 0
	lwz 3,4(9)
	bl _ZN5idStr3CmpEPKcS1_
	cmpwi 7,3,0
	bne+ 7,.L528
	.loc 4 1263 0
	lwz 9,-16288(30)
	.loc 4 2214 0
	lwzx 9,9,29
	lwz 3,32(9)
.LVL617:
.L527:
.LBE2553:
	.loc 4 1267 0
	lwz 0,28(1)
	lwz 28,8(1)
.LVL618:
	mtlr 0
	lwz 29,12(1)
	lwz 30,16(1)
	lwz 31,20(1)
.LVL619:
	addi 1,1,24
	.cfi_remember_state
.LCFI122:
	.cfi_def_cfa_offset 0
	.cfi_restore 31
	.cfi_restore 30
	.cfi_restore 29
	.cfi_restore 28
	blr
.LVL620:
.L535:
.LCFI123:
	.cfi_restore_state
	lwz 0,28(1)
.LBB2554:
	.loc 4 1266 0
	li 3,0
.LBE2554:
	.loc 4 1267 0
	lwz 28,8(1)
.LVL621:
	mtlr 0
	lwz 29,12(1)
	lwz 30,16(1)
	lwz 31,20(1)
.LVL622:
	addi 1,1,24
	.cfi_restore 28
	.cfi_restore 29
	.cfi_restore 30
	.cfi_restore 31
.LCFI124:
	.cfi_def_cfa_offset 0
	blr
	.cfi_endproc
.LFE2896:
	.size	_ZNK9idProgram10GetDefListEPKc, .-_ZNK9idProgram10GetDefListEPKc
	.align 2
	.globl _ZN9idProgram16AddDefToNameListEP8idVarDefPKc
	.type	_ZN9idProgram16AddDefToNameListEP8idVarDefPKc, @function
_ZN9idProgram16AddDefToNameListEP8idVarDefPKc:
.LFB2897:
	.loc 4 1274 0
	.cfi_startproc
	.cfi_personality 0,__gxx_personality_v0
	.cfi_lsda 0,.LLSDA2897
.LVL623:
	mflr 0
	stwu 1,-32(1)
.LCFI125:
	.cfi_def_cfa_offset 32
	.cfi_register 65, 0
	stw 26,8(1)
	mr 26,5
	.cfi_offset 26, -24
.LVL624:
	stw 30,24(1)
	mr 30,4
	.cfi_offset 30, -8
	stw 0,36(1)
	stw 27,12(1)
	stw 28,16(1)
	stw 29,20(1)
	stw 31,28(1)
.LBB2606:
.LBB2607:
.LBB2608:
.LBB2609:
.LBB2610:
	.loc 5 976 0
	lbz 0,0(5)
	.cfi_offset 31, -4
	.cfi_offset 29, -12
	.cfi_offset 28, -16
	.cfi_offset 27, -20
	.cfi_offset 65, 4
	cmpwi 7,0,0
	beq- 7,.L565
.LVL625:
	mr 11,5
.LBE2610:
.LBE2609:
.LBE2608:
.LBE2607:
.LBE2606:
	.loc 4 1274 0
	li 9,119
	li 28,0
.LVL626:
.L538:
.LBB2693:
.LBB2617:
.LBB2615:
.LBB2613:
.LBB2611:
	.loc 5 977 0
	mullw 10,0,9
	.loc 5 976 0
	lbzu 0,1(11)
	addi 9,9,1
	cmpwi 7,0,0
	.loc 5 977 0
	add 28,28,10
.LVL627:
	.loc 5 976 0
	bne+ 7,.L538
	addis 31,3,0x23
	lwz 0,-16264(31)
	lwz 9,-16260(31)
	and 28,28,0
.LVL628:
	and 0,0,9
	and 0,0,28
	slwi 0,0,2
.L537:
.LBE2611:
.LBE2613:
.LBE2615:
.LBE2617:
.LBB2618:
.LBB2619:
	.loc 8 239 0
	lwz 9,-16280(31)
	lwzx 29,9,0
.LVL629:
.LBE2619:
.LBE2618:
	.loc 4 1278 0
	cmpwi 7,29,-1
	bne+ 7,.L569
	b .L539
.LVL630:
.L575:
.LBB2620:
.LBB2621:
	.loc 8 249 0
	lwz 0,-16260(31)
	lwz 9,-16272(31)
	and 29,29,0
.LVL631:
	slwi 29,29,2
	lwzx 29,9,29
.LVL632:
.LBE2621:
.LBE2620:
	.loc 4 1278 0
	cmpwi 7,29,-1
	beq- 7,.L539
.LVL633:
.L569:
	.loc 4 1279 0
	lwz 9,-16288(31)
.LBB2622:
.LBB2623:
	.loc 6 589 0
	slwi 27,29,2
.LBE2623:
.LBE2622:
	.loc 4 1279 0
	mr 4,26
.LBB2624:
.LBB2625:
	.loc 4 2214 0
	lwzx 9,9,27
.LBE2625:
.LBE2624:
	.loc 4 1279 0
	lwz 3,4(9)
.LEHB14:
	bl _ZN5idStr3CmpEPKcS1_
	cmpwi 7,3,0
	bne+ 7,.L575
.LVL634:
	.loc 4 1287 0
	lwz 9,-16288(31)
	lwzx 9,9,27
.LVL635:
.LBB2626:
.LBB2627:
	.loc 4 888 0
	stw 9,24(30)
	.loc 4 889 0
	lwz 0,32(9)
	stw 0,28(30)
	.loc 4 890 0
	stw 30,32(9)
.LBE2627:
.LBE2626:
.LBE2693:
	.loc 4 1288 0
	lwz 0,36(1)
	lwz 26,8(1)
.LVL636:
	mtlr 0
	lwz 27,12(1)
.LVL637:
	lwz 28,16(1)
	lwz 29,20(1)
.LVL638:
	lwz 30,24(1)
.LVL639:
	lwz 31,28(1)
	addi 1,1,32
	.cfi_remember_state
.LCFI126:
	.cfi_def_cfa_offset 0
	.cfi_restore 31
	.cfi_restore 30
	.cfi_restore 29
	.cfi_restore 28
	.cfi_restore 27
	.cfi_restore 26
	blr
.LVL640:
.L539:
.LCFI127:
	.cfi_restore_state
.LBB2694:
	.loc 4 1284 0
	li 3,36
	bl _Znwj
.LEHE14:
.LBB2629:
.LBB2630:
.LBB2631:
.LBB2632:
.LBB2633:
	.loc 5 356 0
	li 0,0
	.loc 5 358 0
	addi 9,3,12
	.loc 5 357 0
	li 11,20
	.loc 5 356 0
	stw 0,0(3)
.LBE2633:
.LBE2632:
.LBE2631:
	.loc 2 373 0
	mr 4,26
.LBB2638:
.LBB2636:
.LBB2634:
	.loc 5 357 0
	stw 11,8(3)
.LBE2634:
.LBE2636:
.LBE2638:
.LBE2630:
.LBE2629:
	.loc 4 1284 0
	mr 29,3
.LVL641:
.LBB2646:
.LBB2643:
.LBB2639:
.LBB2637:
.LBB2635:
	.loc 5 358 0
	stw 9,4(3)
	.loc 5 359 0
	stb 0,12(3)
.LEHB15:
.LBE2635:
.LBE2637:
.LBE2639:
	.loc 2 373 0
	bl _ZN5idStraSEPKc
.LEHE15:
.LVL642:
	li 0,0
.LBE2643:
.LBE2646:
	.loc 4 1284 0
	addi 26,31,-16300
.LVL643:
.LBB2647:
.LBB2644:
	.loc 2 373 0
	stw 0,32(29)
.LVL644:
.LBE2644:
.LBE2647:
.LBB2648:
.LBB2649:
	.loc 6 655 0
	lwz 27,-16288(31)
	cmpwi 7,27,0
	beq- 7,.L542
	lwz 0,-16300(31)
	lwz 3,-16296(31)
.L543:
.LBB2650:
	.loc 6 659 0
	cmpw 7,0,3
	beq- 7,.L567
.L574:
.LBB2651:
.LBB2652:
.LBB2653:
	.loc 6 399 0
	slwi 0,0,2
	add 27,27,0
.L552:
.LBE2653:
.LBE2652:
.LBE2651:
.LBE2650:
	.loc 6 669 0
	stw 29,0(27)
.LBE2649:
.LBE2648:
.LBB2676:
.LBB2677:
	.loc 8 197 0
	lis 11,_ZN11idHashIndex13INVALID_INDEXE@ha
	la 0,_ZN11idHashIndex13INVALID_INDEXE@l(11)
.LBE2677:
.LBE2676:
	.loc 4 1285 0
	addi 3,31,-16284
.LBB2682:
.LBB2678:
	.loc 8 197 0
	lwz 9,-16280(31)
.LBE2678:
.LBE2682:
.LBB2683:
.LBB2672:
	.loc 6 670 0
	lwz 29,-16300(31)
.LVL645:
.LBE2672:
.LBE2683:
.LBB2684:
.LBB2679:
	.loc 8 197 0
	cmpw 7,9,0
	.loc 8 198 0
	lwz 0,-16276(31)
.LBE2679:
.LBE2684:
.LBB2685:
.LBB2673:
	.loc 6 670 0
	addi 5,29,1
	stw 5,-16300(31)
.LVL646:
.LBE2673:
.LBE2685:
.LBB2686:
.LBB2680:
	.loc 8 197 0
	beq- 7,.L576
	.loc 8 200 0
	cmpw 7,29,0
	bge- 7,.L577
.LVL647:
.L563:
	.loc 8 203 0
	lwz 0,-16264(31)
	.loc 8 204 0
	slwi 27,29,2
	lwz 11,-16272(31)
	.loc 8 203 0
	and 28,28,0
	.loc 8 204 0
	slwi 28,28,2
	lwzx 0,9,28
	stwx 0,11,27
	.loc 8 205 0
	lwz 9,-16280(31)
	stwx 29,9,28
.LVL648:
.LBE2680:
.LBE2686:
	.loc 4 1287 0
	lwz 9,-16288(31)
	lwzx 9,9,27
.LVL649:
.LBB2687:
.LBB2628:
	.loc 4 888 0
	stw 9,24(30)
	.loc 4 889 0
	lwz 0,32(9)
	stw 0,28(30)
	.loc 4 890 0
	stw 30,32(9)
.LBE2628:
.LBE2687:
.LBE2694:
	.loc 4 1288 0
	lwz 0,36(1)
	lwz 26,8(1)
	mtlr 0
	lwz 27,12(1)
.LVL650:
	lwz 28,16(1)
	lwz 29,20(1)
.LVL651:
	lwz 30,24(1)
.LVL652:
	lwz 31,28(1)
	addi 1,1,32
	.cfi_remember_state
	.cfi_restore 26
	.cfi_restore 27
	.cfi_restore 28
	.cfi_restore 29
	.cfi_restore 30
	.cfi_restore 31
.LCFI128:
	.cfi_def_cfa_offset 0
	blr
.LVL653:
.L565:
.LCFI129:
	.cfi_restore_state
.LBB2695:
.LBB2688:
.LBB2616:
.LBB2614:
.LBB2612:
	.loc 5 976 0
	li 28,0
	li 0,0
	addis 31,3,0x23
	b .L537
.LVL654:
.L567:
.LBE2612:
.LBE2614:
.LBE2616:
.LBE2688:
.LBB2689:
.LBB2674:
.LBB2664:
	.loc 6 659 0
	mr 11,0
.L547:
.LBB2662:
	.loc 6 662 0
	lwz 9,-16292(31)
	cmpwi 7,9,0
	beq- 7,.L578
.L553:
	.loc 6 665 0
	add 10,11,9
.LVL655:
	.loc 6 666 0
	divw 10,10,9
.LVL656:
.LBB2659:
.LBB2656:
	.loc 6 375 0
	mullw. 9,10,9
.LVL657:
	ble- 0,.L579
	.loc 6 380 0
	cmpw 7,9,11
	beq- 7,.L574
.LVL658:
	.loc 6 387 0
	cmpw 7,0,9
	.loc 6 386 0
	stw 9,-16296(31)
	.loc 6 387 0
	ble- 7,.L557
	.loc 6 388 0
	stw 9,-16300(31)
.L557:
	.loc 6 392 0
	slwi 3,9,2
.LEHB16:
	bl _Znaj
.LVL659:
	.loc 6 393 0
	lwz 0,-16300(31)
	.loc 6 392 0
	stw 3,-16288(31)
.LVL660:
	.loc 6 393 0
	cmpwi 7,0,0
	ble- 7,.L558
	.loc 4 1274 0
	addi 11,27,-4
.LBE2656:
.LBE2659:
	.loc 6 393 0
	li 9,0
	b .L559
.LVL661:
.L580:
.LBB2660:
.LBB2657:
	lwz 3,-16288(31)
.LVL662:
.L559:
	.loc 6 394 0
	lwzu 10,4(11)
	slwi 0,9,2
	.loc 6 393 0
	addi 9,9,1
.LVL663:
	.loc 6 394 0
	stwx 10,3,0
	.loc 6 393 0
	lwz 0,0(26)
	cmpw 7,9,0
	blt+ 7,.L580
.LVL664:
.L558:
	.loc 6 398 0
	cmpwi 7,27,0
	beq- 7,.L581
	.loc 6 399 0
	mr 3,27
	bl _ZdaPv
	lwz 0,-16300(31)
	lwz 27,-16288(31)
.LVL665:
	b .L574
.LVL666:
.L578:
.LBE2657:
.LBE2660:
	.loc 6 663 0
	li 9,16
	stw 9,-16292(31)
	b .L553
.L542:
.LBE2662:
.LBE2664:
	.loc 6 656 0
	lwz 3,-16292(31)
.LVL667:
.LBB2665:
.LBB2666:
	.loc 6 375 0
	cmpwi 7,3,0
	ble- 7,.L582
	.loc 6 380 0
	lwz 0,-16296(31)
	cmpw 7,3,0
	lwz 0,-16300(31)
	beq- 7,.L543
.LVL668:
	.loc 6 387 0
	cmpw 7,3,0
	.loc 6 386 0
	stw 3,-16296(31)
	.loc 6 387 0
	bge- 7,.L549
	.loc 6 388 0
	stw 3,-16300(31)
.L549:
	.loc 6 392 0
	slwi 3,3,2
	bl _Znaj
.LVL669:
	.loc 6 393 0
	lwz 0,-16300(31)
	.loc 6 392 0
	mr 27,3
	stw 3,-16288(31)
.LVL670:
	.loc 6 393 0
	cmpwi 7,0,0
	li 9,0
	li 11,0
	bgt+ 7,.L572
	b .L585
.LVL671:
.L584:
	lwz 27,-16288(31)
.LVL672:
.L572:
	.loc 6 394 0
	lwz 0,0(9)
	.loc 6 393 0
	addi 11,11,1
.LVL673:
	.loc 6 394 0
	stwx 0,27,9
	.loc 6 393 0
	addi 9,9,4
	lwz 0,0(26)
	cmpw 7,11,0
	blt+ 7,.L584
	lwz 3,-16296(31)
	lwz 27,-16288(31)
	b .L543
.LVL674:
.L577:
.LBE2666:
.LBE2665:
.LBE2674:
.LBE2689:
.LBB2690:
.LBB2681:
	.loc 8 201 0
	mr 4,5
	bl _ZN11idHashIndex11ResizeIndexEi
.LVL675:
	lwz 9,-16280(31)
	b .L563
.LVL676:
.L576:
	.loc 8 198 0
	cmpw 7,29,0
	lwz 4,-16284(31)
	bge- 7,.L562
	mr 5,0
.L562:
	bl _ZN11idHashIndex8AllocateEii
.LEHE16:
.LVL677:
	lwz 9,-16280(31)
	b .L563
.LVL678:
.L579:
.LBE2681:
.LBE2690:
.LBB2691:
.LBB2675:
.LBB2670:
.LBB2663:
.LBB2661:
.LBB2658:
.LBB2654:
.LBB2655:
	.loc 6 193 0
	cmpwi 7,27,0
	beq- 7,.L555
	.loc 6 194 0
	mr 3,27
	bl _ZdaPv
.LVL679:
.L555:
	.loc 6 197 0
	li 0,0
	.loc 6 199 0
	li 27,0
	.loc 6 197 0
	stw 0,-16288(31)
	.loc 6 198 0
	stw 0,-16300(31)
	.loc 6 199 0
	stw 0,-16296(31)
	b .L552
.LVL680:
.L581:
.LBE2655:
.LBE2654:
	.loc 6 398 0
	lwz 0,-16300(31)
	lwz 27,-16288(31)
.LVL681:
	slwi 0,0,2
	add 27,27,0
	b .L552
.LVL682:
.L585:
.LBE2658:
.LBE2661:
.LBE2663:
.LBE2670:
.LBB2671:
.LBB2669:
	.loc 6 393 0
	lwz 3,-16296(31)
	b .L543
.LVL683:
.L582:
.LBB2667:
.LBB2668:
	.loc 6 198 0
	stw 27,-16300(31)
	.loc 6 199 0
	li 11,0
	stw 27,-16296(31)
	li 0,0
	b .L547
.LVL684:
.L568:
	mr 31,3
.LVL685:
.LBE2668:
.LBE2667:
.LBE2669:
.LBE2671:
.LBE2675:
.LBE2691:
.LBB2692:
.LBB2645:
.LBB2640:
.LBB2641:
.LBB2642:
	.loc 5 501 0
	mr 3,29
	bl _ZN5idStr8FreeDataEv
.LBE2642:
.LBE2641:
.LBE2640:
.LBE2645:
.LBE2692:
	.loc 4 1284 0
	mr 3,29
	bl _ZdlPv
	mr 3,31
.LEHB17:
	bl _Unwind_Resume
.LEHE17:
.LBE2695:
	.cfi_endproc
.LFE2897:
	.section	.gcc_except_table
.LLSDA2897:
	.byte	0xff
	.byte	0xff
	.byte	0x1
	.uleb128 .LLSDACSE2897-.LLSDACSB2897
.LLSDACSB2897:
	.uleb128 .LEHB14-.LFB2897
	.uleb128 .LEHE14-.LEHB14
	.uleb128 0
	.uleb128 0
	.uleb128 .LEHB15-.LFB2897
	.uleb128 .LEHE15-.LEHB15
	.uleb128 .L568-.LFB2897
	.uleb128 0
	.uleb128 .LEHB16-.LFB2897
	.uleb128 .LEHE16-.LEHB16
	.uleb128 0
	.uleb128 0
	.uleb128 .LEHB17-.LFB2897
	.uleb128 .LEHE17-.LEHB17
	.uleb128 0
	.uleb128 0
.LLSDACSE2897:
	.section	".text"
	.size	_ZN9idProgram16AddDefToNameListEP8idVarDefPKc, .-_ZN9idProgram16AddDefToNameListEP8idVarDefPKc
	.align 2
	.globl _ZNK9idProgram6GetDefEPK9idTypeDefPKcPK8idVarDef
	.type	_ZNK9idProgram6GetDefEPK9idTypeDefPKcPK8idVarDef, @function
_ZNK9idProgram6GetDefEPK9idTypeDefPKcPK8idVarDef:
.LFB2902:
	.loc 4 1402 0
	.cfi_startproc
	.cfi_personality 0,__gxx_personality_v0
	.cfi_lsda 0,.LLSDA2902
.LVL686:
	stwu 1,-24(1)
.LCFI130:
	.cfi_def_cfa_offset 24
	mflr 0
	stw 31,20(1)
	mr 31,4
	.cfi_offset 31, -4
	.cfi_register 65, 0
.LBB2696:
	.loc 4 1410 0
	mr 4,5
.LVL687:
.LBE2696:
	.loc 4 1402 0
	stw 29,12(1)
	stw 30,16(1)
	mr 29,6
	.cfi_offset 30, -8
	.cfi_offset 29, -12
	stw 0,28(1)
	.loc 4 1402 0
	mr 30,5
.LEHB18:
.LBB2703:
	.loc 4 1410 0
	.cfi_offset 65, 4
	bl _ZNK9idProgram10GetDefListEPKc
.LEHE18:
.LVL688:
	mr. 8,3
	beq- 0,.L596
	li 7,0
.LBB2697:
.LBB2698:
	.loc 4 675 0
	cmpwi 1,29,0
	cmpwi 6,7,0
.LBE2698:
.LBE2697:
	.loc 4 1410 0
	li 3,0
.LVL689:
	b .L594
.LVL690:
.L588:
	.loc 4 1417 0
	cmpw 7,10,29
	beq- 7,.L603
.L589:
.LVL691:
	.loc 4 2214 0
	lwz 8,28(8)
.LVL692:
	.loc 4 1410 0
	cmpwi 7,8,0
	beq- 7,.L604
.LVL693:
.L594:
	.loc 4 1411 0
	lwz 10,8(8)
	.loc 4 2214 0
	lwz 9,20(10)
.LBB2700:
.LBB2701:
	.loc 2 345 0
	cmpwi 7,9,0
	beq- 7,.L588
.LVL694:
.LBE2701:
.LBE2700:
	.loc 4 1411 0
	lwz 0,0(9)
	cmpwi 7,0,2
	bne+ 7,.L588
.LVL695:
.LBB2702:
.LBB2699:
	.loc 4 675 0
	beq- 1,.L589
	.loc 4 676 0
	cmpw 7,10,29
	mr 9,29
	li 11,1
	beq- 7,.L603
.LVL696:
.L591:
	.loc 4 675 0
	lwz 9,8(9)
.LVL697:
	cmpwi 7,9,0
	beq- 7,.L589
	.loc 4 676 0
	cmpw 7,10,9
	.loc 4 679 0
	addi 11,11,1
.LVL698:
	.loc 4 676 0
	bne+ 7,.L591
.LVL699:
.LBE2699:
.LBE2702:
	.loc 4 1424 0
	beq- 6,.L598
.LVL700:
.L605:
	.loc 4 1424 0 is_stmt 0 discriminator 1
	cmpw 7,11,7
	bge- 7,.L589
	cmpwi 6,8,0
	.loc 4 1424 0
	mr 3,8
	.loc 4 2214 0 is_stmt 1
	lwz 8,28(8)
.LVL701:
	.loc 4 1424 0
	mr 7,11
.LVL702:
	.loc 4 1410 0
	cmpwi 7,8,0
	bne+ 7,.L594
.LVL703:
.L604:
	.loc 4 1431 0
	beq- 6,.L587
	.loc 4 1431 0 is_stmt 0 discriminator 1
	cmpwi 7,31,0
	beq- 7,.L587
	.loc 4 1431 0 discriminator 3
	lwz 0,20(3)
	cmpw 7,31,0
	beq- 7,.L587
	.loc 4 1432 0 is_stmt 1 discriminator 5
	li 3,1024
	bl __cxa_allocate_exception
.LVL704:
	mr 4,30
	mr 31,3
.LVL705:
	lis 3,.LC34@ha
	la 3,.LC34@l(3)
.LEHB19:
	crxor 6,6,6
	bl _Z2vaPKcz
.LEHE19:
	mr 4,3
	mr 3,31
	bl _ZN14idCompileErrorC1EPKc
	lis 4,_ZTI14idCompileError@ha
	mr 3,31
	la 4,_ZTI14idCompileError@l(4)
	li 5,0
.LEHB20:
	bl __cxa_throw
.LVL706:
.L603:
	.loc 4 1421 0
	li 11,1
.LVL707:
	.loc 4 1424 0
	bne+ 6,.L605
.L598:
	mr 7,11
	mr 3,8
	cmpwi 6,8,0
	b .L589
.LVL708:
.L596:
	.loc 4 1409 0
	li 3,0
.LVL709:
.L587:
.LBE2703:
	.loc 4 1436 0
	lwz 0,28(1)
	lwz 29,12(1)
.LVL710:
	mtlr 0
	lwz 30,16(1)
.LVL711:
	lwz 31,20(1)
.LVL712:
	addi 1,1,24
	.cfi_remember_state
.LCFI131:
	.cfi_def_cfa_offset 0
	.cfi_restore 31
	.cfi_restore 30
	.cfi_restore 29
	blr
.LVL713:
.L601:
.LCFI132:
	.cfi_restore_state
	mr 30,3
.LVL714:
.LBB2704:
	.loc 4 1432 0
	mr 3,31
	bl __cxa_free_exception
	mr 3,30
	bl _Unwind_Resume
.LEHE20:
.LBE2704:
	.cfi_endproc
.LFE2902:
	.section	.gcc_except_table
.LLSDA2902:
	.byte	0xff
	.byte	0xff
	.byte	0x1
	.uleb128 .LLSDACSE2902-.LLSDACSB2902
.LLSDACSB2902:
	.uleb128 .LEHB18-.LFB2902
	.uleb128 .LEHE18-.LEHB18
	.uleb128 0
	.uleb128 0
	.uleb128 .LEHB19-.LFB2902
	.uleb128 .LEHE19-.LEHB19
	.uleb128 .L601-.LFB2902
	.uleb128 0
	.uleb128 .LEHB20-.LFB2902
	.uleb128 .LEHE20-.LEHB20
	.uleb128 0
	.uleb128 0
.LLSDACSE2902:
	.section	".text"
	.size	_ZNK9idProgram6GetDefEPK9idTypeDefPKcPK8idVarDef, .-_ZNK9idProgram6GetDefEPK9idTypeDefPKcPK8idVarDef
	.align 2
	.globl _ZN9idProgram7FreeDefEP8idVarDefPKS0_
	.type	_ZN9idProgram7FreeDefEP8idVarDefPKS0_, @function
_ZN9idProgram7FreeDefEP8idVarDefPKS0_:
.LFB2903:
	.loc 4 1443 0
	.cfi_startproc
	.cfi_personality 0,__gxx_personality_v0
	.cfi_lsda 0,.LLSDA2903
.LVL715:
	mflr 0
	stwu 1,-56(1)
.LCFI133:
	.cfi_def_cfa_offset 56
	.cfi_register 65, 0
	stw 29,44(1)
	mr 29,5
	.cfi_offset 29, -12
	stw 30,48(1)
	mr 30,3
	.cfi_offset 30, -8
	stw 31,52(1)
	mr 31,4
	.cfi_offset 31, -4
	stw 0,60(1)
	.loc 4 2214 0
	lwz 9,20(4)
.LBB2705:
.LBB2706:
.LBB2707:
.LBB2708:
	.loc 2 345 0
	cmpwi 7,9,0
	beq- 7,.L607
	.cfi_offset 65, 4
.LVL716:
.LBE2708:
.LBE2707:
	.loc 4 1447 0
	lwz 0,0(9)
	cmpwi 7,0,5
	beq- 7,.L624
.LVL717:
.L607:
.LBE2706:
	.loc 4 1469 0
	lwz 9,0(31)
.LVL718:
.LBB2737:
.LBB2738:
	.loc 6 864 0
	addis 30,30,0x23
.LVL719:
	cmpwi 7,9,0
	blt- 7,.L625
	lwz 11,-16256(30)
	cmpw 7,9,11
	bge- 7,.L613
	.loc 6 868 0
	addi 0,11,-1
	.loc 6 869 0
	slwi 11,9,2
	cmpw 7,9,0
	.loc 6 868 0
	stw 0,-16256(30)
.LVL720:
	.loc 6 869 0
	bge- 7,.L623
.LVL721:
.L620:
	.loc 6 870 0
	lwz 10,-16244(30)
	.loc 6 869 0
	addi 9,9,1
.LVL722:
	.loc 6 870 0
	add 8,10,11
	.loc 4 1443 0
	addi 11,11,4
	.loc 6 870 0
	lwzx 0,10,11
	stw 0,0(8)
	.loc 6 869 0
	lwz 0,-16256(30)
	cmpw 7,9,0
	blt+ 7,.L620
.L623:
	lwz 9,0(31)
.LVL723:
.L612:
.LBE2738:
.LBE2737:
	.loc 4 1470 0
	cmpw 7,9,0
	bge- 7,.L613
	slwi 11,9,2
.L616:
.LVL724:
	.loc 4 1471 0 discriminator 2
	lwz 10,-16244(30)
	lwzx 10,10,11
	.loc 4 1470 0 discriminator 2
	addi 11,11,4
	.loc 4 1471 0 discriminator 2
	stw 9,0(10)
	.loc 4 1470 0 discriminator 2
	addi 9,9,1
.LVL725:
	lwz 0,-16256(30)
	cmpw 7,0,9
	bgt+ 7,.L616
.LVL726:
.L613:
	.loc 4 1474 0 discriminator 1
	mr 3,31
	bl _ZN8idVarDefD1Ev
.LVL727:
	mr 3,31
	bl _ZN8idVarDefdlEPv
.LBE2705:
	.loc 4 1475 0 discriminator 1
	lwz 0,60(1)
	lwz 29,44(1)
.LVL728:
	mtlr 0
	lwz 30,48(1)
.LVL729:
	lwz 31,52(1)
.LVL730:
	addi 1,1,56
	.cfi_remember_state
.LCFI134:
	.cfi_def_cfa_offset 0
	.cfi_restore 31
	.cfi_restore 30
	.cfi_restore 29
	blr
.LVL731:
.L625:
.LCFI135:
	.cfi_restore_state
.LBB2742:
.LBB2740:
.LBB2739:
	.loc 6 864 0
	lwz 0,-16256(30)
	b .L612
.LVL732:
.L624:
.LBE2739:
.LBE2740:
.LBB2741:
.LBB2709:
.LBB2710:
.LBB2711:
.LBB2712:
	.loc 5 357 0
	li 9,20
.LVL733:
	.loc 5 356 0
	li 0,0
	.loc 5 357 0
	stw 9,16(1)
	.loc 5 358 0
	addi 9,1,20
	stw 9,12(1)
.LBE2712:
.LBE2711:
.LBE2710:
	.loc 4 1450 0
	addi 3,1,8
.LVL734:
.LBB2717:
.LBB2718:
.LBB2719:
.LBB2720:
	.loc 4 2214 0
	lwz 9,24(4)
.LBE2720:
.LBE2719:
.LBE2718:
.LBE2717:
	.loc 4 1450 0
	lis 4,.LC35@ha
.LBB2721:
.LBB2715:
.LBB2713:
	.loc 5 359 0
	stb 0,20(1)
.LBE2713:
.LBE2715:
.LBE2721:
	.loc 4 1450 0
	la 4,.LC35@l(4)
.LBB2722:
.LBB2716:
.LBB2714:
	.loc 5 356 0
	stw 0,8(1)
.LBE2714:
.LBE2716:
.LBE2722:
	.loc 4 1450 0
	lwz 5,4(9)
.LEHB21:
	crxor 6,6,6
	bl _Z7sprintfR5idStrPKcz
.LVL735:
	.loc 4 1451 0
	lwz 5,12(1)
	mr 3,30
	li 4,0
	mr 6,29
	bl _ZNK9idProgram6GetDefEPK9idTypeDefPKcPK8idVarDef
.LVL736:
	.loc 4 1452 0
	mr. 4,3
	beq- 0,.L608
	.loc 4 1453 0
	mr 3,30
.LVL737:
	mr 5,29
	bl _ZN9idProgram7FreeDefEP8idVarDefPKS0_
.LVL738:
.L608:
.LBB2723:
.LBB2724:
.LBB2725:
.LBB2726:
	.loc 4 2214 0
	lwz 9,24(31)
.LBE2726:
.LBE2725:
.LBE2724:
.LBE2723:
	.loc 4 1456 0
	lis 4,.LC36@ha
	addi 3,1,8
	la 4,.LC36@l(4)
	lwz 5,4(9)
	crxor 6,6,6
	bl _Z7sprintfR5idStrPKcz
.LVL739:
	.loc 4 1457 0
	lwz 5,12(1)
	mr 3,30
	li 4,0
	mr 6,29
	bl _ZNK9idProgram6GetDefEPK9idTypeDefPKcPK8idVarDef
.LVL740:
	.loc 4 1458 0
	mr. 4,3
	beq- 0,.L609
	.loc 4 1459 0
	mr 3,30
.LVL741:
	mr 5,29
	bl _ZN9idProgram7FreeDefEP8idVarDefPKS0_
.LVL742:
.L609:
.LBB2727:
.LBB2728:
.LBB2729:
.LBB2730:
	.loc 4 2214 0
	lwz 9,24(31)
.LBE2730:
.LBE2729:
.LBE2728:
.LBE2727:
	.loc 4 1462 0
	lis 4,.LC37@ha
	addi 3,1,8
	la 4,.LC37@l(4)
	lwz 5,4(9)
	crxor 6,6,6
	bl _Z7sprintfR5idStrPKcz
.LVL743:
	.loc 4 1463 0
	lwz 5,12(1)
	mr 3,30
	li 4,0
	mr 6,29
	bl _ZNK9idProgram6GetDefEPK9idTypeDefPKcPK8idVarDef
.LVL744:
	.loc 4 1464 0
	mr. 4,3
	beq- 0,.L610
	.loc 4 1465 0
	mr 3,30
.LVL745:
	mr 5,29
	bl _ZN9idProgram7FreeDefEP8idVarDefPKS0_
.LEHE21:
.LVL746:
.L610:
.LBB2731:
.LBB2732:
.LBB2733:
	.loc 5 501 0
	addi 3,1,8
.LEHB22:
	bl _ZN5idStr8FreeDataEv
.LEHE22:
	b .L607
.LVL747:
.L619:
	mr 31,3
.LVL748:
.LBE2733:
.LBE2732:
.LBE2731:
.LBB2734:
.LBB2735:
.LBB2736:
	addi 3,1,8
	bl _ZN5idStr8FreeDataEv
	mr 3,31
.LEHB23:
	bl _Unwind_Resume
.LEHE23:
.LBE2736:
.LBE2735:
.LBE2734:
.LBE2709:
.LBE2741:
.LBE2742:
	.cfi_endproc
.LFE2903:
	.section	.gcc_except_table
.LLSDA2903:
	.byte	0xff
	.byte	0xff
	.byte	0x1
	.uleb128 .LLSDACSE2903-.LLSDACSB2903
.LLSDACSB2903:
	.uleb128 .LEHB21-.LFB2903
	.uleb128 .LEHE21-.LEHB21
	.uleb128 .L619-.LFB2903
	.uleb128 0
	.uleb128 .LEHB22-.LFB2903
	.uleb128 .LEHE22-.LEHB22
	.uleb128 0
	.uleb128 0
	.uleb128 .LEHB23-.LFB2903
	.uleb128 .LEHE23-.LEHB23
	.uleb128 0
	.uleb128 0
.LLSDACSE2903:
	.section	".text"
	.size	_ZN9idProgram7FreeDefEP8idVarDefPKS0_, .-_ZN9idProgram7FreeDefEP8idVarDefPKS0_
	.align 2
	.globl _ZNK9idProgram12FindFunctionEPKc
	.type	_ZNK9idProgram12FindFunctionEPKc, @function
_ZNK9idProgram12FindFunctionEPKc:
.LFB2905:
	.loc 4 1515 0
	.cfi_startproc
	.cfi_personality 0,__gxx_personality_v0
	.cfi_lsda 0,.LLSDA2905
.LVL749:
	stwu 1,-136(1)
.LCFI136:
	.cfi_def_cfa_offset 136
.LVL750:
	mflr 0
.LBB2793:
.LBB2794:
.LBB2795:
.LBB2796:
.LBB2797:
	.loc 5 357 0
	li 9,20
.LBE2797:
.LBE2796:
	.loc 5 412 0
	li 7,0
.LBE2795:
.LBE2794:
.LBE2793:
	.loc 4 1515 0
	stw 30,128(1)
.LBB2885:
.LBB2816:
.LBB2810:
	.loc 5 412 0
	mr. 30,4
	.cfi_offset 30, -8
	.cfi_register 65, 0
.LBE2810:
.LBE2816:
.LBE2885:
	.loc 4 1515 0
	stw 0,140(1)
.LBB2886:
.LBB2817:
.LBB2811:
.LBB2801:
.LBB2798:
	.loc 5 356 0
	li 0,0
	.cfi_offset 65, 4
.LBE2798:
.LBE2801:
.LBE2811:
.LBE2817:
.LBE2886:
	.loc 4 1515 0
	stw 29,124(1)
.LBB2887:
.LBB2818:
.LBB2812:
.LBB2802:
.LBB2799:
	.loc 5 358 0
	addi 29,1,84
	.cfi_offset 29, -12
.LBE2799:
.LBE2802:
.LBE2812:
.LBE2818:
.LBE2887:
	.loc 4 1515 0
	stw 28,120(1)
	mr 28,3
	.cfi_offset 28, -16
	stw 27,116(1)
.LBB2888:
.LBB2819:
.LBB2813:
	.loc 5 358 0
	mr 3,29
.LVL751:
.LBE2813:
.LBE2819:
.LBE2888:
	.loc 4 1515 0
	stw 31,132(1)
.LBB2889:
.LBB2820:
.LBB2814:
.LBB2803:
.LBB2800:
	.loc 5 356 0
	stw 0,72(1)
	.loc 5 357 0
	stw 9,80(1)
	.loc 5 358 0
	stw 29,76(1)
	.loc 5 359 0
	stb 0,84(1)
.LBE2800:
.LBE2803:
	.loc 5 412 0
	beq- 0,.L627
	.cfi_offset 31, -4
	.cfi_offset 27, -20
	.loc 5 413 0
	mr 3,30
	bl strlen
.LVL752:
	.loc 5 414 0
	addi 4,3,1
	.loc 5 413 0
	mr 31,3
.LBB2804:
.LBB2805:
	.loc 5 350 0
	cmpwi 7,4,20
.LBE2805:
.LBE2804:
	.loc 5 413 0
	mr 7,3
.LVL753:
.LBB2808:
.LBB2806:
	.loc 5 358 0
	mr 3,29
.LVL754:
	.loc 5 350 0
	bgt- 7,.L659
.LVL755:
.L628:
.LBE2806:
.LBE2808:
	.loc 5 415 0
	mr 4,30
	stw 7,104(1)
	bl strcpy
	.loc 5 416 0
	stw 31,72(1)
	lwz 3,76(1)
	lwz 7,104(1)
.LVL756:
.L627:
	.loc 5 412 0
	lis 29,.LANCHOR0@ha
	lis 27,.LC38@ha
	la 29,.LANCHOR0@l(29)
	li 31,0
	addi 29,29,96
	la 27,.LC38@l(27)
	b .L633
.LVL757:
.L661:
.LBE2814:
.LBE2820:
	.loc 4 1526 0
	lwz 0,0(9)
	cmpwi 7,0,2
	bne- 7,.L629
	lwz 7,72(1)
	lwz 3,76(1)
.LVL758:
.L633:
.LBB2821:
.LBB2822:
.LBB2823:
	.loc 5 906 0
	mr 4,27
	li 5,1
	mr 6,31
.LEHB24:
	bl _ZN5idStr8FindTextEPKcS1_bii
.LVL759:
.LBE2823:
.LBE2822:
	.loc 4 1528 0
	mr. 30,3
	blt- 0,.L629
	.loc 4 1532 0
	mr 5,31
	addi 3,1,40
.LVL760:
	addi 4,1,72
	subf 6,31,30
	bl _ZNK5idStr3MidEii
.LEHE24:
.LVL761:
	.loc 4 1533 0
	lwz 5,44(1)
	mr 3,28
	li 4,0
	mr 6,29
.LEHB25:
	bl _ZNK9idProgram6GetDefEPK9idTypeDefPKcPK8idVarDef
.LEHE25:
.LVL762:
	.loc 4 1534 0
	mr. 29,3
.LVL763:
.LBB2824:
.LBB2825:
.LBB2826:
	.loc 5 501 0
	addi 3,1,40
.LVL764:
.LBE2826:
.LBE2825:
.LBE2824:
	.loc 4 1534 0
	beq- 0,.L660
.LVL765:
.LEHB26:
.LBB2831:
.LBB2832:
.LBB2833:
	.loc 5 501 0
	bl _ZN5idStr8FreeDataEv
.LEHE26:
.LVL766:
.LBE2833:
.LBE2832:
.LBE2831:
	.loc 4 2214 0
	lwz 9,20(29)
	.loc 4 1541 0
	addi 31,30,2
.LVL767:
.LBE2821:
.LBB2839:
.LBB2840:
	.loc 2 345 0
	cmpwi 7,9,0
	bne+ 7,.L661
.LVL768:
.L629:
.LBE2840:
.LBE2839:
	.loc 4 1544 0
	lwz 30,72(1)
.LVL769:
	subf 6,31,30
.LVL770:
.LBB2841:
.LBB2842:
	.loc 5 930 0
	cmpw 7,30,6
	bgt- 7,.L634
.LVL771:
.LBB2843:
.LBB2844:
	.loc 5 374 0
	addi 4,30,1
.LBB2845:
.LBB2846:
	.loc 5 356 0
	li 0,0
.LBE2846:
.LBE2845:
.LBB2848:
.LBB2849:
	.loc 5 350 0
	cmpwi 7,4,20
.LBE2849:
.LBE2848:
.LBB2852:
.LBB2847:
	.loc 5 358 0
	addi 3,1,20
	.loc 5 357 0
	li 9,20
	.loc 5 356 0
	stw 0,8(1)
	.loc 5 357 0
	stw 9,16(1)
	addi 27,1,8
	.loc 5 358 0
	stw 3,12(1)
	.loc 5 359 0
	stb 0,20(1)
.LVL772:
.LBE2847:
.LBE2852:
.LBB2853:
.LBB2850:
	.loc 5 350 0
	bgt- 7,.L662
.LVL773:
.L635:
.LBE2850:
.LBE2853:
	.loc 5 375 0
	lwz 4,76(1)
	bl strcpy
	.loc 5 376 0
	stw 30,8(1)
.LVL774:
.L636:
.LBE2844:
.LBE2843:
.LBE2842:
.LBE2841:
	.loc 4 1545 0
	lwz 5,12(1)
	mr 3,28
	li 4,0
	mr 6,29
.LEHB27:
	bl _ZNK9idProgram6GetDefEPK9idTypeDefPKcPK8idVarDef
.LEHE27:
.LVL775:
	.loc 4 1546 0
	cmpwi 0,3,0
	.loc 4 1548 0
	li 31,0
.LVL776:
	.loc 4 1546 0
	beq- 0,.L637
	.loc 4 2214 0
	lwz 9,20(3)
.LBB2859:
.LBB2860:
	.loc 2 345 0
	cmpwi 7,9,0
	beq- 7,.L637
.LVL777:
.LBE2860:
.LBE2859:
	.loc 4 1551 0
	lwz 0,0(9)
	cmpwi 7,0,8
	beq- 7,.L663
.LVL778:
.L637:
.LBB2861:
.LBB2862:
.LBB2863:
	.loc 5 501 0
	mr 3,27
.LVL779:
.LEHB28:
	bl _ZN5idStr8FreeDataEv
.LEHE28:
.LVL780:
.LBE2863:
.LBE2862:
.LBE2861:
.LBB2864:
.LBB2865:
.LBB2866:
	addi 3,1,72
.LEHB29:
	bl _ZN5idStr8FreeDataEv
.LEHE29:
.LBE2866:
.LBE2865:
.LBE2864:
.LBE2889:
	.loc 4 1557 0
	lwz 0,140(1)
	mr 3,31
	lwz 27,116(1)
.LVL781:
	mtlr 0
	lwz 28,120(1)
.LVL782:
	lwz 29,124(1)
.LVL783:
	lwz 30,128(1)
	lwz 31,132(1)
	addi 1,1,136
	.cfi_remember_state
.LCFI137:
	.cfi_def_cfa_offset 0
	.cfi_restore 31
	.cfi_restore 30
	.cfi_restore 29
	.cfi_restore 28
	.cfi_restore 27
	blr
.LVL784:
.L662:
.LCFI138:
	.cfi_restore_state
.LBB2890:
.LBB2871:
.LBB2857:
.LBB2856:
.LBB2855:
.LBB2854:
.LBB2851:
	.loc 5 351 0
	mr 3,27
	li 5,1
.LEHB30:
	bl _ZN5idStr10ReAllocateEib
.LEHE30:
.LVL785:
	lwz 3,12(1)
	b .L635
.LVL786:
.L663:
.LBE2851:
.LBE2854:
.LBE2855:
.LBE2856:
.LBE2857:
.LBE2871:
	.loc 4 1551 0 discriminator 1
	lwz 31,4(3)
	lwz 0,32(31)
	.loc 4 1556 0 discriminator 1
	addic 0,0,-1
	subfe 0,0,0
	and 31,31,0
	b .L637
.LVL787:
.L659:
.LBB2872:
.LBB2815:
.LBB2809:
.LBB2807:
	.loc 5 351 0
	addi 3,1,72
	li 5,1
	stw 31,104(1)
.LEHB31:
	bl _ZN5idStr10ReAllocateEib
.LEHE31:
.LVL788:
	lwz 3,76(1)
	lwz 7,104(1)
	b .L628
.LVL789:
.L634:
.LBE2807:
.LBE2809:
.LBE2815:
.LBE2872:
.LBB2873:
.LBB2858:
	.loc 5 933 0
	addi 27,1,8
	addi 4,1,72
	mr 3,27
	mr 5,31
.LEHB32:
	bl _ZNK5idStr3MidEii
.LVL790:
	b .L636
.LVL791:
.L660:
.LBE2858:
.LBE2873:
.LBB2874:
.LBB2834:
.LBB2829:
.LBB2827:
	.loc 5 501 0
	bl _ZN5idStr8FreeDataEv
.LEHE32:
.LVL792:
.LBE2827:
.LBE2829:
.LBE2834:
.LBE2874:
.LBB2875:
.LBB2869:
.LBB2867:
	addi 3,1,72
.LBE2867:
.LBE2869:
.LBE2875:
.LBB2876:
.LBB2835:
.LBB2830:
.LBB2828:
	.loc 4 1536 0
	li 31,0
.LVL793:
.LEHB33:
.LBE2828:
.LBE2830:
.LBE2835:
.LBE2876:
.LBB2877:
.LBB2870:
.LBB2868:
	.loc 5 501 0
	bl _ZN5idStr8FreeDataEv
.LEHE33:
.LBE2868:
.LBE2870:
.LBE2877:
.LBE2890:
	.loc 4 1557 0
	lwz 0,140(1)
	mr 3,31
	lwz 27,116(1)
	mtlr 0
	lwz 28,120(1)
.LVL794:
	lwz 29,124(1)
.LVL795:
	lwz 30,128(1)
.LVL796:
	lwz 31,132(1)
	addi 1,1,136
	.cfi_remember_state
	.cfi_restore 27
	.cfi_restore 28
	.cfi_restore 29
	.cfi_restore 30
	.cfi_restore 31
.LCFI139:
	.cfi_def_cfa_offset 0
	blr
.LVL797:
.L657:
.LCFI140:
	.cfi_restore_state
	mr 31,3
.LVL798:
.LBB2891:
.LBB2878:
.LBB2879:
.LBB2880:
	.loc 5 501 0
	mr 3,27
	bl _ZN5idStr8FreeDataEv
.LVL799:
.L642:
.LBE2880:
.LBE2879:
.LBE2878:
.LBB2881:
.LBB2882:
.LBB2883:
	addi 3,1,72
	bl _ZN5idStr8FreeDataEv
	mr 3,31
.LEHB34:
	bl _Unwind_Resume
.LEHE34:
.LVL800:
.L656:
	mr 31,3
.LVL801:
.LBE2883:
.LBE2882:
.LBE2881:
.LBB2884:
.LBB2836:
.LBB2837:
.LBB2838:
	addi 3,1,40
.LVL802:
	bl _ZN5idStr8FreeDataEv
.LVL803:
	b .L642
.LVL804:
.L655:
	mr 31,3
	b .L642
.LBE2838:
.LBE2837:
.LBE2836:
.LBE2884:
.LBE2891:
	.cfi_endproc
.LFE2905:
	.section	.gcc_except_table
.LLSDA2905:
	.byte	0xff
	.byte	0xff
	.byte	0x1
	.uleb128 .LLSDACSE2905-.LLSDACSB2905
.LLSDACSB2905:
	.uleb128 .LEHB24-.LFB2905
	.uleb128 .LEHE24-.LEHB24
	.uleb128 .L655-.LFB2905
	.uleb128 0
	.uleb128 .LEHB25-.LFB2905
	.uleb128 .LEHE25-.LEHB25
	.uleb128 .L656-.LFB2905
	.uleb128 0
	.uleb128 .LEHB26-.LFB2905
	.uleb128 .LEHE26-.LEHB26
	.uleb128 .L655-.LFB2905
	.uleb128 0
	.uleb128 .LEHB27-.LFB2905
	.uleb128 .LEHE27-.LEHB27
	.uleb128 .L657-.LFB2905
	.uleb128 0
	.uleb128 .LEHB28-.LFB2905
	.uleb128 .LEHE28-.LEHB28
	.uleb128 .L655-.LFB2905
	.uleb128 0
	.uleb128 .LEHB29-.LFB2905
	.uleb128 .LEHE29-.LEHB29
	.uleb128 0
	.uleb128 0
	.uleb128 .LEHB30-.LFB2905
	.uleb128 .LEHE30-.LEHB30
	.uleb128 .L655-.LFB2905
	.uleb128 0
	.uleb128 .LEHB31-.LFB2905
	.uleb128 .LEHE31-.LEHB31
	.uleb128 0
	.uleb128 0
	.uleb128 .LEHB32-.LFB2905
	.uleb128 .LEHE32-.LEHB32
	.uleb128 .L655-.LFB2905
	.uleb128 0
	.uleb128 .LEHB33-.LFB2905
	.uleb128 .LEHE33-.LEHB33
	.uleb128 0
	.uleb128 0
	.uleb128 .LEHB34-.LFB2905
	.uleb128 .LEHE34-.LEHB34
	.uleb128 0
	.uleb128 0
.LLSDACSE2905:
	.section	".text"
	.size	_ZNK9idProgram12FindFunctionEPKc, .-_ZNK9idProgram12FindFunctionEPKc
	.align 2
	.globl _ZNK9idProgram12FindFunctionEPKcPK9idTypeDef
	.type	_ZNK9idProgram12FindFunctionEPKcPK9idTypeDef, @function
_ZNK9idProgram12FindFunctionEPKcPK9idTypeDef:
.LFB2906:
	.loc 4 1569 0
	.cfi_startproc
.LVL805:
	mflr 0
	stwu 1,-24(1)
.LCFI141:
	.cfi_def_cfa_offset 24
	.cfi_register 65, 0
	stw 28,8(1)
	mr 28,3
	.cfi_offset 28, -16
	stw 29,12(1)
.LBB2892:
	.loc 4 1582 0
	li 3,0
.LVL806:
.LBE2892:
	.loc 4 1569 0
	stw 30,16(1)
.LBB2893:
	.loc 4 1575 0
	lis 30,.LANCHOR0@ha
	.cfi_offset 30, -8
	.cfi_offset 29, -12
.LBE2893:
	.loc 4 1569 0
	stw 0,28(1)
.LBB2894:
	.loc 4 1575 0
	la 30,.LANCHOR0@l(30)
.LBE2894:
	.loc 4 1569 0
	stw 31,20(1)
.LBB2895:
	.loc 4 1575 0
	addi 30,30,128
.LBE2895:
	.loc 4 1569 0
	mr 29,4
.LBB2896:
	.loc 4 1575 0
	lwz 31,92(5)
	.cfi_offset 31, -4
	.cfi_offset 65, 4
.LVL807:
	cmpw 7,31,30
	bne+ 7,.L669
	b .L665
.LVL808:
.L666:
	lwz 3,20(31)
.LVL809:
	bl _ZNK9idTypeDef10SuperClassEv
	lwz 31,92(3)
.LVL810:
	cmpw 7,31,30
	beq- 7,.L671
.LVL811:
.L669:
	.loc 4 1576 0
	mr 6,31
	li 4,0
	mr 5,29
	mr 3,28
	bl _ZNK9idProgram6GetDefEPK9idTypeDefPKcPK8idVarDef
.LVL812:
	.loc 4 1577 0
	cmpwi 0,3,0
	beq+ 0,.L666
	.loc 4 1578 0
	lwz 3,4(3)
.LVL813:
.L665:
.LBE2896:
	.loc 4 1583 0
	lwz 0,28(1)
	lwz 28,8(1)
.LVL814:
	mtlr 0
	lwz 29,12(1)
.LVL815:
	lwz 30,16(1)
	lwz 31,20(1)
.LVL816:
	addi 1,1,24
	.cfi_remember_state
.LCFI142:
	.cfi_def_cfa_offset 0
	.cfi_restore 31
	.cfi_restore 30
	.cfi_restore 29
	.cfi_restore 28
	blr
.LVL817:
.L671:
.LCFI143:
	.cfi_restore_state
	lwz 0,28(1)
.LBB2897:
	.loc 4 1582 0
	li 3,0
.LBE2897:
	.loc 4 1583 0
	lwz 28,8(1)
.LVL818:
	mtlr 0
	lwz 29,12(1)
.LVL819:
	lwz 30,16(1)
	lwz 31,20(1)
.LVL820:
	addi 1,1,24
	.cfi_restore 28
	.cfi_restore 29
	.cfi_restore 30
	.cfi_restore 31
.LCFI144:
	.cfi_def_cfa_offset 0
	blr
	.cfi_endproc
.LFE2906:
	.size	_ZNK9idProgram12FindFunctionEPKcPK9idTypeDef, .-_ZNK9idProgram12FindFunctionEPKcPK9idTypeDef
	.align 2
	.globl _ZNK14idScriptObject11GetFunctionEPKc
	.type	_ZNK14idScriptObject11GetFunctionEPKc, @function
_ZNK14idScriptObject11GetFunctionEPKc:
.LFB2890:
	.loc 4 1117 0
	.cfi_startproc
.LVL821:
.LBB2898:
	.loc 4 1120 0
	lwz 5,0(3)
	lis 9,.LANCHOR0@ha
	la 0,.LANCHOR0@l(9)
	cmpw 7,5,0
	beq- 7,.L673
	.loc 4 1124 0
	lis 3,gameLocal+33476@ha
.LVL822:
.LBE2898:
	.loc 4 1126 0
.LBB2899:
	.loc 4 1124 0
	la 3,gameLocal+33476@l(3)
	b _ZNK9idProgram12FindFunctionEPKcPK9idTypeDef
.LVL823:
.L673:
.LBE2899:
	.loc 4 1126 0
	li 3,0
.LVL824:
	blr
	.cfi_endproc
.LFE2890:
	.size	_ZNK14idScriptObject11GetFunctionEPKc, .-_ZNK14idScriptObject11GetFunctionEPKc
	.align 2
	.globl _ZNK14idScriptObject13GetDestructorEv
	.type	_ZNK14idScriptObject13GetDestructorEv, @function
_ZNK14idScriptObject13GetDestructorEv:
.LFB2889:
	.loc 4 1105 0
	.cfi_startproc
.LVL825:
.LBB2900:
	.loc 4 1108 0
	lis 4,.LC39@ha
.LBE2900:
	.loc 4 1110 0
.LBB2901:
	.loc 4 1108 0
	la 4,.LC39@l(4)
	b _ZNK14idScriptObject11GetFunctionEPKc
.LVL826:
.LBE2901:
	.cfi_endproc
.LFE2889:
	.size	_ZNK14idScriptObject13GetDestructorEv, .-_ZNK14idScriptObject13GetDestructorEv
	.align 2
	.globl _ZNK14idScriptObject14GetConstructorEv
	.type	_ZNK14idScriptObject14GetConstructorEv, @function
_ZNK14idScriptObject14GetConstructorEv:
.LFB2888:
	.loc 4 1093 0
	.cfi_startproc
.LVL827:
.LBB2902:
	.loc 4 1096 0
	lis 4,.LC40@ha
.LBE2902:
	.loc 4 1098 0
.LBB2903:
	.loc 4 1096 0
	la 4,.LC40@l(4)
	b _ZNK14idScriptObject11GetFunctionEPKc
.LVL828:
.LBE2903:
	.cfi_endproc
.LFE2888:
	.size	_ZNK14idScriptObject14GetConstructorEv, .-_ZNK14idScriptObject14GetConstructorEv
	.align 2
	.globl _ZN9idProgram13AllocFunctionEP8idVarDef
	.type	_ZN9idProgram13AllocFunctionEP8idVarDef, @function
_ZN9idProgram13AllocFunctionEP8idVarDef:
.LFB2907:
	.loc 4 1590 0
	.cfi_startproc
	.cfi_personality 0,__gxx_personality_v0
	.cfi_lsda 0,.LLSDA2907
.LVL829:
	mflr 0
	stwu 1,-24(1)
.LCFI145:
	.cfi_def_cfa_offset 24
	.cfi_register 65, 0
	.loc 4 2214 0
	addis 9,3,0x6
	.loc 4 1590 0
	stw 30,16(1)
	mr 30,4
	.cfi_offset 30, -8
	stw 0,28(1)
	stw 28,8(1)
	stw 29,12(1)
	stw 31,20(1)
	.loc 4 2214 0
	lwz 11,60(9)
.LBB2917:
	.loc 4 1591 0
	cmpwi 7,11,3071
	bgt- 7,.L684
	.cfi_offset 31, -4
	.cfi_offset 29, -12
	.cfi_offset 28, -16
	.cfi_offset 65, 4
.LVL830:
.LBB2918:
.LBB2919:
	.file 9 "d:/Data/Nintendo/DoomGX/src/game/script/../../idlib/../idlib/containers/StaticList.h"
	.loc 9 296 0
	mulli 31,11,80
.LBE2919:
.LBE2918:
	.loc 4 1597 0
	li 29,0
.LBB2921:
.LBB2920:
	.loc 9 296 0
	addi 11,11,1
	add 31,9,31
	stw 11,60(9)
	addi 31,31,64
.LBE2920:
.LBE2921:
.LBB2922:
.LBB2923:
	.loc 6 317 0
	li 9,1
.LBE2923:
.LBE2922:
	.loc 4 1597 0
	stw 29,32(31)
	.loc 4 1598 0
	stw 4,36(31)
.LBB2938:
.LBB2932:
	.loc 6 319 0
	lwz 28,76(31)
.LBE2932:
.LBE2938:
	.loc 4 2214 0
	lwz 0,20(4)
.LBB2939:
.LBB2933:
	.loc 6 319 0
	cmpwi 7,28,0
.LBE2933:
.LBE2939:
	.loc 4 1600 0
	stw 29,44(31)
	.loc 4 1599 0
	stw 0,40(31)
	.loc 4 1601 0
	stw 29,48(31)
	.loc 4 1602 0
	stw 29,52(31)
	.loc 4 1603 0
	stw 29,56(31)
	.loc 4 1604 0
	lwz 0,48(3)
.LBB2940:
.LBB2934:
	.loc 6 317 0
	stw 9,72(31)
.LBE2934:
.LBE2940:
	.loc 4 1604 0
	stw 0,60(31)
.LVL831:
.LBB2941:
.LBB2935:
	.loc 6 319 0
	beq- 7,.L678
	.loc 6 321 0
	lwz 3,64(31)
.LVL832:
	.loc 6 323 0
	lwz 0,68(31)
	cmpw 7,3,0
	beq- 7,.L678
.LVL833:
.LBB2924:
.LBB2925:
	.loc 6 375 0
	cmpwi 7,3,0
	ble- 7,.L685
.LVL834:
	.loc 6 386 0
	stw 3,68(31)
	.loc 6 392 0
	slwi 3,3,2
.LEHB35:
	bl _Znaj
.LVL835:
	.loc 6 393 0
	lwz 0,64(31)
	.loc 6 392 0
	stw 3,76(31)
.LVL836:
	.loc 6 393 0
	cmpwi 7,0,0
	ble- 7,.L680
	.loc 4 1590 0
	addi 11,28,-4
.LBE2925:
.LBE2924:
.LBE2935:
.LBE2941:
.LBE2917:
	.loc 6 393 0
	li 9,0
	b .L681
.LVL837:
.L686:
.LBB2950:
.LBB2942:
.LBB2936:
.LBB2930:
.LBB2928:
	lwz 3,76(31)
.LVL838:
.L681:
	.loc 6 394 0
	lwzu 10,4(11)
	slwi 0,9,2
	.loc 6 393 0
	addi 9,9,1
.LVL839:
	.loc 6 394 0
	stwx 10,3,0
	.loc 6 393 0
	lwz 0,64(31)
	cmpw 7,9,0
	blt+ 7,.L686
.LVL840:
.L680:
	.loc 6 399 0
	mr 3,28
	bl _ZdaPv
.LVL841:
.L678:
.LBE2928:
.LBE2930:
.LBE2936:
.LBE2942:
	.loc 4 1606 0
	mr 3,30
	bl _ZNK8idVarDef10GlobalNameEv
	mr 4,3
.LVL842:
.LBB2943:
.LBB2944:
	.loc 4 105 0
	mr 3,31
.LVL843:
	bl _ZN5idStraSEPKc
.LEHE35:
.LVL844:
.LBE2944:
.LBE2943:
.LBB2945:
.LBB2946:
	.loc 4 692 0
	li 0,2
	stw 0,16(30)
.LBE2946:
.LBE2945:
.LBE2950:
	.loc 4 1611 0
	mr 3,31
.LBB2951:
.LBB2948:
.LBB2947:
	.loc 4 694 0
	stw 31,4(30)
.LBE2947:
.LBE2948:
.LBE2951:
	.loc 4 1611 0
	lwz 0,28(1)
	lwz 28,8(1)
	mtlr 0
	lwz 29,12(1)
	lwz 30,16(1)
.LVL845:
	lwz 31,20(1)
.LVL846:
	addi 1,1,24
	.cfi_remember_state
.LCFI146:
	.cfi_def_cfa_offset 0
	.cfi_restore 31
	.cfi_restore 30
	.cfi_restore 29
	.cfi_restore 28
	blr
.LVL847:
.L685:
.LCFI147:
	.cfi_restore_state
.LBB2952:
.LBB2949:
.LBB2937:
.LBB2931:
.LBB2929:
.LBB2926:
.LBB2927:
	.loc 6 194 0
	mr 3,28
.LVL848:
	bl _ZdaPv
.LVL849:
	.loc 6 197 0
	stw 29,76(31)
	.loc 6 198 0
	stw 29,64(31)
	.loc 6 199 0
	stw 29,68(31)
	b .L678
.LVL850:
.L684:
.LBE2927:
.LBE2926:
.LBE2929:
.LBE2931:
.LBE2937:
.LBE2949:
	.loc 4 1592 0
	li 3,1024
.LVL851:
	bl __cxa_allocate_exception
.LVL852:
	li 4,3072
	mr 31,3
	lis 3,.LC41@ha
	la 3,.LC41@l(3)
.LEHB36:
	crxor 6,6,6
	bl _Z2vaPKcz
.LEHE36:
	mr 4,3
	mr 3,31
	bl _ZN14idCompileErrorC1EPKc
	lis 4,_ZTI14idCompileError@ha
	mr 3,31
	la 4,_ZTI14idCompileError@l(4)
	li 5,0
.LEHB37:
	bl __cxa_throw
.L683:
	mr 30,3
.LVL853:
	mr 3,31
	bl __cxa_free_exception
	mr 3,30
	bl _Unwind_Resume
.LEHE37:
.LBE2952:
	.cfi_endproc
.LFE2907:
	.section	.gcc_except_table
.LLSDA2907:
	.byte	0xff
	.byte	0xff
	.byte	0x1
	.uleb128 .LLSDACSE2907-.LLSDACSB2907
.LLSDACSB2907:
	.uleb128 .LEHB35-.LFB2907
	.uleb128 .LEHE35-.LEHB35
	.uleb128 0
	.uleb128 0
	.uleb128 .LEHB36-.LFB2907
	.uleb128 .LEHE36-.LEHB36
	.uleb128 .L683-.LFB2907
	.uleb128 0
	.uleb128 .LEHB37-.LFB2907
	.uleb128 .LEHE37-.LEHB37
	.uleb128 0
	.uleb128 0
.LLSDACSE2907:
	.section	".text"
	.size	_ZN9idProgram13AllocFunctionEP8idVarDef, .-_ZN9idProgram13AllocFunctionEP8idVarDef
	.align 2
	.globl _ZN9idProgram9SetEntityEPKcP8idEntity
	.type	_ZN9idProgram9SetEntityEPKcP8idEntity, @function
_ZN9idProgram9SetEntityEPKcP8idEntity:
.LFB2908:
	.loc 4 1618 0
	.cfi_startproc
	.cfi_personality 0,__gxx_personality_v0
	.cfi_lsda 0,.LLSDA2908
.LVL854:
	mflr 0
	stwu 1,-64(1)
.LCFI148:
	.cfi_def_cfa_offset 64
	.cfi_register 65, 0
.LVL855:
	stw 31,60(1)
.LBB2973:
.LBB2974:
.LBB2975:
.LBB2976:
	.loc 5 774 0
	mr. 31,4
	.cfi_offset 31, -4
.LBE2976:
.LBE2975:
.LBE2974:
.LBE2973:
	.loc 4 1618 0
	stw 0,68(1)
.LBB3001:
.LBB2987:
.LBB2988:
.LBB2989:
.LBB2990:
	.loc 5 357 0
	li 0,20
	.cfi_offset 65, 4
	stw 0,16(1)
	.loc 5 358 0
	addi 0,1,20
	stw 0,12(1)
.LVL856:
	.loc 5 415 0
	li 0,9216
	sth 0,20(1)
.LBE2990:
.LBE2989:
	.loc 5 416 0
	li 0,1
.LBE2988:
.LBE2987:
.LBE3001:
	.loc 4 1618 0
	stw 27,44(1)
	mr 27,3
	.cfi_offset 27, -20
	stw 28,48(1)
	mr 28,5
	.cfi_offset 28, -16
	stw 29,52(1)
	addi 29,1,8
	.cfi_offset 29, -12
	stw 30,56(1)
.LBB3002:
.LBB2992:
.LBB2991:
	.loc 5 416 0
	stw 0,8(1)
.LVL857:
.LBE2991:
.LBE2992:
.LBB2993:
.LBB2985:
.LBB2983:
	.loc 5 774 0
	beq- 0,.L688
	.cfi_offset 30, -8
.LVL858:
	.loc 5 775 0
	mr 3,31
.LVL859:
.LBB2977:
.LBB2978:
	.loc 5 351 0
	addi 29,1,8
.LBE2978:
.LBE2977:
	.loc 5 775 0
	bl strlen
.LVL860:
	addi 30,3,1
.LVL861:
	.loc 5 776 0
	addi 4,30,1
.LVL862:
.LBB2981:
.LBB2979:
	.loc 5 350 0
	cmpwi 7,4,20
	bgt- 7,.L689
.LVL863:
.L692:
.LBE2979:
.LBE2981:
	.loc 5 777 0
	lbz 0,0(31)
	li 9,0
	cmpwi 7,0,0
	beq- 7,.L691
.LVL864:
.L701:
	.loc 5 778 0
	lwz 11,8(1)
	lwz 10,12(1)
	add 11,10,11
	stbx 0,11,9
	.loc 5 777 0
	addi 9,9,1
.LVL865:
	lbzx 0,31,9
	cmpwi 7,0,0
	bne+ 7,.L701
.LVL866:
.L691:
	.loc 5 781 0
	lwz 9,12(1)
	li 0,0
	.loc 5 780 0
	stw 30,8(1)
	.loc 5 781 0
	stbx 0,9,30
.LVL867:
.L688:
.LBE2983:
.LBE2985:
.LBE2993:
	.loc 4 1624 0
	lis 6,.LANCHOR0@ha
	lwz 5,12(1)
	la 6,.LANCHOR0@l(6)
	mr 3,27
	addi 4,6,160
	addi 6,6,96
.LEHB38:
	bl _ZNK9idProgram6GetDefEPK9idTypeDefPKcPK8idVarDef
.LEHE38:
.LVL868:
	.loc 4 1625 0
	cmpwi 0,3,0
	beq- 0,.L693
	.loc 4 1625 0 is_stmt 0 discriminator 1
	lwz 0,16(3)
	cmpwi 7,0,3
	beq- 7,.L693
	.loc 4 1627 0 is_stmt 1
	cmpwi 7,28,0
	beq- 7,.L704
	.loc 4 1630 0
	lwz 11,4(28)
	lwz 9,4(3)
	addi 0,11,1
	stw 0,0(9)
.L693:
.LVL869:
.LBB2994:
.LBB2995:
.LBB2996:
	.loc 5 501 0
	mr 3,29
.LVL870:
.LEHB39:
	bl _ZN5idStr8FreeDataEv
.LEHE39:
.LBE2996:
.LBE2995:
.LBE2994:
.LBE3002:
	.loc 4 1633 0
	lwz 0,68(1)
	lwz 27,44(1)
.LVL871:
	mtlr 0
	lwz 28,48(1)
.LVL872:
	lwz 29,52(1)
	lwz 30,56(1)
	lwz 31,60(1)
.LVL873:
	addi 1,1,64
	.cfi_remember_state
.LCFI149:
	.cfi_def_cfa_offset 0
	.cfi_restore 31
	.cfi_restore 30
	.cfi_restore 29
	.cfi_restore 28
	.cfi_restore 27
	blr
.LVL874:
.L689:
.LCFI150:
	.cfi_restore_state
.LBB3003:
.LBB2997:
.LBB2986:
.LBB2984:
.LBB2982:
.LBB2980:
	.loc 5 351 0
	mr 3,29
	li 5,1
.LEHB40:
	bl _ZN5idStr10ReAllocateEib
.LEHE40:
.LVL875:
	b .L692
.LVL876:
.L704:
.LBE2980:
.LBE2982:
.LBE2984:
.LBE2986:
.LBE2997:
	.loc 4 1628 0
	lwz 9,4(3)
	stw 28,0(9)
	b .L693
.LVL877:
.L699:
	mr 31,3
.LVL878:
.LBB2998:
.LBB2999:
.LBB3000:
	.loc 5 501 0
	mr 3,29
	bl _ZN5idStr8FreeDataEv
	mr 3,31
.LEHB41:
	bl _Unwind_Resume
.LEHE41:
.LBE3000:
.LBE2999:
.LBE2998:
.LBE3003:
	.cfi_endproc
.LFE2908:
	.section	.gcc_except_table
.LLSDA2908:
	.byte	0xff
	.byte	0xff
	.byte	0x1
	.uleb128 .LLSDACSE2908-.LLSDACSB2908
.LLSDACSB2908:
	.uleb128 .LEHB38-.LFB2908
	.uleb128 .LEHE38-.LEHB38
	.uleb128 .L699-.LFB2908
	.uleb128 0
	.uleb128 .LEHB39-.LFB2908
	.uleb128 .LEHE39-.LEHB39
	.uleb128 0
	.uleb128 0
	.uleb128 .LEHB40-.LFB2908
	.uleb128 .LEHE40-.LEHB40
	.uleb128 .L699-.LFB2908
	.uleb128 0
	.uleb128 .LEHB41-.LFB2908
	.uleb128 .LEHE41-.LEHB41
	.uleb128 0
	.uleb128 0
.LLSDACSE2908:
	.section	".text"
	.size	_ZN9idProgram9SetEntityEPKcP8idEntity, .-_ZN9idProgram9SetEntityEPKcP8idEntity
	.align 2
	.globl _ZN9idProgram14AllocStatementEv
	.type	_ZN9idProgram14AllocStatementEv, @function
_ZN9idProgram14AllocStatementEv:
.LFB2909:
	.loc 4 1640 0
	.cfi_startproc
	.cfi_personality 0,__gxx_personality_v0
	.cfi_lsda 0,.LLSDA2909
.LVL879:
	mflr 0
	stwu 1,-16(1)
.LCFI151:
	.cfi_def_cfa_offset 16
	.cfi_register 65, 0
	.loc 4 2214 0
	addis 3,3,0xa
.LVL880:
	.loc 4 1640 0
	stw 30,8(1)
	stw 0,20(1)
	.loc 4 1641 0
	lis 0,0x1
	.cfi_offset 65, 4
	.cfi_offset 30, -8
	.loc 4 1640 0
	stw 31,12(1)
	.loc 4 1641 0
	ori 0,0,16383
	.loc 4 2214 0
	lwz 9,-16320(3)
	.loc 4 1641 0
	cmpw 7,9,0
	bgt- 7,.L709
	.cfi_offset 31, -4
.LBB3004:
.LBB3005:
	.loc 9 296 0
	addi 0,9,1
	mulli 9,9,20
	stwu 0,-16320(3)
.LVL881:
.LBE3005:
.LBE3004:
	.loc 4 1645 0
	lwz 0,20(1)
.LBB3007:
.LBB3006:
	.loc 9 296 0
	add 3,3,9
.LVL882:
.LBE3006:
.LBE3007:
	.loc 4 1645 0
	lwz 30,8(1)
	addi 3,3,4
	mtlr 0
	lwz 31,12(1)
	addi 1,1,16
	.cfi_remember_state
.LCFI152:
	.cfi_def_cfa_offset 0
	.cfi_restore 31
	.cfi_restore 30
	blr
.LVL883:
.L709:
.LCFI153:
	.cfi_restore_state
	.loc 4 1642 0
	li 3,1024
.LVL884:
	bl __cxa_allocate_exception
	lis 4,0x1
	mr 31,3
	lis 3,.LC42@ha
	la 3,.LC42@l(3)
	ori 4,4,16384
.LEHB42:
	crxor 6,6,6
	bl _Z2vaPKcz
.LEHE42:
	mr 4,3
	mr 3,31
	bl _ZN14idCompileErrorC1EPKc
	lis 4,_ZTI14idCompileError@ha
	mr 3,31
	la 4,_ZTI14idCompileError@l(4)
	li 5,0
.LEHB43:
	bl __cxa_throw
.L708:
	mr 30,3
	mr 3,31
	bl __cxa_free_exception
	mr 3,30
	bl _Unwind_Resume
.LEHE43:
	.cfi_endproc
.LFE2909:
	.section	.gcc_except_table
.LLSDA2909:
	.byte	0xff
	.byte	0xff
	.byte	0x1
	.uleb128 .LLSDACSE2909-.LLSDACSB2909
.LLSDACSB2909:
	.uleb128 .LEHB42-.LFB2909
	.uleb128 .LEHE42-.LEHB42
	.uleb128 .L708-.LFB2909
	.uleb128 0
	.uleb128 .LEHB43-.LFB2909
	.uleb128 .LEHE43-.LEHB43
	.uleb128 0
	.uleb128 0
.LLSDACSE2909:
	.section	".text"
	.size	_ZN9idProgram14AllocStatementEv, .-_ZN9idProgram14AllocStatementEv
	.align 2
	.globl _ZNK9idProgram20DisassembleStatementEP6idFilei
	.type	_ZNK9idProgram20DisassembleStatementEP6idFilei, @function
_ZNK9idProgram20DisassembleStatementEP6idFilei:
.LFB2911:
	.loc 4 1692 0
	.cfi_startproc
.LVL885:
	mflr 0
	stwu 1,-24(1)
.LCFI154:
	.cfi_def_cfa_offset 24
	.cfi_register 65, 0
	.loc 4 1696 0
	addis 9,3,0xa
.LBB3008:
	.loc 4 1698 0
	lis 8,_ZN10idCompiler7opcodesE@ha
.LBE3008:
	.loc 4 1696 0
	addi 9,9,-16320
	.loc 4 1692 0
	stw 29,12(1)
	stw 0,28(1)
	.loc 4 1696 0
	mulli 0,5,20
	.cfi_offset 65, 4
	.cfi_offset 29, -12
	.loc 4 1692 0
	stw 30,16(1)
	mr 29,5
.LVL886:
	stw 31,20(1)
	.loc 4 1696 0
	add 9,9,0
	addi 30,9,4
	.cfi_offset 31, -4
	.cfi_offset 30, -8
.LVL887:
	.loc 4 1692 0
	mr 31,4
.LBB3009:
	.loc 4 1697 0
	lhz 9,4(9)
	.loc 4 1698 0
	mr 7,29
	lhz 0,18(30)
	.loc 4 2214 0
	lwz 11,12(3)
	.loc 4 1697 0
	mulli 9,9,28
	.loc 4 1698 0
	lwz 10,0(4)
	.loc 4 2214 0
	slwi 0,0,5
	add 11,11,0
	.loc 4 1698 0
	la 0,_ZN10idCompiler7opcodesE@l(8)
	add 9,0,9
	lwz 0,56(10)
	mr 3,4
.LVL888:
	lis 4,.LC43@ha
.LVL889:
	mtctr 0
	la 4,.LC43@l(4)
	lwz 5,4(11)
.LVL890:
	lhz 6,16(30)
	lwz 8,4(9)
	crxor 6,6,6
	bctrl
.LVL891:
	.loc 4 1700 0
	lwz 0,4(30)
	cmpwi 7,0,0
	beq- 7,.L711
	.loc 4 1701 0
	lwz 9,0(31)
	lis 4,.LC44@ha
	la 4,.LC44@l(4)
	mr 3,31
	lwz 0,56(9)
	mtctr 0
	crxor 6,6,6
	bctrl
	.loc 4 1702 0
	lwz 3,4(30)
	mr 4,31
	mr 5,29
	bl _ZNK8idVarDef9PrintInfoEP6idFilei
.L711:
	.loc 4 1705 0
	lwz 0,8(30)
	cmpwi 7,0,0
	beq- 7,.L712
	.loc 4 1706 0
	lwz 9,0(31)
	lis 4,.LC45@ha
	la 4,.LC45@l(4)
	mr 3,31
	lwz 0,56(9)
	mtctr 0
	crxor 6,6,6
	bctrl
	.loc 4 1707 0
	lwz 3,8(30)
	mr 4,31
	mr 5,29
	bl _ZNK8idVarDef9PrintInfoEP6idFilei
.L712:
	.loc 4 1710 0
	lwz 0,12(30)
	cmpwi 7,0,0
	beq- 7,.L713
	.loc 4 1711 0
	lwz 9,0(31)
	lis 4,.LC46@ha
	la 4,.LC46@l(4)
	mr 3,31
	lwz 0,56(9)
	mtctr 0
	crxor 6,6,6
	bctrl
	.loc 4 1712 0
	lwz 3,12(30)
	mr 4,31
	mr 5,29
	bl _ZNK8idVarDef9PrintInfoEP6idFilei
.L713:
	.loc 4 1715 0
	lwz 9,0(31)
	lis 4,.LC47@ha
	mr 3,31
	la 4,.LC47@l(4)
	lwz 0,56(9)
	mtctr 0
	crxor 6,6,6
	bctrl
.LBE3009:
	.loc 4 1716 0
	lwz 0,28(1)
	lwz 29,12(1)
.LVL892:
	mtlr 0
	lwz 30,16(1)
	lwz 31,20(1)
.LVL893:
	addi 1,1,24
.LCFI155:
	.cfi_def_cfa_offset 0
	.cfi_restore 31
	.cfi_restore 30
	.cfi_restore 29
	blr
	.cfi_endproc
.LFE2911:
	.size	_ZNK9idProgram20DisassembleStatementEP6idFilei, .-_ZNK9idProgram20DisassembleStatementEP6idFilei
	.align 2
	.globl _ZNK9idProgram11DisassembleEv
	.type	_ZNK9idProgram11DisassembleEv, @function
_ZNK9idProgram11DisassembleEv:
.LFB2912:
	.loc 4 1723 0
	.cfi_startproc
.LVL894:
	stwu 1,-48(1)
.LCFI156:
	.cfi_def_cfa_offset 48
	mflr 0
.LBB3010:
	.loc 4 1729 0
	lis 4,.LC48@ha
	li 5,1
.LBE3010:
	.loc 4 1723 0
	stw 25,20(1)
.LBB3011:
	.loc 4 1729 0
	lis 25,fileSystem@ha
	.cfi_offset 25, -28
	.cfi_register 65, 0
.LBE3011:
	.loc 4 1723 0
	stw 26,24(1)
.LBB3012:
	.loc 4 1729 0
	la 4,.LC48@l(4)
.LBE3012:
	.loc 4 1723 0
	stw 28,32(1)
	mr 26,3
	.cfi_offset 28, -16
	.cfi_offset 26, -24
	stw 29,36(1)
.LBB3013:
	.loc 4 2214 0
	addis 29,26,0x6
	.cfi_offset 29, -12
.LBE3013:
	.loc 4 1723 0
	stw 0,52(1)
	stw 22,8(1)
	stw 23,12(1)
	stw 24,16(1)
	stw 27,28(1)
	stw 30,40(1)
	stw 31,44(1)
.LBB3014:
	.loc 4 1729 0
	lwz 9,fileSystem@l(25)
	lwz 11,0(9)
	mr 3,9
.LVL895:
	lwz 0,124(11)
	.cfi_offset 31, -4
	.cfi_offset 30, -8
	.cfi_offset 27, -20
	.cfi_offset 24, -32
	.cfi_offset 23, -36
	.cfi_offset 22, -40
	.cfi_offset 65, 4
	mtctr 0
	bctrl
	.loc 4 1731 0
	lwz 0,60(29)
	.loc 4 1729 0
	mr 28,3
.LVL896:
	.loc 4 1731 0
	cmpwi 7,0,0
	ble- 7,.L715
	.loc 4 1738 0
	lis 23,.LC49@ha
	.loc 4 1744 0
	lis 24,.LC50@ha
	.loc 4 1731 0
	li 31,0
	.loc 4 1732 0
	addi 27,29,60
	.loc 4 1738 0
	la 23,.LC49@l(23)
	.loc 4 1744 0
	la 24,.LC50@l(24)
.LVL897:
.L719:
	.loc 4 1732 0
	mulli 30,31,80
	add 30,27,30
	addi 30,30,4
	.loc 4 1733 0
	lwz 0,32(30)
	cmpwi 7,0,0
	beq- 7,.L722
.L716:
	.loc 4 1731 0
	lwz 0,60(29)
	addi 31,31,1
.LVL898:
	cmpw 7,0,31
	bgt+ 7,.L719
.LVL899:
.L715:
	.loc 4 1747 0
	lwz 3,fileSystem@l(25)
	mr 4,28
	lwz 9,0(3)
	lwz 0,136(9)
	mtctr 0
	bctrl
.LBE3014:
	.loc 4 1748 0
	lwz 0,52(1)
	lwz 22,8(1)
	mtlr 0
	lwz 23,12(1)
	lwz 24,16(1)
	lwz 25,20(1)
	lwz 26,24(1)
.LVL900:
	lwz 27,28(1)
	lwz 28,32(1)
.LVL901:
	lwz 29,36(1)
.LVL902:
	lwz 30,40(1)
	lwz 31,44(1)
	addi 1,1,48
	.cfi_remember_state
.LCFI157:
	.cfi_def_cfa_offset 0
	.cfi_restore 31
	.cfi_restore 30
	.cfi_restore 29
	.cfi_restore 28
	.cfi_restore 27
	.cfi_restore 26
	.cfi_restore 25
	.cfi_restore 24
	.cfi_restore 23
	.cfi_restore 22
	blr
.LVL903:
.L722:
.LCFI158:
	.cfi_restore_state
.LBB3015:
	.loc 4 1738 0
	lwz 9,0(28)
	mr 3,28
	lwz 6,56(30)
	mr 4,23
	lwz 0,56(9)
	lwz 7,52(30)
	mtctr 0
	lwz 5,4(30)
	subf 8,7,6
	crxor 6,6,6
	bctrl
.LVL904:
	.loc 4 1740 0
	lwz 0,48(30)
	cmpwi 7,0,0
	ble- 7,.L717
	li 22,0
.LVL905:
.L718:
	.loc 4 1741 0 discriminator 2
	lwz 5,44(30)
	mr 3,26
	mr 4,28
	add 5,22,5
	.loc 4 1740 0 discriminator 2
	addi 22,22,1
	.loc 4 1741 0 discriminator 2
	bl _ZNK9idProgram20DisassembleStatementEP6idFilei
.LVL906:
	.loc 4 1740 0 discriminator 2
	lwz 0,48(30)
	cmpw 7,0,22
	bgt+ 7,.L718
.LVL907:
.L717:
	.loc 4 1744 0
	lwz 9,0(28)
	mr 3,28
	mr 4,24
	lwz 0,56(9)
	mtctr 0
	crxor 6,6,6
	bctrl
	b .L716
.LBE3015:
	.cfi_endproc
.LFE2912:
	.size	_ZNK9idProgram11DisassembleEv, .-_ZNK9idProgram11DisassembleEv
	.align 2
	.globl _ZN9idProgram17FinishCompilationEv
	.type	_ZN9idProgram17FinishCompilationEv, @function
_ZN9idProgram17FinishCompilationEv:
.LFB2913:
	.loc 4 1757 0
	.cfi_startproc
.LVL908:
.LBB3016:
	.loc 4 2214 0
	addis 9,3,0x6
	addis 11,3,0xa
	.loc 4 1760 0
	lwz 0,60(9)
	addis 9,3,0x23
.LBB3017:
.LBB3018:
	.loc 9 216 0
	addis 8,3,0x3
.LBE3018:
.LBE3017:
	.loc 4 1760 0
	stw 0,-16236(9)
	.loc 4 1763 0
	lwz 0,-16256(9)
	.loc 4 1761 0
	lwz 10,-16320(11)
	.loc 4 1762 0
	lwz 11,-16316(9)
	.loc 4 1761 0
	stw 10,-16232(9)
	.loc 4 1762 0
	stw 11,-16228(9)
	.loc 4 1763 0
	stw 0,-16224(9)
	.loc 4 1764 0
	lwz 0,0(3)
	stw 0,-16220(9)
	.loc 4 1767 0
	lwz 0,52(3)
.LVL909:
	.loc 4 1769 0
	cmpwi 7,0,0
.LBB3020:
.LBB3019:
	.loc 9 216 0
	stw 0,56(8)
.LVL910:
.LBE3019:
.LBE3020:
	.loc 4 1769 0
	blelr- 7
.LVL911:
	.loc 4 1757 0
	mtctr 0
	addi 11,3,55
.LVL912:
.LBE3016:
	.loc 4 1769 0
	li 9,0
.LBB3021:
	.loc 4 1757 0
	addi 8,8,56
.LVL913:
.L725:
	.loc 4 1770 0 discriminator 2
	lbzu 0,1(11)
	.loc 4 1757 0 discriminator 2
	add 10,8,9
	.loc 4 1769 0 discriminator 2
	addi 9,9,1
.LVL914:
	.loc 4 1770 0 discriminator 2
	stb 0,4(10)
	.loc 4 1769 0 discriminator 2
	bdnz .L725
	blr
.LBE3021:
	.cfi_endproc
.LFE2913:
	.size	_ZN9idProgram17FinishCompilationEv, .-_ZN9idProgram17FinishCompilationEv
	.align 2
	.globl _ZN9idProgram12CompileStatsEv
	.type	_ZN9idProgram12CompileStatsEv, @function
_ZN9idProgram12CompileStatsEv:
.LFB2914:
	.loc 4 1781 0
	.cfi_startproc
.LVL915:
	stwu 1,-40(1)
.LCFI159:
	.cfi_def_cfa_offset 40
	mflr 0
.LBB3022:
	.loc 4 1789 0
	lis 4,.LC51@ha
.LBE3022:
	.loc 4 1781 0
	stw 28,24(1)
.LBB3063:
	.loc 4 1789 0
	lis 28,gameLocal@ha
	.cfi_offset 28, -16
	.cfi_register 65, 0
	la 28,gameLocal@l(28)
.LBE3063:
	.loc 4 1781 0
	stw 31,36(1)
.LBB3064:
	.loc 4 1789 0
	la 4,.LC51@l(4)
.LBE3064:
	.loc 4 1781 0
	mr 31,3
	.cfi_offset 31, -4
.LBB3065:
	.loc 4 1789 0
	mr 3,28
.LVL916:
.LBE3065:
	.loc 4 1781 0
	stw 0,44(1)
	stw 24,8(1)
.LBB3066:
	.loc 4 1793 0
	li 24,16
	.cfi_offset 24, -32
	.cfi_offset 65, 4
.LBE3066:
	.loc 4 1781 0
	stw 25,12(1)
	stw 26,16(1)
	stw 27,20(1)
	stw 29,28(1)
	stw 30,32(1)
.LBB3067:
	.loc 4 1789 0
	.cfi_offset 30, -8
	.cfi_offset 29, -12
	.cfi_offset 27, -20
	.cfi_offset 26, -24
	.cfi_offset 25, -28
	crxor 6,6,6
	bl _ZNK11idGameLocal6PrintfEPKcz
	.loc 4 1790 0
	lis 4,.LC52@ha
	mr 3,28
	la 4,.LC52@l(4)
	crxor 6,6,6
	bl _ZNK11idGameLocal7DPrintfEPKcz
.LVL917:
	.loc 4 1793 0
	lwz 0,0(31)
	cmpwi 7,0,0
	ble- 7,.L728
	lis 26,.LC53@ha
	lwz 0,12(31)
	li 30,0
	.loc 4 1792 0
	li 27,0
	la 26,.LC53@l(26)
.LVL918:
.L730:
	.loc 4 1781 0 discriminator 2
	slwi 29,30,5
	.loc 4 1794 0 discriminator 2
	mr 3,28
	.loc 4 2214 0 discriminator 2
	add 9,0,29
	.loc 4 1794 0 discriminator 2
	mr 4,26
	lwz 5,4(9)
	.loc 4 1793 0 discriminator 2
	addi 30,30,1
.LVL919:
	.loc 4 1794 0 discriminator 2
	crxor 6,6,6
	bl _ZNK11idGameLocal7DPrintfEPKcz
	.loc 4 2214 0 discriminator 2
	lwz 0,12(31)
.LBB3023:
.LBB3024:
	.loc 6 589 0 discriminator 2
	add 29,0,29
.LVL920:
.LBE3024:
.LBE3023:
.LBB3025:
.LBB3026:
	.loc 5 728 0 discriminator 2
	lwz 11,4(29)
	addi 9,29,12
	cmpw 7,11,9
	.loc 5 731 0 discriminator 2
	li 9,0
	.loc 5 728 0 discriminator 2
	beq- 7,.L729
	.loc 5 729 0
	lwz 9,8(29)
.L729:
.LBE3026:
.LBE3025:
	.loc 4 2214 0
	lwz 11,0(31)
	.loc 4 1795 0
	add 27,27,9
.LVL921:
	.loc 4 1793 0
	cmpw 7,11,30
	bgt+ 7,.L730
.LVL922:
.LBB3027:
.LBB3028:
	.file 10 "d:/Data/Nintendo/DoomGX/src/game/script/../../idlib/../idlib/containers/StrList.h"
	.loc 10 144 0
	cmpwi 7,11,0
.LBB3029:
.LBB3030:
.LBB3031:
	.loc 5 728 0
	mtctr 11
.LBE3031:
.LBE3030:
.LBE3029:
	.loc 10 144 0
	li 24,16
	li 11,0
	ble- 7,.L748
.LVL923:
.L743:
.LBB3034:
.LBB3035:
	.loc 4 1781 0
	slwi 9,11,5
.LBE3035:
.LBE3034:
	.loc 10 144 0
	addi 11,11,1
.LVL924:
.LBB3037:
.LBB3036:
	.loc 6 573 0
	add 9,0,9
.LVL925:
.LBE3036:
.LBE3037:
.LBB3038:
.LBB3033:
.LBB3032:
	.loc 5 728 0
	lwz 8,4(9)
	addi 10,9,12
	cmpw 7,8,10
	li 10,32
	beq- 7,.L732
	lwz 10,8(9)
	addi 10,10,32
.L732:
.LBE3032:
.LBE3033:
.LBE3038:
	.loc 10 145 0
	add 24,24,10
.LVL926:
	.loc 10 144 0
	bdnz .L743
	add 24,24,27
.LVL927:
.L728:
	.loc 4 2214 0
	addis 9,31,0x23
	lwz 27,-16316(9)
.LBE3028:
.LBE3027:
	.loc 4 1800 0
	lwz 30,-16256(9)
	.loc 4 1804 0
	cmpwi 7,27,0
	.loc 4 1801 0
	mulli 0,27,96
	.loc 4 1800 0
	slwi 30,30,5
	.loc 4 1801 0
	add 30,0,30
.LVL928:
	.loc 4 1802 0
	add 30,30,24
.LVL929:
	.loc 4 1804 0
	ble- 7,.L733
	lwz 26,-16304(9)
	li 29,0
.LVL930:
.L734:
	.loc 4 1805 0 discriminator 2
	slwi 0,29,2
	.loc 4 1804 0 discriminator 2
	addi 29,29,1
.LVL931:
	.loc 4 1805 0 discriminator 2
	lwzx 3,26,0
	bl _ZNK9idTypeDef9AllocatedEv
	.loc 4 1804 0 discriminator 2
	cmpw 7,29,27
	.loc 4 1805 0 discriminator 2
	add 30,30,3
.LVL932:
	.loc 4 1804 0 discriminator 2
	bne+ 7,.L734
.LVL933:
.L733:
	.loc 4 2214 0
	addis 27,31,0x6
	lwz 9,60(27)
	.loc 4 1809 0
	cmpwi 7,9,0
.LBB3040:
.LBB3041:
	.loc 9 202 0
	mulli 0,9,80
.LBE3041:
.LBE3040:
	.loc 4 1808 0
	mr 29,0
.LVL934:
	.loc 4 1809 0
	ble- 7,.L735
.LBB3042:
.LBB3043:
.LBB3044:
.LBB3045:
	.loc 5 728 0
	mtctr 9
.LBE3045:
.LBE3044:
.LBE3043:
.LBE3042:
	.loc 4 1809 0
	li 11,0
	.loc 4 1810 0
	addi 6,27,60
.LVL935:
.L737:
	.loc 4 1810 0 is_stmt 0 discriminator 2
	mulli 10,11,80
.LBB3054:
.LBB3052:
.LBB3048:
.LBB3046:
	.loc 5 728 0 is_stmt 1 discriminator 2
	li 8,0
.LBE3046:
.LBE3048:
.LBE3052:
.LBE3054:
	.loc 4 1809 0 discriminator 2
	addi 11,11,1
.LVL936:
	.loc 4 1810 0 discriminator 2
	add 10,6,10
	addi 9,10,4
.LVL937:
.LBB3055:
.LBB3053:
.LBB3049:
.LBB3047:
	.loc 5 728 0 discriminator 2
	addi 10,10,16
	lwz 7,4(9)
	cmpw 7,7,10
	beq- 7,.L736
	.loc 5 728 0 is_stmt 0
	lwz 8,8(9)
.L736:
.LBE3047:
.LBE3049:
.LBB3050:
.LBB3051:
	.loc 6 239 0 is_stmt 1
	lwz 9,68(9)
.LVL938:
	slwi 9,9,2
.LBE3051:
.LBE3050:
	.loc 4 96 0
	add 29,29,9
.LVL939:
.LBE3053:
.LBE3055:
	.loc 4 1810 0
	add 29,29,8
.LVL940:
	.loc 4 1809 0
	bdnz .L737
.LVL941:
.L735:
.LBB3056:
.LBB3057:
	.loc 4 2214 0
	addis 26,31,0xa
.LBE3057:
.LBE3056:
	.loc 4 1819 0
	lis 4,.LC54@ha
.LBB3060:
.LBB3058:
	.loc 9 202 0
	lwz 25,-16320(26)
.LBE3058:
.LBE3060:
	.loc 4 1819 0
	mr 3,28
	la 4,.LC54@l(4)
.LBB3061:
.LBB3059:
	.loc 9 202 0
	mulli 25,25,20
.LBE3059:
.LBE3061:
	.loc 4 1815 0
	add 25,0,25
	.loc 4 1819 0
	crxor 6,6,6
	bl _ZNK11idGameLocal6PrintfEPKcz
.LVL942:
	.loc 4 1820 0
	lwz 5,0(31)
	lis 4,.LC55@ha
	mr 3,28
	mr 6,24
	la 4,.LC55@l(4)
	.loc 4 1816 0
	addis 25,25,0x3
	.loc 4 1820 0
	crxor 6,6,6
	bl _ZNK11idGameLocal6PrintfEPKcz
	.loc 4 2214 0
	lwz 5,-16320(26)
	.loc 4 1821 0
	lis 4,.LC56@ha
	mr 3,28
	mulli 6,5,20
	la 4,.LC56@l(4)
	.loc 4 1817 0
	add 25,25,30
.LVL943:
	.loc 4 1813 0
	add 30,29,30
.LVL944:
	.loc 4 1821 0
	crxor 6,6,6
	bl _ZNK11idGameLocal6PrintfEPKcz
	.loc 4 1822 0
	lwz 5,60(27)
	lis 4,.LC57@ha
	mr 6,29
	mr 3,28
	la 4,.LC57@l(4)
	crxor 6,6,6
	bl _ZNK11idGameLocal6PrintfEPKcz
	.loc 4 1823 0
	lwz 5,52(31)
	lis 4,.LC58@ha
	mr 3,28
	la 4,.LC58@l(4)
	crxor 6,6,6
	bl _ZNK11idGameLocal6PrintfEPKcz
	.loc 4 1824 0
	lis 4,.LC59@ha
	mr 3,28
	mr 5,25
	la 4,.LC59@l(4)
	crxor 6,6,6
	bl _ZNK11idGameLocal6PrintfEPKcz
	.loc 4 1825 0
	lis 4,.LC60@ha
	lis 5,0x22
	mr 3,28
	la 4,.LC60@l(4)
	ori 5,5,49328
	crxor 6,6,6
	bl _ZNK11idGameLocal6PrintfEPKcz
	.loc 4 1813 0
	addis 5,30,0x23
	.loc 4 1826 0
	lis 4,.LC61@ha
	mr 3,28
	la 4,.LC61@l(4)
	addi 5,5,-16208
	crxor 6,6,6
	bl _ZNK11idGameLocal6PrintfEPKcz
	.loc 4 1827 0
	lis 4,.LC62@ha
	mr 3,28
	la 4,.LC62@l(4)
	li 5,7068
	crxor 6,6,6
	bl _ZNK11idGameLocal6PrintfEPKcz
.LBE3067:
	.loc 4 1828 0
	lwz 0,44(1)
	lwz 24,8(1)
.LVL945:
	mtlr 0
	lwz 25,12(1)
.LVL946:
	lwz 26,16(1)
	lwz 27,20(1)
	lwz 28,24(1)
	lwz 29,28(1)
.LVL947:
	lwz 30,32(1)
	lwz 31,36(1)
.LVL948:
	addi 1,1,40
	.cfi_remember_state
.LCFI160:
	.cfi_def_cfa_offset 0
	.cfi_restore 31
	.cfi_restore 30
	.cfi_restore 29
	.cfi_restore 28
	.cfi_restore 27
	.cfi_restore 26
	.cfi_restore 25
	.cfi_restore 24
	blr
.LVL949:
.L748:
.LCFI161:
	.cfi_restore_state
.LBB3068:
.LBB3062:
.LBB3039:
	.loc 10 144 0
	addi 24,27,16
	b .L728
.LBE3039:
.LBE3062:
.LBE3068:
	.cfi_endproc
.LFE2914:
	.size	_ZN9idProgram12CompileStatsEv, .-_ZN9idProgram12CompileStatsEv
	.align 2
	.globl _ZNK9idProgram17CalculateChecksumEv
	.type	_ZNK9idProgram17CalculateChecksumEv, @function
_ZNK9idProgram17CalculateChecksumEv:
.LFB2925:
	.loc 4 2066 0
	.cfi_startproc
.LVL950:
	mflr 0
	stwu 1,-16(1)
.LCFI162:
	.cfi_def_cfa_offset 16
	.cfi_register 65, 0
	stw 30,8(1)
	stw 0,20(1)
	stw 31,12(1)
.LBB3069:
	.loc 4 2214 0
	addis 31,3,0xa
	.cfi_offset 31, -4
	.cfi_offset 65, 4
	.cfi_offset 30, -8
	.loc 4 2078 0
	lwz 3,-16320(31)
.LVL951:
	mulli 3,3,20
	bl _Znaj
	.loc 4 2080 0
	lwz 5,-16320(31)
	li 4,0
	.loc 4 2078 0
	mr 30,3
.LVL952:
	.loc 4 2080 0
	mulli 5,5,20
	bl memset
.LVL953:
	.loc 4 2214 0
	lwz 4,-16320(31)
	.loc 4 2083 0
	cmpwi 7,4,0
	ble- 7,.L750
	mr 9,30
	li 10,0
	.loc 4 2084 0
	addi 7,31,-16320
	.loc 4 2089 0
	li 6,-1
	b .L757
.LVL954:
.L760:
	.loc 4 2087 0
	lwz 0,0(8)
	stw 0,4(9)
.LVL955:
	.loc 4 2091 0
	lwz 8,8(11)
	cmpwi 7,8,0
	beq- 7,.L753
.LVL956:
.L761:
	.loc 4 2092 0
	lwz 0,0(8)
	stw 0,8(9)
.LVL957:
	.loc 4 2096 0
	lwz 8,12(11)
	cmpwi 7,8,0
	beq- 7,.L755
.LVL958:
.L762:
	.loc 4 2097 0
	lwz 0,0(8)
	.loc 4 2083 0
	addi 10,10,1
.LVL959:
	.loc 4 2097 0
	stw 0,12(9)
	.loc 4 2102 0
	lhz 0,16(11)
	sth 0,16(9)
.LVL960:
	.loc 4 2103 0
	lhz 0,18(11)
	sth 0,18(9)
	.loc 4 2214 0
	addi 9,9,20
	lwz 4,-16320(31)
	.loc 4 2083 0
	cmpw 7,4,10
	ble- 7,.L750
.LVL961:
.L757:
	.loc 4 2084 0
	mulli 11,10,20
	add 11,7,11
	lhz 0,4(11)
	addi 11,11,4
	sth 0,0(9)
.LVL962:
	.loc 4 2086 0
	lwz 8,4(11)
	cmpwi 7,8,0
	bne+ 7,.L760
	.loc 4 2089 0
	stw 6,4(9)
.LVL963:
	.loc 4 2091 0
	lwz 8,8(11)
	cmpwi 7,8,0
	bne+ 7,.L761
.L753:
	.loc 4 2094 0
	stw 6,8(9)
.LVL964:
	.loc 4 2096 0
	lwz 8,12(11)
	cmpwi 7,8,0
	bne+ 7,.L762
.L755:
	.loc 4 2099 0
	stw 6,12(9)
.LVL965:
	.loc 4 2083 0
	addi 10,10,1
.LVL966:
	.loc 4 2102 0
	lhz 0,16(11)
	sth 0,16(9)
.LVL967:
	.loc 4 2103 0
	lhz 0,18(11)
	sth 0,18(9)
	.loc 4 2214 0
	addi 9,9,20
	lwz 4,-16320(31)
	.loc 4 2083 0
	cmpw 7,4,10
	bgt+ 7,.L757
.LVL968:
.L750:
	.loc 4 2106 0
	mulli 4,4,20
	mr 3,30
	bl _Z17MD4_BlockChecksumPKvi
	.loc 4 2108 0
	cmpwi 7,30,0
	.loc 4 2106 0
	mr 31,3
.LVL969:
	.loc 4 2108 0
	beq- 7,.L758
	.loc 4 2108 0 is_stmt 0 discriminator 1
	mr 3,30
.LVL970:
	bl _ZdaPv
.L758:
.LBE3069:
	.loc 4 2111 0 is_stmt 1
	lwz 0,20(1)
	mr 3,31
	lwz 30,8(1)
.LVL971:
	mtlr 0
	lwz 31,12(1)
.LVL972:
	addi 1,1,16
.LCFI163:
	.cfi_def_cfa_offset 0
	.cfi_restore 31
	.cfi_restore 30
	blr
	.cfi_endproc
.LFE2925:
	.size	_ZNK9idProgram17CalculateChecksumEv, .-_ZNK9idProgram17CalculateChecksumEv
	.align 2
	.globl _ZNK9idProgram4SaveEP10idSaveGame
	.type	_ZNK9idProgram4SaveEP10idSaveGame, @function
_ZNK9idProgram4SaveEP10idSaveGame:
.LFB2923:
	.loc 4 1994 0
	.cfi_startproc
.LVL973:
	mflr 0
	stwu 1,-32(1)
.LCFI164:
	.cfi_def_cfa_offset 32
	.cfi_register 65, 0
.LBB3070:
	.loc 4 1996 0
	addis 9,3,0x23
.LBE3070:
	.loc 4 1994 0
	stw 28,16(1)
	mr 28,3
	.cfi_offset 28, -16
	stw 30,24(1)
	mr 30,4
	.cfi_offset 30, -8
	stw 0,36(1)
	stw 26,8(1)
	stw 27,12(1)
	stw 29,20(1)
	stw 31,28(1)
.LBB3073:
	.loc 4 1998 0
	lwz 0,0(3)
	.cfi_offset 31, -4
	.cfi_offset 29, -12
	.cfi_offset 27, -20
	.cfi_offset 26, -24
	.cfi_offset 65, 4
	mr 3,4
.LVL974:
	.loc 4 1996 0
	lwz 31,-16220(9)
.LVL975:
	.loc 4 1998 0
	subf 4,31,0
.LVL976:
	bl _ZN10idSaveGame8WriteIntEi
.LVL977:
	.loc 4 1999 0
	lwz 0,0(28)
	cmpw 7,31,0
	bge- 7,.L764
	slwi 29,31,5
.L765:
.LVL978:
.LBB3071:
	.loc 4 2214 0
	lwz 9,12(28)
.LBE3071:
	.loc 4 2000 0
	mr 3,30
	.loc 4 2001 0
	addi 31,31,1
.LVL979:
.LBB3072:
	.loc 4 2214 0
	add 9,9,29
.LBE3072:
	.loc 4 2001 0
	addi 29,29,32
.LVL980:
	.loc 4 2000 0
	lwz 4,4(9)
	bl _ZN10idSaveGame11WriteStringEPKc
.LVL981:
	.loc 4 1999 0
	lwz 0,0(28)
	cmpw 7,0,31
	bgt+ 7,.L765
.LVL982:
.L764:
	.loc 4 2214 0 discriminator 1
	addis 27,28,0x3
	.loc 4 2004 0 discriminator 1
	lwz 0,56(27)
	cmpwi 7,0,0
	ble- 7,.L766
	.loc 4 1994 0
	addi 29,28,55
.LBE3073:
	li 31,0
.LVL983:
.LBB3074:
	addi 26,27,56
.LVL984:
.L768:
	add 11,26,31
	.loc 4 2005 0
	lbzu 9,1(29)
	lbz 0,4(11)
	.loc 4 2006 0
	mr 4,31
	mr 3,30
	.loc 4 2004 0
	addi 31,31,1
.LVL985:
	.loc 4 2005 0
	cmpw 7,9,0
	beq- 7,.L767
	.loc 4 2006 0
	bl _ZN10idSaveGame8WriteIntEi
.LVL986:
	.loc 4 2007 0
	lbz 4,0(29)
	mr 3,30
	bl _ZN10idSaveGame9WriteByteEh
.L767:
.LVL987:
	.loc 4 2004 0
	lwz 0,56(27)
	cmpw 7,0,31
	bgt+ 7,.L768
.LVL988:
.L766:
	.loc 4 2011 0
	li 4,-1
	mr 3,30
	bl _ZN10idSaveGame8WriteIntEi
	.loc 4 2013 0
	lwz 4,52(28)
	mr 3,30
	bl _ZN10idSaveGame8WriteIntEi
	.loc 4 2214 0
	lwz 31,56(27)
.LVL989:
	.loc 4 2014 0
	lwz 0,52(28)
	cmpw 7,31,0
	bge- 7,.L769
.LVL990:
.L771:
	.loc 4 1994 0 discriminator 2
	add 9,28,31
	.loc 4 2015 0 discriminator 2
	mr 3,30
	lbz 4,56(9)
	.loc 4 2014 0 discriminator 2
	addi 31,31,1
.LVL991:
	.loc 4 2015 0 discriminator 2
	bl _ZN10idSaveGame9WriteByteEh
.LVL992:
	.loc 4 2014 0 discriminator 2
	lwz 0,52(28)
	cmpw 7,0,31
	bgt+ 7,.L771
.L769:
	.loc 4 2018 0
	mr 3,28
	bl _ZNK9idProgram17CalculateChecksumEv
	mr 4,3
.LVL993:
	.loc 4 2019 0
	mr 3,30
.LVL994:
	bl _ZN10idSaveGame8WriteIntEi
.LVL995:
.LBE3074:
	.loc 4 2020 0
	lwz 0,36(1)
	lwz 26,8(1)
	mtlr 0
	lwz 27,12(1)
	lwz 28,16(1)
.LVL996:
	lwz 29,20(1)
	lwz 30,24(1)
.LVL997:
	lwz 31,28(1)
.LVL998:
	addi 1,1,32
.LCFI165:
	.cfi_def_cfa_offset 0
	.cfi_restore 31
	.cfi_restore 30
	.cfi_restore 29
	.cfi_restore 28
	.cfi_restore 27
	.cfi_restore 26
	blr
	.cfi_endproc
.LFE2923:
	.size	_ZNK9idProgram4SaveEP10idSaveGame, .-_ZNK9idProgram4SaveEP10idSaveGame
	.align 2
	.globl _ZN9idProgram12ReturnEntityEP8idEntity
	.type	_ZN9idProgram12ReturnEntityEP8idEntity, @function
_ZN9idProgram12ReturnEntityEP8idEntity:
.LFB2934:
	.loc 4 2208 0
	.cfi_startproc
.LVL999:
	.loc 4 2209 0
	cmpwi 0,4,0
	.loc 4 2210 0
	addis 3,3,0x23
.LVL1000:
	lwz 9,-16216(3)
	.loc 4 2209 0
	beq- 0,.L776
	.loc 4 2210 0
	lwz 11,4(4)
	lwz 9,4(9)
	addi 0,11,1
	stw 0,0(9)
	blr
.L776:
	.loc 4 2212 0
	lwz 9,4(9)
	stw 4,0(9)
	blr
	.cfi_endproc
.LFE2934:
	.size	_ZN9idProgram12ReturnEntityEP8idEntity, .-_ZN9idProgram12ReturnEntityEP8idEntity
	.section	.text._ZN6idListIiE5ClearEv,"axG",@progbits,_ZN6idListIiE5ClearEv,comdat
	.align 2
	.weak	_ZN6idListIiE5ClearEv
	.type	_ZN6idListIiE5ClearEv, @function
_ZN6idListIiE5ClearEv:
.LFB2975:
	.loc 6 192 0
	.cfi_startproc
.LVL1001:
	mflr 0
	stwu 1,-16(1)
.LCFI166:
	.cfi_def_cfa_offset 16
	.cfi_register 65, 0
	stw 31,12(1)
	mr 31,3
	.cfi_offset 31, -4
	stw 0,20(1)
	.loc 6 193 0
	lwz 3,12(3)
.LVL1002:
	cmpwi 7,3,0
	beq- 7,.L779
	.cfi_offset 65, 4
	.loc 6 194 0 discriminator 1
	bl _ZdaPv
.L779:
	.loc 6 197 0
	li 0,0
	stw 0,12(31)
	.loc 6 198 0
	stw 0,0(31)
	.loc 6 199 0
	stw 0,4(31)
	.loc 6 200 0
	lwz 0,20(1)
	lwz 31,12(1)
.LVL1003:
	mtlr 0
	addi 1,1,16
.LCFI167:
	.cfi_def_cfa_offset 0
	.cfi_restore 31
	blr
	.cfi_endproc
.LFE2975:
	.size	_ZN6idListIiE5ClearEv, .-_ZN6idListIiE5ClearEv
	.section	".text"
	.align 2
	.globl _ZN10function_tC2Ev
	.type	_ZN10function_tC2Ev, @function
_ZN10function_tC2Ev:
.LFB2811:
	.loc 4 82 0
	.cfi_startproc
	.cfi_personality 0,__gxx_personality_v0
	.cfi_lsda 0,.LLSDA2811
.LVL1004:
	mflr 0
	stwu 1,-16(1)
.LCFI168:
	.cfi_def_cfa_offset 16
	.cfi_register 65, 0
.LBB3089:
.LBB3090:
.LBB3091:
.LBB3092:
	.loc 5 358 0
	addi 9,3,12
	.loc 5 357 0
	li 11,20
.LBE3092:
.LBE3091:
.LBE3090:
.LBE3089:
	.loc 4 82 0
	stw 31,12(1)
	mr 31,3
	.cfi_offset 31, -4
.LVL1005:
	stw 0,20(1)
.LBB3114:
.LBB3099:
.LBB3096:
.LBB3093:
	.loc 5 356 0
	li 0,0
	.cfi_offset 65, 4
.LBE3093:
.LBE3096:
.LBE3099:
.LBE3114:
	.loc 4 82 0
	stw 30,8(1)
.LBB3115:
	.loc 4 84 0
	li 4,80
.LBB3100:
.LBB3097:
.LBB3094:
	.loc 5 358 0
	stw 9,4(3)
.LBE3094:
.LBE3097:
.LBE3100:
.LBB3101:
.LBB3102:
	.loc 6 159 0
	li 9,16
.LBE3102:
.LBE3101:
.LBB3106:
.LBB3098:
.LBB3095:
	.loc 5 356 0
	stw 0,0(3)
	.loc 5 357 0
	stw 11,8(3)
	.loc 5 359 0
	stb 0,12(3)
.LVL1006:
.LBE3095:
.LBE3098:
.LBE3106:
.LBB3107:
.LBB3105:
	.loc 6 159 0
	stw 9,72(3)
.LVL1007:
.LBB3103:
.LBB3104:
	.loc 6 197 0
	stw 0,76(3)
	.loc 6 198 0
	stw 0,64(3)
	.loc 6 199 0
	stw 0,68(3)
.LBE3104:
.LBE3103:
.LBE3105:
.LBE3107:
	.loc 4 84 0
	lis 3,.LC63@ha
.LVL1008:
	la 3,.LC63@l(3)
.LEHB44:
	.cfi_offset 30, -8
	crxor 6,6,6
	bl _Z15Sys_DebugPrintfPKcz
.LVL1009:
	.loc 4 87 0
	mr 3,31
	bl _ZN10function_t5ClearEv
.LEHE44:
.LBE3115:
	.loc 4 88 0
	lwz 0,20(1)
	lwz 30,8(1)
	mtlr 0
	lwz 31,12(1)
.LVL1010:
	addi 1,1,16
	.cfi_remember_state
.LCFI169:
	.cfi_def_cfa_offset 0
	.cfi_restore 31
	.cfi_restore 30
	blr
.LVL1011:
.L784:
.LCFI170:
	.cfi_restore_state
	mr 30,3
.LVL1012:
.LBB3116:
.LBB3108:
.LBB3109:
.LBB3110:
	.loc 6 181 0
	addi 3,31,64
	bl _ZN6idListIiE5ClearEv
.LVL1013:
.LBE3110:
.LBE3109:
.LBE3108:
.LBB3111:
.LBB3112:
.LBB3113:
	.loc 5 501 0
	mr 3,31
	bl _ZN5idStr8FreeDataEv
	mr 3,30
.LEHB45:
	bl _Unwind_Resume
.LEHE45:
.LBE3113:
.LBE3112:
.LBE3111:
.LBE3116:
	.cfi_endproc
.LFE2811:
	.section	.gcc_except_table
.LLSDA2811:
	.byte	0xff
	.byte	0xff
	.byte	0x1
	.uleb128 .LLSDACSE2811-.LLSDACSB2811
.LLSDACSB2811:
	.uleb128 .LEHB44-.LFB2811
	.uleb128 .LEHE44-.LEHB44
	.uleb128 .L784-.LFB2811
	.uleb128 0
	.uleb128 .LEHB45-.LFB2811
	.uleb128 .LEHE45-.LEHB45
	.uleb128 0
	.uleb128 0
.LLSDACSE2811:
	.section	".text"
	.size	_ZN10function_tC2Ev, .-_ZN10function_tC2Ev
	.section	.text._ZN6idListI5idStrE5ClearEv,"axG",@progbits,_ZN6idListI5idStrE5ClearEv,comdat
	.align 2
	.weak	_ZN6idListI5idStrE5ClearEv
	.type	_ZN6idListI5idStrE5ClearEv, @function
_ZN6idListI5idStrE5ClearEv:
.LFB3197:
	.loc 6 192 0
	.cfi_startproc
.LVL1014:
	mflr 0
	stwu 1,-16(1)
.LCFI171:
	.cfi_def_cfa_offset 16
	.cfi_register 65, 0
	stw 30,8(1)
	mr 30,3
	.cfi_offset 30, -8
	stw 0,20(1)
	stw 31,12(1)
	.loc 6 193 0
	lwz 3,12(3)
.LVL1015:
	cmpwi 7,3,0
	beq- 7,.L787
	.cfi_offset 31, -4
	.cfi_offset 65, 4
	.loc 6 194 0 discriminator 1
	lwz 31,-4(3)
	slwi 31,31,5
	add 31,3,31
	cmpw 7,3,31
	beq- 7,.L788
.L792:
	.loc 6 194 0 is_stmt 0 discriminator 4
	addi 31,31,-32
.LVL1016:
.LBB3120:
.LBB3121:
.LBB3122:
	.loc 5 501 0 is_stmt 1 discriminator 4
	mr 3,31
	bl _ZN5idStr8FreeDataEv
.LBE3122:
.LBE3121:
.LBE3120:
	.loc 6 194 0 discriminator 4
	lwz 3,12(30)
	cmpw 7,3,31
	bne+ 7,.L792
.LVL1017:
.L788:
	.loc 6 194 0 is_stmt 0 discriminator 3
	addi 3,3,-4
	bl _ZdaPv
.L787:
	.loc 6 197 0 is_stmt 1
	li 0,0
	stw 0,12(30)
	.loc 6 198 0
	stw 0,0(30)
	.loc 6 199 0
	stw 0,4(30)
	.loc 6 200 0
	lwz 0,20(1)
	lwz 30,8(1)
.LVL1018:
	mtlr 0
	lwz 31,12(1)
	addi 1,1,16
.LCFI172:
	.cfi_def_cfa_offset 0
	.cfi_restore 31
	.cfi_restore 30
	blr
	.cfi_endproc
.LFE3197:
	.size	_ZN6idListI5idStrE5ClearEv, .-_ZN6idListI5idStrE5ClearEv
	.section	.text._ZN12idStaticListI10function_tLi3072EED2Ev,"axG",@progbits,_ZN12idStaticListI10function_tLi3072EED5Ev,comdat
	.align 2
	.weak	_ZN12idStaticListI10function_tLi3072EED2Ev
	.type	_ZN12idStaticListI10function_tLi3072EED2Ev, @function
_ZN12idStaticListI10function_tLi3072EED2Ev:
.LFB3220:
	.loc 9 108 0
	.cfi_startproc
.LVL1019:
	stwu 1,-40(1)
.LCFI173:
	.cfi_def_cfa_offset 40
	mflr 0
	stw 25,12(1)
.LBB3145:
	.loc 9 109 0
	addic. 25,3,4
	.cfi_offset 25, -28
	.cfi_register 65, 0
.LBE3145:
	.loc 9 108 0
	stw 0,44(1)
	stw 26,16(1)
	stw 27,20(1)
	stw 28,24(1)
	stw 29,28(1)
	stw 30,32(1)
	stw 31,36(1)
.LBB3173:
	.loc 9 109 0
	beq- 0,.L793
	.cfi_offset 31, -4
	.cfi_offset 30, -8
	.cfi_offset 29, -12
	.cfi_offset 28, -16
	.cfi_offset 27, -20
	.cfi_offset 26, -24
	.cfi_offset 65, 4
	.loc 9 109 0 is_stmt 0 discriminator 1
	addis 27,3,0x4
.LBB3146:
.LBB3147:
.LBB3148:
.LBB3149:
.LBB3150:
.LBB3151:
.LBB3152:
	.loc 6 197 0 is_stmt 1 discriminator 1
	li 30,0
.LBE3152:
.LBE3151:
.LBE3150:
.LBE3149:
.LBE3148:
.LBE3147:
.LBE3146:
	.loc 9 109 0 discriminator 1
	addi 26,27,-16380
	addi 27,27,-16396
	mr 29,26
.LVL1020:
.L795:
	.loc 9 108 0 discriminator 4
	subf 28,26,29
.LBB3171:
.LBB3169:
.LBB3167:
	.loc 2 51 0 discriminator 4
	addi 29,29,-80
.LVL1021:
.LBE3167:
.LBE3169:
.LBE3171:
	.loc 9 108 0 discriminator 4
	add 31,28,27
.LBB3172:
.LBB3170:
.LBB3168:
.LBB3159:
.LBB3157:
.LBB3155:
.LBB3153:
	.loc 6 193 0 discriminator 4
	lwz 3,12(31)
	cmpwi 7,3,0
	beq- 7,.L798
	.loc 6 194 0
	bl _ZdaPv
.L798:
	.loc 6 197 0
	stw 30,12(31)
.LBE3153:
.LBE3155:
.LBE3157:
.LBE3159:
.LBB3160:
.LBB3161:
.LBB3162:
	.loc 5 501 0
	mr 3,29
.LBE3162:
.LBE3161:
.LBE3160:
.LBB3165:
.LBB3158:
.LBB3156:
.LBB3154:
	.loc 6 198 0
	stwx 30,28,27
	.loc 6 199 0
	stw 30,4(31)
.LBE3154:
.LBE3156:
.LBE3158:
.LBE3165:
.LBB3166:
.LBB3164:
.LBB3163:
	.loc 5 501 0
	bl _ZN5idStr8FreeDataEv
.LBE3163:
.LBE3164:
.LBE3166:
.LBE3168:
.LBE3170:
.LBE3172:
	.loc 9 109 0
	cmpw 7,25,29
	bne+ 7,.L795
.LVL1022:
.L793:
.LBE3173:
	lwz 0,44(1)
	lwz 25,12(1)
.LVL1023:
	mtlr 0
	lwz 26,16(1)
	lwz 27,20(1)
	lwz 28,24(1)
	lwz 29,28(1)
	lwz 30,32(1)
	lwz 31,36(1)
	addi 1,1,40
.LCFI174:
	.cfi_def_cfa_offset 0
	.cfi_restore 31
	.cfi_restore 30
	.cfi_restore 29
	.cfi_restore 28
	.cfi_restore 27
	.cfi_restore 26
	.cfi_restore 25
	blr
	.cfi_endproc
.LFE3220:
	.size	_ZN12idStaticListI10function_tLi3072EED2Ev, .-_ZN12idStaticListI10function_tLi3072EED2Ev
	.section	.text._ZN6idListI5idStrE6ResizeEi,"axG",@progbits,_ZN6idListI5idStrE6ResizeEi,comdat
	.align 2
	.weak	_ZN6idListI5idStrE6ResizeEi
	.type	_ZN6idListI5idStrE6ResizeEi, @function
_ZN6idListI5idStrE6ResizeEi:
.LFB3256:
	.loc 6 368 0
	.cfi_startproc
.LVL1024:
	mfcr 12
.LBB3198:
	.loc 6 375 0
	cmpwi 4,4,0
.LBE3198:
	.loc 6 368 0
	mflr 0
	stwu 1,-40(1)
.LCFI175:
	.cfi_def_cfa_offset 40
	.cfi_register 65, 0
	.cfi_register 70, 12
	stw 26,16(1)
	mr 26,3
	.cfi_offset 26, -24
	stw 30,32(1)
.LBB3225:
	.loc 6 375 0
	mr 30,4
	.cfi_offset 30, -8
.LBE3225:
	.loc 6 368 0
	stw 0,44(1)
	stw 25,12(1)
	stw 27,20(1)
	stw 28,24(1)
	stw 29,28(1)
	stw 31,36(1)
	stw 12,8(1)
.LBB3226:
	.loc 6 375 0
	ble- 4,.L823
	.cfi_offset 70, -32
	.cfi_offset 31, -4
	.cfi_offset 29, -12
	.cfi_offset 28, -16
	.cfi_offset 27, -20
	.cfi_offset 25, -28
	.cfi_offset 65, 4
	.loc 6 380 0
	lwz 0,4(3)
	cmpw 7,0,4
	beq- 7,.L800
	.loc 6 387 0
	lwz 0,0(3)
	.loc 6 385 0
	lwz 28,12(3)
.LVL1025:
	.loc 6 387 0
	cmpw 7,4,0
	.loc 6 386 0
	stw 4,4(26)
	.loc 6 387 0
	blt- 7,.L824
.L808:
	.loc 6 392 0
	slwi 3,30,5
.LVL1026:
	addi 3,3,4
	bl _Znaj
.LVL1027:
	stw 30,0(3)
	addi 31,3,4
	beq- 4,.L809
.LBB3199:
.LBB3200:
.LBB3201:
	.loc 5 357 0
	mtctr 30
.LBE3201:
.LBE3200:
.LBE3199:
	.loc 6 392 0
	mr 9,31
.LBB3204:
.LBB3203:
.LBB3202:
	.loc 5 356 0
	li 0,0
	.loc 5 357 0
	li 10,20
.L810:
.LVL1028:
	.loc 5 358 0
	addi 11,9,12
	.loc 5 356 0
	stw 0,0(9)
	.loc 5 357 0
	stw 10,8(9)
	.loc 5 358 0
	stw 11,4(9)
	.loc 5 359 0
	stb 0,12(9)
	addi 9,9,32
.LVL1029:
.LBE3202:
.LBE3203:
.LBE3204:
	.loc 6 392 0
	bdnz .L810
.LVL1030:
.L809:
	.loc 6 393 0 discriminator 3
	lwz 0,0(26)
	.loc 6 392 0 discriminator 3
	stw 31,12(26)
.LVL1031:
	.loc 6 393 0 discriminator 3
	cmpwi 7,0,0
	ble- 7,.L811
	.loc 6 393 0 is_stmt 0
	li 30,0
.LVL1032:
	li 27,0
.LBB3205:
.LBB3206:
	.loc 5 536 0 is_stmt 1
	li 25,0
	b .L813
.LVL1033:
.L825:
.LBE3206:
.LBE3205:
	.loc 6 393 0
	lwz 31,12(26)
.LVL1034:
.L813:
	.loc 6 394 0 discriminator 2
	add 31,31,30
.LVL1035:
.LBB3214:
	.loc 4 2214 0 discriminator 2
	lwzx 29,28,30
.LBB3211:
.LBB3207:
.LBB3208:
	.loc 5 350 0 discriminator 2
	lwz 0,8(31)
.LBE3208:
.LBE3207:
.LBE3211:
.LBE3214:
	.loc 6 393 0 discriminator 2
	addi 27,27,1
.LBB3215:
.LBB3212:
	.loc 5 534 0 discriminator 2
	addi 4,29,1
.LVL1036:
.LBB3210:
.LBB3209:
	.loc 5 350 0 discriminator 2
	cmpw 7,4,0
	ble+ 7,.L812
	.loc 5 351 0
	mr 3,31
	li 5,0
	bl _ZN5idStr10ReAllocateEib
.LVL1037:
.L812:
.LBE3209:
.LBE3210:
	.loc 6 368 0
	add 9,28,30
	.loc 5 535 0
	lwz 3,4(31)
	lwz 4,4(9)
	mr 5,29
.LBE3212:
.LBE3215:
	.loc 6 393 0
	addi 30,30,32
.LVL1038:
.LBB3216:
.LBB3213:
	.loc 5 535 0
	bl memcpy
.LVL1039:
	.loc 5 536 0
	lwz 9,4(31)
	stbx 25,9,29
	.loc 5 537 0
	stw 29,0(31)
.LBE3213:
.LBE3216:
	.loc 6 393 0
	lwz 0,0(26)
	cmpw 7,0,27
	bgt+ 7,.L825
.LVL1040:
.L811:
	.loc 6 398 0
	cmpwi 7,28,0
	beq- 7,.L800
	.loc 6 399 0 discriminator 1
	lwz 31,-4(28)
	slwi 31,31,5
	add 31,28,31
	cmpw 7,28,31
	beq- 7,.L814
.L822:
	.loc 6 399 0 is_stmt 0 discriminator 4
	addi 31,31,-32
.LVL1041:
.LBB3217:
.LBB3218:
.LBB3219:
	.loc 5 501 0 is_stmt 1 discriminator 4
	mr 3,31
	bl _ZN5idStr8FreeDataEv
.LBE3219:
.LBE3218:
.LBE3217:
	.loc 6 399 0 discriminator 4
	cmpw 7,28,31
	bne+ 7,.L822
.LVL1042:
.L814:
	.loc 6 399 0 is_stmt 0 discriminator 3
	addi 3,28,-4
	bl _ZdaPv
.LVL1043:
.L800:
.LBE3226:
	.loc 6 401 0 is_stmt 1
	lwz 0,44(1)
	lwz 12,8(1)
	mtlr 0
	lwz 25,12(1)
	lwz 26,16(1)
.LVL1044:
	mtcrf 8,12
	lwz 27,20(1)
	lwz 28,24(1)
	lwz 29,28(1)
	lwz 30,32(1)
	lwz 31,36(1)
	addi 1,1,40
	.cfi_remember_state
.LCFI176:
	.cfi_def_cfa_offset 0
	.cfi_restore 70
	.cfi_restore 31
	.cfi_restore 30
	.cfi_restore 29
	.cfi_restore 28
	.cfi_restore 27
	.cfi_restore 26
	.cfi_restore 25
	blr
.LVL1045:
.L824:
.LCFI177:
	.cfi_restore_state
.LBB3227:
	.loc 6 388 0
	stw 4,0(26)
	b .L808
.LVL1046:
.L823:
.LBB3220:
.LBB3221:
	.loc 6 193 0
	lwz 3,12(3)
.LVL1047:
	cmpwi 7,3,0
	beq- 7,.L802
	.loc 6 194 0
	lwz 31,-4(3)
	slwi 31,31,5
	add 31,3,31
	cmpw 7,3,31
	beq- 7,.L803
.LVL1048:
.L820:
	addi 31,31,-32
.LVL1049:
.LBB3222:
.LBB3223:
.LBB3224:
	.loc 5 501 0
	mr 3,31
	bl _ZN5idStr8FreeDataEv
.LBE3224:
.LBE3223:
.LBE3222:
	.loc 6 194 0
	lwz 3,12(26)
	cmpw 7,3,31
	bne+ 7,.L820
.LVL1050:
.L803:
	addi 3,3,-4
	bl _ZdaPv
.L802:
	.loc 6 197 0
	li 0,0
	stw 0,12(26)
	.loc 6 198 0
	stw 0,0(26)
	.loc 6 199 0
	stw 0,4(26)
	b .L800
.LBE3221:
.LBE3220:
.LBE3227:
	.cfi_endproc
.LFE3256:
	.size	_ZN6idListI5idStrE6ResizeEi, .-_ZN6idListI5idStrE6ResizeEi
	.section	".text"
	.align 2
	.globl _ZN9idProgram10GetFilenumEPKc
	.type	_ZN9idProgram10GetFilenumEPKc, @function
_ZN9idProgram10GetFilenumEPKc:
.LFB2927:
	.loc 4 2161 0
	.cfi_startproc
	.cfi_personality 0,__gxx_personality_v0
	.cfi_lsda 0,.LLSDA2927
.LVL1051:
	mflr 0
	stwu 1,-120(1)
.LCFI178:
	.cfi_def_cfa_offset 120
	.cfi_register 65, 0
	mfcr 12
	stw 29,108(1)
	mr 29,4
	.cfi_offset 29, -12
	.cfi_register 70, 12
.LVL1052:
	stw 31,116(1)
	mr 31,3
	.cfi_offset 31, -4
	stw 0,124(1)
	stw 22,80(1)
	stw 23,84(1)
	stw 24,88(1)
	stw 25,92(1)
	stw 26,96(1)
	stw 27,100(1)
	stw 28,104(1)
	stw 30,112(1)
	stw 12,76(1)
.LBB3358:
.LBB3359:
.LBB3360:
	.loc 5 653 0
	lwz 3,20(3)
.LVL1053:
.LEHB46:
	.cfi_offset 70, -44
	.cfi_offset 30, -8
	.cfi_offset 28, -16
	.cfi_offset 27, -20
	.cfi_offset 26, -24
	.cfi_offset 25, -28
	.cfi_offset 24, -32
	.cfi_offset 23, -36
	.cfi_offset 22, -40
	.cfi_offset 65, 4
	bl _ZN5idStr3CmpEPKcS1_
.LEHE46:
.LVL1054:
.LBE3360:
.LBE3359:
	.loc 4 2162 0
	cmpwi 7,3,0
	bne- 7,.L827
	.loc 4 2163 0
	lwz 31,48(31)
.LVL1055:
.L828:
.LBE3358:
	.loc 4 2179 0
	lwz 0,124(1)
	mr 3,31
	lwz 12,76(1)
	mtlr 0
	lwz 22,80(1)
	lwz 23,84(1)
	mtcrf 8,12
	lwz 24,88(1)
	lwz 25,92(1)
	lwz 26,96(1)
	lwz 27,100(1)
	lwz 28,104(1)
	lwz 29,108(1)
.LVL1056:
	lwz 30,112(1)
	lwz 31,116(1)
	addi 1,1,120
	.cfi_remember_state
.LCFI179:
	.cfi_def_cfa_offset 0
	.cfi_restore 70
	.cfi_restore 31
	.cfi_restore 30
	.cfi_restore 29
	.cfi_restore 28
	.cfi_restore 27
	.cfi_restore 26
	.cfi_restore 25
	.cfi_restore 24
	.cfi_restore 23
	.cfi_restore 22
	blr
.LVL1057:
.L827:
.LCFI180:
	.cfi_restore_state
.LBB3613:
.LBB3361:
.LBB3362:
.LBB3363:
	.loc 5 357 0
	li 11,20
	.loc 5 356 0
	li 0,0
	.loc 5 357 0
	stw 11,48(1)
.LBE3363:
.LBE3362:
.LBE3361:
	.loc 4 2167 0
	lis 9,fileSystem@ha
.LBB3372:
.LBB3368:
.LBB3364:
	.loc 5 358 0
	addi 11,1,52
.LBE3364:
.LBE3368:
.LBE3372:
	.loc 4 2167 0
	lwz 9,fileSystem@l(9)
.LBB3373:
.LBB3369:
.LBB3365:
	.loc 5 356 0
	stw 0,40(1)
.LBE3365:
.LBE3369:
.LBE3373:
	.loc 4 2167 0
	mr 4,29
.LBB3374:
.LBB3370:
.LBB3366:
	.loc 5 359 0
	stb 0,52(1)
.LBE3366:
.LBE3370:
.LBE3374:
	.loc 4 2167 0
	mr 3,9
.LBB3375:
.LBB3371:
.LBB3367:
	.loc 5 358 0
	stw 11,44(1)
	addi 30,1,40
.LBE3367:
.LBE3371:
.LBE3375:
	.loc 4 2167 0
	lwz 9,0(9)
	lwz 0,48(9)
	mtctr 0
.LEHB47:
	bctrl
	addi 30,1,40
	mr 4,3
	mr 3,30
	bl _ZN5idStraSEPKc
.LEHE47:
	.loc 4 2168 0
	lwz 0,40(1)
	cmpwi 7,0,0
	bne- 7,.L829
.LVL1058:
.LBB3376:
.LBB3377:
	.loc 5 412 0
	cmpwi 7,29,0
.LBB3378:
.LBB3379:
	.loc 5 358 0
	addi 27,1,20
	.loc 5 357 0
	li 9,20
	addi 23,1,8
	.loc 5 356 0
	stw 0,8(1)
	.loc 5 357 0
	stw 9,16(1)
	.loc 5 358 0
	stw 27,12(1)
	.loc 5 359 0
	stb 0,20(1)
.LBE3379:
.LBE3378:
	.loc 5 412 0
	beq- 7,.L830
	.loc 5 413 0
	mr 3,29
	addi 23,1,8
	bl strlen
	.loc 5 414 0
	addi 4,3,1
	.loc 5 413 0
	mr 28,3
.LVL1059:
.LBB3380:
.LBB3381:
	.loc 5 350 0
	cmpwi 7,4,20
	.loc 5 358 0
	mr 3,27
.LVL1060:
	.loc 5 350 0
	bgt- 7,.L919
.LVL1061:
.L831:
.LBE3381:
.LBE3380:
	.loc 5 415 0
	mr 4,29
	bl strcpy
	.loc 5 416 0
	stw 28,8(1)
.LVL1062:
.L830:
.LBE3377:
.LBE3376:
.LBB3385:
.LBB3386:
.LBB3387:
.LBB3388:
	.loc 6 772 0
	lwz 0,0(31)
	cmpwi 7,0,0
	ble- 7,.L832
	li 28,0
	b .L834
.LVL1063:
.L920:
	lwz 0,0(31)
	addi 28,28,1
.LVL1064:
	cmpw 7,28,0
	bge- 7,.L832
.LVL1065:
.L834:
.LBE3388:
	.loc 4 2214 0
	lwz 9,12(31)
	slwi 0,28,5
.LBB3393:
.LBB3389:
.LBB3390:
	.loc 5 648 0
	lwz 4,12(1)
.LBE3390:
.LBE3389:
.LBE3393:
	.loc 4 2214 0
	add 9,9,0
.LBB3394:
.LBB3392:
.LBB3391:
	.loc 5 648 0
	lwz 3,4(9)
.LEHB48:
	bl _ZN5idStr3CmpEPKcS1_
.LEHE48:
.LBE3391:
.LBE3392:
	.loc 6 773 0
	cmpwi 7,3,0
	bne+ 7,.L920
.LVL1066:
.L833:
.LBE3394:
.LBE3387:
.LBE3386:
.LBE3385:
	.loc 4 2170 0
	stw 28,48(31)
.LVL1067:
.LBB3465:
.LBB3466:
.LBB3467:
	.loc 5 501 0
	mr 3,23
.LEHB49:
	bl _ZN5idStr8FreeDataEv
.LVL1068:
.L856:
.LBE3467:
.LBE3466:
.LBE3465:
	.loc 4 2176 0
	addi 3,31,16
	mr 4,29
	bl _ZN5idStraSEPKc
.LEHE49:
.LBB3468:
.LBB3469:
.LBB3470:
	.loc 5 501 0
	mr 3,30
.LBE3470:
.LBE3469:
.LBE3468:
	.loc 4 2178 0
	lwz 31,48(31)
.LVL1069:
.LEHB50:
.LBB3473:
.LBB3472:
.LBB3471:
	.loc 5 501 0
	bl _ZN5idStr8FreeDataEv
.LEHE50:
	b .L828
.LVL1070:
.L829:
.LBE3471:
.LBE3472:
.LBE3473:
.LBB3474:
.LBB3475:
.LBB3476:
.LBB3477:
	.loc 6 772 0
	lwz 0,0(31)
	cmpwi 7,0,0
	ble- 7,.L857
	li 28,0
	b .L859
.LVL1071:
.L921:
	lwz 0,0(31)
	addi 28,28,1
.LVL1072:
	cmpw 7,28,0
	bge- 7,.L857
.LVL1073:
.L859:
.LBE3477:
	.loc 4 2214 0
	lwz 9,12(31)
	slwi 0,28,5
.LBB3482:
.LBB3478:
.LBB3479:
	.loc 5 648 0
	lwz 4,4(30)
.LBE3479:
.LBE3478:
.LBE3482:
	.loc 4 2214 0
	add 9,9,0
.LBB3483:
.LBB3481:
.LBB3480:
	.loc 5 648 0
	lwz 3,4(9)
.LEHB51:
	bl _ZN5idStr3CmpEPKcS1_
.LBE3480:
.LBE3481:
	.loc 6 773 0
	cmpwi 7,3,0
	bne+ 7,.L921
.LVL1074:
.LBE3483:
.LBE3476:
.LBE3475:
.LBE3474:
	.loc 4 2172 0
	stw 28,48(31)
	b .L856
.LVL1075:
.L832:
.LBB3594:
.LBB3395:
.LBB3396:
.LBB3397:
.LBB3398:
	.loc 6 655 0
	lwz 25,12(31)
	cmpwi 7,25,0
	beq- 7,.L922
.L835:
.LBB3399:
	.loc 6 659 0
	lwz 0,0(31)
	lwz 9,4(31)
	cmpw 7,0,9
	beq- 7,.L836
.LVL1076:
.L917:
.LBB3400:
.LBB3401:
.LBB3402:
	.loc 6 399 0
	slwi 0,0,5
	add 25,25,0
.L837:
.LVL1077:
.LBE3402:
.LBE3401:
.LBE3400:
.LBE3399:
.LBB3436:
	.loc 4 2214 0
	lwz 28,8(1)
.LBB3437:
.LBB3438:
.LBB3439:
	.loc 5 350 0
	lwz 0,8(25)
.LBE3439:
.LBE3438:
	.loc 5 534 0
	addi 4,28,1
.LVL1078:
.LBB3442:
.LBB3440:
	.loc 5 350 0
	cmpw 7,4,0
	bgt- 7,.L923
.LVL1079:
.L855:
.LBE3440:
.LBE3442:
	.loc 5 535 0
	lwz 3,4(25)
	mr 5,28
	lwz 4,12(1)
	bl memcpy
	.loc 5 536 0
	lwz 9,4(25)
	li 0,0
	stbx 0,9,28
	.loc 5 537 0
	stw 28,0(25)
.LBE3437:
.LBE3436:
	.loc 6 670 0
	lwz 28,0(31)
	addi 0,28,1
	stw 0,0(31)
.LVL1080:
	b .L833
.LVL1081:
.L857:
.LBE3398:
.LBE3397:
.LBE3396:
.LBE3395:
.LBE3594:
.LBB3595:
.LBB3484:
.LBB3485:
.LBB3486:
.LBB3487:
	.loc 6 655 0
	lwz 27,12(31)
	cmpwi 7,27,0
	beq- 7,.L860
	lwz 0,0(31)
	lwz 9,4(31)
.LVL1082:
.L861:
.LBB3488:
	.loc 6 659 0
	cmpw 7,0,9
	beq- 7,.L896
.L918:
.LBB3489:
.LBB3490:
.LBB3491:
	.loc 6 399 0
	slwi 0,0,5
	add 27,27,0
.L871:
.LVL1083:
.LBE3491:
.LBE3490:
.LBE3489:
.LBE3488:
.LBB3528:
	.loc 4 2214 0
	lwz 28,40(1)
.LBB3529:
.LBB3530:
.LBB3531:
	.loc 5 350 0
	lwz 0,8(27)
.LBE3531:
.LBE3530:
	.loc 5 534 0
	addi 4,28,1
.LVL1084:
.LBB3534:
.LBB3532:
	.loc 5 350 0
	cmpw 7,4,0
	bgt- 7,.L924
.LVL1085:
.L889:
.LBE3532:
.LBE3534:
	.loc 5 535 0
	lwz 3,4(27)
	mr 5,28
	lwz 4,44(1)
	bl memcpy
	.loc 5 536 0
	lwz 9,4(27)
	li 0,0
	stbx 0,9,28
	.loc 5 537 0
	stw 28,0(27)
.LBE3529:
.LBE3528:
	.loc 6 670 0
	lwz 28,0(31)
	addi 0,28,1
.LBE3487:
.LBE3486:
.LBE3485:
.LBE3484:
.LBE3595:
	.loc 4 2172 0
	stw 28,48(31)
.LBB3596:
.LBB3588:
.LBB3582:
.LBB3576:
.LBB3570:
	.loc 6 670 0
	stw 0,0(31)
.LVL1086:
	b .L856
.LVL1087:
.L919:
.LBE3570:
.LBE3576:
.LBE3582:
.LBE3588:
.LBE3596:
.LBB3597:
.LBB3384:
.LBB3383:
.LBB3382:
	.loc 5 351 0
	mr 3,23
	li 5,1
	bl _ZN5idStr10ReAllocateEib
.LVL1088:
	lwz 3,12(1)
	b .L831
.LVL1089:
.L924:
.LBE3382:
.LBE3383:
.LBE3384:
.LBE3597:
.LBB3598:
.LBB3589:
.LBB3583:
.LBB3577:
.LBB3571:
.LBB3537:
.LBB3536:
.LBB3535:
.LBB3533:
	mr 3,27
	li 5,0
	bl _ZN5idStr10ReAllocateEib
.LEHE51:
.LVL1090:
	b .L889
.LVL1091:
.L923:
.LBE3533:
.LBE3535:
.LBE3536:
.LBE3537:
.LBE3571:
.LBE3577:
.LBE3583:
.LBE3589:
.LBE3598:
.LBB3599:
.LBB3461:
.LBB3457:
.LBB3453:
.LBB3449:
.LBB3445:
.LBB3444:
.LBB3443:
.LBB3441:
	mr 3,25
	li 5,0
.LEHB52:
	bl _ZN5idStr10ReAllocateEib
.LVL1092:
	b .L855
.LVL1093:
.L836:
.LBE3441:
.LBE3443:
.LBE3444:
.LBE3445:
.LBB3446:
.LBB3433:
	.loc 6 662 0
	lwz 11,8(31)
	cmpwi 7,11,0
	bne- 7,.L838
	.loc 6 663 0
	li 11,16
	stw 11,8(31)
.L838:
	.loc 6 665 0
	add 27,9,11
.LVL1094:
	.loc 6 666 0
	divw 27,27,11
.LVL1095:
.LBB3430:
.LBB3427:
	.loc 6 375 0
	mullw 27,27,11
.LVL1096:
	cmpwi 4,27,0
	ble- 4,.L925
	.loc 6 380 0
	cmpw 7,9,27
	beq- 7,.L917
.LVL1097:
	.loc 6 387 0
	cmpw 7,0,27
	.loc 6 386 0
	stw 27,4(31)
	.loc 6 387 0
	ble- 7,.L844
	.loc 6 388 0
	stw 27,0(31)
.L844:
	.loc 6 392 0
	slwi 3,27,5
	addi 3,3,4
	bl _Znaj
	stw 27,0(3)
	addi 28,3,4
	beq- 4,.L845
.LBB3403:
.LBB3404:
.LBB3405:
	.loc 5 357 0
	mtctr 27
.LBE3405:
.LBE3404:
.LBE3403:
	.loc 6 392 0
	mr 9,28
.LBB3408:
.LBB3407:
.LBB3406:
	.loc 5 356 0
	li 0,0
	.loc 5 357 0
	li 10,20
.LVL1098:
.L846:
	.loc 5 358 0
	addi 11,9,12
	.loc 5 356 0
	stw 0,0(9)
	.loc 5 357 0
	stw 10,8(9)
	.loc 5 358 0
	stw 11,4(9)
	.loc 5 359 0
	stb 0,12(9)
	addi 9,9,32
.LVL1099:
.LBE3406:
.LBE3407:
.LBE3408:
	.loc 6 392 0
	bdnz .L846
.LVL1100:
.L845:
	.loc 6 393 0
	lwz 0,0(31)
	.loc 6 392 0
	stw 28,12(31)
.LVL1101:
	.loc 6 393 0
	cmpwi 7,0,0
	ble- 7,.L847
	li 27,0
.LVL1102:
	li 24,0
.LBB3409:
.LBB3410:
	.loc 5 536 0
	li 22,0
	b .L849
.LVL1103:
.L848:
	.loc 4 2161 0
	add 9,25,27
	.loc 5 535 0
	lwz 3,4(28)
	lwz 4,4(9)
	mr 5,26
.LBE3410:
.LBE3409:
	.loc 6 393 0
	addi 24,24,1
	addi 27,27,32
.LVL1104:
.LBB3417:
.LBB3415:
	.loc 5 535 0
	bl memcpy
.LVL1105:
	.loc 5 536 0
	lwz 9,4(28)
	stbx 22,9,26
	.loc 5 537 0
	stw 26,0(28)
.LBE3415:
.LBE3417:
	.loc 6 393 0
	lwz 0,0(31)
	cmpw 7,24,0
	bge- 7,.L847
	lwz 28,12(31)
.LVL1106:
.L849:
	.loc 6 394 0
	add 28,28,27
.LVL1107:
.LBB3418:
	.loc 4 2214 0
	lwzx 26,25,27
.LBB3416:
.LBB3411:
.LBB3412:
	.loc 5 350 0
	lwz 0,8(28)
.LBE3412:
.LBE3411:
	.loc 5 534 0
	addi 4,26,1
.LVL1108:
.LBB3414:
.LBB3413:
	.loc 5 350 0
	cmpw 7,4,0
	ble+ 7,.L848
	.loc 5 351 0
	mr 3,28
	li 5,0
	bl _ZN5idStr10ReAllocateEib
.LEHE52:
.LVL1109:
	b .L848
.LVL1110:
.L896:
	lwz 28,8(31)
.LBE3413:
.LBE3414:
.LBE3416:
.LBE3418:
.LBE3427:
.LBE3430:
.LBE3433:
.LBE3446:
.LBE3449:
.LBE3453:
.LBE3457:
.LBE3461:
.LBE3599:
.LBB3600:
.LBB3590:
.LBB3584:
.LBB3578:
.LBB3572:
.LBB3538:
	.loc 6 659 0
	mr 9,0
.L863:
.LBB3524:
	.loc 6 662 0
	cmpwi 7,28,0
	bne- 7,.L872
	.loc 6 663 0
	li 11,16
	li 28,16
	stw 11,8(31)
.L872:
	.loc 6 665 0
	add 26,28,0
.LVL1111:
	.loc 6 666 0
	divw 26,26,28
.LVL1112:
.LBB3520:
.LBB3516:
	.loc 6 375 0
	mullw 26,26,28
.LVL1113:
	cmpwi 4,26,0
	ble- 4,.L926
	.loc 6 380 0
	cmpw 7,26,0
	beq- 7,.L927
.LVL1114:
	.loc 6 387 0
	cmpw 7,26,9
	.loc 6 386 0
	stw 26,4(31)
	.loc 6 387 0
	bge- 7,.L878
	.loc 6 388 0
	stw 26,0(31)
.L878:
	.loc 6 392 0
	slwi 3,26,5
	addi 3,3,4
.LEHB53:
	bl _Znaj
	stw 26,0(3)
	addi 28,3,4
	beq- 4,.L879
.LBB3492:
.LBB3493:
.LBB3494:
	.loc 5 357 0
	mtctr 26
.LBE3494:
.LBE3493:
.LBE3492:
	.loc 6 392 0
	mr 9,28
.LBB3497:
.LBB3496:
.LBB3495:
	.loc 5 356 0
	li 0,0
	.loc 5 357 0
	li 10,20
.L880:
.LVL1115:
	.loc 5 358 0
	addi 11,9,12
	.loc 5 356 0
	stw 0,0(9)
	.loc 5 357 0
	stw 10,8(9)
	.loc 5 358 0
	stw 11,4(9)
	.loc 5 359 0
	stb 0,12(9)
	addi 9,9,32
.LVL1116:
.LBE3495:
.LBE3496:
.LBE3497:
	.loc 6 392 0
	bdnz .L880
.LVL1117:
.L879:
	.loc 6 393 0
	lwz 0,0(31)
	.loc 6 392 0
	stw 28,12(31)
.LVL1118:
	.loc 6 393 0
	cmpwi 7,0,0
	ble- 7,.L881
	li 26,0
.LVL1119:
	li 24,0
.LBB3498:
.LBB3499:
	.loc 5 536 0
	li 23,0
	b .L883
.LVL1120:
.L882:
	.loc 4 2161 0
	add 9,27,26
	.loc 5 535 0
	lwz 3,4(28)
	lwz 4,4(9)
	mr 5,25
.LBE3499:
.LBE3498:
	.loc 6 393 0
	addi 24,24,1
	addi 26,26,32
.LVL1121:
.LBB3506:
.LBB3504:
	.loc 5 535 0
	bl memcpy
.LVL1122:
	.loc 5 536 0
	lwz 9,4(28)
	stbx 23,9,25
	.loc 5 537 0
	stw 25,0(28)
.LBE3504:
.LBE3506:
	.loc 6 393 0
	lwz 0,0(31)
	cmpw 7,24,0
	bge- 7,.L881
	lwz 28,12(31)
.LVL1123:
.L883:
	.loc 6 394 0
	add 28,28,26
.LVL1124:
.LBB3507:
	.loc 4 2214 0
	lwzx 25,27,26
.LBB3505:
.LBB3500:
.LBB3501:
	.loc 5 350 0
	lwz 0,8(28)
.LBE3501:
.LBE3500:
	.loc 5 534 0
	addi 4,25,1
.LVL1125:
.LBB3503:
.LBB3502:
	.loc 5 350 0
	cmpw 7,4,0
	ble+ 7,.L882
	.loc 5 351 0
	mr 3,28
	li 5,0
	bl _ZN5idStr10ReAllocateEib
.LVL1126:
	b .L882
.LVL1127:
.L881:
.LBE3502:
.LBE3503:
.LBE3505:
.LBE3507:
	.loc 6 398 0
	cmpwi 7,27,0
	beq- 7,.L928
	.loc 6 399 0
	lwz 28,-4(27)
	slwi 28,28,5
	add 28,27,28
	cmpw 7,28,27
	beq- 7,.L885
.L915:
	addi 28,28,-32
.LVL1128:
.LBB3508:
.LBB3509:
.LBB3510:
	.loc 5 501 0
	mr 3,28
	bl _ZN5idStr8FreeDataEv
.LEHE53:
.LBE3510:
.LBE3509:
.LBE3508:
	.loc 6 399 0
	cmpw 7,28,27
	bne+ 7,.L915
.LVL1129:
.L885:
	addi 3,27,-4
	bl _ZdaPv
	lwz 0,0(31)
	lwz 27,12(31)
.LVL1130:
	b .L918
.LVL1131:
.L847:
.LBE3516:
.LBE3520:
.LBE3524:
.LBE3538:
.LBE3572:
.LBE3578:
.LBE3584:
.LBE3590:
.LBE3600:
.LBB3601:
.LBB3462:
.LBB3458:
.LBB3454:
.LBB3450:
.LBB3447:
.LBB3434:
.LBB3431:
.LBB3428:
	.loc 6 398 0
	cmpwi 7,25,0
	beq- 7,.L929
	.loc 6 399 0
	lwz 28,-4(25)
	slwi 28,28,5
	add 28,25,28
	cmpw 7,28,25
	beq- 7,.L851
.L911:
	addi 28,28,-32
.LVL1132:
.LBB3419:
.LBB3420:
.LBB3421:
	.loc 5 501 0
	mr 3,28
.LEHB54:
	bl _ZN5idStr8FreeDataEv
.LEHE54:
.LBE3421:
.LBE3420:
.LBE3419:
	.loc 6 399 0
	cmpw 7,28,25
	bne+ 7,.L911
.LVL1133:
.L851:
	addi 3,25,-4
	bl _ZdaPv
	lwz 0,0(31)
	lwz 25,12(31)
.LVL1134:
	b .L917
.LVL1135:
.L860:
.LBE3428:
.LBE3431:
.LBE3434:
.LBE3447:
.LBE3450:
.LBE3454:
.LBE3458:
.LBE3462:
.LBE3601:
.LBB3602:
.LBB3591:
.LBB3585:
.LBB3579:
.LBB3573:
	.loc 6 656 0
	lwz 28,8(31)
.LBB3539:
.LBB3540:
	.loc 6 375 0
	cmpwi 4,28,0
.LBE3540:
.LBE3539:
	.loc 6 656 0
	mr 9,28
.LVL1136:
.LBB3564:
.LBB3561:
	.loc 6 375 0
	ble- 4,.L930
	.loc 6 380 0
	lwz 0,4(31)
	cmpw 7,28,0
	lwz 0,0(31)
	beq- 7,.L861
.LVL1137:
	.loc 6 387 0
	cmpw 7,28,0
	.loc 6 386 0
	stw 28,4(31)
	.loc 6 387 0
	bge- 7,.L865
	.loc 6 388 0
	stw 28,0(31)
.L865:
	.loc 6 392 0
	slwi 3,28,5
	addi 3,3,4
.LEHB55:
	bl _Znaj
.LVL1138:
	stw 28,0(3)
	addi 27,3,4
	beq- 4,.L866
.LBB3541:
.LBB3542:
.LBB3543:
	.loc 5 357 0
	mtctr 28
.LBE3543:
.LBE3542:
.LBE3541:
	.loc 6 392 0
	mr 9,27
.LBB3546:
.LBB3545:
.LBB3544:
	.loc 5 356 0
	li 0,0
	.loc 5 357 0
	li 10,20
.LVL1139:
.L867:
	.loc 5 358 0
	addi 11,9,12
	.loc 5 356 0
	stw 0,0(9)
	.loc 5 357 0
	stw 10,8(9)
	.loc 5 358 0
	stw 11,4(9)
	.loc 5 359 0
	stb 0,12(9)
	addi 9,9,32
.LVL1140:
.LBE3544:
.LBE3545:
.LBE3546:
	.loc 6 392 0
	bdnz .L867
.LVL1141:
.L866:
	.loc 6 393 0
	lwz 0,0(31)
	li 28,0
.LVL1142:
	.loc 6 392 0
	stw 27,12(31)
.LVL1143:
	.loc 6 393 0
	li 26,0
	cmpwi 7,0,0
.LBB3547:
.LBB3548:
	.loc 5 536 0
	li 24,0
.LBE3548:
.LBE3547:
	.loc 6 393 0
	bgt+ 7,.L908
	b .L934
.LVL1144:
.L869:
.LBB3556:
.LBB3553:
	.loc 5 535 0
	lwz 4,4(28)
	mr 5,25
	lwz 3,4(27)
.LBE3553:
.LBE3556:
	.loc 6 393 0
	addi 26,26,1
	addi 28,28,32
.LVL1145:
.LBB3557:
.LBB3554:
	.loc 5 535 0
	bl memcpy
.LVL1146:
	.loc 5 536 0
	lwz 9,4(27)
	stbx 24,9,25
	.loc 5 537 0
	stw 25,0(27)
.LBE3554:
.LBE3557:
	.loc 6 393 0
	lwz 0,0(31)
	cmpw 7,26,0
	bge- 7,.L870
	lwz 27,12(31)
.LVL1147:
.L908:
	.loc 6 394 0
	add 27,27,28
.LVL1148:
.LBB3558:
	.loc 4 2214 0
	lwz 25,0(28)
.LBB3555:
.LBB3549:
.LBB3550:
	.loc 5 350 0
	lwz 0,8(27)
.LBE3550:
.LBE3549:
	.loc 5 534 0
	addi 4,25,1
.LVL1149:
.LBB3552:
.LBB3551:
	.loc 5 350 0
	cmpw 7,4,0
	ble+ 7,.L869
	.loc 5 351 0
	mr 3,27
	li 5,0
	bl _ZN5idStr10ReAllocateEib
.LEHE55:
.LVL1150:
	b .L869
.LVL1151:
.L922:
.LBE3551:
.LBE3552:
.LBE3555:
.LBE3558:
.LBE3561:
.LBE3564:
.LBE3573:
.LBE3579:
.LBE3585:
.LBE3591:
.LBE3602:
.LBB3603:
.LBB3463:
.LBB3459:
.LBB3455:
.LBB3451:
	.loc 6 656 0
	lwz 4,8(31)
	mr 3,31
.LEHB56:
	bl _ZN6idListI5idStrE6ResizeEi
.LEHE56:
	lwz 25,12(31)
	b .L835
.LVL1152:
.L927:
.LBE3451:
.LBE3455:
.LBE3459:
.LBE3463:
.LBE3603:
.LBB3604:
.LBB3592:
.LBB3586:
.LBB3580:
.LBB3574:
.LBB3565:
.LBB3525:
.LBB3521:
.LBB3517:
	.loc 6 380 0
	slwi 9,9,5
	add 27,27,9
	b .L871
.LVL1153:
.L870:
.LBE3517:
.LBE3521:
.LBE3525:
.LBE3565:
.LBB3566:
.LBB3562:
	.loc 6 393 0
	lwz 9,4(31)
	lwz 27,12(31)
.LVL1154:
	b .L861
.LVL1155:
.L926:
.LBE3562:
.LBE3566:
.LBB3567:
.LBB3526:
.LBB3522:
.LBB3518:
.LBB3511:
.LBB3512:
	.loc 6 193 0
	cmpwi 7,27,0
	beq- 7,.L874
	.loc 6 194 0
	lwz 28,-4(27)
	slwi 28,28,5
	add 28,27,28
	b .L875
.L932:
	addi 28,28,-32
.LVL1156:
.LBB3513:
.LBB3514:
.LBB3515:
	.loc 5 501 0
	mr 3,28
.LEHB57:
	bl _ZN5idStr8FreeDataEv
.LEHE57:
	lwz 27,12(31)
.LVL1157:
.L875:
.LBE3515:
.LBE3514:
.LBE3513:
	.loc 6 194 0
	cmpw 7,27,28
	bne+ 7,.L932
	addi 3,27,-4
	bl _ZdaPv
.L874:
	.loc 6 197 0
	li 0,0
	.loc 6 199 0
	li 27,0
	.loc 6 197 0
	stw 0,12(31)
	.loc 6 198 0
	stw 0,0(31)
	.loc 6 199 0
	stw 0,4(31)
	b .L871
.LVL1158:
.L925:
.LBE3512:
.LBE3511:
.LBE3518:
.LBE3522:
.LBE3526:
.LBE3567:
.LBE3574:
.LBE3580:
.LBE3586:
.LBE3592:
.LBE3604:
.LBB3605:
.LBB3464:
.LBB3460:
.LBB3456:
.LBB3452:
.LBB3448:
.LBB3435:
.LBB3432:
.LBB3429:
.LBB3422:
.LBB3423:
	.loc 6 193 0
	cmpwi 7,25,0
	beq- 7,.L840
	.loc 6 194 0
	lwz 28,-4(25)
	slwi 28,28,5
	add 28,25,28
	b .L841
.L933:
	addi 28,28,-32
.LVL1159:
.LBB3424:
.LBB3425:
.LBB3426:
	.loc 5 501 0
	mr 3,28
.LEHB58:
	bl _ZN5idStr8FreeDataEv
.LEHE58:
	lwz 25,12(31)
.LVL1160:
.L841:
.LBE3426:
.LBE3425:
.LBE3424:
	.loc 6 194 0
	cmpw 7,28,25
	bne+ 7,.L933
	addi 3,28,-4
	bl _ZdaPv
.L840:
	.loc 6 197 0
	li 0,0
	.loc 6 199 0
	li 25,0
	.loc 6 197 0
	stw 0,12(31)
	.loc 6 198 0
	stw 0,0(31)
	.loc 6 199 0
	stw 0,4(31)
	b .L837
.LVL1161:
.L929:
.LBE3423:
.LBE3422:
	.loc 6 398 0
	lwz 0,0(31)
	lwz 25,12(31)
.LVL1162:
	slwi 0,0,5
	add 25,25,0
	b .L837
.LVL1163:
.L928:
.LBE3429:
.LBE3432:
.LBE3435:
.LBE3448:
.LBE3452:
.LBE3456:
.LBE3460:
.LBE3464:
.LBE3605:
.LBB3606:
.LBB3593:
.LBB3587:
.LBB3581:
.LBB3575:
.LBB3568:
.LBB3527:
.LBB3523:
.LBB3519:
	lwz 0,0(31)
	lwz 27,12(31)
.LVL1164:
	slwi 0,0,5
	add 27,27,0
	b .L871
.LVL1165:
.L930:
.LBE3519:
.LBE3523:
.LBE3527:
.LBE3568:
.LBB3569:
.LBB3563:
.LBB3559:
.LBB3560:
	.loc 6 198 0
	stw 27,0(31)
	.loc 6 199 0
	li 0,0
	stw 27,4(31)
	li 9,0
.LVL1166:
	b .L863
.LVL1167:
.L934:
.LBE3560:
.LBE3559:
	.loc 6 393 0
	lwz 9,4(31)
	b .L861
.LVL1168:
.L898:
	mr 31,3
.LVL1169:
.LBE3563:
.LBE3569:
.LBE3575:
.LBE3581:
.LBE3587:
.LBE3593:
.LBE3606:
.LBB3607:
.LBB3608:
.LBB3609:
	.loc 5 501 0
	mr 3,23
	bl _ZN5idStr8FreeDataEv
.LVL1170:
.L892:
.LBE3609:
.LBE3608:
.LBE3607:
.LBB3610:
.LBB3611:
.LBB3612:
	mr 3,30
	bl _ZN5idStr8FreeDataEv
	mr 3,31
.LEHB59:
	bl _Unwind_Resume
.LEHE59:
.LVL1171:
.L897:
	mr 31,3
.LVL1172:
	b .L892
.LBE3612:
.LBE3611:
.LBE3610:
.LBE3613:
	.cfi_endproc
.LFE2927:
	.section	.gcc_except_table
.LLSDA2927:
	.byte	0xff
	.byte	0xff
	.byte	0x1
	.uleb128 .LLSDACSE2927-.LLSDACSB2927
.LLSDACSB2927:
	.uleb128 .LEHB46-.LFB2927
	.uleb128 .LEHE46-.LEHB46
	.uleb128 0
	.uleb128 0
	.uleb128 .LEHB47-.LFB2927
	.uleb128 .LEHE47-.LEHB47
	.uleb128 .L897-.LFB2927
	.uleb128 0
	.uleb128 .LEHB48-.LFB2927
	.uleb128 .LEHE48-.LEHB48
	.uleb128 .L898-.LFB2927
	.uleb128 0
	.uleb128 .LEHB49-.LFB2927
	.uleb128 .LEHE49-.LEHB49
	.uleb128 .L897-.LFB2927
	.uleb128 0
	.uleb128 .LEHB50-.LFB2927
	.uleb128 .LEHE50-.LEHB50
	.uleb128 0
	.uleb128 0
	.uleb128 .LEHB51-.LFB2927
	.uleb128 .LEHE51-.LEHB51
	.uleb128 .L897-.LFB2927
	.uleb128 0
	.uleb128 .LEHB52-.LFB2927
	.uleb128 .LEHE52-.LEHB52
	.uleb128 .L898-.LFB2927
	.uleb128 0
	.uleb128 .LEHB53-.LFB2927
	.uleb128 .LEHE53-.LEHB53
	.uleb128 .L897-.LFB2927
	.uleb128 0
	.uleb128 .LEHB54-.LFB2927
	.uleb128 .LEHE54-.LEHB54
	.uleb128 .L898-.LFB2927
	.uleb128 0
	.uleb128 .LEHB55-.LFB2927
	.uleb128 .LEHE55-.LEHB55
	.uleb128 .L897-.LFB2927
	.uleb128 0
	.uleb128 .LEHB56-.LFB2927
	.uleb128 .LEHE56-.LEHB56
	.uleb128 .L898-.LFB2927
	.uleb128 0
	.uleb128 .LEHB57-.LFB2927
	.uleb128 .LEHE57-.LEHB57
	.uleb128 .L897-.LFB2927
	.uleb128 0
	.uleb128 .LEHB58-.LFB2927
	.uleb128 .LEHE58-.LEHB58
	.uleb128 .L898-.LFB2927
	.uleb128 0
	.uleb128 .LEHB59-.LFB2927
	.uleb128 .LEHE59-.LEHB59
	.uleb128 0
	.uleb128 0
.LLSDACSE2927:
	.section	".text"
	.size	_ZN9idProgram10GetFilenumEPKc, .-_ZN9idProgram10GetFilenumEPKc
	.align 2
	.globl _ZN9idProgram11CompileTextEPKcS1_b
	.type	_ZN9idProgram11CompileTextEPKcS1_b, @function
_ZN9idProgram11CompileTextEPKcS1_b:
.LFB2915:
	.loc 4 1835 0
	.cfi_startproc
	.cfi_personality 0,__gxx_personality_v0
	.cfi_lsda 0,.LLSDA2915
.LVL1173:
	stwu 1,-320(1)
.LCFI181:
	.cfi_def_cfa_offset 320
	mflr 0
	stw 31,316(1)
	mr 31,3
	.cfi_offset 31, -4
	.cfi_register 65, 0
.LBB3655:
	.loc 4 1836 0
	addi 3,1,40
.LVL1174:
.LBE3655:
	.loc 4 1835 0
	stw 0,324(1)
	stw 28,304(1)
	mr 28,5
	.cfi_offset 28, -16
	.cfi_offset 65, 4
	stw 29,308(1)
	mr 29,6
	.cfi_offset 29, -12
	stw 30,312(1)
	addi 30,1,8
	.cfi_offset 30, -8
.LBB3703:
	.loc 4 1836 0
	stw 4,280(1)
.LBE3703:
	.loc 4 1835 0
	stw 24,288(1)
	stw 25,292(1)
	stw 26,296(1)
	stw 27,300(1)
.LEHB60:
.LBB3704:
	.loc 4 1836 0
	.cfi_offset 27, -20
	.cfi_offset 26, -24
	.cfi_offset 25, -28
	.cfi_offset 24, -32
	bl _ZN10idCompilerC1Ev
.LEHE60:
.LVL1175:
	.loc 4 1842 0
	lis 9,fileSystem@ha
.LBB3656:
.LBB3657:
.LBB3658:
	.loc 5 356 0
	li 0,0
.LBE3658:
.LBE3657:
.LBE3656:
	.loc 4 1842 0
	lwz 3,fileSystem@l(9)
.LBB3665:
.LBB3662:
.LBB3659:
	.loc 5 357 0
	li 9,20
	stw 9,16(1)
	.loc 5 358 0
	addi 9,1,20
	.loc 5 356 0
	stw 0,8(1)
.LBE3659:
.LBE3662:
.LBE3665:
	.loc 4 1842 0
	lis 5,.LC64@ha
.LBB3666:
.LBB3663:
.LBB3660:
	.loc 5 359 0
	stb 0,20(1)
.LBE3660:
.LBE3663:
.LBE3666:
	.loc 4 1842 0
	la 5,.LC64@l(5)
.LBB3667:
.LBB3664:
.LBB3661:
	.loc 5 358 0
	stw 9,12(1)
.LBE3661:
.LBE3664:
.LBE3667:
	.loc 4 1842 0
	lwz 4,280(1)
	lwz 9,0(3)
	lwz 0,52(9)
	mtctr 0
.LEHB61:
	bctrl
	addi 30,1,8
	mr 4,3
	mr 3,30
	bl _ZN5idStraSEPKc
.LVL1176:
	.loc 4 1843 0
	lwz 4,12(1)
	mr 3,31
	bl _ZN9idProgram10GetFilenumEPKc
.LEHE61:
	stw 3,48(31)
.LVL1177:
	.loc 4 1846 0
	mr 4,28
	lwz 5,20(31)
	addi 3,1,40
	mr 6,29
.LEHB62:
	bl _ZN10idCompiler11CompileFileEPKcS1_b
.LEHE62:
.LVL1178:
	.loc 4 2214 0 discriminator 1
	addis 9,31,0x23
	lwz 26,-16256(9)
	.loc 4 1849 0 discriminator 1
	cmpwi 7,26,0
	ble- 7,.L936
	.loc 4 1851 0
	lis 24,.LANCHOR0@ha
	.loc 4 1849 0
	lwz 25,-16244(9)
	li 28,0
.LVL1179:
	.loc 4 1851 0
	la 24,.LANCHOR0@l(24)
	b .L940
.LVL1180:
.L937:
	.loc 4 1849 0
	addi 28,28,1
.LVL1181:
	cmpw 7,28,26
	beq- 7,.L936
.LVL1182:
.L940:
	.loc 4 1850 0
	slwi 0,28,2
	lwzx 27,25,0
.LVL1183:
	.loc 4 2214 0
	lwz 9,20(27)
.LBB3668:
.LBB3669:
	.loc 2 345 0
	cmpwi 7,9,0
	beq- 7,.L937
.LVL1184:
.LBE3669:
.LBE3668:
	.loc 4 1851 0
	lwz 0,0(9)
.LVL1185:
	cmpwi 7,0,8
	bne+ 7,.L937
	.loc 4 2214 0 discriminator 1
	lwz 9,8(27)
	lwz 3,20(9)
.LBB3670:
.LBB3671:
	.loc 2 345 0 discriminator 1
	cmpwi 7,3,0
	beq- 7,.L938
.LVL1186:
.LBE3671:
.LBE3670:
	.loc 4 1851 0
	lwz 0,0(3)
	cmpwi 7,0,2
	bne- 7,.L938
.LVL1187:
.L939:
	.loc 4 1852 0 discriminator 5
	lwz 9,4(27)
	lwz 0,32(9)
	cmpwi 7,0,0
	bne+ 7,.L937
	.loc 4 1852 0 is_stmt 0 discriminator 1
	lwz 0,44(9)
	cmpwi 7,0,0
	bne+ 7,.L937
	.loc 4 1853 0 is_stmt 1
	li 3,1024
	bl __cxa_allocate_exception
	mr 28,3
.LVL1188:
	mr 3,27
.LEHB63:
	bl _ZNK8idVarDef10GlobalNameEv
	mr 4,3
	lis 3,.LC65@ha
	la 3,.LC65@l(3)
	crxor 6,6,6
	bl _Z2vaPKcz
.LEHE63:
	.loc 4 1853 0 is_stmt 0 discriminator 1
	mr 4,3
	mr 3,28
	bl _ZN14idCompileErrorC1EPKc
	lis 4,_ZTI14idCompileError@ha
	mr 3,28
	la 4,_ZTI14idCompileError@l(4)
	li 5,0
.LEHB64:
	bl __cxa_throw
.LEHE64:
.LVL1189:
.L938:
	.loc 4 1851 0 is_stmt 1 discriminator 4
	mr 4,24
	bl _ZNK9idTypeDef8InheritsEPKS_
.LVL1190:
	cmpwi 7,3,0
	bne- 7,.L939
	.loc 4 1849 0
	addi 28,28,1
.LVL1191:
	cmpw 7,28,26
	bne+ 7,.L940
.LVL1192:
.L936:
	.loc 4 1868 0
	cmpwi 7,29,0
	.loc 4 1872 0
	li 29,1
	.loc 4 1868 0
	beq- 7,.L954
.L941:
.LVL1193:
.LBB3672:
.LBB3673:
.LBB3674:
	.loc 5 501 0
	mr 3,30
.LEHB65:
	bl _ZN5idStr8FreeDataEv
.LEHE65:
.LVL1194:
.LBE3674:
.LBE3673:
.LBE3672:
.LBB3675:
.LBB3676:
.LBB3677:
.LBB3678:
.LBB3679:
.LBB3680:
.LBB3681:
.LBB3682:
	addi 3,1,152
.LEHB66:
	bl _ZN5idStr8FreeDataEv
.LEHE66:
.LBE3682:
.LBE3681:
.LBE3680:
.LBE3679:
.LBE3678:
	.file 11 "d:/Data/Nintendo/DoomGX/src/game/script/../script/Script_Compiler.h"
	.loc 11 197 0
	addi 3,1,40
.LVL1195:
.LEHB67:
	bl _ZN8idParserD1Ev
.LEHE67:
.LVL1196:
.LBE3677:
.LBE3676:
.LBE3675:
.LBE3704:
	.loc 4 1873 0
	lwz 0,324(1)
	mr 3,29
	lwz 24,288(1)
	mtlr 0
	lwz 25,292(1)
	lwz 26,296(1)
	lwz 27,300(1)
	lwz 28,304(1)
	lwz 29,308(1)
	lwz 30,312(1)
.LVL1197:
	lwz 31,316(1)
.LVL1198:
	addi 1,1,320
	.cfi_remember_state
.LCFI182:
	.cfi_def_cfa_offset 0
	.cfi_restore 31
	.cfi_restore 30
	.cfi_restore 29
	.cfi_restore 28
	.cfi_restore 27
	.cfi_restore 26
	.cfi_restore 25
	.cfi_restore 24
	blr
.LVL1199:
.L953:
.LCFI183:
	.cfi_restore_state
.LEHB68:
.LBB3705:
.LBB3685:
	.loc 4 1864 0
	crxor 6,6,6
	bl _ZNK11idGameLocal5ErrorEPKcz
.LEHE68:
.LVL1200:
	.loc 4 1859 0
	bl __cxa_end_catch
.L954:
.LBE3685:
	.loc 4 1869 0
	mr 3,31
.LEHB69:
	bl _ZN9idProgram12CompileStatsEv
.LEHE69:
	.loc 4 1872 0
	li 29,1
	b .L941
.L963:
.L948:
.LBB3686:
	.loc 4 1859 0
	cmpwi 7,4,1
	beq- 7,.L952
.LVL1201:
.L970:
	mr 31,3
.LVL1202:
.L950:
.LBE3686:
.LBB3687:
.LBB3688:
.LBB3689:
	.loc 5 501 0
	mr 3,30
	bl _ZN5idStr8FreeDataEv
.LVL1203:
.L956:
.LBE3689:
.LBE3688:
.LBE3687:
.LBB3690:
.LBB3691:
.LBB3692:
.LBB3693:
.LBB3694:
.LBB3695:
.LBB3696:
.LBB3697:
	addi 3,1,152
.LVL1204:
.LEHB70:
	bl _ZN5idStr8FreeDataEv
.LEHE70:
.LVL1205:
.LBE3697:
.LBE3696:
.LBE3695:
.LBE3694:
.LBE3693:
	.loc 11 197 0
	addi 3,1,40
.LVL1206:
	bl _ZN8idParserD1Ev
.LVL1207:
	mr 3,31
.LEHB71:
	bl _Unwind_Resume
.LEHE71:
.LVL1208:
.L967:
	mr 31,3
.LVL1209:
.LBE3692:
.LBE3691:
.LBE3690:
.LBB3700:
.LBB3684:
.LBB3683:
	addi 3,1,40
.LVL1210:
	bl _ZN8idParserD1Ev
.LVL1211:
	mr 3,31
.LEHB72:
	bl _Unwind_Resume
.LEHE72:
.LVL1212:
.L966:
	mr 31,3
.LVL1213:
	b .L956
.LVL1214:
.L962:
	b .L970
.LVL1215:
.L964:
	mr 27,3
.LVL1216:
	mr 26,4
.LBE3683:
.LBE3684:
.LBE3700:
	.loc 4 1853 0
	mr 3,28
	bl __cxa_free_exception
	mr 3,27
	mr 4,26
	b .L948
.LVL1217:
.L968:
.LBB3701:
.LBB3699:
.LBB3698:
	.loc 11 197 0
	addi 3,1,40
.LVL1218:
	bl _ZN8idParserD1Ev
.LVL1219:
	bl _ZSt9terminatev
.LVL1220:
.L952:
.LBE3698:
.LBE3699:
.LBE3701:
.LBB3702:
	.loc 4 1859 0
	bl __cxa_begin_catch
	.loc 4 1860 0
	cmpwi 7,29,0
	.loc 4 1859 0
	mr 5,3
.LVL1221:
	.loc 4 1861 0
	lis 4,.LC66@ha
	lis 3,gameLocal@ha
.LVL1222:
	la 4,.LC66@l(4)
	la 3,gameLocal@l(3)
	.loc 4 1860 0
	beq- 7,.L953
.LEHB73:
	.loc 4 1861 0
	crxor 6,6,6
	bl _ZNK11idGameLocal6PrintfEPKcz
.LEHE73:
.LVL1223:
	.loc 4 1859 0
	bl __cxa_end_catch
	.loc 4 1862 0
	li 29,0
	b .L941
.L965:
	mr 31,3
.LVL1224:
	.loc 4 1859 0
	bl __cxa_end_catch
	b .L950
.LBE3702:
.LBE3705:
	.cfi_endproc
.LFE2915:
	.section	.gcc_except_table
	.align 2
.LLSDA2915:
	.byte	0xff
	.byte	0
	.uleb128 .LLSDATT2915-.LLSDATTD2915
.LLSDATTD2915:
	.byte	0x1
	.uleb128 .LLSDACSE2915-.LLSDACSB2915
.LLSDACSB2915:
	.uleb128 .LEHB60-.LFB2915
	.uleb128 .LEHE60-.LEHB60
	.uleb128 0
	.uleb128 0
	.uleb128 .LEHB61-.LFB2915
	.uleb128 .LEHE61-.LEHB61
	.uleb128 .L962-.LFB2915
	.uleb128 0
	.uleb128 .LEHB62-.LFB2915
	.uleb128 .LEHE62-.LEHB62
	.uleb128 .L963-.LFB2915
	.uleb128 0x3
	.uleb128 .LEHB63-.LFB2915
	.uleb128 .LEHE63-.LEHB63
	.uleb128 .L964-.LFB2915
	.uleb128 0x3
	.uleb128 .LEHB64-.LFB2915
	.uleb128 .LEHE64-.LEHB64
	.uleb128 .L963-.LFB2915
	.uleb128 0x3
	.uleb128 .LEHB65-.LFB2915
	.uleb128 .LEHE65-.LEHB65
	.uleb128 .L966-.LFB2915
	.uleb128 0
	.uleb128 .LEHB66-.LFB2915
	.uleb128 .LEHE66-.LEHB66
	.uleb128 .L967-.LFB2915
	.uleb128 0
	.uleb128 .LEHB67-.LFB2915
	.uleb128 .LEHE67-.LEHB67
	.uleb128 0
	.uleb128 0
	.uleb128 .LEHB68-.LFB2915
	.uleb128 .LEHE68-.LEHB68
	.uleb128 .L965-.LFB2915
	.uleb128 0
	.uleb128 .LEHB69-.LFB2915
	.uleb128 .LEHE69-.LEHB69
	.uleb128 .L962-.LFB2915
	.uleb128 0
	.uleb128 .LEHB70-.LFB2915
	.uleb128 .LEHE70-.LEHB70
	.uleb128 .L968-.LFB2915
	.uleb128 0
	.uleb128 .LEHB71-.LFB2915
	.uleb128 .LEHE71-.LEHB71
	.uleb128 0
	.uleb128 0
	.uleb128 .LEHB72-.LFB2915
	.uleb128 .LEHE72-.LEHB72
	.uleb128 0
	.uleb128 0
	.uleb128 .LEHB73-.LFB2915
	.uleb128 .LEHE73-.LEHB73
	.uleb128 .L965-.LFB2915
	.uleb128 0
.LLSDACSE2915:
	.byte	0
	.byte	0
	.byte	0x1
	.byte	0x7d
	.align 2
	.long	_ZTI14idCompileError
.LLSDATT2915:
	.section	".text"
	.size	_ZN9idProgram11CompileTextEPKcS1_b, .-_ZN9idProgram11CompileTextEPKcS1_b
	.align 2
	.globl _ZN9idProgram11CompileFileEPKc
	.type	_ZN9idProgram11CompileFileEPKc, @function
_ZN9idProgram11CompileFileEPKc:
.LFB2920:
	.loc 4 1901 0
	.cfi_startproc
.LVL1225:
	stwu 1,-40(1)
.LCFI184:
	.cfi_def_cfa_offset 40
	mflr 0
	stw 29,28(1)
	mr 29,3
	.cfi_offset 29, -12
	.cfi_register 65, 0
.LBB3706:
	.loc 4 1905 0
	lis 3,.LC67@ha
.LVL1226:
.LBE3706:
	.loc 4 1901 0
	stw 30,32(1)
.LBB3709:
	.loc 4 1905 0
	la 3,.LC67@l(3)
	.loc 4 1906 0
	lis 30,fileSystem@ha
	.cfi_offset 30, -8
.LBE3709:
	.loc 4 1901 0
	stw 0,44(1)
	stw 31,36(1)
	mr 31,4
	.cfi_offset 31, -4
	.cfi_offset 65, 4
	stw 28,24(1)
.LBB3710:
	.loc 4 1905 0
	.cfi_offset 28, -16
	crxor 6,6,6
	bl _Z10Sys_PrintfPKcz
.LVL1227:
	.loc 4 1906 0
	lwz 3,fileSystem@l(30)
	mr 4,31
	addi 5,1,8
	li 6,0
	lwz 9,0(3)
	lwz 0,96(9)
	mtctr 0
	bctrl
	cmpwi 7,3,0
	blt- 7,.L976
.L973:
.LVL1228:
	.loc 4 1910 0
	lwz 5,8(1)
	mr 4,31
	li 6,0
	mr 3,29
	bl _ZN9idProgram11CompileTextEPKcS1_b
	.loc 4 1912 0
	lwz 4,8(1)
	.loc 4 1910 0
	mr 28,3
.LVL1229:
	.loc 4 1912 0
	lwz 3,fileSystem@l(30)
.LVL1230:
	lwz 9,0(3)
	lwz 0,100(9)
	mtctr 0
	bctrl
.LBB3707:
.LBB3708:
	.loc 4 1914 0
	lis 9,g_disasm+44@ha
	.file 12 "d:/Data/Nintendo/DoomGX/src/game/script/../../idlib/../framework/CVarSystem.h"
	.loc 12 142 0
	lwz 9,g_disasm+44@l(9)
.LBE3708:
.LBE3707:
	.loc 4 1914 0
	lwz 0,36(9)
	cmpwi 7,0,0
	bne- 7,.L977
.L974:
	.loc 4 1918 0
	cmpwi 7,28,0
	bne+ 7,.L972
	.loc 4 1919 0
	lis 3,gameLocal@ha
	lis 4,.LC69@ha
	la 3,gameLocal@l(3)
	la 4,.LC69@l(4)
	mr 5,31
	crxor 6,6,6
	bl _ZNK11idGameLocal5ErrorEPKcz
.L972:
.LBE3710:
	.loc 4 1921 0
	lwz 0,44(1)
	lwz 28,24(1)
.LVL1231:
	mtlr 0
	lwz 29,28(1)
.LVL1232:
	lwz 30,32(1)
	lwz 31,36(1)
.LVL1233:
	addi 1,1,40
	.cfi_remember_state
.LCFI185:
	.cfi_def_cfa_offset 0
	.cfi_restore 31
	.cfi_restore 30
	.cfi_restore 29
	.cfi_restore 28
	blr
.LVL1234:
.L977:
.LCFI186:
	.cfi_restore_state
.LBB3711:
	.loc 4 1915 0
	mr 3,29
	bl _ZNK9idProgram11DisassembleEv
	b .L974
.LVL1235:
.L976:
	.loc 4 1907 0
	lis 3,gameLocal@ha
	lis 4,.LC68@ha
	la 3,gameLocal@l(3)
	la 4,.LC68@l(4)
	mr 5,31
	crxor 6,6,6
	bl _ZNK11idGameLocal5ErrorEPKcz
	b .L973
.LBE3711:
	.cfi_endproc
.LFE2920:
	.size	_ZN9idProgram11CompileFileEPKc, .-_ZN9idProgram11CompileFileEPKc
	.align 2
	.globl _ZN9idProgram7RestoreEP13idRestoreGame
	.type	_ZN9idProgram7RestoreEP13idRestoreGame, @function
_ZN9idProgram7RestoreEP13idRestoreGame:
.LFB2924:
	.loc 4 2027 0
	.cfi_startproc
	.cfi_personality 0,__gxx_personality_v0
	.cfi_lsda 0,.LLSDA2924
.LVL1236:
	mflr 0
	stwu 1,-72(1)
.LCFI187:
	.cfi_def_cfa_offset 72
	.cfi_register 65, 0
.LVL1237:
.LBB3712:
.LBB3713:
.LBB3714:
.LBB3715:
	.loc 5 357 0
	li 9,20
.LBE3715:
.LBE3714:
.LBE3713:
.LBE3712:
	.loc 4 2027 0
	stw 29,60(1)
	mr 29,3
	.cfi_offset 29, -12
	stw 0,76(1)
.LBB3734:
	.loc 4 2032 0
	mr 3,4
.LVL1238:
.LBB3724:
.LBB3720:
.LBB3716:
	.loc 5 356 0
	li 0,0
	.cfi_offset 65, 4
.LBE3716:
.LBE3720:
.LBE3724:
.LBE3734:
	.loc 4 2027 0
	stw 31,68(1)
.LBB3735:
.LBB3725:
.LBB3721:
.LBB3717:
	.loc 5 357 0
	stw 9,28(1)
.LBE3717:
.LBE3721:
.LBE3725:
.LBE3735:
	.loc 4 2027 0
	mr 31,4
	.cfi_offset 31, -4
.LBB3736:
.LBB3726:
.LBB3722:
.LBB3718:
	.loc 5 358 0
	addi 9,1,32
.LBE3718:
.LBE3722:
.LBE3726:
	.loc 4 2032 0
	addi 4,1,16
.LVL1239:
.LBE3736:
	.loc 4 2027 0
	stw 28,56(1)
	addi 28,1,20
	.cfi_offset 28, -16
	stw 30,64(1)
.LBB3737:
.LBB3727:
.LBB3723:
.LBB3719:
	.loc 5 356 0
	stw 0,20(1)
	.loc 5 358 0
	stw 9,24(1)
	.loc 5 359 0
	stb 0,32(1)
.LEHB74:
.LBE3719:
.LBE3723:
.LBE3727:
	.loc 4 2032 0
	.cfi_offset 30, -8
	bl _ZN13idRestoreGame7ReadIntERi
.LVL1240:
	.loc 4 2033 0 discriminator 1
	lwz 0,16(1)
	addi 28,1,20
	cmpwi 7,0,0
	ble- 7,.L996
	.loc 4 2033 0 is_stmt 0
	li 30,0
	addi 28,1,20
.LVL1241:
.L980:
	.loc 4 2034 0 is_stmt 1
	mr 3,31
	mr 4,28
	bl _ZN13idRestoreGame10ReadStringER5idStr
.LVL1242:
	.loc 4 2035 0
	lwz 4,4(28)
	mr 3,29
	bl _ZN9idProgram11CompileFileEPKc
	.loc 4 2033 0
	lwz 0,16(1)
	addi 30,30,1
.LVL1243:
	cmpw 7,0,30
	bgt+ 7,.L980
	b .L996
.LVL1244:
.L982:
	.loc 4 2040 0
	add 4,29,4
	mr 3,31
	addi 4,4,56
	bl _ZN13idRestoreGame8ReadByteERh
.L996:
	.loc 4 2041 0
	mr 3,31
	addi 4,1,12
	bl _ZN13idRestoreGame7ReadIntERi
	.loc 4 2039 0 discriminator 1
	lwz 4,12(1)
	cmpwi 7,4,0
	bge+ 7,.L982
	.loc 4 2044 0
	mr 3,31
	addi 4,1,16
	bl _ZN13idRestoreGame7ReadIntERi
	.loc 4 2214 0
	addis 9,29,0x3
	.loc 4 2045 0
	lwz 0,16(1)
	.loc 4 2214 0
	lwz 30,56(9)
.LVL1245:
	.loc 4 2045 0
	cmpw 7,30,0
	bge- 7,.L983
.LVL1246:
.L990:
	.loc 4 2046 0
	add 4,29,30
	mr 3,31
	addi 4,4,56
	bl _ZN13idRestoreGame8ReadByteERh
	.loc 4 2045 0
	lwz 0,16(1)
	addi 30,30,1
.LVL1247:
	cmpw 7,0,30
	bgt+ 7,.L990
.L983:
	.loc 4 2051 0
	mr 3,31
	addi 4,1,8
	bl _ZN13idRestoreGame7ReadIntERi
	.loc 4 2052 0
	mr 3,29
	bl _ZNK9idProgram17CalculateChecksumEv
.LEHE74:
.LVL1248:
	.loc 4 2027 0
	lwz 31,8(1)
.LVL1249:
	xor 31,3,31
.LBB3728:
.LBB3729:
.LBB3730:
	.loc 5 501 0
	mr 3,28
.LVL1250:
.LEHB75:
	bl _ZN5idStr8FreeDataEv
.LEHE75:
.LBE3730:
.LBE3729:
.LBE3728:
.LBE3737:
	.loc 4 2059 0
	lwz 0,76(1)
.LBB3738:
	.loc 4 2027 0
	cntlzw 31,31
.LBE3738:
	.loc 4 2059 0
	lwz 28,56(1)
	mtlr 0
.LBB3739:
	.loc 4 2027 0
	srwi 31,31,5
.LVL1251:
.LBE3739:
	.loc 4 2059 0
	mr 3,31
	lwz 29,60(1)
.LVL1252:
	lwz 30,64(1)
.LVL1253:
	lwz 31,68(1)
	addi 1,1,72
	.cfi_remember_state
.LCFI188:
	.cfi_def_cfa_offset 0
	.cfi_restore 31
	.cfi_restore 30
	.cfi_restore 29
	.cfi_restore 28
	blr
.LVL1254:
.L988:
.LCFI189:
	.cfi_restore_state
	mr 31,3
.LVL1255:
.LBB3740:
.LBB3731:
.LBB3732:
.LBB3733:
	.loc 5 501 0
	mr 3,28
	bl _ZN5idStr8FreeDataEv
	mr 3,31
.LEHB76:
	bl _Unwind_Resume
.LEHE76:
.LBE3733:
.LBE3732:
.LBE3731:
.LBE3740:
	.cfi_endproc
.LFE2924:
	.section	.gcc_except_table
.LLSDA2924:
	.byte	0xff
	.byte	0xff
	.byte	0x1
	.uleb128 .LLSDACSE2924-.LLSDACSB2924
.LLSDACSB2924:
	.uleb128 .LEHB74-.LFB2924
	.uleb128 .LEHE74-.LEHB74
	.uleb128 .L988-.LFB2924
	.uleb128 0
	.uleb128 .LEHB75-.LFB2924
	.uleb128 .LEHE75-.LEHB75
	.uleb128 0
	.uleb128 0
	.uleb128 .LEHB76-.LFB2924
	.uleb128 .LEHE76-.LEHB76
	.uleb128 0
	.uleb128 0
.LLSDACSE2924:
	.section	".text"
	.size	_ZN9idProgram7RestoreEP13idRestoreGame, .-_ZN9idProgram7RestoreEP13idRestoreGame
	.align 2
	.globl _ZN9idProgram15CompileFunctionEPKcS1_
	.type	_ZN9idProgram15CompileFunctionEPKcS1_, @function
_ZN9idProgram15CompileFunctionEPKcS1_:
.LFB2919:
	.loc 4 1880 0
	.cfi_startproc
.LVL1256:
	mflr 0
	stwu 1,-24(1)
.LCFI190:
	.cfi_def_cfa_offset 24
	.cfi_register 65, 0
.LBB3741:
	.loc 4 1883 0
	li 6,0
.LBE3741:
	.loc 4 1880 0
	stw 29,12(1)
	stw 0,28(1)
	stw 30,16(1)
	mr 30,4
	.cfi_offset 30, -8
	.cfi_offset 65, 4
	.cfi_offset 29, -12
	stw 31,20(1)
	.loc 4 1880 0
	mr 31,3
	.cfi_offset 31, -4
.LBB3744:
	.loc 4 1883 0
	bl _ZN9idProgram11CompileTextEPKcS1_b
.LVL1257:
.LBB3742:
.LBB3743:
	.loc 4 1885 0
	lis 9,g_disasm+44@ha
	.loc 12 142 0
	lwz 9,g_disasm+44@l(9)
.LBE3743:
.LBE3742:
	.loc 4 1883 0
	mr 29,3
.LVL1258:
	.loc 4 1885 0
	lwz 0,36(9)
	cmpwi 7,0,0
	bne- 7,.L1000
.LVL1259:
.L998:
	.loc 4 1889 0
	cmpwi 7,29,0
	bne+ 7,.L999
	.loc 4 1890 0
	lis 3,gameLocal@ha
	lis 4,.LC70@ha
	la 3,gameLocal@l(3)
	la 4,.LC70@l(4)
	crxor 6,6,6
	bl _ZNK11idGameLocal5ErrorEPKcz
.L999:
.LBE3744:
	.loc 4 1894 0
	lwz 0,28(1)
.LBB3745:
	.loc 4 1893 0
	mr 3,31
.LBE3745:
	.loc 4 1894 0
	lwz 29,12(1)
.LVL1260:
.LBB3746:
	.loc 4 1893 0
	mr 4,30
.LBE3746:
	.loc 4 1894 0
	lwz 31,20(1)
.LVL1261:
	mtlr 0
	lwz 30,16(1)
.LVL1262:
	addi 1,1,24
	.cfi_remember_state
.LCFI191:
	.cfi_def_cfa_offset 0
	.cfi_restore 31
	.cfi_restore 30
	.cfi_restore 29
.LBB3747:
	.loc 4 1893 0
	b _ZNK9idProgram12FindFunctionEPKc
.LVL1263:
.L1000:
.LCFI192:
	.cfi_restore_state
	.loc 4 1886 0
	mr 3,31
.LVL1264:
	bl _ZNK9idProgram11DisassembleEv
	b .L998
.LBE3747:
	.cfi_endproc
.LFE2919:
	.size	_ZN9idProgram15CompileFunctionEPKcS1_, .-_ZN9idProgram15CompileFunctionEPKcS1_
	.section	.text._ZN6idListIP9idTypeDefE5ClearEv,"axG",@progbits,_ZN6idListIP9idTypeDefE5ClearEv,comdat
	.align 2
	.weak	_ZN6idListIP9idTypeDefE5ClearEv
	.type	_ZN6idListIP9idTypeDefE5ClearEv, @function
_ZN6idListIP9idTypeDefE5ClearEv:
.LFB3289:
	.loc 6 192 0
	.cfi_startproc
.LVL1265:
	mflr 0
	stwu 1,-16(1)
.LCFI193:
	.cfi_def_cfa_offset 16
	.cfi_register 65, 0
	stw 31,12(1)
	mr 31,3
	.cfi_offset 31, -4
	stw 0,20(1)
	.loc 6 193 0
	lwz 3,12(3)
.LVL1266:
	cmpwi 7,3,0
	beq- 7,.L1002
	.cfi_offset 65, 4
	.loc 6 194 0 discriminator 1
	bl _ZdaPv
.L1002:
	.loc 6 197 0
	li 0,0
	stw 0,12(31)
	.loc 6 198 0
	stw 0,0(31)
	.loc 6 199 0
	stw 0,4(31)
	.loc 6 200 0
	lwz 0,20(1)
	lwz 31,12(1)
.LVL1267:
	mtlr 0
	addi 1,1,16
.LCFI194:
	.cfi_def_cfa_offset 0
	.cfi_restore 31
	blr
	.cfi_endproc
.LFE3289:
	.size	_ZN6idListIP9idTypeDefE5ClearEv, .-_ZN6idListIP9idTypeDefE5ClearEv
	.section	.text._ZN9idTypeDefD2Ev,"axG",@progbits,_ZN9idTypeDefD5Ev,comdat
	.align 2
	.weak	_ZN9idTypeDefD2Ev
	.type	_ZN9idTypeDefD2Ev, @function
_ZN9idTypeDefD2Ev:
.LFB2900:
	.loc 2 91 0
	.cfi_startproc
	.cfi_personality 0,__gxx_personality_v0
	.cfi_lsda 0,.LLSDA2900
.LVL1268:
	mflr 0
	stwu 1,-16(1)
.LCFI195:
	.cfi_def_cfa_offset 16
	.cfi_register 65, 0
	stw 30,8(1)
	mr 30,3
	.cfi_offset 30, -8
.LVL1269:
	stw 0,20(1)
	stw 31,12(1)
.LBB3795:
.LBB3796:
.LBB3797:
.LBB3798:
.LBB3799:
	.loc 6 193 0
	lwz 3,88(3)
.LVL1270:
	cmpwi 7,3,0
	beq- 7,.L1004
	.cfi_offset 31, -4
	.cfi_offset 65, 4
	.loc 6 194 0
	bl _ZdaPv
.LVL1271:
.L1004:
.LBE3799:
.LBE3798:
.LBE3797:
.LBE3796:
.LBB3806:
.LBB3807:
.LBB3808:
.LBB3809:
	.loc 6 193 0
	lwz 3,72(30)
.LBE3809:
.LBE3808:
.LBE3807:
.LBE3806:
.LBB3825:
.LBB3804:
.LBB3802:
.LBB3800:
	.loc 6 197 0
	li 0,0
	stw 0,88(30)
.LBE3800:
.LBE3802:
.LBE3804:
.LBE3825:
.LBB3826:
.LBB3821:
.LBB3817:
.LBB3813:
	.loc 6 193 0
	cmpwi 7,3,0
.LBE3813:
.LBE3817:
.LBE3821:
.LBE3826:
.LBB3827:
.LBB3805:
.LBB3803:
.LBB3801:
	.loc 6 198 0
	stw 0,76(30)
	.loc 6 199 0
	stw 0,80(30)
.LVL1272:
.LBE3801:
.LBE3803:
.LBE3805:
.LBE3827:
.LBB3828:
.LBB3822:
.LBB3818:
.LBB3814:
	.loc 6 193 0
	beq- 7,.L1006
	.loc 6 194 0
	lwz 31,-4(3)
	slwi 31,31,5
	add 31,3,31
	b .L1007
.L1018:
	addi 31,31,-32
.LVL1273:
.LBB3810:
.LBB3811:
.LBB3812:
	.loc 5 501 0
	mr 3,31
.LEHB77:
	bl _ZN5idStr8FreeDataEv
.LEHE77:
	lwz 3,72(30)
.LVL1274:
.L1007:
.LBE3812:
.LBE3811:
.LBE3810:
	.loc 6 194 0
	cmpw 7,3,31
	bne+ 7,.L1018
	addi 3,3,-4
	bl _ZdaPv
.L1006:
.LBE3814:
.LBE3818:
.LBE3822:
.LBE3828:
.LBB3829:
.LBB3830:
.LBB3831:
.LBB3832:
	.loc 6 193 0
	lwz 3,56(30)
.LBE3832:
.LBE3831:
.LBE3830:
.LBE3829:
.LBB3842:
.LBB3823:
.LBB3819:
.LBB3815:
	.loc 6 197 0
	li 0,0
	stw 0,72(30)
.LBE3815:
.LBE3819:
.LBE3823:
.LBE3842:
.LBB3843:
.LBB3839:
.LBB3836:
.LBB3833:
	.loc 6 193 0
	cmpwi 7,3,0
.LBE3833:
.LBE3836:
.LBE3839:
.LBE3843:
.LBB3844:
.LBB3824:
.LBB3820:
.LBB3816:
	.loc 6 198 0
	stw 0,60(30)
	.loc 6 199 0
	stw 0,64(30)
.LVL1275:
.LBE3816:
.LBE3820:
.LBE3824:
.LBE3844:
.LBB3845:
.LBB3840:
.LBB3837:
.LBB3834:
	.loc 6 193 0
	beq- 7,.L1010
	.loc 6 194 0
	bl _ZdaPv
.L1010:
	.loc 6 197 0
	li 0,0
.LBE3834:
.LBE3837:
.LBE3840:
.LBE3845:
.LBB3846:
.LBB3847:
.LBB3848:
	.loc 5 501 0
	addi 3,30,4
.LBE3848:
.LBE3847:
.LBE3846:
.LBB3851:
.LBB3841:
.LBB3838:
.LBB3835:
	.loc 6 197 0
	stw 0,56(30)
	.loc 6 198 0
	stw 0,44(30)
	.loc 6 199 0
	stw 0,48(30)
.LVL1276:
.LEHB78:
.LBE3835:
.LBE3838:
.LBE3841:
.LBE3851:
.LBB3852:
.LBB3850:
.LBB3849:
	.loc 5 501 0
	bl _ZN5idStr8FreeDataEv
.LEHE78:
.LVL1277:
.LBE3849:
.LBE3850:
.LBE3852:
.LBE3795:
	.loc 2 91 0
	lwz 0,20(1)
	lwz 30,8(1)
.LVL1278:
	mtlr 0
	lwz 31,12(1)
	addi 1,1,16
	.cfi_remember_state
.LCFI196:
	.cfi_def_cfa_offset 0
	.cfi_restore 31
	.cfi_restore 30
	blr
.LVL1279:
.L1017:
.LCFI197:
	.cfi_restore_state
	mr 31,3
.LVL1280:
.LBB3859:
.LBB3853:
.LBB3854:
.LBB3855:
	.loc 6 181 0
	addi 3,30,44
	bl _ZN6idListIP9idTypeDefE5ClearEv
.LVL1281:
.LBE3855:
.LBE3854:
.LBE3853:
.LBB3856:
.LBB3857:
.LBB3858:
	.loc 5 501 0
	addi 3,30,4
	bl _ZN5idStr8FreeDataEv
	mr 3,31
.LEHB79:
	bl _Unwind_Resume
.LEHE79:
.LBE3858:
.LBE3857:
.LBE3856:
.LBE3859:
	.cfi_endproc
.LFE2900:
	.section	.gcc_except_table
.LLSDA2900:
	.byte	0xff
	.byte	0xff
	.byte	0x1
	.uleb128 .LLSDACSE2900-.LLSDACSB2900
.LLSDACSB2900:
	.uleb128 .LEHB77-.LFB2900
	.uleb128 .LEHE77-.LEHB77
	.uleb128 .L1017-.LFB2900
	.uleb128 0
	.uleb128 .LEHB78-.LFB2900
	.uleb128 .LEHE78-.LEHB78
	.uleb128 0
	.uleb128 0
	.uleb128 .LEHB79-.LFB2900
	.uleb128 .LEHE79-.LEHB79
	.uleb128 0
	.uleb128 0
.LLSDACSE2900:
	.section	.text._ZN9idTypeDefD2Ev,"axG",@progbits,_ZN9idTypeDefD5Ev,comdat
	.size	_ZN9idTypeDefD2Ev, .-_ZN9idTypeDefD2Ev
	.section	".text"
	.align 2
	.globl _ZN9idProgram7RestartEv
	.type	_ZN9idProgram7RestartEv, @function
_ZN9idProgram7RestartEv:
.LFB2926:
	.loc 4 2120 0
	.cfi_startproc
	.cfi_personality 0,__gxx_personality_v0
	.cfi_lsda 0,.LLSDA2926
.LVL1282:
	stwu 1,-40(1)
.LCFI198:
	.cfi_def_cfa_offset 40
	mflr 0
	stw 28,24(1)
.LBB3946:
	.loc 4 2130 0
	addis 28,3,0x23
	.cfi_offset 28, -16
	.cfi_register 65, 0
.LBE3946:
	.loc 4 2120 0
	stw 0,44(1)
	stw 25,12(1)
	mr 25,3
	.cfi_offset 25, -28
	.cfi_offset 65, 4
	stw 27,20(1)
	stw 24,8(1)
	stw 26,16(1)
	stw 29,28(1)
	stw 30,32(1)
	stw 31,36(1)
.LEHB80:
.LBB4111:
	.loc 4 2123 0
	.cfi_offset 31, -4
	.cfi_offset 30, -8
	.cfi_offset 29, -12
	.cfi_offset 26, -24
	.cfi_offset 24, -32
	.cfi_offset 27, -20
	bl _ZN8idThread7RestartEv
.LEHE80:
.LVL1283:
	.loc 4 2130 0
	lwz 27,-16228(28)
.LVL1284:
	.loc 4 2214 0
	lwz 0,-16316(28)
	.loc 4 2130 0
	cmpw 7,27,0
	bge- 7,.L1020
	slwi 26,27,2
.LBB3947:
.LBB3948:
.LBB3949:
.LBB3950:
.LBB3951:
.LBB3952:
.LBB3953:
	.loc 6 197 0
	li 29,0
.LVL1285:
.L1035:
.LBE3953:
.LBE3952:
.LBE3951:
.LBE3950:
.LBE3949:
.LBE3948:
.LBE3947:
	.loc 4 2131 0
	lwz 9,-16304(28)
	lwzx 30,9,26
	cmpwi 7,30,0
	beq- 7,.L1021
.LVL1286:
.LBB4021:
.LBB4019:
.LBB4017:
.LBB3963:
.LBB3960:
.LBB3957:
.LBB3954:
	.loc 6 193 0
	lwz 3,88(30)
	cmpwi 7,3,0
	beq- 7,.L1022
	.loc 6 194 0
	bl _ZdaPv
.LVL1287:
.L1022:
.LBE3954:
.LBE3957:
.LBE3960:
.LBE3963:
.LBB3964:
.LBB3965:
.LBB3966:
.LBB3967:
	.loc 6 193 0
	lwz 3,72(30)
.LBE3967:
.LBE3966:
.LBE3965:
.LBE3964:
.LBB3983:
.LBB3961:
.LBB3958:
.LBB3955:
	.loc 6 197 0
	stw 29,88(30)
.LBE3955:
.LBE3958:
.LBE3961:
.LBE3983:
.LBB3984:
.LBB3979:
.LBB3975:
.LBB3971:
	.loc 6 193 0
	cmpwi 7,3,0
.LBE3971:
.LBE3975:
.LBE3979:
.LBE3984:
.LBB3985:
.LBB3962:
.LBB3959:
.LBB3956:
	.loc 6 198 0
	stw 29,76(30)
	.loc 6 199 0
	stw 29,80(30)
.LVL1288:
.LBE3956:
.LBE3959:
.LBE3962:
.LBE3985:
.LBB3986:
.LBB3980:
.LBB3976:
.LBB3972:
	.loc 6 193 0
	beq- 7,.L1024
	.loc 6 194 0
	lwz 31,-4(3)
	slwi 31,31,5
	add 31,3,31
	b .L1025
.L1080:
	addi 31,31,-32
.LVL1289:
.LBB3968:
.LBB3969:
.LBB3970:
	.loc 5 501 0
	mr 3,31
.LEHB81:
	bl _ZN5idStr8FreeDataEv
.LEHE81:
	lwz 3,72(30)
.LVL1290:
.L1025:
.LBE3970:
.LBE3969:
.LBE3968:
	.loc 6 194 0
	cmpw 7,3,31
	bne+ 7,.L1080
	addi 3,3,-4
	bl _ZdaPv
.L1024:
.LBE3972:
.LBE3976:
.LBE3980:
.LBE3986:
.LBB3987:
.LBB3988:
.LBB3989:
.LBB3990:
	.loc 6 193 0
	lwz 3,56(30)
.LBE3990:
.LBE3989:
.LBE3988:
.LBE3987:
.LBB4000:
.LBB3981:
.LBB3977:
.LBB3973:
	.loc 6 197 0
	stw 29,72(30)
.LBE3973:
.LBE3977:
.LBE3981:
.LBE4000:
.LBB4001:
.LBB3997:
.LBB3994:
.LBB3991:
	.loc 6 193 0
	cmpwi 7,3,0
.LBE3991:
.LBE3994:
.LBE3997:
.LBE4001:
.LBB4002:
.LBB3982:
.LBB3978:
.LBB3974:
	.loc 6 198 0
	stw 29,60(30)
	.loc 6 199 0
	stw 29,64(30)
.LVL1291:
.LBE3974:
.LBE3978:
.LBE3982:
.LBE4002:
.LBB4003:
.LBB3998:
.LBB3995:
.LBB3992:
	.loc 6 193 0
	beq- 7,.L1028
	.loc 6 194 0
	bl _ZdaPv
.L1028:
	.loc 6 197 0
	stw 29,56(30)
.LBE3992:
.LBE3995:
.LBE3998:
.LBE4003:
.LBB4004:
.LBB4005:
.LBB4006:
	.loc 5 501 0
	addi 3,30,4
.LBE4006:
.LBE4005:
.LBE4004:
.LBB4009:
.LBB3999:
.LBB3996:
.LBB3993:
	.loc 6 198 0
	stw 29,44(30)
	.loc 6 199 0
	stw 29,48(30)
.LVL1292:
.LEHB82:
.LBE3993:
.LBE3996:
.LBE3999:
.LBE4009:
.LBB4010:
.LBB4008:
.LBB4007:
	.loc 5 501 0
	bl _ZN5idStr8FreeDataEv
.LVL1293:
.LBE4007:
.LBE4008:
.LBE4010:
.LBE4017:
.LBE4019:
.LBE4021:
	.loc 4 2131 0
	mr 3,30
	bl _ZN9idTypeDefdlEPv
.LVL1294:
.L1021:
	.loc 4 2214 0
	lwz 0,-16316(28)
	.loc 4 2130 0
	addi 27,27,1
.LVL1295:
	.loc 4 2214 0
	addi 26,26,4
	.loc 4 2130 0
	cmpw 7,0,27
	bgt+ 7,.L1035
	lwz 27,-16228(28)
.LVL1296:
.L1020:
.LBB4022:
.LBB4023:
	.loc 6 299 0
	lwz 9,-16312(28)
.LBE4023:
.LBE4022:
	.loc 4 2133 0
	addi 31,28,-16316
.LVL1297:
.LBB4037:
.LBB4032:
	.loc 6 299 0
	cmpw 7,9,27
	blt- 7,.L1081
.L1036:
.LBE4032:
.LBE4037:
	.loc 4 2135 0
	lwz 31,-16224(28)
.LVL1298:
	.loc 4 2214 0
	lwz 0,-16256(28)
.LBB4038:
.LBB4033:
	.loc 6 302 0
	stw 27,-16316(28)
.LBE4033:
.LBE4038:
	.loc 4 2135 0
	cmpw 7,31,0
	bge- 7,.L1042
	slwi 29,31,2
.LVL1299:
.L1044:
	.loc 4 2136 0
	lwz 9,-16244(28)
	lwzx 30,9,29
	cmpwi 7,30,0
	beq- 7,.L1043
	.loc 4 2136 0 is_stmt 0 discriminator 1
	mr 3,30
	bl _ZN8idVarDefD1Ev
	mr 3,30
	bl _ZN8idVarDefdlEPv
.L1043:
	.loc 4 2214 0 is_stmt 1
	lwz 0,-16256(28)
	.loc 4 2135 0
	addi 31,31,1
.LVL1300:
	.loc 4 2214 0
	addi 29,29,4
	.loc 4 2135 0
	cmpw 7,0,31
	bgt+ 7,.L1044
	lwz 31,-16224(28)
.LVL1301:
.L1042:
.LBB4039:
.LBB4040:
	.loc 6 299 0
	lwz 9,-16252(28)
.LBE4040:
.LBE4039:
	.loc 4 2138 0
	addi 30,28,-16256
.LVL1302:
.LBB4053:
.LBB4049:
	.loc 6 299 0
	cmpw 7,31,9
	bgt- 7,.L1082
.L1045:
	.loc 6 302 0
	stw 31,-16256(28)
.LBE4049:
.LBE4053:
	.loc 4 2214 0
	addis 30,25,0x6
.LVL1303:
	.loc 4 2140 0
	lwz 31,-16236(28)
.LVL1304:
	lwz 0,60(30)
	cmpw 7,31,0
	bge- 7,.L1051
	.loc 4 2141 0 discriminator 2
	addi 29,30,60
.LVL1305:
.L1072:
	mulli 3,31,80
	.loc 4 2140 0 discriminator 2
	addi 31,31,1
.LVL1306:
	.loc 4 2141 0 discriminator 2
	add 3,29,3
	addi 3,3,4
	bl _ZN10function_t5ClearEv
.LVL1307:
	.loc 4 2140 0 discriminator 2
	lwz 0,60(30)
	cmpw 7,0,31
	bgt+ 7,.L1072
	.loc 4 2140 0 is_stmt 0
	lwz 31,-16236(28)
.LVL1308:
.L1051:
.LBB4054:
.LBB4055:
	.loc 9 216 0 is_stmt 1
	stw 31,60(30)
.LVL1309:
.LBE4055:
.LBE4054:
.LBB4056:
.LBB4057:
	addis 9,25,0xa
	lwz 0,-16232(28)
	stw 0,-16320(9)
.LBE4057:
.LBE4056:
	.loc 4 2146 0
	lwz 26,-16220(28)
.LVL1310:
.LBB4058:
.LBB4059:
	.loc 6 299 0
	lwz 0,4(25)
	cmpw 7,26,0
	bgt- 7,.L1083
.LVL1311:
.L1053:
	.loc 6 302 0
	stw 26,0(25)
.LVL1312:
.LBE4059:
.LBE4058:
.LBB4096:
.LBB4097:
	.loc 5 746 0
	addi 3,25,16
	bl _ZN5idStr8FreeDataEv
.LVL1313:
.LBB4098:
.LBB4099:
	.loc 5 356 0
	li 0,0
	.loc 5 358 0
	addi 9,25,28
	.loc 5 357 0
	li 11,20
	.loc 5 356 0
	stw 0,16(25)
	.loc 4 2214 0
	addis 10,25,0x3
	.loc 5 357 0
	stw 11,24(25)
	.loc 5 358 0
	stw 9,20(25)
	.loc 5 359 0
	stb 0,28(25)
	.loc 4 2214 0
	lwz 0,56(10)
.LBE4099:
.LBE4098:
.LBE4097:
.LBE4096:
	.loc 4 2151 0
	cmpwi 7,0,0
	.loc 4 2150 0
	stw 0,52(25)
.LVL1314:
	.loc 4 2151 0
	ble- 7,.L1019
	.loc 4 2120 0
	mtctr 0
	addi 25,25,55
.LVL1315:
.LBB4100:
.LBB4092:
.LBB4060:
.LBB4061:
	.loc 4 2151 0
	li 9,0
.LBE4061:
.LBE4060:
.LBE4092:
.LBE4100:
	.loc 4 2120 0
	addi 10,10,56
.LVL1316:
.L1070:
	.loc 4 2120 0 is_stmt 0 discriminator 2
	add 11,10,9
	.loc 4 2151 0 is_stmt 1 discriminator 2
	addi 9,9,1
.LVL1317:
	.loc 4 2152 0 discriminator 2
	lbz 0,4(11)
	stbu 0,1(25)
	.loc 4 2151 0 discriminator 2
	bdnz .L1070
.LVL1318:
.L1019:
.LBE4111:
	.loc 4 2154 0
	lwz 0,44(1)
	lwz 24,8(1)
	mtlr 0
	lwz 25,12(1)
	lwz 26,16(1)
.LVL1319:
	lwz 27,20(1)
	lwz 28,24(1)
	lwz 29,28(1)
	lwz 30,32(1)
	lwz 31,36(1)
	addi 1,1,40
	.cfi_remember_state
.LCFI199:
	.cfi_def_cfa_offset 0
	.cfi_restore 31
	.cfi_restore 30
	.cfi_restore 29
	.cfi_restore 28
	.cfi_restore 27
	.cfi_restore 26
	.cfi_restore 25
	.cfi_restore 24
	blr
.LVL1320:
.L1081:
.LCFI200:
	.cfi_restore_state
.LBB4112:
.LBB4101:
.LBB4034:
.LBB4024:
.LBB4025:
	.loc 6 375 0
	cmpwi 7,27,0
	ble- 7,.L1084
	.loc 6 387 0
	cmpw 7,0,27
	.loc 6 385 0
	lwz 30,-16304(28)
.LVL1321:
	.loc 6 386 0
	stw 27,-16312(28)
	.loc 6 387 0
	ble- 7,.L1039
	.loc 6 388 0
	stw 27,-16316(28)
.L1039:
	.loc 6 392 0
	slwi 3,27,2
	bl _Znaj
.LVL1322:
	.loc 6 393 0
	lwz 0,-16316(28)
	.loc 6 392 0
	stw 3,-16304(28)
.LVL1323:
	.loc 6 393 0
	cmpwi 7,0,0
	ble- 7,.L1040
	.loc 4 2120 0
	addi 11,30,-4
.LBE4025:
.LBE4024:
.LBE4034:
.LBE4101:
.LBE4112:
	.loc 6 393 0
	li 9,0
	b .L1041
.LVL1324:
.L1085:
.LBB4113:
.LBB4102:
.LBB4035:
.LBB4030:
.LBB4028:
	lwz 3,-16304(28)
.LVL1325:
.L1041:
	.loc 6 394 0
	lwzu 10,4(11)
	slwi 0,9,2
	.loc 6 393 0
	addi 9,9,1
.LVL1326:
	.loc 6 394 0
	stwx 10,3,0
	.loc 6 393 0
	lwz 0,0(31)
	cmpw 7,9,0
	blt+ 7,.L1085
.LVL1327:
.L1040:
	.loc 6 398 0
	cmpwi 7,30,0
	beq- 7,.L1036
	.loc 6 399 0
	mr 3,30
	bl _ZdaPv
	b .L1036
.LVL1328:
.L1083:
.LBE4028:
.LBE4030:
.LBE4035:
.LBE4102:
.LBB4103:
.LBB4093:
.LBB4089:
.LBB4086:
	.loc 6 375 0
	cmpwi 7,26,0
	ble- 7,.L1086
	.loc 6 387 0
	lwz 0,0(25)
	.loc 6 385 0
	lwz 28,12(25)
.LVL1329:
	.loc 6 387 0
	cmpw 7,26,0
	.loc 6 386 0
	stw 26,4(25)
	.loc 6 387 0
	blt- 7,.L1087
.L1060:
	.loc 6 392 0
	slwi 3,26,5
	addi 3,3,4
	bl _Znaj
.LVL1330:
.LBB4062:
.LBB4063:
.LBB4064:
	.loc 5 357 0
	mtctr 26
.LBE4064:
.LBE4063:
.LBE4062:
	.loc 6 392 0
	addi 31,3,4
.LVL1331:
	stw 26,0(3)
	mr 9,31
.LBB4067:
.LBB4066:
.LBB4065:
	.loc 5 356 0
	li 0,0
	.loc 5 357 0
	li 10,20
.L1061:
.LVL1332:
	.loc 5 358 0
	addi 11,9,12
	.loc 5 356 0
	stw 0,0(9)
	.loc 5 357 0
	stw 10,8(9)
	.loc 5 358 0
	stw 11,4(9)
	.loc 5 359 0
	stb 0,12(9)
	addi 9,9,32
.LVL1333:
.LBE4065:
.LBE4066:
.LBE4067:
	.loc 6 392 0
	bdnz .L1061
	.loc 6 393 0
	lwz 0,0(25)
	.loc 6 392 0
	stw 31,12(25)
.LVL1334:
	.loc 6 393 0
	cmpwi 7,0,0
	ble- 7,.L1062
	li 30,0
	li 27,0
.LVL1335:
.LBB4068:
.LBB4069:
	.loc 5 536 0
	li 24,0
	b .L1064
.LVL1336:
.L1088:
.LBE4069:
.LBE4068:
	.loc 6 393 0
	lwz 31,12(25)
.LVL1337:
.L1064:
	.loc 6 394 0
	add 31,31,30
.LVL1338:
.LBB4076:
	.loc 4 2214 0
	lwzx 29,28,30
.LBB4074:
.LBB4070:
.LBB4071:
	.loc 5 350 0
	lwz 0,8(31)
.LBE4071:
.LBE4070:
	.loc 5 534 0
	addi 4,29,1
.LVL1339:
.LBB4073:
.LBB4072:
	.loc 5 350 0
	cmpw 7,4,0
	ble+ 7,.L1063
	.loc 5 351 0
	mr 3,31
	li 5,0
	bl _ZN5idStr10ReAllocateEib
.LVL1340:
.L1063:
.LBE4072:
.LBE4073:
	.loc 4 2120 0
	add 9,28,30
	.loc 5 535 0
	lwz 3,4(31)
	lwz 4,4(9)
	mr 5,29
.LBE4074:
.LBE4076:
	.loc 6 393 0
	addi 27,27,1
	addi 30,30,32
.LVL1341:
.LBB4077:
.LBB4075:
	.loc 5 535 0
	bl memcpy
.LVL1342:
	.loc 5 536 0
	lwz 9,4(31)
	stbx 24,9,29
	.loc 5 537 0
	stw 29,0(31)
.LBE4075:
.LBE4077:
	.loc 6 393 0
	lwz 0,0(25)
	cmpw 7,27,0
	blt+ 7,.L1088
.LVL1343:
.L1062:
	.loc 6 398 0
	cmpwi 7,28,0
	beq- 7,.L1053
	.loc 6 399 0
	lwz 31,-4(28)
	slwi 31,31,5
	add 31,28,31
	cmpw 7,28,31
	beq- 7,.L1065
.L1079:
	addi 31,31,-32
.LVL1344:
.LBB4078:
.LBB4079:
.LBB4080:
	.loc 5 501 0
	mr 3,31
	bl _ZN5idStr8FreeDataEv
.LBE4080:
.LBE4079:
.LBE4078:
	.loc 6 399 0
	cmpw 7,28,31
	bne+ 7,.L1079
.LVL1345:
.L1065:
	addi 3,28,-4
	bl _ZdaPv
	b .L1053
.LVL1346:
.L1082:
.LBE4086:
.LBE4089:
.LBE4093:
.LBE4103:
.LBB4104:
.LBB4050:
.LBB4041:
.LBB4042:
	.loc 6 375 0
	cmpwi 7,31,0
	ble- 7,.L1089
	.loc 6 387 0
	cmpw 7,31,0
	.loc 6 385 0
	lwz 29,-16244(28)
.LVL1347:
	.loc 6 386 0
	stw 31,-16252(28)
	.loc 6 387 0
	bge- 7,.L1048
	.loc 6 388 0
	stw 31,-16256(28)
.L1048:
	.loc 6 392 0
	slwi 3,31,2
	bl _Znaj
.LVL1348:
	.loc 6 393 0
	lwz 0,-16256(28)
	.loc 6 392 0
	stw 3,-16244(28)
.LVL1349:
	.loc 6 393 0
	cmpwi 7,0,0
	ble- 7,.L1049
	.loc 4 2120 0
	addi 11,29,-4
.LBE4042:
.LBE4041:
.LBE4050:
.LBE4104:
.LBE4113:
	.loc 6 393 0
	li 9,0
	b .L1050
.LVL1350:
.L1090:
.LBB4114:
.LBB4105:
.LBB4051:
.LBB4047:
.LBB4045:
	lwz 3,-16244(28)
.LVL1351:
.L1050:
	.loc 6 394 0
	lwzu 10,4(11)
	slwi 0,9,2
	.loc 6 393 0
	addi 9,9,1
.LVL1352:
	.loc 6 394 0
	stwx 10,3,0
	.loc 6 393 0
	lwz 0,0(30)
	cmpw 7,9,0
	blt+ 7,.L1090
.LVL1353:
.L1049:
	.loc 6 398 0
	cmpwi 7,29,0
	beq- 7,.L1045
	.loc 6 399 0
	mr 3,29
	bl _ZdaPv
	b .L1045
.LVL1354:
.L1087:
.LBE4045:
.LBE4047:
.LBE4051:
.LBE4105:
.LBB4106:
.LBB4094:
.LBB4090:
.LBB4087:
	.loc 6 388 0
	stw 26,0(25)
	b .L1060
.LVL1355:
.L1089:
.LBE4087:
.LBE4090:
.LBE4094:
.LBE4106:
.LBB4107:
.LBB4052:
.LBB4048:
.LBB4046:
.LBB4043:
.LBB4044:
	.loc 6 193 0
	lwz 3,-16244(28)
	cmpwi 7,3,0
	beq- 7,.L1047
	.loc 6 194 0
	bl _ZdaPv
.L1047:
	.loc 6 197 0
	li 0,0
	stw 0,-16244(28)
	.loc 6 199 0
	stw 0,-16252(28)
	b .L1045
.LVL1356:
.L1086:
.LBE4044:
.LBE4043:
.LBE4046:
.LBE4048:
.LBE4052:
.LBE4107:
.LBB4108:
.LBB4095:
.LBB4091:
.LBB4088:
.LBB4081:
.LBB4082:
	.loc 6 193 0
	lwz 3,12(25)
	cmpwi 7,3,0
	beq- 7,.L1055
	.loc 6 194 0
	lwz 31,-4(3)
.LVL1357:
	slwi 31,31,5
	add 31,3,31
	cmpw 7,3,31
	beq- 7,.L1056
.LVL1358:
.L1078:
	addi 31,31,-32
.LVL1359:
.LBB4083:
.LBB4084:
.LBB4085:
	.loc 5 501 0
	mr 3,31
	bl _ZN5idStr8FreeDataEv
.LEHE82:
.LBE4085:
.LBE4084:
.LBE4083:
	.loc 6 194 0
	lwz 3,12(25)
	cmpw 7,3,31
	bne+ 7,.L1078
.LVL1360:
.L1056:
	addi 3,3,-4
	bl _ZdaPv
.L1055:
	.loc 6 197 0
	li 0,0
	stw 0,12(25)
	.loc 6 199 0
	stw 0,4(25)
	b .L1053
.LVL1361:
.L1084:
.LBE4082:
.LBE4081:
.LBE4088:
.LBE4091:
.LBE4095:
.LBE4108:
.LBB4109:
.LBB4036:
.LBB4031:
.LBB4029:
.LBB4026:
.LBB4027:
	.loc 6 193 0
	lwz 3,-16304(28)
	cmpwi 7,3,0
	beq- 7,.L1038
	.loc 6 194 0
	bl _ZdaPv
.L1038:
	.loc 6 197 0
	li 0,0
	stw 0,-16304(28)
	.loc 6 199 0
	stw 0,-16312(28)
	b .L1036
.LVL1362:
.L1071:
	mr 31,3
.LVL1363:
.LBE4027:
.LBE4026:
.LBE4029:
.LBE4031:
.LBE4036:
.LBE4109:
.LBB4110:
.LBB4020:
.LBB4018:
.LBB4011:
.LBB4012:
.LBB4013:
	.loc 6 181 0
	addi 3,30,44
	bl _ZN6idListIP9idTypeDefE5ClearEv
.LVL1364:
.LBE4013:
.LBE4012:
.LBE4011:
.LBB4014:
.LBB4015:
.LBB4016:
	.loc 5 501 0
	addi 3,30,4
	bl _ZN5idStr8FreeDataEv
	mr 3,31
.LEHB83:
	bl _Unwind_Resume
.LEHE83:
.LBE4016:
.LBE4015:
.LBE4014:
.LBE4018:
.LBE4020:
.LBE4110:
.LBE4114:
	.cfi_endproc
.LFE2926:
	.section	.gcc_except_table
.LLSDA2926:
	.byte	0xff
	.byte	0xff
	.byte	0x1
	.uleb128 .LLSDACSE2926-.LLSDACSB2926
.LLSDACSB2926:
	.uleb128 .LEHB80-.LFB2926
	.uleb128 .LEHE80-.LEHB80
	.uleb128 0
	.uleb128 0
	.uleb128 .LEHB81-.LFB2926
	.uleb128 .LEHE81-.LEHB81
	.uleb128 .L1071-.LFB2926
	.uleb128 0
	.uleb128 .LEHB82-.LFB2926
	.uleb128 .LEHE82-.LEHB82
	.uleb128 0
	.uleb128 0
	.uleb128 .LEHB83-.LFB2926
	.uleb128 .LEHE83-.LEHB83
	.uleb128 0
	.uleb128 0
.LLSDACSE2926:
	.section	".text"
	.size	_ZN9idProgram7RestartEv, .-_ZN9idProgram7RestartEv
	.align 2
	.globl _ZN9idProgram8FreeDataEv
	.type	_ZN9idProgram8FreeDataEv, @function
_ZN9idProgram8FreeDataEv:
.LFB2921:
	.loc 4 1928 0
	.cfi_startproc
	.cfi_personality 0,__gxx_personality_v0
	.cfi_lsda 0,.LLSDA2921
.LVL1365:
	mflr 0
	stwu 1,-40(1)
.LCFI201:
	.cfi_def_cfa_offset 40
	.cfi_register 65, 0
	stw 25,12(1)
	mr 25,3
	.cfi_offset 25, -28
.LVL1366:
	stw 29,28(1)
.LBB4179:
.LBB4180:
.LBB4181:
	.loc 6 218 0
	addis 29,3,0x23
	.cfi_offset 29, -12
.LBE4181:
.LBE4180:
.LBE4179:
	.loc 4 1928 0
	stw 0,44(1)
	stw 26,16(1)
	stw 27,20(1)
	stw 28,24(1)
	stw 30,32(1)
	stw 31,36(1)
.LBB4341:
.LBB4191:
.LBB4188:
	.loc 6 218 0
	lwz 0,-16256(29)
	.cfi_offset 31, -4
	.cfi_offset 30, -8
	.cfi_offset 28, -16
	.cfi_offset 27, -20
	.cfi_offset 26, -24
	.cfi_offset 65, 4
	cmpwi 7,0,0
	ble- 7,.L1092
.LVL1367:
	li 31,0
	.loc 6 220 0
	li 27,0
.LVL1368:
.L1094:
	.loc 6 219 0
	lwz 9,-16244(29)
	.loc 4 1928 0
	slwi 30,31,2
	.loc 6 219 0
	lwzx 28,9,30
	add 9,9,30
	cmpwi 7,28,0
	beq- 7,.L1093
	mr 3,28
	bl _ZN8idVarDefD1Ev
	mr 3,28
	bl _ZN8idVarDefdlEPv
	lwz 9,-16244(29)
	add 9,9,30
.L1093:
	.loc 6 220 0
	stw 27,0(9)
	.loc 6 218 0
	addi 31,31,1
.LVL1369:
	lwz 0,-16256(29)
	cmpw 7,31,0
	blt+ 7,.L1094
.LVL1370:
.L1092:
.LBB4182:
.LBB4183:
	.loc 6 193 0
	lwz 3,-16244(29)
	cmpwi 7,3,0
	beq- 7,.L1095
	.loc 6 194 0
	bl _ZdaPv
.L1095:
.LBE4183:
.LBE4182:
.LBE4188:
.LBE4191:
.LBB4192:
.LBB4193:
	.loc 6 218 0
	lwz 9,-16300(29)
.LBE4193:
.LBE4192:
.LBB4207:
.LBB4189:
.LBB4186:
.LBB4184:
	.loc 6 197 0
	li 0,0
	stw 0,-16244(29)
.LBE4184:
.LBE4186:
.LBE4189:
.LBE4207:
.LBB4208:
.LBB4204:
	.loc 6 218 0
	cmpwi 7,9,0
.LBE4204:
.LBE4208:
.LBB4209:
.LBB4190:
.LBB4187:
.LBB4185:
	.loc 6 198 0
	stw 0,-16256(29)
	.loc 6 199 0
	stw 0,-16252(29)
.LVL1371:
.LBE4185:
.LBE4187:
.LBE4190:
.LBE4209:
.LBB4210:
.LBB4205:
	.loc 6 218 0
	ble- 7,.L1096
	li 31,0
	.loc 6 220 0
	li 27,0
.LVL1372:
.L1100:
	.loc 6 219 0
	lwz 9,-16288(29)
	.loc 4 1928 0
	slwi 30,31,2
	.loc 6 219 0
	lwzx 28,9,30
	add 9,9,30
	cmpwi 7,28,0
	beq- 7,.L1097
.LVL1373:
.LBB4194:
.LBB4195:
.LBB4196:
.LBB4197:
.LBB4198:
.LBB4199:
	.loc 5 501 0
	mr 3,28
.LEHB84:
	bl _ZN5idStr8FreeDataEv
.LVL1374:
.LBE4199:
.LBE4198:
.LBE4197:
.LBE4196:
.LBE4195:
.LBE4194:
	.loc 6 219 0
	mr 3,28
	bl _ZdlPv
	lwz 9,-16288(29)
	add 9,9,30
.LVL1375:
.L1097:
	.loc 6 220 0
	stw 27,0(9)
	.loc 6 218 0
	addi 31,31,1
.LVL1376:
	lwz 0,-16300(29)
	cmpw 7,31,0
	blt+ 7,.L1100
.LVL1377:
.L1096:
.LBB4200:
.LBB4201:
	.loc 6 193 0
	lwz 3,-16288(29)
	cmpwi 7,3,0
	beq- 7,.L1101
	.loc 6 194 0
	bl _ZdaPv
.L1101:
	.loc 6 197 0
	li 31,0
.LBE4201:
.LBE4200:
.LBE4205:
.LBE4210:
	.loc 4 1934 0
	addi 3,29,-16284
.LBB4211:
.LBB4206:
.LBB4203:
.LBB4202:
	.loc 6 197 0
	stw 31,-16288(29)
	.loc 6 198 0
	stw 31,-16300(29)
	.loc 6 199 0
	stw 31,-16296(29)
.LBE4202:
.LBE4203:
.LBE4206:
.LBE4211:
	.loc 4 1934 0
	bl _ZN11idHashIndex4FreeEv
.LEHE84:
.LBB4212:
.LBB4213:
	.loc 6 218 0
	lwz 0,-16316(29)
.LBE4213:
.LBE4212:
	.loc 4 1936 0
	stw 31,-16216(29)
.LBB4304:
.LBB4298:
	.loc 6 218 0
	cmpwi 7,0,0
.LBE4298:
.LBE4304:
	.loc 4 1937 0
	stw 31,-16212(29)
	.loc 4 1938 0
	stw 31,-16240(29)
.LVL1378:
.LBB4305:
.LBB4299:
	.loc 6 218 0
	ble- 7,.L1102
	li 27,0
.LBB4214:
.LBB4215:
.LBB4216:
.LBB4217:
.LBB4218:
.LBB4219:
.LBB4220:
	.loc 6 197 0
	li 28,0
.LVL1379:
.L1117:
.LBE4220:
.LBE4219:
.LBE4218:
.LBE4217:
.LBE4216:
.LBE4215:
.LBE4214:
	.loc 6 219 0
	lwz 9,-16304(29)
	.loc 4 1928 0
	slwi 26,27,2
	.loc 6 219 0
	lwzx 30,9,26
	add 9,9,26
	cmpwi 7,30,0
	beq- 7,.L1103
.LVL1380:
.LBB4288:
.LBB4286:
.LBB4284:
.LBB4230:
.LBB4227:
.LBB4224:
.LBB4221:
	.loc 6 193 0
	lwz 3,88(30)
	cmpwi 7,3,0
	beq- 7,.L1104
	.loc 6 194 0
	bl _ZdaPv
.LVL1381:
.L1104:
.LBE4221:
.LBE4224:
.LBE4227:
.LBE4230:
.LBB4231:
.LBB4232:
.LBB4233:
.LBB4234:
	.loc 6 193 0
	lwz 9,72(30)
.LBE4234:
.LBE4233:
.LBE4232:
.LBE4231:
.LBB4250:
.LBB4228:
.LBB4225:
.LBB4222:
	.loc 6 197 0
	stw 28,88(30)
.LBE4222:
.LBE4225:
.LBE4228:
.LBE4250:
.LBB4251:
.LBB4246:
.LBB4242:
.LBB4238:
	.loc 6 193 0
	cmpwi 7,9,0
.LBE4238:
.LBE4242:
.LBE4246:
.LBE4251:
.LBB4252:
.LBB4229:
.LBB4226:
.LBB4223:
	.loc 6 198 0
	stw 28,76(30)
	.loc 6 199 0
	stw 28,80(30)
.LVL1382:
.LBE4223:
.LBE4226:
.LBE4229:
.LBE4252:
.LBB4253:
.LBB4247:
.LBB4243:
.LBB4239:
	.loc 6 193 0
	beq- 7,.L1106
	.loc 6 194 0
	lwz 31,-4(9)
	slwi 31,31,5
	add 31,9,31
	b .L1107
.L1132:
	addi 31,31,-32
.LVL1383:
.LBB4235:
.LBB4236:
.LBB4237:
	.loc 5 501 0
	mr 3,31
.LEHB85:
	bl _ZN5idStr8FreeDataEv
.LEHE85:
	lwz 9,72(30)
.LVL1384:
.L1107:
.LBE4237:
.LBE4236:
.LBE4235:
	.loc 6 194 0
	cmpw 7,31,9
	bne+ 7,.L1132
	addi 3,31,-4
	bl _ZdaPv
.L1106:
.LBE4239:
.LBE4243:
.LBE4247:
.LBE4253:
.LBB4254:
.LBB4255:
.LBB4256:
.LBB4257:
	.loc 6 193 0
	lwz 3,56(30)
.LBE4257:
.LBE4256:
.LBE4255:
.LBE4254:
.LBB4267:
.LBB4248:
.LBB4244:
.LBB4240:
	.loc 6 197 0
	stw 28,72(30)
.LBE4240:
.LBE4244:
.LBE4248:
.LBE4267:
.LBB4268:
.LBB4264:
.LBB4261:
.LBB4258:
	.loc 6 193 0
	cmpwi 7,3,0
.LBE4258:
.LBE4261:
.LBE4264:
.LBE4268:
.LBB4269:
.LBB4249:
.LBB4245:
.LBB4241:
	.loc 6 198 0
	stw 28,60(30)
	.loc 6 199 0
	stw 28,64(30)
.LVL1385:
.LBE4241:
.LBE4245:
.LBE4249:
.LBE4269:
.LBB4270:
.LBB4265:
.LBB4262:
.LBB4259:
	.loc 6 193 0
	beq- 7,.L1110
	.loc 6 194 0
	bl _ZdaPv
.L1110:
	.loc 6 197 0
	stw 28,56(30)
.LBE4259:
.LBE4262:
.LBE4265:
.LBE4270:
.LBB4271:
.LBB4272:
.LBB4273:
	.loc 5 501 0
	addi 3,30,4
.LBE4273:
.LBE4272:
.LBE4271:
.LBB4276:
.LBB4266:
.LBB4263:
.LBB4260:
	.loc 6 198 0
	stw 28,44(30)
	.loc 6 199 0
	stw 28,48(30)
.LVL1386:
.LEHB86:
.LBE4260:
.LBE4263:
.LBE4266:
.LBE4276:
.LBB4277:
.LBB4275:
.LBB4274:
	.loc 5 501 0
	bl _ZN5idStr8FreeDataEv
.LVL1387:
.LBE4274:
.LBE4275:
.LBE4277:
.LBE4284:
.LBE4286:
.LBE4288:
	.loc 6 219 0
	mr 3,30
	bl _ZN9idTypeDefdlEPv
	lwz 9,-16304(29)
	add 9,9,26
.LVL1388:
.L1103:
	.loc 6 220 0
	stw 28,0(9)
	.loc 6 218 0
	addi 27,27,1
.LVL1389:
	lwz 0,-16316(29)
	cmpw 7,27,0
	blt+ 7,.L1117
.LVL1390:
.L1102:
.LBB4289:
.LBB4290:
	.loc 6 193 0
	lwz 3,-16304(29)
	cmpwi 7,3,0
	beq- 7,.L1118
	.loc 6 194 0
	bl _ZdaPv
.L1118:
	.loc 6 197 0
	li 0,0
.LBE4290:
.LBE4289:
.LBE4299:
.LBE4305:
	.loc 4 1946 0
	addi 3,25,56
.LBB4306:
.LBB4300:
.LBB4294:
.LBB4291:
	.loc 6 197 0
	stw 0,-16304(29)
.LBE4291:
.LBE4294:
.LBE4300:
.LBE4306:
	.loc 4 1946 0
	li 4,0
.LBB4307:
.LBB4301:
.LBB4295:
.LBB4292:
	.loc 6 198 0
	stw 0,-16316(29)
.LBE4292:
.LBE4295:
.LBE4301:
.LBE4307:
	.loc 4 1946 0
	lis 5,0x3
.LBB4308:
.LBB4302:
.LBB4296:
.LBB4293:
	.loc 6 199 0
	stw 0,-16312(29)
.LBE4293:
.LBE4296:
.LBE4302:
.LBE4308:
	.loc 4 2214 0
	addis 31,25,0x6
	.loc 4 1943 0
	stw 0,48(25)
	.loc 4 1945 0
	stw 0,52(25)
	.loc 4 1946 0
	bl memset
.LVL1391:
	.loc 4 1949 0
	lwz 0,60(31)
	cmpwi 7,0,0
	ble- 7,.L1119
	li 30,0
	.loc 4 1950 0
	addi 28,31,60
.LVL1392:
.L1120:
	.loc 4 1950 0 is_stmt 0 discriminator 2
	mulli 3,30,80
	.loc 4 1949 0 is_stmt 1 discriminator 2
	addi 30,30,1
.LVL1393:
	.loc 4 1950 0 discriminator 2
	add 3,28,3
	addi 3,3,4
	bl _ZN10function_t5ClearEv
.LVL1394:
	.loc 4 1949 0 discriminator 2
	lwz 0,60(31)
	cmpw 7,0,30
	bgt+ 7,.L1120
.LVL1395:
.L1119:
	.loc 4 1953 0
	addi 28,25,16
.LVL1396:
.LBB4309:
.LBB4310:
	.loc 5 746 0
	mr 3,28
	bl _ZN5idStr8FreeDataEv
.LVL1397:
.LBE4310:
.LBE4309:
.LBB4317:
.LBB4318:
	.loc 6 193 0
	lwz 3,12(25)
.LBE4318:
.LBE4317:
.LBB4327:
.LBB4315:
.LBB4311:
.LBB4312:
	.loc 5 356 0
	li 0,0
	.loc 5 358 0
	addi 9,25,28
.LBE4312:
.LBE4311:
.LBE4315:
.LBE4327:
.LBB4328:
.LBB4322:
	.loc 6 193 0
	cmpwi 7,3,0
.LBE4322:
.LBE4328:
.LBB4329:
.LBB4316:
.LBB4314:
.LBB4313:
	.loc 5 357 0
	li 11,20
	.loc 5 356 0
	stw 0,16(25)
	.loc 5 357 0
	stw 11,24(25)
	.loc 5 358 0
	stw 9,20(25)
	.loc 5 359 0
	stb 0,28(25)
.LVL1398:
.LBE4313:
.LBE4314:
.LBE4316:
.LBE4329:
.LBB4330:
.LBB4323:
	.loc 6 193 0
	beq- 7,.L1121
	.loc 6 194 0
	lwz 30,-4(3)
	slwi 30,30,5
	add 30,3,30
	cmpw 7,3,30
	beq- 7,.L1122
.L1131:
	addi 30,30,-32
.LVL1399:
.LBB4319:
.LBB4320:
.LBB4321:
	.loc 5 501 0
	mr 3,30
	bl _ZN5idStr8FreeDataEv
.LBE4321:
.LBE4320:
.LBE4319:
	.loc 6 194 0
	lwz 3,12(25)
	cmpw 7,3,30
	bne+ 7,.L1131
.LVL1400:
.L1122:
	addi 3,3,-4
	bl _ZdaPv
.L1121:
	.loc 6 197 0
	li 0,0
.LBE4323:
.LBE4330:
.LBB4331:
.LBB4332:
	.loc 9 120 0
	addis 9,25,0xa
.LBE4332:
.LBE4331:
.LBB4334:
.LBB4324:
	.loc 6 197 0
	stw 0,12(25)
.LBE4324:
.LBE4334:
	.loc 4 1964 0
	lis 4,.LC29@ha
.LBB4335:
.LBB4325:
	.loc 6 198 0
	stw 0,0(25)
.LBE4325:
.LBE4335:
	.loc 4 1964 0
	mr 3,28
.LBB4336:
.LBB4326:
	.loc 6 199 0
	stw 0,4(25)
.LBE4326:
.LBE4336:
	.loc 4 1964 0
	la 4,.LC29@l(4)
.LBB4337:
.LBB4333:
	.loc 9 120 0
	stw 0,-16320(9)
.LBE4333:
.LBE4337:
.LBB4338:
.LBB4339:
	stw 0,60(31)
.LBE4339:
.LBE4338:
	.loc 4 1958 0
	stw 0,-16236(29)
	.loc 4 1959 0
	stw 0,-16232(29)
	.loc 4 1960 0
	stw 0,-16228(29)
	.loc 4 1961 0
	stw 0,-16224(29)
	.loc 4 1962 0
	stw 0,-16220(29)
	.loc 4 1964 0
	bl _ZN5idStraSEPKc
.LEHE86:
.LBE4341:
	.loc 4 1965 0
	lwz 0,44(1)
	lwz 25,12(1)
.LVL1401:
	mtlr 0
	lwz 26,16(1)
	lwz 27,20(1)
	lwz 28,24(1)
.LVL1402:
	lwz 29,28(1)
.LVL1403:
	lwz 30,32(1)
	lwz 31,36(1)
.LVL1404:
	addi 1,1,40
	.cfi_remember_state
.LCFI202:
	.cfi_def_cfa_offset 0
	.cfi_restore 31
	.cfi_restore 30
	.cfi_restore 29
	.cfi_restore 28
	.cfi_restore 27
	.cfi_restore 26
	.cfi_restore 25
	blr
.LVL1405:
.L1126:
.LCFI203:
	.cfi_restore_state
	mr 31,3
.LVL1406:
.LBB4342:
.LBB4340:
.LBB4303:
.LBB4297:
.LBB4287:
.LBB4285:
.LBB4278:
.LBB4279:
.LBB4280:
	.loc 6 181 0
	addi 3,30,44
	bl _ZN6idListIP9idTypeDefE5ClearEv
.LVL1407:
.LBE4280:
.LBE4279:
.LBE4278:
.LBB4281:
.LBB4282:
.LBB4283:
	.loc 5 501 0
	addi 3,30,4
	bl _ZN5idStr8FreeDataEv
	mr 3,31
.LEHB87:
	bl _Unwind_Resume
.LEHE87:
.LBE4283:
.LBE4282:
.LBE4281:
.LBE4285:
.LBE4287:
.LBE4297:
.LBE4303:
.LBE4340:
.LBE4342:
	.cfi_endproc
.LFE2921:
	.section	.gcc_except_table
.LLSDA2921:
	.byte	0xff
	.byte	0xff
	.byte	0x1
	.uleb128 .LLSDACSE2921-.LLSDACSB2921
.LLSDACSB2921:
	.uleb128 .LEHB84-.LFB2921
	.uleb128 .LEHE84-.LEHB84
	.uleb128 0
	.uleb128 0
	.uleb128 .LEHB85-.LFB2921
	.uleb128 .LEHE85-.LEHB85
	.uleb128 .L1126-.LFB2921
	.uleb128 0
	.uleb128 .LEHB86-.LFB2921
	.uleb128 .LEHE86-.LEHB86
	.uleb128 0
	.uleb128 0
	.uleb128 .LEHB87-.LFB2921
	.uleb128 .LEHE87-.LEHB87
	.uleb128 0
	.uleb128 0
.LLSDACSE2921:
	.section	".text"
	.size	_ZN9idProgram8FreeDataEv, .-_ZN9idProgram8FreeDataEv
	.section	.text._ZN6idListIPK10function_tE5ClearEv,"axG",@progbits,_ZN6idListIPK10function_tE5ClearEv,comdat
	.align 2
	.weak	_ZN6idListIPK10function_tE5ClearEv
	.type	_ZN6idListIPK10function_tE5ClearEv, @function
_ZN6idListIPK10function_tE5ClearEv:
.LFB3290:
	.loc 6 192 0
	.cfi_startproc
.LVL1408:
	mflr 0
	stwu 1,-16(1)
.LCFI204:
	.cfi_def_cfa_offset 16
	.cfi_register 65, 0
	stw 31,12(1)
	mr 31,3
	.cfi_offset 31, -4
	stw 0,20(1)
	.loc 6 193 0
	lwz 3,12(3)
.LVL1409:
	cmpwi 7,3,0
	beq- 7,.L1134
	.cfi_offset 65, 4
	.loc 6 194 0 discriminator 1
	bl _ZdaPv
.L1134:
	.loc 6 197 0
	li 0,0
	stw 0,12(31)
	.loc 6 198 0
	stw 0,0(31)
	.loc 6 199 0
	stw 0,4(31)
	.loc 6 200 0
	lwz 0,20(1)
	lwz 31,12(1)
.LVL1410:
	mtlr 0
	addi 1,1,16
.LCFI205:
	.cfi_def_cfa_offset 0
	.cfi_restore 31
	blr
	.cfi_endproc
.LFE3290:
	.size	_ZN6idListIPK10function_tE5ClearEv, .-_ZN6idListIPK10function_tE5ClearEv
	.section	".text"
	.align 2
	.globl _ZN9idTypeDefC2ERKS_
	.type	_ZN9idTypeDefC2ERKS_, @function
_ZN9idTypeDefC2ERKS_:
.LFB2821:
	.loc 4 167 0
	.cfi_startproc
	.cfi_personality 0,__gxx_personality_v0
	.cfi_lsda 0,.LLSDA2821
.LVL1411:
	mflr 0
	stwu 1,-16(1)
.LCFI206:
	.cfi_def_cfa_offset 16
	.cfi_register 65, 0
.LBB4374:
.LBB4375:
.LBB4376:
	.loc 6 159 0
	li 9,16
.LBE4376:
.LBE4375:
.LBB4380:
.LBB4381:
.LBB4382:
	.loc 5 358 0
	addi 11,3,16
	.loc 5 357 0
	li 10,20
.LBE4382:
.LBE4381:
.LBE4380:
.LBE4374:
	.loc 4 167 0
	stw 31,12(1)
	stw 0,20(1)
.LBB4410:
.LBB4387:
.LBB4385:
.LBB4383:
	.loc 5 356 0
	li 0,0
	.cfi_offset 65, 4
	.cfi_offset 31, -4
.LBE4383:
.LBE4385:
.LBE4387:
.LBE4410:
	.loc 4 167 0
	stw 30,8(1)
	.loc 4 167 0
	mr 31,3
.LVL1412:
.LBB4411:
.LBB4388:
.LBB4386:
.LBB4384:
	.loc 5 356 0
	stw 0,4(3)
	.loc 5 357 0
	stw 10,12(3)
	.loc 5 358 0
	stw 11,8(3)
	.loc 5 359 0
	stb 0,16(3)
.LVL1413:
.LBE4384:
.LBE4386:
.LBE4388:
.LBB4389:
.LBB4379:
	.loc 6 159 0
	stw 9,52(3)
.LVL1414:
.LBB4377:
.LBB4378:
	.loc 6 197 0
	stw 0,56(3)
	.loc 6 198 0
	stw 0,44(3)
	.loc 6 199 0
	stw 0,48(3)
.LVL1415:
.LBE4378:
.LBE4377:
.LBE4379:
.LBE4389:
.LBB4390:
.LBB4391:
	.loc 6 159 0
	stw 9,68(3)
.LVL1416:
.LBB4392:
.LBB4393:
	.loc 6 197 0
	stw 0,72(3)
	.loc 6 198 0
	stw 0,60(3)
	.loc 6 199 0
	stw 0,64(3)
.LVL1417:
.LBE4393:
.LBE4392:
.LBE4391:
.LBE4390:
.LBB4394:
.LBB4395:
	.loc 6 159 0
	stw 9,84(3)
.LVL1418:
.LBB4396:
.LBB4397:
	.loc 6 197 0
	stw 0,88(3)
	.loc 6 198 0
	stw 0,76(3)
	.loc 6 199 0
	stw 0,80(3)
.LEHB88:
.LBE4397:
.LBE4396:
.LBE4395:
.LBE4394:
	.loc 4 172 0
	.cfi_offset 30, -8
	bl _ZN9idTypeDefaSERKS_
.LEHE88:
.LVL1419:
.LBE4411:
	.loc 4 173 0
	lwz 0,20(1)
	lwz 30,8(1)
	mtlr 0
	lwz 31,12(1)
.LVL1420:
	addi 1,1,16
	.cfi_remember_state
.LCFI207:
	.cfi_def_cfa_offset 0
	.cfi_restore 31
	.cfi_restore 30
	blr
.LVL1421:
.L1141:
.LCFI208:
	.cfi_restore_state
	mr 30,3
.LVL1422:
.LBB4412:
.LBB4398:
.LBB4399:
.LBB4400:
	.loc 6 181 0
	addi 3,31,76
	bl _ZN6idListIPK10function_tE5ClearEv
.LVL1423:
.LBE4400:
.LBE4399:
.LBE4398:
.LBB4401:
.LBB4402:
.LBB4403:
	addi 3,31,60
	bl _ZN6idListI5idStrE5ClearEv
.LVL1424:
.LBE4403:
.LBE4402:
.LBE4401:
.LBB4404:
.LBB4405:
.LBB4406:
	addi 3,31,44
	bl _ZN6idListIP9idTypeDefE5ClearEv
.LVL1425:
.LBE4406:
.LBE4405:
.LBE4404:
.LBB4407:
.LBB4408:
.LBB4409:
	.loc 5 501 0
	addi 3,31,4
	bl _ZN5idStr8FreeDataEv
	mr 3,30
.LEHB89:
	bl _Unwind_Resume
.LEHE89:
.LBE4409:
.LBE4408:
.LBE4407:
.LBE4412:
	.cfi_endproc
.LFE2821:
	.section	.gcc_except_table
.LLSDA2821:
	.byte	0xff
	.byte	0xff
	.byte	0x1
	.uleb128 .LLSDACSE2821-.LLSDACSB2821
.LLSDACSB2821:
	.uleb128 .LEHB88-.LFB2821
	.uleb128 .LEHE88-.LEHB88
	.uleb128 .L1141-.LFB2821
	.uleb128 0
	.uleb128 .LEHB89-.LFB2821
	.uleb128 .LEHE89-.LEHB89
	.uleb128 0
	.uleb128 0
.LLSDACSE2821:
	.section	".text"
	.size	_ZN9idTypeDefC2ERKS_, .-_ZN9idTypeDefC2ERKS_
	.align 2
	.globl _ZN9idProgram9AllocTypeER9idTypeDef
	.type	_ZN9idProgram9AllocTypeER9idTypeDef, @function
_ZN9idProgram9AllocTypeER9idTypeDef:
.LFB2892:
	.loc 4 1182 0
	.cfi_startproc
	.cfi_personality 0,__gxx_personality_v0
	.cfi_lsda 0,.LLSDA2892
.LVL1426:
	stwu 1,-32(1)
.LCFI209:
	.cfi_def_cfa_offset 32
	mflr 0
	stw 30,24(1)
	mr 30,3
	.cfi_offset 30, -8
	.cfi_register 65, 0
.LBB4429:
	.loc 4 1184 0
	li 3,96
.LVL1427:
.LBE4429:
	.loc 4 1182 0
	stw 31,28(1)
.LBB4462:
	.loc 4 1184 0
	stw 4,8(1)
.LBE4462:
	.loc 4 1182 0
	stw 0,36(1)
	stw 28,16(1)
	stw 29,20(1)
.LEHB90:
.LBB4463:
	.loc 4 1184 0
	.cfi_offset 29, -12
	.cfi_offset 28, -16
	.cfi_offset 65, 4
	.cfi_offset 31, -4
	bl _ZN9idTypeDefnwEj
.LEHE90:
.LVL1428:
	lwz 4,8(1)
	mr 31,3
.LEHB91:
	bl _ZN9idTypeDefC1ERKS_
.LEHE91:
.LVL1429:
	.loc 4 1186 0 discriminator 1
	addis 30,30,0x23
.LVL1430:
.LBB4430:
.LBB4431:
	.loc 6 655 0 discriminator 1
	lwz 29,-16304(30)
.LBE4431:
.LBE4430:
	.loc 4 1186 0 discriminator 1
	addi 28,30,-16316
.LVL1431:
.LBB4459:
.LBB4456:
	.loc 6 655 0 discriminator 1
	cmpwi 7,29,0
	beq- 7,.L1144
	.loc 6 655 0 is_stmt 0
	lwz 0,-16316(30)
	lwz 3,-16312(30)
.L1145:
.LBB4432:
	.loc 6 659 0 is_stmt 1
	cmpw 7,0,3
	beq- 7,.L1163
.L1166:
.LBB4433:
.LBB4434:
.LBB4435:
	.loc 6 399 0
	slwi 0,0,2
	add 29,29,0
.L1152:
.LBE4435:
.LBE4434:
.LBE4433:
.LBE4432:
	.loc 6 669 0
	stw 31,0(29)
.LBE4456:
.LBE4459:
.LBE4463:
	.loc 4 1189 0
	mr 3,31
.LBB4464:
.LBB4460:
.LBB4457:
	.loc 6 670 0
	lwz 9,-16316(30)
	addi 0,9,1
	stw 0,-16316(30)
.LBE4457:
.LBE4460:
.LBE4464:
	.loc 4 1189 0
	lwz 0,36(1)
	lwz 28,16(1)
.LVL1432:
	mtlr 0
	lwz 29,20(1)
	lwz 30,24(1)
.LVL1433:
	lwz 31,28(1)
.LVL1434:
	addi 1,1,32
	.cfi_remember_state
.LCFI210:
	.cfi_def_cfa_offset 0
	.cfi_restore 31
	.cfi_restore 30
	.cfi_restore 29
	.cfi_restore 28
	blr
.LVL1435:
.L1163:
.LCFI211:
	.cfi_restore_state
.LBB4465:
.LBB4461:
.LBB4458:
.LBB4448:
	.loc 6 659 0
	mr 10,0
.L1147:
.LBB4446:
	.loc 6 662 0
	lwz 9,-16308(30)
	cmpwi 7,9,0
	beq- 7,.L1167
.L1153:
	.loc 6 665 0
	add 11,10,9
.LVL1436:
	.loc 6 666 0
	divw 11,11,9
.LVL1437:
.LBB4442:
.LBB4438:
	.loc 6 375 0
	mullw. 9,11,9
.LVL1438:
	ble- 0,.L1168
	.loc 6 380 0
	cmpw 7,9,10
	beq- 7,.L1166
.LVL1439:
	.loc 6 387 0
	cmpw 7,9,0
	.loc 6 386 0
	stw 9,-16312(30)
	.loc 6 387 0
	blt- 7,.L1169
.L1157:
	.loc 6 392 0
	slwi 3,9,2
.LEHB92:
	bl _Znaj
.LVL1440:
	.loc 6 393 0
	lwz 0,-16316(30)
	.loc 6 392 0
	stw 3,-16304(30)
.LVL1441:
	.loc 6 393 0
	cmpwi 7,0,0
	ble- 7,.L1158
	.loc 4 1182 0
	addi 11,29,-4
.LBE4438:
.LBE4442:
	.loc 6 393 0
	li 9,0
	b .L1159
.LVL1442:
.L1170:
.LBB4443:
.LBB4439:
	lwz 3,-16304(30)
.LVL1443:
.L1159:
	.loc 6 394 0
	lwzu 10,4(11)
	slwi 0,9,2
	.loc 6 393 0
	addi 9,9,1
.LVL1444:
	.loc 6 394 0
	stwx 10,3,0
	.loc 6 393 0
	lwz 0,0(28)
	cmpw 7,9,0
	blt+ 7,.L1170
.LVL1445:
.L1158:
	.loc 6 398 0
	cmpwi 7,29,0
	beq- 7,.L1171
	.loc 6 399 0
	mr 3,29
	bl _ZdaPv
	lwz 0,-16316(30)
	lwz 29,-16304(30)
.LVL1446:
	b .L1166
.LVL1447:
.L1167:
.LBE4439:
.LBE4443:
	.loc 6 663 0
	li 9,16
	stw 9,-16308(30)
	b .L1153
.LVL1448:
.L1169:
.LBB4444:
.LBB4440:
	.loc 6 388 0
	stw 9,-16316(30)
	b .L1157
.LVL1449:
.L1144:
.LBE4440:
.LBE4444:
.LBE4446:
.LBE4448:
	.loc 6 656 0
	lwz 3,-16308(30)
.LVL1450:
.LBB4449:
.LBB4450:
	.loc 6 375 0
	cmpwi 7,3,0
	ble- 7,.L1172
	.loc 6 380 0
	lwz 0,-16312(30)
	cmpw 7,3,0
	lwz 0,-16316(30)
	beq- 7,.L1145
.LVL1451:
	.loc 6 387 0
	cmpw 7,3,0
	.loc 6 386 0
	stw 3,-16312(30)
	.loc 6 387 0
	bge- 7,.L1149
	.loc 6 388 0
	stw 3,-16316(30)
.L1149:
	.loc 6 392 0
	slwi 3,3,2
	bl _Znaj
.LVL1452:
	.loc 6 393 0
	lwz 0,-16316(30)
	.loc 6 392 0
	mr 29,3
	stw 3,-16304(30)
.LVL1453:
	.loc 6 393 0
	cmpwi 7,0,0
	li 9,0
	li 11,0
	bgt+ 7,.L1165
	b .L1175
.LVL1454:
.L1174:
	lwz 29,-16304(30)
.LVL1455:
.L1165:
	.loc 6 394 0
	lwz 0,0(9)
	.loc 6 393 0
	addi 11,11,1
.LVL1456:
	.loc 6 394 0
	stwx 0,29,9
	.loc 6 393 0
	addi 9,9,4
	lwz 0,0(28)
	cmpw 7,11,0
	blt+ 7,.L1174
	lwz 3,-16312(30)
	lwz 29,-16304(30)
	b .L1145
.LVL1457:
.L1168:
.LBE4450:
.LBE4449:
.LBB4454:
.LBB4447:
.LBB4445:
.LBB4441:
.LBB4436:
.LBB4437:
	.loc 6 193 0
	cmpwi 7,29,0
	beq- 7,.L1155
	.loc 6 194 0
	mr 3,29
	bl _ZdaPv
.LVL1458:
.L1155:
	.loc 6 197 0
	li 0,0
	.loc 6 199 0
	li 29,0
	.loc 6 197 0
	stw 0,-16304(30)
	.loc 6 198 0
	stw 0,-16316(30)
	.loc 6 199 0
	stw 0,-16312(30)
	b .L1152
.LVL1459:
.L1171:
.LBE4437:
.LBE4436:
	.loc 6 398 0
	lwz 0,-16316(30)
	lwz 29,-16304(30)
.LVL1460:
	slwi 0,0,2
	add 29,29,0
	b .L1152
.LVL1461:
.L1172:
.LBE4441:
.LBE4445:
.LBE4447:
.LBE4454:
.LBB4455:
.LBB4453:
.LBB4451:
.LBB4452:
	.loc 6 198 0
	stw 29,-16316(30)
	.loc 6 199 0
	li 10,0
	stw 29,-16312(30)
	li 0,0
	b .L1147
.LVL1462:
.L1175:
.LBE4452:
.LBE4451:
	.loc 6 393 0
	lwz 3,-16312(30)
	b .L1145
.LVL1463:
.L1164:
	mr 30,3
.LVL1464:
.LBE4453:
.LBE4455:
.LBE4458:
.LBE4461:
	.loc 4 1184 0
	mr 3,31
	bl _ZN9idTypeDefdlEPv
	mr 3,30
	bl _Unwind_Resume
.LEHE92:
.LBE4465:
	.cfi_endproc
.LFE2892:
	.section	.gcc_except_table
.LLSDA2892:
	.byte	0xff
	.byte	0xff
	.byte	0x1
	.uleb128 .LLSDACSE2892-.LLSDACSB2892
.LLSDACSB2892:
	.uleb128 .LEHB90-.LFB2892
	.uleb128 .LEHE90-.LEHB90
	.uleb128 0
	.uleb128 0
	.uleb128 .LEHB91-.LFB2892
	.uleb128 .LEHE91-.LEHB91
	.uleb128 .L1164-.LFB2892
	.uleb128 0
	.uleb128 .LEHB92-.LFB2892
	.uleb128 .LEHE92-.LEHB92
	.uleb128 0
	.uleb128 0
.LLSDACSE2892:
	.section	".text"
	.size	_ZN9idProgram9AllocTypeER9idTypeDef, .-_ZN9idProgram9AllocTypeER9idTypeDef
	.align 2
	.globl _ZN9idProgram7GetTypeER9idTypeDefb
	.type	_ZN9idProgram7GetTypeER9idTypeDefb, @function
_ZN9idProgram7GetTypeER9idTypeDefb:
.LFB2894:
	.loc 4 1213 0
	.cfi_startproc
.LVL1465:
	mflr 0
	stwu 1,-40(1)
.LCFI212:
	.cfi_def_cfa_offset 40
	.cfi_register 65, 0
	stw 25,12(1)
	mr 25,5
	.cfi_offset 25, -28
	stw 28,24(1)
	mr 28,3
	.cfi_offset 28, -16
	stw 29,28(1)
.LBB4466:
	.loc 4 2214 0
	addis 29,3,0x23
	.cfi_offset 29, -12
.LBE4466:
	.loc 4 1213 0
	stw 30,32(1)
	mr 30,4
	.cfi_offset 30, -8
	stw 0,44(1)
	stw 26,16(1)
	stw 27,20(1)
	stw 31,36(1)
.LBB4467:
	.loc 4 1217 0
	lwz 31,-16316(29)
	.cfi_offset 31, -4
	.cfi_offset 27, -20
	.cfi_offset 26, -24
	.cfi_offset 65, 4
.LVL1466:
	addic. 31,31,-1
	blt- 0,.L1177
	slwi 27,31,2
	b .L1180
.LVL1467:
.L1178:
	cmpwi 7,31,0
	addi 27,27,-4
	addi 31,31,-1
.LVL1468:
	beq- 7,.L1177
.LVL1469:
.L1180:
	.loc 4 1218 0
	lwz 9,-16304(29)
	mr 4,30
	lwzx 26,9,27
	mr 3,26
	bl _ZNK9idTypeDef11MatchesTypeERKS_
	cmpwi 7,3,0
	beq+ 7,.L1178
.LVL1470:
	.loc 4 1218 0 is_stmt 0 discriminator 1
	lwz 3,8(26)
	lwz 4,8(30)
	bl _ZN5idStr3CmpEPKcS1_
	cmpwi 7,3,0
	bne- 7,.L1178
.LBE4467:
	.loc 4 1229 0 is_stmt 1
	lwz 0,44(1)
.LBB4468:
	.loc 4 1219 0
	lwz 9,-16304(29)
.LBE4468:
	.loc 4 1229 0
	mtlr 0
	lwz 25,12(1)
.LBB4469:
	.loc 4 1219 0
	lwzx 3,9,27
.LBE4469:
	.loc 4 1229 0
	lwz 26,16(1)
.LVL1471:
	lwz 27,20(1)
	lwz 28,24(1)
.LVL1472:
	lwz 29,28(1)
.LVL1473:
	lwz 30,32(1)
.LVL1474:
	lwz 31,36(1)
.LVL1475:
	addi 1,1,40
	.cfi_remember_state
.LCFI213:
	.cfi_def_cfa_offset 0
	.cfi_restore 31
	.cfi_restore 30
	.cfi_restore 29
	.cfi_restore 28
	.cfi_restore 27
	.cfi_restore 26
	.cfi_restore 25
	blr
.LVL1476:
.L1177:
.LCFI214:
	.cfi_restore_state
.LBB4470:
	.loc 4 1223 0
	cmpwi 7,25,0
	beq- 7,.L1181
.LBE4470:
	.loc 4 1229 0
	lwz 0,44(1)
.LBB4471:
	.loc 4 1228 0
	mr 3,28
.LBE4471:
	.loc 4 1229 0
	lwz 25,12(1)
.LBB4472:
	.loc 4 1228 0
	mr 4,30
.LBE4472:
	.loc 4 1229 0
	lwz 26,16(1)
	mtlr 0
	lwz 27,20(1)
	lwz 28,24(1)
.LVL1477:
	lwz 29,28(1)
	lwz 30,32(1)
.LVL1478:
	lwz 31,36(1)
.LVL1479:
	addi 1,1,40
	.cfi_remember_state
.LCFI215:
	.cfi_def_cfa_offset 0
	.cfi_restore 31
	.cfi_restore 30
	.cfi_restore 29
	.cfi_restore 28
	.cfi_restore 27
	.cfi_restore 26
	.cfi_restore 25
.LBB4473:
	.loc 4 1228 0
	b _ZN9idProgram9AllocTypeER9idTypeDef
.LVL1480:
.L1181:
.LCFI216:
	.cfi_restore_state
.LBE4473:
	.loc 4 1229 0
	lwz 0,44(1)
.LBB4474:
	.loc 4 1224 0
	li 3,0
.LBE4474:
	.loc 4 1229 0
	lwz 25,12(1)
	mtlr 0
	lwz 26,16(1)
	lwz 27,20(1)
	lwz 28,24(1)
.LVL1481:
	lwz 29,28(1)
.LVL1482:
	lwz 30,32(1)
.LVL1483:
	lwz 31,36(1)
.LVL1484:
	addi 1,1,40
	.cfi_restore 25
	.cfi_restore 26
	.cfi_restore 27
	.cfi_restore 28
	.cfi_restore 29
	.cfi_restore 30
	.cfi_restore 31
.LCFI217:
	.cfi_def_cfa_offset 0
	blr
	.cfi_endproc
.LFE2894:
	.size	_ZN9idProgram7GetTypeER9idTypeDefb, .-_ZN9idProgram7GetTypeER9idTypeDefb
	.align 2
	.globl _ZN9idTypeDefC2E7etype_tP8idVarDefPKciPS_
	.type	_ZN9idTypeDefC2E7etype_tP8idVarDefPKciPS_, @function
_ZN9idTypeDefC2E7etype_tP8idVarDefPKciPS_:
.LFB2818:
	.loc 4 146 0
	.cfi_startproc
	.cfi_personality 0,__gxx_personality_v0
	.cfi_lsda 0,.LLSDA2818
.LVL1485:
	mflr 0
	stwu 1,-56(1)
.LCFI218:
	.cfi_def_cfa_offset 56
	.cfi_register 65, 0
.LBB4541:
.LBB4542:
.LBB4543:
	.loc 6 159 0
	li 9,16
.LBE4543:
.LBE4542:
.LBB4547:
.LBB4548:
.LBB4549:
	.loc 5 358 0
	addi 11,3,16
	.loc 5 357 0
	li 10,20
.LBE4549:
.LBE4548:
.LBE4547:
.LBE4541:
	.loc 4 146 0
	stw 21,12(1)
	stw 0,60(1)
.LBB4652:
.LBB4556:
.LBB4553:
.LBB4550:
	.loc 5 356 0
	li 0,0
	.cfi_offset 65, 4
	.cfi_offset 21, -44
.LBE4550:
.LBE4553:
.LBE4556:
.LBE4652:
	.loc 4 146 0
	stw 23,20(1)
.LBB4653:
.LBB4557:
.LBB4554:
.LBB4551:
	.loc 5 358 0
	addi 21,3,4
.LBE4551:
.LBE4554:
.LBE4557:
.LBE4653:
	.loc 4 146 0
	stw 24,24(1)
	stw 25,28(1)
	mr 25,8
	.cfi_offset 25, -28
	.cfi_offset 24, -32
	.cfi_offset 23, -36
	stw 26,32(1)
	stw 27,36(1)
	mr 27,7
	.cfi_offset 27, -20
	.cfi_offset 26, -24
	stw 28,40(1)
	mr 28,4
	.cfi_offset 28, -16
	stw 29,44(1)
.LBB4654:
	.loc 4 151 0
	mr 4,6
.LVL1486:
.LBE4654:
	.loc 4 146 0
	stw 31,52(1)
	mr 31,3
	.cfi_offset 31, -4
	.cfi_offset 29, -12
.LVL1487:
	stw 22,16(1)
	mr 29,5
	stw 30,48(1)
.LBB4655:
	.loc 4 146 0
	addi 23,31,60
.LBB4558:
.LBB4555:
.LBB4552:
	.loc 5 356 0
	stw 0,4(3)
	addi 24,31,44
	.loc 5 357 0
	stw 10,12(3)
	addi 26,31,76
	.loc 5 358 0
	stw 11,8(3)
