	.file	"Script_Thread.cpp"
	.section	".text"
.Ltext0:
	.section	.text._ZN14idFixedWinding5ClearEv,"axG",@progbits,_ZN14idFixedWinding5ClearEv,comdat
	.align 2
	.weak	_ZN14idFixedWinding5ClearEv
	.type	_ZN14idFixedWinding5ClearEv, @function
_ZN14idFixedWinding5ClearEv:
.LFB1502:
	.file 1 "d:/Data/Nintendo/DoomGX/src/game/script/../../idlib/../idlib/geometry/Winding.h"
	.loc 1 398 0
	.cfi_startproc
.LVL0:
	.loc 1 399 0
	li 0,0
	.loc 1 400 0
	.loc 1 399 0
	stw 0,4(3)
	.loc 1 400 0
	blr
	.cfi_endproc
.LFE1502:
	.size	_ZN14idFixedWinding5ClearEv, .-_ZN14idFixedWinding5ClearEv
	.section	".text"
	.align 2
	.globl _ZNK8idThread7GetTypeEv
	.type	_ZNK8idThread7GetTypeEv, @function
_ZNK8idThread7GetTypeEv:
.LFB2811:
	.file 2 "d:/Data/Nintendo/DoomGX/src/game/script/Script_Thread.cpp"
	.loc 2 114 0
	.cfi_startproc
.LVL1:
	.loc 2 114 0
	lis 3,.LANCHOR0@ha
.LVL2:
	la 3,.LANCHOR0@l(3)
	blr
	.cfi_endproc
.LFE2811:
	.size	_ZNK8idThread7GetTypeEv, .-_ZNK8idThread7GetTypeEv
	.align 2
	.globl _ZN8idThread11Event_PauseEv
	.type	_ZN8idThread11Event_PauseEv, @function
_ZN8idThread11Event_PauseEv:
.LFB2881:
	.loc 2 957 0
	.cfi_startproc
.LVL3:
.LBB1221:
.LBB1222:
.LBB1223:
.LBB1224:
	.loc 2 749 0
	li 0,0
	.loc 2 748 0
	li 9,4095
	.loc 2 749 0
	stw 0,4(3)
.LBE1224:
.LBE1223:
.LBE1222:
.LBE1221:
	.loc 2 959 0
.LBB1230:
.LBB1229:
.LBB1227:
.LBB1225:
	.loc 2 750 0
	stw 0,12(3)
.LBE1225:
.LBE1227:
	.loc 2 897 0
	li 0,1
.LBB1228:
.LBB1226:
	.loc 2 748 0
	stw 9,8(3)
.LBE1226:
.LBE1228:
	.loc 2 897 0
	stb 0,6972(3)
.LBE1229:
.LBE1230:
	.loc 2 959 0
	blr
	.cfi_endproc
.LFE2881:
	.size	_ZN8idThread11Event_PauseEv, .-_ZN8idThread11Event_PauseEv
	.align 2
	.globl _ZN8idThread10Event_WaitEf
	.type	_ZN8idThread10Event_WaitEf, @function
_ZN8idThread10Event_WaitEf:
.LFB2882:
	.loc 2 966 0
	.cfi_startproc
.LVL4:
.LBB1231:
.LBB1232:
	.loc 2 916 0
	lis 9,_ZN6idMath8M_SEC2MSE@ha
.LBE1232:
.LBE1231:
	.loc 2 966 0
	stwu 1,-16(1)
.LCFI0:
	.cfi_def_cfa_offset 16
.LBB1265:
.LBB1263:
	.loc 2 916 0
	lfs 0,_ZN6idMath8M_SEC2MSE@l(9)
.LVL5:
.LBB1233:
.LBB1234:
.LBB1235:
.LBB1236:
.LBB1237:
.LBB1238:
	.loc 2 749 0
	li 0,0
.LBE1238:
.LBE1237:
.LBE1236:
.LBE1235:
.LBE1234:
.LBE1233:
.LBB1254:
.LBB1255:
	.file 3 "d:/Data/Nintendo/DoomGX/src/game/script/../../idlib/../idlib/math/Math.h"
	.loc 3 825 0
	addi 9,1,8
.LBE1255:
.LBE1254:
.LBB1258:
.LBB1251:
.LBB1248:
.LBB1245:
.LBB1242:
.LBB1239:
	.loc 2 750 0
	stw 0,12(3)
.LBE1239:
.LBE1242:
.LBE1245:
.LBE1248:
.LBE1251:
.LBE1258:
	.loc 2 916 0
	fmuls 0,1,0
.LBB1259:
.LBB1256:
	.loc 3 825 0
	fctiwz 0,0
	stfiwx 0,0,9
.LBE1256:
.LBE1259:
.LBB1260:
.LBB1252:
.LBB1249:
.LBB1246:
.LBB1243:
.LBB1240:
	.loc 2 748 0
	li 9,4095
	.loc 2 749 0
	stw 0,4(3)
.LBE1240:
.LBE1243:
	.loc 2 897 0
	li 0,1
.LBB1244:
.LBB1241:
	.loc 2 748 0
	stw 9,8(3)
.LBE1241:
.LBE1244:
.LBE1246:
.LBE1249:
	.loc 2 907 0
	lis 9,gameLocal+2426836@ha
.LBB1250:
.LBB1247:
	.loc 2 897 0
	stb 0,6972(3)
.LBE1247:
.LBE1250:
	.loc 2 907 0
	lwz 0,gameLocal+2426836@l(9)
.LBE1252:
.LBE1260:
.LBB1261:
.LBB1257:
	.loc 3 825 0
	lwz 9,8(1)
.LVL6:
.LBE1257:
.LBE1261:
.LBE1263:
.LBE1265:
	.loc 2 968 0
	addi 1,1,16
.LCFI1:
	.cfi_def_cfa_offset 0
.LBB1266:
.LBB1264:
.LBB1262:
.LBB1253:
	.loc 2 907 0
	add 0,9,0
	stw 0,12(3)
.LBE1253:
.LBE1262:
.LBE1264:
.LBE1266:
	.loc 2 968 0
	blr
	.cfi_endproc
.LFE2882:
	.size	_ZN8idThread10Event_WaitEf, .-_ZN8idThread10Event_WaitEf
	.align 2
	.globl _ZN8idThread15Event_WaitFrameEv
	.type	_ZN8idThread15Event_WaitFrameEv, @function
_ZN8idThread15Event_WaitFrameEv:
.LFB2883:
	.loc 2 975 0
	.cfi_startproc
.LVL7:
.LBB1267:
.LBB1268:
	.loc 2 929 0
	lbz 9,7064(3)
.LBB1269:
.LBB1270:
.LBB1271:
.LBB1272:
	.loc 2 749 0
	li 0,0
	stw 0,4(3)
.LBE1272:
.LBE1271:
.LBE1270:
.LBE1269:
	.loc 2 929 0
	cmpwi 7,9,0
.LBB1278:
.LBB1277:
.LBB1275:
.LBB1273:
	.loc 2 750 0
	stw 0,12(3)
	.loc 2 748 0
	li 9,4095
.LBE1273:
.LBE1275:
	.loc 2 897 0
	li 0,1
.LBB1276:
.LBB1274:
	.loc 2 748 0
	stw 9,8(3)
.LBE1274:
.LBE1276:
	.loc 2 897 0
	stb 0,6972(3)
.LBE1277:
.LBE1278:
	.loc 2 929 0
	bnelr- 7
.LVL8:
	.loc 2 930 0
	lis 9,gameLocal+2426836@ha
	lwz 9,gameLocal+2426836@l(9)
	addi 0,9,16
	stw 0,12(3)
	blr
.LBE1268:
.LBE1267:
	.cfi_endproc
.LFE2883:
	.size	_ZN8idThread15Event_WaitFrameEv, .-_ZN8idThread15Event_WaitFrameEv
	.align 2
	.globl _ZN8idThread12Event_AssertEf
	.type	_ZN8idThread12Event_AssertEf, @function
_ZN8idThread12Event_AssertEf:
.LFB2889:
	.loc 2 1046 0
	.cfi_startproc
.LVL9:
	.loc 2 1048 0
	blr
	.cfi_endproc
.LFE2889:
	.size	_ZN8idThread12Event_AssertEf, .-_ZN8idThread12Event_AssertEf
	.align 2
	.globl _ZNK8idThread13Event_SetCvarEPKcS1_
	.type	_ZNK8idThread13Event_SetCvarEPKcS1_, @function
_ZNK8idThread13Event_SetCvarEPKcS1_:
.LFB2891:
	.loc 2 1068 0
	.cfi_startproc
.LVL10:
	mflr 0
	stwu 1,-8(1)
.LCFI2:
	.cfi_def_cfa_offset 8
	.cfi_register 65, 0
	.loc 2 1069 0
	lis 9,cvarSystem@ha
	li 6,0
	lwz 3,cvarSystem@l(9)
.LVL11:
	.loc 2 1068 0
	stw 0,12(1)
	.loc 2 1069 0
	lwz 9,0(3)
	lwz 0,28(9)
	.cfi_offset 65, 4
	mtctr 0
	bctrl
.LVL12:
	.loc 2 1070 0
	lwz 0,12(1)
	addi 1,1,8
.LCFI3:
	.cfi_def_cfa_offset 0
	mtlr 0
	blr
	.cfi_endproc
.LFE2891:
	.size	_ZNK8idThread13Event_SetCvarEPKcS1_, .-_ZNK8idThread13Event_SetCvarEPKcS1_
	.align 2
	.globl _ZNK8idThread12Event_RandomEf
	.type	_ZNK8idThread12Event_RandomEf, @function
_ZNK8idThread12Event_RandomEf:
.LFB2893:
	.loc 2 1086 0
	.cfi_startproc
.LVL13:
.LBB1279:
.LBB1280:
.LBB1281:
.LBB1282:
.LBB1283:
	.file 4 "d:/Data/Nintendo/DoomGX/src/game/script/../../idlib/../idlib/math/Random.h"
	.loc 4 71 0
	lis 11,gameLocal@ha
.LBE1283:
.LBE1282:
.LBE1281:
.LBE1280:
.LBE1279:
	.loc 2 1086 0
	stwu 1,-16(1)
.LCFI4:
	.cfi_def_cfa_offset 16
.LBB1303:
.LBB1291:
.LBB1288:
.LBB1286:
.LBB1284:
	.loc 4 71 0
	la 11,gameLocal@l(11)
	lis 10,0x1
	addis 9,11,0x1
	ori 10,10,3533
	lwz 8,-32064(9)
.LBE1284:
.LBE1286:
.LBE1288:
.LBE1291:
.LBB1292:
	.loc 2 849 0
	addis 11,11,0x23
.LBB1293:
.LBB1294:
	.file 5 "d:/Data/Nintendo/DoomGX/src/game/script/../script/Script_Program.h"
	.loc 5 576 0
	lwz 11,17260(11)
.LBE1294:
.LBE1293:
.LBE1292:
.LBB1299:
.LBB1289:
.LBB1287:
.LBB1285:
	.loc 4 71 0
	mullw 10,10,8
	addi 0,10,1
	stw 0,-32064(9)
.LVL14:
	.loc 4 72 0
	rlwinm 0,0,0,17,31
.LVL15:
.LBE1285:
.LBE1287:
	.loc 4 83 0
	xoris 0,0,0x8000
.LBE1289:
.LBE1299:
.LBB1300:
.LBB1297:
.LBB1295:
	.loc 5 576 0
	lwz 9,4(11)
.LVL16:
.LBE1295:
.LBE1297:
.LBE1300:
.LBB1301:
.LBB1290:
	.loc 4 83 0
	lis 11,.LC1@ha
	stw 0,12(1)
	lis 0,0x4330
	stw 0,8(1)
	lfs 0,.LC1@l(11)
	lis 11,.LC2@ha
	lfd 13,8(1)
	fsub 0,13,0
	lfs 13,.LC2@l(11)
	frsp 0,0
	fmuls 0,0,13
.LBE1290:
.LBE1301:
	.loc 2 1090 0
	fmuls 0,1,0
.LBB1302:
.LBB1298:
.LBB1296:
	.loc 5 576 0
	stfs 0,0(9)
.LBE1296:
.LBE1298:
.LBE1302:
.LBE1303:
	.loc 2 1091 0
	addi 1,1,16
.LCFI5:
	.cfi_def_cfa_offset 0
	blr
	.cfi_endproc
.LFE2893:
	.size	_ZNK8idThread12Event_RandomEf, .-_ZNK8idThread12Event_RandomEf
	.align 2
	.globl _ZN8idThread13Event_GetTimeEv
	.type	_ZN8idThread13Event_GetTimeEv, @function
_ZN8idThread13Event_GetTimeEv:
.LFB2894:
	.loc 2 1098 0
	.cfi_startproc
.LVL17:
.LBB1304:
	.loc 2 849 0
	lis 9,gameLocal@ha
.LBE1304:
	.loc 2 1098 0
	stwu 1,-16(1)
.LCFI6:
	.cfi_def_cfa_offset 16
.LBB1311:
	.loc 2 849 0
	la 9,gameLocal@l(9)
.LBE1311:
	.loc 2 1099 0
	addis 11,9,0x25
.LBB1312:
	.loc 2 849 0
	addis 9,9,0x23
.LBE1312:
	.loc 2 1099 0
	lwz 0,2040(11)
	lis 11,.LC1@ha
.LBB1313:
.LBB1305:
.LBB1306:
	.loc 5 576 0
	lwz 9,17260(9)
.LBE1306:
.LBE1305:
.LBE1313:
	.loc 2 1099 0
	xoris 0,0,0x8000
	lfs 0,.LC1@l(11)
.LBB1314:
.LBB1309:
.LBB1307:
	.loc 5 576 0
	lwz 9,4(9)
.LBE1307:
.LBE1309:
.LBE1314:
	.loc 2 1099 0
	lis 11,_ZN6idMath8M_MS2SECE@ha
	stw 0,12(1)
	lis 0,0x4330
	stw 0,8(1)
	lfd 13,8(1)
	fsub 0,13,0
	lfs 13,_ZN6idMath8M_MS2SECE@l(11)
	frsp 0,0
	fmuls 0,0,13
.LBB1315:
.LBB1310:
.LBB1308:
	.loc 5 576 0
	stfs 0,0(9)
.LBE1308:
.LBE1310:
.LBE1315:
	.loc 2 1100 0
	addi 1,1,16
.LCFI7:
	.cfi_def_cfa_offset 0
	blr
	.cfi_endproc
.LFE2894:
	.size	_ZN8idThread13Event_GetTimeEv, .-_ZN8idThread13Event_GetTimeEv
	.align 2
	.globl _ZN8idThread19Event_GetSquareRootEf
	.type	_ZN8idThread19Event_GetSquareRootEf, @function
_ZN8idThread19Event_GetSquareRootEf:
.LFB2913:
	.loc 2 1313 0
	.cfi_startproc
.LVL18:
	stwu 1,-16(1)
.LCFI8:
	.cfi_def_cfa_offset 16
.LBB1324:
.LBB1325:
.LBB1326:
.LBB1327:
	.loc 3 276 0
	lis 9,_ZN6idMath5iSqrtE@ha
	la 9,_ZN6idMath5iSqrtE@l(9)
.LBE1327:
.LBE1326:
.LBE1325:
.LBE1324:
	.loc 2 1313 0
	stfs 1,8(1)
.LVL19:
.LBB1337:
.LBB1334:
.LBB1331:
.LBB1328:
	.loc 3 270 0
	lwz 0,8(1)
.LVL20:
	.loc 3 276 0
	rlwinm 11,0,9,24,31
	rlwinm 0,0,19,21,29
	lwzx 9,9,0
	subfic 0,11,380
	rlwinm 0,0,22,0,8
	.loc 3 275 0
	lis 11,.LC3@ha
	.loc 3 276 0
	or 0,0,9
	.loc 3 275 0
	lfs 11,.LC3@l(11)
	.loc 3 277 0
	stw 0,12(1)
	.loc 3 278 0
	lis 9,.LC5@ha
	.loc 3 275 0
	fmuls 11,1,11
.LVL21:
	.loc 3 278 0
	lfs 12,.LC5@l(9)
	.loc 3 277 0
	lfs 0,12(1)
.LBE1328:
.LBE1331:
.LBE1334:
.LBE1337:
.LBB1338:
	.loc 2 849 0
	lis 9,gameLocal+2311020@ha
.LBB1339:
.LBB1340:
	.loc 5 576 0
	lwz 9,gameLocal+2311020@l(9)
.LBE1340:
.LBE1339:
.LBE1338:
.LBB1345:
.LBB1335:
.LBB1332:
.LBB1329:
	.loc 3 277 0
	fmr 13,0
.LVL22:
	.loc 2 1313 0
	fneg 11,11
.LVL23:
.LBE1329:
.LBE1332:
.LBE1335:
.LBE1345:
.LBB1346:
.LBB1343:
.LBB1341:
	.loc 5 576 0
	lwz 9,4(9)
.LBE1341:
.LBE1343:
.LBE1346:
.LBB1347:
.LBB1336:
.LBB1333:
.LBB1330:
	.loc 3 278 0
	fmul 0,13,13
.LVL24:
	fmadd 0,11,0,12
	fmul 0,13,0
.LVL25:
	.loc 3 279 0
	fmul 13,0,0
	fmadd 12,11,13,12
.LVL26:
	fmul 0,0,12
.LVL27:
	.loc 3 280 0
	frsp 0,0
.LVL28:
.LBE1330:
.LBE1333:
	.loc 3 303 0
	fmuls 0,1,0
.LVL29:
.LBE1336:
.LBE1347:
.LBB1348:
.LBB1344:
.LBB1342:
	.loc 5 576 0
	stfs 0,0(9)
.LBE1342:
.LBE1344:
.LBE1348:
	.loc 2 1315 0
	addi 1,1,16
.LCFI9:
	.cfi_def_cfa_offset 0
	blr
	.cfi_endproc
.LFE2913:
	.size	_ZN8idThread19Event_GetSquareRootEf, .-_ZN8idThread19Event_GetSquareRootEf
	.align 2
	.globl _ZN8idThread19Event_VecDotProductER6idVec3S1_
	.type	_ZN8idThread19Event_VecDotProductER6idVec3S1_, @function
_ZN8idThread19Event_VecDotProductER6idVec3S1_:
.LFB2916:
	.loc 2 1344 0
	.cfi_startproc
.LVL30:
.LBB1349:
.LBB1350:
	.file 6 "d:/Data/Nintendo/DoomGX/src/game/script/../../idlib/../idlib/math/Vector.h"
	.loc 6 435 0
	lfs 0,4(5)
.LBE1350:
.LBE1349:
.LBB1353:
	.loc 2 849 0
	lis 9,gameLocal+2311020@ha
.LBE1353:
.LBB1358:
.LBB1351:
	.loc 6 435 0
	lfs 11,4(4)
.LBE1351:
.LBE1358:
.LBB1359:
.LBB1354:
.LBB1355:
	lfs 13,0(4)
.LBE1355:
.LBE1354:
.LBE1359:
.LBB1360:
.LBB1352:
	fmuls 11,11,0
.LBE1352:
.LBE1360:
.LBB1361:
.LBB1357:
.LBB1356:
	lfs 0,0(5)
	lfs 12,8(4)
	.loc 5 576 0
	lwz 9,gameLocal+2311020@l(9)
	.loc 6 435 0
	fmadds 13,13,0,11
	lfs 0,8(5)
	.loc 5 576 0
	lwz 9,4(9)
	.loc 6 435 0
	fmadds 0,12,0,13
	.loc 5 576 0
	stfs 0,0(9)
.LBE1356:
.LBE1357:
.LBE1361:
	.loc 2 1346 0
	blr
	.cfi_endproc
.LFE2916:
	.size	_ZN8idThread19Event_VecDotProductER6idVec3S1_, .-_ZN8idThread19Event_VecDotProductER6idVec3S1_
	.align 2
	.globl _ZN8idThread21Event_VecCrossProductER6idVec3S1_
	.type	_ZN8idThread21Event_VecCrossProductER6idVec3S1_, @function
_ZN8idThread21Event_VecCrossProductER6idVec3S1_:
.LFB2917:
	.loc 2 1353 0
	.cfi_startproc
.LVL31:
.LBB1362:
.LBB1363:
	.loc 6 620 0
	lfs 9,4(4)
.LBE1363:
.LBE1362:
.LBB1366:
	.loc 2 869 0
	lis 9,gameLocal+2311020@ha
.LBE1366:
.LBB1375:
.LBB1364:
	.loc 6 620 0
	lfs 10,8(5)
	lfs 11,8(4)
	lfs 13,4(5)
	lfs 12,0(5)
	lfs 0,0(4)
.LVL32:
	fmuls 6,11,13
	fmuls 8,9,12
.LBE1364:
.LBE1375:
.LBB1376:
.LBB1367:
.LBB1368:
	.loc 5 594 0
	lwz 9,gameLocal+2311020@l(9)
.LBE1368:
.LBE1367:
.LBE1376:
.LBB1377:
.LBB1365:
	.loc 6 620 0
	fmuls 7,10,0
.LBE1365:
.LBE1377:
.LBB1378:
.LBB1374:
.LBB1373:
.LBB1369:
.LBB1370:
	fmsubs 10,9,10,6
.LBE1370:
.LBE1369:
	.loc 5 594 0
	lwz 9,4(9)
.LVL33:
.LBB1372:
.LBB1371:
	.loc 6 620 0
	fmsubs 0,13,0,8
	fmsubs 12,11,12,7
	.loc 6 424 0
	stfs 10,0(9)
	.loc 6 426 0
	stfs 0,8(9)
	.loc 6 425 0
	stfs 12,4(9)
.LBE1371:
.LBE1372:
.LBE1373:
.LBE1374:
.LBE1378:
	.loc 2 1355 0
	blr
	.cfi_endproc
.LFE2917:
	.size	_ZN8idThread21Event_VecCrossProductER6idVec3S1_, .-_ZN8idThread21Event_VecCrossProductER6idVec3S1_
	.align 2
	.globl _ZN8idThread22Event_GetTraceFractionEv
	.type	_ZN8idThread22Event_GetTraceFractionEv, @function
_ZN8idThread22Event_GetTraceFractionEv:
.LFB2925:
	.loc 2 1467 0
	.cfi_startproc
.LVL34:
.LBB1379:
	.loc 2 849 0
	lis 9,gameLocal+2311020@ha
.LBE1379:
	.loc 2 1468 0
	lis 11,.LANCHOR0+80@ha
.LBB1384:
.LBB1380:
.LBB1381:
	.loc 5 576 0
	lwz 9,gameLocal+2311020@l(9)
.LBE1381:
.LBE1380:
.LBE1384:
	.loc 2 1468 0
	lwz 0,.LANCHOR0+80@l(11)
.LVL35:
.LBB1385:
.LBB1383:
.LBB1382:
	.loc 5 576 0
	lwz 9,4(9)
	stw 0,0(9)
.LBE1382:
.LBE1383:
.LBE1385:
	.loc 2 1469 0
	blr
	.cfi_endproc
.LFE2925:
	.size	_ZN8idThread22Event_GetTraceFractionEv, .-_ZN8idThread22Event_GetTraceFractionEv
	.align 2
	.globl _ZN8idThread20Event_GetTraceEndPosEv
	.type	_ZN8idThread20Event_GetTraceEndPosEv, @function
_ZN8idThread20Event_GetTraceEndPosEv:
.LFB2926:
	.loc 2 1476 0
	.cfi_startproc
.LVL36:
.LBB1386:
	.loc 2 869 0
	lis 9,gameLocal+2311020@ha
.LBB1387:
.LBB1388:
.LBB1389:
.LBB1390:
	.loc 6 424 0
	lis 11,.LANCHOR0@ha
.LBE1390:
.LBE1389:
	.loc 5 594 0
	lwz 9,gameLocal+2311020@l(9)
.LBB1393:
.LBB1391:
	.loc 6 424 0
	la 11,.LANCHOR0@l(11)
	lwz 0,84(11)
.LBE1391:
.LBE1393:
	.loc 5 594 0
	lwz 9,4(9)
.LVL37:
.LBB1394:
.LBB1392:
	.loc 6 424 0
	stw 0,0(9)
	.loc 6 425 0
	lwz 0,88(11)
	stw 0,4(9)
	.loc 6 426 0
	lwz 0,92(11)
	stw 0,8(9)
.LBE1392:
.LBE1394:
.LBE1388:
.LBE1387:
.LBE1386:
	.loc 2 1478 0
	blr
	.cfi_endproc
.LFE2926:
	.size	_ZN8idThread20Event_GetTraceEndPosEv, .-_ZN8idThread20Event_GetTraceEndPosEv
	.align 2
	.globl _ZN8idThread16Event_StartMusicEPKc
	.type	_ZN8idThread16Event_StartMusicEPKc, @function
_ZN8idThread16Event_StartMusicEPKc:
.LFB2935:
	.loc 2 1608 0
	.cfi_startproc
.LVL38:
	mflr 0
	stwu 1,-8(1)
.LCFI10:
	.cfi_def_cfa_offset 8
	.cfi_register 65, 0
	.loc 2 1609 0
	lis 9,gameSoundWorld@ha
	li 5,-1
	lwz 3,gameSoundWorld@l(9)
.LVL39:
	.loc 2 1608 0
	stw 0,12(1)
	.loc 2 1609 0
	lwz 9,0(3)
	lwz 0,36(9)
	.cfi_offset 65, 4
	mtctr 0
	bctrl
.LVL40:
	.loc 2 1610 0
	lwz 0,12(1)
	addi 1,1,8
.LCFI11:
	.cfi_def_cfa_offset 0
	mtlr 0
	blr
	.cfi_endproc
.LFE2935:
	.size	_ZN8idThread16Event_StartMusicEPKc, .-_ZN8idThread16Event_StartMusicEPKc
	.align 2
	.globl _ZN8idThread14Event_IsClientEv
	.type	_ZN8idThread14Event_IsClientEv, @function
_ZN8idThread14Event_IsClientEv:
.LFB2945:
	.loc 2 1764 0
	.cfi_startproc
.LVL41:
.LBB1395:
	.loc 2 849 0
	lis 9,gameLocal@ha
.LBE1395:
	.loc 2 1764 0
	stwu 1,-16(1)
.LCFI12:
	.cfi_def_cfa_offset 16
.LBB1400:
	.loc 2 849 0
	la 9,gameLocal@l(9)
	addis 11,9,0x23
.LBE1400:
	.loc 2 1765 0
	addis 9,9,0x25
.LBB1401:
.LBB1396:
.LBB1397:
	.loc 5 576 0
	lwz 11,17260(11)
.LBE1397:
.LBE1396:
.LBE1401:
	.loc 2 1765 0
	lbz 0,2018(9)
.LBB1402:
.LBB1399:
.LBB1398:
	.loc 5 576 0
	lwz 9,4(11)
.LBE1398:
.LBE1399:
.LBE1402:
	.loc 2 1765 0
	lis 11,.LC7@ha
	stw 0,12(1)
	lis 0,0x4330
	stw 0,8(1)
	lfs 0,.LC7@l(11)
	lfd 13,8(1)
	fsub 0,13,0
	frsp 0,0
	stfs 0,0(9)
	.loc 2 1766 0
	addi 1,1,16
.LCFI13:
	.cfi_def_cfa_offset 0
	blr
	.cfi_endproc
.LFE2945:
	.size	_ZN8idThread14Event_IsClientEv, .-_ZN8idThread14Event_IsClientEv
	.align 2
	.globl _ZN8idThread19Event_IsMultiplayerEv
	.type	_ZN8idThread19Event_IsMultiplayerEv, @function
_ZN8idThread19Event_IsMultiplayerEv:
.LFB2946:
	.loc 2 1773 0
	.cfi_startproc
.LVL42:
.LBB1403:
	.loc 2 849 0
	lis 9,gameLocal@ha
.LBE1403:
	.loc 2 1773 0
	stwu 1,-16(1)
.LCFI14:
	.cfi_def_cfa_offset 16
.LBB1408:
	.loc 2 849 0
	la 9,gameLocal@l(9)
	addis 11,9,0x23
.LBE1408:
	.loc 2 1774 0
	addis 9,9,0x25
.LBB1409:
.LBB1404:
.LBB1405:
	.loc 5 576 0
	lwz 11,17260(11)
.LBE1405:
.LBE1404:
.LBE1409:
	.loc 2 1774 0
	lbz 0,2016(9)
.LBB1410:
.LBB1407:
.LBB1406:
	.loc 5 576 0
	lwz 9,4(11)
.LBE1406:
.LBE1407:
.LBE1410:
	.loc 2 1774 0
	lis 11,.LC7@ha
	stw 0,12(1)
	lis 0,0x4330
	stw 0,8(1)
	lfs 0,.LC7@l(11)
	lfd 13,8(1)
	fsub 0,13,0
	frsp 0,0
	stfs 0,0(9)
	.loc 2 1775 0
	addi 1,1,16
.LCFI15:
	.cfi_def_cfa_offset 0
	blr
	.cfi_endproc
.LFE2946:
	.size	_ZN8idThread19Event_IsMultiplayerEv, .-_ZN8idThread19Event_IsMultiplayerEv
	.align 2
	.globl _ZN8idThread18Event_GetFrameTimeEv
	.type	_ZN8idThread18Event_GetFrameTimeEv, @function
_ZN8idThread18Event_GetFrameTimeEv:
.LFB2947:
	.loc 2 1782 0
	.cfi_startproc
.LVL43:
	.loc 2 1783 0
	lis 9,_ZN6idMath8M_MS2SECE@ha
	lis 11,.LC8@ha
	lfs 13,_ZN6idMath8M_MS2SECE@l(9)
.LBB1411:
.LBB1412:
.LBB1413:
	.loc 5 576 0
	lis 9,gameLocal+2311020@ha
.LBE1413:
.LBE1412:
.LBE1411:
	.loc 2 1783 0
	lfs 0,.LC8@l(11)
.LBB1418:
.LBB1416:
.LBB1414:
	.loc 5 576 0
	lwz 9,gameLocal+2311020@l(9)
.LBE1414:
.LBE1416:
.LBE1418:
	.loc 2 1783 0
	fmuls 0,13,0
.LBB1419:
.LBB1417:
.LBB1415:
	.loc 5 576 0
	lwz 9,4(9)
	stfs 0,0(9)
.LBE1415:
.LBE1417:
.LBE1419:
	.loc 2 1784 0
	blr
	.cfi_endproc
.LFE2947:
	.size	_ZN8idThread18Event_GetFrameTimeEv, .-_ZN8idThread18Event_GetFrameTimeEv
	.align 2
	.globl _ZN8idThread22Event_GetTicsPerSecondEv
	.type	_ZN8idThread22Event_GetTicsPerSecondEv, @function
_ZN8idThread22Event_GetTicsPerSecondEv:
.LFB2948:
	.loc 2 1791 0
	.cfi_startproc
.LVL44:
.LBB1420:
	.loc 2 849 0
	lis 9,gameLocal+2311020@ha
.LBB1421:
.LBB1422:
	.loc 5 576 0
	lis 11,.LC9@ha
	lwz 9,gameLocal+2311020@l(9)
	lwz 0,.LC9@l(11)
	lwz 9,4(9)
	stw 0,0(9)
.LBE1422:
.LBE1421:
.LBE1420:
	.loc 2 1793 0
	blr
	.cfi_endproc
.LFE2948:
	.size	_ZN8idThread22Event_GetTicsPerSecondEv, .-_ZN8idThread22Event_GetTicsPerSecondEv
	.align 2
	.globl _ZN8idThread22Event_CacheSoundShaderEPKc
	.type	_ZN8idThread22Event_CacheSoundShaderEPKc, @function
_ZN8idThread22Event_CacheSoundShaderEPKc:
.LFB2949:
	.loc 2 1800 0
	.cfi_startproc
.LVL45:
	.loc 2 1802 0
	blr
	.cfi_endproc
.LFE2949:
	.size	_ZN8idThread22Event_CacheSoundShaderEPKc, .-_ZN8idThread22Event_CacheSoundShaderEPKc
	.align 2
	.globl _ZN8idThread15Event_DebugLineERK6idVec3S2_S2_f
	.type	_ZN8idThread15Event_DebugLineERK6idVec3S2_S2_f, @function
_ZN8idThread15Event_DebugLineERK6idVec3S2_S2_f:
.LFB2950:
	.loc 2 1809 0
	.cfi_startproc
.LVL46:
	.loc 2 1810 0
	lis 9,_ZN6idMath8M_SEC2MSE@ha
	.loc 2 1809 0
	mflr 0
	.loc 2 1810 0
	lfs 0,_ZN6idMath8M_SEC2MSE@l(9)
	lis 9,gameRenderWorld@ha
	.loc 2 1809 0
	stwu 1,-32(1)
.LCFI16:
	.cfi_def_cfa_offset 32
	.cfi_register 65, 0
	.loc 2 1810 0
	fmuls 0,1,0
	lwz 3,gameRenderWorld@l(9)
.LVL47:
	.loc 2 1809 0
	stw 0,36(1)
	.loc 2 1810 0
	addi 8,1,24
	lwz 9,0(3)
	fctiwz 0,0
	lwz 11,4(4)
	lwz 0,156(9)
	.cfi_offset 65, 4
	lwz 9,8(4)
.LVL48:
.LBB1423:
.LBB1424:
	.loc 6 867 0
	lwz 10,0(4)
.LBE1424:
.LBE1423:
	.loc 2 1810 0
	mtctr 0
	stfiwx 0,0,8
	addi 4,1,8
.LVL49:
.LBB1427:
.LBB1425:
	.loc 6 869 0
	stw 9,16(1)
	.loc 6 870 0
	li 9,0
.LVL50:
	.loc 6 867 0
	stw 10,8(1)
.LBE1425:
.LBE1427:
	.loc 2 1810 0
	li 8,0
.LBB1428:
.LBB1426:
	.loc 6 868 0
	stw 11,12(1)
	.loc 6 870 0
	stw 9,20(1)
.LVL51:
.LBE1426:
.LBE1428:
	.loc 2 1810 0
	lwz 7,24(1)
	bctrl
.LVL52:
	.loc 2 1811 0
	lwz 0,36(1)
	addi 1,1,32
.LCFI17:
	.cfi_def_cfa_offset 0
	mtlr 0
	blr
	.cfi_endproc
.LFE2950:
	.size	_ZN8idThread15Event_DebugLineERK6idVec3S2_S2_f, .-_ZN8idThread15Event_DebugLineERK6idVec3S2_S2_f
	.align 2
	.globl _ZN8idThread16Event_DebugArrowERK6idVec3S2_S2_if
	.type	_ZN8idThread16Event_DebugArrowERK6idVec3S2_S2_if, @function
_ZN8idThread16Event_DebugArrowERK6idVec3S2_S2_if:
.LFB2951:
	.loc 2 1818 0
	.cfi_startproc
.LVL53:
	.loc 2 1819 0
	lis 9,_ZN6idMath8M_SEC2MSE@ha
	.loc 2 1818 0
	mflr 0
	.loc 2 1819 0
	lfs 0,_ZN6idMath8M_SEC2MSE@l(9)
	lis 9,gameRenderWorld@ha
	.loc 2 1818 0
	stwu 1,-32(1)
.LCFI18:
	.cfi_def_cfa_offset 32
	.cfi_register 65, 0
	.loc 2 1819 0
	fmuls 0,1,0
	lwz 3,gameRenderWorld@l(9)
.LVL54:
	.loc 2 1818 0
	stw 0,36(1)
	.loc 2 1819 0
	addi 8,1,24
	lwz 9,0(3)
	fctiwz 0,0
	lwz 11,4(4)
	lwz 0,160(9)
	.cfi_offset 65, 4
	lwz 9,8(4)
.LVL55:
.LBB1429:
.LBB1430:
	.loc 6 867 0
	lwz 10,0(4)
.LBE1430:
.LBE1429:
	.loc 2 1819 0
	mtctr 0
	stfiwx 0,0,8
	addi 4,1,8
.LVL56:
.LBB1432:
.LBB1431:
	.loc 6 869 0
	stw 9,16(1)
	.loc 6 870 0
	li 9,0
.LVL57:
	.loc 6 867 0
	stw 10,8(1)
	.loc 6 868 0
	stw 11,12(1)
	.loc 6 870 0
	stw 9,20(1)
.LVL58:
.LBE1431:
.LBE1432:
	.loc 2 1819 0
	lwz 8,24(1)
	bctrl
.LVL59:
	.loc 2 1820 0
	lwz 0,36(1)
	addi 1,1,32
.LCFI19:
	.cfi_def_cfa_offset 0
	mtlr 0
	blr
	.cfi_endproc
.LFE2951:
	.size	_ZN8idThread16Event_DebugArrowERK6idVec3S2_S2_if, .-_ZN8idThread16Event_DebugArrowERK6idVec3S2_S2_if
	.align 2
	.globl _ZN8idThread17Event_DebugCircleERK6idVec3S2_S2_fif
	.type	_ZN8idThread17Event_DebugCircleERK6idVec3S2_S2_fif, @function
_ZN8idThread17Event_DebugCircleERK6idVec3S2_S2_fif:
.LFB2952:
	.loc 2 1827 0
	.cfi_startproc
.LVL60:
	.loc 2 1828 0
	lis 9,_ZN6idMath8M_SEC2MSE@ha
	.loc 2 1827 0
	mflr 0
	.loc 2 1828 0
	lfs 0,_ZN6idMath8M_SEC2MSE@l(9)
	lis 9,gameRenderWorld@ha
	.loc 2 1827 0
	stwu 1,-32(1)
.LCFI20:
	.cfi_def_cfa_offset 32
	.cfi_register 65, 0
	.loc 2 1828 0
	fmuls 0,2,0
	lwz 3,gameRenderWorld@l(9)
.LVL61:
	.loc 2 1827 0
	stw 0,36(1)
	.loc 2 1828 0
	addi 8,1,24
	lwz 9,0(3)
	fctiwz 0,0
	lwz 11,4(4)
	lwz 0,168(9)
	.cfi_offset 65, 4
	lwz 9,8(4)
.LVL62:
.LBB1433:
.LBB1434:
	.loc 6 867 0
	lwz 10,0(4)
.LBE1434:
.LBE1433:
	.loc 2 1828 0
	mtctr 0
	stfiwx 0,0,8
	addi 4,1,8
.LVL63:
.LBB1437:
.LBB1435:
	.loc 6 869 0
	stw 9,16(1)
	.loc 6 870 0
	li 9,0
.LVL64:
	stw 9,20(1)
.LVL65:
.LBE1435:
.LBE1437:
	.loc 2 1828 0
	li 9,0
.LBB1438:
.LBB1436:
	.loc 6 867 0
	stw 10,8(1)
	.loc 6 868 0
	stw 11,12(1)
.LBE1436:
.LBE1438:
	.loc 2 1828 0
	lwz 8,24(1)
	bctrl
.LVL66:
	.loc 2 1829 0
	lwz 0,36(1)
	addi 1,1,32
.LCFI21:
	.cfi_def_cfa_offset 0
	mtlr 0
	blr
	.cfi_endproc
.LFE2952:
	.size	_ZN8idThread17Event_DebugCircleERK6idVec3S2_S2_fif, .-_ZN8idThread17Event_DebugCircleERK6idVec3S2_S2_fif
	.align 2
	.globl _ZN8idThread17Event_DebugBoundsERK6idVec3S2_S2_f
	.type	_ZN8idThread17Event_DebugBoundsERK6idVec3S2_S2_f, @function
_ZN8idThread17Event_DebugBoundsERK6idVec3S2_S2_f:
.LFB2953:
	.loc 2 1836 0
	.cfi_startproc
.LVL67:
	.loc 2 1837 0
	lis 9,_ZN6idMath8M_SEC2MSE@ha
	.loc 2 1836 0
	mflr 0
	.loc 2 1837 0
	lfs 0,_ZN6idMath8M_SEC2MSE@l(9)
	lis 9,gameRenderWorld@ha
	.loc 2 1836 0
	stwu 1,-72(1)
.LCFI22:
	.cfi_def_cfa_offset 72
	.cfi_register 65, 0
	.loc 2 1837 0
	fmuls 0,1,0
	lwz 3,gameRenderWorld@l(9)
.LVL68:
	.loc 2 1836 0
	stw 0,76(1)
	stw 30,64(1)
	stw 31,68(1)
	.loc 2 1837 0
	fctiwz 0,0
	lwz 9,0(3)
.LBB1439:
.LBB1440:
.LBB1441:
	.loc 6 424 0
	lwz 10,0(6)
.LBE1441:
.LBE1440:
.LBE1439:
	.loc 2 1837 0
	lwz 0,176(9)
	.cfi_offset 31, -4
	.cfi_offset 30, -8
	.cfi_offset 65, 4
.LBB1456:
.LBB1444:
.LBB1442:
	.loc 6 425 0
	lwz 11,4(6)
	.loc 6 426 0
	lwz 9,8(6)
.LBE1442:
.LBE1444:
.LBE1456:
	.loc 2 1837 0
	addi 6,1,56
.LVL69:
	lwz 31,4(4)
	mtctr 0
.LBB1457:
.LBB1458:
	.loc 6 867 0
	lwz 30,0(4)
.LBE1458:
.LBE1457:
.LBB1463:
.LBB1445:
.LBB1446:
	.loc 6 425 0
	lwz 7,4(5)
.LBE1446:
.LBE1445:
.LBE1463:
	.loc 2 1837 0
	lwz 12,8(4)
.LVL70:
.LBB1464:
.LBB1451:
.LBB1447:
	.loc 6 426 0
	lwz 8,8(5)
	.loc 6 424 0
	lwz 4,0(5)
.LVL71:
.LBE1447:
.LBE1451:
.LBE1464:
	.loc 2 1837 0
	addi 5,1,24
.LVL72:
	stfiwx 0,0,6
.LBB1465:
.LBB1459:
	.loc 6 870 0
	li 6,0
	stw 6,20(1)
.LVL73:
.LBE1459:
.LBE1465:
	.loc 2 1837 0
	lis 6,vec3_origin@ha
.LBB1466:
.LBB1460:
	.loc 6 867 0
	stw 30,8(1)
.LBE1460:
.LBE1466:
	.loc 2 1837 0
	la 6,vec3_origin@l(6)
.LBB1467:
.LBB1461:
	.loc 6 868 0
	stw 31,12(1)
.LBE1461:
.LBE1467:
.LBB1468:
.LBB1452:
.LBB1448:
	.loc 6 424 0
	stw 4,24(1)
.LBE1448:
.LBE1452:
.LBE1468:
	.loc 2 1837 0
	addi 4,1,8
.LBB1469:
.LBB1453:
.LBB1449:
	.loc 6 425 0
	stw 7,28(1)
.LBE1449:
.LBE1453:
.LBE1469:
.LBB1470:
.LBB1462:
	.loc 6 869 0
	stw 12,16(1)
.LBE1462:
.LBE1470:
.LBB1471:
.LBB1454:
.LBB1450:
	.loc 6 426 0
	stw 8,32(1)
.LVL74:
.LBE1450:
.LBE1454:
.LBB1455:
.LBB1443:
	.loc 6 424 0
	stw 10,36(1)
	.loc 6 425 0
	stw 11,40(1)
	.loc 6 426 0
	stw 9,44(1)
.LVL75:
.LBE1443:
.LBE1455:
.LBE1471:
	.loc 2 1837 0
	lwz 7,56(1)
	bctrl
.LVL76:
	.loc 2 1838 0
	lwz 0,76(1)
	lwz 30,64(1)
.LVL77:
	mtlr 0
	lwz 31,68(1)
.LVL78:
	addi 1,1,72
.LCFI23:
	.cfi_def_cfa_offset 0
	.cfi_restore 31
	.cfi_restore 30
	blr
	.cfi_endproc
.LFE2953:
	.size	_ZN8idThread17Event_DebugBoundsERK6idVec3S2_S2_f, .-_ZN8idThread17Event_DebugBoundsERK6idVec3S2_S2_f
	.section	.text._ZN9idWinding5ClearEv,"axG",@progbits,_ZN9idWinding5ClearEv,comdat
	.align 2
	.weak	_ZN9idWinding5ClearEv
	.type	_ZN9idWinding5ClearEv, @function
_ZN9idWinding5ClearEv:
.LFB1473:
	.loc 1 249 0
	.cfi_startproc
.LVL79:
	mflr 0
	stwu 1,-16(1)
.LCFI24:
	.cfi_def_cfa_offset 16
	.cfi_register 65, 0
	stw 31,12(1)
	mr 31,3
	.cfi_offset 31, -4
	stw 0,20(1)
	.loc 1 250 0
	li 0,0
	.cfi_offset 65, 4
	.loc 1 251 0
	lwz 3,8(3)
.LVL80:
	.loc 1 250 0
	stw 0,4(31)
	.loc 1 251 0
	cmpwi 7,3,0
	beq- 7,.L28
	.loc 1 251 0 is_stmt 0 discriminator 1
	bl _ZdaPv
.L28:
	.loc 1 252 0 is_stmt 1
	li 0,0
	stw 0,8(31)
	.loc 1 253 0
	lwz 0,20(1)
	lwz 31,12(1)
.LVL81:
	mtlr 0
	addi 1,1,16
.LCFI25:
	.cfi_def_cfa_offset 0
	.cfi_restore 31
	blr
	.cfi_endproc
.LFE1473:
	.size	_ZN9idWinding5ClearEv, .-_ZN9idWinding5ClearEv
	.section	.text._ZN9idWindingD2Ev,"axG",@progbits,_ZN9idWindingD5Ev,comdat
	.align 2
	.weak	_ZN9idWindingD2Ev
	.type	_ZN9idWindingD2Ev, @function
_ZN9idWindingD2Ev:
.LFB1461:
	.loc 1 183 0
	.cfi_startproc
.LVL82:
	mflr 0
	stwu 1,-16(1)
.LCFI26:
	.cfi_def_cfa_offset 16
	.cfi_register 65, 0
.LBB1473:
	lis 9,_ZTV9idWinding+8@ha
.LBE1473:
	stw 31,12(1)
	mr 31,3
	.cfi_offset 31, -4
	stw 0,20(1)
.LBB1474:
	.loc 1 183 0
	la 0,_ZTV9idWinding+8@l(9)
	.cfi_offset 65, 4
	.loc 1 184 0
	lwz 3,8(3)
.LVL83:
	.loc 1 183 0
	stw 0,0(31)
	.loc 1 184 0
	cmpwi 7,3,0
	beq- 7,.L30
	.loc 1 184 0 is_stmt 0 discriminator 1
	bl _ZdaPv
.L30:
	.loc 1 185 0 is_stmt 1
	li 0,0
	stw 0,8(31)
.LBE1474:
	.loc 1 186 0
	lwz 0,20(1)
	lwz 31,12(1)
.LVL84:
	mtlr 0
	addi 1,1,16
.LCFI27:
	.cfi_def_cfa_offset 0
	.cfi_restore 31
	blr
	.cfi_endproc
.LFE1461:
	.size	_ZN9idWindingD2Ev, .-_ZN9idWindingD2Ev
	.section	".text"
	.align 2
	.globl _ZN8idThread14Event_DrawTextEPKcRK6idVec3fS4_if
	.type	_ZN8idThread14Event_DrawTextEPKcRK6idVec3fS4_if, @function
_ZN8idThread14Event_DrawTextEPKcRK6idVec3fS4_if:
.LFB2954:
	.loc 2 1845 0
	.cfi_startproc
.LVL85:
	mflr 0
	stwu 1,-112(1)
.LCFI28:
	.cfi_def_cfa_offset 112
	.cfi_register 65, 0
	.loc 2 1846 0
	lis 9,gameRenderWorld@ha
	lis 3,gameLocal@ha
.LVL86:
	.loc 2 1845 0
	stfd 31,104(1)
	.loc 2 1846 0
	la 3,gameLocal@l(3)
	.loc 2 1845 0
	stw 28,88(1)
	fmr 31,2
	.cfi_offset 28, -24
	.cfi_offset 63, -8
	stw 29,92(1)
	mr 28,4
	stw 30,96(1)
	mr 29,7
	.cfi_offset 30, -16
	.cfi_offset 29, -20
	stw 0,116(1)
	stw 31,100(1)
	.loc 2 1846 0
	lwz 30,gameRenderWorld@l(9)
	lwz 0,8(6)
	.cfi_offset 31, -12
	.cfi_offset 65, 4
.LVL87:
	lwz 10,0(30)
	lwz 9,4(6)
.LVL88:
.LBB1475:
.LBB1476:
	.loc 6 867 0
	lwz 11,0(6)
	.loc 6 869 0
	stw 0,16(1)
	.loc 6 870 0
	li 0,0
.LBE1476:
.LBE1475:
	.loc 2 1846 0
	lwz 31,204(10)
.LBB1478:
.LBB1477:
	.loc 6 870 0
	stw 0,20(1)
	.loc 6 867 0
	stw 11,8(1)
	.loc 6 868 0
	stw 9,12(1)
.LBE1477:
.LBE1478:
	.loc 2 1846 0
	stw 5,76(1)
	stfd 1,80(1)
	bl _ZNK11idGameLocal14GetLocalPlayerEv
.LVL89:
	addi 4,3,4644
	addi 3,1,24
	bl _ZNK8idAngles6ToMat3Ev
.LVL90:
	lis 9,_ZN6idMath8M_SEC2MSE@ha
	lfs 0,_ZN6idMath8M_SEC2MSE@l(9)
	addi 9,1,72
	lwz 5,76(1)
	mr 3,30
	fmuls 2,31,0
	lfd 1,80(1)
	mr 4,28
	addi 6,1,8
	addi 7,1,24
	mr 8,29
	fctiwz 2,2
	mtctr 31
	li 10,0
	stfiwx 2,0,9
	lwz 9,72(1)
	bctrl
	.loc 2 1847 0
	lwz 0,116(1)
	lwz 28,88(1)
.LVL91:
	mtlr 0
	lwz 29,92(1)
.LVL92:
	lwz 30,96(1)
	lwz 31,100(1)
	lfd 31,104(1)
.LVL93:
	addi 1,1,112
.LCFI29:
	.cfi_def_cfa_offset 0
	.cfi_restore 63
	.cfi_restore 31
	.cfi_restore 30
	.cfi_restore 29
	.cfi_restore 28
	blr
	.cfi_endproc
.LFE2954:
	.size	_ZN8idThread14Event_DrawTextEPKcRK6idVec3fS4_if, .-_ZN8idThread14Event_DrawTextEPKcRK6idVec3fS4_if
	.align 2
	.globl _ZN8idThread18Event_RadiusDamageERK6idVec3P8idEntityS4_S4_PKcf
	.type	_ZN8idThread18Event_RadiusDamageERK6idVec3P8idEntityS4_S4_PKcf, @function
_ZN8idThread18Event_RadiusDamageERK6idVec3P8idEntityS4_S4_PKcf:
.LFB2944:
	.loc 2 1755 0
	.cfi_startproc
.LVL94:
	mflr 0
	stwu 1,-8(1)
.LCFI30:
	.cfi_def_cfa_offset 8
	.cfi_register 65, 0
	.loc 2 1756 0
	lis 3,gameLocal@ha
.LVL95:
	.loc 2 1755 0
	mr 9,8
	.loc 2 1756 0
	la 3,gameLocal@l(3)
	mr 8,7
.LVL96:
	.loc 2 1755 0
	stw 0,12(1)
	.loc 2 1756 0
	.cfi_offset 65, 4
	bl _ZN11idGameLocal12RadiusDamageERK6idVec3P8idEntityS4_S4_S4_PKcf
.LVL97:
	.loc 2 1757 0
	lwz 0,12(1)
	addi 1,1,8
.LCFI31:
	.cfi_def_cfa_offset 0
	mtlr 0
	blr
	.cfi_endproc
.LFE2944:
	.size	_ZN8idThread18Event_RadiusDamageERK6idVec3P8idEntityS4_S4_PKcf, .-_ZN8idThread18Event_RadiusDamageERK6idVec3P8idEntityS4_S4_PKcf
	.align 2
	.globl _ZN8idThread16Event_StrToFloatEPKc
	.type	_ZN8idThread16Event_StrToFloatEPKc, @function
_ZN8idThread16Event_StrToFloatEPKc:
.LFB2943:
	.loc 2 1743 0
	.cfi_startproc
.LVL98:
	mflr 0
	stwu 1,-8(1)
.LCFI32:
	.cfi_def_cfa_offset 8
	.cfi_register 65, 0
.LBB1479:
	.loc 2 1746 0
	mr 3,4
.LVL99:
.LBE1479:
	.loc 2 1743 0
	stw 0,12(1)
.LBB1484:
	.loc 2 1746 0
	.cfi_offset 65, 4
	bl atof
.LVL100:
.LBB1480:
	.loc 2 849 0
	lis 9,gameLocal+2311020@ha
.LBE1480:
	.loc 2 1746 0
	frsp 1,1
.LVL101:
.LBB1483:
.LBB1481:
.LBB1482:
	.loc 5 576 0
	lwz 9,gameLocal+2311020@l(9)
	lwz 9,4(9)
.LBE1482:
.LBE1481:
.LBE1483:
	.loc 2 1746 0
	stfs 1,0(9)
.LBE1484:
	.loc 2 1748 0
	lwz 0,12(1)
	addi 1,1,8
.LCFI33:
	.cfi_def_cfa_offset 0
	mtlr 0
	blr
	.cfi_endproc
.LFE2943:
	.size	_ZN8idThread16Event_StrToFloatEPKc, .-_ZN8idThread16Event_StrToFloatEPKc
	.align 2
	.globl _ZN8idThread12Event_StrLenEPKc
	.type	_ZN8idThread12Event_StrLenEPKc, @function
_ZN8idThread12Event_StrLenEPKc:
.LFB2938:
	.loc 2 1635 0
	.cfi_startproc
.LVL102:
	mflr 0
	stwu 1,-16(1)
.LCFI34:
	.cfi_def_cfa_offset 16
	.cfi_register 65, 0
.LBB1485:
	.loc 2 1638 0
	mr 3,4
.LVL103:
.LBE1485:
	.loc 2 1635 0
	stw 0,20(1)
.LBB1492:
	.loc 2 1638 0
	.cfi_offset 65, 4
	bl strlen
.LVL104:
.LBB1486:
	.loc 2 860 0
	lis 9,gameLocal+2311020@ha
.LBB1487:
	lis 0,0x4330
.LBB1488:
.LBB1489:
	.loc 5 576 0
	lwz 9,gameLocal+2311020@l(9)
.LBE1489:
.LBE1488:
	.loc 2 860 0
	xoris 3,3,0x8000
.LVL105:
	lis 11,.LC1@ha
.LBB1491:
.LBB1490:
	.loc 5 576 0
	lwz 9,4(9)
.LBE1490:
.LBE1491:
	.loc 2 860 0
	stw 0,8(1)
	stw 3,12(1)
	lfs 0,.LC1@l(11)
	lfd 13,8(1)
	fsub 0,13,0
	frsp 0,0
	stfs 0,0(9)
.LBE1487:
.LBE1486:
.LBE1492:
	.loc 2 1640 0
	lwz 0,20(1)
	addi 1,1,16
.LCFI35:
	.cfi_def_cfa_offset 0
	mtlr 0
	blr
	.cfi_endproc
.LFE2938:
	.size	_ZN8idThread12Event_StrLenEPKc, .-_ZN8idThread12Event_StrLenEPKc
	.align 2
	.globl _ZN8idThread12Event_FadeToER6idVec3ff
	.type	_ZN8idThread12Event_FadeToER6idVec3ff, @function
_ZN8idThread12Event_FadeToER6idVec3ff:
.LFB2933:
	.loc 2 1579 0
	.cfi_startproc
.LVL106:
	mflr 0
	stwu 1,-88(1)
.LCFI36:
	.cfi_def_cfa_offset 88
	.cfi_register 65, 0
.LBB1493:
	.loc 2 1583 0
	lis 3,gameLocal@ha
.LVL107:
	la 3,gameLocal@l(3)
.LBE1493:
	.loc 2 1579 0
	stfd 30,72(1)
	stfd 31,80(1)
	fmr 30,2
	.cfi_offset 63, -8
	.cfi_offset 62, -16
	stw 31,68(1)
	fmr 31,1
	stw 0,92(1)
	.loc 2 1579 0
	mr 31,4
	.cfi_offset 65, 4
	.cfi_offset 31, -20
.LBB1500:
	.loc 2 1583 0
	bl _ZNK11idGameLocal14GetLocalPlayerEv
.LVL108:
	.loc 2 1584 0
	cmpwi 0,3,0
	beq- 0,.L36
.LVL109:
	.loc 2 1586 0
	lis 11,_ZN6idMath8M_SEC2MSE@ha
	.loc 2 1585 0
	lwz 9,4(31)
.LVL110:
	.loc 2 1586 0
	lfs 0,_ZN6idMath8M_SEC2MSE@l(11)
	addi 3,3,3976
.LVL111:
	.loc 2 1585 0
	lwz 0,8(31)
.LVL112:
	.loc 2 1586 0
	addi 4,1,32
	fmuls 30,30,0
.LVL113:
.LBB1494:
.LBB1495:
	.loc 6 874 0
	lwz 11,0(31)
	.loc 6 875 0
	stw 9,12(1)
.LBE1495:
.LBE1494:
	.loc 2 1586 0
	addi 9,1,48
.LBB1498:
.LBB1496:
	.loc 6 876 0
	stw 0,16(1)
.LBE1496:
.LBE1498:
	.loc 2 1586 0
	fctiwz 30,30
.LBB1499:
.LBB1497:
	.loc 6 874 0
	stw 11,8(1)
	.loc 6 877 0
	stfs 31,20(1)
.LBE1497:
.LBE1499:
	.loc 2 1586 0
	stfiwx 30,0,9
	lwz 0,8(1)
	lwz 5,48(1)
	stw 0,32(1)
	lwz 0,12(1)
	stw 0,36(1)
	lwz 0,16(1)
	stw 0,40(1)
	lwz 0,20(1)
	stw 0,44(1)
	bl _ZN12idPlayerView4FadeE6idVec4i
.LVL114:
.L36:
.LBE1500:
	.loc 2 1588 0
	lwz 0,92(1)
	lwz 31,68(1)
.LVL115:
	mtlr 0
	lfd 30,72(1)
	lfd 31,80(1)
.LVL116:
	addi 1,1,88
.LCFI37:
	.cfi_def_cfa_offset 0
	.cfi_restore 63
	.cfi_restore 62
	.cfi_restore 31
	blr
	.cfi_endproc
.LFE2933:
	.size	_ZN8idThread12Event_FadeToER6idVec3ff, .-_ZN8idThread12Event_FadeToER6idVec3ff
	.align 2
	.globl _ZN8idThread13Event_FadeOutER6idVec3f
	.type	_ZN8idThread13Event_FadeOutER6idVec3f, @function
_ZN8idThread13Event_FadeOutER6idVec3f:
.LFB2932:
	.loc 2 1563 0
	.cfi_startproc
.LVL117:
	mflr 0
	stwu 1,-80(1)
.LCFI38:
	.cfi_def_cfa_offset 80
	.cfi_register 65, 0
.LBB1501:
	.loc 2 1567 0
	lis 3,gameLocal@ha
.LVL118:
	la 3,gameLocal@l(3)
.LBE1501:
	.loc 2 1563 0
	stfd 31,72(1)
	stw 31,68(1)
	fmr 31,1
	.cfi_offset 31, -12
	.cfi_offset 63, -8
	stw 0,84(1)
	.loc 2 1563 0
	mr 31,4
.LBB1512:
	.loc 2 1567 0
	.cfi_offset 65, 4
	bl _ZNK11idGameLocal14GetLocalPlayerEv
.LVL119:
	.loc 2 1568 0
	cmpwi 0,3,0
	beq- 0,.L38
.LVL120:
	.loc 2 1570 0
	lis 11,_ZN6idMath8M_SEC2MSE@ha
	.loc 2 1569 0
	lwz 9,4(31)
.LVL121:
	.loc 2 1570 0
	lfs 0,_ZN6idMath8M_SEC2MSE@l(11)
	addi 3,3,3976
.LVL122:
	.loc 2 1569 0
	lwz 0,8(31)
.LVL123:
	.loc 2 1570 0
	addi 4,1,32
	fmuls 31,31,0
.LVL124:
.LBB1502:
.LBB1503:
	.loc 6 874 0
	lwz 11,0(31)
	.loc 6 875 0
	stw 9,12(1)
.LBE1503:
.LBE1502:
	.loc 2 1570 0
	addi 9,1,48
.LBB1508:
.LBB1504:
	.loc 6 876 0
	stw 0,16(1)
.LBE1504:
.LBE1508:
	.loc 2 1570 0
	fctiwz 31,31
.LBB1509:
.LBB1505:
	.loc 6 874 0
	stw 11,8(1)
.LBE1505:
.LBE1509:
	.loc 2 1570 0
	stfiwx 31,0,9
.LBB1510:
.LBB1506:
	.loc 6 877 0
	lis 9,.LC10@ha
	lwz 0,.LC10@l(9)
.LBE1506:
.LBE1510:
	.loc 2 1570 0
	lwz 5,48(1)
.LBB1511:
.LBB1507:
	.loc 6 877 0
	stw 0,20(1)
.LBE1507:
.LBE1511:
	.loc 2 1570 0
	lwz 0,8(1)
	stw 0,32(1)
	lwz 0,12(1)
	stw 0,36(1)
	lwz 0,16(1)
	stw 0,40(1)
	lis 0,0x3f80
	stw 0,44(1)
	bl _ZN12idPlayerView4FadeE6idVec4i
.LVL125:
.L38:
.LBE1512:
	.loc 2 1572 0
	lwz 0,84(1)
	lwz 31,68(1)
.LVL126:
	mtlr 0
	lfd 31,72(1)
	addi 1,1,80
.LCFI39:
	.cfi_def_cfa_offset 0
	.cfi_restore 63
	.cfi_restore 31
	blr
	.cfi_endproc
.LFE2932:
	.size	_ZN8idThread13Event_FadeOutER6idVec3f, .-_ZN8idThread13Event_FadeOutER6idVec3f
	.align 2
	.globl _ZN8idThread12Event_FadeInER6idVec3f
	.type	_ZN8idThread12Event_FadeInER6idVec3f, @function
_ZN8idThread12Event_FadeInER6idVec3f:
.LFB2931:
	.loc 2 1547 0
	.cfi_startproc
.LVL127:
	mflr 0
	stwu 1,-80(1)
.LCFI40:
	.cfi_def_cfa_offset 80
	.cfi_register 65, 0
.LBB1513:
	.loc 2 1551 0
	lis 3,gameLocal@ha
.LVL128:
	la 3,gameLocal@l(3)
.LBE1513:
	.loc 2 1547 0
	stfd 31,72(1)
	stw 31,68(1)
	fmr 31,1
	.cfi_offset 31, -12
	.cfi_offset 63, -8
	stw 0,84(1)
	.loc 2 1547 0
	mr 31,4
.LBB1522:
	.loc 2 1551 0
	.cfi_offset 65, 4
	bl _ZNK11idGameLocal14GetLocalPlayerEv
.LVL129:
	.loc 2 1552 0
	cmpwi 0,3,0
	beq- 0,.L40
.LVL130:
	.loc 2 1554 0
	lis 11,_ZN6idMath8M_SEC2MSE@ha
	.loc 2 1553 0
	lwz 9,4(31)
.LVL131:
	.loc 2 1554 0
	lfs 0,_ZN6idMath8M_SEC2MSE@l(11)
	addi 3,3,3976
.LVL132:
	.loc 2 1553 0
	lwz 0,8(31)
.LVL133:
	.loc 2 1554 0
	addi 4,1,32
	fmuls 31,31,0
.LVL134:
.LBB1514:
.LBB1515:
	.loc 6 874 0
	lwz 11,0(31)
	.loc 6 875 0
	stw 9,12(1)
.LBE1515:
.LBE1514:
	.loc 2 1554 0
	addi 9,1,48
.LBB1519:
.LBB1516:
	.loc 6 876 0
	stw 0,16(1)
	.loc 6 877 0
	li 0,0
.LBE1516:
.LBE1519:
	.loc 2 1554 0
	fctiwz 31,31
.LBB1520:
.LBB1517:
	.loc 6 874 0
	stw 11,8(1)
.LBE1517:
.LBE1520:
	.loc 2 1554 0
	stfiwx 31,0,9
.LBB1521:
.LBB1518:
	.loc 6 877 0
	stw 0,20(1)
.LBE1518:
.LBE1521:
	.loc 2 1554 0
	lwz 0,8(1)
	lwz 5,48(1)
	stw 0,32(1)
	lwz 0,12(1)
	stw 0,36(1)
	lwz 0,16(1)
	stw 0,40(1)
	li 0,0
	stw 0,44(1)
	bl _ZN12idPlayerView4FadeE6idVec4i
.LVL135:
.L40:
.LBE1522:
	.loc 2 1556 0
	lwz 0,84(1)
	lwz 31,68(1)
.LVL136:
	mtlr 0
	lfd 31,72(1)
	addi 1,1,80
.LCFI41:
	.cfi_def_cfa_offset 0
	.cfi_restore 63
	.cfi_restore 31
	blr
	.cfi_endproc
.LFE2931:
	.size	_ZN8idThread12Event_FadeInER6idVec3f, .-_ZN8idThread12Event_FadeInER6idVec3f
	.align 2
	.globl _ZN8idThread16Event_TracePointERK6idVec3S2_iP8idEntity
	.type	_ZN8idThread16Event_TracePointERK6idVec3S2_iP8idEntity, @function
_ZN8idThread16Event_TracePointERK6idVec3S2_iP8idEntity:
.LFB2924:
	.loc 2 1457 0
	.cfi_startproc
.LVL137:
	stwu 1,-16(1)
.LCFI42:
	.cfi_def_cfa_offset 16
	mflr 0
	mr 11,4
.LVL138:
.LBB1523:
.LBB1524:
	.file 7 "d:/Data/Nintendo/DoomGX/src/game/script/../physics/Clip.h"
	.loc 7 334 0
	lis 3,gameLocal+2311032@ha
.LVL139:
.LBE1524:
.LBE1523:
	.loc 2 1457 0
	stw 31,12(1)
.LBB1529:
.LBB1525:
	.loc 7 334 0
	lis 31,.LANCHOR0@ha
	.cfi_offset 31, -4
	.cfi_register 65, 0
.LBE1525:
.LBE1529:
	.loc 2 1457 0
	stw 0,20(1)
.LBB1530:
.LBB1526:
	.loc 7 334 0
	la 31,.LANCHOR0@l(31)
.LBE1526:
.LBE1530:
	.loc 2 1457 0
	mr 0,5
	.cfi_offset 65, 4
.LVL140:
.LBB1531:
.LBB1527:
	.loc 7 334 0
	lis 8,mat3_identity@ha
.LBE1527:
.LBE1531:
	.loc 2 1457 0
	mr 9,6
.LVL141:
	mr 10,7
.LVL142:
.LBB1532:
.LBB1528:
	.loc 7 334 0
	addi 4,31,80
.LVL143:
	mr 6,0
.LVL144:
	la 3,gameLocal+2311032@l(3)
	mr 5,11
.LVL145:
	li 7,0
.LVL146:
	la 8,mat3_identity@l(8)
	bl _ZN6idClip11TranslationER7trace_sRK6idVec3S4_PK11idClipModelRK6idMat3iPK8idEntity
.LVL147:
.LBE1528:
.LBE1532:
.LBB1533:
	.loc 2 849 0
	lis 9,gameLocal+2311020@ha
.LBB1534:
.LBB1535:
	.loc 5 576 0
	lwz 9,gameLocal+2311020@l(9)
.LBE1535:
.LBE1534:
.LBE1533:
	.loc 2 1459 0
	lwz 0,80(31)
.LVL148:
.LBB1538:
.LBB1537:
.LBB1536:
	.loc 5 576 0
	lwz 9,4(9)
	stw 0,0(9)
.LBE1536:
.LBE1537:
.LBE1538:
	.loc 2 1460 0
	lwz 0,20(1)
	lwz 31,12(1)
	mtlr 0
	addi 1,1,16
.LCFI43:
	.cfi_def_cfa_offset 0
	.cfi_restore 31
	blr
	.cfi_endproc
.LFE2924:
	.size	_ZN8idThread16Event_TracePointERK6idVec3S2_iP8idEntity, .-_ZN8idThread16Event_TracePointERK6idVec3S2_iP8idEntity
	.align 2
	.globl _ZN8idThread17Event_FirstPersonEv
	.type	_ZN8idThread17Event_FirstPersonEv, @function
_ZN8idThread17Event_FirstPersonEv:
.LFB2922:
	.loc 2 1434 0
	.cfi_startproc
.LVL149:
	mflr 0
	stwu 1,-8(1)
.LCFI44:
	.cfi_def_cfa_offset 8
	.cfi_register 65, 0
	.loc 2 1435 0
	lis 3,gameLocal@ha
.LVL150:
	li 4,0
	la 3,gameLocal@l(3)
	.loc 2 1434 0
	stw 0,12(1)
	.loc 2 1435 0
	.cfi_offset 65, 4
	bl _ZN11idGameLocal9SetCameraEP8idCamera
	.loc 2 1436 0
	lwz 0,12(1)
	addi 1,1,8
.LCFI45:
	.cfi_def_cfa_offset 0
	mtlr 0
	blr
	.cfi_endproc
.LFE2922:
	.size	_ZN8idThread17Event_FirstPersonEv, .-_ZN8idThread17Event_FirstPersonEv
	.align 2
	.globl _ZN8idThread17Event_VecToAnglesER6idVec3
	.type	_ZN8idThread17Event_VecToAnglesER6idVec3, @function
_ZN8idThread17Event_VecToAnglesER6idVec3:
.LFB2918:
	.loc 2 1362 0
	.cfi_startproc
.LVL151:
	stwu 1,-24(1)
.LCFI46:
	.cfi_def_cfa_offset 24
	mflr 0
.LBB1539:
	.loc 2 1363 0
	addi 3,1,8
.LVL152:
.LBE1539:
	.loc 2 1362 0
	stw 0,28(1)
.LBB1547:
	.loc 2 1363 0
	.cfi_offset 65, 4
	bl _ZNK6idVec38ToAnglesEv
.LVL153:
.LBB1540:
	.loc 2 869 0
	lis 9,gameLocal+2311020@ha
.LBB1541:
.LBB1542:
.LBB1543:
.LBB1544:
	.loc 6 425 0
	lwz 0,12(1)
.LBE1544:
.LBE1543:
	.loc 5 594 0
	lwz 9,gameLocal+2311020@l(9)
.LVL154:
	lwz 9,4(9)
.LVL155:
.LBB1546:
.LBB1545:
	.loc 6 425 0
	stw 0,4(9)
	.loc 6 424 0
	lwz 0,8(1)
	stw 0,0(9)
	.loc 6 426 0
	lwz 0,16(1)
	stw 0,8(9)
.LBE1545:
.LBE1546:
.LBE1542:
.LBE1541:
.LBE1540:
.LBE1547:
	.loc 2 1365 0
	lwz 0,28(1)
	addi 1,1,24
.LCFI47:
	.cfi_def_cfa_offset 0
	mtlr 0
	blr
	.cfi_endproc
.LFE2918:
	.size	_ZN8idThread17Event_VecToAnglesER6idVec3, .-_ZN8idThread17Event_VecToAnglesER6idVec3
	.align 2
	.globl _ZN8idThread15Event_GetCosineEf
	.type	_ZN8idThread15Event_GetCosineEf, @function
_ZN8idThread15Event_GetCosineEf:
.LFB2912:
	.loc 2 1304 0
	.cfi_startproc
.LVL156:
	.loc 2 1305 0
	lis 9,_ZN6idMath9M_DEG2RADE@ha
	.loc 2 1304 0
	mflr 0
	.loc 2 1305 0
	lfs 0,_ZN6idMath9M_DEG2RADE@l(9)
	.loc 2 1304 0
	stwu 1,-8(1)
.LCFI48:
	.cfi_def_cfa_offset 8
	.cfi_register 65, 0
.LBB1548:
.LBB1549:
	.loc 3 347 0
	fmuls 1,1,0
.LVL157:
.LBE1549:
.LBE1548:
	.loc 2 1304 0
	stw 0,12(1)
.LBB1551:
.LBB1550:
	.loc 3 347 0
	.cfi_offset 65, 4
	bl cosf
.LVL158:
.LBE1550:
.LBE1551:
.LBB1552:
	.loc 2 849 0
	lis 9,gameLocal+2311020@ha
.LBB1553:
.LBB1554:
	.loc 5 576 0
	lwz 9,gameLocal+2311020@l(9)
	lwz 9,4(9)
	stfs 1,0(9)
.LBE1554:
.LBE1553:
.LBE1552:
	.loc 2 1306 0
	lwz 0,12(1)
	addi 1,1,8
.LCFI49:
	.cfi_def_cfa_offset 0
	mtlr 0
	blr
	.cfi_endproc
.LFE2912:
	.size	_ZN8idThread15Event_GetCosineEf, .-_ZN8idThread15Event_GetCosineEf
	.align 2
	.globl _ZN8idThread13Event_GetSineEf
	.type	_ZN8idThread13Event_GetSineEf, @function
_ZN8idThread13Event_GetSineEf:
.LFB2911:
	.loc 2 1295 0
	.cfi_startproc
.LVL159:
	.loc 2 1296 0
	lis 9,_ZN6idMath9M_DEG2RADE@ha
	.loc 2 1295 0
	mflr 0
	.loc 2 1296 0
	lfs 0,_ZN6idMath9M_DEG2RADE@l(9)
	.loc 2 1295 0
	stwu 1,-8(1)
.LCFI50:
	.cfi_def_cfa_offset 8
	.cfi_register 65, 0
.LBB1555:
.LBB1556:
	.loc 3 311 0
	fmuls 1,1,0
.LVL160:
.LBE1556:
.LBE1555:
	.loc 2 1295 0
	stw 0,12(1)
.LBB1558:
.LBB1557:
	.loc 3 311 0
	.cfi_offset 65, 4
	bl sinf
.LVL161:
.LBE1557:
.LBE1558:
.LBB1559:
	.loc 2 849 0
	lis 9,gameLocal+2311020@ha
.LBB1560:
.LBB1561:
	.loc 5 576 0
	lwz 9,gameLocal+2311020@l(9)
	lwz 9,4(9)
	stfs 1,0(9)
.LBE1561:
.LBE1560:
.LBE1559:
	.loc 2 1297 0
	lwz 0,12(1)
	addi 1,1,8
.LCFI51:
	.cfi_def_cfa_offset 0
	mtlr 0
	blr
	.cfi_endproc
.LFE2911:
	.size	_ZN8idThread13Event_GetSineEf, .-_ZN8idThread13Event_GetSineEf
	.align 2
	.globl _ZN8idThread13Event_AngToUpER8idAngles
	.type	_ZN8idThread13Event_AngToUpER8idAngles, @function
_ZN8idThread13Event_AngToUpER8idAngles:
.LFB2910:
	.loc 2 1283 0
	.cfi_startproc
.LVL162:
	stwu 1,-24(1)
.LCFI52:
	.cfi_def_cfa_offset 24
	mflr 0
.LBB1562:
	.loc 2 1286 0
	mr 3,4
.LVL163:
	li 5,0
	addi 6,1,8
	li 4,0
.LVL164:
.LBE1562:
	.loc 2 1283 0
	stw 0,28(1)
.LBB1570:
	.loc 2 1286 0
	.cfi_offset 65, 4
	bl _ZNK8idAngles9ToVectorsEP6idVec3S1_S1_
.LVL165:
.LBB1563:
	.loc 2 869 0
	lis 9,gameLocal+2311020@ha
.LBB1564:
.LBB1565:
.LBB1566:
.LBB1567:
	.loc 6 424 0
	lwz 0,8(1)
.LBE1567:
.LBE1566:
	.loc 5 594 0
	lwz 9,gameLocal+2311020@l(9)
	lwz 9,4(9)
.LVL166:
.LBB1569:
.LBB1568:
	.loc 6 424 0
	stw 0,0(9)
	.loc 6 425 0
	lwz 0,12(1)
	stw 0,4(9)
	.loc 6 426 0
	lwz 0,16(1)
	stw 0,8(9)
.LBE1568:
.LBE1569:
.LBE1565:
.LBE1564:
.LBE1563:
.LBE1570:
	.loc 2 1288 0
	lwz 0,28(1)
	addi 1,1,24
.LCFI53:
	.cfi_def_cfa_offset 0
	mtlr 0
	blr
	.cfi_endproc
.LFE2910:
	.size	_ZN8idThread13Event_AngToUpER8idAngles, .-_ZN8idThread13Event_AngToUpER8idAngles
	.align 2
	.globl _ZN8idThread16Event_AngToRightER8idAngles
	.type	_ZN8idThread16Event_AngToRightER8idAngles, @function
_ZN8idThread16Event_AngToRightER8idAngles:
.LFB2909:
	.loc 2 1271 0
	.cfi_startproc
.LVL167:
	stwu 1,-24(1)
.LCFI54:
	.cfi_def_cfa_offset 24
	mflr 0
.LBB1571:
	.loc 2 1274 0
	mr 3,4
.LVL168:
	li 6,0
	addi 5,1,8
	li 4,0
.LVL169:
.LBE1571:
	.loc 2 1271 0
	stw 0,28(1)
.LBB1579:
	.loc 2 1274 0
	.cfi_offset 65, 4
	bl _ZNK8idAngles9ToVectorsEP6idVec3S1_S1_
.LVL170:
.LBB1572:
	.loc 2 869 0
	lis 9,gameLocal+2311020@ha
.LBB1573:
.LBB1574:
.LBB1575:
.LBB1576:
	.loc 6 424 0
	lwz 0,8(1)
.LBE1576:
.LBE1575:
	.loc 5 594 0
	lwz 9,gameLocal+2311020@l(9)
	lwz 9,4(9)
.LVL171:
.LBB1578:
.LBB1577:
	.loc 6 424 0
	stw 0,0(9)
	.loc 6 425 0
	lwz 0,12(1)
	stw 0,4(9)
	.loc 6 426 0
	lwz 0,16(1)
	stw 0,8(9)
.LBE1577:
.LBE1578:
.LBE1574:
.LBE1573:
.LBE1572:
.LBE1579:
	.loc 2 1276 0
	lwz 0,28(1)
	addi 1,1,24
.LCFI55:
	.cfi_def_cfa_offset 0
	mtlr 0
	blr
	.cfi_endproc
.LFE2909:
	.size	_ZN8idThread16Event_AngToRightER8idAngles, .-_ZN8idThread16Event_AngToRightER8idAngles
	.align 2
	.globl _ZN8idThread18Event_AngToForwardER8idAngles
	.type	_ZN8idThread18Event_AngToForwardER8idAngles, @function
_ZN8idThread18Event_AngToForwardER8idAngles:
.LFB2908:
	.loc 2 1262 0
	.cfi_startproc
.LVL172:
	stwu 1,-24(1)
.LCFI56:
	.cfi_def_cfa_offset 24
	mflr 0
	.loc 2 1263 0
	addi 3,1,8
.LVL173:
	.loc 2 1262 0
	stw 0,28(1)
	.loc 2 1263 0
	.cfi_offset 65, 4
	bl _ZNK8idAngles9ToForwardEv
.LVL174:
.LBB1580:
	.loc 2 869 0
	lis 9,gameLocal+2311020@ha
.LBB1581:
.LBB1582:
.LBB1583:
.LBB1584:
	.loc 6 424 0
	lwz 0,8(1)
.LBE1584:
.LBE1583:
	.loc 5 594 0
	lwz 9,gameLocal+2311020@l(9)
	lwz 9,4(9)
.LVL175:
.LBB1586:
.LBB1585:
	.loc 6 424 0
	stw 0,0(9)
	.loc 6 425 0
	lwz 0,12(1)
	stw 0,4(9)
	.loc 6 426 0
	lwz 0,16(1)
	stw 0,8(9)
.LBE1585:
.LBE1586:
.LBE1582:
.LBE1581:
.LBE1580:
	.loc 2 1264 0
	lwz 0,28(1)
	addi 1,1,24
.LCFI57:
	.cfi_def_cfa_offset 0
	mtlr 0
	blr
	.cfi_endproc
.LFE2908:
	.size	_ZN8idThread18Event_AngToForwardER8idAngles, .-_ZN8idThread18Event_AngToForwardER8idAngles
	.align 2
	.globl _ZN8idThread25Event_GetPersistantVectorEPKc
	.type	_ZN8idThread25Event_GetPersistantVectorEPKc, @function
_ZN8idThread25Event_GetPersistantVectorEPKc:
.LFB2907:
	.loc 2 1250 0
	.cfi_startproc
.LVL176:
	stwu 1,-24(1)
.LCFI58:
	.cfi_def_cfa_offset 24
	mflr 0
.LBB1587:
	.loc 2 1253 0
	lis 3,gameLocal+33380@ha
.LVL177:
	lis 5,.LC11@ha
	addi 6,1,8
	la 3,gameLocal+33380@l(3)
	la 5,.LC11@l(5)
.LBE1587:
	.loc 2 1250 0
	stw 0,28(1)
.LBB1595:
	.loc 2 1253 0
	.cfi_offset 65, 4
	bl _ZNK6idDict9GetVectorEPKcS1_R6idVec3
.LVL178:
.LBB1588:
	.loc 2 869 0
	lis 9,gameLocal+2311020@ha
.LBB1589:
.LBB1590:
	.loc 5 594 0
	lwz 9,gameLocal+2311020@l(9)
.LBB1591:
.LBB1592:
	.loc 6 424 0
	lwz 0,8(1)
.LBE1592:
.LBE1591:
	.loc 5 594 0
	lwz 9,4(9)
.LVL179:
.LBB1594:
.LBB1593:
	.loc 6 424 0
	stw 0,0(9)
	.loc 6 425 0
	lwz 0,12(1)
	stw 0,4(9)
	.loc 6 426 0
	lwz 0,16(1)
	stw 0,8(9)
.LBE1593:
.LBE1594:
.LBE1590:
.LBE1589:
.LBE1588:
.LBE1595:
	.loc 2 1255 0
	lwz 0,28(1)
	addi 1,1,24
.LCFI59:
	.cfi_def_cfa_offset 0
	mtlr 0
	blr
	.cfi_endproc
.LFE2907:
	.size	_ZN8idThread25Event_GetPersistantVectorEPKc, .-_ZN8idThread25Event_GetPersistantVectorEPKc
	.align 2
	.globl _ZN8idThread24Event_GetPersistantFloatEPKc
	.type	_ZN8idThread24Event_GetPersistantFloatEPKc, @function
_ZN8idThread24Event_GetPersistantFloatEPKc:
.LFB2906:
	.loc 2 1238 0
	.cfi_startproc
.LVL180:
	stwu 1,-24(1)
.LCFI60:
	.cfi_def_cfa_offset 24
	mflr 0
.LBB1596:
	.loc 2 1241 0
	lis 3,gameLocal+33380@ha
.LVL181:
	lis 5,.LC12@ha
	addi 6,1,8
	la 3,gameLocal+33380@l(3)
	la 5,.LC12@l(5)
.LBE1596:
	.loc 2 1238 0
	stw 0,28(1)
.LBB1600:
	.loc 2 1241 0
	.cfi_offset 65, 4
	bl _ZNK6idDict8GetFloatEPKcS1_Rf
.LVL182:
.LBB1597:
	.loc 2 849 0
	lis 9,gameLocal+2311020@ha
.LBB1598:
.LBB1599:
	.loc 5 576 0
	lwz 9,gameLocal+2311020@l(9)
.LVL183:
	lwz 0,8(1)
	lwz 9,4(9)
	stw 0,0(9)
.LBE1599:
.LBE1598:
.LBE1597:
.LBE1600:
	.loc 2 1243 0
	lwz 0,28(1)
	addi 1,1,24
.LCFI61:
	.cfi_def_cfa_offset 0
	mtlr 0
	blr
	.cfi_endproc
.LFE2906:
	.size	_ZN8idThread24Event_GetPersistantFloatEPKc, .-_ZN8idThread24Event_GetPersistantFloatEPKc
	.align 2
	.globl _ZN8idThread22Event_SetPersistantArgEPKcS1_
	.type	_ZN8idThread22Event_SetPersistantArgEPKcS1_, @function
_ZN8idThread22Event_SetPersistantArgEPKcS1_:
.LFB2904:
	.loc 2 1217 0
	.cfi_startproc
.LVL184:
	mflr 0
	stwu 1,-8(1)
.LCFI62:
	.cfi_def_cfa_offset 8
	.cfi_register 65, 0
	.loc 2 1218 0
	lis 3,gameLocal+33380@ha
.LVL185:
	la 3,gameLocal+33380@l(3)
	.loc 2 1217 0
	stw 0,12(1)
	.loc 2 1218 0
	.cfi_offset 65, 4
	bl _ZN6idDict3SetEPKcS1_
.LVL186:
	.loc 2 1219 0
	lwz 0,12(1)
	addi 1,1,8
.LCFI63:
	.cfi_def_cfa_offset 0
	mtlr 0
	blr
	.cfi_endproc
.LFE2904:
	.size	_ZN8idThread22Event_SetPersistantArgEPKcS1_, .-_ZN8idThread22Event_SetPersistantArgEPKcS1_
	.align 2
	.globl _ZN8idThread17Event_SetSpawnArgEPKcS1_
	.type	_ZN8idThread17Event_SetSpawnArgEPKcS1_, @function
_ZN8idThread17Event_SetSpawnArgEPKcS1_:
.LFB2899:
	.loc 2 1162 0
	.cfi_startproc
.LVL187:
	mflr 0
	stwu 1,-8(1)
.LCFI64:
	.cfi_def_cfa_offset 8
	.cfi_register 65, 0
	.loc 2 1163 0
	addi 3,3,6976
.LVL188:
	.loc 2 1162 0
	stw 0,12(1)
	.loc 2 1163 0
	.cfi_offset 65, 4
	bl _ZN6idDict3SetEPKcS1_
.LVL189:
	.loc 2 1164 0
	lwz 0,12(1)
	addi 1,1,8
.LCFI65:
	.cfi_def_cfa_offset 0
	mtlr 0
	blr
	.cfi_endproc
.LFE2899:
	.size	_ZN8idThread17Event_SetSpawnArgEPKcS1_, .-_ZN8idThread17Event_SetSpawnArgEPKcS1_
	.align 2
	.globl _ZN8idThread25Event_ClearPersistantArgsEv
	.type	_ZN8idThread25Event_ClearPersistantArgsEv, @function
_ZN8idThread25Event_ClearPersistantArgsEv:
.LFB2903:
	.loc 2 1207 0
	.cfi_startproc
.LVL190:
	mflr 0
	stwu 1,-8(1)
.LCFI66:
	.cfi_def_cfa_offset 8
	.cfi_register 65, 0
	.loc 2 1208 0
	lis 3,gameLocal+33380@ha
.LVL191:
	la 3,gameLocal+33380@l(3)
	.loc 2 1207 0
	stw 0,12(1)
	.loc 2 1208 0
	.cfi_offset 65, 4
	bl _ZN6idDict5ClearEv
	.loc 2 1209 0
	lwz 0,12(1)
	addi 1,1,8
.LCFI67:
	.cfi_def_cfa_offset 0
	mtlr 0
	blr
	.cfi_endproc
.LFE2903:
	.size	_ZN8idThread25Event_ClearPersistantArgsEv, .-_ZN8idThread25Event_ClearPersistantArgsEv
	.align 2
	.globl _ZN8idThread9Event_SayEPKc
	.type	_ZN8idThread9Event_SayEPKc, @function
_ZN8idThread9Event_SayEPKc:
.LFB2888:
	.loc 2 1037 0
	.cfi_startproc
.LVL192:
	mflr 0
	stwu 1,-16(1)
.LCFI68:
	.cfi_def_cfa_offset 16
	.cfi_register 65, 0
	.loc 2 1038 0
	lis 9,cmdSystem@ha
	lis 3,.LC13@ha
.LVL193:
	.loc 2 1037 0
	stw 30,8(1)
	.loc 2 1038 0
	la 3,.LC13@l(3)
	.loc 2 1037 0
	stw 0,20(1)
	stw 31,12(1)
	.loc 2 1038 0
	lwz 30,cmdSystem@l(9)
	.cfi_offset 31, -4
	.cfi_offset 65, 4
	.cfi_offset 30, -8
	lwz 9,0(30)
	lwz 31,36(9)
	crxor 6,6,6
	bl _Z2vaPKcz
.LVL194:
	mr 5,3
	li 4,0
	mr 3,30
	mtctr 31
	bctrl
	.loc 2 1039 0
	lwz 0,20(1)
	lwz 30,8(1)
	mtlr 0
	lwz 31,12(1)
	addi 1,1,16
.LCFI69:
	.cfi_def_cfa_offset 0
	.cfi_restore 31
	.cfi_restore 30
	blr
	.cfi_endproc
.LFE2888:
	.size	_ZN8idThread9Event_SayEPKc, .-_ZN8idThread9Event_SayEPKc
	.align 2
	.globl _ZN8idThread16Event_SpawnFloatEPKcf
	.type	_ZN8idThread16Event_SpawnFloatEPKcf, @function
_ZN8idThread16Event_SpawnFloatEPKcf:
.LFB2901:
	.loc 2 1183 0
	.cfi_startproc
.LVL195:
	stwu 1,-40(1)
.LCFI70:
	.cfi_def_cfa_offset 40
	mflr 0
	stw 31,36(1)
	mr 31,3
	.cfi_offset 31, -4
	.cfi_register 65, 0
.LBB1601:
	.loc 2 1186 0
	lis 3,.LC14@ha
.LVL196:
.LBE1601:
	.loc 2 1183 0
	stw 0,44(1)
.LBB1605:
	.loc 2 1186 0
	la 3,.LC14@l(3)
	stw 4,24(1)
	.cfi_offset 65, 4
	creqv 6,6,6
	bl _Z2vaPKcz
.LVL197:
	lwz 4,24(1)
	mr 5,3
	addi 6,1,8
	addi 3,31,6976
	bl _ZNK6idDict8GetFloatEPKcS1_Rf
.LBB1602:
	.loc 2 849 0
	lis 9,gameLocal+2311020@ha
.LBB1603:
.LBB1604:
	.loc 5 576 0
	lwz 9,gameLocal+2311020@l(9)
.LVL198:
	lwz 0,8(1)
	lwz 9,4(9)
	stw 0,0(9)
.LBE1604:
.LBE1603:
.LBE1602:
.LBE1605:
	.loc 2 1188 0
	lwz 0,44(1)
	lwz 31,36(1)
.LVL199:
	mtlr 0
	addi 1,1,40
.LCFI71:
	.cfi_def_cfa_offset 0
	.cfi_restore 31
	blr
	.cfi_endproc
.LFE2901:
	.size	_ZN8idThread16Event_SpawnFloatEPKcf, .-_ZN8idThread16Event_SpawnFloatEPKcf
	.align 2
	.globl _ZN8idThread17Event_SpawnVectorEPKcR6idVec3
	.type	_ZN8idThread17Event_SpawnVectorEPKcR6idVec3, @function
_ZN8idThread17Event_SpawnVectorEPKcR6idVec3:
.LFB2902:
	.loc 2 1195 0
	.cfi_startproc
.LVL200:
	mflr 0
	stwu 1,-40(1)
.LCFI72:
	.cfi_def_cfa_offset 40
	.cfi_register 65, 0
	stw 31,36(1)
	mr 31,3
	.cfi_offset 31, -4
	stw 0,44(1)
.LBB1606:
	.loc 2 1198 0
	lis 3,.LC15@ha
.LVL201:
	la 3,.LC15@l(3)
	lfs 1,0(5)
	lfs 2,4(5)
	lfs 3,8(5)
	stw 4,24(1)
	.cfi_offset 65, 4
	creqv 6,6,6
	bl _Z2vaPKcz
.LVL202:
	lwz 4,24(1)
	mr 5,3
	addi 6,1,8
	addi 3,31,6976
	bl _ZNK6idDict9GetVectorEPKcS1_R6idVec3
.LVL203:
.LBB1607:
	.loc 2 869 0
	lis 9,gameLocal+2311020@ha
.LBB1608:
.LBB1609:
	.loc 5 594 0
	lwz 9,gameLocal+2311020@l(9)
.LBB1610:
.LBB1611:
	.loc 6 424 0
	lwz 0,8(1)
.LBE1611:
.LBE1610:
	.loc 5 594 0
	lwz 9,4(9)
.LVL204:
.LBB1613:
.LBB1612:
	.loc 6 424 0
	stw 0,0(9)
	.loc 6 425 0
	lwz 0,12(1)
	stw 0,4(9)
	.loc 6 426 0
	lwz 0,16(1)
	stw 0,8(9)
.LBE1612:
.LBE1613:
.LBE1609:
.LBE1608:
.LBE1607:
.LBE1606:
	.loc 2 1200 0
	lwz 0,44(1)
	lwz 31,36(1)
.LVL205:
	mtlr 0
	addi 1,1,40
.LCFI73:
	.cfi_def_cfa_offset 0
	.cfi_restore 31
	blr
	.cfi_endproc
.LFE2902:
	.size	_ZN8idThread17Event_SpawnVectorEPKcR6idVec3, .-_ZN8idThread17Event_SpawnVectorEPKcR6idVec3
	.align 2
	.globl _ZN8idThread19Event_CopySpawnArgsEP8idEntity
	.type	_ZN8idThread19Event_CopySpawnArgsEP8idEntity, @function
_ZN8idThread19Event_CopySpawnArgsEP8idEntity:
.LFB2898:
	.loc 2 1153 0
	.cfi_startproc
.LVL206:
	mflr 0
	stwu 1,-8(1)
.LCFI74:
	.cfi_def_cfa_offset 8
	.cfi_register 65, 0
	.loc 2 1154 0
	addi 3,3,6976
.LVL207:
	addi 4,4,100
.LVL208:
	.loc 2 1153 0
	stw 0,12(1)
	.loc 2 1154 0
	.cfi_offset 65, 4
	bl _ZN6idDict4CopyERKS_
.LVL209:
	.loc 2 1155 0
	lwz 0,12(1)
	addi 1,1,8
.LCFI75:
	.cfi_def_cfa_offset 0
	mtlr 0
	blr
	.cfi_endproc
.LFE2898:
	.size	_ZN8idThread19Event_CopySpawnArgsEP8idEntity, .-_ZN8idThread19Event_CopySpawnArgsEP8idEntity
	.align 2
	.globl _ZN8idThread13Event_TriggerEP8idEntity
	.type	_ZN8idThread13Event_TriggerEP8idEntity, @function
_ZN8idThread13Event_TriggerEP8idEntity:
.LFB2890:
	.loc 2 1055 0
	.cfi_startproc
.LVL210:
	stwu 1,-24(1)
.LCFI76:
	.cfi_def_cfa_offset 24
	mflr 0
	stw 31,20(1)
	.loc 2 1056 0
	mr. 31,4
	.cfi_offset 31, -4
	.cfi_register 65, 0
	.loc 2 1055 0
	stw 0,28(1)
	.loc 2 1056 0
	beq- 0,.L59
	.cfi_offset 65, 4
	.loc 2 1057 0
	li 4,2
.LVL211:
	mr 3,31
.LVL212:
	bl _ZN8idEntity6SignalE11signalNum_t
	.loc 2 1058 0
	lis 3,gameLocal@ha
	la 3,gameLocal@l(3)
	bl _ZNK11idGameLocal14GetLocalPlayerEv
.LVL213:
	lis 4,EV_Activate@ha
	stw 3,12(1)
	li 0,101
	la 4,EV_Activate@l(4)
	mr 3,31
.LVL214:
	addi 5,1,8
	stw 0,8(1)
	bl _ZN7idClass12ProcessEventEPK10idEventDef10idEventArg
.LVL215:
	.loc 2 1059 0
	mr 3,31
	bl _ZN8idEntity11TriggerGuisEv
.LVL216:
.L59:
	.loc 2 1061 0
	lwz 0,28(1)
	lwz 31,20(1)
.LVL217:
	mtlr 0
	addi 1,1,24
.LCFI77:
	.cfi_def_cfa_offset 0
	.cfi_restore 31
	blr
	.cfi_endproc
.LFE2890:
	.size	_ZN8idThread13Event_TriggerEP8idEntity, .-_ZN8idThread13Event_TriggerEP8idEntity
	.align 2
	.globl _ZN8idThread13Event_PrintLnEPKc
	.type	_ZN8idThread13Event_PrintLnEPKc, @function
_ZN8idThread13Event_PrintLnEPKc:
.LFB2887:
	.loc 2 1028 0
	.cfi_startproc
.LVL218:
	mflr 0
	stwu 1,-8(1)
.LCFI78:
	.cfi_def_cfa_offset 8
	.cfi_register 65, 0
	mr 5,4
	.loc 2 1029 0
	lis 3,gameLocal@ha
.LVL219:
	lis 4,.LC16@ha
.LVL220:
	la 3,gameLocal@l(3)
	la 4,.LC16@l(4)
	.loc 2 1028 0
	stw 0,12(1)
	.loc 2 1029 0
	.cfi_offset 65, 4
	crxor 6,6,6
	bl _ZNK11idGameLocal6PrintfEPKcz
.LVL221:
	.loc 2 1030 0
	lwz 0,12(1)
	addi 1,1,8
.LCFI79:
	.cfi_def_cfa_offset 0
	mtlr 0
	blr
	.cfi_endproc
.LFE2887:
	.size	_ZN8idThread13Event_PrintLnEPKc, .-_ZN8idThread13Event_PrintLnEPKc
	.align 2
	.globl _ZN8idThread11Event_PrintEPKc
	.type	_ZN8idThread11Event_PrintEPKc, @function
_ZN8idThread11Event_PrintEPKc:
.LFB2886:
	.loc 2 1019 0
	.cfi_startproc
.LVL222:
	mflr 0
	stwu 1,-8(1)
.LCFI80:
	.cfi_def_cfa_offset 8
	.cfi_register 65, 0
	mr 5,4
	.loc 2 1020 0
	lis 3,gameLocal@ha
.LVL223:
	lis 4,.LC17@ha
.LVL224:
	la 3,gameLocal@l(3)
	la 4,.LC17@l(4)
	.loc 2 1019 0
	stw 0,12(1)
	.loc 2 1020 0
	.cfi_offset 65, 4
	crxor 6,6,6
	bl _ZNK11idGameLocal6PrintfEPKcz
.LVL225:
	.loc 2 1021 0
	lwz 0,12(1)
	addi 1,1,8
.LCFI81:
	.cfi_def_cfa_offset 0
	mtlr 0
	blr
	.cfi_endproc
.LFE2886:
	.size	_ZN8idThread11Event_PrintEPKc, .-_ZN8idThread11Event_PrintEPKc
	.align 2
	.globl _ZN8idThread19Event_SetThreadNameEPKc
	.type	_ZN8idThread19Event_SetThreadNameEPKc, @function
_ZN8idThread19Event_SetThreadNameEPKc:
.LFB2867:
	.loc 2 798 0
	.cfi_startproc
.LVL226:
	mflr 0
	stwu 1,-8(1)
.LCFI82:
	.cfi_def_cfa_offset 8
	.cfi_register 65, 0
.LBB1614:
.LBB1615:
	.loc 2 584 0
	addi 3,3,7024
.LVL227:
.LBE1615:
.LBE1614:
	.loc 2 798 0
	stw 0,12(1)
.LBB1617:
.LBB1616:
	.loc 2 584 0
	.cfi_offset 65, 4
	bl _ZN5idStraSEPKc
.LVL228:
.LBE1616:
.LBE1617:
	.loc 2 800 0
	lwz 0,12(1)
	addi 1,1,8
.LCFI83:
	.cfi_def_cfa_offset 0
	mtlr 0
	blr
	.cfi_endproc
.LFE2867:
	.size	_ZN8idThread19Event_SetThreadNameEPKc, .-_ZN8idThread19Event_SetThreadNameEPKc
	.align 2
	.globl _ZN8idThread7RestoreEP13idRestoreGame
	.type	_ZN8idThread7RestoreEP13idRestoreGame, @function
_ZN8idThread7RestoreEP13idRestoreGame:
.LFB2846:
	.loc 2 407 0
	.cfi_startproc
.LVL229:
	stwu 1,-16(1)
.LCFI84:
	.cfi_def_cfa_offset 16
	mflr 0
	stw 31,12(1)
	mr 31,3
	.cfi_offset 31, -4
	.cfi_register 65, 0
	stw 30,8(1)
	.loc 2 408 0
	mr 3,4
.LVL230:
	.loc 2 407 0
	mr 30,4
	.cfi_offset 30, -8
	.loc 2 408 0
	addi 4,31,7020
.LVL231:
	.loc 2 407 0
	stw 0,20(1)
	.loc 2 408 0
	.cfi_offset 65, 4
	bl _ZN13idRestoreGame7ReadIntERi
.LVL232:
	.loc 2 410 0
	mr 3,30
	addi 4,31,4
	bl _ZN13idRestoreGame10ReadObjectERP7idClass
	.loc 2 411 0
	mr 3,30
	addi 4,31,8
	bl _ZN13idRestoreGame7ReadIntERi
	.loc 2 412 0
	mr 3,30
	addi 4,31,12
	bl _ZN13idRestoreGame7ReadIntERi
	.loc 2 414 0
	mr 4,30
	addi 3,31,16
	bl _ZN13idInterpreter7RestoreEP13idRestoreGame
	.loc 2 416 0
	mr 3,30
	addi 4,31,6976
	bl _ZN13idRestoreGame8ReadDictEP6idDict
	.loc 2 417 0
	mr 3,30
	addi 4,31,7024
	bl _ZN13idRestoreGame10ReadStringER5idStr
	.loc 2 419 0
	mr 3,30
	addi 4,31,7056
	bl _ZN13idRestoreGame7ReadIntERi
	.loc 2 420 0
	mr 3,30
	addi 4,31,7060
	bl _ZN13idRestoreGame7ReadIntERi
	.loc 2 422 0
	mr 3,30
	addi 4,31,7064
	bl _ZN13idRestoreGame8ReadBoolERb
	.loc 2 423 0
	lwz 0,20(1)
	lwz 30,8(1)
.LVL233:
	mtlr 0
	lwz 31,12(1)
.LVL234:
	addi 1,1,16
.LCFI85:
	.cfi_def_cfa_offset 0
	.cfi_restore 31
	.cfi_restore 30
	blr
	.cfi_endproc
.LFE2846:
	.size	_ZN8idThread7RestoreEP13idRestoreGame, .-_ZN8idThread7RestoreEP13idRestoreGame
	.align 2
	.globl _ZNK8idThread4SaveEP10idSaveGame
	.type	_ZNK8idThread4SaveEP10idSaveGame, @function
_ZNK8idThread4SaveEP10idSaveGame:
.LFB2845:
	.loc 2 381 0
	.cfi_startproc
.LVL235:
	mflr 0
	stwu 1,-16(1)
.LCFI86:
	.cfi_def_cfa_offset 16
	.cfi_register 65, 0
	stw 30,8(1)
	mr 30,4
	.cfi_offset 30, -8
	stw 0,20(1)
	stw 31,12(1)
	.loc 2 381 0
	mr 31,3
	.cfi_offset 31, -4
	.cfi_offset 65, 4
	.loc 2 385 0
	lwz 4,7020(3)
.LVL236:
	mr 3,30
.LVL237:
	bl _ZN10idSaveGame8WriteIntEi
	.loc 2 387 0
	lwz 4,4(31)
	mr 3,30
	bl _ZN10idSaveGame11WriteObjectEPK7idClass
	.loc 2 388 0
	lwz 4,8(31)
	mr 3,30
	bl _ZN10idSaveGame8WriteIntEi
	.loc 2 389 0
	lwz 4,12(31)
	mr 3,30
	bl _ZN10idSaveGame8WriteIntEi
	.loc 2 391 0
	mr 4,30
	addi 3,31,16
	bl _ZNK13idInterpreter4SaveEP10idSaveGame
	.loc 2 393 0
	mr 3,30
	addi 4,31,6976
	bl _ZN10idSaveGame9WriteDictEPK6idDict
.LVL238:
	.loc 2 394 0
	lwz 4,7028(31)
	mr 3,30
	bl _ZN10idSaveGame11WriteStringEPKc
	.loc 2 396 0
	lwz 4,7056(31)
	mr 3,30
	bl _ZN10idSaveGame8WriteIntEi
	.loc 2 397 0
	lwz 4,7060(31)
	mr 3,30
	bl _ZN10idSaveGame8WriteIntEi
	.loc 2 399 0
	lbz 4,7064(31)
	mr 3,30
	bl _ZN10idSaveGame9WriteBoolEb
	.loc 2 400 0
	lwz 0,20(1)
	lwz 30,8(1)
.LVL239:
	mtlr 0
	lwz 31,12(1)
.LVL240:
	addi 1,1,16
.LCFI87:
	.cfi_def_cfa_offset 0
	.cfi_restore 31
	.cfi_restore 30
	blr
	.cfi_endproc
.LFE2845:
	.size	_ZNK8idThread4SaveEP10idSaveGame, .-_ZNK8idThread4SaveEP10idSaveGame
	.align 2
	.globl _ZN8idThread21Event_InfluenceActiveEv
	.type	_ZN8idThread21Event_InfluenceActiveEv, @function
_ZN8idThread21Event_InfluenceActiveEv:
.LFB2955:
	.loc 2 1854 0
	.cfi_startproc
.LVL241:
	stwu 1,-16(1)
.LCFI88:
	.cfi_def_cfa_offset 16
	mflr 0
	stw 31,12(1)
.LBB1631:
	.loc 2 1857 0
	lis 31,gameLocal@ha
	.cfi_offset 31, -4
	.cfi_register 65, 0
	la 31,gameLocal@l(31)
.LBE1631:
	.loc 2 1854 0
	stw 0,20(1)
.LBB1635:
	.loc 2 1857 0
	mr 3,31
.LVL242:
.LBE1635:
.LBB1636:
.LBB1637:
.LBB1638:
.LBB1639:
	.loc 2 860 0
	addis 31,31,0x23
.LBE1639:
.LBE1638:
.LBE1637:
.LBE1636:
.LBB1645:
	.loc 2 1857 0
	.cfi_offset 65, 4
	bl _ZNK11idGameLocal14GetLocalPlayerEv
.LVL243:
	.loc 2 1858 0
	cmpwi 0,3,0
	beq- 0,.L67
	.loc 2 1858 0 is_stmt 0 discriminator 1
	lwz 0,6200(3)
	cmpwi 7,0,0
	bne- 7,.L69
.L67:
.LVL244:
.LBB1632:
.LBB1633:
.LBB1634:
	.loc 5 576 0 is_stmt 1
	lwz 9,17260(31)
	li 0,0
	lwz 9,4(9)
	stw 0,0(9)
.LBE1634:
.LBE1633:
.LBE1632:
.LBE1645:
	.loc 2 1863 0
	lwz 0,20(1)
	lwz 31,12(1)
	mtlr 0
	addi 1,1,16
	.cfi_remember_state
.LCFI89:
	.cfi_def_cfa_offset 0
	.cfi_restore 31
	blr
.LVL245:
.L69:
.LCFI90:
	.cfi_restore_state
.LBB1646:
.LBB1644:
.LBB1643:
.LBB1642:
.LBB1640:
.LBB1641:
	.loc 5 576 0 discriminator 4
	lwz 9,17260(31)
	lis 11,.LC10@ha
	lwz 0,.LC10@l(11)
	lwz 9,4(9)
	stw 0,0(9)
.LBE1641:
.LBE1640:
.LBE1642:
.LBE1643:
.LBE1644:
.LBE1646:
	.loc 2 1863 0 discriminator 4
	lwz 0,20(1)
	lwz 31,12(1)
	mtlr 0
	addi 1,1,16
	.cfi_restore 31
.LCFI91:
	.cfi_def_cfa_offset 0
	blr
	.cfi_endproc
.LFE2955:
	.size	_ZN8idThread21Event_InfluenceActiveEv, .-_ZN8idThread21Event_InfluenceActiveEv
	.align 2
	.globl _ZN8idThread20Event_GetTraceNormalEv
	.type	_ZN8idThread20Event_GetTraceNormalEv, @function
_ZN8idThread20Event_GetTraceNormalEv:
.LFB2927:
	.loc 2 1485 0
	.cfi_startproc
.LVL246:
	.loc 2 1486 0
	lis 9,.LANCHOR0@ha
	lis 11,.LC10@ha
	la 9,.LANCHOR0@l(9)
	lfs 0,.LC10@l(11)
	lfs 13,80(9)
	fcmpu 7,13,0
	blt- 7,.L76
.LVL247:
.LBB1664:
	.loc 2 869 0
	lis 9,gameLocal+2311020@ha
.LBB1665:
.LBB1666:
.LBB1667:
.LBB1668:
	.loc 6 424 0
	lis 11,vec3_origin@ha
.LBE1668:
.LBE1667:
	.loc 5 594 0
	lwz 9,gameLocal+2311020@l(9)
.LBB1671:
.LBB1669:
	.loc 6 424 0
	lwz 0,vec3_origin@l(11)
	la 11,vec3_origin@l(11)
.LBE1669:
.LBE1671:
	.loc 5 594 0
	lwz 9,4(9)
.LVL248:
.LBB1672:
.LBB1670:
	.loc 6 424 0
	stw 0,0(9)
	.loc 6 425 0
	lwz 0,4(11)
	stw 0,4(9)
	.loc 6 426 0
	lwz 0,8(11)
	stw 0,8(9)
	blr
.LVL249:
.L76:
.LBE1670:
.LBE1672:
.LBE1666:
.LBE1665:
.LBE1664:
.LBB1673:
.LBB1674:
.LBB1675:
	.loc 2 869 0
	lis 11,gameLocal+2311020@ha
.LBB1676:
.LBB1677:
.LBB1678:
.LBB1679:
	.loc 6 424 0
	lwz 0,148(9)
.LBE1679:
.LBE1678:
	.loc 5 594 0
	lwz 11,gameLocal+2311020@l(11)
	lwz 11,4(11)
.LVL250:
.LBB1681:
.LBB1680:
	.loc 6 424 0
	stw 0,0(11)
	.loc 6 425 0
	lwz 0,152(9)
	stw 0,4(11)
	.loc 6 426 0
	lwz 0,156(9)
	stw 0,8(11)
	blr
.LBE1680:
.LBE1681:
.LBE1677:
.LBE1676:
.LBE1675:
.LBE1674:
.LBE1673:
	.cfi_endproc
.LFE2927:
	.size	_ZN8idThread20Event_GetTraceNormalEv, .-_ZN8idThread20Event_GetTraceNormalEv
	.align 2
	.globl _ZN8idThread13Event_WaitForEP8idEntity
	.type	_ZN8idThread13Event_WaitForEP8idEntity, @function
_ZN8idThread13Event_WaitForEP8idEntity:
.LFB2884:
	.loc 2 984 0
	.cfi_startproc
.LVL251:
	stwu 1,-16(1)
.LCFI92:
	.cfi_def_cfa_offset 16
	mflr 0
	stw 31,12(1)
	.loc 2 985 0
	mr. 31,4
	.cfi_offset 31, -4
	.cfi_register 65, 0
	.loc 2 984 0
	stw 30,8(1)
	mr 30,3
	.cfi_offset 30, -8
	stw 0,20(1)
	.loc 2 985 0
	beq- 0,.L77
	.cfi_offset 65, 4
.LVL252:
.LBB1700:
.LBB1701:
	.file 8 "d:/Data/Nintendo/DoomGX/src/game/script/../gamesys/Class.h"
	.loc 8 353 0 discriminator 1
	lwz 9,0(31)
	mr 3,31
.LVL253:
	lwz 0,0(9)
	mtctr 0
	bctrl
.LVL254:
.LBB1702:
	.loc 2 985 0 discriminator 1
	lis 4,.LANCHOR0@ha
	la 4,.LANCHOR0@l(4)
.LBB1703:
	.loc 8 321 0 discriminator 1
	lwz 9,40(3)
.LBE1703:
	.loc 2 985 0 discriminator 1
	addi 4,4,188
.LBB1704:
	.loc 8 321 0 discriminator 1
	lwz 0,56(4)
	slwi 0,0,3
	lwzx 0,9,0
	cmpwi 7,0,0
	beq- 7,.L77
.LBE1704:
.LBE1702:
.LBE1701:
.LBE1700:
	.loc 2 986 0 discriminator 4
	mr 3,31
.LVL255:
	bl _ZN7idClass12ProcessEventEPK10idEventDef
.LBB1705:
.LBB1706:
	.loc 2 987 0 discriminator 4
	lis 9,gameLocal+2311020@ha
	.loc 5 567 0 discriminator 4
	lwz 9,gameLocal+2311020@l(9)
	lwz 9,4(9)
.LBE1706:
.LBE1705:
	.loc 2 987 0 discriminator 4
	lwz 0,0(9)
	cmpwi 7,0,0
	beq- 7,.L77
.LVL256:
.LBB1707:
.LBB1708:
.LBB1709:
.LBB1710:
.LBB1711:
.LBB1712:
	.loc 2 749 0
	li 0,0
	.loc 2 748 0
	li 9,4095
	.loc 2 749 0
	stw 0,4(30)
	.loc 2 750 0
	stw 0,12(30)
.LBE1712:
.LBE1711:
	.loc 2 897 0
	li 0,1
.LBB1714:
.LBB1713:
	.loc 2 748 0
	stw 9,8(30)
.LBE1713:
.LBE1714:
	.loc 2 897 0
	stb 0,6972(30)
.LBE1710:
.LBE1709:
	.loc 2 989 0
	lwz 0,4(31)
	stw 0,8(30)
.LVL257:
.L77:
.LBE1708:
.LBE1707:
	.loc 2 992 0
	lwz 0,20(1)
	lwz 30,8(1)
.LVL258:
	mtlr 0
	lwz 31,12(1)
.LVL259:
	addi 1,1,16
.LCFI93:
	.cfi_def_cfa_offset 0
	.cfi_restore 31
	.cfi_restore 30
	blr
	.cfi_endproc
.LFE2884:
	.size	_ZN8idThread13Event_WaitForEP8idEntity, .-_ZN8idThread13Event_WaitForEP8idEntity
	.section	.text._ZN14idFixedWindingD2Ev,"axG",@progbits,_ZN14idFixedWindingD5Ev,comdat
	.align 2
	.weak	_ZN14idFixedWindingD2Ev
	.type	_ZN14idFixedWindingD2Ev, @function
_ZN14idFixedWindingD2Ev:
.LFB1498:
	.loc 1 380 0
	.cfi_startproc
.LVL260:
.LBB1720:
	.loc 1 381 0
	li 0,0
.LBB1721:
.LBB1722:
.LBB1723:
	.loc 1 183 0
	lis 9,_ZTV9idWinding+8@ha
.LBE1723:
.LBE1722:
.LBE1721:
	.loc 1 381 0
	stw 0,8(3)
.LVL261:
.LBB1726:
.LBB1725:
.LBB1724:
	.loc 1 183 0
	la 0,_ZTV9idWinding+8@l(9)
	stw 0,0(3)
.LBE1724:
.LBE1725:
.LBE1726:
.LBE1720:
	.loc 1 382 0
	blr
	.cfi_endproc
.LFE1498:
	.size	_ZN14idFixedWindingD2Ev, .-_ZN14idFixedWindingD2Ev
	.section	.text._ZN14idFixedWindingD0Ev,"axG",@progbits,_ZN14idFixedWindingD5Ev,comdat
	.align 2
	.weak	_ZN14idFixedWindingD0Ev
	.type	_ZN14idFixedWindingD0Ev, @function
_ZN14idFixedWindingD0Ev:
.LFB1500:
	.loc 1 380 0
	.cfi_startproc
.LVL262:
	mflr 0
	stwu 1,-8(1)
.LCFI94:
	.cfi_def_cfa_offset 8
	.cfi_register 65, 0
.LBB1733:
.LBB1734:
.LBB1735:
.LBB1736:
.LBB1737:
.LBB1738:
	.loc 1 183 0
	lis 11,_ZTV9idWinding+8@ha
.LBE1738:
.LBE1737:
.LBE1736:
.LBE1735:
.LBE1734:
.LBE1733:
	.loc 1 380 0
	stw 0,12(1)
.LBB1744:
.LBB1743:
.LBB1742:
	.loc 1 381 0
	li 0,0
	.cfi_offset 65, 4
	stw 0,8(3)
.LVL263:
.LBB1741:
.LBB1740:
.LBB1739:
	.loc 1 183 0
	la 0,_ZTV9idWinding+8@l(11)
	stw 0,0(3)
.LBE1739:
.LBE1740:
.LBE1741:
.LBE1742:
.LBE1743:
.LBE1744:
	.loc 1 382 0
	bl _ZdlPv
.LVL264:
	lwz 0,12(1)
	addi 1,1,8
.LCFI95:
	.cfi_def_cfa_offset 0
	mtlr 0
	blr
	.cfi_endproc
.LFE1500:
	.size	_ZN14idFixedWindingD0Ev, .-_ZN14idFixedWindingD0Ev
	.section	.text._ZN9idWindingD0Ev,"axG",@progbits,_ZN9idWindingD5Ev,comdat
	.align 2
	.weak	_ZN9idWindingD0Ev
	.type	_ZN9idWindingD0Ev, @function
_ZN9idWindingD0Ev:
.LFB1463:
	.loc 1 183 0
	.cfi_startproc
.LVL265:
	mflr 0
	stwu 1,-16(1)
.LCFI96:
	.cfi_def_cfa_offset 16
	.cfi_register 65, 0
.LBB1748:
.LBB1749:
.LBB1750:
	lis 9,_ZTV9idWinding+8@ha
.LBE1750:
.LBE1749:
.LBE1748:
	stw 31,12(1)
	mr 31,3
	.cfi_offset 31, -4
.LVL266:
	stw 0,20(1)
.LBB1755:
.LBB1753:
.LBB1751:
	.loc 1 183 0
	la 0,_ZTV9idWinding+8@l(9)
	.cfi_offset 65, 4
	.loc 1 184 0
	lwz 3,8(3)
.LVL267:
	.loc 1 183 0
	stw 0,0(31)
	.loc 1 184 0
	cmpwi 7,3,0
	beq- 7,.L87
	bl _ZdaPv
.L87:
	.loc 1 185 0
	li 0,0
.LBE1751:
.LBE1753:
.LBE1755:
	.loc 1 186 0
	mr 3,31
.LBB1756:
.LBB1754:
.LBB1752:
	.loc 1 185 0
	stw 0,8(31)
.LBE1752:
.LBE1754:
.LBE1756:
	.loc 1 186 0
	bl _ZdlPv
	lwz 0,20(1)
	lwz 31,12(1)
.LVL268:
	mtlr 0
	addi 1,1,16
.LCFI97:
	.cfi_def_cfa_offset 0
	.cfi_restore 31
	blr
	.cfi_endproc
.LFE1463:
	.size	_ZN9idWindingD0Ev, .-_ZN9idWindingD0Ev
	.section	".text"
	.align 2
	.globl _ZN8idThread18Event_VecNormalizeER6idVec3
	.type	_ZN8idThread18Event_VecNormalizeER6idVec3, @function
_ZN8idThread18Event_VecNormalizeER6idVec3:
.LFB2914:
	.loc 2 1322 0
	.cfi_startproc
.LVL269:
.LBB1770:
.LBB1771:
.LBB1772:
	.loc 6 425 0
	lfs 12,4(4)
.LBE1772:
.LBE1771:
.LBB1776:
.LBB1777:
.LBB1778:
.LBB1779:
	.loc 3 276 0
	lis 9,_ZN6idMath5iSqrtE@ha
.LBE1779:
.LBE1778:
.LBE1777:
.LBE1776:
.LBB1792:
.LBB1773:
	.loc 6 424 0
	lfs 11,0(4)
.LVL270:
.LBE1773:
.LBE1792:
.LBB1793:
.LBB1788:
.LBB1784:
.LBB1780:
	.loc 3 276 0
	la 9,_ZN6idMath5iSqrtE@l(9)
.LBE1780:
.LBE1784:
	.loc 6 649 0
	fmuls 0,12,12
.LBE1788:
.LBE1793:
.LBB1794:
.LBB1774:
	.loc 6 426 0
	lfs 13,8(4)
.LVL271:
.LBE1774:
.LBE1794:
.LBE1770:
	.loc 2 1322 0
	stwu 1,-16(1)
.LCFI98:
	.cfi_def_cfa_offset 16
.LBB1810:
.LBB1795:
.LBB1775:
	.loc 6 649 0
	fmadds 0,11,11,0
	fmadds 0,13,13,0
	stfs 0,8(1)
.LVL272:
.LBE1775:
.LBE1795:
.LBB1796:
.LBB1789:
.LBB1785:
.LBB1781:
	.loc 3 270 0
	lwz 0,8(1)
.LVL273:
	.loc 3 276 0
	rlwinm 11,0,9,24,31
	rlwinm 0,0,19,21,29
	lwzx 9,9,0
	subfic 0,11,380
	rlwinm 0,0,22,0,8
	.loc 3 275 0
	lis 11,.LC3@ha
	.loc 3 276 0
	or 0,0,9
	.loc 3 275 0
	lfs 7,.LC3@l(11)
	.loc 3 277 0
	stw 0,12(1)
	.loc 3 278 0
	lis 9,.LC5@ha
	.loc 3 275 0
	fmuls 7,0,7
.LVL274:
	.loc 3 278 0
	lfs 8,.LC5@l(9)
	.loc 3 277 0
	lfs 0,12(1)
.LVL275:
.LBE1781:
.LBE1785:
.LBE1789:
.LBE1796:
.LBB1797:
.LBB1798:
.LBB1799:
	.loc 5 594 0
	lis 9,gameLocal+2311020@ha
	lwz 9,gameLocal+2311020@l(9)
.LBE1799:
.LBE1798:
.LBE1797:
.LBB1806:
.LBB1790:
.LBB1786:
.LBB1782:
	.loc 3 277 0
	fmr 9,0
.LVL276:
	.loc 2 1322 0
	fneg 7,7
.LVL277:
.LBE1782:
.LBE1786:
.LBE1790:
.LBE1806:
.LBB1807:
.LBB1804:
.LBB1802:
	.loc 5 594 0
	lwz 9,4(9)
.LBE1802:
.LBE1804:
.LBE1807:
.LBB1808:
.LBB1791:
.LBB1787:
.LBB1783:
	.loc 3 278 0
	fmul 10,9,9
	fmadd 10,7,10,8
	fmul 10,9,10
.LVL278:
	.loc 3 279 0
	fmul 0,10,10
	fmadd 0,7,0,8
.LVL279:
	fmul 0,10,0
.LVL280:
	.loc 3 280 0
	frsp 0,0
.LVL281:
.LBE1783:
.LBE1787:
	.loc 6 651 0
	fmuls 11,11,0
	.loc 6 652 0
	fmuls 12,12,0
	.loc 6 653 0
	fmuls 0,13,0
.LVL282:
.LBE1791:
.LBE1808:
.LBB1809:
.LBB1805:
.LBB1803:
.LBB1800:
.LBB1801:
	.loc 6 424 0
	stfs 11,0(9)
	.loc 6 425 0
	stfs 12,4(9)
	.loc 6 426 0
	stfs 0,8(9)
.LBE1801:
.LBE1800:
.LBE1803:
.LBE1805:
.LBE1809:
.LBE1810:
	.loc 2 1328 0
	addi 1,1,16
.LCFI99:
	.cfi_def_cfa_offset 0
	blr
	.cfi_endproc
.LFE2914:
	.size	_ZN8idThread18Event_VecNormalizeER6idVec3, .-_ZN8idThread18Event_VecNormalizeER6idVec3
	.align 2
	.globl _ZN8idThread15Event_VecLengthER6idVec3
	.type	_ZN8idThread15Event_VecLengthER6idVec3, @function
_ZN8idThread15Event_VecLengthER6idVec3:
.LFB2915:
	.loc 2 1335 0
	.cfi_startproc
.LVL283:
.LBB1821:
.LBB1822:
	.loc 6 632 0
	lfs 0,4(4)
.LBB1823:
.LBB1824:
.LBB1825:
.LBB1826:
	.loc 3 276 0
	lis 9,_ZN6idMath5iSqrtE@ha
.LBE1826:
.LBE1825:
.LBE1824:
.LBE1823:
	.loc 6 632 0
	lfs 13,0(4)
.LBB1841:
.LBB1837:
.LBB1832:
.LBB1827:
	.loc 3 276 0
	la 9,_ZN6idMath5iSqrtE@l(9)
.LBE1827:
.LBE1832:
.LBE1837:
.LBE1841:
	.loc 6 632 0
	fmuls 12,0,0
	lfs 0,8(4)
.LBE1822:
.LBE1821:
	.loc 2 1335 0
	stwu 1,-16(1)
.LCFI100:
	.cfi_def_cfa_offset 16
.LBB1848:
.LBB1845:
	.loc 6 632 0
	fmadds 13,13,13,12
	fmadds 13,0,0,13
	stfs 13,8(1)
.LVL284:
.LBB1842:
.LBB1838:
.LBB1833:
.LBB1828:
	.loc 3 270 0
	lwz 0,8(1)
.LVL285:
	.loc 3 276 0
	rlwinm 11,0,9,24,31
	rlwinm 0,0,19,21,29
	lwzx 9,9,0
	subfic 0,11,380
	rlwinm 0,0,22,0,8
	.loc 3 275 0
	lis 11,.LC3@ha
	.loc 3 276 0
	or 0,0,9
	.loc 3 275 0
	lfs 11,.LC3@l(11)
	.loc 3 277 0
	stw 0,12(1)
	.loc 3 278 0
	lis 9,.LC5@ha
	.loc 3 275 0
	fmuls 11,13,11
.LVL286:
	.loc 3 278 0
	lfs 12,.LC5@l(9)
	.loc 3 277 0
	lfs 0,12(1)
.LBE1828:
.LBE1833:
.LBE1838:
.LBE1842:
.LBE1845:
.LBE1848:
.LBB1849:
.LBB1850:
.LBB1851:
	.loc 5 576 0
	lis 9,gameLocal+2311020@ha
	lwz 9,gameLocal+2311020@l(9)
.LBE1851:
.LBE1850:
.LBE1849:
.LBB1856:
.LBB1846:
.LBB1843:
.LBB1839:
.LBB1834:
.LBB1829:
	.loc 3 277 0
	fmr 13,0
.LVL287:
	.loc 2 1335 0
	fneg 11,11
.LVL288:
.LBE1829:
.LBE1834:
.LBE1839:
.LBE1843:
.LBE1846:
.LBE1856:
.LBB1857:
.LBB1854:
.LBB1852:
	.loc 5 576 0
	lwz 9,4(9)
.LBE1852:
.LBE1854:
.LBE1857:
.LBB1858:
.LBB1847:
.LBB1844:
.LBB1840:
.LBB1835:
.LBB1830:
	.loc 3 278 0
	fmul 0,13,13
.LVL289:
	fmadd 0,11,0,12
	fmul 0,13,0
.LVL290:
	.loc 3 279 0
	fmul 13,0,0
	fmadd 12,11,13,12
.LVL291:
.LBE1830:
.LBE1835:
	.loc 3 303 0
	lfs 13,8(1)
.LBB1836:
.LBB1831:
	.loc 3 279 0
	fmul 0,0,12
.LVL292:
	.loc 3 280 0
	frsp 0,0
.LVL293:
.LBE1831:
.LBE1836:
	.loc 3 303 0
	fmuls 0,13,0
.LVL294:
.LBE1840:
.LBE1844:
.LBE1847:
.LBE1858:
.LBB1859:
.LBB1855:
.LBB1853:
	.loc 5 576 0
	stfs 0,0(9)
.LBE1853:
.LBE1855:
.LBE1859:
	.loc 2 1337 0
	addi 1,1,16
.LCFI101:
	.cfi_def_cfa_offset 0
	blr
	.cfi_endproc
.LFE2915:
	.size	_ZN8idThread15Event_VecLengthER6idVec3, .-_ZN8idThread15Event_VecLengthER6idVec3
	.section	.text._ZN6idClip11TraceBoundsER7trace_sRK6idVec3S4_RK8idBoundsiPK8idEntity,"axG",@progbits,_ZN6idClip11TraceBoundsER7trace_sRK6idVec3S4_RK8idBoundsiPK8idEntity,comdat
	.align 2
	.weak	_ZN6idClip11TraceBoundsER7trace_sRK6idVec3S4_RK8idBoundsiPK8idEntity
	.type	_ZN6idClip11TraceBoundsER7trace_sRK6idVec3S4_RK8idBoundsiPK8idEntity, @function
_ZN6idClip11TraceBoundsER7trace_sRK6idVec3S4_RK8idBoundsiPK8idEntity:
.LFB2650:
	.loc 7 338 0
	.cfi_startproc
.LVL295:
	stwu 1,-2872(1)
.LCFI102:
	.cfi_def_cfa_offset 2872
	mflr 0
	stw 27,2852(1)
	mr 27,7
	.cfi_offset 27, -20
	.cfi_register 65, 0
	stw 30,2864(1)
	mr 30,3
	.cfi_offset 30, -8
.LBB1860:
.LBB1861:
	.file 9 "d:/Data/Nintendo/DoomGX/src/game/script/../../idlib/../idlib/geometry/TraceModel.h"
	.loc 9 167 0
	addi 3,1,8
.LVL296:
.LBE1861:
.LBE1860:
	.loc 7 338 0
	stw 0,2876(1)
.LBB1864:
.LBB1862:
	.loc 9 167 0
	stw 5,2840(1)
	stw 6,2844(1)
.LBE1862:
.LBE1864:
	.loc 7 338 0
	stw 26,2848(1)
	.loc 7 339 0
	addi 26,30,32
	.cfi_offset 26, -24
	.cfi_offset 65, 4
.LVL297:
	.loc 7 338 0
	stw 28,2856(1)
	mr 28,8
	.cfi_offset 28, -16
	stw 29,2860(1)
	mr 29,9
	.cfi_offset 29, -12
	stw 31,2868(1)
	.loc 7 338 0
	mr 31,4
	.cfi_offset 31, -4
.LBB1865:
.LBB1863:
	.loc 9 167 0
	bl _ZN12idTraceModel7InitBoxEv
.LVL298:
	.loc 9 168 0
	addi 3,1,8
.LVL299:
	mr 4,27
	bl _ZN12idTraceModel8SetupBoxERK8idBounds
.LVL300:
.LBE1863:
.LBE1865:
	.loc 7 339 0
	mr 3,26
	addi 4,1,8
.LVL301:
	bl _ZN11idClipModel9LoadModelERK12idTraceModel
.LVL302:
	.loc 7 340 0
	lwz 5,2840(1)
	lwz 6,2844(1)
	lis 8,mat3_identity@ha
	mr 9,28
	mr 3,30
	mr 4,31
	mr 7,26
	mr 10,29
	la 8,mat3_identity@l(8)
	bl _ZN6idClip11TranslationER7trace_sRK6idVec3S4_PK11idClipModelRK6idMat3iPK8idEntity
	.loc 7 342 0
	lwz 0,2876(1)
	.loc 7 341 0
	lis 9,.LC10@ha
	lfs 13,0(31)
	lfs 0,.LC10@l(9)
	.loc 7 342 0
	mtlr 0
	lwz 26,2848(1)
	.loc 7 341 0
	fcmpu 7,13,0
	.loc 7 342 0
	lwz 27,2852(1)
.LVL303:
	lwz 28,2856(1)
.LVL304:
	lwz 29,2860(1)
.LVL305:
	mfcr 3
	rlwinm 3,3,29,1
	lwz 30,2864(1)
.LVL306:
	lwz 31,2868(1)
.LVL307:
	addi 1,1,2872
.LCFI103:
	.cfi_def_cfa_offset 0
	.cfi_restore 31
	.cfi_restore 30
	.cfi_restore 29
	.cfi_restore 28
	.cfi_restore 27
	.cfi_restore 26
	blr
	.cfi_endproc
.LFE2650:
	.size	_ZN6idClip11TraceBoundsER7trace_sRK6idVec3S4_RK8idBoundsiPK8idEntity, .-_ZN6idClip11TraceBoundsER7trace_sRK6idVec3S4_RK8idBoundsiPK8idEntity
	.section	".text"
	.align 2
	.globl _ZN8idThread11Event_TraceERK6idVec3S2_S2_S2_iP8idEntity
	.type	_ZN8idThread11Event_TraceERK6idVec3S2_S2_S2_iP8idEntity, @function
_ZN8idThread11Event_TraceERK6idVec3S2_S2_S2_iP8idEntity:
.LFB2923:
	.loc 2 1443 0
	.cfi_startproc
.LVL308:
	mflr 0
	stwu 1,-64(1)
.LCFI104:
	.cfi_def_cfa_offset 64
	.cfi_register 65, 0
.LBB1866:
.LBB1867:
.LBB1868:
	.loc 6 497 0
	lis 11,vec3_origin@ha
.LVL309:
.LBE1868:
.LBE1867:
.LBE1866:
	.loc 2 1443 0
	mr 10,9
	stw 26,40(1)
	mr 26,4
	.cfi_offset 26, -24
	stw 0,68(1)
	mr 0,8
	.cfi_offset 65, 4
	stw 27,44(1)
	mr 27,5
	.cfi_offset 27, -20
	stw 28,48(1)
	stw 29,52(1)
	stw 30,56(1)
	stw 31,60(1)
.LBB1873:
.LBB1871:
.LBB1869:
	.loc 6 497 0
	lfs 13,vec3_origin@l(11)
	la 11,vec3_origin@l(11)
	lfs 0,0(6)
	fcmpu 7,0,13
	bne- 7,.L94
	.cfi_offset 31, -4
	.cfi_offset 30, -8
	.cfi_offset 29, -12
	.cfi_offset 28, -16
.LVL310:
	lfs 12,4(11)
	lfs 11,4(6)
	fcmpu 7,11,12
	beq- 7,.L96
.LVL311:
.L94:
.LBE1869:
.LBE1871:
.LBE1873:
	.loc 2 1447 0
	lis 31,.LANCHOR0@ha
.LBB1874:
.LBB1875:
.LBB1876:
	.loc 6 425 0
	lwz 28,4(6)
	.loc 6 426 0
	lwz 29,8(6)
.LBE1876:
.LBE1875:
.LBE1874:
	.loc 2 1447 0
	la 31,.LANCHOR0@l(31)
.LBB1887:
.LBB1878:
.LBB1879:
	.loc 6 424 0
	lwz 30,0(7)
.LBE1879:
.LBE1878:
.LBE1887:
	.loc 2 1447 0
	lis 3,gameLocal+2311032@ha
.LVL312:
.LBB1888:
.LBB1883:
.LBB1880:
	.loc 6 425 0
	lwz 12,4(7)
.LBE1880:
.LBE1883:
.LBE1888:
	.loc 2 1447 0
	la 3,gameLocal+2311032@l(3)
.LBB1889:
.LBB1884:
.LBB1881:
	.loc 6 426 0
	lwz 11,8(7)
.LBE1881:
.LBE1884:
.LBE1889:
	.loc 2 1447 0
	addi 4,31,80
.LVL313:
	mr 5,26
.LVL314:
	mr 6,27
.LVL315:
	addi 7,1,8
.LVL316:
	mr 8,0
	mr 9,10
.LVL317:
.LBB1890:
.LBB1885:
.LBB1877:
	.loc 6 424 0
	stfs 0,8(1)
	.loc 6 425 0
	stw 28,12(1)
	.loc 6 426 0
	stw 29,16(1)
.LVL318:
.LBE1877:
.LBE1885:
.LBB1886:
.LBB1882:
	.loc 6 424 0
	stw 30,20(1)
	.loc 6 425 0
	stw 12,24(1)
	.loc 6 426 0
	stw 11,28(1)
.LBE1882:
.LBE1886:
.LBE1890:
	.loc 2 1447 0
	bl _ZN6idClip11TraceBoundsER7trace_sRK6idVec3S4_RK8idBoundsiPK8idEntity
.LVL319:
.L95:
.LBB1891:
	.loc 2 849 0
	lis 9,gameLocal+2311020@ha
.LBE1891:
	.loc 2 1449 0
	lwz 0,80(31)
.LVL320:
.LBB1894:
.LBB1892:
.LBB1893:
	.loc 5 576 0
	lwz 9,gameLocal+2311020@l(9)
	lwz 9,4(9)
	stw 0,0(9)
.LBE1893:
.LBE1892:
.LBE1894:
	.loc 2 1450 0
	lwz 0,68(1)
	lwz 26,40(1)
.LVL321:
	mtlr 0
	lwz 27,44(1)
.LVL322:
	lwz 28,48(1)
	lwz 29,52(1)
	lwz 30,56(1)
	lwz 31,60(1)
	addi 1,1,64
	.cfi_remember_state
.LCFI105:
	.cfi_def_cfa_offset 0
	.cfi_restore 31
	.cfi_restore 30
	.cfi_restore 29
	.cfi_restore 28
	.cfi_restore 27
	.cfi_restore 26
	blr
.LVL323:
.L96:
.LCFI106:
	.cfi_restore_state
.LBB1895:
.LBB1872:
.LBB1870:
	.loc 6 497 0
	lfs 11,8(11)
	lfs 10,8(6)
	fcmpu 7,10,11
	bne- 7,.L94
.LVL324:
.LBE1870:
.LBE1872:
.LBE1895:
.LBB1896:
.LBB1897:
.LBB1898:
	lfs 10,0(7)
	fcmpu 7,13,10
	bne- 7,.L94
	lfs 13,4(7)
	fcmpu 7,12,13
	bne- 7,.L94
	lfs 13,8(7)
	fcmpu 7,11,13
	bne- 7,.L94
.LVL325:
.LBE1898:
.LBE1897:
.LBE1896:
.LBB1899:
.LBB1900:
	.loc 7 334 0 discriminator 4
	lis 31,.LANCHOR0@ha
	lis 3,gameLocal+2311032@ha
.LVL326:
	la 31,.LANCHOR0@l(31)
	lis 8,mat3_identity@ha
	addi 4,31,80
.LVL327:
	mr 5,26
.LVL328:
	mr 6,27
.LVL329:
	li 7,0
.LVL330:
	la 8,mat3_identity@l(8)
	mr 9,0
.LVL331:
	la 3,gameLocal+2311032@l(3)
	bl _ZN6idClip11TranslationER7trace_sRK6idVec3S4_PK11idClipModelRK6idMat3iPK8idEntity
.LVL332:
	b .L95
.LBE1900:
.LBE1899:
	.cfi_endproc
.LFE2923:
	.size	_ZN8idThread11Event_TraceERK6idVec3S2_S2_S2_iP8idEntity, .-_ZN8idThread11Event_TraceERK6idVec3S2_S2_S2_iP8idEntity
	.align 2
	.globl _ZN8idThread13CurrentThreadEv
	.type	_ZN8idThread13CurrentThreadEv, @function
_ZN8idThread13CurrentThreadEv:
.LFB2818:
	.loc 2 205 0
	.cfi_startproc
	.loc 2 206 0
	lis 9,_ZN8idThread13currentThreadE@ha
	.loc 2 207 0
	lwz 3,_ZN8idThread13currentThreadE@l(9)
	blr
	.cfi_endproc
.LFE2818:
	.size	_ZN8idThread13CurrentThreadEv, .-_ZN8idThread13CurrentThreadEv
	.align 2
	.globl _ZN8idThread16CurrentThreadNumEv
	.type	_ZN8idThread16CurrentThreadNumEv, @function
_ZN8idThread16CurrentThreadNumEv:
.LFB2819:
	.loc 2 214 0
	.cfi_startproc
	.loc 2 215 0
	lis 9,_ZN8idThread13currentThreadE@ha
	.loc 2 218 0
	li 3,0
	.loc 2 215 0
	lwz 9,_ZN8idThread13currentThreadE@l(9)
	cmpwi 7,9,0
	beqlr- 7
	.loc 2 1863 0
	lwz 3,7020(9)
	.loc 2 220 0
	blr
	.cfi_endproc
.LFE2819:
	.size	_ZN8idThread16CurrentThreadNumEv, .-_ZN8idThread16CurrentThreadNumEv
	.align 2
	.globl _ZN8idThread20BeginMultiFrameEventEP8idEntityPK10idEventDef
	.type	_ZN8idThread20BeginMultiFrameEventEP8idEntityPK10idEventDef, @function
_ZN8idThread20BeginMultiFrameEventEP8idEntityPK10idEventDef:
.LFB2820:
	.loc 2 227 0
	.cfi_startproc
.LVL333:
	stwu 1,-24(1)
.LCFI107:
	.cfi_def_cfa_offset 24
	mflr 0
	mr 5,4
	stw 31,20(1)
	.loc 2 228 0
	lis 31,_ZN8idThread13currentThreadE@ha
	.cfi_offset 31, -4
	.cfi_register 65, 0
	lwz 9,_ZN8idThread13currentThreadE@l(31)
	.loc 2 227 0
	stw 30,16(1)
	mr 30,3
	.cfi_offset 30, -8
	.loc 2 228 0
	cmpwi 7,9,0
	.loc 2 227 0
	stw 0,28(1)
	.loc 2 228 0
	beq- 7,.L103
	.cfi_offset 65, 4
	.loc 2 231 0
	mr 4,30
.LVL334:
	addi 3,9,16
.LVL335:
	bl _ZN13idInterpreter20BeginMultiFrameEventEP8idEntityPK10idEventDef
.LVL336:
	.loc 2 232 0
	lwz 0,28(1)
	lwz 30,16(1)
.LVL337:
	mtlr 0
	lwz 31,20(1)
	addi 1,1,24
	.cfi_remember_state
.LCFI108:
	.cfi_def_cfa_offset 0
	.cfi_restore 31
	.cfi_restore 30
	blr
.LVL338:
.L103:
.LCFI109:
	.cfi_restore_state
	.loc 2 229 0
	lis 3,gameLocal@ha
.LVL339:
	lis 4,.LC18@ha
.LVL340:
	la 3,gameLocal@l(3)
	la 4,.LC18@l(4)
	stw 5,8(1)
	crxor 6,6,6
	bl _ZNK11idGameLocal5ErrorEPKcz
.LVL341:
	lwz 9,_ZN8idThread13currentThreadE@l(31)
	.loc 2 231 0
	mr 4,30
	.loc 2 229 0
	lwz 5,8(1)
	.loc 2 231 0
	addi 3,9,16
	bl _ZN13idInterpreter20BeginMultiFrameEventEP8idEntityPK10idEventDef
	.loc 2 232 0
	lwz 0,28(1)
	lwz 30,16(1)
.LVL342:
	mtlr 0
	lwz 31,20(1)
	addi 1,1,24
	.cfi_restore 30
	.cfi_restore 31
.LCFI110:
	.cfi_def_cfa_offset 0
	blr
	.cfi_endproc
.LFE2820:
	.size	_ZN8idThread20BeginMultiFrameEventEP8idEntityPK10idEventDef, .-_ZN8idThread20BeginMultiFrameEventEP8idEntityPK10idEventDef
	.align 2
	.globl _ZN8idThread18EndMultiFrameEventEP8idEntityPK10idEventDef
	.type	_ZN8idThread18EndMultiFrameEventEP8idEntityPK10idEventDef, @function
_ZN8idThread18EndMultiFrameEventEP8idEntityPK10idEventDef:
.LFB2821:
	.loc 2 239 0
	.cfi_startproc
.LVL343:
	stwu 1,-24(1)
.LCFI111:
	.cfi_def_cfa_offset 24
	mflr 0
	mr 5,4
	stw 31,20(1)
	.loc 2 240 0
	lis 31,_ZN8idThread13currentThreadE@ha
	.cfi_offset 31, -4
	.cfi_register 65, 0
	lwz 9,_ZN8idThread13currentThreadE@l(31)
	.loc 2 239 0
	stw 30,16(1)
	mr 30,3
	.cfi_offset 30, -8
	.loc 2 240 0
	cmpwi 7,9,0
	.loc 2 239 0
	stw 0,28(1)
	.loc 2 240 0
	beq- 7,.L106
	.cfi_offset 65, 4
	.loc 2 243 0
	mr 4,30
.LVL344:
	addi 3,9,16
.LVL345:
	bl _ZN13idInterpreter18EndMultiFrameEventEP8idEntityPK10idEventDef
.LVL346:
	.loc 2 244 0
	lwz 0,28(1)
	lwz 30,16(1)
.LVL347:
	mtlr 0
	lwz 31,20(1)
	addi 1,1,24
	.cfi_remember_state
.LCFI112:
	.cfi_def_cfa_offset 0
	.cfi_restore 31
	.cfi_restore 30
	blr
.LVL348:
.L106:
.LCFI113:
	.cfi_restore_state
	.loc 2 241 0
	lis 3,gameLocal@ha
.LVL349:
	lis 4,.LC19@ha
.LVL350:
	la 3,gameLocal@l(3)
	la 4,.LC19@l(4)
	stw 5,8(1)
	crxor 6,6,6
	bl _ZNK11idGameLocal5ErrorEPKcz
.LVL351:
	lwz 9,_ZN8idThread13currentThreadE@l(31)
	.loc 2 243 0
	mr 4,30
	.loc 2 241 0
	lwz 5,8(1)
	.loc 2 243 0
	addi 3,9,16
	bl _ZN13idInterpreter18EndMultiFrameEventEP8idEntityPK10idEventDef
	.loc 2 244 0
	lwz 0,28(1)
	lwz 30,16(1)
.LVL352:
	mtlr 0
	lwz 31,20(1)
	addi 1,1,24
	.cfi_restore 30
	.cfi_restore 31
.LCFI114:
	.cfi_def_cfa_offset 0
	blr
	.cfi_endproc
.LFE2821:
	.size	_ZN8idThread18EndMultiFrameEventEP8idEntityPK10idEventDef, .-_ZN8idThread18EndMultiFrameEventEP8idEntityPK10idEventDef
	.align 2
	.globl _ZN8idThread12ManualDeleteEv
	.type	_ZN8idThread12ManualDeleteEv, @function
_ZN8idThread12ManualDeleteEv:
.LFB2844:
	.loc 2 372 0
	.cfi_startproc
.LVL353:
	.loc 2 373 0
	li 0,0
	.loc 2 374 0
	.loc 2 373 0
	stb 0,6974(3)
	.loc 2 374 0
	blr
	.cfi_endproc
.LFE2844:
	.size	_ZN8idThread12ManualDeleteEv, .-_ZN8idThread12ManualDeleteEv
	.align 2
	.globl _ZN8idThread4InitEv
	.type	_ZN8idThread4InitEv, @function
_ZN8idThread4InitEv:
.LFB2847:
	.loc 2 430 0
	.cfi_startproc
.LVL354:
	mflr 0
	stwu 1,-24(1)
.LCFI115:
	.cfi_def_cfa_offset 24
	.cfi_register 65, 0
.LBB1921:
.LBB1922:
.LBB1923:
.LBB1924:
.LBB1925:
.LBB1926:
.LBB1927:
.LBB1928:
	.file 10 "d:/Data/Nintendo/DoomGX/src/game/script/../../idlib/../idlib/containers/List.h"
	.loc 10 199 0
	lis 11,_ZN8idThread11threadIndexE@ha
.LBE1928:
.LBE1927:
.LBE1926:
.LBE1925:
.LBE1924:
.LBE1923:
.LBE1922:
.LBE1921:
	.loc 2 435 0
	li 7,1
	.loc 2 430 0
	stw 29,12(1)
	mr 29,3
	.cfi_offset 29, -12
	stw 31,20(1)
.LBB1979:
.LBB1971:
.LBB1957:
.LBB1951:
.LBB1944:
.LBB1937:
.LBB1933:
.LBB1929:
	.loc 10 199 0
	lis 31,.LANCHOR0@ha
	.cfi_offset 31, -4
.LBE1929:
.LBE1933:
.LBE1937:
.LBE1944:
.LBE1951:
.LBE1957:
.LBE1971:
.LBE1979:
	.loc 2 430 0
	stw 0,28(1)
.LBB1980:
.LBB1972:
.LBB1958:
.LBB1952:
.LBB1945:
.LBB1938:
.LBB1934:
.LBB1930:
	.loc 10 199 0
	la 31,.LANCHOR0@l(31)
.LBE1930:
.LBE1934:
.LBE1938:
.LBE1945:
.LBE1952:
.LBE1958:
.LBE1972:
.LBE1980:
	.loc 2 430 0
	stw 30,16(1)
.LBB1981:
.LBB1973:
.LBB1959:
.LBB1953:
.LBB1946:
.LBB1939:
.LBB1935:
.LBB1931:
	.loc 10 199 0
	lwz 9,_ZN8idThread11threadIndexE@l(11)
	la 11,_ZN8idThread11threadIndexE@l(11)
	lwz 0,252(31)
	.cfi_offset 30, -8
	.cfi_offset 65, 4
	lwz 30,264(31)
	cmpwi 6,0,0
.L136:
.LBE1931:
.LBE1935:
.LBE1939:
.LBE1946:
.LBE1953:
.LBE1959:
.LBE1973:
.LBE1981:
	.loc 2 433 0
	addi 9,9,1
	.loc 2 434 0
	cmpwi 7,9,0
	.loc 2 433 0
	stw 9,0(11)
	.loc 2 434 0
	bne- 7,.L110
	.loc 2 435 0
	stw 7,0(11)
	li 9,1
.L110:
.LVL355:
.LBB1982:
.LBB1983:
	.loc 2 462 0
	ble- 6,.L111
.LVL356:
.LBE1983:
	.loc 2 1863 0
	lwz 10,0(30)
.LBB1984:
	.loc 2 464 0
	lwz 10,7020(10)
	cmpw 7,10,9
	beq- 7,.L136
	li 10,0
	mtctr 0
	b .L113
.LVL357:
.L114:
.LBE1984:
	.loc 2 1863 0
	lwzx 8,30,8
.LBB1985:
	.loc 2 464 0
	lwz 8,7020(8)
	cmpw 7,8,9
	beq- 7,.L136
.LVL358:
.L113:
	.loc 2 462 0
	addi 10,10,1
.LVL359:
	.loc 2 463 0
	slwi 8,10,2
	.loc 2 462 0
	bdnz .L114
.LVL360:
.L111:
.LBE1985:
.LBE1982:
.LBB1986:
.LBB1974:
	.loc 10 655 0
	cmpwi 7,30,0
.LBE1974:
.LBE1986:
	.loc 2 439 0
	stw 9,7020(29)
.LVL361:
.LBB1987:
.LBB1975:
	.loc 10 655 0
	beq- 7,.L115
.LVL362:
.L137:
.LBB1960:
.LBB1961:
	.loc 10 393 0
	lwz 9,256(31)
.L116:
.LBE1961:
.LBE1960:
.LBB1966:
	.loc 10 659 0
	cmpw 7,0,9
	beq- 7,.L132
.L138:
.LBB1954:
.LBB1947:
.LBB1940:
	.loc 10 399 0
	slwi 0,0,2
	add 30,30,0
.L122:
.LBE1940:
.LBE1947:
.LBE1954:
.LBE1966:
	.loc 10 669 0
	stw 29,0(30)
.LBE1975:
.LBE1987:
	.loc 2 442 0
	lis 9,gameLocal+2426836@ha
	.loc 2 448 0
	addi 3,29,16
	mr 4,29
	.loc 2 442 0
	lwz 0,gameLocal+2426836@l(9)
	.loc 2 443 0
	li 9,0
.LBB1988:
.LBB1976:
	.loc 10 670 0
	lwz 11,252(31)
.LBE1976:
.LBE1988:
	.loc 2 442 0
	stw 0,7060(29)
.LBB1989:
.LBB1990:
	.loc 2 748 0
	li 0,4095
	stw 0,8(29)
.LBE1990:
.LBE1989:
.LBB1992:
.LBB1977:
	.loc 10 670 0
	addi 0,11,1
	stw 0,252(31)
.LBE1977:
.LBE1992:
	.loc 2 443 0
	stw 9,7056(29)
	.loc 2 444 0
	stb 9,7064(29)
.LVL363:
.LBB1993:
.LBB1991:
	.loc 2 749 0
	stw 9,4(29)
	.loc 2 750 0
	stw 9,12(29)
.LBE1991:
.LBE1993:
	.loc 2 448 0
	bl _ZN13idInterpreter9SetThreadEP8idThread
	.loc 2 449 0
	lwz 0,28(1)
	lwz 29,12(1)
.LVL364:
	mtlr 0
	lwz 30,16(1)
	lwz 31,20(1)
	addi 1,1,24
	.cfi_remember_state
.LCFI116:
	.cfi_def_cfa_offset 0
	.cfi_restore 31
	.cfi_restore 30
	.cfi_restore 29
	blr
.LVL365:
.L132:
.LCFI117:
	.cfi_restore_state
.LBB1994:
.LBB1978:
.LBB1967:
	.loc 10 659 0
	mr 11,0
.L118:
.LBB1955:
	.loc 10 662 0
	lwz 9,260(31)
	cmpwi 7,9,0
	bne- 7,.L123
	.loc 10 663 0
	li 9,16
	stw 9,260(31)
.L123:
	.loc 10 665 0
	add 10,11,9
.LVL366:
	.loc 10 666 0
	divw 10,10,9
.LVL367:
.LBB1948:
.LBB1941:
	.loc 10 375 0
	mullw. 9,10,9
.LVL368:
	ble- 0,.L139
	.loc 10 380 0
	cmpw 7,9,11
	beq- 7,.L138
.LVL369:
	.loc 10 387 0
	cmpw 7,9,0
	.loc 10 386 0
	stw 9,256(31)
	.loc 10 387 0
	blt- 7,.L140
.L127:
	.loc 10 392 0
	slwi 3,9,2
	bl _Znaj
.LVL370:
	.loc 10 393 0
	lwz 0,252(31)
	.loc 10 392 0
	stw 3,264(31)
.LVL371:
	.loc 10 393 0
	cmpwi 7,0,0
	ble- 7,.L128
	.loc 2 430 0
	addi 11,30,-4
.LBE1941:
.LBE1948:
	.loc 10 393 0
	li 9,0
	b .L129
.LVL372:
.L141:
.LBB1949:
.LBB1942:
	lwz 3,264(31)
.LVL373:
.L129:
	.loc 10 394 0
	lwzu 10,4(11)
	slwi 0,9,2
	.loc 10 393 0
	addi 9,9,1
.LVL374:
	.loc 10 394 0
	stwx 10,3,0
	.loc 10 393 0
	lwz 0,252(31)
	cmpw 7,9,0
	blt+ 7,.L141
.LVL375:
.L128:
	.loc 10 398 0
	cmpwi 7,30,0
	beq- 7,.L142
	.loc 10 399 0
	mr 3,30
	bl _ZdaPv
	lwz 0,252(31)
	lwz 30,264(31)
.LVL376:
	b .L138
.LVL377:
.L140:
	.loc 10 388 0
	stw 9,252(31)
	b .L127
.LVL378:
.L115:
.LBE1942:
.LBE1949:
.LBE1955:
.LBE1967:
	.loc 10 656 0
	lwz 3,260(31)
.LVL379:
.LBB1968:
.LBB1964:
	.loc 10 375 0
	cmpwi 7,3,0
	ble- 7,.L143
	.loc 10 380 0
	lwz 9,256(31)
.LVL380:
	cmpw 7,3,9
	beq- 7,.L116
.LVL381:
	.loc 10 387 0
	cmpw 7,3,0
	.loc 10 386 0
	stw 3,256(31)
	.loc 10 387 0
	bge- 7,.L119
	.loc 10 388 0
	stw 3,252(31)
.L119:
	.loc 10 392 0
	slwi 3,3,2
	bl _Znaj
.LVL382:
	.loc 10 393 0
	lwz 0,252(31)
	.loc 10 392 0
	mr 30,3
	stw 3,264(31)
.LVL383:
	.loc 10 393 0
	cmpwi 7,0,0
	li 9,0
	li 11,0
	bgt+ 7,.L135
	b .L137
.LVL384:
.L144:
	lwz 30,264(31)
.LVL385:
.L135:
	.loc 10 394 0
	lwz 0,0(9)
	.loc 10 393 0
	addi 11,11,1
.LVL386:
	.loc 10 394 0
	stwx 0,30,9
	.loc 10 393 0
	addi 9,9,4
	lwz 0,252(31)
	cmpw 7,11,0
	blt+ 7,.L144
	lwz 9,256(31)
	lwz 30,264(31)
	b .L116
.LVL387:
.L139:
.LBE1964:
.LBE1968:
.LBB1969:
.LBB1956:
.LBB1950:
.LBB1943:
.LBB1936:
.LBB1932:
	.loc 10 193 0
	cmpwi 7,30,0
	beq- 7,.L125
	.loc 10 194 0
	mr 3,30
	bl _ZdaPv
.LVL388:
.L125:
	.loc 10 197 0
	li 0,0
	.loc 10 199 0
	li 30,0
	.loc 10 197 0
	stw 0,264(31)
	.loc 10 198 0
	stw 0,252(31)
	.loc 10 199 0
	stw 0,256(31)
	b .L122
.LVL389:
.L142:
.LBE1932:
.LBE1936:
	.loc 10 398 0
	lwz 0,252(31)
	lwz 30,264(31)
.LVL390:
	slwi 0,0,2
	add 30,30,0
	b .L122
.LVL391:
.L143:
.LBE1943:
.LBE1950:
.LBE1956:
.LBE1969:
.LBB1970:
.LBB1965:
.LBB1962:
.LBB1963:
	.loc 10 197 0
	stw 30,264(31)
	.loc 10 199 0
	li 11,0
	.loc 10 198 0
	stw 30,252(31)
	.loc 10 199 0
	li 0,0
	stw 30,256(31)
	b .L118
.LBE1963:
.LBE1962:
.LBE1965:
.LBE1970:
.LBE1978:
.LBE1994:
	.cfi_endproc
.LFE2847:
	.size	_ZN8idThread4InitEv, .-_ZN8idThread4InitEv
	.align 2
	.globl _ZN8idThread9GetThreadEi
	.type	_ZN8idThread9GetThreadEi, @function
_ZN8idThread9GetThreadEi:
.LFB2848:
	.loc 2 456 0
	.cfi_startproc
.LVL392:
.LBB1995:
	.loc 2 461 0
	lis 9,.LANCHOR0@ha
	.loc 2 469 0
	li 11,0
	.loc 2 461 0
	la 9,.LANCHOR0@l(9)
	lwz 0,252(9)
.LVL393:
	addi 9,9,252
	.loc 2 462 0
	cmpwi 7,0,0
	ble- 7,.L146
	.loc 2 463 0
	lwz 10,12(9)
.LVL394:
	lwz 11,0(10)
.LVL395:
	.loc 2 464 0
	lwz 9,7020(11)
	cmpw 7,9,3
	beq- 7,.L146
	li 9,0
	mtctr 0
	b .L148
.LVL396:
.L149:
	.loc 2 463 0
	lwzx 11,10,0
.LVL397:
	.loc 2 464 0
	lwz 0,7020(11)
	cmpw 7,0,3
	beq- 7,.L146
.LVL398:
.L148:
	.loc 2 462 0
	addi 9,9,1
.LVL399:
	.loc 2 463 0
	slwi 0,9,2
	.loc 2 462 0
	bdnz .L149
	.loc 2 469 0
	li 11,0
.LVL400:
.L146:
.LBE1995:
	.loc 2 470 0
	mr 3,11
.LVL401:
	blr
	.cfi_endproc
.LFE2848:
	.size	_ZN8idThread9GetThreadEi, .-_ZN8idThread9GetThreadEi
	.align 2
	.globl _ZN8idThread11DisplayInfoEv
	.type	_ZN8idThread11DisplayInfoEv, @function
_ZN8idThread11DisplayInfoEv:
.LFB2849:
	.loc 2 477 0
	.cfi_startproc
.LVL402:
	mflr 0
	stwu 1,-40(1)
.LCFI118:
	.cfi_def_cfa_offset 40
	.cfi_register 65, 0
	stw 27,20(1)
	stw 0,44(1)
	stw 28,24(1)
	stw 29,28(1)
	.loc 2 485 0
	addi 29,3,16
	.cfi_offset 29, -12
	.cfi_offset 28, -16
	.cfi_offset 65, 4
	.cfi_offset 27, -20
	.loc 2 477 0
	stw 30,32(1)
	.loc 2 485 0
	lis 30,gameLocal@ha
	.cfi_offset 30, -8
	.loc 2 477 0
	stw 31,36(1)
	mr 31,3
	.cfi_offset 31, -4
	stw 25,12(1)
	.loc 2 485 0
	mr 3,29
.LVL403:
	.loc 2 477 0
	stw 26,16(1)
	.loc 2 485 0
	la 30,gameLocal@l(30)
	addis 28,30,0x25
	lwz 25,7020(31)
	.cfi_offset 26, -24
	.cfi_offset 25, -28
	.loc 2 1863 0
	lwz 26,7028(31)
	.loc 2 485 0
	bl _ZNK13idInterpreter11CurrentFileEv
	mr 27,3
	mr 3,29
	bl _ZNK13idInterpreter11CurrentLineEv
	lwz 9,7060(31)
	lwz 10,2004(28)
	lis 4,.LC20@ha
	mr 8,3
	la 4,.LC20@l(4)
	mr 3,30
	mr 5,25
	mr 6,26
	mr 7,27
	subf 10,9,10
	crxor 6,6,6
	bl _ZNK11idGameLocal6PrintfEPKcz
	.loc 2 487 0
	lbz 0,6973(31)
	cmpwi 7,0,0
	bne- 7,.L158
	.loc 2 489 0
	lbz 0,6972(31)
	cmpwi 7,0,0
	beq- 7,.L154
	.loc 2 492 0
	lwz 5,7056(31)
	lis 4,.LC22@ha
	lwz 6,2004(28)
	mr 3,30
	la 4,.LC22@l(4)
	subf 6,5,6
	crxor 6,6,6
	bl _ZNK11idGameLocal6PrintfEPKcz
	.loc 2 493 0
	lwz 9,4(31)
	cmpwi 7,9,0
	beq- 7,.L155
.LVL404:
	.loc 2 494 0
	lwz 5,7020(9)
	lis 4,.LC23@ha
	lwz 6,7028(9)
	mr 3,30
	la 4,.LC23@l(4)
	crxor 6,6,6
	bl _ZNK11idGameLocal6PrintfEPKcz
.LVL405:
	b .L153
.L154:
	.loc 2 503 0
	lis 4,.LC27@ha
	mr 3,30
	la 4,.LC27@l(4)
	crxor 6,6,6
	bl _ZNK11idGameLocal6PrintfEPKcz
.L153:
	.loc 2 506 0
	mr 3,29
	bl _ZNK13idInterpreter11DisplayInfoEv
	.loc 2 508 0
	lis 4,.LC28@ha
	mr 3,30
	la 4,.LC28@l(4)
	crxor 6,6,6
	bl _ZNK11idGameLocal6PrintfEPKcz
	.loc 2 509 0
	lwz 0,44(1)
	lwz 25,12(1)
	mtlr 0
	lwz 26,16(1)
	lwz 27,20(1)
	lwz 28,24(1)
	lwz 29,28(1)
	lwz 30,32(1)
	lwz 31,36(1)
.LVL406:
	addi 1,1,40
	.cfi_remember_state
.LCFI119:
	.cfi_def_cfa_offset 0
	.cfi_restore 31
	.cfi_restore 30
	.cfi_restore 29
	.cfi_restore 28
	.cfi_restore 27
	.cfi_restore 26
	.cfi_restore 25
	blr
.LVL407:
.L158:
.LCFI120:
	.cfi_restore_state
	.loc 2 488 0
	lis 4,.LC21@ha
	mr 3,30
	la 4,.LC21@l(4)
	crxor 6,6,6
	bl _ZNK11idGameLocal6PrintfEPKcz
	b .L153
.L155:
	.loc 2 495 0
	lwz 5,8(31)
	cmpwi 7,5,4095
	beq- 7,.L156
	.loc 2 495 0 is_stmt 0 discriminator 1
	addi 9,5,132
	slwi 9,9,2
	add 9,30,9
	lwz 9,4(9)
	cmpwi 7,9,0
	beq- 7,.L156
	.loc 2 496 0 is_stmt 1
	lwz 6,72(9)
	lis 4,.LC24@ha
	mr 3,30
	la 4,.LC24@l(4)
	crxor 6,6,6
	bl _ZNK11idGameLocal6PrintfEPKcz
	b .L153
.L156:
	.loc 2 497 0
	lwz 5,12(31)
	cmpwi 7,5,0
	beq- 7,.L157
	.loc 2 498 0
	lwz 6,7056(31)
	lis 4,.LC25@ha
	mr 3,30
	la 4,.LC25@l(4)
	subf 6,6,5
	crxor 6,6,6
	bl _ZNK11idGameLocal6PrintfEPKcz
	b .L153
.L157:
	.loc 2 500 0
	lis 4,.LC26@ha
	mr 3,30
	la 4,.LC26@l(4)
	crxor 6,6,6
	bl _ZNK11idGameLocal6PrintfEPKcz
	b .L153
	.cfi_endproc
.LFE2849:
	.size	_ZN8idThread11DisplayInfoEv, .-_ZN8idThread11DisplayInfoEv
	.align 2
	.globl _ZN8idThread13ListThreads_fERK9idCmdArgs
	.type	_ZN8idThread13ListThreads_fERK9idCmdArgs, @function
_ZN8idThread13ListThreads_fERK9idCmdArgs:
.LFB2850:
	.loc 2 516 0
	.cfi_startproc
.LVL408:
	mflr 0
	stwu 1,-48(1)
.LCFI121:
	.cfi_def_cfa_offset 48
	.cfi_register 65, 0
	stw 30,40(1)
.LBB1996:
	.loc 2 520 0
	lis 30,.LANCHOR0@ha
	.cfi_offset 30, -8
.LBE1996:
	.loc 2 516 0
	stw 0,52(1)
.LBB1997:
	.loc 2 520 0
	la 30,.LANCHOR0@l(30)
.LBE1997:
	.loc 2 516 0
	stw 23,12(1)
	stw 24,16(1)
	stw 25,20(1)
	stw 26,24(1)
	stw 27,28(1)
	stw 28,32(1)
	stw 29,36(1)
	stw 31,44(1)
.LBB1998:
	.loc 2 520 0
	lwz 29,252(30)
	.cfi_offset 31, -4
	.cfi_offset 29, -12
	.cfi_offset 28, -16
	.cfi_offset 27, -20
	.cfi_offset 26, -24
	.cfi_offset 25, -28
	.cfi_offset 24, -32
	.cfi_offset 23, -36
	.cfi_offset 65, 4
.LVL409:
	.loc 2 521 0
	cmpwi 7,29,0
	ble- 7,.L165
	lis 28,gameLocal@ha
	lis 27,.LC29@ha
	li 31,0
	addi 30,30,252
	la 28,gameLocal@l(28)
	la 27,.LC29@l(27)
.LVL410:
.L161:
	.loc 2 523 0 discriminator 2
	lwz 9,12(30)
	.loc 2 516 0 discriminator 2
	slwi 23,31,2
	.loc 2 521 0 discriminator 2
	addi 31,31,1
.LVL411:
	.loc 2 523 0 discriminator 2
	lwzx 9,9,23
	addi 3,9,16
	lwz 24,7020(9)
	.loc 2 1863 0 discriminator 2
	lwz 25,7028(9)
	.loc 2 523 0 discriminator 2
	bl _ZNK13idInterpreter11CurrentFileEv
	lwz 9,12(30)
	mr 26,3
	lwzx 3,9,23
	addi 3,3,16
	bl _ZNK13idInterpreter11CurrentLineEv
	mr 4,27
	mr 8,3
	mr 5,24
	mr 3,28
	mr 6,25
	mr 7,26
	crxor 6,6,6
	bl _ZNK11idGameLocal6PrintfEPKcz
.LVL412:
	.loc 2 521 0 discriminator 2
	cmpw 7,31,29
	bne+ 7,.L161
.LVL413:
.L160:
	.loc 2 525 0
	lis 4,.LC30@ha
	mr 3,28
	mr 5,29
	la 4,.LC30@l(4)
	crxor 6,6,6
	bl _ZNK11idGameLocal6PrintfEPKcz
.LBE1998:
	.loc 2 526 0
	lwz 0,52(1)
	lwz 23,12(1)
	mtlr 0
	lwz 24,16(1)
	lwz 25,20(1)
	lwz 26,24(1)
	lwz 27,28(1)
	lwz 28,32(1)
	lwz 29,36(1)
	lwz 30,40(1)
	lwz 31,44(1)
	addi 1,1,48
	.cfi_remember_state
.LCFI122:
	.cfi_def_cfa_offset 0
	.cfi_restore 31
	.cfi_restore 30
	.cfi_restore 29
	.cfi_restore 28
	.cfi_restore 27
	.cfi_restore 26
	.cfi_restore 25
	.cfi_restore 24
	.cfi_restore 23
	blr
.LVL414:
.L165:
.LCFI123:
	.cfi_restore_state
	lis 28,gameLocal@ha
	la 28,gameLocal@l(28)
	b .L160
	.cfi_endproc
.LFE2850:
	.size	_ZN8idThread13ListThreads_fERK9idCmdArgs, .-_ZN8idThread13ListThreads_fERK9idCmdArgs
	.align 2
	.globl _ZN8idThread7RestartEv
	.type	_ZN8idThread7RestartEv, @function
_ZN8idThread7RestartEv:
.LFB2851:
	.loc 2 533 0
	.cfi_startproc
	mflr 0
	stwu 1,-24(1)
.LCFI124:
	.cfi_def_cfa_offset 24
	.cfi_register 65, 0
.LBB2006:
	.loc 2 538 0
	lis 9,_ZN8idThread11threadIndexE@ha
.LBE2006:
	.loc 2 533 0
	stw 31,20(1)
.LBB2015:
	.loc 2 541 0
	lis 31,.LANCHOR0@ha
	.cfi_offset 31, -4
.LBE2015:
	.loc 2 533 0
	stw 0,28(1)
.LBB2016:
	.loc 2 541 0
	la 31,.LANCHOR0@l(31)
.LBE2016:
	.loc 2 533 0
	stw 29,12(1)
.LBB2017:
	.loc 2 538 0
	li 0,0
	.cfi_offset 29, -12
	.cfi_offset 65, 4
.LBE2017:
	.loc 2 533 0
	stw 30,16(1)
.LBB2018:
	.loc 2 538 0
	stw 0,_ZN8idThread11threadIndexE@l(9)
	.loc 2 540 0
	lis 9,_ZN8idThread13currentThreadE@ha
	.loc 2 542 0
	lwz 30,252(31)
	.cfi_offset 30, -8
	.loc 2 540 0
	stw 0,_ZN8idThread13currentThreadE@l(9)
.LVL415:
	.loc 2 542 0
	addic. 30,30,-1
	lwz 11,264(31)
	blt- 0,.L168
	slwi 29,30,2
.LVL416:
.L170:
	.loc 2 543 0
	lwzx 9,11,29
	.loc 2 542 0
	addi 29,29,-4
	.loc 2 543 0
	cmpwi 7,9,0
	mr 3,9
	beq- 7,.L169
	.loc 2 543 0 is_stmt 0 discriminator 1
	lwz 9,0(9)
	lwz 0,8(9)
	mtctr 0
	bctrl
	lwz 11,264(31)
.L169:
.LVL417:
	.loc 2 542 0 is_stmt 1
	cmpwi 7,30,0
	addi 30,30,-1
.LVL418:
	bne+ 7,.L170
.LVL419:
.L168:
.LBB2007:
.LBB2008:
	.loc 10 193 0
	cmpwi 7,11,0
	beq- 7,.L171
	.loc 10 194 0
	mr 3,11
	bl _ZdaPv
.L171:
	.loc 10 197 0
	li 0,0
.LBE2008:
.LBE2007:
	.loc 2 547 0
	addi 3,31,80
.LBB2012:
.LBB2009:
	.loc 10 197 0
	stw 0,264(31)
.LBE2009:
.LBE2012:
	.loc 2 547 0
	li 4,0
.LBB2013:
.LBB2010:
	.loc 10 198 0
	stw 0,252(31)
.LBE2010:
.LBE2013:
	.loc 2 547 0
	li 5,108
.LBB2014:
.LBB2011:
	.loc 10 199 0
	stw 0,256(31)
.LBE2011:
.LBE2014:
	.loc 2 547 0
	bl memset
	.loc 2 548 0
	li 0,4095
	stw 0,180(31)
.LBE2018:
	.loc 2 549 0
	lwz 0,28(1)
	lwz 29,12(1)
	mtlr 0
	lwz 30,16(1)
	lwz 31,20(1)
	addi 1,1,24
.LCFI125:
	.cfi_def_cfa_offset 0
	.cfi_restore 31
	.cfi_restore 30
	.cfi_restore 29
	blr
	.cfi_endproc
.LFE2851:
	.size	_ZN8idThread7RestartEv, .-_ZN8idThread7RestartEv
	.align 2
	.globl _ZN8idThread12DelayedStartEi
	.type	_ZN8idThread12DelayedStartEi, @function
_ZN8idThread12DelayedStartEi:
.LFB2852:
	.loc 2 556 0
	.cfi_startproc
.LVL420:
	stwu 1,-24(1)
.LCFI126:
	.cfi_def_cfa_offset 24
	mflr 0
	stw 31,20(1)
	.loc 2 557 0
	lis 31,.LANCHOR0@ha
	.cfi_offset 31, -4
	.cfi_register 65, 0
	la 31,.LANCHOR0@l(31)
	.loc 2 556 0
	stw 30,16(1)
	.loc 2 557 0
	addi 31,31,268
	.loc 2 556 0
	mr 30,4
	.cfi_offset 30, -8
	.loc 2 557 0
	mr 4,31
.LVL421:
	.loc 2 556 0
	stw 0,28(1)
	stw 29,12(1)
	.loc 2 556 0
	mr 29,3
	.cfi_offset 29, -12
	.cfi_offset 65, 4
	.loc 2 557 0
	bl _ZN7idClass12CancelEventsEPK10idEventDef
.LVL422:
	.loc 2 558 0
	lis 9,gameLocal+2426836@ha
	lwz 0,gameLocal+2426836@l(9)
	cmpwi 7,0,0
	bgt+ 7,.L174
	.loc 2 559 0
	addi 30,30,1
.LVL423:
.L174:
	.loc 2 561 0
	mr 3,29
	mr 4,31
	mr 5,30
	bl _ZN7idClass11PostEventMSEPK10idEventDefi
	.loc 2 562 0
	lwz 0,28(1)
	lwz 29,12(1)
.LVL424:
	mtlr 0
	lwz 30,16(1)
.LVL425:
	lwz 31,20(1)
	addi 1,1,24
.LCFI127:
	.cfi_def_cfa_offset 0
	.cfi_restore 31
	.cfi_restore 30
	.cfi_restore 29
	blr
	.cfi_endproc
.LFE2852:
	.size	_ZN8idThread12DelayedStartEi, .-_ZN8idThread12DelayedStartEi
	.align 2
	.globl _ZN8idThread13SetThreadNameEPKc
	.type	_ZN8idThread13SetThreadNameEPKc, @function
_ZN8idThread13SetThreadNameEPKc:
.LFB2854:
	.loc 2 583 0
	.cfi_startproc
.LVL426:
	mflr 0
	stwu 1,-8(1)
.LCFI128:
	.cfi_def_cfa_offset 8
	.cfi_register 65, 0
	.loc 2 584 0
	addi 3,3,7024
.LVL427:
	.loc 2 583 0
	stw 0,12(1)
	.loc 2 584 0
	.cfi_offset 65, 4
	bl _ZN5idStraSEPKc
.LVL428:
	.loc 2 585 0
	lwz 0,12(1)
	addi 1,1,8
.LCFI129:
	.cfi_def_cfa_offset 0
	mtlr 0
	blr
	.cfi_endproc
.LFE2854:
	.size	_ZN8idThread13SetThreadNameEPKc, .-_ZN8idThread13SetThreadNameEPKc
	.align 2
	.globl _ZN8idThread3EndEv
	.type	_ZN8idThread3EndEv, @function
_ZN8idThread3EndEv:
.LFB2856:
	.loc 2 610 0
	.cfi_startproc
.LVL429:
.LBB2019:
.LBB2020:
.LBB2021:
.LBB2022:
	.loc 2 749 0
	li 9,0
.LBE2022:
.LBE2021:
	.loc 2 897 0
	li 0,1
.LBB2025:
.LBB2023:
	.loc 2 748 0
	li 11,4095
	.loc 2 749 0
	stw 9,4(3)
	.loc 2 748 0
	stw 11,8(3)
.LBE2023:
.LBE2025:
.LBE2020:
.LBE2019:
	.loc 2 614 0
.LBB2028:
.LBB2027:
.LBB2026:
.LBB2024:
	.loc 2 750 0
	stw 9,12(3)
.LBE2024:
.LBE2026:
	.loc 2 897 0
	stb 0,6972(3)
.LBE2027:
.LBE2028:
	.loc 2 613 0
	stb 0,6973(3)
	.loc 2 614 0
	blr
	.cfi_endproc
.LFE2856:
	.size	_ZN8idThread3EndEv, .-_ZN8idThread3EndEv
	.align 2
	.globl _ZN8idThread10KillThreadEPKc
	.type	_ZN8idThread10KillThreadEPKc, @function
_ZN8idThread10KillThreadEPKc:
.LFB2857:
	.loc 2 621 0
	.cfi_startproc
.LVL430:
	mflr 0
	stwu 1,-40(1)
.LCFI130:
	.cfi_def_cfa_offset 40
	.cfi_register 65, 0
.LBB2029:
	.loc 2 629 0
	li 4,42
.LBE2029:
	.loc 2 621 0
	stw 28,24(1)
	mr 28,3
	.cfi_offset 28, -16
	stw 0,44(1)
	stw 24,8(1)
	stw 25,12(1)
	stw 26,16(1)
	stw 27,20(1)
	stw 29,28(1)
	stw 30,32(1)
	stw 31,36(1)
.LBB2042:
	.loc 2 629 0
	.cfi_offset 31, -4
	.cfi_offset 30, -8
	.cfi_offset 29, -12
	.cfi_offset 27, -20
	.cfi_offset 26, -24
	.cfi_offset 25, -28
	.cfi_offset 24, -32
	.cfi_offset 65, 4
	bl strchr
.LVL431:
	.loc 2 630 0
	cmpwi 0,3,0
	beq- 0,.L178
	.loc 2 631 0
	subf 27,28,3
.LVL432:
.L179:
	.loc 2 637 0
	lis 25,.LANCHOR0@ha
	la 25,.LANCHOR0@l(25)
	lwz 29,252(25)
.LVL433:
	.loc 2 638 0
	cmpwi 7,29,0
	ble- 7,.L177
	li 30,0
	addi 25,25,252
.LBB2030:
.LBB2031:
.LBB2032:
.LBB2033:
.LBB2034:
.LBB2035:
	.loc 2 748 0
	li 24,4095
.LBE2035:
.LBE2034:
	.loc 2 897 0
	li 26,1
.LVL434:
.L182:
.LBE2033:
.LBE2032:
.LBE2031:
.LBE2030:
	.loc 2 639 0
	lwz 9,12(25)
	slwi 0,30,2
	.loc 2 640 0
	mr 4,28
	mr 5,27
	.loc 2 639 0
	lwzx 31,9,0
.LVL435:
	.loc 2 638 0
	addi 30,30,1
.LVL436:
	.loc 2 640 0
	lwz 3,7028(31)
	bl _ZN5idStr4CmpnEPKcS1_i
	.loc 2 638 0
	cmpw 7,30,29
	.loc 2 640 0
	cmpwi 0,3,0
	bne- 0,.L181
.LVL437:
.LBB2041:
.LBB2040:
.LBB2039:
.LBB2038:
.LBB2037:
.LBB2036:
	.loc 2 748 0
	stw 24,8(31)
	.loc 2 749 0
	stw 3,4(31)
	.loc 2 750 0
	stw 3,12(31)
.LBE2036:
.LBE2037:
	.loc 2 897 0
	stb 26,6972(31)
.LBE2038:
.LBE2039:
	.loc 2 613 0
	stb 26,6973(31)
.LVL438:
.L181:
.LBE2040:
.LBE2041:
	.loc 2 638 0
	bne+ 7,.L182
.LVL439:
.L177:
.LBE2042:
	.loc 2 644 0
	lwz 0,44(1)
	lwz 24,8(1)
	mtlr 0
	lwz 25,12(1)
	lwz 26,16(1)
	lwz 27,20(1)
.LVL440:
	lwz 28,24(1)
.LVL441:
	lwz 29,28(1)
	lwz 30,32(1)
	lwz 31,36(1)
	addi 1,1,40
	.cfi_remember_state
.LCFI131:
	.cfi_def_cfa_offset 0
	.cfi_restore 31
	.cfi_restore 30
	.cfi_restore 29
	.cfi_restore 28
	.cfi_restore 27
	.cfi_restore 26
	.cfi_restore 25
	.cfi_restore 24
	blr
.LVL442:
.L178:
.LCFI132:
	.cfi_restore_state
.LBB2043:
	.loc 2 633 0
	mr 3,28
.LVL443:
	bl strlen
	mr 27,3
.LVL444:
	b .L179
.LBE2043:
	.cfi_endproc
.LFE2857:
	.size	_ZN8idThread10KillThreadEPKc, .-_ZN8idThread10KillThreadEPKc
	.align 2
	.globl _ZN8idThread16Event_KillThreadEPKc
	.type	_ZN8idThread16Event_KillThreadEPKc, @function
_ZN8idThread16Event_KillThreadEPKc:
.LFB2895:
	.loc 2 1107 0
	.cfi_startproc
.LVL445:
	.loc 2 1108 0
	mr 3,4
.LVL446:
	.loc 2 1109 0
	.loc 2 1108 0
	b _ZN8idThread10KillThreadEPKc
.LVL447:
	.cfi_endproc
.LFE2895:
	.size	_ZN8idThread16Event_KillThreadEPKc, .-_ZN8idThread16Event_KillThreadEPKc
	.align 2
	.globl _ZN8idThread10KillThreadEi
	.type	_ZN8idThread10KillThreadEi, @function
_ZN8idThread10KillThreadEi:
.LFB2858:
	.loc 2 651 0
	.cfi_startproc
.LVL448:
.LBB2044:
.LBB2045:
	.loc 2 461 0
	lis 9,.LANCHOR0@ha
	la 9,.LANCHOR0@l(9)
	lwz 0,252(9)
.LVL449:
	addi 9,9,252
.LBB2046:
	.loc 2 462 0
	cmpwi 7,0,0
	blelr- 7
.LBE2046:
	.loc 2 463 0
	lwz 10,12(9)
.LVL450:
.LBB2047:
	lwz 11,0(10)
.LVL451:
	.loc 2 464 0
	lwz 9,7020(11)
	cmpw 7,3,9
	beq- 7,.L187
	li 9,0
	mtctr 0
	b .L188
.LVL452:
.L189:
	.loc 2 463 0
	lwzx 11,10,0
.LVL453:
	.loc 2 464 0
	lwz 0,7020(11)
	cmpw 7,3,0
	beq- 7,.L187
.LVL454:
.L188:
	.loc 2 462 0
	addi 9,9,1
.LVL455:
	.loc 2 463 0
	slwi 0,9,2
	.loc 2 462 0
	bdnz .L189
	blr
.LVL456:
.L187:
.LBE2047:
.LBE2045:
.LBB2048:
.LBB2049:
.LBB2050:
.LBB2051:
.LBB2052:
.LBB2053:
	.loc 2 749 0
	li 9,0
.LBE2053:
.LBE2052:
	.loc 2 897 0
	li 0,1
.LBB2055:
.LBB2054:
	.loc 2 748 0
	li 10,4095
	.loc 2 749 0
	stw 9,4(11)
	.loc 2 748 0
	stw 10,8(11)
	.loc 2 750 0
	stw 9,12(11)
.LBE2054:
.LBE2055:
	.loc 2 897 0
	stb 0,6972(11)
.LBE2051:
.LBE2050:
	.loc 2 613 0
	stb 0,6973(11)
	blr
.LBE2049:
.LBE2048:
.LBE2044:
	.cfi_endproc
.LFE2858:
	.size	_ZN8idThread10KillThreadEi, .-_ZN8idThread10KillThreadEi
	.align 2
	.globl _ZN8idThread21Event_TerminateThreadEi
	.type	_ZN8idThread21Event_TerminateThreadEi, @function
_ZN8idThread21Event_TerminateThreadEi:
.LFB2880:
	.loc 2 945 0
	.cfi_startproc
.LVL457:
.LBB2056:
	.loc 2 949 0
	mr 3,4
.LVL458:
.LBE2056:
	.loc 2 950 0
.LBB2057:
	.loc 2 949 0
	b _ZN8idThread10KillThreadEi
.LVL459:
.LVL460:
.LBE2057:
	.cfi_endproc
.LFE2880:
	.size	_ZN8idThread21Event_TerminateThreadEi, .-_ZN8idThread21Event_TerminateThreadEi
	.align 2
	.globl _ZN8idThread7ExecuteEv
	.type	_ZN8idThread7ExecuteEv, @function
_ZN8idThread7ExecuteEv:
.LFB2859:
	.loc 2 666 0
	.cfi_startproc
.LVL461:
	mflr 0
	stwu 1,-40(1)
.LCFI133:
	.cfi_def_cfa_offset 40
	.cfi_register 65, 0
.LBB2058:
	.loc 2 670 0
	lis 9,gameLocal+2426836@ha
.LBE2058:
	.loc 2 666 0
	stw 28,24(1)
	mr 28,3
	.cfi_offset 28, -16
	stw 0,44(1)
	stw 25,12(1)
	stw 26,16(1)
	stw 27,20(1)
	stw 29,28(1)
	stw 30,32(1)
	stw 31,36(1)
.LBB2079:
	.loc 2 670 0
	lbz 0,7064(3)
	.cfi_offset 31, -4
	.cfi_offset 30, -8
	.cfi_offset 29, -12
	.cfi_offset 27, -20
	.cfi_offset 26, -24
	.cfi_offset 25, -28
	.cfi_offset 65, 4
	cmpwi 7,0,0
	lwz 0,gameLocal+2426836@l(9)
	beq- 7,.L193
	.loc 2 670 0 is_stmt 0 discriminator 1
	lwz 9,12(3)
	.loc 2 671 0 is_stmt 1 discriminator 1
	li 30,0
	.loc 2 670 0 discriminator 1
	cmpw 7,9,0
	bgt- 7,.L194
.L193:
.LBB2059:
.LBB2060:
	.loc 2 749 0
	li 27,0
	.loc 2 748 0
	li 26,4095
.LBE2060:
.LBE2059:
	.loc 2 677 0
	stw 0,7056(28)
	.loc 2 679 0
	addi 25,28,16
.LBB2064:
.LBB2061:
	.loc 2 748 0
	stw 26,8(28)
.LBE2061:
.LBE2064:
	.loc 2 674 0
	lis 31,_ZN8idThread13currentThreadE@ha
.LBB2065:
.LBB2062:
	.loc 2 749 0
	stw 27,4(28)
.LBE2062:
.LBE2065:
	.loc 2 679 0
	mr 3,25
.LVL462:
.LBB2066:
.LBB2063:
	.loc 2 750 0
	stw 27,12(28)
.LBE2063:
.LBE2066:
	.loc 2 674 0
	lwz 29,_ZN8idThread13currentThreadE@l(31)
.LVL463:
	.loc 2 675 0
	stw 28,_ZN8idThread13currentThreadE@l(31)
	.loc 2 679 0
	bl _ZN13idInterpreter7ExecuteEv
.LVL464:
	.loc 2 680 0
	mr. 30,3
	beq- 0,.L195
.LVL465:
	.loc 2 682 0
	lbz 9,6974(28)
.LBB2067:
.LBB2068:
.LBB2069:
.LBB2070:
	.loc 2 897 0
	li 0,1
.LBB2071:
.LBB2072:
	.loc 2 748 0
	stw 26,8(28)
.LBE2072:
.LBE2071:
.LBE2070:
.LBE2069:
.LBE2068:
.LBE2067:
	.loc 2 682 0
	cmpwi 7,9,0
.LBB2078:
.LBB2077:
.LBB2076:
.LBB2075:
.LBB2074:
.LBB2073:
	.loc 2 749 0
	stw 27,4(28)
	.loc 2 750 0
	stw 27,12(28)
.LBE2073:
.LBE2074:
	.loc 2 897 0
	stb 0,6972(28)
.LBE2075:
.LBE2076:
	.loc 2 613 0
	stb 0,6973(28)
.LBE2077:
.LBE2078:
	.loc 2 682 0
	bne- 7,.L199
.LVL466:
.L196:
	.loc 2 693 0
	stw 29,_ZN8idThread13currentThreadE@l(31)
.LVL467:
.L194:
.LBE2079:
	.loc 2 696 0
	lwz 0,44(1)
	mr 3,30
	lwz 25,12(1)
	mtlr 0
	lwz 26,16(1)
	lwz 27,20(1)
	lwz 28,24(1)
.LVL468:
	lwz 29,28(1)
	lwz 30,32(1)
	lwz 31,36(1)
	addi 1,1,40
	.cfi_remember_state
.LCFI134:
	.cfi_def_cfa_offset 0
	.cfi_restore 31
	.cfi_restore 30
	.cfi_restore 29
	.cfi_restore 28
	.cfi_restore 27
	.cfi_restore 26
	.cfi_restore 25
	blr
.LVL469:
.L195:
.LCFI135:
	.cfi_restore_state
.LBB2080:
	.loc 2 685 0
	lbz 0,7064(28)
	cmpwi 7,0,0
	bne- 7,.L196
	.loc 2 686 0
	lwz 5,12(28)
	lwz 0,7056(28)
	cmpw 7,5,0
	ble- 7,.L197
	.loc 2 687 0
	lis 4,.LANCHOR0@ha
	mr 3,28
.LVL470:
	la 4,.LANCHOR0@l(4)
	subf 5,0,5
	addi 4,4,268
	bl _ZN7idClass11PostEventMSEPK10idEventDefi
	.loc 2 693 0
	stw 29,_ZN8idThread13currentThreadE@l(31)
	b .L194
.LVL471:
.L199:
	.loc 2 683 0
	lis 4,EV_Remove@ha
	mr 3,28
.LVL472:
	la 4,EV_Remove@l(4)
	li 5,0
	bl _ZN7idClass11PostEventMSEPK10idEventDefi
	.loc 2 693 0
	stw 29,_ZN8idThread13currentThreadE@l(31)
	b .L194
.LVL473:
.L197:
	.loc 2 688 0
	mr 3,25
.LVL474:
	bl _ZNK13idInterpreter25MultiFrameEventInProgressEv
	cmpwi 7,3,0
	beq+ 7,.L196
	.loc 2 689 0
	lis 4,.LANCHOR0@ha
	mr 3,28
	la 4,.LANCHOR0@l(4)
	li 5,16
	addi 4,4,268
	bl _ZN7idClass11PostEventMSEPK10idEventDefi
	.loc 2 693 0
	stw 29,_ZN8idThread13currentThreadE@l(31)
	b .L194
.LBE2080:
	.cfi_endproc
.LFE2859:
	.size	_ZN8idThread7ExecuteEv, .-_ZN8idThread7ExecuteEv
	.align 2
	.globl _ZN8idThread13Event_ExecuteEv
	.type	_ZN8idThread13Event_ExecuteEv, @function
_ZN8idThread13Event_ExecuteEv:
.LFB2875:
	.loc 2 886 0
	.cfi_startproc
.LVL475:
	.loc 2 888 0
	.loc 2 887 0
	b _ZN8idThread7ExecuteEv
.LVL476:
	.cfi_endproc
.LFE2875:
	.size	_ZN8idThread13Event_ExecuteEv, .-_ZN8idThread13Event_ExecuteEv
	.align 2
	.globl _ZN8idThread5StartEv
	.type	_ZN8idThread5StartEv, @function
_ZN8idThread5StartEv:
.LFB2853:
	.loc 2 569 0
	.cfi_startproc
.LVL477:
	mflr 0
.LBB2081:
	.loc 2 572 0
	lis 4,.LANCHOR0@ha
.LBE2081:
	.loc 2 569 0
	stwu 1,-16(1)
.LCFI136:
	.cfi_def_cfa_offset 16
	.cfi_register 65, 0
.LBB2082:
	.loc 2 572 0
	la 4,.LANCHOR0@l(4)
	addi 4,4,268
.LBE2082:
	.loc 2 569 0
	stw 0,20(1)
	stw 31,12(1)
	.loc 2 569 0
	mr 31,3
	.cfi_offset 31, -4
	.cfi_offset 65, 4
.LBB2083:
	.loc 2 572 0
	bl _ZN7idClass12CancelEventsEPK10idEventDef
.LVL478:
.LBE2083:
	.loc 2 576 0
	lwz 0,20(1)
.LBB2084:
	.loc 2 573 0
	mr 3,31
.LBE2084:
	.loc 2 576 0
	lwz 31,12(1)
.LVL479:
	mtlr 0
	addi 1,1,16
.LCFI137:
	.cfi_def_cfa_offset 0
	.cfi_restore 31
.LBB2085:
	.loc 2 573 0
	b _ZN8idThread7ExecuteEv
.LVL480:
.LBE2085:
	.cfi_endproc
.LFE2853:
	.size	_ZN8idThread5StartEv, .-_ZN8idThread5StartEv
	.align 2
	.globl _ZN8idThread9IsWaitingEv
	.type	_ZN8idThread9IsWaitingEv, @function
_ZN8idThread9IsWaitingEv:
.LFB2860:
	.loc 2 705 0
	.cfi_startproc
.LVL481:
	.loc 2 706 0
	lwz 0,4(3)
	.loc 2 705 0
	mr 9,3
	.loc 2 707 0
	li 3,1
.LVL482:
	.loc 2 706 0
	cmpwi 7,0,0
	bnelr+ 7
	.loc 2 706 0 is_stmt 0 discriminator 1
	lwz 0,8(9)
	cmpwi 7,0,4095
	bnelr+ 7
	.loc 2 710 0 is_stmt 1
	lwz 0,12(9)
	.loc 2 714 0
	li 3,0
	.loc 2 710 0
	cmpwi 7,0,0
	beqlr- 7
	.loc 2 710 0 is_stmt 0 discriminator 1
	lis 9,gameLocal+2426836@ha
.LVL483:
	.loc 2 705 0 is_stmt 1 discriminator 1
	lwz 9,gameLocal+2426836@l(9)
	cmpw 7,0,9
	mfcr 3
	rlwinm 3,3,30,1
	.loc 2 715 0 discriminator 1
	blr
	.cfi_endproc
.LFE2860:
	.size	_ZN8idThread9IsWaitingEv, .-_ZN8idThread9IsWaitingEv
	.align 2
	.globl _ZN8idThread12CallFunctionEPK10function_tb
	.type	_ZN8idThread12CallFunctionEPK10function_tb, @function
_ZN8idThread12CallFunctionEPK10function_tb:
.LFB2861:
	.loc 2 724 0
	.cfi_startproc
.LVL484:
	mflr 0
	stwu 1,-8(1)
.LCFI138:
	.cfi_def_cfa_offset 8
	.cfi_register 65, 0
.LBB2086:
.LBB2087:
	.loc 2 748 0
	li 9,4095
.LBE2087:
.LBE2086:
	.loc 2 724 0
	stw 0,12(1)
.LBB2089:
.LBB2088:
	.loc 2 749 0
	li 0,0
	.cfi_offset 65, 4
	stw 0,4(3)
	.loc 2 750 0
	stw 0,12(3)
	.loc 2 748 0
	stw 9,8(3)
.LBE2088:
.LBE2089:
	.loc 2 726 0
	addi 3,3,16
.LVL485:
	bl _ZN13idInterpreter13EnterFunctionEPK10function_tb
.LVL486:
	.loc 2 727 0
	lwz 0,12(1)
	addi 1,1,8
.LCFI139:
	.cfi_def_cfa_offset 0
	mtlr 0
	blr
	.cfi_endproc
.LFE2861:
	.size	_ZN8idThread12CallFunctionEPK10function_tb, .-_ZN8idThread12CallFunctionEPK10function_tb
	.align 2
	.globl _ZN8idThread12CallFunctionEP8idEntityPK10function_tb
	.type	_ZN8idThread12CallFunctionEP8idEntityPK10function_tb, @function
_ZN8idThread12CallFunctionEP8idEntityPK10function_tb:
.LFB2862:
	.loc 2 736 0
	.cfi_startproc
.LVL487:
	mflr 0
	stwu 1,-8(1)
.LCFI140:
	.cfi_def_cfa_offset 8
	.cfi_register 65, 0
.LBB2090:
.LBB2091:
	.loc 2 748 0
	li 9,4095
.LBE2091:
.LBE2090:
	.loc 2 736 0
	stw 0,12(1)
.LBB2093:
.LBB2092:
	.loc 2 749 0
	li 0,0
	.cfi_offset 65, 4
	stw 0,4(3)
	.loc 2 750 0
	stw 0,12(3)
	.loc 2 748 0
	stw 9,8(3)
.LBE2092:
.LBE2093:
	.loc 2 739 0
	addi 3,3,16
.LVL488:
	bl _ZN13idInterpreter19EnterObjectFunctionEP8idEntityPK10function_tb
.LVL489:
	.loc 2 740 0
	lwz 0,12(1)
	addi 1,1,8
.LCFI141:
	.cfi_def_cfa_offset 0
	mtlr 0
	blr
	.cfi_endproc
.LFE2862:
	.size	_ZN8idThread12CallFunctionEP8idEntityPK10function_tb, .-_ZN8idThread12CallFunctionEP8idEntityPK10function_tb
	.align 2
	.globl _ZN8idThread12ClearWaitForEv
	.type	_ZN8idThread12ClearWaitForEv, @function
_ZN8idThread12ClearWaitForEv:
.LFB2863:
	.loc 2 747 0
	.cfi_startproc
.LVL490:
	.loc 2 749 0
	li 0,0
	.loc 2 748 0
	li 9,4095
	stw 9,8(3)
	.loc 2 751 0
	.loc 2 749 0
	stw 0,4(3)
	.loc 2 750 0
	stw 0,12(3)
	.loc 2 751 0
	blr
	.cfi_endproc
.LFE2863:
	.size	_ZN8idThread12ClearWaitForEv, .-_ZN8idThread12ClearWaitForEv
	.align 2
	.globl _ZN8idThread12IsWaitingForEP8idEntity
	.type	_ZN8idThread12IsWaitingForEP8idEntity, @function
_ZN8idThread12IsWaitingForEP8idEntity:
.LFB2864:
	.loc 2 758 0
	.cfi_startproc
.LVL491:
	.loc 2 760 0
	lwz 0,8(3)
	lwz 3,4(4)
.LVL492:
	.loc 2 761 0
	xor 3,0,3
	cntlzw 3,3
	srwi 3,3,5
	blr
	.cfi_endproc
.LFE2864:
	.size	_ZN8idThread12IsWaitingForEP8idEntity, .-_ZN8idThread12IsWaitingForEP8idEntity
	.align 2
	.globl _ZN8idThread14ObjectMoveDoneEP8idEntity
	.type	_ZN8idThread14ObjectMoveDoneEP8idEntity, @function
_ZN8idThread14ObjectMoveDoneEP8idEntity:
.LFB2865:
	.loc 2 768 0
	.cfi_startproc
.LVL493:
	.loc 2 771 0
	lwz 0,8(3)
	lwz 11,4(4)
	cmpw 7,0,11
	bnelr+ 7
.LVL494:
.LBB2094:
.LBB2095:
	.loc 2 749 0
	li 0,0
	.loc 2 748 0
	li 11,4095
	stw 11,8(3)
.LBE2095:
.LBE2094:
	.loc 2 773 0
	li 4,0
.LVL495:
.LBB2098:
.LBB2096:
	.loc 2 749 0
	stw 0,4(3)
.LBE2096:
.LBE2098:
	.loc 2 775 0
.LBB2099:
.LBB2097:
	.loc 2 750 0
	stw 0,12(3)
.LBE2097:
.LBE2099:
	.loc 2 773 0
	b _ZN8idThread12DelayedStartEi
.LVL496:
.LVL497:
	.cfi_endproc
.LFE2865:
	.size	_ZN8idThread14ObjectMoveDoneEP8idEntity, .-_ZN8idThread14ObjectMoveDoneEP8idEntity
	.align 2
	.globl _ZN8idThread14ObjectMoveDoneEiP8idEntity
	.type	_ZN8idThread14ObjectMoveDoneEiP8idEntity, @function
_ZN8idThread14ObjectMoveDoneEiP8idEntity:
.LFB2855:
	.loc 2 592 0
	.cfi_startproc
.LVL498:
.LBB2100:
	.loc 2 595 0
	mr. 0,3
	beqlr- 0
.LVL499:
.LBB2101:
	.loc 2 461 0
	lis 9,.LANCHOR0@ha
	la 9,.LANCHOR0@l(9)
	lwz 11,252(9)
.LVL500:
	addi 9,9,252
.LBB2102:
	.loc 2 462 0
	cmpwi 7,11,0
	blelr- 7
.LBE2102:
	.loc 2 463 0
	lwz 10,12(9)
.LVL501:
.LBB2103:
	lwz 3,0(10)
.LVL502:
	.loc 2 464 0
	lwz 9,7020(3)
	cmpw 7,0,9
	beq- 7,.L215
	li 9,0
	mtctr 11
	b .L216
.LVL503:
.L217:
	.loc 2 463 0
	lwzx 3,10,11
.LVL504:
	.loc 2 464 0
	lwz 11,7020(3)
	cmpw 7,0,11
	beq- 7,.L215
.LVL505:
.L216:
	.loc 2 462 0
	addi 9,9,1
.LVL506:
	.loc 2 463 0
	slwi 11,9,2
	.loc 2 462 0
	bdnz .L217
	blr
.LVL507:
.L215:
.LBE2103:
.LBE2101:
.LBE2100:
	.loc 2 603 0
.LBB2104:
	.loc 2 601 0
	b _ZN8idThread14ObjectMoveDoneEP8idEntity
.LVL508:
.LVL509:
.LVL510:
.LVL511:
.LVL512:
.LBE2104:
	.cfi_endproc
.LFE2855:
	.size	_ZN8idThread14ObjectMoveDoneEiP8idEntity, .-_ZN8idThread14ObjectMoveDoneEiP8idEntity
	.align 2
	.globl _ZN8idThread14ThreadCallbackEPS_
	.type	_ZN8idThread14ThreadCallbackEPS_, @function
_ZN8idThread14ThreadCallbackEPS_:
.LFB2866:
	.loc 2 782 0
	.cfi_startproc
.LVL513:
	.loc 2 783 0
	lbz 0,6973(3)
	cmpwi 7,0,0
	bnelr- 7
	.loc 2 787 0
	lwz 11,4(3)
	cmpw 7,11,4
	bnelr+ 7
.LVL514:
.LBB2105:
.LBB2106:
	.loc 2 748 0
	li 11,4095
	.loc 2 749 0
	stw 0,4(3)
	.loc 2 748 0
	stw 11,8(3)
.LBE2106:
.LBE2105:
	.loc 2 789 0
	li 4,0
.LVL515:
.LBB2108:
.LBB2107:
	.loc 2 750 0
	stw 0,12(3)
.LBE2107:
.LBE2108:
	.loc 2 791 0
	.loc 2 789 0
	b _ZN8idThread12DelayedStartEi
.LVL516:
.LVL517:
	.cfi_endproc
.LFE2866:
	.size	_ZN8idThread14ThreadCallbackEPS_, .-_ZN8idThread14ThreadCallbackEPS_
	.align 2
	.globl _ZNK8idThread5ErrorEPKcz
	.type	_ZNK8idThread5ErrorEPKcz, @function
_ZNK8idThread5ErrorEPKcz:
.LFB2868:
	.loc 2 807 0
	.cfi_startproc
.LVL518:
	mflr 0
	stwu 1,-1144(1)
.LCFI142:
	.cfi_def_cfa_offset 1144
	.cfi_register 65, 0
	stw 31,1140(1)
	mr 31,3
	.cfi_offset 31, -4
	stw 0,1148(1)
	stw 5,1048(1)
	stw 6,1052(1)
	stw 7,1056(1)
	stw 8,1060(1)
	stw 9,1064(1)
	stw 10,1068(1)
	bne- 1,.L221
	.cfi_offset 65, 4
	.loc 2 807 0
	stfd 1,1072(1)
	stfd 2,1080(1)
	stfd 3,1088(1)
	stfd 4,1096(1)
	stfd 5,1104(1)
	stfd 6,1112(1)
	stfd 7,1120(1)
	stfd 8,1128(1)
.L221:
.LBB2109:
	.loc 2 811 0
	li 0,2
	.loc 2 812 0
	addi 5,1,8
	.loc 2 811 0
	stb 0,8(1)
	li 0,0
	stb 0,9(1)
	addi 0,1,1152
	stw 0,12(1)
	.loc 2 812 0
	addi 3,1,20
.LVL519:
	.loc 2 811 0
	addi 0,1,1040
	stw 0,16(1)
	.loc 2 812 0
	bl vsprintf
.LVL520:
	.loc 2 815 0
	addi 3,31,16
	addi 4,1,20
	crxor 6,6,6
	bl _ZNK13idInterpreter5ErrorEPcz
.LBE2109:
	.loc 2 816 0
	lwz 0,1148(1)
	lwz 31,1140(1)
.LVL521:
	mtlr 0
	addi 1,1,1144
.LCFI143:
	.cfi_def_cfa_offset 0
	.cfi_restore 31
	blr
	.cfi_endproc
.LFE2868:
	.size	_ZNK8idThread5ErrorEPKcz, .-_ZNK8idThread5ErrorEPKcz
	.align 2
	.globl _ZN8idThread11Event_ErrorEPKc
	.type	_ZN8idThread11Event_ErrorEPKc, @function
_ZN8idThread11Event_ErrorEPKc:
.LFB2937:
	.loc 2 1626 0
	.cfi_startproc
.LVL522:
	.loc 2 1626 0
	mr 5,4
	.loc 2 1627 0
	lis 4,.LC17@ha
.LVL523:
	la 4,.LC17@l(4)
	.loc 2 1628 0
	.loc 2 1627 0
	crxor 6,6,6
	b _ZNK8idThread5ErrorEPKcz
.LVL524:
.LVL525:
	.cfi_endproc
.LFE2937:
	.size	_ZN8idThread11Event_ErrorEPKc, .-_ZN8idThread11Event_ErrorEPKc
	.align 2
	.globl _ZN8idThread19Event_SetShaderParmEif
	.type	_ZN8idThread19Event_SetShaderParmEif, @function
_ZN8idThread19Event_SetShaderParmEif:
.LFB2934:
	.loc 2 1595 0
	.cfi_startproc
.LVL526:
	.loc 2 1596 0
	cmplwi 7,4,11
	.loc 2 1595 0
	mflr 0
	stwu 1,-24(1)
.LCFI144:
	.cfi_def_cfa_offset 24
	.cfi_register 65, 0
	stw 31,20(1)
	mr 31,4
	.cfi_offset 31, -4
	stw 0,28(1)
	.loc 2 1596 0
	ble+ 7,.L224
	.cfi_offset 65, 4
	.loc 2 1597 0
	lis 4,.LC31@ha
.LVL527:
	mr 5,31
	la 4,.LC31@l(4)
	stfd 1,8(1)
	crxor 6,6,6
	bl _ZNK8idThread5ErrorEPKcz
.LVL528:
	lfd 1,8(1)
.L224:
	.loc 2 1600 0
	addi 31,31,8356
.LVL529:
	lis 9,gameLocal@ha
	slwi 31,31,2
.LVL530:
	la 9,gameLocal@l(9)
	stfsx 1,9,31
	.loc 2 1601 0
	lwz 0,28(1)
	lwz 31,20(1)
	mtlr 0
	addi 1,1,24
.LCFI145:
	.cfi_def_cfa_offset 0
	.cfi_restore 31
	blr
	.cfi_endproc
.LFE2934:
	.size	_ZN8idThread19Event_SetShaderParmEif, .-_ZN8idThread19Event_SetShaderParmEif
	.align 2
	.globl _ZN8idThread15Event_SetCameraEP8idEntity
	.type	_ZN8idThread15Event_SetCameraEP8idEntity, @function
_ZN8idThread15Event_SetCameraEP8idEntity:
.LFB2921:
	.loc 2 1415 0
	.cfi_startproc
.LVL531:
	stwu 1,-16(1)
.LCFI146:
	.cfi_def_cfa_offset 16
	mflr 0
	stw 31,12(1)
	.loc 2 1416 0
	mr. 31,4
	.cfi_offset 31, -4
	.cfi_register 65, 0
	.loc 2 1415 0
	stw 30,8(1)
	mr 30,3
	.cfi_offset 30, -8
	stw 0,20(1)
	.loc 2 1416 0
	beq- 0,.L229
	.cfi_offset 65, 4
.LVL532:
.LBB2110:
.LBB2111:
	.loc 8 340 0
	lwz 9,0(31)
	mr 3,31
.LVL533:
	lwz 0,0(9)
	mtctr 0
	bctrl
.LVL534:
.LBE2111:
	.loc 2 1863 0
	lis 9,_ZN8idCamera4TypeE@ha
	la 9,_ZN8idCamera4TypeE@l(9)
	lwz 0,56(3)
.LBB2114:
.LBB2112:
.LBB2113:
	.loc 8 311 0
	lwz 11,56(9)
	cmpw 7,0,11
	blt- 7,.L227
	lwz 9,60(9)
	cmpw 7,0,9
	bgt- 7,.L227
.LBE2113:
.LBE2112:
.LBE2114:
.LBE2110:
	.loc 2 1426 0
	lis 3,gameLocal@ha
.LVL535:
	mr 4,31
	la 3,gameLocal@l(3)
	bl _ZN11idGameLocal9SetCameraEP8idCamera
	.loc 2 1427 0
	lwz 0,20(1)
	lwz 30,8(1)
.LVL536:
	mtlr 0
	lwz 31,12(1)
.LVL537:
	addi 1,1,16
	.cfi_remember_state
.LCFI147:
	.cfi_def_cfa_offset 0
	.cfi_restore 31
	.cfi_restore 30
	blr
.LVL538:
.L227:
.LCFI148:
	.cfi_restore_state
	lwz 0,20(1)
	.loc 2 1422 0
	mr 3,30
.LVL539:
	.loc 2 1427 0
	lwz 31,12(1)
.LVL540:
	.loc 2 1422 0
	lis 4,.LC33@ha
	.loc 2 1427 0
	lwz 30,8(1)
.LVL541:
	mtlr 0
	.loc 2 1422 0
	la 4,.LC33@l(4)
	.loc 2 1427 0
	addi 1,1,16
	.cfi_remember_state
.LCFI149:
	.cfi_def_cfa_offset 0
	.cfi_restore 31
	.cfi_restore 30
	.loc 2 1422 0
	crxor 6,6,6
	b _ZNK8idThread5ErrorEPKcz
.LVL542:
.L229:
.LCFI150:
	.cfi_restore_state
	.loc 2 1427 0
	lwz 0,20(1)
	.loc 2 1417 0
	lis 4,.LC32@ha
.LVL543:
	.loc 2 1427 0
	lwz 30,8(1)
	.loc 2 1417 0
	la 4,.LC32@l(4)
	.loc 2 1427 0
	lwz 31,12(1)
.LVL544:
	mtlr 0
	addi 1,1,16
	.cfi_restore 30
	.cfi_restore 31
.LCFI151:
	.cfi_def_cfa_offset 0
	.loc 2 1422 0
	crxor 6,6,6
	b _ZNK8idThread5ErrorEPKcz
.LVL545:
	.cfi_endproc
.LFE2921:
	.size	_ZN8idThread15Event_SetCameraEP8idEntity, .-_ZN8idThread15Event_SetCameraEP8idEntity
	.align 2
	.globl _ZN8idThread23Event_ClearSignalThreadEiP8idEntity
	.type	_ZN8idThread23Event_ClearSignalThreadEiP8idEntity, @function
_ZN8idThread23Event_ClearSignalThreadEiP8idEntity:
.LFB2920:
	.loc 2 1398 0
	.cfi_startproc
.LVL546:
	stwu 1,-24(1)
.LCFI152:
	.cfi_def_cfa_offset 24
	mflr 0
	stw 30,16(1)
	.loc 2 1399 0
	mr. 30,5
	.cfi_offset 30, -8
	.cfi_register 65, 0
	.loc 2 1398 0
	stw 31,20(1)
	mr 5,3
.LVL547:
	stw 0,28(1)
	.loc 2 1398 0
	mr 31,4
	.cfi_offset 65, 4
	.cfi_offset 31, -4
	.loc 2 1399 0
	beq- 0,.L233
.LVL548:
.L231:
	.loc 2 1403 0
	cmplwi 7,31,9
	ble+ 7,.L232
	.loc 2 1404 0
	lis 4,.LC34@ha
	mr 3,5
	la 4,.LC34@l(4)
	stw 5,8(1)
	crxor 6,6,6
	bl _ZNK8idThread5ErrorEPKcz
	lwz 5,8(1)
.L232:
	.loc 2 1407 0
	mr 3,30
	mr 4,31
	bl _ZN8idEntity17ClearSignalThreadE11signalNum_tP8idThread
	.loc 2 1408 0
	lwz 0,28(1)
	lwz 30,16(1)
.LVL549:
	mtlr 0
	lwz 31,20(1)
.LVL550:
	addi 1,1,24
	.cfi_remember_state
.LCFI153:
	.cfi_def_cfa_offset 0
	.cfi_restore 31
	.cfi_restore 30
	blr
.LVL551:
.L233:
.LCFI154:
	.cfi_restore_state
	.loc 2 1400 0
	lis 4,.LC32@ha
.LVL552:
	stw 3,8(1)
	la 4,.LC32@l(4)
	crxor 6,6,6
	bl _ZNK8idThread5ErrorEPKcz
.LVL553:
	lwz 5,8(1)
	b .L231
	.cfi_endproc
.LFE2920:
	.size	_ZN8idThread23Event_ClearSignalThreadEiP8idEntity, .-_ZN8idThread23Event_ClearSignalThreadEiP8idEntity
	.align 2
	.globl _ZN8idThread14Event_OnSignalEiP8idEntityPKc
	.type	_ZN8idThread14Event_OnSignalEiP8idEntityPKc, @function
_ZN8idThread14Event_OnSignalEiP8idEntityPKc:
.LFB2919:
	.loc 2 1372 0
	.cfi_startproc
.LVL554:
	stwu 1,-32(1)
.LCFI155:
	.cfi_def_cfa_offset 32
	mflr 0
	stw 29,20(1)
.LBB2115:
	.loc 2 1377 0
	mr. 29,5
	.cfi_offset 29, -12
	.cfi_register 65, 0
.LBE2115:
	.loc 2 1372 0
	stw 27,12(1)
	mr 27,6
	.cfi_offset 27, -20
	stw 30,24(1)
	mr 30,3
	.cfi_offset 30, -8
	stw 31,28(1)
	mr 31,4
	.cfi_offset 31, -4
	stw 0,36(1)
	stw 28,16(1)
.LBB2116:
	.loc 2 1377 0
	beq- 0,.L238
	.cfi_offset 28, -16
	.cfi_offset 65, 4
.LVL555:
.L235:
	.loc 2 1381 0
	cmplwi 7,31,9
	bgt- 7,.L239
	.loc 2 1385 0
	lis 3,gameLocal+33476@ha
	mr 4,27
	la 3,gameLocal+33476@l(3)
	bl _ZNK9idProgram12FindFunctionEPKc
.LVL556:
	.loc 2 1386 0
	mr. 28,3
	beq- 0,.L240
.L237:
	.loc 2 1390 0
	mr 3,29
.LVL557:
	mr 4,31
	mr 5,30
	mr 6,28
	bl _ZN8idEntity9SetSignalE11signalNum_tP8idThreadPK10function_t
.LBE2116:
	.loc 2 1391 0
	lwz 0,36(1)
	lwz 27,12(1)
.LVL558:
	mtlr 0
	lwz 28,16(1)
.LVL559:
	lwz 29,20(1)
.LVL560:
	lwz 30,24(1)
.LVL561:
	lwz 31,28(1)
.LVL562:
	addi 1,1,32
	.cfi_remember_state
.LCFI156:
	.cfi_def_cfa_offset 0
	.cfi_restore 31
	.cfi_restore 30
	.cfi_restore 29
	.cfi_restore 28
	.cfi_restore 27
	blr
.LVL563:
.L239:
.LCFI157:
	.cfi_restore_state
.LBB2117:
	.loc 2 1382 0
	lis 4,.LC34@ha
	mr 3,30
	la 4,.LC34@l(4)
	crxor 6,6,6
	bl _ZNK8idThread5ErrorEPKcz
	.loc 2 1385 0
	lis 3,gameLocal+33476@ha
	la 3,gameLocal+33476@l(3)
	mr 4,27
	bl _ZNK9idProgram12FindFunctionEPKc
.LVL564:
	.loc 2 1386 0
	mr. 28,3
	bne+ 0,.L237
.L240:
	.loc 2 1387 0
	lis 4,.LC35@ha
	mr 3,30
.LVL565:
	mr 5,27
	la 4,.LC35@l(4)
	crxor 6,6,6
	bl _ZNK8idThread5ErrorEPKcz
	.loc 2 1390 0
	mr 3,29
	mr 4,31
	mr 5,30
	mr 6,28
	bl _ZN8idEntity9SetSignalE11signalNum_tP8idThreadPK10function_t
.LBE2117:
	.loc 2 1391 0
	lwz 0,36(1)
	lwz 27,12(1)
.LVL566:
	mtlr 0
	lwz 28,16(1)
.LVL567:
	lwz 29,20(1)
.LVL568:
	lwz 30,24(1)
.LVL569:
	lwz 31,28(1)
.LVL570:
	addi 1,1,32
	.cfi_remember_state
	.cfi_restore 27
	.cfi_restore 28
	.cfi_restore 29
	.cfi_restore 30
	.cfi_restore 31
.LCFI158:
	.cfi_def_cfa_offset 0
	blr
.LVL571:
.L238:
.LCFI159:
	.cfi_restore_state
.LBB2118:
	.loc 2 1378 0
	lis 4,.LC32@ha
.LVL572:
	la 4,.LC32@l(4)
	crxor 6,6,6
	bl _ZNK8idThread5ErrorEPKcz
.LVL573:
	b .L235
.LBE2118:
	.cfi_endproc
.LFE2919:
	.size	_ZN8idThread14Event_OnSignalEiP8idEntityPKc, .-_ZN8idThread14Event_OnSignalEiP8idEntityPKc
	.align 2
	.globl _ZNK8idThread7WarningEPKcz
	.type	_ZNK8idThread7WarningEPKcz, @function
_ZNK8idThread7WarningEPKcz:
.LFB2869:
	.loc 2 823 0
	.cfi_startproc
.LVL574:
	mflr 0
	stwu 1,-1144(1)
.LCFI160:
	.cfi_def_cfa_offset 1144
	.cfi_register 65, 0
	stw 31,1140(1)
	mr 31,3
	.cfi_offset 31, -4
	stw 0,1148(1)
	stw 5,1048(1)
	stw 6,1052(1)
	stw 7,1056(1)
	stw 8,1060(1)
	stw 9,1064(1)
	stw 10,1068(1)
	bne- 1,.L242
	.cfi_offset 65, 4
	.loc 2 823 0
	stfd 1,1072(1)
	stfd 2,1080(1)
	stfd 3,1088(1)
	stfd 4,1096(1)
	stfd 5,1104(1)
	stfd 6,1112(1)
	stfd 7,1120(1)
	stfd 8,1128(1)
.L242:
.LBB2119:
	.loc 2 827 0
	li 0,2
	.loc 2 828 0
	addi 5,1,8
	.loc 2 827 0
	stb 0,8(1)
	li 0,0
	stb 0,9(1)
	addi 0,1,1152
	stw 0,12(1)
	.loc 2 828 0
	addi 3,1,20
.LVL575:
	.loc 2 827 0
	addi 0,1,1040
	stw 0,16(1)
	.loc 2 828 0
	bl vsprintf
.LVL576:
	.loc 2 831 0
	addi 3,31,16
	addi 4,1,20
	crxor 6,6,6
	bl _ZNK13idInterpreter7WarningEPcz
.LBE2119:
	.loc 2 832 0
	lwz 0,1148(1)
	lwz 31,1140(1)
.LVL577:
	mtlr 0
	addi 1,1,1144
.LCFI161:
	.cfi_def_cfa_offset 0
	.cfi_restore 31
	blr
	.cfi_endproc
.LFE2869:
	.size	_ZNK8idThread7WarningEPKcz, .-_ZNK8idThread7WarningEPKcz
	.align 2
	.globl _ZN8idThread13Event_WarningEPKc
	.type	_ZN8idThread13Event_WarningEPKc, @function
_ZN8idThread13Event_WarningEPKc:
.LFB2936:
	.loc 2 1617 0
	.cfi_startproc
.LVL578:
	.loc 2 1617 0
	mr 5,4
	.loc 2 1618 0
	lis 4,.LC17@ha
.LVL579:
	la 4,.LC17@l(4)
	.loc 2 1619 0
	.loc 2 1618 0
	crxor 6,6,6
	b _ZNK8idThread7WarningEPKcz
.LVL580:
.LVL581:
	.cfi_endproc
.LFE2936:
	.size	_ZN8idThread13Event_WarningEPKc, .-_ZN8idThread13Event_WarningEPKc
	.align 2
	.globl _ZN8idThread19Event_WaitForThreadEi
	.type	_ZN8idThread19Event_WaitForThreadEi, @function
_ZN8idThread19Event_WaitForThreadEi:
.LFB2885:
	.loc 2 999 0
	.cfi_startproc
.LVL582:
.LBB2142:
.LBB2143:
	.loc 2 461 0
	lis 9,.LANCHOR0@ha
.LBE2143:
.LBE2142:
	.loc 2 999 0
	mr 5,4
.LVL583:
.LBB2155:
.LBB2146:
	.loc 2 461 0
	la 9,.LANCHOR0@l(9)
	lwz 0,252(9)
	addi 9,9,252
.LBB2144:
	.loc 2 462 0
	cmpwi 7,0,0
	ble- 7,.L245
.LVL584:
.LBE2144:
	.loc 2 463 0
	lwz 10,12(9)
.LVL585:
.LBB2145:
	lwz 11,0(10)
.LVL586:
	.loc 2 464 0
	lwz 9,7020(11)
	cmpw 7,4,9
	beq- 7,.L246
	li 9,0
	mtctr 0
	b .L247
.LVL587:
.L248:
	.loc 2 463 0
	lwzx 11,10,0
.LVL588:
	.loc 2 464 0
	lwz 0,7020(11)
	cmpw 7,5,0
	beq- 7,.L246
.LVL589:
.L247:
	.loc 2 462 0
	addi 9,9,1
.LVL590:
	.loc 2 463 0
	slwi 0,9,2
	.loc 2 462 0
	bdnz .L248
.LVL591:
.L245:
.LBE2145:
.LBE2146:
.LBE2155:
.LBB2156:
	.loc 2 1004 0
	lis 9,g_debugScript+44@ha
.LBB2157:
.LBB2158:
.LBB2159:
	.file 11 "d:/Data/Nintendo/DoomGX/src/game/script/../../idlib/../framework/CVarSystem.h"
	.loc 11 142 0
	lwz 9,g_debugScript+44@l(9)
.LBE2159:
.LBE2158:
	.loc 2 1004 0
	lwz 0,36(9)
	cmpwi 7,0,0
	beqlr+ 7
	.loc 2 1006 0
	lis 4,.LC36@ha
.LVL592:
.LBE2157:
.LBE2156:
	.loc 2 1012 0
.LBB2161:
.LBB2160:
	.loc 2 1006 0
	la 4,.LC36@l(4)
	crxor 6,6,6
	b _ZNK8idThread7WarningEPKcz
.LVL593:
.L246:
.LBE2160:
.LBE2161:
.LBB2162:
.LBB2147:
.LBB2148:
.LBB2149:
.LBB2150:
	.loc 2 748 0
	li 0,4095
.LBE2150:
.LBE2149:
.LBE2148:
.LBE2147:
	.loc 2 1010 0
	stw 11,4(3)
.LBB2154:
.LBB2153:
.LBB2152:
.LBB2151:
	.loc 2 748 0
	stw 0,8(3)
	.loc 2 750 0
	li 0,0
	stw 0,12(3)
.LBE2151:
.LBE2152:
	.loc 2 897 0
	li 0,1
	stb 0,6972(3)
	blr
.LBE2153:
.LBE2154:
.LBE2162:
	.cfi_endproc
.LFE2885:
	.size	_ZN8idThread19Event_WaitForThreadEi, .-_ZN8idThread19Event_WaitForThreadEi
	.align 2
	.globl _ZN8idThread12ReturnStringEPKc
	.type	_ZN8idThread12ReturnStringEPKc, @function
_ZN8idThread12ReturnStringEPKc:
.LFB2870:
	.loc 2 839 0
	.cfi_startproc
.LVL594:
	mflr 0
	stwu 1,-8(1)
.LCFI162:
	.cfi_def_cfa_offset 8
	.cfi_register 65, 0
.LBB2163:
.LBB2164:
	.loc 2 840 0
	lis 9,gameLocal+2311024@ha
.LBE2164:
.LBE2163:
	.loc 2 839 0
	mr 4,3
.LVL595:
.LBB2167:
.LBB2165:
	.loc 5 603 0
	lwz 9,gameLocal+2311024@l(9)
	li 5,128
.LBE2165:
.LBE2167:
	.loc 2 839 0
	stw 0,12(1)
.LBB2168:
.LBB2166:
	.loc 5 603 0
	lwz 3,4(9)
.LVL596:
	.cfi_offset 65, 4
	bl _ZN5idStr6CopynzEPcPKci
.LVL597:
.LBE2166:
.LBE2168:
	.loc 2 841 0
	lwz 0,12(1)
	addi 1,1,8
.LCFI163:
	.cfi_def_cfa_offset 0
	mtlr 0
	blr
	.cfi_endproc
.LFE2870:
	.size	_ZN8idThread12ReturnStringEPKc, .-_ZN8idThread12ReturnStringEPKc
	.align 2
	.globl _ZN8idThread12Event_StrMidEPKcii
	.type	_ZN8idThread12Event_StrMidEPKcii, @function
_ZN8idThread12Event_StrMidEPKcii:
.LFB2942:
	.loc 2 1714 0
	.cfi_startproc
	.cfi_personality 0,__gxx_personality_v0
	.cfi_lsda 0,.LLSDA2942
.LVL598:
	stwu 1,-64(1)
.LCFI164:
	.cfi_def_cfa_offset 64
	mfcr 12
	mflr 0
	stw 29,52(1)
.LBB2184:
	.loc 2 1717 0
	mr. 29,6
	.cfi_offset 29, -12
	.cfi_register 65, 0
	.cfi_register 70, 12
.LBE2184:
	.loc 2 1714 0
	stw 28,48(1)
	mr 28,4
	.cfi_offset 28, -16
	stw 0,68(1)
	stw 30,56(1)
	stw 31,60(1)
	stw 12,44(1)
.LBB2207:
	.loc 2 1717 0
	blt- 0,.L273
	.cfi_offset 70, -20
	.cfi_offset 31, -4
	.cfi_offset 30, -8
	.cfi_offset 65, 4
	.loc 2 1719 0
	nor 31,5,5
	.loc 2 1725 0
	mr 3,4
.LVL599:
	.loc 2 1719 0
	srawi 31,31,31
	and 31,5,31
.LVL600:
	.loc 2 1725 0
	bl strlen
.LVL601:
	cmpw 7,3,31
	mr 0,3
	bgt- 7,.L274
.LVL602:
	.loc 2 1730 0
	add 29,29,0
.LVL603:
	cmpw 7,3,29
	bge- 7,.L256
.LVL604:
.L279:
	.loc 2 1731 0
	mr 29,3
.LVL605:
.L256:
.LBB2185:
.LBB2186:
.LBB2187:
.LBB2188:
	.file 12 "d:/Data/Nintendo/DoomGX/src/game/script/../../idlib/../idlib/Str.h"
	.loc 12 359 0
	cmpw 7,29,3
	.loc 12 356 0
	li 9,0
	.loc 12 358 0
	addi 11,1,20
	.loc 12 357 0
	li 10,20
	.loc 12 356 0
	stw 9,8(1)
	.loc 12 357 0
	stw 10,16(1)
	.loc 12 358 0
	stw 11,12(1)
	.loc 12 359 0
	stb 9,20(1)
	bgt- 7,.L275
.LVL606:
.LBE2188:
.LBE2187:
	.loc 12 428 0
	cmpw 7,3,0
	mr 30,3
	bge- 7,.L276
.LVL607:
.L258:
	.loc 12 435 0
	subf 29,30,29
.LVL608:
	cmpwi 4,29,0
	blt- 4,.L267
.LVL609:
.L278:
	.loc 12 439 0
	addi 4,29,1
.LVL610:
	addi 31,1,8
.LBB2190:
.LBB2191:
	.loc 12 350 0
	cmpwi 7,4,20
	bgt- 7,.L277
.LVL611:
.L261:
.LBE2191:
.LBE2190:
	.loc 12 441 0
	beq- 4,.L269
	mtctr 29
	li 9,0
	add 30,28,30
.LVL612:
.L263:
	.loc 12 442 0
	lbzx 0,30,9
	stbx 0,11,9
	.loc 12 441 0
	addi 9,9,1
.LVL613:
	lwz 11,12(1)
	bdnz .L263
	mr 0,29
.LVL614:
.L260:
	.loc 12 445 0
	li 9,0
	stbx 9,11,0
	.loc 12 446 0
	stw 29,8(1)
.LVL615:
.LBE2186:
.LBE2185:
	.loc 2 1735 0
	lwz 3,12(1)
.LEHB0:
	bl _ZN8idThread12ReturnStringEPKc
.LEHE0:
.LVL616:
.LBB2198:
.LBB2199:
.LBB2200:
	.loc 12 501 0
	mr 3,31
.LEHB1:
	bl _ZN5idStr8FreeDataEv
.LVL617:
.L251:
.LBE2200:
.LBE2199:
.LBE2198:
.LBE2207:
	.loc 2 1736 0
	lwz 0,68(1)
	lwz 12,44(1)
	mtlr 0
	lwz 28,48(1)
.LVL618:
	lwz 29,52(1)
	mtcrf 8,12
	lwz 30,56(1)
	lwz 31,60(1)
	addi 1,1,64
	.cfi_remember_state
.LCFI165:
	.cfi_def_cfa_offset 0
	.cfi_restore 70
	.cfi_restore 31
	.cfi_restore 30
	.cfi_restore 29
	.cfi_restore 28
	blr
.LVL619:
.L276:
.LCFI166:
	.cfi_restore_state
.LBB2208:
.LBB2201:
.LBB2195:
	.loc 12 428 0
	nor 30,0,0
	srawi 30,30,31
	and 30,0,30
.LVL620:
	.loc 12 435 0
	subf 29,30,29
.LVL621:
	cmpwi 4,29,0
	bge+ 4,.L278
.L267:
	li 0,0
.LVL622:
	.loc 12 436 0
	li 29,0
.LVL623:
	addi 31,1,8
	b .L260
.LVL624:
.L275:
	.loc 12 428 0
	cmpw 7,3,0
.LBB2193:
.LBB2189:
	.loc 12 359 0
	mr 29,3
.LVL625:
.LBE2189:
.LBE2193:
	.loc 12 428 0
	mr 30,3
	blt- 7,.L258
	b .L276
.LVL626:
.L274:
.LBE2195:
.LBE2201:
	.loc 2 1725 0
	mr 0,31
	.loc 2 1730 0
	add 29,29,0
.LVL627:
	cmpw 7,3,29
	bge- 7,.L256
	b .L279
.LVL628:
.L277:
.LBB2202:
.LBB2196:
.LBB2194:
.LBB2192:
	.loc 12 351 0
	mr 3,31
.LVL629:
	li 5,1
	bl _ZN5idStr10ReAllocateEib
.LVL630:
	lwz 11,12(1)
	b .L261
.LVL631:
.L273:
.LBE2192:
.LBE2194:
.LBE2196:
.LBE2202:
	.loc 2 1718 0
	lis 3,.LC37@ha
.LVL632:
	la 3,.LC37@l(3)
	bl _ZN8idThread12ReturnStringEPKc
.LEHE1:
.LVL633:
	.loc 2 1719 0
	b .L251
.LVL634:
.L269:
.LBB2203:
.LBB2197:
	.loc 12 441 0
	li 0,0
	b .L260
.LVL635:
.L270:
	mr 30,3
.LVL636:
.LBE2197:
.LBE2203:
.LBB2204:
.LBB2205:
.LBB2206:
	.loc 12 501 0
	mr 3,31
	bl _ZN5idStr8FreeDataEv
	mr 3,30
.LEHB2:
	bl _Unwind_Resume
.LEHE2:
.LBE2206:
.LBE2205:
.LBE2204:
.LBE2208:
	.cfi_endproc
.LFE2942:
	.globl __gxx_personality_v0
	.section	.gcc_except_table,"a",@progbits
.LLSDA2942:
	.byte	0xff
	.byte	0xff
	.byte	0x1
	.uleb128 .LLSDACSE2942-.LLSDACSB2942
.LLSDACSB2942:
	.uleb128 .LEHB0-.LFB2942
	.uleb128 .LEHE0-.LEHB0
	.uleb128 .L270-.LFB2942
	.uleb128 0
	.uleb128 .LEHB1-.LFB2942
	.uleb128 .LEHE1-.LEHB1
	.uleb128 0
	.uleb128 0
	.uleb128 .LEHB2-.LFB2942
	.uleb128 .LEHE2-.LEHB2
	.uleb128 0
	.uleb128 0
.LLSDACSE2942:
	.section	".text"
	.size	_ZN8idThread12Event_StrMidEPKcii, .-_ZN8idThread12Event_StrMidEPKcii
	.align 2
	.globl _ZN8idThread13Event_StrSkipEPKci
	.type	_ZN8idThread13Event_StrSkipEPKci, @function
_ZN8idThread13Event_StrSkipEPKci:
.LFB2941:
	.loc 2 1692 0
	.cfi_startproc
.LVL637:
	stwu 1,-16(1)
.LCFI167:
	.cfi_def_cfa_offset 16
	mflr 0
.LBB2209:
	.loc 2 1696 0
	mr 3,4
.LVL638:
.LBE2209:
	.loc 2 1692 0
	stw 31,12(1)
.LBB2210:
	.loc 2 1695 0
	mr. 31,5
	.cfi_offset 31, -4
	.cfi_register 65, 0
.LBE2210:
	.loc 2 1692 0
	stw 30,8(1)
	mr 30,4
	.cfi_offset 30, -8
	stw 0,20(1)
.LBB2211:
	.loc 2 1695 0
	blt- 0,.L283
	.cfi_offset 65, 4
.LVL639:
	.loc 2 1700 0
	bl strlen
.LVL640:
	.loc 2 1701 0
	cmpw 7,31,3
	bgt- 7,.L284
	.loc 2 1706 0
	add 3,30,31
.LVL641:
.L283:
.LBE2211:
	.loc 2 1707 0
	lwz 0,20(1)
	lwz 30,8(1)
.LVL642:
	lwz 31,12(1)
.LVL643:
	mtlr 0
	addi 1,1,16
	.cfi_remember_state
.LCFI168:
	.cfi_def_cfa_offset 0
	.cfi_restore 31
	.cfi_restore 30
.LBB2212:
	.loc 2 1706 0
	b _ZN8idThread12ReturnStringEPKc
.LVL644:
.L284:
.LCFI169:
	.cfi_restore_state
.LBE2212:
	.loc 2 1707 0
	lwz 0,20(1)
.LBB2213:
	.loc 2 1702 0
	lis 3,.LC37@ha
.LVL645:
.LBE2213:
	.loc 2 1707 0
	lwz 30,8(1)
.LVL646:
.LBB2214:
	.loc 2 1702 0
	la 3,.LC37@l(3)
.LBE2214:
	.loc 2 1707 0
	lwz 31,12(1)
.LVL647:
	mtlr 0
	addi 1,1,16
	.cfi_restore 30
	.cfi_restore 31
.LCFI170:
	.cfi_def_cfa_offset 0
.LBB2215:
	.loc 2 1706 0
	b _ZN8idThread12ReturnStringEPKc
.LBE2215:
	.cfi_endproc
.LFE2941:
	.size	_ZN8idThread13Event_StrSkipEPKci, .-_ZN8idThread13Event_StrSkipEPKci
	.align 2
	.globl _ZN8idThread14Event_StrRightEPKci
	.type	_ZN8idThread14Event_StrRightEPKci, @function
_ZN8idThread14Event_StrRightEPKci:
.LFB2940:
	.loc 2 1670 0
	.cfi_startproc
.LVL648:
	stwu 1,-16(1)
.LCFI171:
	.cfi_def_cfa_offset 16
	mflr 0
	stw 31,12(1)
.LBB2216:
	.loc 2 1673 0
	mr. 31,5
	.cfi_offset 31, -4
	.cfi_register 65, 0
.LBE2216:
	.loc 2 1670 0
	stw 30,8(1)
	mr 30,4
	.cfi_offset 30, -8
	stw 0,20(1)
.LBB2217:
	.loc 2 1673 0
	blt- 0,.L289
	.cfi_offset 65, 4
	.loc 2 1678 0
	mr 3,4
.LVL649:
	bl strlen
.LVL650:
	.loc 2 1679 0
	cmpw 7,31,3
	bgt- 7,.L290
	.loc 2 1684 0
	subf 3,31,3
.LVL651:
	add 3,30,3
.L288:
.LBE2217:
	.loc 2 1685 0
	lwz 0,20(1)
	lwz 30,8(1)
.LVL652:
	lwz 31,12(1)
.LVL653:
	mtlr 0
	addi 1,1,16
	.cfi_remember_state
.LCFI172:
	.cfi_def_cfa_offset 0
	.cfi_restore 31
	.cfi_restore 30
.LBB2218:
	.loc 2 1684 0
	b _ZN8idThread12ReturnStringEPKc
.LVL654:
.L290:
.LCFI173:
	.cfi_restore_state
.LBE2218:
	.loc 2 1685 0
	lwz 0,20(1)
.LBB2219:
	.loc 2 1680 0
	mr 3,30
.LVL655:
.LBE2219:
	.loc 2 1685 0
	lwz 31,12(1)
.LVL656:
	lwz 30,8(1)
.LVL657:
	mtlr 0
	addi 1,1,16
	.cfi_remember_state
	.cfi_restore 30
	.cfi_restore 31
.LCFI174:
	.cfi_def_cfa_offset 0
.LBB2220:
	.loc 2 1684 0
	b _ZN8idThread12ReturnStringEPKc
.LVL658:
.L289:
.LCFI175:
	.cfi_restore_state
	.loc 2 1674 0
	lis 3,.LC37@ha
.LVL659:
	la 3,.LC37@l(3)
	b .L288
.LBE2220:
	.cfi_endproc
.LFE2940:
	.size	_ZN8idThread14Event_StrRightEPKci, .-_ZN8idThread14Event_StrRightEPKci
	.align 2
	.globl _ZN8idThread13Event_StrLeftEPKci
	.type	_ZN8idThread13Event_StrLeftEPKci, @function
_ZN8idThread13Event_StrLeftEPKci:
.LFB2939:
	.loc 2 1647 0
	.cfi_startproc
	.cfi_personality 0,__gxx_personality_v0
	.cfi_lsda 0,.LLSDA2939
.LVL660:
	stwu 1,-64(1)
.LCFI176:
	.cfi_def_cfa_offset 64
	mfcr 12
	mflr 0
	stw 29,52(1)
.LBB2236:
	.loc 2 1650 0
	mr. 29,5
	.cfi_offset 29, -12
	.cfi_register 65, 0
	.cfi_register 70, 12
.LBE2236:
	.loc 2 1647 0
	stw 30,56(1)
	mr 30,4
	.cfi_offset 30, -8
	stw 0,68(1)
	stw 28,48(1)
	stw 31,60(1)
	stw 12,44(1)
.LBB2255:
	.loc 2 1650 0
	blt- 0,.L308
	.cfi_offset 70, -20
	.cfi_offset 31, -4
	.cfi_offset 28, -16
	.cfi_offset 65, 4
	.loc 2 1655 0
	mr 3,4
.LVL661:
	bl strlen
.LVL662:
	.loc 2 1656 0
	cmpw 7,29,3
	bgt- 7,.L309
.LVL663:
.LBB2237:
.LBB2238:
.LBB2239:
.LBB2240:
	.loc 12 359 0
	cmpwi 7,3,0
	.loc 12 356 0
	li 0,0
	.loc 12 358 0
	addi 11,1,20
	.loc 12 357 0
	li 9,20
	.loc 12 359 0
	mr 28,3
	.loc 12 356 0
	stw 0,8(1)
	.loc 12 357 0
	stw 9,16(1)
	.loc 12 358 0
	stw 11,12(1)
	.loc 12 359 0
	stb 0,20(1)
	ble- 7,.L295
	li 28,0
.L295:
.LVL664:
.LBE2240:
.LBE2239:
	.loc 12 435 0
	subf 29,28,29
.LVL665:
	cmpwi 4,29,0
	blt- 4,.L302
	.loc 12 439 0
	addi 4,29,1
.LVL666:
	addi 31,1,8
.LBB2241:
.LBB2242:
	.loc 12 350 0
	cmpwi 7,4,20
	bgt- 7,.L310
.LVL667:
.L297:
.LBE2242:
.LBE2241:
	.loc 12 441 0
	beq- 4,.L304
	mtctr 29
	li 9,0
	add 30,30,28
.LVL668:
.L299:
	.loc 12 442 0
	lbzx 0,30,9
	stbx 0,11,9
	.loc 12 441 0
	addi 9,9,1
.LVL669:
	lwz 11,12(1)
	bdnz .L299
	mr 0,29
.LVL670:
.L296:
	.loc 12 445 0
	li 9,0
	stbx 9,11,0
	.loc 12 446 0
	stw 29,8(1)
.LVL671:
.LBE2238:
.LBE2237:
	.loc 2 1662 0
	lwz 3,12(1)
.LEHB3:
	bl _ZN8idThread12ReturnStringEPKc
.LEHE3:
.LVL672:
.LBB2247:
.LBB2248:
.LBB2249:
	.loc 12 501 0
	mr 3,31
.LEHB4:
	bl _ZN5idStr8FreeDataEv
.LVL673:
.L291:
.LBE2249:
.LBE2248:
.LBE2247:
.LBE2255:
	.loc 2 1663 0
	lwz 0,68(1)
	lwz 12,44(1)
	mtlr 0
	lwz 28,48(1)
	lwz 29,52(1)
	mtcrf 8,12
	lwz 30,56(1)
	lwz 31,60(1)
	addi 1,1,64
	.cfi_remember_state
.LCFI177:
	.cfi_def_cfa_offset 0
	.cfi_restore 70
	.cfi_restore 31
	.cfi_restore 30
	.cfi_restore 29
	.cfi_restore 28
	blr
.LVL674:
.L309:
.LCFI178:
	.cfi_restore_state
.LBB2256:
	.loc 2 1657 0
	mr 3,30
.LVL675:
	bl _ZN8idThread12ReturnStringEPKc
.LBE2256:
	.loc 2 1663 0
	lwz 0,68(1)
	lwz 12,44(1)
	mtlr 0
	lwz 28,48(1)
	lwz 29,52(1)
.LVL676:
	mtcrf 8,12
	lwz 30,56(1)
.LVL677:
	lwz 31,60(1)
	addi 1,1,64
	.cfi_remember_state
	.cfi_restore 28
	.cfi_restore 29
	.cfi_restore 30
	.cfi_restore 31
	.cfi_restore 70
.LCFI179:
	.cfi_def_cfa_offset 0
	blr
.LVL678:
.L310:
.LCFI180:
	.cfi_restore_state
.LBB2257:
.LBB2250:
.LBB2245:
.LBB2244:
.LBB2243:
	.loc 12 351 0
	mr 3,31
.LVL679:
	li 5,1
	bl _ZN5idStr10ReAllocateEib
.LVL680:
	lwz 11,12(1)
	b .L297
.LVL681:
.L302:
.LBE2243:
.LBE2244:
	.loc 12 435 0
	li 0,0
	.loc 12 436 0
	li 29,0
.LVL682:
	addi 31,1,8
	b .L296
.LVL683:
.L308:
.LBE2245:
.LBE2250:
	.loc 2 1651 0
	lis 3,.LC37@ha
.LVL684:
	la 3,.LC37@l(3)
	bl _ZN8idThread12ReturnStringEPKc
.LEHE4:
.LVL685:
	.loc 2 1652 0
	b .L291
.LVL686:
.L305:
	mr 30,3
.LVL687:
.LBB2251:
.LBB2252:
.LBB2253:
	.loc 12 501 0
	mr 3,31
	bl _ZN5idStr8FreeDataEv
	mr 3,30
.LEHB5:
	bl _Unwind_Resume
.LEHE5:
.LVL688:
.L304:
.LBE2253:
.LBE2252:
.LBE2251:
.LBB2254:
.LBB2246:
	.loc 12 441 0
	li 0,0
	b .L296
.LBE2246:
.LBE2254:
.LBE2257:
	.cfi_endproc
.LFE2939:
	.section	.gcc_except_table
.LLSDA2939:
	.byte	0xff
	.byte	0xff
	.byte	0x1
	.uleb128 .LLSDACSE2939-.LLSDACSB2939
.LLSDACSB2939:
	.uleb128 .LEHB3-.LFB2939
	.uleb128 .LEHE3-.LEHB3
	.uleb128 .L305-.LFB2939
	.uleb128 0
	.uleb128 .LEHB4-.LFB2939
	.uleb128 .LEHE4-.LEHB4
	.uleb128 0
	.uleb128 0
	.uleb128 .LEHB5-.LFB2939
	.uleb128 .LEHE5-.LEHB5
	.uleb128 0
	.uleb128 0
.LLSDACSE2939:
	.section	".text"
	.size	_ZN8idThread13Event_StrLeftEPKci, .-_ZN8idThread13Event_StrLeftEPKci
	.align 2
	.globl _ZN8idThread18Event_GetTraceBodyEv
	.type	_ZN8idThread18Event_GetTraceBodyEv, @function
_ZN8idThread18Event_GetTraceBodyEv:
.LFB2930:
	.loc 2 1527 0
	.cfi_startproc
.LVL689:
	stwu 1,-16(1)
.LCFI181:
	.cfi_def_cfa_offset 16
.LBB2258:
.LBB2259:
	.loc 2 1528 0
	lis 9,.LC10@ha
	lfs 0,.LC10@l(9)
.LBE2259:
.LBE2258:
	.loc 2 1527 0
	mflr 0
	stw 30,8(1)
.LBB2272:
.LBB2268:
	.loc 2 1528 0
	lis 30,.LANCHOR0@ha
	.cfi_offset 30, -8
	.cfi_register 65, 0
	la 30,.LANCHOR0@l(30)
.LBE2268:
.LBE2272:
	.loc 2 1527 0
	stw 31,12(1)
.LBB2273:
.LBB2269:
	.loc 2 1528 0
	lfs 13,80(30)
.LBE2269:
.LBE2273:
	.loc 2 1527 0
	stw 0,20(1)
.LBB2274:
.LBB2270:
	.loc 2 1528 0
	fcmpu 7,13,0
	bnl- 7,.L312
	.cfi_offset 65, 4
	.cfi_offset 31, -4
	.loc 2 1528 0 is_stmt 0 discriminator 1
	lwz 0,184(30)
	cmpwi 7,0,0
	blt- 7,.L317
.LVL690:
.L312:
.LBE2270:
	.loc 2 1539 0 is_stmt 1
	lis 3,.LC37@ha
	la 3,.LC37@l(3)
.L316:
.LBE2274:
	.loc 2 1540 0
	lwz 0,20(1)
	lwz 30,8(1)
	lwz 31,12(1)
	mtlr 0
	addi 1,1,16
	.cfi_remember_state
.LCFI182:
	.cfi_def_cfa_offset 0
	.cfi_restore 31
	.cfi_restore 30
.LBB2275:
	.loc 2 1539 0
	b _ZN8idThread12ReturnStringEPKc
.LVL691:
.L317:
.LCFI183:
	.cfi_restore_state
.LBB2271:
.LBB2260:
	.loc 2 1529 0
	lwz 9,180(30)
	addi 0,9,132
	lis 9,gameLocal@ha
	slwi 0,0,2
	la 9,gameLocal@l(9)
	add 9,9,0
	lwz 31,4(9)
.LVL692:
.LBB2261:
	.loc 2 1530 0
	cmpwi 7,31,0
	beq- 7,.L312
.LVL693:
.LBB2262:
.LBB2263:
	.loc 8 340 0 discriminator 1
	lwz 9,0(31)
.LVL694:
	mr 3,31
.LVL695:
	lwz 0,0(9)
	mtctr 0
	bctrl
.LVL696:
.LBE2263:
	.loc 2 1863 0 discriminator 1
	lis 9,_ZN15idAFEntity_Base4TypeE@ha
	la 9,_ZN15idAFEntity_Base4TypeE@l(9)
	lwz 0,56(3)
.LBB2266:
.LBB2264:
.LBB2265:
	.loc 8 311 0 discriminator 1
	lwz 11,56(9)
	cmpw 7,0,11
	blt- 7,.L312
	.loc 8 311 0 is_stmt 0
	lwz 9,60(9)
	cmpw 7,0,9
	bgt- 7,.L312
.LVL697:
.LBE2265:
.LBE2264:
.LBE2266:
.LBE2262:
	.loc 2 1530 0 is_stmt 1
	lbz 0,2185(31)
	cmpwi 7,0,0
	beq- 7,.L312
.LBB2267:
	.loc 2 1531 0 discriminator 5
	lwz 4,184(30)
	mr 3,31
.LVL698:
	bl _ZNK15idAFEntity_Base18BodyForClipModelIdEi
	mr 4,3
.LVL699:
	.loc 2 1532 0 discriminator 5
	addi 3,31,1656
.LVL700:
	bl _ZNK12idPhysics_AF7GetBodyEi
.LVL701:
	.loc 2 1533 0 discriminator 5
	cmpwi 0,3,0
	beq- 0,.L312
.LVL702:
	.loc 2 1534 0
	lwz 3,4(3)
.LVL703:
	b .L316
.LBE2267:
.LBE2261:
.LBE2260:
.LBE2271:
.LBE2275:
	.cfi_endproc
.LFE2930:
	.size	_ZN8idThread18Event_GetTraceBodyEv, .-_ZN8idThread18Event_GetTraceBodyEv
	.align 2
	.globl _ZN8idThread19Event_GetTraceJointEv
	.type	_ZN8idThread19Event_GetTraceJointEv, @function
_ZN8idThread19Event_GetTraceJointEv:
.LFB2929:
	.loc 2 1511 0
	.cfi_startproc
.LVL704:
	mflr 0
	stwu 1,-16(1)
.LCFI184:
	.cfi_def_cfa_offset 16
	.cfi_register 65, 0
.LBB2276:
.LBB2277:
	.loc 2 1512 0
	lis 9,.LC10@ha
.LBE2277:
.LBE2276:
	.loc 2 1511 0
	stw 31,12(1)
.LBB2288:
.LBB2284:
	.loc 2 1512 0
	lis 31,.LANCHOR0@ha
	.cfi_offset 31, -4
.LBE2284:
.LBE2288:
	.loc 2 1511 0
	stw 0,20(1)
.LBB2289:
.LBB2285:
	.loc 2 1512 0
	la 31,.LANCHOR0@l(31)
.LBE2285:
.LBE2289:
	.loc 2 1511 0
	stw 30,8(1)
.LBB2290:
.LBB2286:
	.loc 2 1512 0
	lfs 0,.LC10@l(9)
	lfs 13,80(31)
	fcmpu 7,13,0
	bnl- 7,.L319
	.cfi_offset 30, -8
	.cfi_offset 65, 4
	.loc 2 1512 0 is_stmt 0 discriminator 1
	lwz 0,184(31)
	cmpwi 7,0,0
	blt- 7,.L326
.LVL705:
.L319:
.LBE2286:
	.loc 2 1519 0 is_stmt 1
	lis 3,.LC37@ha
	la 3,.LC37@l(3)
.L325:
.LBE2290:
	.loc 2 1520 0
	lwz 0,20(1)
	lwz 30,8(1)
	lwz 31,12(1)
	mtlr 0
	addi 1,1,16
	.cfi_remember_state
.LCFI185:
	.cfi_def_cfa_offset 0
	.cfi_restore 31
	.cfi_restore 30
.LBB2291:
	.loc 2 1519 0
	b _ZN8idThread12ReturnStringEPKc
.LVL706:
.L326:
.LCFI186:
	.cfi_restore_state
.LBB2287:
.LBB2278:
	.loc 2 1513 0
	lwz 9,180(31)
	addi 0,9,132
	lis 9,gameLocal@ha
	slwi 0,0,2
	la 9,gameLocal@l(9)
	add 9,9,0
	lwz 30,4(9)
.LVL707:
	.loc 2 1514 0
	cmpwi 7,30,0
	beq- 7,.L319
.LVL708:
.LBB2279:
.LBB2280:
	.loc 8 340 0 discriminator 1
	lwz 9,0(30)
.LVL709:
	mr 3,30
.LVL710:
	lwz 0,0(9)
	mtctr 0
	bctrl
.LVL711:
.LBE2280:
	.loc 2 1863 0 discriminator 1
	lis 9,_ZN15idAFEntity_Base4TypeE@ha
	la 9,_ZN15idAFEntity_Base4TypeE@l(9)
	lwz 0,56(3)
.LBB2283:
.LBB2281:
.LBB2282:
	.loc 8 311 0 discriminator 1
	lwz 11,56(9)
	cmpw 7,0,11
	blt- 7,.L319
	.loc 8 311 0 is_stmt 0
	lwz 9,60(9)
	cmpw 7,0,9
	bgt- 7,.L319
.LVL712:
.LBE2282:
.LBE2281:
.LBE2283:
.LBE2279:
	.loc 2 1514 0 is_stmt 1
	lbz 0,2185(30)
	cmpwi 7,0,0
	beq- 7,.L319
	.loc 2 1515 0 discriminator 5
	lwz 9,0(30)
	mr 3,30
.LVL713:
	lwz 0,92(9)
	mtctr 0
	bctrl
	lwz 0,184(31)
	li 4,-1
	cmpwi 7,0,0
	blt- 7,.L327
	.loc 2 1515 0 is_stmt 0 discriminator 3
	bl _ZNK10idAnimator12GetJointNameE13jointHandle_t
	b .L325
.L327:
	.loc 2 1515 0 discriminator 1
	nor 4,0,0
	bl _ZNK10idAnimator12GetJointNameE13jointHandle_t
	b .L325
.LBE2278:
.LBE2287:
.LBE2291:
	.cfi_endproc
.LFE2929:
	.size	_ZN8idThread19Event_GetTraceJointEv, .-_ZN8idThread19Event_GetTraceJointEv
	.align 2
	.globl _ZN8idThread25Event_GetPersistantStringEPKc
	.type	_ZN8idThread25Event_GetPersistantStringEPKc, @function
_ZN8idThread25Event_GetPersistantStringEPKc:
.LFB2905:
	.loc 2 1226 0 is_stmt 1
	.cfi_startproc
.LVL714:
	mflr 0
	stwu 1,-8(1)
.LCFI187:
	.cfi_def_cfa_offset 8
	.cfi_register 65, 0
.LBB2292:
.LBB2293:
.LBB2294:
	.file 13 "d:/Data/Nintendo/DoomGX/src/game/script/../../idlib/../idlib/Dict.h"
	.loc 13 221 0
	lis 3,gameLocal+33380@ha
.LVL715:
	la 3,gameLocal+33380@l(3)
.LBE2294:
.LBE2293:
.LBE2292:
	.loc 2 1226 0
	stw 0,12(1)
.LBB2307:
.LBB2302:
.LBB2297:
	.loc 13 221 0
	.cfi_offset 65, 4
	bl _ZNK6idDict7FindKeyEPKc
.LVL716:
	.loc 13 222 0
	cmpwi 0,3,0
	beq- 0,.L330
.LVL717:
.LBE2297:
.LBE2302:
.LBE2307:
	.loc 2 1231 0
	lwz 0,12(1)
.LBB2308:
.LBB2303:
.LBB2298:
.LBB2295:
	.loc 2 1863 0
	lwz 9,4(3)
.LBE2295:
.LBE2298:
.LBE2303:
.LBE2308:
	.loc 2 1231 0
	mtlr 0
.LBB2309:
.LBB2304:
.LBB2299:
.LBB2296:
	.loc 2 1863 0
	lwz 3,4(9)
.LVL718:
.LBE2296:
.LBE2299:
.LBE2304:
.LBE2309:
	.loc 2 1231 0
	addi 1,1,8
	.cfi_remember_state
.LCFI188:
	.cfi_def_cfa_offset 0
.LBB2310:
	.loc 2 1230 0
	b _ZN8idThread12ReturnStringEPKc
.LVL719:
.L330:
.LCFI189:
	.cfi_restore_state
.LBE2310:
	.loc 2 1231 0
	lwz 0,12(1)
.LBB2311:
.LBB2305:
.LBB2300:
	.loc 13 226 0
	lis 3,.LC37@ha
.LVL720:
.LBE2300:
.LBE2305:
.LBE2311:
	.loc 2 1231 0
.LBB2312:
.LBB2306:
.LBB2301:
	.loc 13 226 0
	la 3,.LC37@l(3)
.LVL721:
.LBE2301:
.LBE2306:
.LBE2312:
	.loc 2 1231 0
	mtlr 0
	addi 1,1,8
.LCFI190:
	.cfi_def_cfa_offset 0
.LBB2313:
	.loc 2 1230 0
	b _ZN8idThread12ReturnStringEPKc
.LVL722:
.LBE2313:
	.cfi_endproc
.LFE2905:
	.size	_ZN8idThread25Event_GetPersistantStringEPKc, .-_ZN8idThread25Event_GetPersistantStringEPKc
	.align 2
	.globl _ZN8idThread17Event_SpawnStringEPKcS1_
	.type	_ZN8idThread17Event_SpawnStringEPKcS1_, @function
_ZN8idThread17Event_SpawnStringEPKcS1_:
.LFB2900:
	.loc 2 1171 0
	.cfi_startproc
.LVL723:
	mflr 0
	stwu 1,-16(1)
.LCFI191:
	.cfi_def_cfa_offset 16
	.cfi_register 65, 0
.LBB2314:
.LBB2315:
.LBB2316:
	.loc 13 221 0
	addi 3,3,6976
.LVL724:
.LBE2316:
.LBE2315:
.LBE2314:
	.loc 2 1171 0
	stw 31,12(1)
	mr 31,5
	.cfi_offset 31, -4
.LVL725:
	stw 0,20(1)
.LBB2320:
.LBB2319:
.LBB2318:
	.loc 13 221 0
	.cfi_offset 65, 4
	bl _ZNK6idDict7FindKeyEPKc
.LVL726:
	.loc 13 222 0
	mr. 9,3
	.loc 13 226 0
	mr 3,31
.LVL727:
	.loc 13 222 0
	beq- 0,.L332
.LVL728:
.LBB2317:
	.loc 2 1863 0
	lwz 9,4(9)
.LVL729:
	lwz 3,4(9)
.LVL730:
.L332:
.LBE2317:
.LBE2318:
.LBE2319:
.LBE2320:
	.loc 2 1176 0
	lwz 0,20(1)
	lwz 31,12(1)
.LVL731:
	mtlr 0
	addi 1,1,16
.LCFI192:
	.cfi_def_cfa_offset 0
	.cfi_restore 31
.LBB2321:
	.loc 2 1175 0
	b _ZN8idThread12ReturnStringEPKc
.LVL732:
.LBE2321:
	.cfi_endproc
.LFE2900:
	.size	_ZN8idThread17Event_SpawnStringEPKcS1_, .-_ZN8idThread17Event_SpawnStringEPKcS1_
	.align 2
	.globl _ZNK8idThread13Event_GetCvarEPKc
	.type	_ZNK8idThread13Event_GetCvarEPKc, @function
_ZNK8idThread13Event_GetCvarEPKc:
.LFB2892:
	.loc 2 1077 0
	.cfi_startproc
.LVL733:
	mflr 0
	stwu 1,-8(1)
.LCFI193:
	.cfi_def_cfa_offset 8
	.cfi_register 65, 0
	.loc 2 1078 0
	lis 9,cvarSystem@ha
	lwz 3,cvarSystem@l(9)
.LVL734:
	.loc 2 1077 0
	stw 0,12(1)
	.loc 2 1078 0
	lwz 9,0(3)
	lwz 0,44(9)
	.cfi_offset 65, 4
	mtctr 0
	bctrl
.LVL735:
	.loc 2 1079 0
	lwz 0,12(1)
	addi 1,1,8
.LCFI194:
	.cfi_def_cfa_offset 0
	mtlr 0
	.loc 2 1078 0
	b _ZN8idThread12ReturnStringEPKc
	.cfi_endproc
.LFE2892:
	.size	_ZNK8idThread13Event_GetCvarEPKc, .-_ZNK8idThread13Event_GetCvarEPKc
	.align 2
	.globl _ZN8idThread11ReturnFloatEf
	.type	_ZN8idThread11ReturnFloatEf, @function
_ZN8idThread11ReturnFloatEf:
.LFB2871:
	.loc 2 848 0
	.cfi_startproc
.LVL736:
.LBB2322:
.LBB2323:
	.loc 2 849 0
	lis 9,gameLocal+2311020@ha
	.loc 5 576 0
	lwz 9,gameLocal+2311020@l(9)
	lwz 9,4(9)
	stfs 1,0(9)
.LBE2323:
.LBE2322:
	.loc 2 850 0
	blr
	.cfi_endproc
.LFE2871:
	.size	_ZN8idThread11ReturnFloatEf, .-_ZN8idThread11ReturnFloatEf
	.align 2
	.globl _ZN8idThread9ReturnIntEi
	.type	_ZN8idThread9ReturnIntEi, @function
_ZN8idThread9ReturnIntEi:
.LFB2872:
	.loc 2 857 0
	.cfi_startproc
.LVL737:
.LBB2324:
.LBB2325:
	.loc 2 860 0
	lis 9,gameLocal+2311020@ha
.LBE2325:
.LBE2324:
	.loc 2 857 0
	stwu 1,-16(1)
.LCFI195:
	.cfi_def_cfa_offset 16
.LBB2328:
.LBB2326:
	.loc 5 576 0
	lwz 9,gameLocal+2311020@l(9)
.LBE2326:
.LBE2328:
	.loc 2 860 0
	xoris 3,3,0x8000
.LVL738:
	lis 0,0x4330
	lis 11,.LC1@ha
.LBB2329:
.LBB2327:
	.loc 5 576 0
	lwz 9,4(9)
.LBE2327:
.LBE2329:
	.loc 2 860 0
	stw 3,12(1)
	stw 0,8(1)
	lfs 0,.LC1@l(11)
	lfd 13,8(1)
	fsub 0,13,0
	frsp 0,0
	stfs 0,0(9)
	.loc 2 861 0
	addi 1,1,16
.LCFI196:
	.cfi_def_cfa_offset 0
	blr
	.cfi_endproc
.LFE2872:
	.size	_ZN8idThread9ReturnIntEi, .-_ZN8idThread9ReturnIntEi
	.align 2
	.globl _ZN8idThread12ReturnVectorERK6idVec3
	.type	_ZN8idThread12ReturnVectorERK6idVec3, @function
_ZN8idThread12ReturnVectorERK6idVec3:
.LFB2873:
	.loc 2 868 0
	.cfi_startproc
.LVL739:
.LBB2330:
.LBB2331:
	.loc 2 869 0
	lis 9,gameLocal+2311020@ha
.LBB2332:
.LBB2333:
	.loc 6 424 0
	lwz 0,0(3)
.LBE2333:
.LBE2332:
	.loc 5 594 0
	lwz 9,gameLocal+2311020@l(9)
.LVL740:
	lwz 9,4(9)
.LVL741:
.LBB2335:
.LBB2334:
	.loc 6 424 0
	stw 0,0(9)
	.loc 6 425 0
	lwz 0,4(3)
	stw 0,4(9)
	.loc 6 426 0
	lwz 0,8(3)
	stw 0,8(9)
.LBE2334:
.LBE2335:
.LBE2331:
.LBE2330:
	.loc 2 870 0
	blr
	.cfi_endproc
.LFE2873:
	.size	_ZN8idThread12ReturnVectorERK6idVec3, .-_ZN8idThread12ReturnVectorERK6idVec3
	.align 2
	.globl _ZN8idThread12ReturnEntityEP8idEntity
	.type	_ZN8idThread12ReturnEntityEP8idEntity, @function
_ZN8idThread12ReturnEntityEP8idEntity:
.LFB2874:
	.loc 2 877 0
	.cfi_startproc
.LVL742:
	mflr 0
	stwu 1,-8(1)
.LCFI197:
	.cfi_def_cfa_offset 8
	.cfi_register 65, 0
	mr 4,3
	.loc 2 878 0
	lis 3,gameLocal+33476@ha
.LVL743:
	la 3,gameLocal+33476@l(3)
	.loc 2 877 0
	stw 0,12(1)
	.loc 2 878 0
	.cfi_offset 65, 4
	bl _ZN9idProgram12ReturnEntityEP8idEntity
.LVL744:
	.loc 2 879 0
	lwz 0,12(1)
	addi 1,1,8
.LCFI198:
	.cfi_def_cfa_offset 0
	mtlr 0
	blr
	.cfi_endproc
.LFE2874:
	.size	_ZN8idThread12ReturnEntityEP8idEntity, .-_ZN8idThread12ReturnEntityEP8idEntity
	.align 2
	.globl _ZN8idThread20Event_GetTraceEntityEv
	.type	_ZN8idThread20Event_GetTraceEntityEv, @function
_ZN8idThread20Event_GetTraceEntityEv:
.LFB2928:
	.loc 2 1498 0
	.cfi_startproc
.LVL745:
	.loc 2 1499 0
	lis 9,.LANCHOR0@ha
	lis 11,.LC10@ha
	la 9,.LANCHOR0@l(9)
	lfs 0,.LC10@l(11)
	lfs 13,80(9)
	fcmpu 7,13,0
	blt- 7,.L344
	.loc 2 1502 0
	li 3,0
.LVL746:
	.loc 2 1504 0
	.loc 2 1502 0
	b _ZN8idThread12ReturnEntityEP8idEntity
.LVL747:
.L344:
.LBB2338:
.LBB2339:
	.loc 2 1500 0
	lwz 9,180(9)
	addi 0,9,132
	lis 9,gameLocal@ha
	slwi 0,0,2
	la 9,gameLocal@l(9)
	add 9,9,0
	lwz 3,4(9)
.LVL748:
.LBE2339:
.LBE2338:
	.loc 2 1504 0
.LBB2341:
.LBB2340:
	.loc 2 1500 0
	b _ZN8idThread12ReturnEntityEP8idEntity
.LBE2340:
.LBE2341:
	.cfi_endproc
.LFE2928:
	.size	_ZN8idThread20Event_GetTraceEntityEv, .-_ZN8idThread20Event_GetTraceEntityEv
	.align 2
	.globl _ZN8idThread11Event_SpawnEPKc
	.type	_ZN8idThread11Event_SpawnEPKc, @function
_ZN8idThread11Event_SpawnEPKc:
.LFB2897:
	.loc 2 1139 0
	.cfi_startproc
.LVL749:
	stwu 1,-32(1)
.LCFI199:
	.cfi_def_cfa_offset 32
	mflr 0
	mr 5,4
.LBB2342:
	.loc 2 1142 0
	lis 4,.LC38@ha
.LVL750:
.LBE2342:
	.loc 2 1139 0
	stw 31,28(1)
.LBB2343:
	.loc 2 1142 0
	addi 31,3,6976
	.cfi_offset 31, -4
	.cfi_register 65, 0
	mr 3,31
.LVL751:
	la 4,.LC38@l(4)
.LBE2343:
	.loc 2 1139 0
	stw 0,36(1)
.LBB2344:
	.loc 2 1142 0
	.cfi_offset 65, 4
	bl _ZN6idDict3SetEPKcS1_
.LVL752:
	.loc 2 1143 0
	lis 3,gameLocal@ha
	mr 4,31
	addi 5,1,8
	li 6,1
	la 3,gameLocal@l(3)
	bl _ZN11idGameLocal14SpawnEntityDefERK6idDictPP8idEntityb
.LVL753:
	.loc 2 1144 0
	lwz 3,8(1)
	bl _ZN8idThread12ReturnEntityEP8idEntity
	.loc 2 1145 0
	mr 3,31
	bl _ZN6idDict5ClearEv
.LBE2344:
	.loc 2 1146 0
	lwz 0,36(1)
	lwz 31,28(1)
.LVL754:
	mtlr 0
	addi 1,1,32
.LCFI200:
	.cfi_def_cfa_offset 0
	.cfi_restore 31
	blr
	.cfi_endproc
.LFE2897:
	.size	_ZN8idThread11Event_SpawnEPKc, .-_ZN8idThread11Event_SpawnEPKc
	.align 2
	.globl _ZN8idThread15Event_GetEntityEPKc
	.type	_ZN8idThread15Event_GetEntityEPKc, @function
_ZN8idThread15Event_GetEntityEPKc:
.LFB2896:
	.loc 2 1116 0
	.cfi_startproc
.LVL755:
	mflr 0
	stwu 1,-16(1)
.LCFI201:
	.cfi_def_cfa_offset 16
	.cfi_register 65, 0
	stw 31,12(1)
	mr 31,3
	.cfi_offset 31, -4
	stw 0,20(1)
	stw 30,8(1)
.LBB2349:
	.loc 2 1122 0
	lbz 0,0(4)
	.cfi_offset 30, -8
	.cfi_offset 65, 4
	cmpwi 7,0,42
	beq- 7,.L350
	.loc 2 1129 0
	lis 3,gameLocal@ha
.LVL756:
	la 3,gameLocal@l(3)
	bl _ZNK11idGameLocal10FindEntityEPKc
.LVL757:
.LBE2349:
	.loc 2 1132 0
	lwz 0,20(1)
	lwz 30,8(1)
	lwz 31,12(1)
.LVL758:
	mtlr 0
	addi 1,1,16
	.cfi_remember_state
.LCFI202:
	.cfi_def_cfa_offset 0
	.cfi_restore 31
	.cfi_restore 30
.LBB2350:
	.loc 2 1130 0
	b _ZN8idThread12ReturnEntityEP8idEntity
.LVL759:
.L350:
.LCFI203:
	.cfi_restore_state
.LBE2350:
.LBB2351:
.LBB2352:
	.loc 2 1123 0
	addi 3,4,1
.LVL760:
	bl atoi
.LVL761:
	.loc 2 1124 0
	cmplwi 7,3,4095
	.loc 2 1123 0
	mr 30,3
.LVL762:
	.loc 2 1124 0
	bgt- 7,.L351
	.loc 2 1127 0
	addi 30,30,132
	slwi 0,30,2
	lis 30,gameLocal@ha
	la 30,gameLocal@l(30)
	add 30,30,0
	lwz 3,4(30)
.LVL763:
.L352:
.LBE2352:
.LBE2351:
	.loc 2 1132 0
	lwz 0,20(1)
	lwz 30,8(1)
	lwz 31,12(1)
.LVL764:
	mtlr 0
	addi 1,1,16
	.cfi_remember_state
	.cfi_restore 30
	.cfi_restore 31
.LCFI204:
	.cfi_def_cfa_offset 0
.LBB2354:
	.loc 2 1130 0
	b _ZN8idThread12ReturnEntityEP8idEntity
.LVL765:
.L351:
.LCFI205:
	.cfi_restore_state
.LBE2354:
.LBB2355:
.LBB2353:
	.loc 2 1125 0
	lis 4,.LC39@ha
	mr 3,31
.LVL766:
	.loc 2 1127 0
	addi 30,30,132
.LVL767:
	.loc 2 1125 0
	la 4,.LC39@l(4)
	crxor 6,6,6
	bl _ZNK8idThread5ErrorEPKcz
	.loc 2 1127 0
	slwi 0,30,2
	lis 30,gameLocal@ha
.LVL768:
	la 30,gameLocal@l(30)
	add 30,30,0
	lwz 3,4(30)
	b .L352
.LBE2353:
.LBE2355:
	.cfi_endproc
.LFE2896:
	.size	_ZN8idThread15Event_GetEntityEPKc, .-_ZN8idThread15Event_GetEntityEPKc
	.align 2
	.globl _ZN8idThread5PauseEv
	.type	_ZN8idThread5PauseEv, @function
_ZN8idThread5PauseEv:
.LFB2876:
	.loc 2 895 0
	.cfi_startproc
.LVL769:
.LBB2356:
.LBB2357:
	.loc 2 749 0
	li 0,0
	.loc 2 748 0
	li 9,4095
	.loc 2 749 0
	stw 0,4(3)
.LBE2357:
.LBE2356:
	.loc 2 898 0
.LBB2360:
.LBB2358:
	.loc 2 750 0
	stw 0,12(3)
.LBE2358:
.LBE2360:
	.loc 2 897 0
	li 0,1
.LBB2361:
.LBB2359:
	.loc 2 748 0
	stw 9,8(3)
.LBE2359:
.LBE2361:
	.loc 2 897 0
	stb 0,6972(3)
	.loc 2 898 0
	blr
	.cfi_endproc
.LFE2876:
	.size	_ZN8idThread5PauseEv, .-_ZN8idThread5PauseEv
	.align 2
	.globl _ZN8idThread6WaitMSEi
	.type	_ZN8idThread6WaitMSEi, @function
_ZN8idThread6WaitMSEi:
.LFB2877:
	.loc 2 905 0
	.cfi_startproc
.LVL770:
.LBB2362:
.LBB2363:
.LBB2364:
.LBB2365:
	.loc 2 749 0
	li 0,0
	.loc 2 748 0
	li 9,4095
	.loc 2 750 0
	stw 0,12(3)
.LBE2365:
.LBE2364:
.LBE2363:
.LBE2362:
	.loc 2 908 0
.LBB2372:
.LBB2370:
.LBB2368:
.LBB2366:
	.loc 2 749 0
	stw 0,4(3)
.LBE2366:
.LBE2368:
	.loc 2 897 0
	li 0,1
.LBB2369:
.LBB2367:
	.loc 2 748 0
	stw 9,8(3)
.LBE2367:
.LBE2369:
.LBE2370:
.LBE2372:
	.loc 2 907 0
	lis 9,gameLocal+2426836@ha
.LBB2373:
.LBB2371:
	.loc 2 897 0
	stb 0,6972(3)
.LBE2371:
.LBE2373:
	.loc 2 907 0
	lwz 0,gameLocal+2426836@l(9)
	add 0,0,4
	stw 0,12(3)
	.loc 2 908 0
	blr
	.cfi_endproc
.LFE2877:
	.size	_ZN8idThread6WaitMSEi, .-_ZN8idThread6WaitMSEi
	.align 2
	.globl _ZN8idThread7WaitSecEf
	.type	_ZN8idThread7WaitSecEf, @function
_ZN8idThread7WaitSecEf:
.LFB2878:
	.loc 2 915 0
	.cfi_startproc
.LVL771:
	.loc 2 916 0
	lis 9,_ZN6idMath8M_SEC2MSE@ha
	.loc 2 915 0
	stwu 1,-16(1)
.LCFI206:
	.cfi_def_cfa_offset 16
	.loc 2 916 0
	lfs 0,_ZN6idMath8M_SEC2MSE@l(9)
.LBB2374:
.LBB2375:
.LBB2376:
.LBB2377:
.LBB2378:
.LBB2379:
	.loc 2 749 0
	li 0,0
.LBE2379:
.LBE2378:
.LBE2377:
.LBE2376:
.LBE2375:
.LBE2374:
.LBB2395:
.LBB2396:
	.loc 3 825 0
	addi 9,1,8
.LBE2396:
.LBE2395:
.LBB2399:
.LBB2392:
.LBB2389:
.LBB2386:
.LBB2383:
.LBB2380:
	.loc 2 750 0
	stw 0,12(3)
.LBE2380:
.LBE2383:
.LBE2386:
.LBE2389:
.LBE2392:
.LBE2399:
	.loc 2 916 0
	fmuls 0,1,0
.LBB2400:
.LBB2397:
	.loc 3 825 0
	fctiwz 0,0
	stfiwx 0,0,9
.LBE2397:
.LBE2400:
.LBB2401:
.LBB2393:
.LBB2390:
.LBB2387:
.LBB2384:
.LBB2381:
	.loc 2 748 0
	li 9,4095
	.loc 2 749 0
	stw 0,4(3)
.LBE2381:
.LBE2384:
	.loc 2 897 0
	li 0,1
.LBB2385:
.LBB2382:
	.loc 2 748 0
	stw 9,8(3)
.LBE2382:
.LBE2385:
.LBE2387:
.LBE2390:
	.loc 2 907 0
	lis 9,gameLocal+2426836@ha
.LBB2391:
.LBB2388:
	.loc 2 897 0
	stb 0,6972(3)
.LBE2388:
.LBE2391:
	.loc 2 907 0
	lwz 0,gameLocal+2426836@l(9)
.LBE2393:
.LBE2401:
.LBB2402:
.LBB2398:
	.loc 3 825 0
	lwz 9,8(1)
.LVL772:
.LBE2398:
.LBE2402:
	.loc 2 917 0
	addi 1,1,16
.LCFI207:
	.cfi_def_cfa_offset 0
.LBB2403:
.LBB2394:
	.loc 2 907 0
	add 0,9,0
	stw 0,12(3)
.LBE2394:
.LBE2403:
	.loc 2 917 0
	blr
	.cfi_endproc
.LFE2878:
	.size	_ZN8idThread7WaitSecEf, .-_ZN8idThread7WaitSecEf
	.align 2
	.globl _ZN8idThread9WaitFrameEv
	.type	_ZN8idThread9WaitFrameEv, @function
_ZN8idThread9WaitFrameEv:
.LFB2879:
	.loc 2 924 0
	.cfi_startproc
.LVL773:
	.loc 2 929 0
	lbz 9,7064(3)
.LBB2404:
.LBB2405:
.LBB2406:
.LBB2407:
	.loc 2 749 0
	li 0,0
	stw 0,4(3)
.LBE2407:
.LBE2406:
.LBE2405:
.LBE2404:
	.loc 2 929 0
	cmpwi 7,9,0
.LBB2413:
.LBB2412:
.LBB2410:
.LBB2408:
	.loc 2 750 0
	stw 0,12(3)
	.loc 2 748 0
	li 9,4095
.LBE2408:
.LBE2410:
	.loc 2 897 0
	li 0,1
.LBB2411:
.LBB2409:
	.loc 2 748 0
	stw 9,8(3)
.LBE2409:
.LBE2411:
	.loc 2 897 0
	stb 0,6972(3)
.LBE2412:
.LBE2413:
	.loc 2 929 0
	bnelr- 7
	.loc 2 930 0
	lis 9,gameLocal+2426836@ha
	lwz 9,gameLocal+2426836@l(9)
	addi 0,9,16
	stw 0,12(3)
	blr
	.cfi_endproc
.LFE2879:
	.size	_ZN8idThread9WaitFrameEv, .-_ZN8idThread9WaitFrameEv
	.section	.text._ZN6idListIP8idThreadE5ClearEv,"axG",@progbits,_ZN6idListIP8idThreadE5ClearEv,comdat
	.align 2
	.weak	_ZN6idListIP8idThreadE5ClearEv
	.type	_ZN6idListIP8idThreadE5ClearEv, @function
_ZN6idListIP8idThreadE5ClearEv:
.LFB3169:
	.loc 10 192 0
	.cfi_startproc
.LVL774:
	mflr 0
	stwu 1,-16(1)
.LCFI208:
	.cfi_def_cfa_offset 16
	.cfi_register 65, 0
	stw 31,12(1)
	mr 31,3
	.cfi_offset 31, -4
	stw 0,20(1)
	.loc 10 193 0
	lwz 3,12(3)
.LVL775:
	cmpwi 7,3,0
	beq- 7,.L359
	.cfi_offset 65, 4
	.loc 10 194 0 discriminator 1
	bl _ZdaPv
.L359:
	.loc 10 197 0
	li 0,0
	stw 0,12(31)
	.loc 10 198 0
	stw 0,0(31)
	.loc 10 199 0
	stw 0,4(31)
	.loc 10 200 0
	lwz 0,20(1)
	lwz 31,12(1)
.LVL776:
	mtlr 0
	addi 1,1,16
.LCFI209:
	.cfi_def_cfa_offset 0
	.cfi_restore 31
	blr
	.cfi_endproc
.LFE3169:
	.size	_ZN6idListIP8idThreadE5ClearEv, .-_ZN6idListIP8idThreadE5ClearEv
	.section	".text"
	.align 2
	.type	_Z41__static_initialization_and_destruction_0ii.constprop.41, @function
_Z41__static_initialization_and_destruction_0ii.constprop.41:
.LFB3295:
	.loc 2 1863 0
	.cfi_startproc
.LVL777:
	cmpwi 7,3,1
	mflr 0
	stwu 1,-56(1)
.LCFI210:
	.cfi_def_cfa_offset 56
	.cfi_register 65, 0
	stw 0,60(1)
	stw 27,36(1)
	stw 28,40(1)
	stw 29,44(1)
	stw 30,48(1)
	stw 31,52(1)
	.loc 2 1863 0
	beq- 7,.L364
	.cfi_offset 31, -4
	.cfi_offset 30, -8
	.cfi_offset 29, -12
	.cfi_offset 28, -16
	.cfi_offset 27, -20
	.cfi_offset 65, 4
	.loc 2 198 0
	cmpwi 7,3,0
	bne- 7,.L360
.LVL778:
.LBB2414:
.LBB2415:
.LBB2416:
	.loc 2 197 0
	lis 31,.LANCHOR0@ha
	la 31,.LANCHOR0@l(31)
	.loc 10 181 0
	addi 3,31,252
.LVL779:
	bl _ZN6idListIP8idThreadE5ClearEv
.LBE2416:
.LBE2415:
.LBE2414:
	.loc 2 114 0
	mr 3,31
	bl _ZN10idTypeInfoD1Ev
.LVL780:
.L360:
	.loc 2 1863 0
	lwz 0,60(1)
	lwz 27,36(1)
	mtlr 0
	lwz 28,40(1)
	lwz 29,44(1)
	lwz 30,48(1)
	lwz 31,52(1)
	addi 1,1,56
	.cfi_remember_state
.LCFI211:
	.cfi_def_cfa_offset 0
	.cfi_restore 31
	.cfi_restore 30
	.cfi_restore 29
	.cfi_restore 28
	.cfi_restore 27
	blr
.LVL781:
.L364:
.LCFI212:
	.cfi_restore_state
	.file 14 "d:/Data/Nintendo/DoomGX/src/game/script/../Game_local.h"
	.loc 14 694 0
	lis 9,_ZN6idMath8M_SEC2MSE@ha
	.loc 14 121 0
	lis 31,.LANCHOR0@ha
	.loc 14 694 0
	lfs 0,_ZN6idMath8M_SEC2MSE@l(9)
	.loc 14 121 0
	la 31,.LANCHOR0@l(31)
	li 11,3
.LBB2417:
.LBB2418:
	.loc 6 396 0
	li 0,0
.LBE2418:
.LBE2417:
	.loc 14 694 0
	fadds 0,0,0
	.loc 14 121 0
	stw 11,332(31)
.LVL782:
.LBB2422:
.LBB2419:
	.loc 6 398 0
	lis 11,.LC40@ha
	.loc 6 396 0
	stw 0,336(31)
	.loc 6 397 0
	stw 0,340(31)
.LBE2419:
.LBE2422:
.LBB2423:
.LBB2424:
	.loc 3 825 0
	addi 9,31,348
.LBE2424:
.LBE2423:
.LBB2427:
.LBB2420:
	.loc 6 398 0
	lwz 0,.LC40@l(11)
.LBE2420:
.LBE2427:
.LBB2428:
.LBB2425:
	.loc 3 825 0
	fctiwz 0,0
.LBE2425:
.LBE2428:
	.loc 2 34 0
	lis 4,.LC41@ha
	addi 3,31,268
.LVL783:
.LBB2429:
.LBB2421:
	.loc 6 398 0
	stw 0,344(31)
.LVL784:
.LBE2421:
.LBE2429:
	.file 15 "d:/Data/Nintendo/DoomGX/src/game/script/../Player.h"
	.loc 15 69 0
	li 0,10
	stw 0,352(31)
	.loc 2 34 0
	la 4,.LC41@l(4)
.LBB2430:
.LBB2426:
	.loc 3 825 0
	stfiwx 0,0,9
.LVL785:
.LBE2426:
.LBE2430:
	.loc 2 34 0
	li 5,0
	li 6,0
	.loc 2 38 0
	lis 30,.LC44@ha
	.loc 2 34 0
	bl _ZN10idEventDefC1EPKcS1_c
	.loc 2 35 0
	lis 4,.LC42@ha
	addi 3,31,188
	la 4,.LC42@l(4)
	li 5,0
	li 6,0
	bl _ZN10idEventDefC1EPKcS1_c
	.loc 2 38 0
	la 30,.LC44@l(30)
	lis 4,.LC43@ha
	addi 3,31,356
	mr 5,30
	la 4,.LC43@l(4)
	li 6,0
	.loc 2 40 0
	lis 28,.LC47@ha
	.loc 2 38 0
	bl _ZN10idEventDefC1EPKcS1_c
	.loc 2 39 0
	lis 4,.LC45@ha
	addi 3,31,420
	la 4,.LC45@l(4)
	li 5,0
	li 6,0
	bl _ZN10idEventDefC1EPKcS1_c
	.loc 2 40 0
	la 28,.LC47@l(28)
	lis 4,.LC46@ha
	addi 3,31,484
	mr 5,28
	la 4,.LC46@l(4)
	li 6,0
	.loc 2 42 0
	lis 27,.LC50@ha
	.loc 2 40 0
	bl _ZN10idEventDefC1EPKcS1_c
	.loc 2 41 0
	lis 4,.LC48@ha
	addi 3,31,548
	la 4,.LC48@l(4)
	li 5,0
	li 6,0
	bl _ZN10idEventDefC1EPKcS1_c
	.loc 2 42 0
	la 27,.LC50@l(27)
	lis 4,.LC49@ha
	addi 3,31,612
	mr 5,27
	la 4,.LC49@l(4)
	li 6,0
	.loc 2 49 0
	lis 29,.LC59@ha
	.loc 2 42 0
	bl _ZN10idEventDefC1EPKcS1_c
	.loc 2 43 0
	lis 4,.LC51@ha
	addi 3,31,676
	mr 5,30
	la 4,.LC51@l(4)
	li 6,0
	.loc 2 44 0
	lis 30,.LC53@ha
	.loc 2 43 0
	bl _ZN10idEventDefC1EPKcS1_c
	.loc 2 44 0
	la 30,.LC53@l(30)
	lis 4,.LC52@ha
	addi 3,31,740
	mr 5,30
	la 4,.LC52@l(4)
	li 6,0
	bl _ZN10idEventDefC1EPKcS1_c
	.loc 2 45 0
	lis 4,.LC54@ha
	addi 3,31,804
	mr 5,30
	la 4,.LC54@l(4)
	li 6,0
	bl _ZN10idEventDefC1EPKcS1_c
	.loc 2 46 0
	lis 4,.LC55@ha
	addi 3,31,868
	mr 5,30
	la 4,.LC55@l(4)
	li 6,0
	bl _ZN10idEventDefC1EPKcS1_c
	.loc 2 47 0
	lis 4,.LC56@ha
	addi 3,31,932
	mr 5,28
	la 4,.LC56@l(4)
	li 6,0
	bl _ZN10idEventDefC1EPKcS1_c
	.loc 2 48 0
	lis 4,.LC57@ha
	addi 3,31,996
	mr 5,27
	la 4,.LC57@l(4)
	li 6,0
	bl _ZN10idEventDefC1EPKcS1_c
	.loc 2 49 0
	la 29,.LC59@l(29)
	lis 4,.LC58@ha
	addi 3,31,1060
	mr 5,29
	la 4,.LC58@l(4)
	li 6,0
	bl _ZN10idEventDefC1EPKcS1_c
	.loc 2 50 0
	lis 4,.LC60@ha
	addi 3,31,1124
	mr 5,30
	la 4,.LC60@l(4)
	li 6,115
	bl _ZN10idEventDefC1EPKcS1_c
	.loc 2 51 0
	lis 4,.LC61@ha
	addi 3,31,1188
	mr 5,28
	la 4,.LC61@l(4)
	li 6,102
	bl _ZN10idEventDefC1EPKcS1_c
	.loc 2 52 0
	lis 4,.LC62@ha
	addi 3,31,1252
	la 4,.LC62@l(4)
	li 5,0
	li 6,102
	bl _ZN10idEventDefC1EPKcS1_c
	.loc 2 53 0
	lis 4,.LC63@ha
	addi 3,31,1316
	mr 5,30
	la 4,.LC63@l(4)
	li 6,0
	bl _ZN10idEventDefC1EPKcS1_c
	.loc 2 54 0
	lis 4,.LC64@ha
	addi 3,31,1380
	mr 5,30
	la 4,.LC64@l(4)
	li 6,0
	bl _ZN10idEventDefC1EPKcS1_c
	.loc 2 55 0
	lis 4,.LC65@ha
	addi 3,31,1444
	mr 5,30
	la 4,.LC65@l(4)
	li 6,101
	bl _ZN10idEventDefC1EPKcS1_c
	.loc 2 56 0
	lis 4,.LC66@ha
	addi 3,31,1508
	mr 5,30
	la 4,.LC66@l(4)
	li 6,101
	bl _ZN10idEventDefC1EPKcS1_c
	.loc 2 57 0
	lis 4,.LC67@ha
	addi 3,31,1572
	mr 5,27
	la 4,.LC67@l(4)
	li 6,0
	bl _ZN10idEventDefC1EPKcS1_c
	.loc 2 58 0
	lis 4,.LC68@ha
	addi 3,31,1636
	mr 5,29
	la 4,.LC68@l(4)
	li 6,0
	bl _ZN10idEventDefC1EPKcS1_c
	.loc 2 59 0
	lis 4,.LC69@ha
	addi 3,31,1700
	mr 5,29
	la 4,.LC69@l(4)
	li 6,115
	bl _ZN10idEventDefC1EPKcS1_c
	.loc 2 60 0
	lis 4,.LC70@ha
	lis 5,.LC71@ha
	addi 3,31,1764
	la 4,.LC70@l(4)
	la 5,.LC71@l(5)
	li 6,102
	bl _ZN10idEventDefC1EPKcS1_c
	.loc 2 61 0
	lis 4,.LC72@ha
	lis 5,.LC73@ha
	addi 3,31,1828
	la 4,.LC72@l(4)
	la 5,.LC73@l(5)
	li 6,118
	bl _ZN10idEventDefC1EPKcS1_c
	.loc 2 62 0
	lis 4,.LC74@ha
	addi 3,31,1892
	la 4,.LC74@l(4)
	li 5,0
	li 6,0
	bl _ZN10idEventDefC1EPKcS1_c
	.loc 2 63 0
	lis 4,.LC75@ha
	addi 3,31,1956
	mr 5,29
	la 4,.LC75@l(4)
	li 6,0
	bl _ZN10idEventDefC1EPKcS1_c
	.loc 2 64 0
	lis 4,.LC76@ha
	addi 3,31,2020
	mr 5,30
	la 4,.LC76@l(4)
	li 6,115
	bl _ZN10idEventDefC1EPKcS1_c
	.loc 2 65 0
	lis 4,.LC77@ha
	addi 3,31,2084
	mr 5,30
	la 4,.LC77@l(4)
	li 6,102
	bl _ZN10idEventDefC1EPKcS1_c
	.loc 2 66 0
	lis 4,.LC78@ha
	addi 3,31,2148
	mr 5,30
	la 4,.LC78@l(4)
	li 6,118
	.loc 2 67 0
	lis 29,.LC80@ha
	.loc 2 66 0
	bl _ZN10idEventDefC1EPKcS1_c
	.loc 2 67 0
	la 29,.LC80@l(29)
	lis 4,.LC79@ha
	addi 3,31,2212
	mr 5,29
	la 4,.LC79@l(4)
	li 6,118
	bl _ZN10idEventDefC1EPKcS1_c
	.loc 2 68 0
	lis 4,.LC81@ha
	addi 3,31,2276
	mr 5,29
	la 4,.LC81@l(4)
	li 6,118
	bl _ZN10idEventDefC1EPKcS1_c
	.loc 2 69 0
	lis 4,.LC82@ha
	addi 3,31,2340
	mr 5,29
	la 4,.LC82@l(4)
	li 6,118
	bl _ZN10idEventDefC1EPKcS1_c
	.loc 2 70 0
	lis 4,.LC83@ha
	addi 3,31,2404
	mr 5,28
	la 4,.LC83@l(4)
	li 6,102
	bl _ZN10idEventDefC1EPKcS1_c
	.loc 2 71 0
	lis 4,.LC84@ha
	addi 3,31,2468
	mr 5,28
	la 4,.LC84@l(4)
	li 6,102
	bl _ZN10idEventDefC1EPKcS1_c
	.loc 2 72 0
	lis 4,.LC85@ha
	addi 3,31,2532
	mr 5,28
	la 4,.LC85@l(4)
	li 6,102
	bl _ZN10idEventDefC1EPKcS1_c
	.loc 2 73 0
	lis 4,.LC86@ha
	addi 3,31,2596
	mr 5,29
	la 4,.LC86@l(4)
	li 6,118
	bl _ZN10idEventDefC1EPKcS1_c
	.loc 2 74 0
	lis 4,.LC87@ha
	addi 3,31,2660
	mr 5,29
	la 4,.LC87@l(4)
	li 6,102
	.loc 2 75 0
	lis 28,.LC89@ha
	.loc 2 74 0
	bl _ZN10idEventDefC1EPKcS1_c
	.loc 2 75 0
	la 28,.LC89@l(28)
	lis 4,.LC88@ha
	addi 3,31,2724
	mr 5,28
	la 4,.LC88@l(4)
	li 6,102
	bl _ZN10idEventDefC1EPKcS1_c
	.loc 2 76 0
	lis 4,.LC90@ha
	addi 3,31,2788
	mr 5,28
	la 4,.LC90@l(4)
	li 6,118
	bl _ZN10idEventDefC1EPKcS1_c
	.loc 2 77 0
	lis 4,.LC91@ha
	addi 3,31,2852
	mr 5,29
	la 4,.LC91@l(4)
	li 6,118
	bl _ZN10idEventDefC1EPKcS1_c
	.loc 2 78 0
	lis 4,.LC92@ha
	lis 5,.LC93@ha
	addi 3,31,2916
	la 4,.LC92@l(4)
	la 5,.LC93@l(5)
	li 6,0
	.loc 2 90 0
	lis 29,.LC109@ha
	.loc 2 78 0
	bl _ZN10idEventDefC1EPKcS1_c
	.loc 2 79 0
	lis 4,.LC94@ha
	lis 5,.LC95@ha
	addi 3,31,2980
	la 4,.LC94@l(4)
	la 5,.LC95@l(5)
	li 6,0
	.loc 2 90 0
	la 29,.LC109@l(29)
	.loc 2 79 0
	bl _ZN10idEventDefC1EPKcS1_c
	.loc 2 80 0
	lis 4,.LC96@ha
	addi 3,31,3044
	mr 5,27
	la 4,.LC96@l(4)
	li 6,0
	bl _ZN10idEventDefC1EPKcS1_c
	.loc 2 81 0
	lis 4,.LC97@ha
	addi 3,31,3108
	la 4,.LC97@l(4)
	li 5,0
	li 6,0
	bl _ZN10idEventDefC1EPKcS1_c
	.loc 2 82 0
	lis 4,.LC98@ha
	lis 5,.LC99@ha
	addi 3,31,3172
	la 4,.LC98@l(4)
	la 5,.LC99@l(5)
	li 6,102
	bl _ZN10idEventDefC1EPKcS1_c
	.loc 2 83 0
	lis 4,.LC100@ha
	lis 5,.LC101@ha
	addi 3,31,3236
	la 4,.LC100@l(4)
	la 5,.LC101@l(5)
	li 6,102
	bl _ZN10idEventDefC1EPKcS1_c
	.loc 2 84 0
	lis 4,.LC102@ha
	addi 3,31,3300
	la 4,.LC102@l(4)
	li 5,0
	li 6,102
	bl _ZN10idEventDefC1EPKcS1_c
	.loc 2 85 0
	lis 4,.LC103@ha
	addi 3,31,3364
	la 4,.LC103@l(4)
	li 5,0
	li 6,118
	bl _ZN10idEventDefC1EPKcS1_c
	.loc 2 86 0
	lis 4,.LC104@ha
	addi 3,31,3428
	la 4,.LC104@l(4)
	li 5,0
	li 6,118
	bl _ZN10idEventDefC1EPKcS1_c
	.loc 2 87 0
	lis 4,.LC105@ha
	addi 3,31,3492
	la 4,.LC105@l(4)
	li 5,0
	li 6,101
	bl _ZN10idEventDefC1EPKcS1_c
	.loc 2 88 0
	lis 4,.LC106@ha
	addi 3,31,3556
	la 4,.LC106@l(4)
	li 5,0
	li 6,115
	bl _ZN10idEventDefC1EPKcS1_c
	.loc 2 89 0
	lis 4,.LC107@ha
	addi 3,31,3620
	la 4,.LC107@l(4)
	li 5,0
	li 6,115
	bl _ZN10idEventDefC1EPKcS1_c
	.loc 2 90 0
	lis 4,.LC108@ha
	addi 3,31,3684
	mr 5,29
	la 4,.LC108@l(4)
	li 6,0
	bl _ZN10idEventDefC1EPKcS1_c
	.loc 2 91 0
	lis 4,.LC110@ha
	addi 3,31,3748
	mr 5,29
	la 4,.LC110@l(4)
	li 6,0
	bl _ZN10idEventDefC1EPKcS1_c
	.loc 2 92 0
	lis 4,.LC111@ha
	lis 5,.LC112@ha
	addi 3,31,3812
	la 4,.LC111@l(4)
	la 5,.LC112@l(5)
	li 6,0
	.loc 2 97 0
	lis 29,.LC118@ha
	.loc 2 92 0
	bl _ZN10idEventDefC1EPKcS1_c
	.loc 2 93 0
	lis 4,.LC113@ha
	addi 3,31,3876
	mr 5,30
	la 4,.LC113@l(4)
	li 6,0
	bl _ZN10idEventDefC1EPKcS1_c
	.loc 2 94 0
	lis 4,.LC114@ha
	addi 3,31,3940
	mr 5,30
	la 4,.LC114@l(4)
	li 6,0
	bl _ZN10idEventDefC1EPKcS1_c
	.loc 2 95 0
	lis 4,.LC115@ha
	addi 3,31,4004
	mr 5,30
	la 4,.LC115@l(4)
	li 6,0
	bl _ZN10idEventDefC1EPKcS1_c
	.loc 2 96 0
	lis 4,.LC116@ha
	addi 3,31,4068
	mr 5,30
	la 4,.LC116@l(4)
	li 6,100
	bl _ZN10idEventDefC1EPKcS1_c
	.loc 2 97 0
	la 29,.LC118@l(29)
	lis 4,.LC117@ha
	addi 3,31,4132
	mr 5,29
	la 4,.LC117@l(4)
	li 6,115
	bl _ZN10idEventDefC1EPKcS1_c
	.loc 2 98 0
	lis 4,.LC119@ha
	addi 3,31,4196
	mr 5,29
	la 4,.LC119@l(4)
	li 6,115
	bl _ZN10idEventDefC1EPKcS1_c
	.loc 2 99 0
	lis 4,.LC120@ha
	addi 3,31,4260
	mr 5,29
	la 4,.LC120@l(4)
	li 6,115
	bl _ZN10idEventDefC1EPKcS1_c
	.loc 2 100 0
	lis 4,.LC121@ha
	lis 5,.LC122@ha
	addi 3,31,4324
	la 4,.LC121@l(4)
	la 5,.LC122@l(5)
	li 6,115
	bl _ZN10idEventDefC1EPKcS1_c
	.loc 2 101 0
	lis 4,.LC123@ha
	addi 3,31,4388
	mr 5,30
	la 4,.LC123@l(4)
	li 6,102
	bl _ZN10idEventDefC1EPKcS1_c
	.loc 2 102 0
	lis 4,.LC124@ha
	lis 5,.LC125@ha
	addi 3,31,4452
	la 4,.LC124@l(4)
	la 5,.LC125@l(5)
	li 6,0
	.loc 2 107 0
	lis 30,.LC131@ha
	.loc 2 102 0
	bl _ZN10idEventDefC1EPKcS1_c
	.loc 2 103 0
	lis 4,.LC126@ha
	addi 3,31,4516
	la 4,.LC126@l(4)
	li 5,0
	li 6,102
	bl _ZN10idEventDefC1EPKcS1_c
	.loc 2 104 0
	lis 4,.LC127@ha
	addi 3,31,4580
	la 4,.LC127@l(4)
	li 5,0
	li 6,102
	bl _ZN10idEventDefC1EPKcS1_c
	.loc 2 105 0
	lis 4,.LC128@ha
	addi 3,31,4644
	la 4,.LC128@l(4)
	li 5,0
	li 6,102
	bl _ZN10idEventDefC1EPKcS1_c
	.loc 2 106 0
	lis 4,.LC129@ha
	addi 3,31,4708
	la 4,.LC129@l(4)
	li 5,0
	li 6,102
	bl _ZN10idEventDefC1EPKcS1_c
	.loc 2 107 0
	la 30,.LC131@l(30)
	lis 4,.LC130@ha
	addi 3,31,4772
	mr 5,30
	la 4,.LC130@l(4)
	li 6,0
	bl _ZN10idEventDefC1EPKcS1_c
	.loc 2 108 0
	lis 4,.LC132@ha
	lis 5,.LC133@ha
	addi 3,31,4836
	la 4,.LC132@l(4)
	la 5,.LC133@l(5)
	li 6,0
	bl _ZN10idEventDefC1EPKcS1_c
	.loc 2 109 0
	lis 4,.LC134@ha
	lis 5,.LC135@ha
	addi 3,31,4900
	la 4,.LC134@l(4)
	la 5,.LC135@l(5)
	li 6,0
	bl _ZN10idEventDefC1EPKcS1_c
	.loc 2 110 0
	lis 4,.LC136@ha
	addi 3,31,4964
	mr 5,30
	la 4,.LC136@l(4)
	li 6,0
	bl _ZN10idEventDefC1EPKcS1_c
	.loc 2 111 0
	lis 4,.LC137@ha
	lis 5,.LC138@ha
	addi 3,31,5028
	la 4,.LC137@l(4)
	la 5,.LC138@l(5)
	li 6,0
	.loc 2 114 0
	li 30,0
	.loc 2 111 0
	bl _ZN10idEventDefC1EPKcS1_c
	.loc 2 112 0
	lis 4,.LC139@ha
	addi 3,31,5092
	la 4,.LC139@l(4)
	li 5,0
	li 6,100
	bl _ZN10idEventDefC1EPKcS1_c
	.loc 2 114 0
	lis 11,_ZN7idClass5SpawnEv@ha
	la 0,_ZN7idClass5SpawnEv@l(11)
	lis 11,_ZNK8idThread4SaveEP10idSaveGame@ha
	stw 0,8(1)
	lis 4,.LC140@ha
	la 0,_ZNK8idThread4SaveEP10idSaveGame@l(11)
	lis 5,.LC141@ha
	lis 11,_ZN8idThread7RestoreEP13idRestoreGame@ha
	lis 6,.LANCHOR1@ha
	lis 7,_ZN8idThread14CreateInstanceEv@ha
	mr 3,31
	stw 0,16(1)
	la 4,.LC140@l(4)
	la 0,_ZN8idThread7RestoreEP13idRestoreGame@l(11)
	la 5,.LC141@l(5)
	la 6,.LANCHOR1@l(6)
	la 7,_ZN8idThread14CreateInstanceEv@l(7)
	addi 8,1,8
	addi 9,1,16
	addi 10,1,24
	stw 0,24(1)
	stw 30,12(1)
	stw 30,20(1)
	stw 30,28(1)
	bl _ZN10idTypeInfoC1EPKcS1_P11idEventFuncI7idClassEPFPS3_vEMS3_FvvEMS3_KFvP10idSaveGameEMS3_FvP13idRestoreGameE
.LVL786:
.LBB2431:
.LBB2432:
	.loc 10 159 0
	li 0,16
	.loc 10 158 0
	stw 30,264(31)
	.loc 10 159 0
	stw 0,260(31)
	.loc 10 160 0
	addi 3,31,252
	bl _ZN6idListIP8idThreadE5ClearEv
	b .L360
.LBE2432:
.LBE2431:
	.cfi_endproc
.LFE3295:
	.size	_Z41__static_initialization_and_destruction_0ii.constprop.41, .-_Z41__static_initialization_and_destruction_0ii.constprop.41
	.section	.text._ZN6idListI10idKeyValueE5ClearEv,"axG",@progbits,_ZN6idListI10idKeyValueE5ClearEv,comdat
	.align 2
	.weak	_ZN6idListI10idKeyValueE5ClearEv
	.type	_ZN6idListI10idKeyValueE5ClearEv, @function
_ZN6idListI10idKeyValueE5ClearEv:
.LFB3192:
	.loc 10 192 0
	.cfi_startproc
.LVL787:
	mflr 0
	stwu 1,-16(1)
.LCFI213:
	.cfi_def_cfa_offset 16
	.cfi_register 65, 0
	stw 31,12(1)
	mr 31,3
	.cfi_offset 31, -4
	stw 0,20(1)
	.loc 10 193 0
	lwz 3,12(3)
.LVL788:
	cmpwi 7,3,0
	beq- 7,.L366
	.cfi_offset 65, 4
	.loc 10 194 0 discriminator 1
	bl _ZdaPv
.L366:
	.loc 10 197 0
	li 0,0
	stw 0,12(31)
	.loc 10 198 0
	stw 0,0(31)
	.loc 10 199 0
	stw 0,4(31)
	.loc 10 200 0
	lwz 0,20(1)
	lwz 31,12(1)
.LVL789:
	mtlr 0
	addi 1,1,16
.LCFI214:
	.cfi_def_cfa_offset 0
	.cfi_restore 31
	blr
	.cfi_endproc
.LFE3192:
	.size	_ZN6idListI10idKeyValueE5ClearEv, .-_ZN6idListI10idKeyValueE5ClearEv
	.section	.text._ZN6idDictD2Ev,"axG",@progbits,_ZN6idDictD5Ev,comdat
	.align 2
	.weak	_ZN6idDictD2Ev
	.type	_ZN6idDictD2Ev, @function
_ZN6idDictD2Ev:
.LFB1936:
	.loc 13 173 0
	.cfi_startproc
	.cfi_personality 0,__gxx_personality_v0
	.cfi_lsda 0,.LLSDA1936
.LVL790:
	mflr 0
	stwu 1,-16(1)
.LCFI215:
	.cfi_def_cfa_offset 16
	.cfi_register 65, 0
	stw 31,12(1)
	mr 31,3
	.cfi_offset 31, -4
	stw 0,20(1)
	stw 30,8(1)
.LEHB6:
.LBB2461:
	.loc 13 174 0
	.cfi_offset 30, -8
	.cfi_offset 65, 4
	bl _ZN6idDict5ClearEv
.LEHE6:
.LVL791:
.LBB2462:
.LBB2463:
.LBB2464:
	.file 16 "d:/Data/Nintendo/DoomGX/src/game/script/../../idlib/../idlib/containers/HashIndex.h"
	.loc 16 130 0
	addi 3,31,16
.LEHB7:
	bl _ZN11idHashIndex4FreeEv
.LEHE7:
.LVL792:
.LBE2464:
.LBE2463:
.LBE2462:
.LBB2465:
.LBB2466:
.LBB2467:
.LBB2468:
	.loc 10 193 0 discriminator 1
	lwz 3,12(31)
	cmpwi 7,3,0
	beq- 7,.L369
	.loc 10 194 0
	bl _ZdaPv
.L369:
	.loc 10 197 0
	li 0,0
	stw 0,12(31)
	.loc 10 198 0
	stw 0,0(31)
	.loc 10 199 0
	stw 0,4(31)
.LBE2468:
.LBE2467:
.LBE2466:
.LBE2465:
.LBE2461:
	.loc 13 175 0
	lwz 0,20(1)
	lwz 30,8(1)
	mtlr 0
	lwz 31,12(1)
.LVL793:
	addi 1,1,16
	.cfi_remember_state
.LCFI216:
	.cfi_def_cfa_offset 0
	.cfi_restore 31
	.cfi_restore 30
	blr
.LVL794:
.L376:
.LCFI217:
	.cfi_restore_state
	mr 30,3
.LVL795:
.LBB2475:
.LBB2469:
.LBB2470:
.LBB2471:
	.loc 16 130 0
	addi 3,31,16
	bl _ZN11idHashIndex4FreeEv
.LVL796:
.L374:
.LBE2471:
.LBE2470:
.LBE2469:
.LBB2472:
.LBB2473:
.LBB2474:
	.loc 10 181 0
	mr 3,31
	bl _ZN6idListI10idKeyValueE5ClearEv
	mr 3,30
.LEHB8:
	bl _Unwind_Resume
.LEHE8:
.LVL797:
.L377:
	mr 30,3
	b .L374
.LBE2474:
.LBE2473:
.LBE2472:
.LBE2475:
	.cfi_endproc
.LFE1936:
	.section	.gcc_except_table
.LLSDA1936:
	.byte	0xff
	.byte	0xff
	.byte	0x1
	.uleb128 .LLSDACSE1936-.LLSDACSB1936
.LLSDACSB1936:
	.uleb128 .LEHB6-.LFB1936
	.uleb128 .LEHE6-.LEHB6
	.uleb128 .L376-.LFB1936
	.uleb128 0
	.uleb128 .LEHB7-.LFB1936
	.uleb128 .LEHE7-.LEHB7
	.uleb128 .L377-.LFB1936
	.uleb128 0
	.uleb128 .LEHB8-.LFB1936
	.uleb128 .LEHE8-.LEHB8
	.uleb128 0
	.uleb128 0
.LLSDACSE1936:
	.section	.text._ZN6idDictD2Ev,"axG",@progbits,_ZN6idDictD5Ev,comdat
	.size	_ZN6idDictD2Ev, .-_ZN6idDictD2Ev
	.section	".text"
	.align 2
	.globl _ZN8idThreadC2Ev
	.type	_ZN8idThreadC2Ev, @function
_ZN8idThreadC2Ev:
.LFB2826:
	.loc 2 251 0
	.cfi_startproc
	.cfi_personality 0,__gxx_personality_v0
	.cfi_lsda 0,.LLSDA2826
.LVL798:
	mflr 0
	stwu 1,-24(1)
.LCFI218:
	.cfi_def_cfa_offset 24
	.cfi_register 65, 0
.LBB2516:
	lis 9,_ZTV8idThread+8@ha
.LBE2516:
	stw 31,20(1)
	mr 31,3
	.cfi_offset 31, -4
.LVL799:
	stw 0,28(1)
.LBB2616:
	la 0,_ZTV8idThread+8@l(9)
	.cfi_offset 65, 4
.LBE2616:
	stw 28,8(1)
	stw 29,12(1)
	stw 30,16(1)
.LBB2617:
	.loc 2 251 0
	stw 0,0(3)
	addi 3,3,16
.LVL800:
.LEHB9:
	.cfi_offset 30, -8
	.cfi_offset 29, -12
	.cfi_offset 28, -16
	bl _ZN13idInterpreterC1Ev
.LEHE9:
.LVL801:
.LBB2517:
.LBB2518:
.LBB2519:
.LBB2520:
.LBB2521:
.LBB2522:
	.loc 10 197 0 discriminator 1
	li 0,0
.LBE2522:
.LBE2521:
	.loc 10 159 0 discriminator 1
	li 9,16
.LBE2520:
.LBE2519:
	.loc 13 163 0 discriminator 1
	addi 29,31,6992
.LBB2532:
.LBB2529:
	.loc 10 159 0 discriminator 1
	stw 9,6984(31)
.LVL802:
.LBB2526:
.LBB2523:
	.loc 10 197 0 discriminator 1
	stw 0,6988(31)
.LBE2523:
.LBE2526:
.LBE2529:
.LBE2532:
.LBB2533:
.LBB2534:
	.loc 16 112 0 discriminator 1
	mr 3,29
.LBE2534:
.LBE2533:
.LBB2537:
.LBB2530:
.LBB2527:
.LBB2524:
	.loc 10 198 0 discriminator 1
	stw 0,6976(31)
.LBE2524:
.LBE2527:
.LBE2530:
.LBE2537:
.LBB2538:
.LBB2535:
	.loc 16 112 0 discriminator 1
	li 4,1024
.LBE2535:
.LBE2538:
.LBB2539:
.LBB2531:
.LBB2528:
.LBB2525:
	.loc 10 199 0 discriminator 1
	stw 0,6980(31)
.LBE2525:
.LBE2528:
.LBE2531:
.LBE2539:
.LBB2540:
.LBB2536:
	.loc 16 112 0 discriminator 1
	li 5,1024
.LEHB10:
	bl _ZN11idHashIndex4InitEii
.LEHE10:
.LBE2536:
.LBE2540:
.LBB2541:
.LBB2542:
	.loc 10 319 0
	lwz 28,6988(31)
	.loc 10 317 0
	li 0,16
.LBE2542:
.LBE2541:
.LBE2518:
.LBE2517:
	.loc 2 251 0
	addi 30,31,6976
.LVL803:
.LBB2585:
.LBB2579:
.LBB2557:
.LBB2553:
	.loc 10 317 0
	stw 0,6984(31)
	.loc 10 319 0
	cmpwi 7,28,0
	beq- 7,.L379
	.loc 10 321 0
	lwz 9,6976(31)
	.loc 10 323 0
	lwz 0,6980(31)
	.loc 10 321 0
	addi 3,9,15
.LVL804:
	.loc 10 322 0
	srawi 3,3,4
	addze 3,3
.LVL805:
	slwi 3,3,4
.LVL806:
	.loc 10 323 0
	cmpw 7,3,0
	beq- 7,.L379
.LVL807:
.LBB2543:
.LBB2544:
	.loc 10 375 0
	cmpwi 7,3,0
	ble- 7,.L398
.LVL808:
	.loc 10 387 0
	cmpw 7,9,3
	.loc 10 386 0
	stw 3,6980(31)
	.loc 10 387 0
	bgt- 7,.L399
.L381:
	.loc 10 392 0
	slwi 3,3,3
.LVL809:
.LEHB11:
	bl _Znaj
.LVL810:
	.loc 10 393 0
	lwz 0,6976(31)
	.loc 10 392 0
	stw 3,6988(31)
.LVL811:
	.loc 10 393 0
	cmpwi 7,0,0
	ble- 7,.L382
	.loc 2 251 0
	addi 8,28,-8
.LBE2544:
.LBE2543:
.LBE2553:
.LBE2557:
.LBE2579:
.LBE2585:
.LBE2617:
	.loc 10 393 0
	li 9,0
	b .L383
.LVL812:
.L400:
.LBB2618:
.LBB2586:
.LBB2580:
.LBB2558:
.LBB2554:
.LBB2550:
.LBB2547:
	lwz 3,6988(31)
.LVL813:
.L383:
	.loc 10 394 0
	addi 8,8,8
	slwi 0,9,3
	lwz 10,0(8)
	add 3,3,0
	lwz 11,4(8)
	.loc 10 393 0
	addi 9,9,1
.LVL814:
	.loc 10 394 0
	stw 10,0(3)
	stw 11,4(3)
	.loc 10 393 0
	lwz 0,0(30)
	cmpw 7,9,0
	blt+ 7,.L400
.LVL815:
.L382:
	.loc 10 399 0
	mr 3,28
	bl _ZdaPv
.LVL816:
.L379:
.LBE2547:
.LBE2550:
.LBE2554:
.LBE2558:
.LBB2559:
.LBB2560:
	.loc 16 371 0
	li 0,16
.LBE2560:
.LBE2559:
.LBB2562:
.LBB2563:
	.loc 16 341 0
	mr 3,29
.LBE2563:
.LBE2562:
.LBB2567:
.LBB2561:
	.loc 16 371 0
	stw 0,7008(31)
.LVL817:
.LBE2561:
.LBE2567:
.LBB2568:
.LBB2564:
	.loc 16 341 0
	bl _ZN11idHashIndex4FreeEv
.LEHE11:
	.loc 16 342 0
	li 11,128
.LBE2564:
.LBE2568:
.LBE2580:
.LBE2586:
.LBB2587:
.LBB2588:
.LBB2589:
	.loc 12 356 0
	li 0,0
.LBE2589:
.LBE2588:
.LBE2587:
.LBB2600:
.LBB2581:
.LBB2569:
.LBB2565:
	.loc 16 342 0
	stw 11,6992(31)
	.loc 16 343 0
	li 11,16
.LBE2565:
.LBE2569:
.LBE2581:
.LBE2600:
.LBB2601:
.LBB2595:
.LBB2590:
	.loc 12 358 0
	addi 9,31,7036
.LBE2590:
.LBE2595:
.LBE2601:
.LBB2602:
.LBB2582:
.LBB2570:
.LBB2566:
	.loc 16 343 0
	stw 11,7000(31)
.LVL818:
.LBE2566:
.LBE2570:
.LBE2582:
.LBE2602:
.LBB2603:
.LBB2596:
.LBB2591:
	.loc 12 357 0
	li 11,20
.LBE2591:
.LBE2596:
.LBE2603:
	.loc 2 253 0
	lis 3,.LC142@ha
.LBB2604:
.LBB2597:
.LBB2592:
	.loc 12 356 0
	stw 0,7024(31)
.LBE2592:
.LBE2597:
.LBE2604:
	.loc 2 253 0
	la 3,.LC142@l(3)
.LBB2605:
.LBB2598:
.LBB2593:
	.loc 12 357 0
	stw 11,7032(31)
.LBE2593:
.LBE2598:
.LBE2605:
	.loc 2 253 0
	li 4,7068
.LBB2606:
.LBB2599:
.LBB2594:
	.loc 12 358 0
	stw 9,7028(31)
	addi 29,31,7024
.LVL819:
	.loc 12 359 0
	stb 0,7036(31)
.LEHB12:
.LBE2594:
.LBE2599:
.LBE2606:
	.loc 2 253 0
	crxor 6,6,6
	bl _Z15Sys_DebugPrintfPKcz
	.loc 2 256 0
	mr 3,31
	addi 29,31,7024
	bl _ZN8idThread4InitEv
	.loc 2 257 0
	lis 9,_ZN8idThread11threadIndexE@ha
	lis 3,.LC143@ha
	lwz 4,_ZN8idThread11threadIndexE@l(9)
	la 3,.LC143@l(3)
	crxor 6,6,6
	bl _Z2vaPKcz
	mr 4,3
.LVL820:
.LBB2607:
.LBB2608:
	.loc 2 584 0
	mr 3,29
.LVL821:
	bl _ZN5idStraSEPKc
.LVL822:
.LBE2608:
.LBE2607:
.LBB2609:
.LBB2610:
	.loc 2 258 0
	lis 9,g_debugScript+44@ha
	.loc 11 142 0
	lwz 9,g_debugScript+44@l(9)
.LBE2610:
.LBE2609:
	.loc 2 258 0
	lwz 0,36(9)
	cmpwi 7,0,0
	bne- 7,.L401
.LBE2618:
	.loc 2 261 0
	lwz 0,28(1)
	lwz 28,8(1)
	mtlr 0
	lwz 29,12(1)
	lwz 30,16(1)
	lwz 31,20(1)
.LVL823:
	addi 1,1,24
	.cfi_remember_state
.LCFI219:
	.cfi_def_cfa_offset 0
	.cfi_restore 31
	.cfi_restore 30
	.cfi_restore 29
	.cfi_restore 28
	blr
.LVL824:
.L399:
.LCFI220:
	.cfi_restore_state
.LBB2619:
.LBB2611:
.LBB2583:
.LBB2571:
.LBB2555:
.LBB2551:
.LBB2548:
	.loc 10 388 0
	stw 3,6976(31)
	b .L381
.LVL825:
.L401:
.LBE2548:
.LBE2551:
.LBE2555:
.LBE2571:
.LBE2583:
.LBE2611:
	.loc 2 259 0
	lis 3,gameLocal@ha
	lis 4,.LC144@ha
	la 3,gameLocal@l(3)
	lwz 6,7020(31)
	addis 9,3,0x25
	lwz 7,7028(31)
	lwz 5,2004(9)
	la 4,.LC144@l(4)
	crxor 6,6,6
	bl _ZNK11idGameLocal6PrintfEPKcz
.LEHE12:
.LBE2619:
	.loc 2 261 0
	lwz 0,28(1)
	lwz 28,8(1)
	mtlr 0
	lwz 29,12(1)
.LVL826:
	lwz 30,16(1)
.LVL827:
	lwz 31,20(1)
.LVL828:
	addi 1,1,24
	.cfi_remember_state
	.cfi_restore 28
	.cfi_restore 29
	.cfi_restore 30
	.cfi_restore 31
.LCFI221:
	.cfi_def_cfa_offset 0
	blr
.LVL829:
.L398:
.LCFI222:
	.cfi_restore_state
.LBB2620:
.LBB2612:
.LBB2584:
.LBB2572:
.LBB2556:
.LBB2552:
.LBB2549:
.LBB2545:
.LBB2546:
	.loc 10 194 0
	mr 3,28
.LVL830:
	bl _ZdaPv
	.loc 10 197 0
	li 0,0
	stw 0,6988(31)
	.loc 10 198 0
	stw 0,6976(31)
	.loc 10 199 0
	stw 0,6980(31)
	b .L379
.LVL831:
.L396:
	mr 28,3
.LVL832:
.LBE2546:
.LBE2545:
.LBE2549:
.LBE2552:
.LBE2556:
.LBE2572:
.LBB2573:
.LBB2574:
.LBB2575:
	.loc 16 130 0
	mr 3,29
	bl _ZN11idHashIndex4FreeEv
	mr 29,28
.LVL833:
.L387:
.LBE2575:
.LBE2574:
.LBE2573:
.LBB2576:
.LBB2577:
.LBB2578:
	.loc 10 181 0
	mr 3,30
	mr 30,29
	bl _ZN6idListI10idKeyValueE5ClearEv
.LVL834:
.L389:
.LBE2578:
.LBE2577:
.LBE2576:
.LBE2584:
.LBE2612:
	.loc 2 251 0
	mr 3,31
	bl _ZN7idClassD2Ev
	mr 3,30
.LEHB13:
	bl _Unwind_Resume
.LEHE13:
.L393:
	mr 30,3
	b .L389
.LVL835:
.L395:
	mr 29,3
.LVL836:
	addi 30,31,6976
	b .L387
.LVL837:
.L394:
	mr 28,3
.LVL838:
.LBB2613:
.LBB2614:
.LBB2615:
	.loc 12 501 0
	mr 3,29
	bl _ZN5idStr8FreeDataEv
.LBE2615:
.LBE2614:
.LBE2613:
	.loc 2 251 0
	mr 3,30
	bl _ZN6idDictD1Ev
	mr 30,28
	b .L389
.LBE2620:
	.cfi_endproc
.LFE2826:
	.section	.gcc_except_table
.LLSDA2826:
	.byte	0xff
	.byte	0xff
	.byte	0x1
	.uleb128 .LLSDACSE2826-.LLSDACSB2826
.LLSDACSB2826:
	.uleb128 .LEHB9-.LFB2826
	.uleb128 .LEHE9-.LEHB9
	.uleb128 .L393-.LFB2826
	.uleb128 0
	.uleb128 .LEHB10-.LFB2826
	.uleb128 .LEHE10-.LEHB10
	.uleb128 .L395-.LFB2826
	.uleb128 0
	.uleb128 .LEHB11-.LFB2826
	.uleb128 .LEHE11-.LEHB11
	.uleb128 .L396-.LFB2826
	.uleb128 0
	.uleb128 .LEHB12-.LFB2826
	.uleb128 .LEHE12-.LEHB12
	.uleb128 .L394-.LFB2826
	.uleb128 0
	.uleb128 .LEHB13-.LFB2826
	.uleb128 .LEHE13-.LEHB13
	.uleb128 0
	.uleb128 0
.LLSDACSE2826:
	.section	".text"
	.size	_ZN8idThreadC2Ev, .-_ZN8idThreadC2Ev
	.align 2
	.globl _ZN8idThread14CreateInstanceEv
	.type	_ZN8idThread14CreateInstanceEv, @function
_ZN8idThread14CreateInstanceEv:
.LFB2810:
	.loc 2 114 0
	.cfi_startproc
	.cfi_personality 0,__gxx_personality_v0
	.cfi_lsda 0,.LLSDA2810
	mflr 0
	stwu 1,-24(1)
.LCFI223:
	.cfi_def_cfa_offset 24
	.cfi_register 65, 0
.LBB2621:
	li 3,7068
.LBE2621:
	stw 30,16(1)
	stw 0,28(1)
	stw 31,20(1)
.LEHB14:
.LBB2622:
	.loc 2 114 0
	.cfi_offset 31, -4
	.cfi_offset 65, 4
	.cfi_offset 30, -8
	bl _ZN7idClassnwEj
.LEHE14:
	mr 31,3
.LEHB15:
	bl _ZN8idThreadC1Ev
.LEHE15:
.LVL839:
	.loc 2 114 0 is_stmt 0 discriminator 2
	mr 3,31
.LEHB16:
	bl _ZN7idClass23FindUninitializedMemoryEv
.LEHE16:
.LVL840:
.L407:
.LBE2622:
	.loc 2 114 0
	lwz 0,28(1)
	mr 3,31
	lwz 30,16(1)
	mtlr 0
	lwz 31,20(1)
	addi 1,1,24
	.cfi_remember_state
.LCFI224:
	.cfi_def_cfa_offset 0
	.cfi_restore 31
	.cfi_restore 30
	blr
.L408:
.L404:
.LCFI225:
	.cfi_restore_state
.LBB2623:
	cmpwi 7,4,1
	beq- 7,.L406
.LEHB17:
	bl _Unwind_Resume
.LEHE17:
.L409:
	mr 30,3
	mr 3,31
	stw 4,8(1)
	bl _ZN7idClassdlEPv
	mr 3,30
	lwz 4,8(1)
	b .L404
.L406:
.LBE2623:
.LBB2624:
	bl __cxa_begin_catch
	li 31,0
	bl __cxa_end_catch
	b .L407
.LBE2624:
	.cfi_endproc
.LFE2810:
	.section	.gcc_except_table
	.align 2
.LLSDA2810:
	.byte	0xff
	.byte	0
	.uleb128 .LLSDATT2810-.LLSDATTD2810
.LLSDATTD2810:
	.byte	0x1
	.uleb128 .LLSDACSE2810-.LLSDACSB2810
.LLSDACSB2810:
	.uleb128 .LEHB14-.LFB2810
	.uleb128 .LEHE14-.LEHB14
	.uleb128 .L408-.LFB2810
	.uleb128 0x1
	.uleb128 .LEHB15-.LFB2810
	.uleb128 .LEHE15-.LEHB15
	.uleb128 .L409-.LFB2810
	.uleb128 0x3
	.uleb128 .LEHB16-.LFB2810
	.uleb128 .LEHE16-.LEHB16
	.uleb128 .L408-.LFB2810
	.uleb128 0x1
	.uleb128 .LEHB17-.LFB2810
	.uleb128 .LEHE17-.LEHB17
	.uleb128 0
	.uleb128 0
.LLSDACSE2810:
	.byte	0x1
	.byte	0
	.byte	0
	.byte	0x7d
	.align 2
	.long	_ZTI12idAllocError
.LLSDATT2810:
	.section	".text"
	.size	_ZN8idThread14CreateInstanceEv, .-_ZN8idThread14CreateInstanceEv
	.align 2
	.globl _ZN8idThreadD2Ev
	.type	_ZN8idThreadD2Ev, @function
_ZN8idThreadD2Ev:
.LFB2841:
	.loc 2 345 0 is_stmt 1
	.cfi_startproc
	.cfi_personality 0,__gxx_personality_v0
	.cfi_lsda 0,.LLSDA2841
.LVL841:
	mflr 0
	stwu 1,-24(1)
.LCFI226:
	.cfi_def_cfa_offset 24
	.cfi_register 65, 0
.LBB2660:
	lis 9,_ZTV8idThread+8@ha
.LBE2660:
	stw 30,16(1)
	mr 30,3
	.cfi_offset 30, -8
	stw 0,28(1)
.LBB2713:
	la 0,_ZTV8idThread+8@l(9)
	.cfi_offset 65, 4
.LBE2713:
	stw 28,8(1)
.LBB2714:
.LBB2661:
.LBB2662:
.LBB2663:
	.loc 2 350 0
	lis 9,g_debugScript+44@ha
.LBE2663:
.LBE2662:
.LBE2661:
.LBE2714:
	.loc 2 345 0
	stw 29,12(1)
	stw 31,20(1)
.LBB2715:
	.loc 2 345 0
	stw 0,0(3)
.LBB2676:
.LBB2665:
.LBB2664:
	.loc 11 142 0
	lwz 9,g_debugScript+44@l(9)
.LBE2664:
.LBE2665:
	.loc 2 350 0
	lwz 0,36(9)
	cmpwi 7,0,0
	bne- 7,.L441
	.cfi_offset 31, -4
	.cfi_offset 29, -12
	.cfi_offset 28, -16
.LVL842:
.L411:
.LBB2666:
	.loc 2 353 0
	lis 8,.LANCHOR0@ha
	la 8,.LANCHOR0@l(8)
	.loc 2 1863 0
	lwz 29,252(8)
.LVL843:
	.loc 2 353 0
	addi 28,8,252
.LBB2667:
.LBB2668:
.LBB2669:
	.loc 10 772 0
	cmpwi 7,29,0
	ble- 7,.L412
	.loc 10 773 0
	lwz 9,12(28)
	lwz 0,0(9)
	cmpw 7,30,0
	beq- 7,.L436
	mr 10,9
	.loc 10 772 0
	li 11,0
	mtctr 29
	b .L414
.LVL844:
.L415:
	.loc 10 773 0
	lwzu 0,4(10)
	cmpw 7,30,0
	beq- 7,.L413
.LVL845:
.L414:
	.loc 10 772 0
	addi 11,11,1
.LVL846:
	bdnz .L415
.LVL847:
.L416:
	li 31,0
	b .L420
.LVL848:
.L419:
.LBE2669:
.LBE2668:
.LBE2667:
.LBE2666:
	.loc 2 355 0
	addi 31,31,1
.LVL849:
	cmpw 7,31,29
	bge- 7,.L412
.LVL850:
.L442:
	lwz 9,12(28)
.LVL851:
.L420:
	.loc 2 356 0
	slwi 0,31,2
	lwzx 3,9,0
.LVL852:
	.loc 2 357 0
	lwz 0,4(3)
.LVL853:
	cmpw 7,30,0
	bne+ 7,.L419
	.loc 2 358 0
	mr 4,30
.LEHB18:
	bl _ZN8idThread14ThreadCallbackEPS_
.LEHE18:
.LVL854:
	.loc 2 355 0
	addi 31,31,1
.LVL855:
	cmpw 7,31,29
	blt+ 7,.L442
.LVL856:
.L412:
	.loc 2 362 0
	lis 9,_ZN8idThread13currentThreadE@ha
	lwz 0,_ZN8idThread13currentThreadE@l(9)
	cmpw 7,0,30
	beq- 7,.L443
.L421:
.LVL857:
.LBE2676:
.LBB2677:
.LBB2678:
.LBB2679:
	.loc 12 501 0
	addi 3,30,7024
.LEHB19:
	bl _ZN5idStr8FreeDataEv
.LEHE19:
.LVL858:
.LBE2679:
.LBE2678:
.LBE2677:
	.loc 2 345 0 discriminator 1
	addi 31,30,6976
.LBB2680:
.LBB2681:
.LBB2682:
	.loc 13 174 0 discriminator 1
	mr 3,31
.LEHB20:
	bl _ZN6idDict5ClearEv
.LEHE20:
.LVL859:
.LBB2683:
.LBB2684:
.LBB2685:
	.loc 16 130 0
	addi 3,30,6992
.LEHB21:
	bl _ZN11idHashIndex4FreeEv
.LEHE21:
.LVL860:
.LBE2685:
.LBE2684:
.LBE2683:
.LBB2686:
.LBB2687:
.LBB2688:
.LBB2689:
	.loc 10 193 0
	lwz 3,6988(30)
	cmpwi 7,3,0
	beq- 7,.L424
	.loc 10 194 0
	bl _ZdaPv
.L424:
	.loc 10 197 0
	li 0,0
.LBE2689:
.LBE2688:
.LBE2687:
.LBE2686:
.LBE2682:
.LBE2681:
.LBE2680:
	.loc 2 345 0
	mr 3,30
.LBB2706:
.LBB2703:
.LBB2700:
.LBB2693:
.LBB2692:
.LBB2691:
.LBB2690:
	.loc 10 197 0
	stw 0,6988(30)
	.loc 10 198 0
	stw 0,6976(30)
	.loc 10 199 0
	stw 0,6980(30)
.LEHB22:
.LBE2690:
.LBE2691:
.LBE2692:
.LBE2693:
.LBE2700:
.LBE2703:
.LBE2706:
	.loc 2 345 0
	bl _ZN7idClassD2Ev
.LEHE22:
.LBE2715:
	.loc 2 365 0
	lwz 0,28(1)
	lwz 28,8(1)
	mtlr 0
	lwz 29,12(1)
	lwz 30,16(1)
.LVL861:
	lwz 31,20(1)
.LVL862:
	addi 1,1,24
	.cfi_remember_state
.LCFI227:
	.cfi_def_cfa_offset 0
	.cfi_restore 31
	.cfi_restore 30
	.cfi_restore 29
	.cfi_restore 28
	blr
.LVL863:
.L436:
.LCFI228:
	.cfi_restore_state
.LBB2716:
.LBB2707:
.LBB2675:
.LBB2674:
.LBB2671:
.LBB2670:
	.loc 10 772 0
	li 11,0
.LVL864:
.L413:
.LBE2670:
.LBE2671:
.LBB2672:
.LBB2673:
	.loc 10 868 0
	addi 29,29,-1
	.loc 10 869 0
	cmpw 7,11,29
	.loc 10 868 0
	stw 29,252(8)
.LVL865:
	.loc 10 869 0
	bge- 7,.L417
	slwi 10,11,2
	b .L418
.LVL866:
.L444:
	lwz 9,12(28)
.L418:
	.loc 10 870 0
	add 8,9,10
	.loc 2 345 0
	addi 10,10,4
	.loc 10 870 0
	lwzx 0,9,10
	.loc 10 869 0
	addi 11,11,1
.LVL867:
	.loc 10 870 0
	stw 0,0(8)
	.loc 10 869 0
	lwz 29,0(28)
	cmpw 7,11,29
	blt+ 7,.L444
.L417:
.LVL868:
.LBE2673:
.LBE2672:
.LBE2674:
.LBE2675:
	.loc 2 355 0
	cmpwi 7,29,0
	ble- 7,.L412
	lwz 9,12(28)
	b .L416
.LVL869:
.L441:
	.loc 2 351 0
	lis 3,gameLocal@ha
	lis 4,.LC145@ha
	la 3,gameLocal@l(3)
	lwz 6,7020(30)
	addis 9,3,0x25
	lwz 7,7028(30)
	lwz 5,2004(9)
	la 4,.LC145@l(4)
.LEHB23:
	crxor 6,6,6
	bl _ZNK11idGameLocal6PrintfEPKcz
.LEHE23:
	b .L411
.LVL870:
.L443:
	.loc 2 363 0
	li 0,0
	stw 0,_ZN8idThread13currentThreadE@l(9)
	b .L421
.LVL871:
.L439:
	mr 29,3
.LVL872:
.L428:
.LBE2707:
.LBB2708:
.LBB2704:
.LBB2701:
.LBB2694:
.LBB2695:
.LBB2696:
	.loc 10 181 0
	mr 3,31
	mr 31,29
.LVL873:
	bl _ZN6idListI10idKeyValueE5ClearEv
.LVL874:
.L430:
.LBE2696:
.LBE2695:
.LBE2694:
.LBE2701:
.LBE2704:
.LBE2708:
	.loc 2 345 0
	mr 3,30
	bl _ZN7idClassD2Ev
	mr 3,31
.LEHB24:
	bl _Unwind_Resume
.LEHE24:
.LVL875:
.L440:
	mr 29,3
.LVL876:
.LBB2709:
.LBB2705:
.LBB2702:
.LBB2697:
.LBB2698:
.LBB2699:
	.loc 16 130 0
	addi 3,30,6992
	bl _ZN11idHashIndex4FreeEv
	b .L428
.LVL877:
.L437:
	mr 31,3
.LVL878:
.LBE2699:
.LBE2698:
.LBE2697:
.LBE2702:
.LBE2705:
.LBE2709:
.LBB2710:
.LBB2711:
.LBB2712:
	.loc 12 501 0
	addi 3,30,7024
	bl _ZN5idStr8FreeDataEv
.LVL879:
.L435:
.LBE2712:
.LBE2711:
.LBE2710:
	.loc 2 345 0
	addi 3,30,6976
	bl _ZN6idDictD1Ev
	b .L430
.LVL880:
.L438:
	mr 31,3
	b .L435
.LBE2716:
	.cfi_endproc
.LFE2841:
	.section	.gcc_except_table
.LLSDA2841:
	.byte	0xff
	.byte	0xff
	.byte	0x1
	.uleb128 .LLSDACSE2841-.LLSDACSB2841
.LLSDACSB2841:
	.uleb128 .LEHB18-.LFB2841
	.uleb128 .LEHE18-.LEHB18
	.uleb128 .L437-.LFB2841
	.uleb128 0
	.uleb128 .LEHB19-.LFB2841
	.uleb128 .LEHE19-.LEHB19
	.uleb128 .L438-.LFB2841
	.uleb128 0
	.uleb128 .LEHB20-.LFB2841
	.uleb128 .LEHE20-.LEHB20
	.uleb128 .L440-.LFB2841
	.uleb128 0
	.uleb128 .LEHB21-.LFB2841
	.uleb128 .LEHE21-.LEHB21
	.uleb128 .L439-.LFB2841
	.uleb128 0
	.uleb128 .LEHB22-.LFB2841
	.uleb128 .LEHE22-.LEHB22
	.uleb128 0
	.uleb128 0
	.uleb128 .LEHB23-.LFB2841
	.uleb128 .LEHE23-.LEHB23
	.uleb128 .L437-.LFB2841
	.uleb128 0
	.uleb128 .LEHB24-.LFB2841
	.uleb128 .LEHE24-.LEHB24
	.uleb128 0
	.uleb128 0
.LLSDACSE2841:
	.section	".text"
	.size	_ZN8idThreadD2Ev, .-_ZN8idThreadD2Ev
	.align 2
	.globl _ZN8idThreadD0Ev
	.type	_ZN8idThreadD0Ev, @function
_ZN8idThreadD0Ev:
.LFB2843:
	.loc 2 345 0
	.cfi_startproc
.LVL881:
	stwu 1,-16(1)
.LCFI229:
	.cfi_def_cfa_offset 16
	mflr 0
	stw 31,12(1)
	mr 31,3
	.cfi_offset 31, -4
	.cfi_register 65, 0
	stw 0,20(1)
	.loc 2 365 0
	.cfi_offset 65, 4
	bl _ZN8idThreadD1Ev
.LVL882:
	mr 3,31
	bl _ZN7idClassdlEPv
	lwz 0,20(1)
	lwz 31,12(1)
.LVL883:
	mtlr 0
	addi 1,1,16
.LCFI230:
	.cfi_def_cfa_offset 0
	.cfi_restore 31
	blr
	.cfi_endproc
.LFE2843:
	.size	_ZN8idThreadD0Ev, .-_ZN8idThreadD0Ev
	.align 2
	.globl _ZN8idThreadC2EP8idEntityPK10function_t
	.type	_ZN8idThreadC2EP8idEntityPK10function_t, @function
_ZN8idThreadC2EP8idEntityPK10function_t:
.LFB2829:
	.loc 2 268 0
	.cfi_startproc
	.cfi_personality 0,__gxx_personality_v0
	.cfi_lsda 0,.LLSDA2829
.LVL884:
	mflr 0
	stwu 1,-40(1)
.LCFI231:
	.cfi_def_cfa_offset 40
	.cfi_register 65, 0
.LBB2758:
	lis 9,_ZTV8idThread+8@ha
.LBE2758:
	stw 25,12(1)
	mr 25,5
	.cfi_offset 25, -28
	stw 0,44(1)
.LBB2858:
	la 0,_ZTV8idThread+8@l(9)
	.cfi_offset 65, 4
.LBE2858:
	stw 27,20(1)
.LBB2859:
	addi 27,3,16
	.cfi_offset 27, -20
.LBE2859:
	stw 28,24(1)
	mr 28,4
	.cfi_offset 28, -16
	stw 31,36(1)
	mr 31,3
	.cfi_offset 31, -4
.LVL885:
	stw 26,16(1)
	stw 29,28(1)
	stw 30,32(1)
.LBB2860:
	.loc 2 268 0
	stw 0,0(3)
	mr 3,27
.LVL886:
.LEHB25:
	.cfi_offset 30, -8
	.cfi_offset 29, -12
	.cfi_offset 26, -24
	bl _ZN13idInterpreterC1Ev
.LEHE25:
.LVL887:
.LBB2759:
.LBB2760:
.LBB2761:
.LBB2762:
.LBB2763:
.LBB2764:
	.loc 10 197 0 discriminator 1
	li 0,0
.LBE2764:
.LBE2763:
	.loc 10 159 0 discriminator 1
	li 9,16
.LBE2762:
.LBE2761:
	.loc 13 163 0 discriminator 1
	addi 29,31,6992
.LBB2774:
.LBB2771:
	.loc 10 159 0 discriminator 1
	stw 9,6984(31)
.LVL888:
.LBB2768:
.LBB2765:
	.loc 10 197 0 discriminator 1
	stw 0,6988(31)
.LBE2765:
.LBE2768:
.LBE2771:
.LBE2774:
.LBB2775:
.LBB2776:
	.loc 16 112 0 discriminator 1
	mr 3,29
.LBE2776:
.LBE2775:
.LBB2779:
.LBB2772:
.LBB2769:
.LBB2766:
	.loc 10 198 0 discriminator 1
	stw 0,6976(31)
.LBE2766:
.LBE2769:
.LBE2772:
.LBE2779:
.LBB2780:
.LBB2777:
	.loc 16 112 0 discriminator 1
	li 4,1024
.LBE2777:
.LBE2780:
.LBB2781:
.LBB2773:
.LBB2770:
.LBB2767:
	.loc 10 199 0 discriminator 1
	stw 0,6980(31)
.LBE2767:
.LBE2770:
.LBE2773:
.LBE2781:
.LBB2782:
.LBB2778:
	.loc 16 112 0 discriminator 1
	li 5,1024
.LEHB26:
	bl _ZN11idHashIndex4InitEii
.LEHE26:
.LBE2778:
.LBE2782:
.LBB2783:
.LBB2784:
	.loc 10 319 0
	lwz 26,6988(31)
	.loc 10 317 0
	li 0,16
.LBE2784:
.LBE2783:
.LBE2760:
.LBE2759:
	.loc 2 268 0
	addi 30,31,6976
.LVL889:
.LBB2827:
.LBB2821:
.LBB2799:
.LBB2795:
	.loc 10 317 0
	stw 0,6984(31)
	.loc 10 319 0
	cmpwi 7,26,0
	beq- 7,.L448
	.loc 10 321 0
	lwz 9,6976(31)
	.loc 10 323 0
	lwz 0,6980(31)
	.loc 10 321 0
	addi 3,9,15
.LVL890:
	.loc 10 322 0
	srawi 3,3,4
	addze 3,3
.LVL891:
	slwi 3,3,4
.LVL892:
	.loc 10 323 0
	cmpw 7,3,0
	beq- 7,.L448
.LVL893:
.LBB2785:
.LBB2786:
	.loc 10 375 0
	cmpwi 7,3,0
	ble- 7,.L467
.LVL894:
	.loc 10 387 0
	cmpw 7,9,3
	.loc 10 386 0
	stw 3,6980(31)
	.loc 10 387 0
	bgt- 7,.L468
.L450:
	.loc 10 392 0
	slwi 3,3,3
.LVL895:
.LEHB27:
	bl _Znaj
.LVL896:
	.loc 10 393 0
	lwz 0,6976(31)
	.loc 10 392 0
	stw 3,6988(31)
.LVL897:
	.loc 10 393 0
	cmpwi 7,0,0
	ble- 7,.L451
	.loc 2 268 0
	addi 8,26,-8
.LBE2786:
.LBE2785:
.LBE2795:
.LBE2799:
.LBE2821:
.LBE2827:
.LBE2860:
	.loc 10 393 0
	li 9,0
	b .L452
.LVL898:
.L469:
.LBB2861:
.LBB2828:
.LBB2822:
.LBB2800:
.LBB2796:
.LBB2792:
.LBB2789:
	lwz 3,6988(31)
.LVL899:
.L452:
	.loc 10 394 0
	addi 8,8,8
	slwi 0,9,3
	lwz 10,0(8)
	add 3,3,0
	lwz 11,4(8)
	.loc 10 393 0
	addi 9,9,1
.LVL900:
	.loc 10 394 0
	stw 10,0(3)
	stw 11,4(3)
	.loc 10 393 0
	lwz 0,0(30)
	cmpw 7,9,0
	blt+ 7,.L469
.LVL901:
.L451:
	.loc 10 399 0
	mr 3,26
	bl _ZdaPv
.LVL902:
.L448:
.LBE2789:
.LBE2792:
.LBE2796:
.LBE2800:
.LBB2801:
.LBB2802:
	.loc 16 371 0
	li 0,16
.LBE2802:
.LBE2801:
.LBB2804:
.LBB2805:
	.loc 16 341 0
	mr 3,29
.LBE2805:
.LBE2804:
.LBB2809:
.LBB2803:
	.loc 16 371 0
	stw 0,7008(31)
.LVL903:
.LBE2803:
.LBE2809:
.LBB2810:
.LBB2806:
	.loc 16 341 0
	bl _ZN11idHashIndex4FreeEv
.LEHE27:
	.loc 16 342 0
	li 11,128
.LBE2806:
.LBE2810:
.LBE2822:
.LBE2828:
.LBB2829:
.LBB2830:
.LBB2831:
	.loc 12 356 0
	li 0,0
.LBE2831:
.LBE2830:
.LBE2829:
.LBB2842:
.LBB2823:
.LBB2811:
.LBB2807:
	.loc 16 342 0
	stw 11,6992(31)
	.loc 16 343 0
	li 11,16
.LBE2807:
.LBE2811:
.LBE2823:
.LBE2842:
.LBB2843:
.LBB2837:
.LBB2832:
	.loc 12 358 0
	addi 9,31,7036
.LBE2832:
.LBE2837:
.LBE2843:
.LBB2844:
.LBB2824:
.LBB2812:
.LBB2808:
	.loc 16 343 0
	stw 11,7000(31)
.LVL904:
.LBE2808:
.LBE2812:
.LBE2824:
.LBE2844:
.LBB2845:
.LBB2838:
.LBB2833:
	.loc 12 357 0
	li 11,20
.LBE2833:
.LBE2838:
.LBE2845:
	.loc 2 270 0
	lis 3,.LC146@ha
.LBB2846:
.LBB2839:
.LBB2834:
	.loc 12 356 0
	stw 0,7024(31)
.LBE2834:
.LBE2839:
.LBE2846:
	.loc 2 270 0
	la 3,.LC146@l(3)
.LBB2847:
.LBB2840:
.LBB2835:
	.loc 12 357 0
	stw 11,7032(31)
.LBE2835:
.LBE2840:
.LBE2847:
	.loc 2 270 0
	li 4,7068
.LBB2848:
.LBB2841:
.LBB2836:
	.loc 12 358 0
	stw 9,7028(31)
	addi 29,31,7024
.LVL905:
	.loc 12 359 0
	stb 0,7036(31)
.LEHB28:
.LBE2836:
.LBE2841:
.LBE2848:
	.loc 2 270 0
	crxor 6,6,6
	bl _Z15Sys_DebugPrintfPKcz
	.loc 2 275 0
	mr 3,31
	addi 29,31,7024
	bl _ZN8idThread4InitEv
.LVL906:
.LBB2849:
.LBB2850:
	.loc 2 584 0
	lwz 4,72(28)
	mr 3,29
	bl _ZN5idStraSEPKc
.LVL907:
.LBE2850:
.LBE2849:
	.loc 2 277 0
	mr 3,27
	mr 4,28
	mr 5,25
	li 6,0
	bl _ZN13idInterpreter19EnterObjectFunctionEP8idEntityPK10function_tb
.LBB2851:
.LBB2852:
	.loc 2 278 0
	lis 9,g_debugScript+44@ha
	.loc 11 142 0
	lwz 9,g_debugScript+44@l(9)
.LBE2852:
.LBE2851:
	.loc 2 278 0
	lwz 0,36(9)
	cmpwi 7,0,0
	bne- 7,.L470
.LBE2861:
	.loc 2 281 0
	lwz 0,44(1)
	lwz 25,12(1)
.LVL908:
	mtlr 0
	lwz 26,16(1)
	lwz 27,20(1)
	lwz 28,24(1)
.LVL909:
	lwz 29,28(1)
	lwz 30,32(1)
	lwz 31,36(1)
.LVL910:
	addi 1,1,40
	.cfi_remember_state
.LCFI232:
	.cfi_def_cfa_offset 0
	.cfi_restore 31
	.cfi_restore 30
	.cfi_restore 29
	.cfi_restore 28
	.cfi_restore 27
	.cfi_restore 26
	.cfi_restore 25
	blr
.LVL911:
.L468:
.LCFI233:
	.cfi_restore_state
.LBB2862:
.LBB2853:
.LBB2825:
.LBB2813:
.LBB2797:
.LBB2793:
.LBB2790:
	.loc 10 388 0
	stw 3,6976(31)
	b .L450
.LVL912:
.L470:
.LBE2790:
.LBE2793:
.LBE2797:
.LBE2813:
.LBE2825:
.LBE2853:
	.loc 2 279 0
	lis 3,gameLocal@ha
	lis 4,.LC144@ha
	la 3,gameLocal@l(3)
	lwz 6,7020(31)
	addis 9,3,0x25
	lwz 7,7028(31)
	lwz 5,2004(9)
	la 4,.LC144@l(4)
	crxor 6,6,6
	bl _ZNK11idGameLocal6PrintfEPKcz
.LEHE28:
.LBE2862:
	.loc 2 281 0
	lwz 0,44(1)
	lwz 25,12(1)
.LVL913:
	mtlr 0
	lwz 26,16(1)
	lwz 27,20(1)
	lwz 28,24(1)
.LVL914:
	lwz 29,28(1)
.LVL915:
	lwz 30,32(1)
.LVL916:
	lwz 31,36(1)
.LVL917:
	addi 1,1,40
	.cfi_remember_state
	.cfi_restore 25
	.cfi_restore 26
	.cfi_restore 27
	.cfi_restore 28
	.cfi_restore 29
	.cfi_restore 30
	.cfi_restore 31
.LCFI234:
	.cfi_def_cfa_offset 0
	blr
.LVL918:
.L467:
.LCFI235:
	.cfi_restore_state
.LBB2863:
.LBB2854:
.LBB2826:
.LBB2814:
.LBB2798:
.LBB2794:
.LBB2791:
.LBB2787:
.LBB2788:
	.loc 10 194 0
	mr 3,26
.LVL919:
	bl _ZdaPv
	.loc 10 197 0
	li 0,0
	stw 0,6988(31)
	.loc 10 198 0
	stw 0,6976(31)
	.loc 10 199 0
	stw 0,6980(31)
	b .L448
.LVL920:
.L465:
	mr 28,3
.LVL921:
.LBE2788:
.LBE2787:
.LBE2791:
.LBE2794:
.LBE2798:
.LBE2814:
.LBB2815:
.LBB2816:
.LBB2817:
	.loc 16 130 0
	mr 3,29
	bl _ZN11idHashIndex4FreeEv
	mr 29,28
.LVL922:
.L456:
.LBE2817:
.LBE2816:
.LBE2815:
.LBB2818:
.LBB2819:
.LBB2820:
	.loc 10 181 0
	mr 3,30
	mr 30,29
	bl _ZN6idListI10idKeyValueE5ClearEv
.LVL923:
.L458:
.LBE2820:
.LBE2819:
.LBE2818:
.LBE2826:
.LBE2854:
	.loc 2 268 0
	mr 3,31
	bl _ZN7idClassD2Ev
	mr 3,30
.LEHB29:
	bl _Unwind_Resume
.LEHE29:
.LVL924:
.L462:
	mr 30,3
	b .L458
.LVL925:
.L464:
	mr 29,3
.LVL926:
	addi 30,31,6976
	b .L456
.LVL927:
.L463:
	mr 28,3
.LVL928:
.LBB2855:
.LBB2856:
.LBB2857:
	.loc 12 501 0
	mr 3,29
	bl _ZN5idStr8FreeDataEv
.LBE2857:
.LBE2856:
.LBE2855:
	.loc 2 268 0
	mr 3,30
	bl _ZN6idDictD1Ev
	mr 30,28
	b .L458
.LBE2863:
	.cfi_endproc
.LFE2829:
	.section	.gcc_except_table
.LLSDA2829:
	.byte	0xff
	.byte	0xff
	.byte	0x1
	.uleb128 .LLSDACSE2829-.LLSDACSB2829
.LLSDACSB2829:
	.uleb128 .LEHB25-.LFB2829
	.uleb128 .LEHE25-.LEHB25
	.uleb128 .L462-.LFB2829
	.uleb128 0
	.uleb128 .LEHB26-.LFB2829
	.uleb128 .LEHE26-.LEHB26
	.uleb128 .L464-.LFB2829
	.uleb128 0
	.uleb128 .LEHB27-.LFB2829
	.uleb128 .LEHE27-.LEHB27
	.uleb128 .L465-.LFB2829
	.uleb128 0
	.uleb128 .LEHB28-.LFB2829
	.uleb128 .LEHE28-.LEHB28
	.uleb128 .L463-.LFB2829
	.uleb128 0
	.uleb128 .LEHB29-.LFB2829
	.uleb128 .LEHE29-.LEHB29
	.uleb128 0
	.uleb128 0
.LLSDACSE2829:
	.section	".text"
	.size	_ZN8idThreadC2EP8idEntityPK10function_t, .-_ZN8idThreadC2EP8idEntityPK10function_t
	.align 2
	.globl _ZN8idThreadC2EP13idInterpreterP8idEntityPK10function_ti
	.type	_ZN8idThreadC2EP13idInterpreterP8idEntityPK10function_ti, @function
_ZN8idThreadC2EP13idInterpreterP8idEntityPK10function_ti:
.LFB2838:
	.loc 2 325 0
	.cfi_startproc
	.cfi_personality 0,__gxx_personality_v0
	.cfi_lsda 0,.LLSDA2838
.LVL929:
	mflr 0
	stwu 1,-48(1)
.LCFI236:
	.cfi_def_cfa_offset 48
	.cfi_register 65, 0
.LBB2905:
	lis 9,_ZTV8idThread+8@ha
.LBE2905:
	stw 23,12(1)
	mr 23,7
	.cfi_offset 23, -36
	stw 0,52(1)
.LBB3005:
	la 0,_ZTV8idThread+8@l(9)
	.cfi_offset 65, 4
.LBE3005:
	stw 24,16(1)
	mr 24,6
	.cfi_offset 24, -32
	stw 25,20(1)
	mr 25,4
	.cfi_offset 25, -28
	stw 26,24(1)
	mr 26,5
	.cfi_offset 26, -24
	stw 28,32(1)
.LBB3006:
	addi 28,3,16
	.cfi_offset 28, -16
.LBE3006:
	stw 31,44(1)
	mr 31,3
	.cfi_offset 31, -4
.LVL930:
	stw 27,28(1)
	stw 29,36(1)
	stw 30,40(1)
.LBB3007:
	.loc 2 325 0
	stw 0,0(3)
	mr 3,28
.LVL931:
.LEHB30:
	.cfi_offset 30, -8
	.cfi_offset 29, -12
	.cfi_offset 27, -20
	bl _ZN13idInterpreterC1Ev
.LEHE30:
.LVL932:
.LBB2906:
.LBB2907:
.LBB2908:
.LBB2909:
.LBB2910:
.LBB2911:
	.loc 10 197 0 discriminator 1
	li 0,0
.LBE2911:
.LBE2910:
	.loc 10 159 0 discriminator 1
	li 9,16
.LBE2909:
.LBE2908:
	.loc 13 163 0 discriminator 1
	addi 29,31,6992
.LVL933:
.LBB2921:
.LBB2918:
	.loc 10 159 0 discriminator 1
	stw 9,6984(31)
.LVL934:
.LBB2915:
.LBB2912:
	.loc 10 197 0 discriminator 1
	stw 0,6988(31)
.LBE2912:
.LBE2915:
.LBE2918:
.LBE2921:
.LBB2922:
.LBB2923:
	.loc 16 112 0 discriminator 1
	mr 3,29
.LBE2923:
.LBE2922:
.LBB2926:
.LBB2919:
.LBB2916:
.LBB2913:
	.loc 10 198 0 discriminator 1
	stw 0,6976(31)
.LBE2913:
.LBE2916:
.LBE2919:
.LBE2926:
.LBB2927:
.LBB2924:
	.loc 16 112 0 discriminator 1
	li 4,1024
.LBE2924:
.LBE2927:
.LBB2928:
.LBB2920:
.LBB2917:
.LBB2914:
	.loc 10 199 0 discriminator 1
	stw 0,6980(31)
.LBE2914:
.LBE2917:
.LBE2920:
.LBE2928:
.LBB2929:
.LBB2925:
	.loc 16 112 0 discriminator 1
	li 5,1024
.LEHB31:
	bl _ZN11idHashIndex4InitEii
.LEHE31:
.LBE2925:
.LBE2929:
.LBB2930:
.LBB2931:
	.loc 10 319 0
	lwz 27,6988(31)
	.loc 10 317 0
	li 0,16
.LBE2931:
.LBE2930:
.LBE2907:
.LBE2906:
	.loc 2 325 0
	addi 30,31,6976
.LVL935:
.LBB2974:
.LBB2968:
.LBB2946:
.LBB2942:
	.loc 10 317 0
	stw 0,6984(31)
	.loc 10 319 0
	cmpwi 7,27,0
	beq- 7,.L472
	.loc 10 321 0
	lwz 9,6976(31)
	.loc 10 323 0
	lwz 0,6980(31)
	.loc 10 321 0
	addi 3,9,15
.LVL936:
	.loc 10 322 0
	srawi 3,3,4
	addze 3,3
.LVL937:
	slwi 3,3,4
.LVL938:
	.loc 10 323 0
	cmpw 7,3,0
	beq- 7,.L472
.LVL939:
.LBB2932:
.LBB2933:
	.loc 10 375 0
	cmpwi 7,3,0
	ble- 7,.L491
.LVL940:
	.loc 10 387 0
	cmpw 7,9,3
	.loc 10 386 0
	stw 3,6980(31)
	.loc 10 387 0
	bgt- 7,.L492
.L474:
	.loc 10 392 0
	slwi 3,3,3
.LVL941:
.LEHB32:
	bl _Znaj
.LVL942:
	.loc 10 393 0
	lwz 0,6976(31)
	.loc 10 392 0
	stw 3,6988(31)
.LVL943:
	.loc 10 393 0
	cmpwi 7,0,0
	ble- 7,.L475
	.loc 2 325 0
	addi 8,27,-8
.LBE2933:
.LBE2932:
.LBE2942:
.LBE2946:
.LBE2968:
.LBE2974:
.LBE3007:
	.loc 10 393 0
	li 9,0
	b .L476
.LVL944:
.L493:
.LBB3008:
.LBB2975:
.LBB2969:
.LBB2947:
.LBB2943:
.LBB2939:
.LBB2936:
	lwz 3,6988(31)
.LVL945:
.L476:
	.loc 10 394 0
	addi 8,8,8
	slwi 0,9,3
	lwz 10,0(8)
	add 3,3,0
	lwz 11,4(8)
	.loc 10 393 0
	addi 9,9,1
.LVL946:
	.loc 10 394 0
	stw 10,0(3)
	stw 11,4(3)
	.loc 10 393 0
	lwz 0,0(30)
	cmpw 7,9,0
	blt+ 7,.L493
.LVL947:
.L475:
	.loc 10 399 0
	mr 3,27
	bl _ZdaPv
.LVL948:
.L472:
.LBE2936:
.LBE2939:
.LBE2943:
.LBE2947:
.LBB2948:
.LBB2949:
	.loc 16 371 0
	li 0,16
.LBE2949:
.LBE2948:
.LBB2951:
.LBB2952:
	.loc 16 341 0
	mr 3,29
.LBE2952:
.LBE2951:
.LBB2956:
.LBB2950:
	.loc 16 371 0
	stw 0,7008(31)
.LVL949:
.LBE2950:
.LBE2956:
.LBB2957:
.LBB2953:
	.loc 16 341 0
	bl _ZN11idHashIndex4FreeEv
.LEHE32:
	.loc 16 342 0
	li 11,128
.LBE2953:
.LBE2957:
.LBE2969:
.LBE2975:
.LBB2976:
.LBB2977:
.LBB2978:
	.loc 12 356 0
	li 0,0
.LBE2978:
.LBE2977:
.LBE2976:
.LBB2989:
.LBB2970:
.LBB2958:
.LBB2954:
	.loc 16 342 0
	stw 11,6992(31)
	.loc 16 343 0
	li 11,16
.LBE2954:
.LBE2958:
.LBE2970:
.LBE2989:
.LBB2990:
.LBB2984:
.LBB2979:
	.loc 12 358 0
	addi 9,31,7036
.LBE2979:
.LBE2984:
.LBE2990:
.LBB2991:
.LBB2971:
.LBB2959:
.LBB2955:
	.loc 16 343 0
	stw 11,7000(31)
.LVL950:
.LBE2955:
.LBE2959:
.LBE2971:
.LBE2991:
.LBB2992:
.LBB2985:
.LBB2980:
	.loc 12 357 0
	li 11,20
.LBE2980:
.LBE2985:
.LBE2992:
	.loc 2 327 0
	lis 3,.LC147@ha
.LBB2993:
.LBB2986:
.LBB2981:
	.loc 12 356 0
	stw 0,7024(31)
.LBE2981:
.LBE2986:
.LBE2993:
	.loc 2 327 0
	la 3,.LC147@l(3)
.LBB2994:
.LBB2987:
.LBB2982:
	.loc 12 357 0
	stw 11,7032(31)
.LBE2982:
.LBE2987:
.LBE2994:
	.loc 2 327 0
	li 4,7068
.LBB2995:
.LBB2988:
.LBB2983:
	.loc 12 358 0
	stw 9,7028(31)
	addi 29,31,7024
.LVL951:
	.loc 12 359 0
	stb 0,7036(31)
.LEHB33:
.LBE2983:
.LBE2988:
.LBE2995:
	.loc 2 327 0
	crxor 6,6,6
	bl _Z15Sys_DebugPrintfPKcz
	.loc 2 332 0
	mr 3,31
	addi 29,31,7024
	bl _ZN8idThread4InitEv
.LVL952:
.LBB2996:
.LBB2997:
	.loc 2 584 0
	lwz 4,72(26)
	mr 3,29
	bl _ZN5idStraSEPKc
.LVL953:
.LBE2997:
.LBE2996:
	.loc 2 334 0
	mr 3,28
	mr 4,25
	mr 5,24
	mr 6,23
	bl _ZN13idInterpreter10ThreadCallEPS_PK10function_ti
.LBB2998:
.LBB2999:
	.loc 2 335 0
	lis 9,g_debugScript+44@ha
	.loc 11 142 0
	lwz 9,g_debugScript+44@l(9)
.LBE2999:
.LBE2998:
	.loc 2 335 0
	lwz 0,36(9)
	cmpwi 7,0,0
	bne- 7,.L494
.LBE3008:
	.loc 2 338 0
	lwz 0,52(1)
	lwz 23,12(1)
.LVL954:
	mtlr 0
	lwz 24,16(1)
.LVL955:
	lwz 25,20(1)
.LVL956:
	lwz 26,24(1)
.LVL957:
	lwz 27,28(1)
	lwz 28,32(1)
	lwz 29,36(1)
	lwz 30,40(1)
	lwz 31,44(1)
.LVL958:
	addi 1,1,48
	.cfi_remember_state
.LCFI237:
	.cfi_def_cfa_offset 0
	.cfi_restore 31
	.cfi_restore 30
	.cfi_restore 29
	.cfi_restore 28
	.cfi_restore 27
	.cfi_restore 26
	.cfi_restore 25
	.cfi_restore 24
	.cfi_restore 23
	blr
.LVL959:
.L492:
.LCFI238:
	.cfi_restore_state
.LBB3009:
.LBB3000:
.LBB2972:
.LBB2960:
.LBB2944:
.LBB2940:
.LBB2937:
	.loc 10 388 0
	stw 3,6976(31)
	b .L474
.LVL960:
.L494:
.LBE2937:
.LBE2940:
.LBE2944:
.LBE2960:
.LBE2972:
.LBE3000:
	.loc 2 336 0
	lis 3,gameLocal@ha
	lis 4,.LC144@ha
	la 3,gameLocal@l(3)
	lwz 6,7020(31)
	addis 9,3,0x25
	lwz 7,7028(31)
	lwz 5,2004(9)
	la 4,.LC144@l(4)
	crxor 6,6,6
	bl _ZNK11idGameLocal6PrintfEPKcz
.LEHE33:
.LBE3009:
	.loc 2 338 0
	lwz 0,52(1)
	lwz 23,12(1)
.LVL961:
	mtlr 0
	lwz 24,16(1)
.LVL962:
	lwz 25,20(1)
.LVL963:
	lwz 26,24(1)
.LVL964:
	lwz 27,28(1)
	lwz 28,32(1)
	lwz 29,36(1)
.LVL965:
	lwz 30,40(1)
.LVL966:
	lwz 31,44(1)
.LVL967:
	addi 1,1,48
	.cfi_remember_state
	.cfi_restore 23
	.cfi_restore 24
	.cfi_restore 25
	.cfi_restore 26
	.cfi_restore 27
	.cfi_restore 28
	.cfi_restore 29
	.cfi_restore 30
	.cfi_restore 31
.LCFI239:
	.cfi_def_cfa_offset 0
	blr
.LVL968:
.L491:
.LCFI240:
	.cfi_restore_state
.LBB3010:
.LBB3001:
.LBB2973:
.LBB2961:
.LBB2945:
.LBB2941:
.LBB2938:
.LBB2934:
.LBB2935:
	.loc 10 194 0
	mr 3,27
.LVL969:
	bl _ZdaPv
	.loc 10 197 0
	li 0,0
	stw 0,6988(31)
	.loc 10 198 0
	stw 0,6976(31)
	.loc 10 199 0
	stw 0,6980(31)
	b .L472
.LVL970:
.L489:
	mr 28,3
.LVL971:
.LBE2935:
.LBE2934:
.LBE2938:
.LBE2941:
.LBE2945:
.LBE2961:
.LBB2962:
.LBB2963:
.LBB2964:
	.loc 16 130 0
	mr 3,29
	bl _ZN11idHashIndex4FreeEv
	mr 29,28
.LVL972:
.L480:
.LBE2964:
.LBE2963:
.LBE2962:
.LBB2965:
.LBB2966:
.LBB2967:
	.loc 10 181 0
	mr 3,30
	mr 30,29
	bl _ZN6idListI10idKeyValueE5ClearEv
.LVL973:
.L482:
.LBE2967:
.LBE2966:
.LBE2965:
.LBE2973:
.LBE3001:
	.loc 2 325 0
	mr 3,31
	bl _ZN7idClassD2Ev
	mr 3,30
.LEHB34:
	bl _Unwind_Resume
.LEHE34:
.L486:
	mr 30,3
	b .L482
.LVL974:
.L488:
	mr 29,3
.LVL975:
	addi 30,31,6976
	b .L480
.LVL976:
.L487:
	mr 28,3
.LVL977:
.LBB3002:
.LBB3003:
.LBB3004:
	.loc 12 501 0
	mr 3,29
	bl _ZN5idStr8FreeDataEv
.LBE3004:
.LBE3003:
.LBE3002:
	.loc 2 325 0
	mr 3,30
	bl _ZN6idDictD1Ev
	mr 30,28
	b .L482
.LBE3010:
	.cfi_endproc
.LFE2838:
	.section	.gcc_except_table
.LLSDA2838:
	.byte	0xff
	.byte	0xff
	.byte	0x1
	.uleb128 .LLSDACSE2838-.LLSDACSB2838
.LLSDACSB2838:
	.uleb128 .LEHB30-.LFB2838
	.uleb128 .LEHE30-.LEHB30
	.uleb128 .L486-.LFB2838
	.uleb128 0
	.uleb128 .LEHB31-.LFB2838
	.uleb128 .LEHE31-.LEHB31
	.uleb128 .L488-.LFB2838
	.uleb128 0
	.uleb128 .LEHB32-.LFB2838
	.uleb128 .LEHE32-.LEHB32
	.uleb128 .L489-.LFB2838
	.uleb128 0
	.uleb128 .LEHB33-.LFB2838
	.uleb128 .LEHE33-.LEHB33
	.uleb128 .L487-.LFB2838
	.uleb128 0
	.uleb128 .LEHB34-.LFB2838
	.uleb128 .LEHE34-.LEHB34
	.uleb128 0
	.uleb128 0
.LLSDACSE2838:
	.section	".text"
	.size	_ZN8idThreadC2EP13idInterpreterP8idEntityPK10function_ti, .-_ZN8idThreadC2EP13idInterpreterP8idEntityPK10function_ti
	.align 2
	.globl _ZN8idThreadC2EP13idInterpreterPK10function_ti
	.type	_ZN8idThreadC2EP13idInterpreterPK10function_ti, @function
_ZN8idThreadC2EP13idInterpreterPK10function_ti:
.LFB2835:
	.loc 2 308 0
	.cfi_startproc
	.cfi_personality 0,__gxx_personality_v0
	.cfi_lsda 0,.LLSDA2835
.LVL978:
	mflr 0
	stwu 1,-40(1)
.LCFI241:
	.cfi_def_cfa_offset 40
	.cfi_register 65, 0
.LBB3049:
	lis 9,_ZTV8idThread+8@ha
.LBE3049:
	stw 24,8(1)
	mr 24,6
	.cfi_offset 24, -32
	stw 0,44(1)
.LBB3147:
	la 0,_ZTV8idThread+8@l(9)
	.cfi_offset 65, 4
.LBE3147:
	stw 25,12(1)
	mr 25,5
	.cfi_offset 25, -28
	stw 26,16(1)
	mr 26,4
	.cfi_offset 26, -24
	stw 28,24(1)
.LBB3148:
	addi 28,3,16
	.cfi_offset 28, -16
.LBE3148:
	stw 31,36(1)
	mr 31,3
	.cfi_offset 31, -4
.LVL979:
	stw 27,20(1)
	stw 29,28(1)
	stw 30,32(1)
.LBB3149:
	.loc 2 308 0
	stw 0,0(3)
	mr 3,28
.LVL980:
.LEHB35:
	.cfi_offset 30, -8
	.cfi_offset 29, -12
	.cfi_offset 27, -20
	bl _ZN13idInterpreterC1Ev
.LEHE35:
.LVL981:
.LBB3050:
.LBB3051:
.LBB3052:
.LBB3053:
.LBB3054:
.LBB3055:
	.loc 10 197 0 discriminator 1
	li 0,0
.LBE3055:
.LBE3054:
	.loc 10 159 0 discriminator 1
	li 9,16
.LBE3053:
.LBE3052:
	.loc 13 163 0 discriminator 1
	addi 29,31,6992
.LBB3065:
.LBB3062:
	.loc 10 159 0 discriminator 1
	stw 9,6984(31)
.LVL982:
.LBB3059:
.LBB3056:
	.loc 10 197 0 discriminator 1
	stw 0,6988(31)
.LBE3056:
.LBE3059:
.LBE3062:
.LBE3065:
.LBB3066:
.LBB3067:
	.loc 16 112 0 discriminator 1
	mr 3,29
.LBE3067:
.LBE3066:
.LBB3070:
.LBB3063:
.LBB3060:
.LBB3057:
	.loc 10 198 0 discriminator 1
	stw 0,6976(31)
.LBE3057:
.LBE3060:
.LBE3063:
.LBE3070:
.LBB3071:
.LBB3068:
	.loc 16 112 0 discriminator 1
	li 4,1024
.LBE3068:
.LBE3071:
.LBB3072:
.LBB3064:
.LBB3061:
.LBB3058:
	.loc 10 199 0 discriminator 1
	stw 0,6980(31)
.LBE3058:
.LBE3061:
.LBE3064:
.LBE3072:
.LBB3073:
.LBB3069:
	.loc 16 112 0 discriminator 1
	li 5,1024
.LEHB36:
	bl _ZN11idHashIndex4InitEii
.LEHE36:
.LBE3069:
.LBE3073:
.LBB3074:
.LBB3075:
	.loc 10 319 0
	lwz 27,6988(31)
	.loc 10 317 0
	li 0,16
.LBE3075:
.LBE3074:
.LBE3051:
.LBE3050:
	.loc 2 308 0
	addi 30,31,6976
.LVL983:
.LBB3118:
.LBB3112:
.LBB3090:
.LBB3086:
	.loc 10 317 0
	stw 0,6984(31)
	.loc 10 319 0
	cmpwi 7,27,0
	beq- 7,.L496
	.loc 10 321 0
	lwz 9,6976(31)
	.loc 10 323 0
	lwz 0,6980(31)
	.loc 10 321 0
	addi 3,9,15
.LVL984:
	.loc 10 322 0
	srawi 3,3,4
	addze 3,3
.LVL985:
	slwi 3,3,4
.LVL986:
	.loc 10 323 0
	cmpw 7,3,0
	beq- 7,.L496
.LVL987:
.LBB3076:
.LBB3077:
	.loc 10 375 0
	cmpwi 7,3,0
	ble- 7,.L515
.LVL988:
	.loc 10 387 0
	cmpw 7,9,3
	.loc 10 386 0
	stw 3,6980(31)
	.loc 10 387 0
	bgt- 7,.L516
.L498:
	.loc 10 392 0
	slwi 3,3,3
.LVL989:
.LEHB37:
	bl _Znaj
.LVL990:
	.loc 10 393 0
	lwz 0,6976(31)
	.loc 10 392 0
	stw 3,6988(31)
.LVL991:
	.loc 10 393 0
	cmpwi 7,0,0
	ble- 7,.L499
	.loc 2 308 0
	addi 8,27,-8
.LBE3077:
.LBE3076:
.LBE3086:
.LBE3090:
.LBE3112:
.LBE3118:
.LBE3149:
	.loc 10 393 0
	li 9,0
	b .L500
.LVL992:
.L517:
.LBB3150:
.LBB3119:
.LBB3113:
.LBB3091:
.LBB3087:
.LBB3083:
.LBB3080:
	lwz 3,6988(31)
.LVL993:
.L500:
	.loc 10 394 0
	addi 8,8,8
	slwi 0,9,3
	lwz 10,0(8)
	add 3,3,0
	lwz 11,4(8)
	.loc 10 393 0
	addi 9,9,1
.LVL994:
	.loc 10 394 0
	stw 10,0(3)
	stw 11,4(3)
	.loc 10 393 0
	lwz 0,0(30)
	cmpw 7,9,0
	blt+ 7,.L517
.LVL995:
.L499:
	.loc 10 399 0
	mr 3,27
	bl _ZdaPv
.LVL996:
.L496:
.LBE3080:
.LBE3083:
.LBE3087:
.LBE3091:
.LBB3092:
.LBB3093:
	.loc 16 371 0
	li 0,16
.LBE3093:
.LBE3092:
.LBB3095:
.LBB3096:
	.loc 16 341 0
	mr 3,29
.LBE3096:
.LBE3095:
.LBB3100:
.LBB3094:
	.loc 16 371 0
	stw 0,7008(31)
.LVL997:
.LBE3094:
.LBE3100:
.LBB3101:
.LBB3097:
	.loc 16 341 0
	bl _ZN11idHashIndex4FreeEv
.LEHE37:
	.loc 16 342 0
	li 11,128
.LBE3097:
.LBE3101:
.LBE3113:
.LBE3119:
.LBB3120:
.LBB3121:
.LBB3122:
	.loc 12 356 0
	li 0,0
.LBE3122:
.LBE3121:
.LBE3120:
.LBB3133:
.LBB3114:
.LBB3102:
.LBB3098:
	.loc 16 342 0
	stw 11,6992(31)
	.loc 16 343 0
	li 11,16
.LBE3098:
.LBE3102:
.LBE3114:
.LBE3133:
.LBB3134:
.LBB3128:
.LBB3123:
	.loc 12 358 0
	addi 9,31,7036
.LBE3123:
.LBE3128:
.LBE3134:
.LBB3135:
.LBB3115:
.LBB3103:
.LBB3099:
	.loc 16 343 0
	stw 11,7000(31)
.LVL998:
.LBE3099:
.LBE3103:
.LBE3115:
.LBE3135:
.LBB3136:
.LBB3129:
.LBB3124:
	.loc 12 357 0
	li 11,20
.LBE3124:
.LBE3129:
.LBE3136:
	.loc 2 310 0
	lis 3,.LC148@ha
.LBB3137:
.LBB3130:
.LBB3125:
	.loc 12 356 0
	stw 0,7024(31)
.LBE3125:
.LBE3130:
.LBE3137:
	.loc 2 310 0
	la 3,.LC148@l(3)
.LBB3138:
.LBB3131:
.LBB3126:
	.loc 12 357 0
	stw 11,7032(31)
.LBE3126:
.LBE3131:
.LBE3138:
	.loc 2 310 0
	li 4,7068
.LBB3139:
.LBB3132:
.LBB3127:
	.loc 12 358 0
	stw 9,7028(31)
	.loc 12 359 0
	stb 0,7036(31)
.LEHB38:
.LBE3127:
.LBE3132:
.LBE3139:
	.loc 2 310 0
	crxor 6,6,6
	bl _Z15Sys_DebugPrintfPKcz
	.loc 2 313 0
	mr 3,31
	bl _ZN8idThread4InitEv
	.loc 2 314 0
	mr 3,28
	mr 4,26
	mr 5,25
	mr 6,24
	bl _ZN13idInterpreter10ThreadCallEPS_PK10function_ti
.LBB3140:
.LBB3141:
	.loc 2 315 0
	lis 9,g_debugScript+44@ha
	.loc 11 142 0
	lwz 9,g_debugScript+44@l(9)
.LBE3141:
.LBE3140:
	.loc 2 315 0
	lwz 0,36(9)
	cmpwi 7,0,0
	bne- 7,.L518
.LBE3150:
	.loc 2 318 0
	lwz 0,44(1)
	lwz 24,8(1)
.LVL999:
	mtlr 0
	lwz 25,12(1)
.LVL1000:
	lwz 26,16(1)
.LVL1001:
	lwz 27,20(1)
	lwz 28,24(1)
	lwz 29,28(1)
.LVL1002:
	lwz 30,32(1)
	lwz 31,36(1)
.LVL1003:
	addi 1,1,40
	.cfi_remember_state
.LCFI242:
	.cfi_def_cfa_offset 0
	.cfi_restore 31
	.cfi_restore 30
	.cfi_restore 29
	.cfi_restore 28
	.cfi_restore 27
	.cfi_restore 26
	.cfi_restore 25
	.cfi_restore 24
	blr
.LVL1004:
.L516:
.LCFI243:
	.cfi_restore_state
.LBB3151:
.LBB3142:
.LBB3116:
.LBB3104:
.LBB3088:
.LBB3084:
.LBB3081:
	.loc 10 388 0
	stw 3,6976(31)
	b .L498
.LVL1005:
.L518:
.LBE3081:
.LBE3084:
.LBE3088:
.LBE3104:
.LBE3116:
.LBE3142:
	.loc 2 316 0
	lis 3,gameLocal@ha
	lis 4,.LC144@ha
	la 3,gameLocal@l(3)
	lwz 6,7020(31)
	addis 9,3,0x25
	lwz 7,7028(31)
	lwz 5,2004(9)
	la 4,.LC144@l(4)
	crxor 6,6,6
	bl _ZNK11idGameLocal6PrintfEPKcz
.LEHE38:
.LBE3151:
	.loc 2 318 0
	lwz 0,44(1)
	lwz 24,8(1)
.LVL1006:
	mtlr 0
	lwz 25,12(1)
.LVL1007:
	lwz 26,16(1)
.LVL1008:
	lwz 27,20(1)
	lwz 28,24(1)
	lwz 29,28(1)
.LVL1009:
	lwz 30,32(1)
.LVL1010:
	lwz 31,36(1)
.LVL1011:
	addi 1,1,40
	.cfi_remember_state
	.cfi_restore 24
	.cfi_restore 25
	.cfi_restore 26
	.cfi_restore 27
	.cfi_restore 28
	.cfi_restore 29
	.cfi_restore 30
	.cfi_restore 31
.LCFI244:
	.cfi_def_cfa_offset 0
	blr
.LVL1012:
.L515:
.LCFI245:
	.cfi_restore_state
.LBB3152:
.LBB3143:
.LBB3117:
.LBB3105:
.LBB3089:
.LBB3085:
.LBB3082:
.LBB3078:
.LBB3079:
	.loc 10 194 0
	mr 3,27
.LVL1013:
	bl _ZdaPv
	.loc 10 197 0
	li 0,0
	stw 0,6988(31)
	.loc 10 198 0
	stw 0,6976(31)
	.loc 10 199 0
	stw 0,6980(31)
	b .L496
.LVL1014:
.L513:
	mr 28,3
.LVL1015:
.LBE3079:
.LBE3078:
.LBE3082:
.LBE3085:
.LBE3089:
.LBE3105:
.LBB3106:
.LBB3107:
.LBB3108:
	.loc 16 130 0
	mr 3,29
	bl _ZN11idHashIndex4FreeEv
	mr 29,28
.LVL1016:
.L504:
.LBE3108:
.LBE3107:
.LBE3106:
.LBB3109:
.LBB3110:
.LBB3111:
	.loc 10 181 0
	mr 3,30
	mr 30,29
	bl _ZN6idListI10idKeyValueE5ClearEv
.LVL1017:
.L506:
.LBE3111:
.LBE3110:
.LBE3109:
.LBE3117:
.LBE3143:
	.loc 2 308 0
	mr 3,31
	bl _ZN7idClassD2Ev
	mr 3,30
.LEHB39:
	bl _Unwind_Resume
.LEHE39:
.L510:
	mr 30,3
	b .L506
.LVL1018:
.L512:
	mr 29,3
.LVL1019:
	addi 30,31,6976
	b .L504
.LVL1020:
.L511:
	mr 29,3
.LVL1021:
.LBB3144:
.LBB3145:
.LBB3146:
	.loc 12 501 0
	addi 3,31,7024
	bl _ZN5idStr8FreeDataEv
.LBE3146:
.LBE3145:
.LBE3144:
	.loc 2 308 0
	mr 3,30
	bl _ZN6idDictD1Ev
	mr 30,29
	b .L506
.LBE3152:
	.cfi_endproc
.LFE2835:
	.section	.gcc_except_table
.LLSDA2835:
	.byte	0xff
	.byte	0xff
	.byte	0x1
	.uleb128 .LLSDACSE2835-.LLSDACSB2835
.LLSDACSB2835:
	.uleb128 .LEHB35-.LFB2835
	.uleb128 .LEHE35-.LEHB35
	.uleb128 .L510-.LFB2835
	.uleb128 0
	.uleb128 .LEHB36-.LFB2835
	.uleb128 .LEHE36-.LEHB36
	.uleb128 .L512-.LFB2835
	.uleb128 0
	.uleb128 .LEHB37-.LFB2835
	.uleb128 .LEHE37-.LEHB37
	.uleb128 .L513-.LFB2835
	.uleb128 0
	.uleb128 .LEHB38-.LFB2835
	.uleb128 .LEHE38-.LEHB38
	.uleb128 .L511-.LFB2835
	.uleb128 0
	.uleb128 .LEHB39-.LFB2835
	.uleb128 .LEHE39-.LEHB39
	.uleb128 0
	.uleb128 0
.LLSDACSE2835:
	.section	".text"
	.size	_ZN8idThreadC2EP13idInterpreterPK10function_ti, .-_ZN8idThreadC2EP13idInterpreterPK10function_ti
	.align 2
	.globl _ZN8idThreadC2EPK10function_t
	.type	_ZN8idThreadC2EPK10function_t, @function
_ZN8idThreadC2EPK10function_t:
.LFB2832:
	.loc 2 288 0
	.cfi_startproc
	.cfi_personality 0,__gxx_personality_v0
	.cfi_lsda 0,.LLSDA2832
.LVL1022:
	mflr 0
	stwu 1,-32(1)
.LCFI246:
	.cfi_def_cfa_offset 32
	.cfi_register 65, 0
.LBB3193:
	lis 9,_ZTV8idThread+8@ha
.LBE3193:
	stw 27,12(1)
.LBB3293:
	addi 27,3,16
	.cfi_offset 27, -20
.LBE3293:
	stw 0,36(1)
.LBB3294:
	la 0,_ZTV8idThread+8@l(9)
	.cfi_offset 65, 4
.LBE3294:
	stw 28,16(1)
	mr 28,4
	.cfi_offset 28, -16
	stw 31,28(1)
	mr 31,3
	.cfi_offset 31, -4
.LVL1023:
	stw 26,8(1)
	stw 29,20(1)
	stw 30,24(1)
.LBB3295:
	.loc 2 288 0
	stw 0,0(3)
	mr 3,27
.LVL1024:
.LEHB40:
	.cfi_offset 30, -8
	.cfi_offset 29, -12
	.cfi_offset 26, -24
	bl _ZN13idInterpreterC1Ev
.LEHE40:
.LVL1025:
.LBB3194:
.LBB3195:
.LBB3196:
.LBB3197:
.LBB3198:
.LBB3199:
	.loc 10 197 0 discriminator 1
	li 0,0
.LBE3199:
.LBE3198:
	.loc 10 159 0 discriminator 1
	li 9,16
.LBE3197:
.LBE3196:
	.loc 13 163 0 discriminator 1
	addi 29,31,6992
.LVL1026:
.LBB3209:
.LBB3206:
	.loc 10 159 0 discriminator 1
	stw 9,6984(31)
.LVL1027:
.LBB3203:
.LBB3200:
	.loc 10 197 0 discriminator 1
	stw 0,6988(31)
.LBE3200:
.LBE3203:
.LBE3206:
.LBE3209:
.LBB3210:
.LBB3211:
	.loc 16 112 0 discriminator 1
	mr 3,29
.LBE3211:
.LBE3210:
.LBB3214:
.LBB3207:
.LBB3204:
.LBB3201:
	.loc 10 198 0 discriminator 1
	stw 0,6976(31)
.LBE3201:
.LBE3204:
.LBE3207:
.LBE3214:
.LBB3215:
.LBB3212:
	.loc 16 112 0 discriminator 1
	li 4,1024
.LBE3212:
.LBE3215:
.LBB3216:
.LBB3208:
.LBB3205:
.LBB3202:
	.loc 10 199 0 discriminator 1
	stw 0,6980(31)
.LBE3202:
.LBE3205:
.LBE3208:
.LBE3216:
.LBB3217:
.LBB3213:
	.loc 16 112 0 discriminator 1
	li 5,1024
.LEHB41:
	bl _ZN11idHashIndex4InitEii
.LEHE41:
.LBE3213:
.LBE3217:
.LBB3218:
.LBB3219:
	.loc 10 319 0
	lwz 26,6988(31)
	.loc 10 317 0
	li 0,16
.LBE3219:
.LBE3218:
.LBE3195:
.LBE3194:
	.loc 2 288 0
	addi 30,31,6976
.LVL1028:
.LBB3262:
.LBB3256:
.LBB3234:
.LBB3230:
	.loc 10 317 0
	stw 0,6984(31)
	.loc 10 319 0
	cmpwi 7,26,0
	beq- 7,.L520
	.loc 10 321 0
	lwz 9,6976(31)
	.loc 10 323 0
	lwz 0,6980(31)
	.loc 10 321 0
	addi 3,9,15
.LVL1029:
	.loc 10 322 0
	srawi 3,3,4
	addze 3,3
.LVL1030:
	slwi 3,3,4
.LVL1031:
	.loc 10 323 0
	cmpw 7,3,0
	beq- 7,.L520
.LVL1032:
.LBB3220:
.LBB3221:
	.loc 10 375 0
	cmpwi 7,3,0
	ble- 7,.L539
.LVL1033:
	.loc 10 387 0
	cmpw 7,9,3
	.loc 10 386 0
	stw 3,6980(31)
	.loc 10 387 0
	bgt- 7,.L540
.L522:
	.loc 10 392 0
	slwi 3,3,3
.LVL1034:
.LEHB42:
	bl _Znaj
.LVL1035:
	.loc 10 393 0
	lwz 0,6976(31)
	.loc 10 392 0
	stw 3,6988(31)
.LVL1036:
	.loc 10 393 0
	cmpwi 7,0,0
	ble- 7,.L523
	.loc 2 288 0
	addi 8,26,-8
.LBE3221:
.LBE3220:
.LBE3230:
.LBE3234:
.LBE3256:
.LBE3262:
.LBE3295:
	.loc 10 393 0
	li 9,0
	b .L524
.LVL1037:
.L541:
.LBB3296:
.LBB3263:
.LBB3257:
.LBB3235:
.LBB3231:
.LBB3227:
.LBB3224:
	lwz 3,6988(31)
.LVL1038:
.L524:
	.loc 10 394 0
	addi 8,8,8
	slwi 0,9,3
	lwz 10,0(8)
	add 3,3,0
	lwz 11,4(8)
	.loc 10 393 0
	addi 9,9,1
.LVL1039:
	.loc 10 394 0
	stw 10,0(3)
	stw 11,4(3)
	.loc 10 393 0
	lwz 0,0(30)
	cmpw 7,9,0
	blt+ 7,.L541
.LVL1040:
.L523:
	.loc 10 399 0
	mr 3,26
	bl _ZdaPv
.LVL1041:
.L520:
.LBE3224:
.LBE3227:
.LBE3231:
.LBE3235:
.LBB3236:
.LBB3237:
	.loc 16 371 0
	li 0,16
.LBE3237:
.LBE3236:
.LBB3239:
.LBB3240:
	.loc 16 341 0
	mr 3,29
.LBE3240:
.LBE3239:
.LBB3244:
.LBB3238:
	.loc 16 371 0
	stw 0,7008(31)
.LVL1042:
.LBE3238:
.LBE3244:
.LBB3245:
.LBB3241:
	.loc 16 341 0
	bl _ZN11idHashIndex4FreeEv
.LEHE42:
	.loc 16 342 0
	li 11,128
.LBE3241:
.LBE3245:
.LBE3257:
.LBE3263:
.LBB3264:
.LBB3265:
.LBB3266:
	.loc 12 356 0
	li 0,0
.LBE3266:
.LBE3265:
.LBE3264:
.LBB3277:
.LBB3258:
.LBB3246:
.LBB3242:
	.loc 16 342 0
	stw 11,6992(31)
	.loc 16 343 0
	li 11,16
.LBE3242:
.LBE3246:
.LBE3258:
.LBE3277:
.LBB3278:
.LBB3272:
.LBB3267:
	.loc 12 358 0
	addi 9,31,7036
.LBE3267:
.LBE3272:
.LBE3278:
.LBB3279:
.LBB3259:
.LBB3247:
.LBB3243:
	.loc 16 343 0
	stw 11,7000(31)
.LVL1043:
.LBE3243:
.LBE3247:
.LBE3259:
.LBE3279:
.LBB3280:
.LBB3273:
.LBB3268:
	.loc 12 357 0
	li 11,20
.LBE3268:
.LBE3273:
.LBE3280:
	.loc 2 290 0
	lis 3,.LC149@ha
.LBB3281:
.LBB3274:
.LBB3269:
	.loc 12 356 0
	stw 0,7024(31)
.LBE3269:
.LBE3274:
.LBE3281:
	.loc 2 290 0
	la 3,.LC149@l(3)
.LBB3282:
.LBB3275:
.LBB3270:
	.loc 12 357 0
	stw 11,7032(31)
.LBE3270:
.LBE3275:
.LBE3282:
	.loc 2 290 0
	li 4,7068
.LBB3283:
.LBB3276:
.LBB3271:
	.loc 12 358 0
	stw 9,7028(31)
	addi 29,31,7024
.LVL1044:
	.loc 12 359 0
	stb 0,7036(31)
.LEHB43:
.LBE3271:
.LBE3276:
.LBE3283:
	.loc 2 290 0
	crxor 6,6,6
	bl _Z15Sys_DebugPrintfPKcz
	.loc 2 295 0
	mr 3,31
	addi 29,31,7024
	bl _ZN8idThread4InitEv
	.loc 2 296 0
	mr 3,28
	bl _ZNK10function_t4NameEv
	mr 4,3
.LVL1045:
.LBB3284:
.LBB3285:
	.loc 2 584 0
	mr 3,29
.LVL1046:
	bl _ZN5idStraSEPKc
.LVL1047:
.LBE3285:
.LBE3284:
	.loc 2 297 0
	mr 3,27
	mr 4,28
	li 5,0
	bl _ZN13idInterpreter13EnterFunctionEPK10function_tb
.LBB3286:
.LBB3287:
	.loc 2 298 0
	lis 9,g_debugScript+44@ha
	.loc 11 142 0
	lwz 9,g_debugScript+44@l(9)
.LBE3287:
.LBE3286:
	.loc 2 298 0
	lwz 0,36(9)
	cmpwi 7,0,0
	bne- 7,.L542
.LBE3296:
	.loc 2 301 0
	lwz 0,36(1)
	lwz 26,8(1)
	mtlr 0
	lwz 27,12(1)
	lwz 28,16(1)
.LVL1048:
	lwz 29,20(1)
	lwz 30,24(1)
	lwz 31,28(1)
.LVL1049:
	addi 1,1,32
	.cfi_remember_state
.LCFI247:
	.cfi_def_cfa_offset 0
	.cfi_restore 31
	.cfi_restore 30
	.cfi_restore 29
	.cfi_restore 28
	.cfi_restore 27
	.cfi_restore 26
	blr
.LVL1050:
.L540:
.LCFI248:
	.cfi_restore_state
.LBB3297:
.LBB3288:
.LBB3260:
.LBB3248:
.LBB3232:
.LBB3228:
.LBB3225:
	.loc 10 388 0
	stw 3,6976(31)
	b .L522
.LVL1051:
.L542:
.LBE3225:
.LBE3228:
.LBE3232:
.LBE3248:
.LBE3260:
.LBE3288:
	.loc 2 299 0
	lis 3,gameLocal@ha
	lis 4,.LC144@ha
	la 3,gameLocal@l(3)
	lwz 6,7020(31)
	addis 9,3,0x25
	lwz 7,7028(31)
	lwz 5,2004(9)
	la 4,.LC144@l(4)
	crxor 6,6,6
	bl _ZNK11idGameLocal6PrintfEPKcz
.LEHE43:
.LBE3297:
	.loc 2 301 0
	lwz 0,36(1)
	lwz 26,8(1)
	mtlr 0
	lwz 27,12(1)
	lwz 28,16(1)
.LVL1052:
	lwz 29,20(1)
.LVL1053:
	lwz 30,24(1)
.LVL1054:
	lwz 31,28(1)
.LVL1055:
	addi 1,1,32
	.cfi_remember_state
	.cfi_restore 26
	.cfi_restore 27
	.cfi_restore 28
	.cfi_restore 29
	.cfi_restore 30
	.cfi_restore 31
.LCFI249:
	.cfi_def_cfa_offset 0
	blr
.LVL1056:
.L539:
.LCFI250:
	.cfi_restore_state
.LBB3298:
.LBB3289:
.LBB3261:
.LBB3249:
.LBB3233:
.LBB3229:
.LBB3226:
.LBB3222:
.LBB3223:
	.loc 10 194 0
	mr 3,26
.LVL1057:
	bl _ZdaPv
	.loc 10 197 0
	li 0,0
	stw 0,6988(31)
	.loc 10 198 0
	stw 0,6976(31)
	.loc 10 199 0
	stw 0,6980(31)
	b .L520
.LVL1058:
.L537:
	mr 28,3
.LVL1059:
.LBE3223:
.LBE3222:
.LBE3226:
.LBE3229:
.LBE3233:
.LBE3249:
.LBB3250:
.LBB3251:
.LBB3252:
	.loc 16 130 0
	mr 3,29
	bl _ZN11idHashIndex4FreeEv
	mr 29,28
.LVL1060:
.L528:
.LBE3252:
.LBE3251:
.LBE3250:
.LBB3253:
.LBB3254:
.LBB3255:
	.loc 10 181 0
	mr 3,30
	mr 30,29
	bl _ZN6idListI10idKeyValueE5ClearEv
.LVL1061:
.L530:
.LBE3255:
.LBE3254:
.LBE3253:
.LBE3261:
.LBE3289:
	.loc 2 288 0
	mr 3,31
	bl _ZN7idClassD2Ev
	mr 3,30
.LEHB44:
	bl _Unwind_Resume
.LEHE44:
.LVL1062:
.L534:
	mr 30,3
	b .L530
.LVL1063:
.L536:
	mr 29,3
.LVL1064:
	addi 30,31,6976
	b .L528
.LVL1065:
.L535:
	mr 28,3
.LVL1066:
.LBB3290:
.LBB3291:
.LBB3292:
	.loc 12 501 0
	mr 3,29
	bl _ZN5idStr8FreeDataEv
.LBE3292:
.LBE3291:
.LBE3290:
	.loc 2 288 0
	mr 3,30
	bl _ZN6idDictD1Ev
	mr 30,28
	b .L530
.LBE3298:
	.cfi_endproc
.LFE2832:
	.section	.gcc_except_table
.LLSDA2832:
	.byte	0xff
	.byte	0xff
	.byte	0x1
	.uleb128 .LLSDACSE2832-.LLSDACSB2832
.LLSDACSB2832:
	.uleb128 .LEHB40-.LFB2832
	.uleb128 .LEHE40-.LEHB40
	.uleb128 .L534-.LFB2832
	.uleb128 0
	.uleb128 .LEHB41-.LFB2832
	.uleb128 .LEHE41-.LEHB41
	.uleb128 .L536-.LFB2832
	.uleb128 0
	.uleb128 .LEHB42-.LFB2832
	.uleb128 .LEHE42-.LEHB42
	.uleb128 .L537-.LFB2832
	.uleb128 0
	.uleb128 .LEHB43-.LFB2832
	.uleb128 .LEHE43-.LEHB43
	.uleb128 .L535-.LFB2832
	.uleb128 0
	.uleb128 .LEHB44-.LFB2832
	.uleb128 .LEHE44-.LEHB44
	.uleb128 0
	.uleb128 0
.LLSDACSE2832:
	.section	".text"
	.size	_ZN8idThreadC2EPK10function_t, .-_ZN8idThreadC2EPK10function_t
	.section	.text.startup,"ax",@progbits
	.align 2
	.type	_GLOBAL__sub_I_EV_Thread_Execute, @function
_GLOBAL__sub_I_EV_Thread_Execute:
.LFB3252:
	.loc 2 1863 0
	.cfi_startproc
	.loc 2 1863 0
	li 3,1
	b _Z41__static_initialization_and_destruction_0ii.constprop.41
	.cfi_endproc
.LFE3252:
	.size	_GLOBAL__sub_I_EV_Thread_Execute, .-_GLOBAL__sub_I_EV_Thread_Execute
	.section	.ctors,"aw",@progbits
	.align 2
	.long	_GLOBAL__sub_I_EV_Thread_Execute
	.section	.text.exit,"ax",@progbits
	.align 2
	.type	_GLOBAL__sub_D_EV_Thread_Execute, @function
_GLOBAL__sub_D_EV_Thread_Execute:
.LFB3253:
	.loc 2 1863 0
	.cfi_startproc
	.loc 2 1863 0
	li 3,0
	b _Z41__static_initialization_and_destruction_0ii.constprop.41
	.cfi_endproc
.LFE3253:
	.size	_GLOBAL__sub_D_EV_Thread_Execute, .-_GLOBAL__sub_D_EV_Thread_Execute
	.section	.dtors,"aw",@progbits
	.align 2
	.long	_GLOBAL__sub_D_EV_Thread_Execute
	.weak	_ZTS9idWinding
	.section	.rodata._ZTS9idWinding,"aG",@progbits,_ZTS9idWinding,comdat
	.align 2
	.type	_ZTS9idWinding, @object
	.size	_ZTS9idWinding, 11
_ZTS9idWinding:
	.string	"9idWinding"
	.weak	_ZTI9idWinding
	.section	.sdata._ZTI9idWinding,"awG",@progbits,_ZTI9idWinding,comdat
	.align 2
	.type	_ZTI9idWinding, @object
	.size	_ZTI9idWinding, 8
_ZTI9idWinding:
	.long	_ZTVN10__cxxabiv117__class_type_infoE+8
	.long	_ZTS9idWinding
	.weak	_ZTS14idFixedWinding
	.section	.rodata._ZTS14idFixedWinding,"aG",@progbits,_ZTS14idFixedWinding,comdat
	.align 2
	.type	_ZTS14idFixedWinding, @object
	.size	_ZTS14idFixedWinding, 17
_ZTS14idFixedWinding:
	.string	"14idFixedWinding"
	.weak	_ZTI14idFixedWinding
	.section	.rodata._ZTI14idFixedWinding,"aG",@progbits,_ZTI14idFixedWinding,comdat
	.align 2
	.type	_ZTI14idFixedWinding, @object
	.size	_ZTI14idFixedWinding, 12
_ZTI14idFixedWinding:
	.long	_ZTVN10__cxxabiv120__si_class_type_infoE+8
	.long	_ZTS14idFixedWinding
	.long	_ZTI9idWinding
	.weak	_ZTS8idThread
	.section	.rodata._ZTS8idThread,"aG",@progbits,_ZTS8idThread,comdat
	.align 2
	.type	_ZTS8idThread, @object
	.size	_ZTS8idThread, 10
_ZTS8idThread:
	.string	"8idThread"
	.weak	_ZTI8idThread
	.section	.rodata._ZTI8idThread,"aG",@progbits,_ZTI8idThread,comdat
	.align 2
	.type	_ZTI8idThread, @object
	.size	_ZTI8idThread, 12
_ZTI8idThread:
	.long	_ZTVN10__cxxabiv120__si_class_type_infoE+8
	.long	_ZTS8idThread
	.long	_ZTI7idClass
	.weak	_ZTV9idWinding
	.section	.rodata._ZTV9idWinding,"aG",@progbits,_ZTV9idWinding,comdat
	.align 3
	.type	_ZTV9idWinding, @object
	.size	_ZTV9idWinding, 24
_ZTV9idWinding:
	.long	0
	.long	_ZTI9idWinding
	.long	_ZN9idWindingD1Ev
	.long	_ZN9idWindingD0Ev
	.long	_ZN9idWinding5ClearEv
	.long	_ZN9idWinding10ReAllocateEib
	.weak	_ZTV14idFixedWinding
	.section	.rodata._ZTV14idFixedWinding,"aG",@progbits,_ZTV14idFixedWinding,comdat
	.align 3
	.type	_ZTV14idFixedWinding, @object
	.size	_ZTV14idFixedWinding, 24
_ZTV14idFixedWinding:
	.long	0
	.long	_ZTI14idFixedWinding
	.long	_ZN14idFixedWindingD1Ev
	.long	_ZN14idFixedWindingD0Ev
	.long	_ZN14idFixedWinding5ClearEv
	.long	_ZN14idFixedWinding10ReAllocateEib
	.weak	_ZTV8idThread
	.section	.rodata._ZTV8idThread,"aG",@progbits,_ZTV8idThread,comdat
	.align 3
	.type	_ZTV8idThread, @object
	.size	_ZTV8idThread, 20
_ZTV8idThread:
	.long	0
	.long	_ZTI8idThread
	.long	_ZNK8idThread7GetTypeEv
	.long	_ZN8idThreadD1Ev
	.long	_ZN8idThreadD0Ev
	.globl _ZN8idThread5traceE
	.globl _ZN8idThread10threadListE
	.globl _ZN8idThread11threadIndexE
	.globl _ZN8idThread13currentThreadE
	.globl _ZN8idThread14eventCallbacksE
	.globl _ZN8idThread4TypeE
	.globl EV_Thread_FadeTo
	.globl EV_Thread_FadeOut
	.globl EV_Thread_FadeIn
	.globl EV_Thread_FirstPerson
	.globl EV_Thread_SetCamera
	.globl EV_Thread_ClearSignal
	.globl EV_Thread_OnSignal
	.globl EV_Thread_VecCrossProduct
	.globl EV_Thread_VecDotProduct
	.globl EV_Thread_VecLength
	.globl EV_Thread_Normalize
	.globl EV_Thread_Cosine
	.globl EV_Thread_Sine
	.globl EV_Thread_AngToUp
	.globl EV_Thread_AngToRight
	.globl EV_Thread_AngToForward
	.globl EV_Thread_SpawnVector
	.globl EV_Thread_SpawnFloat
	.globl EV_Thread_SpawnString
	.globl EV_Thread_SetSpawnArg
	.globl EV_Thread_Spawn
	.globl EV_Thread_GetEntity
	.globl EV_Thread_SetThreadName
	.globl EV_Thread_KillThread
	.globl EV_Thread_GetTime
	.globl EV_Thread_Random
	.globl EV_Thread_GetCvar
	.globl EV_Thread_SetCvar
	.globl EV_Thread_Trigger
	.globl EV_Thread_Assert
	.globl EV_Thread_Say
	.globl EV_Thread_PrintLn
	.globl EV_Thread_Print
	.globl EV_Thread_WaitForThread
	.globl EV_Thread_WaitFor
	.globl EV_Thread_WaitFrame
	.globl EV_Thread_Wait
	.globl EV_Thread_Pause
	.globl EV_Thread_TerminateThread
	.globl EV_Thread_SetCallback
	.globl EV_Thread_Execute
	.weak	_ZTI12idAllocError
	.section	.rodata._ZTI12idAllocError,"aG",@progbits,_ZTI12idAllocError,comdat
	.align 2
	.type	_ZTI12idAllocError, @object
	.size	_ZTI12idAllocError, 12
_ZTI12idAllocError:
	.long	_ZTVN10__cxxabiv120__si_class_type_infoE+8
	.long	_ZTS12idAllocError
	.long	_ZTI11idException
	.weak	_ZTS12idAllocError
	.section	.rodata._ZTS12idAllocError,"aG",@progbits,_ZTS12idAllocError,comdat
	.align 2
	.type	_ZTS12idAllocError, @object
	.size	_ZTS12idAllocError, 15
_ZTS12idAllocError:
	.string	"12idAllocError"
	.weak	_ZTI11idException
	.section	.sdata._ZTI11idException,"awG",@progbits,_ZTI11idException,comdat
	.align 2
	.type	_ZTI11idException, @object
	.size	_ZTI11idException, 8
_ZTI11idException:
	.long	_ZTVN10__cxxabiv117__class_type_infoE+8
	.long	_ZTS11idException
	.weak	_ZTS11idException
	.section	.rodata._ZTS11idException,"aG",@progbits,_ZTS11idException,comdat
	.align 2
	.type	_ZTS11idException, @object
	.size	_ZTS11idException, 14
_ZTS11idException:
	.string	"11idException"
	.weak	_ZN9idWindingD1Ev
	.set	_ZN9idWindingD1Ev,_ZN9idWindingD2Ev
	.weak	_ZN14idFixedWindingD1Ev
	.set	_ZN14idFixedWindingD1Ev,_ZN14idFixedWindingD2Ev
	.weak	_ZN6idDictD1Ev
	.set	_ZN6idDictD1Ev,_ZN6idDictD2Ev
	.globl _ZN8idThreadC1Ev
	.set	_ZN8idThreadC1Ev,_ZN8idThreadC2Ev
	.globl _ZN8idThreadD1Ev
	.set	_ZN8idThreadD1Ev,_ZN8idThreadD2Ev
	.globl _ZN8idThreadC1EP8idEntityPK10function_t
	.set	_ZN8idThreadC1EP8idEntityPK10function_t,_ZN8idThreadC2EP8idEntityPK10function_t
	.globl _ZN8idThreadC1EP13idInterpreterP8idEntityPK10function_ti
	.set	_ZN8idThreadC1EP13idInterpreterP8idEntityPK10function_ti,_ZN8idThreadC2EP13idInterpreterP8idEntityPK10function_ti
	.globl _ZN8idThreadC1EP13idInterpreterPK10function_ti
	.set	_ZN8idThreadC1EP13idInterpreterPK10function_ti,_ZN8idThreadC2EP13idInterpreterPK10function_ti
	.globl _ZN8idThreadC1EPK10function_t
	.set	_ZN8idThreadC1EPK10function_t,_ZN8idThreadC2EPK10function_t
	.section	.rodata.cst4,"aM",@progbits,4
	.align 2
.LC1:
	.4byte	1501560836
.LC2:
	.4byte	939524096
.LC3:
	.4byte	1056964608
.LC5:
	.4byte	1069547520
.LC7:
	.4byte	1501560832
.LC8:
	.4byte	1098907648
.LC9:
	.4byte	1114636288
.LC10:
	.4byte	1065353216
.LC40:
	.4byte	-997900288
	.section	".data"
	.align 2
	.set	.LANCHOR1,. + 0
	.type	_ZN8idThread14eventCallbacksE, @object
	.size	_ZN8idThread14eventCallbacksE, 948
_ZN8idThread14eventCallbacksE:
	.long	EV_Thread_Execute
	.long	_ZN8idThread13Event_ExecuteEv
	.long	0
	.long	EV_Thread_TerminateThread
	.long	_ZN8idThread21Event_TerminateThreadEi
	.long	0
	.long	EV_Thread_Pause
	.long	_ZN8idThread11Event_PauseEv
	.long	0
	.long	EV_Thread_Wait
	.long	_ZN8idThread10Event_WaitEf
	.long	0
	.long	EV_Thread_WaitFrame
	.long	_ZN8idThread15Event_WaitFrameEv
	.long	0
	.long	EV_Thread_WaitFor
	.long	_ZN8idThread13Event_WaitForEP8idEntity
	.long	0
	.long	EV_Thread_WaitForThread
	.long	_ZN8idThread19Event_WaitForThreadEi
	.long	0
	.long	EV_Thread_Print
	.long	_ZN8idThread11Event_PrintEPKc
	.long	0
	.long	EV_Thread_PrintLn
	.long	_ZN8idThread13Event_PrintLnEPKc
	.long	0
	.long	EV_Thread_Say
	.long	_ZN8idThread9Event_SayEPKc
	.long	0
	.long	EV_Thread_Assert
	.long	_ZN8idThread12Event_AssertEf
	.long	0
	.long	EV_Thread_Trigger
	.long	_ZN8idThread13Event_TriggerEP8idEntity
	.long	0
	.long	EV_Thread_SetCvar
	.long	_ZNK8idThread13Event_SetCvarEPKcS1_
	.long	0
	.long	EV_Thread_GetCvar
	.long	_ZNK8idThread13Event_GetCvarEPKc
	.long	0
	.long	EV_Thread_Random
	.long	_ZNK8idThread12Event_RandomEf
	.long	0
	.long	EV_Thread_GetTime
	.long	_ZN8idThread13Event_GetTimeEv
	.long	0
	.long	EV_Thread_KillThread
	.long	_ZN8idThread16Event_KillThreadEPKc
	.long	0
	.long	EV_Thread_SetThreadName
	.long	_ZN8idThread19Event_SetThreadNameEPKc
	.long	0
	.long	EV_Thread_GetEntity
	.long	_ZN8idThread15Event_GetEntityEPKc
	.long	0
	.long	EV_Thread_Spawn
	.long	_ZN8idThread11Event_SpawnEPKc
	.long	0
	.long	_ZL23EV_Thread_CopySpawnArgs
	.long	_ZN8idThread19Event_CopySpawnArgsEP8idEntity
	.long	0
	.long	EV_Thread_SetSpawnArg
	.long	_ZN8idThread17Event_SetSpawnArgEPKcS1_
	.long	0
	.long	EV_Thread_SpawnString
	.long	_ZN8idThread17Event_SpawnStringEPKcS1_
	.long	0
	.long	EV_Thread_SpawnFloat
	.long	_ZN8idThread16Event_SpawnFloatEPKcf
	.long	0
	.long	EV_Thread_SpawnVector
	.long	_ZN8idThread17Event_SpawnVectorEPKcR6idVec3
	.long	0
	.long	_ZL29EV_Thread_ClearPersistantArgs
	.long	_ZN8idThread25Event_ClearPersistantArgsEv
	.long	0
	.long	_ZL26EV_Thread_SetPersistantArg
	.long	_ZN8idThread22Event_SetPersistantArgEPKcS1_
	.long	0
	.long	_ZL29EV_Thread_GetPersistantString
	.long	_ZN8idThread25Event_GetPersistantStringEPKc
	.long	0
	.long	_ZL28EV_Thread_GetPersistantFloat
	.long	_ZN8idThread24Event_GetPersistantFloatEPKc
	.long	0
	.long	_ZL29EV_Thread_GetPersistantVector
	.long	_ZN8idThread25Event_GetPersistantVectorEPKc
	.long	0
	.long	EV_Thread_AngToForward
	.long	_ZN8idThread18Event_AngToForwardER8idAngles
	.long	0
	.long	EV_Thread_AngToRight
	.long	_ZN8idThread16Event_AngToRightER8idAngles
	.long	0
	.long	EV_Thread_AngToUp
	.long	_ZN8idThread13Event_AngToUpER8idAngles
	.long	0
	.long	EV_Thread_Sine
	.long	_ZN8idThread13Event_GetSineEf
	.long	0
	.long	EV_Thread_Cosine
	.long	_ZN8idThread15Event_GetCosineEf
	.long	0
	.long	_ZL20EV_Thread_SquareRoot
	.long	_ZN8idThread19Event_GetSquareRootEf
	.long	0
	.long	EV_Thread_Normalize
	.long	_ZN8idThread18Event_VecNormalizeER6idVec3
	.long	0
	.long	EV_Thread_VecLength
	.long	_ZN8idThread15Event_VecLengthER6idVec3
	.long	0
	.long	EV_Thread_VecDotProduct
	.long	_ZN8idThread19Event_VecDotProductER6idVec3S1_
	.long	0
	.long	EV_Thread_VecCrossProduct
	.long	_ZN8idThread21Event_VecCrossProductER6idVec3S1_
	.long	0
	.long	_ZL21EV_Thread_VecToAngles
	.long	_ZN8idThread17Event_VecToAnglesER6idVec3
	.long	0
	.long	EV_Thread_OnSignal
	.long	_ZN8idThread14Event_OnSignalEiP8idEntityPKc
	.long	0
	.long	EV_Thread_ClearSignal
	.long	_ZN8idThread23Event_ClearSignalThreadEiP8idEntity
	.long	0
	.long	EV_Thread_SetCamera
	.long	_ZN8idThread15Event_SetCameraEP8idEntity
	.long	0
	.long	EV_Thread_FirstPerson
	.long	_ZN8idThread17Event_FirstPersonEv
	.long	0
	.long	_ZL15EV_Thread_Trace
	.long	_ZN8idThread11Event_TraceERK6idVec3S2_S2_S2_iP8idEntity
	.long	0
	.long	_ZL20EV_Thread_TracePoint
	.long	_ZN8idThread16Event_TracePointERK6idVec3S2_iP8idEntity
	.long	0
	.long	_ZL26EV_Thread_GetTraceFraction
	.long	_ZN8idThread22Event_GetTraceFractionEv
	.long	0
	.long	_ZL24EV_Thread_GetTraceEndPos
	.long	_ZN8idThread20Event_GetTraceEndPosEv
	.long	0
	.long	_ZL24EV_Thread_GetTraceNormal
	.long	_ZN8idThread20Event_GetTraceNormalEv
	.long	0
	.long	_ZL24EV_Thread_GetTraceEntity
	.long	_ZN8idThread20Event_GetTraceEntityEv
	.long	0
	.long	_ZL23EV_Thread_GetTraceJoint
	.long	_ZN8idThread19Event_GetTraceJointEv
	.long	0
	.long	_ZL22EV_Thread_GetTraceBody
	.long	_ZN8idThread18Event_GetTraceBodyEv
	.long	0
	.long	EV_Thread_FadeIn
	.long	_ZN8idThread12Event_FadeInER6idVec3f
	.long	0
	.long	EV_Thread_FadeOut
	.long	_ZN8idThread13Event_FadeOutER6idVec3f
	.long	0
	.long	EV_Thread_FadeTo
	.long	_ZN8idThread12Event_FadeToER6idVec3ff
	.long	0
	.long	EV_SetShaderParm
	.long	_ZN8idThread19Event_SetShaderParmEif
	.long	0
	.long	_ZL20EV_Thread_StartMusic
	.long	_ZN8idThread16Event_StartMusicEPKc
	.long	0
	.long	_ZL17EV_Thread_Warning
	.long	_ZN8idThread13Event_WarningEPKc
	.long	0
	.long	_ZL15EV_Thread_Error
	.long	_ZN8idThread11Event_ErrorEPKc
	.long	0
	.long	_ZL16EV_Thread_StrLen
	.long	_ZN8idThread12Event_StrLenEPKc
	.long	0
	.long	_ZL17EV_Thread_StrLeft
	.long	_ZN8idThread13Event_StrLeftEPKci
	.long	0
	.long	_ZL18EV_Thread_StrRight
	.long	_ZN8idThread14Event_StrRightEPKci
	.long	0
	.long	_ZL17EV_Thread_StrSkip
	.long	_ZN8idThread13Event_StrSkipEPKci
	.long	0
	.long	_ZL16EV_Thread_StrMid
	.long	_ZN8idThread12Event_StrMidEPKcii
	.long	0
	.long	_ZL20EV_Thread_StrToFloat
	.long	_ZN8idThread16Event_StrToFloatEPKc
	.long	0
	.long	_ZL22EV_Thread_RadiusDamage
	.long	_ZN8idThread18Event_RadiusDamageERK6idVec3P8idEntityS4_S4_PKcf
	.long	0
	.long	_ZL18EV_Thread_IsClient
	.long	_ZN8idThread14Event_IsClientEv
	.long	0
	.long	_ZL23EV_Thread_IsMultiplayer
	.long	_ZN8idThread19Event_IsMultiplayerEv
	.long	0
	.long	_ZL22EV_Thread_GetFrameTime
	.long	_ZN8idThread18Event_GetFrameTimeEv
	.long	0
	.long	_ZL26EV_Thread_GetTicsPerSecond
	.long	_ZN8idThread22Event_GetTicsPerSecondEv
	.long	0
	.long	EV_CacheSoundShader
	.long	_ZN8idThread22Event_CacheSoundShaderEPKc
	.long	0
	.long	_ZL19EV_Thread_DebugLine
	.long	_ZN8idThread15Event_DebugLineERK6idVec3S2_S2_f
	.long	0
	.long	_ZL20EV_Thread_DebugArrow
	.long	_ZN8idThread16Event_DebugArrowERK6idVec3S2_S2_if
	.long	0
	.long	_ZL21EV_Thread_DebugCircle
	.long	_ZN8idThread17Event_DebugCircleERK6idVec3S2_S2_fif
	.long	0
	.long	_ZL21EV_Thread_DebugBounds
	.long	_ZN8idThread17Event_DebugBoundsERK6idVec3S2_S2_f
	.long	0
	.long	_ZL18EV_Thread_DrawText
	.long	_ZN8idThread14Event_DrawTextEPKcRK6idVec3fS4_if
	.long	0
	.long	_ZL25EV_Thread_InfluenceActive
	.long	_ZN8idThread21Event_InfluenceActiveEv
	.long	0
	.long	0
	.long	0
	.long	0
	.section	.rodata.str1.4,"aMS",@progbits,1
	.align 2
.LC11:
	.string	"0 0 0"
	.zero	2
.LC12:
	.string	"0"
	.zero	2
.LC13:
	.string	"say \"%s\""
	.zero	3
.LC14:
	.string	"%f"
	.zero	1
.LC15:
	.string	"%f %f %f"
	.zero	3
.LC16:
	.string	"%s\n"
.LC17:
	.string	"%s"
	.zero	1
.LC18:
	.string	"idThread::BeginMultiFrameEvent called without a current thread"
	.zero	1
.LC19:
	.string	"idThread::EndMultiFrameEvent called without a current thread"
	.zero	3
.LC20:
	.string	"%12i: '%s'\n        File: %s(%d)\n     Created: %d (%d ms ago)\n      Status: "
.LC21:
	.string	"Dying\n"
	.zero	1
.LC22:
	.string	"Paused since %d (%d ms)\n      Reason: "
	.zero	1
.LC23:
	.string	"Waiting for thread #%3i '%s'\n"
	.zero	2
.LC24:
	.string	"Waiting for entity #%3i '%s'\n"
	.zero	2
.LC25:
	.string	"Waiting until %d (%d ms total wait time)\n"
	.zero	2
.LC26:
	.string	"None\n"
	.zero	2
.LC27:
	.string	"Processing\n"
.LC28:
	.string	"\n"
	.zero	2
.LC29:
	.string	"%3i: %-20s : %s(%d)\n"
	.zero	3
.LC30:
	.string	"%d active threads\n\n"
.LC31:
	.string	"shader parm index (%d) out of range"
.LC32:
	.string	"Entity not found"
	.zero	3
.LC33:
	.string	"Entity is not a camera"
	.zero	1
.LC34:
	.string	"Signal out of range"
.LC35:
	.string	"Function '%s' not found"
.LC36:
	.string	"Thread %d not running"
	.zero	2
.LC37:
	.string	""
	.zero	3
.LC38:
	.string	"classname"
	.zero	2
.LC39:
	.string	"Entity number in string out of range."
	.zero	2
.LC41:
	.string	"<execute>"
	.zero	2
.LC42:
	.string	"<script_setcallback>"
	.zero	3
.LC43:
	.string	"terminate"
	.zero	2
.LC44:
	.string	"d"
	.zero	2
.LC45:
	.string	"pause"
	.zero	2
.LC46:
	.string	"wait"
	.zero	3
.LC47:
	.string	"f"
	.zero	2
.LC48:
	.string	"waitFrame"
	.zero	2
.LC49:
	.string	"waitFor"
.LC50:
	.string	"e"
	.zero	2
.LC51:
	.string	"waitForThread"
	.zero	2
.LC52:
	.string	"print"
	.zero	2
.LC53:
	.string	"s"
	.zero	2
.LC54:
	.string	"println"
.LC55:
	.string	"say"
.LC56:
	.string	"assert"
	.zero	1
.LC57:
	.string	"trigger"
.LC58:
	.string	"setcvar"
.LC59:
	.string	"ss"
	.zero	1
.LC60:
	.string	"getcvar"
.LC61:
	.string	"random"
	.zero	1
.LC62:
	.string	"getTime"
.LC63:
	.string	"killthread"
	.zero	1
.LC64:
	.string	"threadname"
	.zero	1
.LC65:
	.string	"getEntity"
	.zero	2
.LC66:
	.string	"spawn"
	.zero	2
.LC67:
	.string	"copySpawnArgs"
	.zero	2
.LC68:
	.string	"setSpawnArg"
.LC69:
	.string	"SpawnString"
.LC70:
	.string	"SpawnFloat"
	.zero	1
.LC71:
	.string	"sf"
	.zero	1
.LC72:
	.string	"SpawnVector"
.LC73:
	.string	"sv"
	.zero	1
.LC74:
	.string	"clearPersistantArgs"
.LC75:
	.string	"setPersistantArg"
	.zero	3
.LC76:
	.string	"getPersistantString"
.LC77:
	.string	"getPersistantFloat"
	.zero	1
.LC78:
	.string	"getPersistantVector"
.LC79:
	.string	"angToForward"
	.zero	3
.LC80:
	.string	"v"
	.zero	2
.LC81:
	.string	"angToRight"
	.zero	1
.LC82:
	.string	"angToUp"
.LC83:
	.string	"sin"
.LC84:
	.string	"cos"
.LC85:
	.string	"sqrt"
	.zero	3
.LC86:
	.string	"vecNormalize"
	.zero	3
.LC87:
	.string	"vecLength"
	.zero	2
.LC88:
	.string	"DotProduct"
	.zero	1
.LC89:
	.string	"vv"
	.zero	1
.LC90:
	.string	"CrossProduct"
	.zero	3
.LC91:
	.string	"VecToAngles"
.LC92:
	.string	"onSignal"
	.zero	3
.LC93:
	.string	"des"
.LC94:
	.string	"clearSignalThread"
	.zero	2
.LC95:
	.string	"de"
	.zero	1
.LC96:
	.string	"setCamera"
	.zero	2
.LC97:
	.string	"firstPerson"
.LC98:
	.string	"trace"
	.zero	2
.LC99:
	.string	"vvvvde"
	.zero	1
.LC100:
	.string	"tracePoint"
	.zero	1
.LC101:
	.string	"vvde"
	.zero	3
.LC102:
	.string	"getTraceFraction"
	.zero	3
.LC103:
	.string	"getTraceEndPos"
	.zero	1
.LC104:
	.string	"getTraceNormal"
	.zero	1
.LC105:
	.string	"getTraceEntity"
	.zero	1
.LC106:
	.string	"getTraceJoint"
	.zero	2
.LC107:
	.string	"getTraceBody"
	.zero	3
.LC108:
	.string	"fadeIn"
	.zero	1
.LC109:
	.string	"vf"
	.zero	1
.LC110:
	.string	"fadeOut"
.LC111:
	.string	"fadeTo"
	.zero	1
.LC112:
	.string	"vff"
.LC113:
	.string	"music"
	.zero	2
.LC114:
	.string	"error"
	.zero	2
.LC115:
	.string	"warning"
.LC116:
	.string	"strLength"
	.zero	2
.LC117:
	.string	"strLeft"
.LC118:
	.string	"sd"
	.zero	1
.LC119:
	.string	"strRight"
	.zero	3
.LC120:
	.string	"strSkip"
.LC121:
	.string	"strMid"
	.zero	1
.LC122:
	.string	"sdd"
.LC123:
	.string	"strToFloat"
	.zero	1
.LC124:
	.string	"radiusDamage"
	.zero	3
.LC125:
	.string	"vEEEsf"
	.zero	1
.LC126:
	.string	"isClient"
	.zero	3
.LC127:
	.string	"isMultiplayer"
	.zero	2
.LC128:
	.string	"getFrameTime"
	.zero	3
.LC129:
	.string	"getTicsPerSecond"
	.zero	3
.LC130:
	.string	"debugLine"
	.zero	2
.LC131:
	.string	"vvvf"
	.zero	3
.LC132:
	.string	"debugArrow"
	.zero	1
.LC133:
	.string	"vvvdf"
	.zero	2
.LC134:
	.string	"debugCircle"
.LC135:
	.string	"vvvfdf"
	.zero	1
.LC136:
	.string	"debugBounds"
.LC137:
	.string	"drawText"
	.zero	3
.LC138:
	.string	"svfvdf"
	.zero	1
.LC139:
	.string	"influenceActive"
.LC140:
	.string	"idThread"
	.zero	3
.LC141:
	.string	"idClass"
.LC142:
	.string	"idThread::idThread() size %d\r\n"
	.zero	1
.LC143:
	.string	"thread_%d"
	.zero	2
.LC144:
	.string	"%d: create thread (%d) '%s'\n"
	.zero	3
.LC145:
	.string	"%d: end thread (%d) '%s'\n"
	.zero	2
.LC146:
	.string	"idThread::idThread( idEntity *self, const function_t *func ) size %d\r\n"
	.zero	1
.LC147:
	.string	"idThread::idThread( idInterpreter *source, idEntity *self, const function_t *func, int args ) size %d\r\n"
.LC148:
	.string	"idThread::idThread( idInterpreter *source, const function_t *func, int args ) size %d\r\n"
.LC149:
	.string	"idThread::idThread( const function_t *func ) size %d\r\n"
	.section	.sbss,"aw",@nobits
	.align 2
	.type	_ZN8idThread11threadIndexE, @object
	.size	_ZN8idThread11threadIndexE, 4
_ZN8idThread11threadIndexE:
	.zero	4
	.type	_ZN8idThread13currentThreadE, @object
	.size	_ZN8idThread13currentThreadE, 4
_ZN8idThread13currentThreadE:
	.zero	4
	.section	".bss"
	.align 2
	.set	.LANCHOR0,. + 0
	.type	_ZN8idThread4TypeE, @object
	.size	_ZN8idThread4TypeE, 80
_ZN8idThread4TypeE:
	.zero	80
	.type	_ZN8idThread5traceE, @object
	.size	_ZN8idThread5traceE, 108
_ZN8idThread5traceE:
	.zero	108
	.type	EV_Thread_SetCallback, @object
	.size	EV_Thread_SetCallback, 64
EV_Thread_SetCallback:
	.zero	64
	.type	_ZN8idThread10threadListE, @object
	.size	_ZN8idThread10threadListE, 16
_ZN8idThread10threadListE:
	.zero	16
	.type	EV_Thread_Execute, @object
	.size	EV_Thread_Execute, 64
EV_Thread_Execute:
	.zero	64
	.type	_ZL22NUM_RENDER_PORTAL_BITS, @object
	.size	_ZL22NUM_RENDER_PORTAL_BITS, 4
_ZL22NUM_RENDER_PORTAL_BITS:
	.zero	4
	.type	_ZL20DEFAULT_GRAVITY_VEC3, @object
	.size	_ZL20DEFAULT_GRAVITY_VEC3, 12
_ZL20DEFAULT_GRAVITY_VEC3:
	.zero	12
	.type	_ZL20CINEMATIC_SKIP_DELAY, @object
	.size	_ZL20CINEMATIC_SKIP_DELAY, 4
_ZL20CINEMATIC_SKIP_DELAY:
	.zero	4
	.type	_ZL26ASYNC_PLAYER_INV_AMMO_BITS, @object
	.size	_ZL26ASYNC_PLAYER_INV_AMMO_BITS, 4
_ZL26ASYNC_PLAYER_INV_AMMO_BITS:
	.zero	4
	.type	EV_Thread_TerminateThread, @object
	.size	EV_Thread_TerminateThread, 64
EV_Thread_TerminateThread:
	.zero	64
	.type	EV_Thread_Pause, @object
	.size	EV_Thread_Pause, 64
EV_Thread_Pause:
	.zero	64
	.type	EV_Thread_Wait, @object
	.size	EV_Thread_Wait, 64
EV_Thread_Wait:
	.zero	64
	.type	EV_Thread_WaitFrame, @object
	.size	EV_Thread_WaitFrame, 64
EV_Thread_WaitFrame:
	.zero	64
	.type	EV_Thread_WaitFor, @object
	.size	EV_Thread_WaitFor, 64
EV_Thread_WaitFor:
	.zero	64
	.type	EV_Thread_WaitForThread, @object
	.size	EV_Thread_WaitForThread, 64
EV_Thread_WaitForThread:
	.zero	64
	.type	EV_Thread_Print, @object
	.size	EV_Thread_Print, 64
EV_Thread_Print:
	.zero	64
	.type	EV_Thread_PrintLn, @object
	.size	EV_Thread_PrintLn, 64
EV_Thread_PrintLn:
	.zero	64
	.type	EV_Thread_Say, @object
	.size	EV_Thread_Say, 64
EV_Thread_Say:
	.zero	64
	.type	EV_Thread_Assert, @object
	.size	EV_Thread_Assert, 64
EV_Thread_Assert:
	.zero	64
	.type	EV_Thread_Trigger, @object
	.size	EV_Thread_Trigger, 64
EV_Thread_Trigger:
	.zero	64
	.type	EV_Thread_SetCvar, @object
	.size	EV_Thread_SetCvar, 64
EV_Thread_SetCvar:
	.zero	64
	.type	EV_Thread_GetCvar, @object
	.size	EV_Thread_GetCvar, 64
EV_Thread_GetCvar:
	.zero	64
	.type	EV_Thread_Random, @object
	.size	EV_Thread_Random, 64
EV_Thread_Random:
	.zero	64
	.type	EV_Thread_GetTime, @object
	.size	EV_Thread_GetTime, 64
EV_Thread_GetTime:
	.zero	64
	.type	EV_Thread_KillThread, @object
	.size	EV_Thread_KillThread, 64
EV_Thread_KillThread:
	.zero	64
	.type	EV_Thread_SetThreadName, @object
	.size	EV_Thread_SetThreadName, 64
EV_Thread_SetThreadName:
	.zero	64
	.type	EV_Thread_GetEntity, @object
	.size	EV_Thread_GetEntity, 64
EV_Thread_GetEntity:
	.zero	64
	.type	EV_Thread_Spawn, @object
	.size	EV_Thread_Spawn, 64
EV_Thread_Spawn:
	.zero	64
	.type	_ZL23EV_Thread_CopySpawnArgs, @object
	.size	_ZL23EV_Thread_CopySpawnArgs, 64
_ZL23EV_Thread_CopySpawnArgs:
	.zero	64
	.type	EV_Thread_SetSpawnArg, @object
	.size	EV_Thread_SetSpawnArg, 64
EV_Thread_SetSpawnArg:
	.zero	64
	.type	EV_Thread_SpawnString, @object
	.size	EV_Thread_SpawnString, 64
EV_Thread_SpawnString:
	.zero	64
	.type	EV_Thread_SpawnFloat, @object
	.size	EV_Thread_SpawnFloat, 64
EV_Thread_SpawnFloat:
	.zero	64
	.type	EV_Thread_SpawnVector, @object
	.size	EV_Thread_SpawnVector, 64
EV_Thread_SpawnVector:
	.zero	64
	.type	_ZL29EV_Thread_ClearPersistantArgs, @object
	.size	_ZL29EV_Thread_ClearPersistantArgs, 64
_ZL29EV_Thread_ClearPersistantArgs:
	.zero	64
	.type	_ZL26EV_Thread_SetPersistantArg, @object
	.size	_ZL26EV_Thread_SetPersistantArg, 64
_ZL26EV_Thread_SetPersistantArg:
	.zero	64
	.type	_ZL29EV_Thread_GetPersistantString, @object
	.size	_ZL29EV_Thread_GetPersistantString, 64
_ZL29EV_Thread_GetPersistantString:
	.zero	64
	.type	_ZL28EV_Thread_GetPersistantFloat, @object
	.size	_ZL28EV_Thread_GetPersistantFloat, 64
_ZL28EV_Thread_GetPersistantFloat:
	.zero	64
	.type	_ZL29EV_Thread_GetPersistantVector, @object
	.size	_ZL29EV_Thread_GetPersistantVector, 64
_ZL29EV_Thread_GetPersistantVector:
	.zero	64
	.type	EV_Thread_AngToForward, @object
	.size	EV_Thread_AngToForward, 64
EV_Thread_AngToForward:
	.zero	64
	.type	EV_Thread_AngToRight, @object
	.size	EV_Thread_AngToRight, 64
EV_Thread_AngToRight:
	.zero	64
	.type	EV_Thread_AngToUp, @object
	.size	EV_Thread_AngToUp, 64
EV_Thread_AngToUp:
	.zero	64
	.type	EV_Thread_Sine, @object
	.size	EV_Thread_Sine, 64
EV_Thread_Sine:
	.zero	64
	.type	EV_Thread_Cosine, @object
	.size	EV_Thread_Cosine, 64
EV_Thread_Cosine:
	.zero	64
	.type	_ZL20EV_Thread_SquareRoot, @object
	.size	_ZL20EV_Thread_SquareRoot, 64
_ZL20EV_Thread_SquareRoot:
	.zero	64
	.type	EV_Thread_Normalize, @object
	.size	EV_Thread_Normalize, 64
EV_Thread_Normalize:
	.zero	64
	.type	EV_Thread_VecLength, @object
	.size	EV_Thread_VecLength, 64
EV_Thread_VecLength:
	.zero	64
	.type	EV_Thread_VecDotProduct, @object
	.size	EV_Thread_VecDotProduct, 64
EV_Thread_VecDotProduct:
	.zero	64
	.type	EV_Thread_VecCrossProduct, @object
	.size	EV_Thread_VecCrossProduct, 64
EV_Thread_VecCrossProduct:
	.zero	64
	.type	_ZL21EV_Thread_VecToAngles, @object
	.size	_ZL21EV_Thread_VecToAngles, 64
_ZL21EV_Thread_VecToAngles:
	.zero	64
	.type	EV_Thread_OnSignal, @object
	.size	EV_Thread_OnSignal, 64
EV_Thread_OnSignal:
	.zero	64
	.type	EV_Thread_ClearSignal, @object
	.size	EV_Thread_ClearSignal, 64
EV_Thread_ClearSignal:
	.zero	64
	.type	EV_Thread_SetCamera, @object
	.size	EV_Thread_SetCamera, 64
EV_Thread_SetCamera:
	.zero	64
	.type	EV_Thread_FirstPerson, @object
	.size	EV_Thread_FirstPerson, 64
EV_Thread_FirstPerson:
	.zero	64
	.type	_ZL15EV_Thread_Trace, @object
	.size	_ZL15EV_Thread_Trace, 64
_ZL15EV_Thread_Trace:
	.zero	64
	.type	_ZL20EV_Thread_TracePoint, @object
	.size	_ZL20EV_Thread_TracePoint, 64
_ZL20EV_Thread_TracePoint:
	.zero	64
	.type	_ZL26EV_Thread_GetTraceFraction, @object
	.size	_ZL26EV_Thread_GetTraceFraction, 64
_ZL26EV_Thread_GetTraceFraction:
	.zero	64
	.type	_ZL24EV_Thread_GetTraceEndPos, @object
	.size	_ZL24EV_Thread_GetTraceEndPos, 64
_ZL24EV_Thread_GetTraceEndPos:
	.zero	64
	.type	_ZL24EV_Thread_GetTraceNormal, @object
	.size	_ZL24EV_Thread_GetTraceNormal, 64
_ZL24EV_Thread_GetTraceNormal:
	.zero	64
	.type	_ZL24EV_Thread_GetTraceEntity, @object
	.size	_ZL24EV_Thread_GetTraceEntity, 64
_ZL24EV_Thread_GetTraceEntity:
	.zero	64
	.type	_ZL23EV_Thread_GetTraceJoint, @object
	.size	_ZL23EV_Thread_GetTraceJoint, 64
_ZL23EV_Thread_GetTraceJoint:
	.zero	64
	.type	_ZL22EV_Thread_GetTraceBody, @object
	.size	_ZL22EV_Thread_GetTraceBody, 64
_ZL22EV_Thread_GetTraceBody:
	.zero	64
	.type	EV_Thread_FadeIn, @object
	.size	EV_Thread_FadeIn, 64
EV_Thread_FadeIn:
	.zero	64
	.type	EV_Thread_FadeOut, @object
	.size	EV_Thread_FadeOut, 64
EV_Thread_FadeOut:
	.zero	64
	.type	EV_Thread_FadeTo, @object
	.size	EV_Thread_FadeTo, 64
EV_Thread_FadeTo:
	.zero	64
	.type	_ZL20EV_Thread_StartMusic, @object
	.size	_ZL20EV_Thread_StartMusic, 64
_ZL20EV_Thread_StartMusic:
	.zero	64
	.type	_ZL15EV_Thread_Error, @object
	.size	_ZL15EV_Thread_Error, 64
_ZL15EV_Thread_Error:
	.zero	64
	.type	_ZL17EV_Thread_Warning, @object
	.size	_ZL17EV_Thread_Warning, 64
_ZL17EV_Thread_Warning:
	.zero	64
	.type	_ZL16EV_Thread_StrLen, @object
	.size	_ZL16EV_Thread_StrLen, 64
_ZL16EV_Thread_StrLen:
	.zero	64
	.type	_ZL17EV_Thread_StrLeft, @object
	.size	_ZL17EV_Thread_StrLeft, 64
_ZL17EV_Thread_StrLeft:
	.zero	64
	.type	_ZL18EV_Thread_StrRight, @object
	.size	_ZL18EV_Thread_StrRight, 64
_ZL18EV_Thread_StrRight:
	.zero	64
	.type	_ZL17EV_Thread_StrSkip, @object
	.size	_ZL17EV_Thread_StrSkip, 64
_ZL17EV_Thread_StrSkip:
	.zero	64
	.type	_ZL16EV_Thread_StrMid, @object
	.size	_ZL16EV_Thread_StrMid, 64
_ZL16EV_Thread_StrMid:
	.zero	64
	.type	_ZL20EV_Thread_StrToFloat, @object
	.size	_ZL20EV_Thread_StrToFloat, 64
_ZL20EV_Thread_StrToFloat:
	.zero	64
	.type	_ZL22EV_Thread_RadiusDamage, @object
	.size	_ZL22EV_Thread_RadiusDamage, 64
_ZL22EV_Thread_RadiusDamage:
	.zero	64
	.type	_ZL18EV_Thread_IsClient, @object
	.size	_ZL18EV_Thread_IsClient, 64
_ZL18EV_Thread_IsClient:
	.zero	64
	.type	_ZL23EV_Thread_IsMultiplayer, @object
	.size	_ZL23EV_Thread_IsMultiplayer, 64
_ZL23EV_Thread_IsMultiplayer:
	.zero	64
	.type	_ZL22EV_Thread_GetFrameTime, @object
	.size	_ZL22EV_Thread_GetFrameTime, 64
_ZL22EV_Thread_GetFrameTime:
	.zero	64
	.type	_ZL26EV_Thread_GetTicsPerSecond, @object
	.size	_ZL26EV_Thread_GetTicsPerSecond, 64
_ZL26EV_Thread_GetTicsPerSecond:
	.zero	64
	.type	_ZL19EV_Thread_DebugLine, @object
	.size	_ZL19EV_Thread_DebugLine, 64
_ZL19EV_Thread_DebugLine:
	.zero	64
	.type	_ZL20EV_Thread_DebugArrow, @object
	.size	_ZL20EV_Thread_DebugArrow, 64
_ZL20EV_Thread_DebugArrow:
	.zero	64
	.type	_ZL21EV_Thread_DebugCircle, @object
	.size	_ZL21EV_Thread_DebugCircle, 64
_ZL21EV_Thread_DebugCircle:
	.zero	64
	.type	_ZL21EV_Thread_DebugBounds, @object
	.size	_ZL21EV_Thread_DebugBounds, 64
_ZL21EV_Thread_DebugBounds:
	.zero	64
	.type	_ZL18EV_Thread_DrawText, @object
	.size	_ZL18EV_Thread_DrawText, 64
_ZL18EV_Thread_DrawText:
	.zero	64
	.type	_ZL25EV_Thread_InfluenceActive, @object
	.size	_ZL25EV_Thread_InfluenceActive, 64
_ZL25EV_Thread_InfluenceActive:
	.zero	64
	.section	".text"
.Letext0:
	.file 17 "c:\\utils\\devkitpro\\devkitppc\\bin\\../lib/gcc/powerpc-eabi/4.6.3/include/stddef.h"
	.file 18 "c:\\utils\\devkitpro\\devkitppc\\bin\\../lib/gcc/powerpc-eabi/4.6.3/include/stdarg.h"
	.file 19 "<built-in>"
	.file 20 "c:\\utils\\devkitpro\\devkitppc\\bin\\../lib/gcc/powerpc-eabi/4.6.3/../../../../powerpc-eabi/include/sys/types.h"
	.file 21 "d:/Data/Nintendo/DoomGX/src/game/script/../../idlib/../sys/sys_public.h"
	.file 22 "d:/Data/Nintendo/DoomGX/src/game/script/../../idlib/../framework/Common.h"
	.file 23 "d:/Data/Nintendo/DoomGX/src/game/script/../../idlib/../framework/FileSystem.h"
	.file 24 "d:/Data/Nintendo/DoomGX/src/game/script/../../idlib/../idlib/Lib.h"
	.file 25 "d:/Data/Nintendo/DoomGX/src/game/script/../../idlib/../idlib/CmdArgs.h"
	.file 26 "d:/Data/Nintendo/DoomGX/src/game/script/../../idlib/../idlib/math/Angles.h"
	.file 27 "d:/Data/Nintendo/DoomGX/src/game/script/../../idlib/../idlib/math/Matrix.h"
	.file 28 "d:/Data/Nintendo/DoomGX/src/game/script/../../idlib/../idlib/math/Quat.h"
	.file 29 "d:/Data/Nintendo/DoomGX/src/game/script/../../idlib/../idlib/math/Rotation.h"
	.file 30 "d:/Data/Nintendo/DoomGX/src/game/script/../../idlib/../idlib/math/Plane.h"
	.file 31 "d:/Data/Nintendo/DoomGX/src/game/script/../../idlib/../idlib/math/Ode.h"
	.file 32 "d:/Data/Nintendo/DoomGX/src/game/script/../../idlib/../idlib/bv/Sphere.h"
	.file 33 "d:/Data/Nintendo/DoomGX/src/game/script/../../idlib/../idlib/bv/Bounds.h"
	.file 34 "d:/Data/Nintendo/DoomGX/src/game/script/../../idlib/../idlib/bv/Box.h"
	.file 35 "d:/Data/Nintendo/DoomGX/src/game/script/../../idlib/../idlib/bv/Frustum.h"
	.file 36 "d:/Data/Nintendo/DoomGX/src/game/script/../../idlib/../idlib/geometry/DrawVert.h"
	.file 37 "d:/Data/Nintendo/DoomGX/src/game/script/../../idlib/../idlib/geometry/JointTransform.h"
	.file 38 "d:/Data/Nintendo/DoomGX/src/game/script/../../idlib/../idlib/geometry/Surface.h"
	.file 39 "d:/Data/Nintendo/DoomGX/src/game/script/../../idlib/../idlib/Token.h"
	.file 40 "d:/Data/Nintendo/DoomGX/src/game/script/../../idlib/../idlib/Lexer.h"
	.file 41 "d:/Data/Nintendo/DoomGX/src/game/script/../../idlib/../framework/File.h"
	.file 42 "d:/Data/Nintendo/DoomGX/src/game/script/../../idlib/../idlib/Parser.h"
	.file 43 "d:/Data/Nintendo/DoomGX/src/game/script/../../idlib/../idlib/containers/StrList.h"
