	.file	"Str.cpp"
	.section	".text"
.Ltext0:
	.section	.text._ZN14idFixedWinding5ClearEv,"axG",@progbits,_ZN14idFixedWinding5ClearEv,comdat
	.align 2
	.weak	_ZN14idFixedWinding5ClearEv
	.type	_ZN14idFixedWinding5ClearEv, @function
_ZN14idFixedWinding5ClearEv:
.LFB1502:
	.file 1 "d:/Data/Nintendo/DoomGX/src/idlib/../idlib/geometry/Winding.h"
	.loc 1 398 0
	.cfi_startproc
.LVL0:
	.loc 1 399 0
	li 0,0
	.loc 1 400 0
	.loc 1 399 0
	stw 0,4(3)
	.loc 1 400 0
	blr
	.cfi_endproc
.LFE1502:
	.size	_ZN14idFixedWinding5ClearEv, .-_ZN14idFixedWinding5ClearEv
	.section	.text._ZN9idWinding5ClearEv,"axG",@progbits,_ZN9idWinding5ClearEv,comdat
	.align 2
	.weak	_ZN9idWinding5ClearEv
	.type	_ZN9idWinding5ClearEv, @function
_ZN9idWinding5ClearEv:
.LFB1473:
	.loc 1 249 0
	.cfi_startproc
.LVL1:
	mflr 0
	stwu 1,-16(1)
.LCFI0:
	.cfi_def_cfa_offset 16
	.cfi_register 65, 0
	stw 31,12(1)
	mr 31,3
	.cfi_offset 31, -4
	stw 0,20(1)
	.loc 1 250 0
	li 0,0
	.cfi_offset 65, 4
	.loc 1 251 0
	lwz 3,8(3)
.LVL2:
	.loc 1 250 0
	stw 0,4(31)
	.loc 1 251 0
	cmpwi 7,3,0
	beq- 7,.L3
	.loc 1 251 0 is_stmt 0 discriminator 1
	bl _ZdaPv
.L3:
	.loc 1 252 0 is_stmt 1
	li 0,0
	stw 0,8(31)
	.loc 1 253 0
	lwz 0,20(1)
	lwz 31,12(1)
.LVL3:
	mtlr 0
	addi 1,1,16
.LCFI1:
	.cfi_def_cfa_offset 0
	.cfi_restore 31
	blr
	.cfi_endproc
.LFE1473:
	.size	_ZN9idWinding5ClearEv, .-_ZN9idWinding5ClearEv
	.section	.text._ZN9idWindingD2Ev,"axG",@progbits,_ZN9idWindingD5Ev,comdat
	.align 2
	.weak	_ZN9idWindingD2Ev
	.type	_ZN9idWindingD2Ev, @function
_ZN9idWindingD2Ev:
.LFB1461:
	.loc 1 183 0
	.cfi_startproc
.LVL4:
	mflr 0
	stwu 1,-16(1)
.LCFI2:
	.cfi_def_cfa_offset 16
	.cfi_register 65, 0
.LBB1026:
	lis 9,_ZTV9idWinding+8@ha
.LBE1026:
	stw 31,12(1)
	mr 31,3
	.cfi_offset 31, -4
	stw 0,20(1)
.LBB1027:
	.loc 1 183 0
	la 0,_ZTV9idWinding+8@l(9)
	.cfi_offset 65, 4
	.loc 1 184 0
	lwz 3,8(3)
.LVL5:
	.loc 1 183 0
	stw 0,0(31)
	.loc 1 184 0
	cmpwi 7,3,0
	beq- 7,.L6
	.loc 1 184 0 is_stmt 0 discriminator 1
	bl _ZdaPv
.L6:
	.loc 1 185 0 is_stmt 1
	li 0,0
	stw 0,8(31)
.LBE1027:
	.loc 1 186 0
	lwz 0,20(1)
	lwz 31,12(1)
.LVL6:
	mtlr 0
	addi 1,1,16
.LCFI3:
	.cfi_def_cfa_offset 0
	.cfi_restore 31
	blr
	.cfi_endproc
.LFE1461:
	.size	_ZN9idWindingD2Ev, .-_ZN9idWindingD2Ev
	.section	.text._ZN14idFixedWindingD2Ev,"axG",@progbits,_ZN14idFixedWindingD5Ev,comdat
	.align 2
	.weak	_ZN14idFixedWindingD2Ev
	.type	_ZN14idFixedWindingD2Ev, @function
_ZN14idFixedWindingD2Ev:
.LFB1498:
	.loc 1 380 0
	.cfi_startproc
.LVL7:
.LBB1033:
	.loc 1 381 0
	li 0,0
.LBB1034:
.LBB1035:
.LBB1036:
	.loc 1 183 0
	lis 9,_ZTV9idWinding+8@ha
.LBE1036:
.LBE1035:
.LBE1034:
	.loc 1 381 0
	stw 0,8(3)
.LVL8:
.LBB1039:
.LBB1038:
.LBB1037:
	.loc 1 183 0
	la 0,_ZTV9idWinding+8@l(9)
	stw 0,0(3)
.LBE1037:
.LBE1038:
.LBE1039:
.LBE1033:
	.loc 1 382 0
	blr
	.cfi_endproc
.LFE1498:
	.size	_ZN14idFixedWindingD2Ev, .-_ZN14idFixedWindingD2Ev
	.section	.text._ZN14idFixedWindingD0Ev,"axG",@progbits,_ZN14idFixedWindingD5Ev,comdat
	.align 2
	.weak	_ZN14idFixedWindingD0Ev
	.type	_ZN14idFixedWindingD0Ev, @function
_ZN14idFixedWindingD0Ev:
.LFB1500:
	.loc 1 380 0
	.cfi_startproc
.LVL9:
	mflr 0
	stwu 1,-8(1)
.LCFI4:
	.cfi_def_cfa_offset 8
	.cfi_register 65, 0
.LBB1046:
.LBB1047:
.LBB1048:
.LBB1049:
.LBB1050:
.LBB1051:
	.loc 1 183 0
	lis 11,_ZTV9idWinding+8@ha
.LBE1051:
.LBE1050:
.LBE1049:
.LBE1048:
.LBE1047:
.LBE1046:
	.loc 1 380 0
	stw 0,12(1)
.LBB1057:
.LBB1056:
.LBB1055:
	.loc 1 381 0
	li 0,0
	.cfi_offset 65, 4
	stw 0,8(3)
.LVL10:
.LBB1054:
.LBB1053:
.LBB1052:
	.loc 1 183 0
	la 0,_ZTV9idWinding+8@l(11)
	stw 0,0(3)
.LBE1052:
.LBE1053:
.LBE1054:
.LBE1055:
.LBE1056:
.LBE1057:
	.loc 1 382 0
	bl _ZdlPv
.LVL11:
	lwz 0,12(1)
	addi 1,1,8
.LCFI5:
	.cfi_def_cfa_offset 0
	mtlr 0
	blr
	.cfi_endproc
.LFE1500:
	.size	_ZN14idFixedWindingD0Ev, .-_ZN14idFixedWindingD0Ev
	.section	.text._ZN9idWindingD0Ev,"axG",@progbits,_ZN9idWindingD5Ev,comdat
	.align 2
	.weak	_ZN9idWindingD0Ev
	.type	_ZN9idWindingD0Ev, @function
_ZN9idWindingD0Ev:
.LFB1463:
	.loc 1 183 0
	.cfi_startproc
.LVL12:
	mflr 0
	stwu 1,-16(1)
.LCFI6:
	.cfi_def_cfa_offset 16
	.cfi_register 65, 0
.LBB1061:
.LBB1062:
.LBB1063:
	lis 9,_ZTV9idWinding+8@ha
.LBE1063:
.LBE1062:
.LBE1061:
	stw 31,12(1)
	mr 31,3
	.cfi_offset 31, -4
.LVL13:
	stw 0,20(1)
.LBB1068:
.LBB1066:
.LBB1064:
	.loc 1 183 0
	la 0,_ZTV9idWinding+8@l(9)
	.cfi_offset 65, 4
	.loc 1 184 0
	lwz 3,8(3)
.LVL14:
	.loc 1 183 0
	stw 0,0(31)
	.loc 1 184 0
	cmpwi 7,3,0
	beq- 7,.L16
	bl _ZdaPv
.L16:
	.loc 1 185 0
	li 0,0
.LBE1064:
.LBE1066:
.LBE1068:
	.loc 1 186 0
	mr 3,31
.LBB1069:
.LBB1067:
.LBB1065:
	.loc 1 185 0
	stw 0,8(31)
.LBE1065:
.LBE1067:
.LBE1069:
	.loc 1 186 0
	bl _ZdlPv
	lwz 0,20(1)
	lwz 31,12(1)
.LVL15:
	mtlr 0
	addi 1,1,16
.LCFI7:
	.cfi_def_cfa_offset 0
	.cfi_restore 31
	blr
	.cfi_endproc
.LFE1463:
	.size	_ZN9idWindingD0Ev, .-_ZN9idWindingD0Ev
	.section	".text"
	.align 2
	.globl _ZN5idStr13ColorForIndexEi
	.type	_ZN5idStr13ColorForIndexEi, @function
_ZN5idStr13ColorForIndexEi:
.LFB2538:
	.file 2 "d:/Data/Nintendo/DoomGX/src/idlib/Str.cpp"
	.loc 2 71 0
	.cfi_startproc
.LVL16:
	.loc 2 73 0
	lis 9,.LANCHOR0@ha
	.loc 2 72 0
	rlwinm 3,3,4,24,27
.LVL17:
	.loc 2 73 0
	la 0,.LANCHOR0@l(9)
	add 3,0,3
	blr
	.cfi_endproc
.LFE2538:
	.size	_ZN5idStr13ColorForIndexEi, .-_ZN5idStr13ColorForIndexEi
	.align 2
	.globl _ZN5idStr8FindCharEPKccii
	.type	_ZN5idStr8FindCharEPKccii, @function
_ZN5idStr8FindCharEPKccii:
.LFB2542:
	.loc 2 191 0
	.cfi_startproc
.LVL18:
.LBB1070:
	.loc 2 194 0
	cmpwi 7,6,-1
.LBE1070:
	.loc 2 191 0
	mflr 0
	stwu 1,-24(1)
.LCFI8:
	.cfi_def_cfa_offset 24
	.cfi_register 65, 0
	stw 31,20(1)
	mr 31,3
	.cfi_offset 31, -4
	stw 0,28(1)
.LBB1071:
	.loc 2 194 0
	beq- 7,.L28
	.cfi_offset 65, 4
.LVL19:
.L21:
	.loc 2 197 0
	cmpw 7,6,5
	.loc 2 202 0
	li 3,-1
	.loc 2 197 0
	blt- 7,.L22
	.loc 2 198 0
	lbzx 0,31,5
	mr 3,5
	cmpw 7,0,4
	bne+ 7,.L24
	b .L22
.LVL20:
.L25:
	lbzx 0,31,3
	cmpw 7,0,4
	beq- 7,.L22
.L24:
	.loc 2 197 0
	addi 3,3,1
.LVL21:
	cmpw 7,6,3
	bge+ 7,.L25
	.loc 2 202 0
	li 3,-1
.LVL22:
.L22:
.LBE1071:
	.loc 2 203 0
	lwz 0,28(1)
	lwz 31,20(1)
.LVL23:
	mtlr 0
	addi 1,1,24
	.cfi_remember_state
.LCFI9:
	.cfi_def_cfa_offset 0
	.cfi_restore 31
	blr
.LVL24:
.L28:
.LCFI10:
	.cfi_restore_state
.LBB1072:
	.loc 2 195 0
	stw 4,8(1)
	stw 5,12(1)
	bl strlen
.LVL25:
	addi 6,3,-1
.LVL26:
	lwz 5,12(1)
.LVL27:
	lwz 4,8(1)
	b .L21
.LBE1072:
	.cfi_endproc
.LFE2542:
	.size	_ZN5idStr8FindCharEPKccii, .-_ZN5idStr8FindCharEPKccii
	.align 2
	.globl _ZN5idStr8FindTextEPKcS1_bii
	.type	_ZN5idStr8FindTextEPKcS1_bii, @function
_ZN5idStr8FindTextEPKcS1_bii:
.LFB2543:
	.loc 2 212 0
	.cfi_startproc
.LVL28:
	mfcr 12
.LBB1073:
	.loc 2 215 0
	cmpwi 7,7,-1
.LBE1073:
	.loc 2 212 0
	mflr 0
	stwu 1,-48(1)
.LCFI11:
	.cfi_def_cfa_offset 48
	.cfi_register 65, 0
	.cfi_register 70, 12
	stw 27,28(1)
	mr 27,6
	.cfi_offset 27, -20
	stw 28,32(1)
	mr 28,5
	.cfi_offset 28, -16
	stw 29,36(1)
	mr 29,4
	.cfi_offset 29, -12
	stw 30,40(1)
	mr 30,3
	.cfi_offset 30, -8
	stw 31,44(1)
	mr 31,7
	.cfi_offset 31, -4
	stw 0,52(1)
	stw 24,16(1)
	stw 25,20(1)
	stw 26,24(1)
	stw 12,12(1)
.LBB1074:
	.loc 2 215 0
	beq- 7,.L44
	.cfi_offset 70, -36
	.cfi_offset 26, -24
	.cfi_offset 25, -28
	.cfi_offset 24, -32
	.cfi_offset 65, 4
.LVL29:
.L30:
	.loc 2 218 0
	mr 3,29
	.loc 2 237 0
	li 26,-1
	.loc 2 218 0
	bl strlen
	subf 24,3,31
.LVL30:
	.loc 2 219 0
	cmpw 7,24,27
	blt- 7,.L31
	.loc 2 221 0
	lbz 25,0(29)
	cmpwi 4,28,0
	.loc 2 212 0
	add 31,30,27
.LVL31:
.LBE1074:
	mr 26,27
.LBB1075:
	.loc 2 221 0
	cmpwi 3,25,0
.LVL32:
.L40:
	.loc 2 220 0
	bne- 4,.L32
.LVL33:
	.loc 2 227 0 discriminator 1
	mr 30,25
	beq- 3,.L31
	.loc 2 227 0 is_stmt 0
	li 28,0
	b .L39
.LVL34:
.L45:
	addi 28,28,1
.LVL35:
	lbzx 30,29,28
	cmpwi 7,30,0
	beq- 7,.L31
.LVL36:
.L39:
	.loc 2 228 0 is_stmt 1
	lbzx 3,31,28
	bl toupper
	mr 27,3
	mr 3,30
	bl toupper
	cmpw 7,27,3
	beq+ 7,.L45
.LVL37:
	.loc 2 233 0
	lbzx 0,29,28
	cmpwi 7,0,0
	beq- 7,.L31
.LVL38:
.L34:
	.loc 2 219 0
	addi 26,26,1
.LVL39:
	addi 31,31,1
	cmpw 7,24,26
	bge+ 7,.L40
	.loc 2 237 0
	li 26,-1
.LVL40:
.L31:
.LBE1075:
	.loc 2 238 0
	lwz 0,52(1)
	mr 3,26
	lwz 12,12(1)
	mtlr 0
	lwz 24,16(1)
.LVL41:
	lwz 25,20(1)
	mtcrf 24,12
	lwz 26,24(1)
	lwz 27,28(1)
	lwz 28,32(1)
	lwz 29,36(1)
.LVL42:
	lwz 30,40(1)
	lwz 31,44(1)
	addi 1,1,48
	.cfi_remember_state
.LCFI12:
	.cfi_def_cfa_offset 0
	.cfi_restore 70
	.cfi_restore 31
	.cfi_restore 30
	.cfi_restore 29
	.cfi_restore 28
	.cfi_restore 27
	.cfi_restore 26
	.cfi_restore 25
	.cfi_restore 24
	blr
.LVL43:
.L32:
.LCFI13:
	.cfi_restore_state
.LBB1076:
	.loc 2 221 0 discriminator 1
	beq- 3,.L31
	.loc 2 222 0
	lbz 0,0(31)
	li 9,0
	cmpw 7,0,25
	beq+ 7,.L36
	b .L34
.LVL44:
.L37:
	lbzx 11,31,9
	cmpw 7,11,0
	bne- 7,.L34
.LVL45:
.L36:
	.loc 2 221 0
	addi 9,9,1
.LVL46:
	lbzx 0,29,9
	cmpwi 7,0,0
	bne+ 7,.L37
.LBE1076:
	.loc 2 238 0
	lwz 0,52(1)
	mr 3,26
	lwz 12,12(1)
	mtlr 0
	lwz 24,16(1)
.LVL47:
	lwz 25,20(1)
	mtcrf 24,12
	lwz 26,24(1)
.LVL48:
	lwz 27,28(1)
	lwz 28,32(1)
	lwz 29,36(1)
.LVL49:
	lwz 30,40(1)
	lwz 31,44(1)
	addi 1,1,48
	.cfi_remember_state
	.cfi_restore 24
	.cfi_restore 25
	.cfi_restore 26
	.cfi_restore 27
	.cfi_restore 28
	.cfi_restore 29
	.cfi_restore 30
	.cfi_restore 31
	.cfi_restore 70
.LCFI14:
	.cfi_def_cfa_offset 0
	blr
.LVL50:
.L44:
.LCFI15:
	.cfi_restore_state
.LBB1077:
	.loc 2 216 0
	bl strlen
.LVL51:
	mr 31,3
.LVL52:
	b .L30
.LBE1077:
	.cfi_endproc
.LFE2543:
	.size	_ZN5idStr8FindTextEPKcS1_bii, .-_ZN5idStr8FindTextEPKcS1_bii
	.align 2
	.globl _ZN5idStr14CheckExtensionEPKcS1_
	.type	_ZN5idStr14CheckExtensionEPKcS1_, @function
_ZN5idStr14CheckExtensionEPKcS1_:
.LFB2546:
	.loc 2 388 0
	.cfi_startproc
.LVL53:
.LBB1078:
.LBB1079:
.LBB1080:
	.file 3 "d:/Data/Nintendo/DoomGX/src/idlib/../idlib/Str.h"
	.loc 3 952 0
	lbz 0,0(3)
	li 9,-1
	cmpwi 7,0,0
	beq- 7,.L47
.LVL54:
	li 9,0
.LVL55:
.L48:
	addi 9,9,1
.LVL56:
	lbzx 0,3,9
	cmpwi 7,0,0
	bne+ 7,.L48
	addi 9,9,-1
.LVL57:
.L47:
.LBE1080:
.LBE1079:
.LBB1081:
.LBB1082:
	lbz 0,0(4)
.LBE1082:
.LBE1081:
	.loc 2 389 0
	add 9,3,9
.LVL58:
.LBB1084:
.LBB1083:
	.loc 3 952 0
	li 8,-1
	cmpwi 7,0,0
	beq- 7,.L49
.LVL59:
	li 8,0
.LVL60:
.L50:
	addi 8,8,1
.LVL61:
	lbzx 0,4,8
	cmpwi 7,0,0
	bne+ 7,.L50
	addi 8,8,-1
.LVL62:
.L49:
.LBE1083:
.LBE1084:
	.loc 2 390 0
	add 8,4,8
.LVL63:
	addi 0,8,-1
	cmplw 7,4,0
	subf 0,4,8
	mtctr 0
	bgt- 7,.L63
	cmpwi 7,4,-1
	beq- 7,.L63
.L55:
	.loc 2 394 0
	lbz 11,0(9)
.LVL64:
	addi 9,9,-1
.LVL65:
	.loc 2 395 0
	lbz 10,0(8)
.LVL66:
	.loc 2 393 0
	cmplw 7,3,9
	.loc 2 399 0
	addi 0,11,-65
	.loc 2 395 0
	addi 8,8,-1
.LVL67:
	.loc 2 398 0
	subf. 11,10,11
.LVL68:
	.loc 2 399 0
	cmplwi 6,0,25
	.loc 2 398 0
	beq- 0,.L51
	.loc 2 405 0
	addi 10,10,-65
.LVL69:
	cmplwi 1,10,25
	.loc 2 399 0
	bgt- 6,.L52
.LVL70:
	.loc 2 401 0
	addic. 11,11,32
	beq- 0,.L51
.LVL71:
.L52:
	.loc 2 407 0
	cmpwi 6,11,32
	.loc 2 405 0
	bgt- 1,.L58
.LVL72:
	.loc 2 407 0
	bne- 6,.L59
.LVL73:
.L51:
	.loc 2 393 0
	blt- 7,.L64
	.loc 2 415 0
	subfc 3,3,9
	li 3,0
	adde 3,3,3
.LVL74:
	blr
.LVL75:
.L64:
	.loc 2 393 0 discriminator 1
	bdnz .L55
	.loc 2 415 0
	subfc 3,3,9
	li 3,0
	adde 3,3,3
.LVL76:
	blr
.LVL77:
.L59:
	.loc 2 411 0
	li 3,0
.LVL78:
.LBE1078:
	.loc 2 416 0
	blr
.LVL79:
.L58:
.LBB1085:
	.loc 2 411 0
	li 3,0
.LVL80:
	blr
.LVL81:
.L63:
	li 0,1
	mtctr 0
	b .L55
.LBE1085:
	.cfi_endproc
.LFE2546:
	.size	_ZN5idStr14CheckExtensionEPKcS1_, .-_ZN5idStr14CheckExtensionEPKcS1_
	.align 2
	.globl _ZNK5idStr4LastEc
	.type	_ZNK5idStr4LastEc, @function
_ZNK5idStr4LastEc:
.LFB2548:
	.loc 2 457 0
	.cfi_startproc
.LVL82:
.LBB1086:
	.loc 2 1747 0
	lwz 9,0(3)
.LVL83:
.LBE1086:
	.loc 2 457 0
	mr 11,3
.LBB1087:
	.loc 2 466 0
	li 3,-1
.LVL84:
	.loc 2 460 0
	cmpwi 7,9,0
	blelr- 7
	.loc 2 461 0
	lwz 11,4(11)
.LVL85:
	addi 3,9,-1
	lbzx 0,11,3
	add 11,11,3
	cmpw 7,0,4
	beqlr- 7
	.loc 2 462 0
	mtctr 9
.LVL86:
.L69:
	.loc 2 460 0
	bdz .L75
	.loc 2 461 0
	lbzu 0,-1(11)
	addi 3,3,-1
.LVL87:
	cmpw 7,0,4
	bne+ 7,.L69
	.loc 2 462 0
	blr
.LVL88:
.L75:
	.loc 2 466 0
	li 3,-1
.LVL89:
.LBE1087:
	.loc 2 467 0
	blr
	.cfi_endproc
.LFE2548:
	.size	_ZNK5idStr4LastEc, .-_ZNK5idStr4LastEc
	.align 2
	.globl _ZN5idStr12StripLeadingEc
	.type	_ZN5idStr12StripLeadingEc, @function
_ZN5idStr12StripLeadingEc:
.LFB2549:
	.loc 2 474 0
	.cfi_startproc
.LVL90:
	mflr 0
	stwu 1,-16(1)
.LCFI16:
	.cfi_def_cfa_offset 16
	.cfi_register 65, 0
	stw 31,12(1)
	mr 31,3
	.cfi_offset 31, -4
	stw 0,20(1)
	stw 30,8(1)
	.loc 2 475 0
	lwz 3,4(3)
.LVL91:
	lbz 30,0(3)
	.cfi_offset 30, -8
	.cfi_offset 65, 4
	cmpw 7,30,4
	bne- 7,.L76
	lwz 5,0(31)
.LVL92:
.L78:
	.loc 2 476 0
	addi 4,3,1
	bl memmove
	.loc 2 477 0
	lwz 5,0(31)
	.loc 2 475 0
	lwz 3,4(31)
	.loc 2 477 0
	addi 5,5,-1
	stw 5,0(31)
	.loc 2 475 0
	lbz 0,0(3)
	cmpw 7,0,30
	beq+ 7,.L78
.L76:
	.loc 2 479 0
	lwz 0,20(1)
	lwz 30,8(1)
	mtlr 0
	lwz 31,12(1)
.LVL93:
	addi 1,1,16
.LCFI17:
	.cfi_def_cfa_offset 0
	.cfi_restore 31
	.cfi_restore 30
	blr
	.cfi_endproc
.LFE2549:
	.size	_ZN5idStr12StripLeadingEc, .-_ZN5idStr12StripLeadingEc
	.align 2
	.globl _ZN5idStr13StripTrailingEc
	.type	_ZN5idStr13StripTrailingEc, @function
_ZN5idStr13StripTrailingEc:
.LFB2552:
	.loc 2 520 0
	.cfi_startproc
.LVL94:
	.loc 2 1747 0
	lwz 9,0(3)
.LVL95:
.LBB1088:
	.loc 2 523 0
	cmpwi 7,9,0
	blelr- 7
	lwz 10,4(3)
	add 11,10,9
	lbz 8,-1(11)
	cmpw 7,8,4
	bnelr+ 7
	.loc 2 520 0
	addi 11,9,-1
	.loc 2 524 0
	li 7,0
	mtctr 9
	b .L82
.LVL96:
.L83:
	.loc 2 523 0 discriminator 2
	lwz 10,4(3)
	add 9,10,11
	addi 11,11,-1
	lbz 0,-1(9)
	cmpw 7,0,8
	bnelr+ 7
.L82:
	.loc 2 524 0 discriminator 5
	stbx 7,10,11
	.loc 2 525 0 discriminator 5
	lwz 9,0(3)
	addi 0,9,-1
	stw 0,0(3)
	.loc 2 523 0 discriminator 5
	bdnz .L83
	blr
.LBE1088:
	.cfi_endproc
.LFE2552:
	.size	_ZN5idStr13StripTrailingEc, .-_ZN5idStr13StripTrailingEc
	.align 2
	.globl _ZN5idStr23StripTrailingWhitespaceEv
	.type	_ZN5idStr23StripTrailingWhitespaceEv, @function
_ZN5idStr23StripTrailingWhitespaceEv:
.LFB2558:
	.loc 2 653 0
	.cfi_startproc
.LVL97:
	.loc 2 1747 0
	lwz 10,0(3)
.LVL98:
.LBB1089:
	.loc 2 657 0
	cmpwi 7,10,0
	blelr- 7
	lwz 11,4(3)
	add 9,11,10
	lbz 0,-1(9)
	cmplwi 7,0,32
	bgtlr- 7
	.loc 2 653 0
	addi 9,10,-1
	.loc 2 658 0
	li 8,0
	mtctr 10
	b .L86
.LVL99:
.L87:
	.loc 2 657 0 discriminator 2
	lwz 11,4(3)
	add 10,11,9
	addi 9,9,-1
	lbz 0,-1(10)
	cmplwi 7,0,32
	bgtlr- 7
.L86:
	.loc 2 658 0 discriminator 5
	stbx 8,11,9
	.loc 2 659 0 discriminator 5
	lwz 11,0(3)
	addi 0,11,-1
	stw 0,0(3)
	.loc 2 657 0 discriminator 5
	bdnz .L87
	blr
.LBE1089:
	.cfi_endproc
.LFE2558:
	.size	_ZN5idStr23StripTrailingWhitespaceEv, .-_ZN5idStr23StripTrailingWhitespaceEv
	.align 2
	.globl _ZN5idStr11StripQuotesEv
	.type	_ZN5idStr11StripQuotesEv, @function
_ZN5idStr11StripQuotesEv:
.LFB2559:
	.loc 2 671 0
	.cfi_startproc
.LVL100:
	mflr 0
	stwu 1,-16(1)
.LCFI18:
	.cfi_def_cfa_offset 16
	.cfi_register 65, 0
	stw 31,12(1)
	mr 31,3
	.cfi_offset 31, -4
	stw 0,20(1)
	.loc 2 672 0
	lwz 3,4(3)
.LVL101:
	lbz 0,0(3)
	.cfi_offset 65, 4
	cmpwi 7,0,34
	beq- 7,.L91
	.loc 2 690 0
	lwz 0,20(1)
	mr 3,31
	lwz 31,12(1)
.LVL102:
	mtlr 0
	addi 1,1,16
	.cfi_remember_state
.LCFI19:
	.cfi_def_cfa_offset 0
	.cfi_restore 31
	blr
.LVL103:
.L91:
.LCFI20:
	.cfi_restore_state
	.loc 2 678 0
	lwz 5,0(31)
	addi 5,5,-1
	lbzx 0,3,5
	cmpwi 7,0,34
	beq- 7,.L92
.L90:
	.loc 2 685 0
	stw 5,0(31)
	.loc 2 686 0
	addi 4,3,1
	bl memmove
	.loc 2 687 0
	lwz 0,0(31)
	lwz 9,4(31)
	li 11,0
	.loc 2 690 0
	mr 3,31
	.loc 2 687 0
	stbx 11,9,0
	.loc 2 690 0
	lwz 0,20(1)
	lwz 31,12(1)
.LVL104:
	mtlr 0
	addi 1,1,16
	.cfi_remember_state
	.cfi_restore 31
.LCFI21:
	.cfi_def_cfa_offset 0
	blr
.LVL105:
.L92:
.LCFI22:
	.cfi_restore_state
	.loc 2 680 0
	li 0,0
	stbx 0,3,5
	.loc 2 681 0
	lwz 5,0(31)
	lwz 3,4(31)
	addi 5,5,-2
	b .L90
	.cfi_endproc
.LFE2559:
	.size	_ZN5idStr11StripQuotesEv, .-_ZN5idStr11StripQuotesEv
	.align 2
	.globl _ZNK5idStr12FileNameHashEv
	.type	_ZNK5idStr12FileNameHashEv, @function
_ZNK5idStr12FileNameHashEv:
.LFB2560:
	.loc 2 705 0
	.cfi_startproc
.LVL106:
.LBB1090:
	.loc 2 712 0
	lwz 10,4(3)
	li 3,0
.LVL107:
	lbz 9,0(10)
	cmpwi 7,9,0
	beqlr- 7
	li 11,119
.LVL108:
.L99:
.LBB1091:
.LBB1092:
	.loc 3 1011 0
	addi 0,9,-65
.LBE1092:
.LBE1091:
	.loc 2 714 0
	cmpwi 6,9,46
.LBB1095:
.LBB1093:
	.loc 3 1011 0
	rlwinm 0,0,0,0xff
.LBE1093:
.LBE1095:
	.loc 2 717 0
	cmpwi 1,9,92
.LBB1096:
.LBB1094:
	.loc 3 1011 0
	cmplwi 7,0,25
	.loc 3 1012 0
	addi 0,9,32
	.loc 3 1011 0
	bgt- 7,.L95
	.loc 3 1012 0
	rlwinm 9,0,0,0xff
.LVL109:
.L96:
.LBE1094:
.LBE1096:
	.loc 2 717 0
	mr 0,9
.L98:
	.loc 2 712 0
	lbzu 9,1(10)
	.loc 2 720 0
	mullw 0,0,11
	.loc 2 712 0
	addi 11,11,1
	cmpwi 7,9,0
	.loc 2 720 0
	add 3,3,0
.LVL110:
	.loc 2 712 0
	bne+ 7,.L99
	rlwinm 3,3,0,22,31
.LVL111:
.LBE1090:
	.loc 2 725 0
	blr
.LVL112:
.L95:
.LBB1097:
	.loc 2 714 0
	beq- 6,.L103
	.loc 2 717 0
	li 0,47
	beq+ 1,.L98
	b .L96
.L103:
	.loc 2 714 0
	rlwinm 3,3,0,22,31
	blr
.LBE1097:
	.cfi_endproc
.LFE2560:
	.size	_ZNK5idStr12FileNameHashEv, .-_ZNK5idStr12FileNameHashEv
	.align 2
	.globl _ZN5idStr20BackSlashesToSlashesEv
	.type	_ZN5idStr20BackSlashesToSlashesEv, @function
_ZN5idStr20BackSlashesToSlashesEv:
.LFB2561:
	.loc 2 732 0
	.cfi_startproc
.LVL113:
.LBB1098:
	.loc 2 735 0
	lwz 10,0(3)
	cmpwi 7,10,0
	blelr- 7
	li 9,0
	.loc 2 737 0
	li 8,47
	b .L107
.LVL114:
.L106:
	.loc 2 735 0
	addi 9,9,1
.LVL115:
	cmpw 7,10,9
	ble- 7,.L109
.LVL116:
.L107:
	.loc 2 736 0
	lwz 11,4(3)
	lbzx 0,11,9
	cmpwi 7,0,92
	bne+ 7,.L106
	.loc 2 737 0
	stbx 8,11,9
	.loc 2 735 0
	addi 9,9,1
.LVL117:
	lwz 10,0(3)
	cmpw 7,10,9
	bgt+ 7,.L107
.L109:
.LBE1098:
	.loc 2 741 0
	blr
	.cfi_endproc
.LFE2561:
	.size	_ZN5idStr20BackSlashesToSlashesEv, .-_ZN5idStr20BackSlashesToSlashesEv
	.align 2
	.globl _ZN5idStr18StripFileExtensionEv
	.type	_ZN5idStr18StripFileExtensionEv, @function
_ZN5idStr18StripFileExtensionEv:
.LFB2563:
	.loc 2 762 0
	.cfi_startproc
.LVL118:
.LBB1099:
	.loc 2 765 0
	lwz 0,0(3)
.LVL119:
	addic. 9,0,-1
	bltlr- 0
.LVL120:
	.loc 2 766 0
	lwz 11,4(3)
	mtctr 0
	lbzx 8,11,9
	add 10,11,9
	cmpwi 7,8,46
	bne+ 7,.L116
	b .L112
.LVL121:
.L115:
	lbzx 0,11,9
	.loc 2 762 0
	add 10,11,9
	.loc 2 766 0
	cmpwi 7,0,46
	beq- 7,.L112
.L116:
	.loc 2 765 0
	addi 9,9,-1
.LVL122:
	bdnz .L115
.LBE1099:
	.loc 2 773 0
	blr
.L112:
.LBB1100:
	.loc 2 767 0
	li 0,0
	stb 0,0(10)
	.loc 2 768 0
	stw 9,0(3)
	.loc 2 769 0
	blr
.LBE1100:
	.cfi_endproc
.LFE2563:
	.size	_ZN5idStr18StripFileExtensionEv, .-_ZN5idStr18StripFileExtensionEv
	.align 2
	.globl _ZN5idStr26StripAbsoluteFileExtensionEv
	.type	_ZN5idStr26StripAbsoluteFileExtensionEv, @function
_ZN5idStr26StripAbsoluteFileExtensionEv:
.LFB2564:
	.loc 2 780 0
	.cfi_startproc
.LVL123:
.LBB1101:
	.loc 2 783 0
	lwz 0,0(3)
	cmpwi 7,0,0
	blelr- 7
	.loc 2 784 0
	lwz 11,4(3)
	lbz 9,0(11)
	cmpwi 7,9,46
	beq- 7,.L124
	li 9,0
	mtctr 0
	b .L122
.LVL124:
.L123:
	lbzx 0,11,9
	.loc 2 780 0
	add 10,11,9
	.loc 2 784 0
	cmpwi 7,0,46
	beq- 7,.L121
.LVL125:
.L122:
	.loc 2 783 0
	addi 9,9,1
.LVL126:
	bdnz .L123
.LBE1101:
	.loc 2 792 0
	blr
.LVL127:
.L124:
.LBB1102:
	.loc 2 784 0
	mr 10,11
	.loc 2 783 0
	li 9,0
.LVL128:
.L121:
	.loc 2 785 0
	li 0,0
	stb 0,0(10)
	.loc 2 786 0
	stw 9,0(3)
	.loc 2 787 0
	blr
.LBE1102:
	.cfi_endproc
.LFE2564:
	.size	_ZN5idStr26StripAbsoluteFileExtensionEv, .-_ZN5idStr26StripAbsoluteFileExtensionEv
	.align 2
	.globl _ZN5idStr13StripFilenameEv
	.type	_ZN5idStr13StripFilenameEv, @function
_ZN5idStr13StripFilenameEv:
.LFB2568:
	.loc 2 869 0
	.cfi_startproc
.LVL129:
	.loc 2 1747 0
	lwz 10,0(3)
.LVL130:
.LBB1103:
	.loc 2 873 0
	addic. 0,10,-1
	ble- 0,.L127
	.loc 2 1747 0
	lwz 11,4(3)
.LVL131:
	.loc 2 873 0
	lbzx 9,11,0
	cmpwi 7,9,47
	beq- 7,.L127
.LVL132:
	cmpwi 7,9,92
	mtctr 0
	bne+ 7,.L133
.LVL133:
.L127:
	blt- 0,.L136
.L131:
.LVL134:
.LBB1104:
.LBB1105:
	.loc 3 881 0
	cmpw 7,10,0
	blelr- 7
.L138:
	.loc 3 884 0
	lwz 9,4(3)
	li 11,0
	stbx 11,9,0
	.loc 3 885 0
	stw 0,0(3)
.LBE1105:
.LBE1104:
.LBE1103:
	.loc 2 883 0
	blr
.LVL135:
.L137:
.LBB1108:
	.loc 2 873 0 discriminator 4
	beq- 6,.L127
.L133:
.LVL136:
	.loc 2 873 0 is_stmt 0 discriminator 6
	addic. 0,0,-1
.LVL137:
	bdz .L127
.LVL138:
	.loc 2 873 0 discriminator 2
	lbzx 9,11,0
	cmpwi 7,9,47
	cmpwi 6,9,92
	bne+ 7,.L137
	.loc 2 873 0
	bge+ 0,.L131
.LVL139:
.L136:
	li 0,0
.LVL140:
.LBB1107:
.LBB1106:
	.loc 3 881 0 is_stmt 1
	cmpw 7,10,0
	bgt+ 7,.L138
	blr
.LBE1106:
.LBE1107:
.LBE1108:
	.cfi_endproc
.LFE2568:
	.size	_ZN5idStr13StripFilenameEv, .-_ZN5idStr13StripFilenameEv
	.align 2
	.globl _ZN5idStr9IsNumericEPKc
	.type	_ZN5idStr9IsNumericEPKc, @function
_ZN5idStr9IsNumericEPKc:
.LFB2574:
	.loc 2 1005 0
	.cfi_startproc
.LVL141:
.LBB1109:
	.loc 2 1009 0
	lbz 9,0(3)
	cmpwi 7,9,45
	beq- 7,.L148
.L140:
.LVL142:
	.loc 2 1014 0
	cmpwi 7,9,0
	.loc 2 1024 0
	li 0,1
	.loc 2 1014 0
	beq- 7,.L141
	.loc 2 1013 0
	li 11,0
.LVL143:
.L143:
	.loc 2 1015 0
	addi 0,9,-48
	.loc 2 1016 0
	cmpwi 6,9,46
	.loc 2 1015 0
	cmplwi 7,0,9
	.loc 2 1016 0
	cmpwi 1,11,0
	.loc 2 1015 0
	ble- 7,.L142
	.loc 2 1016 0
	bne- 6,.L146
	.loc 2 1017 0 discriminator 1
	li 11,1
	.loc 2 1016 0 discriminator 1
	bne- 1,.L146
.L142:
.LVL144:
	.loc 2 1014 0
	lbzu 9,1(3)
	cmpwi 7,9,0
	bne+ 7,.L143
	.loc 2 1024 0
	li 0,1
.LVL145:
.L141:
.LBE1109:
	.loc 2 1025 0
	mr 3,0
	blr
.L146:
.LBB1110:
	.loc 2 1020 0
	li 0,0
.LBE1110:
	.loc 2 1025 0
	mr 3,0
	blr
.LVL146:
.L148:
.LBB1111:
	.loc 2 1010 0
	lbz 9,1(3)
	addi 3,3,1
.LVL147:
	b .L140
.LBE1111:
	.cfi_endproc
.LFE2574:
	.size	_ZN5idStr9IsNumericEPKc, .-_ZN5idStr9IsNumericEPKc
	.align 2
	.globl _ZN5idStr8HasLowerEPKc
	.type	_ZN5idStr8HasLowerEPKc, @function
_ZN5idStr8HasLowerEPKc:
.LFB2575:
	.loc 2 1034 0
	.cfi_startproc
.LVL148:
	.loc 2 1035 0
	mr. 11,3
	.loc 2 1036 0
	li 3,0
.LVL149:
	.loc 2 1035 0
	beqlr- 0
	.loc 2 1039 0 discriminator 1
	lbz 9,0(11)
	cmpwi 7,9,0
	beqlr- 7
.LVL150:
.LBB1112:
.LBB1113:
	.loc 3 1031 0
	addi 0,9,-97
	.loc 2 1041 0
	li 3,1
	.loc 3 1031 0
	cmplwi 7,0,25
	blelr- 7
	addi 9,9,-224
.LVL151:
	cmplwi 7,9,31
	blelr- 7
.LVL152:
.L152:
.LBE1113:
.LBE1112:
	.loc 2 1039 0
	lbzu 9,1(11)
	cmpwi 7,9,0
.LBB1117:
.LBB1114:
	.loc 3 1031 0
	addi 10,9,-97
	addi 0,9,-224
	cmplwi 6,10,25
	cmplwi 1,0,31
.LBE1114:
.LBE1117:
	.loc 2 1039 0
	beq- 7,.L159
.LBB1118:
.LBB1115:
	.loc 3 1031 0
	ble- 6,.L155
	bgt- 1,.L152
	.loc 2 1041 0
	li 3,1
.LBE1115:
.LBE1118:
	.loc 2 1047 0
	blr
.L155:
.LBB1119:
.LBB1116:
	.loc 2 1041 0
	li 3,1
	blr
.L159:
.LBE1116:
.LBE1119:
	.loc 2 1046 0
	li 3,0
	blr
	.cfi_endproc
.LFE2575:
	.size	_ZN5idStr8HasLowerEPKc, .-_ZN5idStr8HasLowerEPKc
	.align 2
	.globl _ZN5idStr8HasUpperEPKc
	.type	_ZN5idStr8HasUpperEPKc, @function
_ZN5idStr8HasUpperEPKc:
.LFB2576:
	.loc 2 1056 0
	.cfi_startproc
.LVL153:
	.loc 2 1057 0
	mr. 11,3
	.loc 2 1058 0
	li 3,0
.LVL154:
	.loc 2 1057 0
	beqlr- 0
	.loc 2 1061 0 discriminator 1
	lbz 9,0(11)
	cmpwi 7,9,0
	beqlr- 7
.LVL155:
.LBB1120:
.LBB1121:
	.loc 3 1036 0
	addi 0,9,-65
	.loc 2 1063 0
	li 3,1
	.loc 3 1036 0
	cmplwi 7,0,25
	blelr- 7
	addi 9,9,-192
.LVL156:
	cmplwi 7,9,31
	blelr- 7
.LVL157:
.L163:
.LBE1121:
.LBE1120:
	.loc 2 1061 0
	lbzu 9,1(11)
	cmpwi 7,9,0
.LBB1125:
.LBB1122:
	.loc 3 1036 0
	addi 10,9,-65
	addi 0,9,-192
	cmplwi 6,10,25
	cmplwi 1,0,31
.LBE1122:
.LBE1125:
	.loc 2 1061 0
	beq- 7,.L170
.LBB1126:
.LBB1123:
	.loc 3 1036 0
	ble- 6,.L166
	bgt- 1,.L163
	.loc 2 1063 0
	li 3,1
.LBE1123:
.LBE1126:
	.loc 2 1069 0
	blr
.L166:
.LBB1127:
.LBB1124:
	.loc 2 1063 0
	li 3,1
	blr
.L170:
.LBE1124:
.LBE1127:
	.loc 2 1068 0
	li 3,0
	blr
	.cfi_endproc
.LFE2576:
	.size	_ZN5idStr8HasUpperEPKc, .-_ZN5idStr8HasUpperEPKc
	.align 2
	.globl _ZN5idStr3CmpEPKcS1_
	.type	_ZN5idStr3CmpEPKcS1_, @function
_ZN5idStr3CmpEPKcS1_:
.LFB2577:
	.loc 2 1076 0
	.cfi_startproc
.LVL158:
.LBB1128:
	.loc 2 1076 0
	addi 3,3,-1
.LVL159:
	addi 4,4,-1
.LVL160:
	b .L174
.LVL161:
.L172:
	.loc 2 1079 0
	beq- 7,.L176
.LVL162:
.L174:
	.loc 2 1080 0
	lbzu 0,1(3)
.LVL163:
	.loc 2 1081 0
	lbzu 9,1(4)
.LVL164:
	.loc 2 1079 0
	cmpwi 7,0,0
	.loc 2 1084 0
	subf. 0,9,0
.LVL165:
	beq+ 0,.L172
	.loc 2 1085 0
	nor 0,0,0
.LVL166:
	rlwinm 3,0,2,30,30
	addi 3,3,-1
	blr
.LVL167:
.L176:
	.loc 2 1089 0
	li 3,0
.LBE1128:
	.loc 2 1090 0
	blr
	.cfi_endproc
.LFE2577:
	.size	_ZN5idStr3CmpEPKcS1_, .-_ZN5idStr3CmpEPKcS1_
	.align 2
	.globl _ZN5idStr4CmpnEPKcS1_i
	.type	_ZN5idStr4CmpnEPKcS1_i, @function
_ZN5idStr4CmpnEPKcS1_i:
.LFB2578:
	.loc 2 1097 0
	.cfi_startproc
.LVL168:
	.loc 2 1097 0
	addi 5,5,1
.LVL169:
	li 9,0
	mtctr 5
	b .L180
.LVL170:
.L187:
.LBB1129:
	.loc 2 1111 0
	bne- 0,.L185
	.loc 2 1112 0
	addi 9,9,1
	.loc 2 1102 0
	beq- 7,.L186
.LVL171:
.L180:
	.loc 2 1103 0
	lbzx 0,3,9
.LVL172:
	.loc 2 1104 0
	lbzx 11,4,9
.LVL173:
	.loc 2 1102 0
	cmpwi 7,0,0
	.loc 2 1111 0
	subf. 0,11,0
.LVL174:
	.loc 2 1106 0
	bdnz .L187
	.loc 2 1107 0
	li 3,0
.LBE1129:
	.loc 2 1117 0
	blr
.L185:
.LBB1130:
	.loc 2 1112 0
	nor 0,0,0
	rlwinm 3,0,2,30,30
	addi 3,3,-1
	blr
.L186:
	.loc 2 1116 0
	li 3,0
	blr
.LBE1130:
	.cfi_endproc
.LFE2578:
	.size	_ZN5idStr4CmpnEPKcS1_i, .-_ZN5idStr4CmpnEPKcS1_i
	.align 2
	.globl _ZN5idStr17StripTrailingOnceEPKc
	.type	_ZN5idStr17StripTrailingOnceEPKc, @function
_ZN5idStr17StripTrailingOnceEPKc:
.LFB2554:
	.loc 2 551 0
	.cfi_startproc
.LVL175:
	stwu 1,-32(1)
.LCFI23:
	.cfi_def_cfa_offset 32
	mflr 0
	stw 30,24(1)
	mr 30,3
	.cfi_offset 30, -8
	.cfi_register 65, 0
.LBB1131:
	.loc 2 554 0
	mr 3,4
.LVL176:
.LBE1131:
	.loc 2 551 0
	stw 27,12(1)
	stw 31,28(1)
	mr 27,4
	.cfi_offset 31, -4
	.cfi_offset 27, -20
	stw 0,36(1)
.LBB1132:
	.loc 2 560 0
	li 31,0
.LBE1132:
	.loc 2 551 0
	stw 28,16(1)
	stw 29,20(1)
.LBB1133:
	.loc 2 554 0
	.cfi_offset 29, -12
	.cfi_offset 28, -16
	.cfi_offset 65, 4
	bl strlen
.LVL177:
	.loc 2 555 0
	mr. 5,3
	ble- 0,.L189
	.loc 2 555 0 is_stmt 0 discriminator 1
	lwz 29,0(30)
	cmpw 7,5,29
	bgt- 7,.L189
	.loc 2 555 0 discriminator 3
	lwz 28,4(30)
	subf 29,5,29
	mr 3,27
.LVL178:
	add 4,28,29
	bl _ZN5idStr4CmpnEPKcS1_i
.LVL179:
	cmpwi 7,3,0
	bne- 7,.L189
	.loc 2 556 0 is_stmt 1 discriminator 5
	stw 29,0(30)
	.loc 2 557 0 discriminator 5
	stbx 31,28,29
	.loc 2 558 0 discriminator 5
	li 31,1
.L189:
.LBE1133:
	.loc 2 561 0
	lwz 0,36(1)
	mr 3,31
	lwz 27,12(1)
.LVL180:
	mtlr 0
	lwz 28,16(1)
	lwz 29,20(1)
	lwz 30,24(1)
.LVL181:
	lwz 31,28(1)
	addi 1,1,32
.LCFI24:
	.cfi_def_cfa_offset 0
	.cfi_restore 31
	.cfi_restore 30
	.cfi_restore 29
	.cfi_restore 28
	.cfi_restore 27
	blr
	.cfi_endproc
.LFE2554:
	.size	_ZN5idStr17StripTrailingOnceEPKc, .-_ZN5idStr17StripTrailingOnceEPKc
	.align 2
	.globl _ZN5idStr13StripTrailingEPKc
	.type	_ZN5idStr13StripTrailingEPKc, @function
_ZN5idStr13StripTrailingEPKc:
.LFB2553:
	.loc 2 534 0
	.cfi_startproc
.LVL182:
	stwu 1,-32(1)
.LCFI25:
	.cfi_def_cfa_offset 32
	mflr 0
	stw 30,24(1)
	mr 30,3
	.cfi_offset 30, -8
	.cfi_register 65, 0
.LBB1134:
	.loc 2 537 0
	mr 3,4
.LVL183:
.LBE1134:
	.loc 2 534 0
	stw 27,12(1)
	stw 31,28(1)
	mr 27,4
	.cfi_offset 31, -4
	.cfi_offset 27, -20
	stw 0,36(1)
	stw 28,16(1)
	stw 29,20(1)
.LBB1135:
	.loc 2 537 0
	.cfi_offset 29, -12
	.cfi_offset 28, -16
	.cfi_offset 65, 4
	bl strlen
.LVL184:
	.loc 2 538 0
	mr. 31,3
	ble- 0,.L193
.LVL185:
.L198:
	.loc 2 539 0 discriminator 5
	lwz 29,0(30)
	cmpw 7,31,29
	ble- 7,.L196
.L193:
.LBE1135:
	.loc 2 544 0
	lwz 0,36(1)
	lwz 27,12(1)
.LVL186:
	mtlr 0
	lwz 28,16(1)
	lwz 29,20(1)
	lwz 30,24(1)
.LVL187:
	lwz 31,28(1)
.LVL188:
	addi 1,1,32
	.cfi_remember_state
.LCFI26:
	.cfi_def_cfa_offset 0
	.cfi_restore 31
	.cfi_restore 30
	.cfi_restore 29
	.cfi_restore 28
	.cfi_restore 27
	blr
.LVL189:
.L196:
.LCFI27:
	.cfi_restore_state
.LBB1136:
	.loc 2 539 0 discriminator 2
	lwz 28,4(30)
	subf 29,31,29
	mr 3,27
	mr 5,31
	add 4,28,29
	bl _ZN5idStr4CmpnEPKcS1_i
	cmpwi 0,3,0
	bne- 0,.L193
	.loc 2 540 0 discriminator 5
	stw 29,0(30)
	.loc 2 541 0 discriminator 5
	stbx 3,28,29
	b .L198
.LBE1136:
	.cfi_endproc
.LFE2553:
	.size	_ZN5idStr13StripTrailingEPKc, .-_ZN5idStr13StripTrailingEPKc
	.align 2
	.globl _ZN5idStr16StripLeadingOnceEPKc
	.type	_ZN5idStr16StripLeadingOnceEPKc, @function
_ZN5idStr16StripLeadingOnceEPKc:
.LFB2551:
	.loc 2 503 0
	.cfi_startproc
.LVL190:
	stwu 1,-32(1)
.LCFI28:
	.cfi_def_cfa_offset 32
	mflr 0
	stw 31,28(1)
	mr 31,3
	.cfi_offset 31, -4
	.cfi_register 65, 0
.LBB1137:
	.loc 2 506 0
	mr 3,4
.LVL191:
.LBE1137:
	.loc 2 503 0
	stw 27,12(1)
	stw 29,20(1)
	mr 27,4
	.cfi_offset 29, -12
	.cfi_offset 27, -20
	stw 30,24(1)
.LBB1140:
	.loc 2 512 0
	li 29,0
.LBE1140:
	.loc 2 503 0
	stw 0,36(1)
	stw 28,16(1)
.LBB1141:
	.loc 2 506 0
	.cfi_offset 28, -16
	.cfi_offset 65, 4
	.cfi_offset 30, -8
	bl strlen
.LVL192:
	.loc 2 507 0
	mr. 30,3
	ble- 0,.L200
	.loc 2 1747 0 discriminator 1
	lwz 28,4(31)
.LVL193:
.LBB1138:
.LBB1139:
	.loc 3 680 0 discriminator 1
	mr 4,27
	mr 5,30
	mr 3,28
.LVL194:
	bl _ZN5idStr4CmpnEPKcS1_i
.LVL195:
.LBE1139:
.LBE1138:
	.loc 2 507 0 discriminator 1
	cmpwi 7,3,0
	bne- 7,.L200
	.loc 2 508 0 discriminator 4
	lwz 5,0(31)
	add 4,28,30
	mr 3,28
	.loc 2 510 0 discriminator 4
	li 29,1
	.loc 2 508 0 discriminator 4
	subf 5,30,5
	addi 5,5,1
	bl memmove
	.loc 2 509 0 discriminator 4
	lwz 0,0(31)
	subf 30,30,0
.LVL196:
	stw 30,0(31)
.LVL197:
.L200:
.LBE1141:
	.loc 2 513 0
	lwz 0,36(1)
	mr 3,29
	lwz 27,12(1)
.LVL198:
	mtlr 0
	lwz 28,16(1)
	lwz 29,20(1)
	lwz 30,24(1)
	lwz 31,28(1)
.LVL199:
	addi 1,1,32
.LCFI29:
	.cfi_def_cfa_offset 0
	.cfi_restore 31
	.cfi_restore 30
	.cfi_restore 29
	.cfi_restore 28
	.cfi_restore 27
	blr
	.cfi_endproc
.LFE2551:
	.size	_ZN5idStr16StripLeadingOnceEPKc, .-_ZN5idStr16StripLeadingOnceEPKc
	.align 2
	.globl _ZN5idStr12StripLeadingEPKc
	.type	_ZN5idStr12StripLeadingEPKc, @function
_ZN5idStr12StripLeadingEPKc:
.LFB2550:
	.loc 2 486 0
	.cfi_startproc
.LVL200:
	stwu 1,-24(1)
.LCFI30:
	.cfi_def_cfa_offset 24
	mflr 0
	stw 30,16(1)
	mr 30,3
	.cfi_offset 30, -8
	.cfi_register 65, 0
.LBB1142:
	.loc 2 489 0
	mr 3,4
.LVL201:
.LBE1142:
	.loc 2 486 0
	stw 28,8(1)
	stw 31,20(1)
	mr 28,4
	.cfi_offset 31, -4
	.cfi_offset 28, -16
	stw 0,28(1)
	stw 29,12(1)
.LBB1145:
	.loc 2 489 0
	.cfi_offset 29, -12
	.cfi_offset 65, 4
	bl strlen
.LVL202:
	.loc 2 490 0
	mr. 31,3
	bgt+ 0,.L207
	b .L203
.LVL203:
.L206:
	.loc 2 492 0
	lwz 5,0(30)
	subf 5,31,5
	addi 5,5,1
	bl memmove
	.loc 2 493 0
	lwz 0,0(30)
	subf 0,31,0
	stw 0,0(30)
.LVL204:
.L207:
	.loc 2 1747 0 discriminator 1
	lwz 29,4(30)
.LVL205:
.LBB1143:
.LBB1144:
	.loc 3 680 0 discriminator 1
	mr 4,28
	mr 5,31
	mr 3,29
	bl _ZN5idStr4CmpnEPKcS1_i
.LBE1144:
.LBE1143:
	.loc 2 492 0 discriminator 1
	add 4,29,31
	.loc 2 491 0 discriminator 1
	cmpwi 7,3,0
	.loc 2 492 0 discriminator 1
	mr 3,29
	.loc 2 491 0 discriminator 1
	beq+ 7,.L206
.LVL206:
.L203:
.LBE1145:
	.loc 2 496 0
	lwz 0,28(1)
	lwz 28,8(1)
.LVL207:
	mtlr 0
	lwz 29,12(1)
	lwz 30,16(1)
.LVL208:
	lwz 31,20(1)
.LVL209:
	addi 1,1,24
.LCFI31:
	.cfi_def_cfa_offset 0
	.cfi_restore 31
	.cfi_restore 30
	.cfi_restore 29
	.cfi_restore 28
	blr
	.cfi_endproc
.LFE2550:
	.size	_ZN5idStr12StripLeadingEPKc, .-_ZN5idStr12StripLeadingEPKc
	.align 2
	.globl _ZN5idStr4IcmpEPKcS1_
	.type	_ZN5idStr4IcmpEPKcS1_, @function
_ZN5idStr4IcmpEPKcS1_:
.LFB2579:
	.loc 2 1124 0
	.cfi_startproc
.LVL210:
.LBB1146:
	.loc 2 1124 0
	addi 3,3,-1
.LVL211:
	addi 4,4,-1
.LVL212:
.L217:
	.loc 2 1128 0
	lbzu 9,1(3)
.LVL213:
	.loc 2 1129 0
	lbzu 11,1(4)
.LVL214:
	.loc 2 1133 0
	addi 0,9,-65
	.loc 2 1127 0
	cmpwi 7,9,0
	.loc 2 1132 0
	subf. 9,11,9
.LVL215:
	.loc 2 1133 0
	cmplwi 6,0,25
	.loc 2 1132 0
	beq- 0,.L210
	.loc 2 1139 0
	addi 11,11,-65
.LVL216:
	cmplwi 1,11,25
	.loc 2 1133 0
	bgt- 6,.L211
.LVL217:
	.loc 2 1135 0
	addic. 9,9,32
	beq- 0,.L217
.LVL218:
.L211:
	.loc 2 1139 0
	bgt- 1,.L213
.LVL219:
	.loc 2 1141 0
	addic. 9,9,-32
.LVL220:
	bne- 0,.L213
.LVL221:
.L210:
	.loc 2 1127 0
	bne+ 7,.L217
	.loc 2 1149 0
	li 3,0
.LBE1146:
	.loc 2 1150 0
	blr
.LVL222:
.L213:
.LBB1147:
	.loc 2 1145 0
	nor 9,9,9
.LVL223:
	rlwinm 3,9,2,30,30
	addi 3,3,-1
	blr
.LBE1147:
	.cfi_endproc
.LFE2579:
	.size	_ZN5idStr4IcmpEPKcS1_, .-_ZN5idStr4IcmpEPKcS1_
	.align 2
	.globl _ZN5idStr5IcmpnEPKcS1_i
	.type	_ZN5idStr5IcmpnEPKcS1_i, @function
_ZN5idStr5IcmpnEPKcS1_i:
.LFB2580:
	.loc 2 1157 0
	.cfi_startproc
.LVL224:
	.loc 2 1157 0
	li 9,0
	addi 5,5,1
.LBB1148:
	.loc 2 1163 0
	lbzx 11,3,9
.LVL225:
.LBE1148:
	.loc 2 1157 0
	mtctr 5
.LBB1149:
	.loc 2 1164 0
	lbzx 10,4,9
.LVL226:
	.loc 2 1172 0
	addi 0,11,-65
	.loc 2 1162 0
	cmpwi 7,11,0
	.loc 2 1172 0
	cmplwi 6,0,25
	.loc 2 1171 0
	subf. 11,10,11
.LVL227:
	.loc 2 1166 0
	bdz .L227
.LVL228:
.L229:
	.loc 2 1171 0
	beq- 0,.L221
	.loc 2 1178 0
	addi 10,10,-65
	cmplwi 1,10,25
	.loc 2 1172 0
	bgt- 6,.L222
.LVL229:
	.loc 2 1174 0
	addic. 11,11,32
.LVL230:
	beq- 0,.L223
.LVL231:
.L222:
	.loc 2 1178 0
	bgt- 1,.L224
.LVL232:
	.loc 2 1180 0
	addic. 11,11,-32
.LVL233:
	bne- 0,.L224
.LVL234:
.L221:
	.loc 2 1162 0
	beq- 7,.L228
.L223:
	.loc 2 1157 0
	addi 9,9,1
	.loc 2 1163 0
	lbzx 11,3,9
.LVL235:
	.loc 2 1164 0
	lbzx 10,4,9
.LVL236:
	.loc 2 1172 0
	addi 0,11,-65
	.loc 2 1162 0
	cmpwi 7,11,0
	.loc 2 1172 0
	cmplwi 6,0,25
	.loc 2 1171 0
	subf. 11,10,11
.LVL237:
	.loc 2 1166 0
	bdnz .L229
.LVL238:
.L227:
	.loc 2 1167 0
	li 3,0
.LBE1149:
	.loc 2 1189 0
	blr
.L228:
.LBB1150:
	.loc 2 1188 0
	li 3,0
	blr
.LVL239:
.L224:
	.loc 2 1184 0
	nor 11,11,11
.LVL240:
	rlwinm 3,11,2,30,30
	addi 3,3,-1
	blr
.LBE1150:
	.cfi_endproc
.LFE2580:
	.size	_ZN5idStr5IcmpnEPKcS1_i, .-_ZN5idStr5IcmpnEPKcS1_i
	.align 2
	.globl _ZN5idStr11IcmpNoColorEPKcS1_
	.type	_ZN5idStr11IcmpNoColorEPKcS1_, @function
_ZN5idStr11IcmpNoColorEPKcS1_:
.LFB2581:
	.loc 2 1196 0
	.cfi_startproc
.LVL241:
.L255:
.LBB1151:
.LBB1152:
.LBB1153:
	.loc 3 1007 0
	lbz 0,0(3)
	cmpwi 7,0,94
	mr 9,0
	beq- 7,.L258
.L233:
.LVL242:
.LBE1153:
.LBE1152:
.LBB1155:
.LBB1156:
	.loc 3 1007 0 is_stmt 0 discriminator 1
	lbz 0,0(4)
	cmpwi 7,0,94
	beq- 7,.L236
.L256:
	.loc 3 1007 0
	mr 11,0
.L237:
.LVL243:
.LBE1156:
.LBE1155:
	.loc 2 1210 0 is_stmt 1
	subf. 0,11,9
	.loc 2 1206 0
	addi 3,3,1
.LVL244:
	.loc 2 1207 0
	addi 4,4,1
.LVL245:
	.loc 2 1210 0
	beq- 0,.L240
	.loc 2 1211 0
	addi 10,9,-65
	cmplwi 7,10,25
	ble- 7,.L259
.L241:
	.loc 2 1217 0
	addi 11,11,-65
.LVL246:
	cmplwi 7,11,25
	bgt- 7,.L243
.LVL247:
	.loc 2 1219 0
	addic. 0,0,-32
.LVL248:
	bne- 0,.L243
.LVL249:
.L240:
	.loc 2 1199 0
	cmpwi 7,9,0
	bne+ 7,.L255
	.loc 2 1227 0
	li 3,0
.LVL250:
.LBE1151:
	.loc 2 1228 0
	blr
.LVL251:
.L236:
.LBB1160:
.LBB1158:
.LBB1157:
	.loc 3 1007 0
	lbz 10,1(4)
	li 11,94
	cmpwi 7,10,0
	beq- 7,.L237
	cmpwi 7,10,32
	mr 11,0
	beq- 7,.L237
	mr 11,4
	b .L238
.L260:
	beq- 6,.L252
.L238:
	lbz 0,2(11)
	.loc 2 1196 0
	addi 4,4,2
.LVL252:
	.loc 3 1007 0
	cmpwi 7,0,94
	bne+ 7,.L256
	lbz 0,3(11)
	mr 11,4
	cmpwi 7,0,0
	cmpwi 6,0,32
	bne- 7,.L260
.L252:
	li 11,94
	b .L237
.LVL253:
.L259:
.LBE1157:
.LBE1158:
	.loc 2 1213 0
	addic. 0,0,32
.LVL254:
	bne- 0,.L241
.LVL255:
.LBB1159:
.LBB1154:
	.loc 3 1007 0
	lbz 0,0(3)
.LVL256:
	cmpwi 7,0,94
	mr 9,0
.LVL257:
	bne+ 7,.L233
.LVL258:
.L258:
	lbz 11,1(3)
	li 9,94
	cmpwi 7,11,0
	beq- 7,.L233
	cmpwi 7,11,32
	mr 9,0
	beq- 7,.L233
	mr 11,3
	b .L234
.L261:
	beq- 6,.L248
.L234:
	lbz 9,2(11)
	.loc 2 1196 0
	addi 3,3,2
.LVL259:
	.loc 3 1007 0
	cmpwi 7,9,94
	bne+ 7,.L233
	lbz 0,3(11)
	mr 11,3
	cmpwi 7,0,0
	cmpwi 6,0,32
	bne- 7,.L261
.L248:
	li 9,94
	b .L233
.LVL260:
.L243:
.LBE1154:
.LBE1159:
	.loc 2 1223 0
	nor 0,0,0
.LVL261:
	rlwinm 3,0,2,30,30
.LVL262:
	addi 3,3,-1
	blr
.LBE1160:
	.cfi_endproc
.LFE2581:
	.size	_ZN5idStr11IcmpNoColorEPKcS1_, .-_ZN5idStr11IcmpNoColorEPKcS1_
	.align 2
	.globl _ZN5idStr8IcmpPathEPKcS1_
	.type	_ZN5idStr8IcmpPathEPKcS1_, @function
_ZN5idStr8IcmpPathEPKcS1_:
.LFB2582:
	.loc 2 1235 0
	.cfi_startproc
.LVL263:
.L284:
.LBB1161:
	.loc 2 1244 0
	lbz 9,0(3)
.LVL264:
	addi 3,3,1
.LVL265:
	.loc 2 1245 0
	lbz 11,0(4)
.LVL266:
	addi 4,4,1
.LVL267:
	.loc 2 1248 0
	subf. 0,11,9
	beq- 0,.L264
	.loc 2 1249 0
	addi 10,9,-65
	cmplwi 7,10,25
	bgt- 7,.L265
.LVL268:
	.loc 2 1251 0
	addic. 0,0,32
	beq- 0,.L284
.LVL269:
.L267:
	.loc 2 1261 0
	addi 10,11,-65
	cmplwi 7,10,25
	bgt- 7,.L268
.LVL270:
	.loc 2 1263 0
	addic. 0,0,-32
.LVL271:
	beq- 0,.L264
.L269:
	.loc 2 1274 0 discriminator 1
	cmpwi 6,9,0
	beq- 6,.L270
	.loc 2 1275 0
	cmpwi 7,9,47
	beq- 7,.L270
	cmpwi 7,9,92
	.loc 2 1235 0
	addi 3,3,-1
.LVL272:
	.loc 2 1275 0
	bne+ 7,.L271
	b .L270
.LVL273:
.L275:
	beq- 7,.L270
	.loc 2 1275 0 is_stmt 0 discriminator 1
	beq- 1,.L270
.L271:
	.loc 2 1278 0 is_stmt 1
	lbzu 9,1(3)
.LVL274:
	.loc 2 1274 0
	cmpwi 6,9,0
	.loc 2 1275 0
	cmpwi 7,9,47
	cmpwi 1,9,92
	.loc 2 1274 0
	bne+ 6,.L275
.L270:
	.loc 2 1280 0 discriminator 1
	cmpwi 7,11,0
	beq- 7,.L273
	.loc 2 1281 0
	cmpwi 1,11,47
	beq- 1,.L273
	cmpwi 1,11,92
	.loc 2 1235 0
	addi 4,4,-1
.LVL275:
	.loc 2 1281 0
	bne+ 1,.L274
	b .L273
.LVL276:
.L276:
	beq- 1,.L273
	.loc 2 1281 0 is_stmt 0 discriminator 1
	beq- 0,.L273
.L274:
	.loc 2 1284 0 is_stmt 1
	lbzu 11,1(4)
.LVL277:
	.loc 2 1280 0
	cmpwi 7,11,0
	.loc 2 1281 0
	cmpwi 1,11,47
	cmpwi 0,11,92
	.loc 2 1280 0
	bne+ 7,.L276
.L273:
	.loc 2 1286 0
	beq- 6,.L277
	.loc 2 1286 0 is_stmt 0 discriminator 1
	beq- 7,.L285
.L279:
	.loc 2 1292 0 is_stmt 1
	nor 0,0,0
	rlwinm 3,0,2,30,30
	addi 3,3,-1
	blr
.LVL278:
.L268:
	.loc 2 1267 0
	cmpwi 7,11,92
	bne- 7,.L269
.LVL279:
	.loc 2 1269 0
	addic. 0,0,45
.LVL280:
	bne- 0,.L269
.LVL281:
.L264:
	.loc 2 1243 0
	cmpwi 7,9,0
	bne+ 7,.L284
	.loc 2 1296 0
	li 3,0
.LVL282:
	blr
.LVL283:
.L265:
	.loc 2 1255 0
	cmpwi 7,9,92
	bne+ 7,.L267
.LVL284:
	.loc 2 1257 0
	addic. 0,0,-45
	beq- 0,.L284
	b .L267
.LVL285:
.L277:
	.loc 2 1288 0 discriminator 1
	beq- 7,.L279
	.loc 2 1289 0
	li 3,1
.LBE1161:
	.loc 2 1297 0
	blr
.L285:
.LBB1162:
	.loc 2 1287 0
	li 3,-1
	blr
.LBE1162:
	.cfi_endproc
.LFE2582:
	.size	_ZN5idStr8IcmpPathEPKcS1_, .-_ZN5idStr8IcmpPathEPKcS1_
	.align 2
	.globl _ZN5idStr9IcmpnPathEPKcS1_i
	.type	_ZN5idStr9IcmpnPathEPKcS1_i, @function
_ZN5idStr9IcmpnPathEPKcS1_i:
.LFB2583:
	.loc 2 1304 0
	.cfi_startproc
.LVL286:
.LBB1163:
	.loc 2 1304 0
	addi 5,5,1
.LVL287:
	mtctr 5
.LVL288:
.L316:
	.loc 2 1315 0
	lbz 9,0(3)
.LVL289:
	.loc 2 1316 0
	lbz 11,0(4)
.LVL290:
	.loc 2 1318 0
	bdz .L317
.LVL291:
	.loc 2 1323 0
	subf. 0,11,9
	.loc 2 1315 0
	addi 3,3,1
.LVL292:
	.loc 2 1316 0
	addi 4,4,1
.LVL293:
	.loc 2 1323 0
	beq- 0,.L289
	.loc 2 1324 0
	addi 10,9,-65
	cmplwi 7,10,25
	bgt- 7,.L290
.LVL294:
	.loc 2 1326 0
	addic. 0,0,32
	beq- 0,.L316
.LVL295:
.L292:
	.loc 2 1336 0
	addi 10,11,-65
	cmplwi 7,10,25
	bgt- 7,.L293
.LVL296:
	.loc 2 1338 0
	addic. 0,0,-32
.LVL297:
	beq- 0,.L289
.L294:
.LVL298:
	cmpwi 6,9,0
	.loc 2 1349 0 discriminator 1
	beq- 6,.L295
	.loc 2 1350 0
	cmpwi 7,9,47
	beq- 7,.L295
	cmpwi 7,9,92
	.loc 2 1304 0
	addi 3,3,-1
.LVL299:
	.loc 2 1350 0
	bne+ 7,.L296
	b .L295
.LVL300:
.L300:
	beq- 7,.L295
	.loc 2 1350 0 is_stmt 0 discriminator 1
	beq- 1,.L295
.L296:
	.loc 2 1353 0 is_stmt 1
	lbzu 9,1(3)
.LVL301:
	.loc 2 1349 0
	cmpwi 6,9,0
	.loc 2 1350 0
	cmpwi 7,9,47
	cmpwi 1,9,92
	.loc 2 1349 0
	bne+ 6,.L300
.L295:
.LVL302:
	cmpwi 7,11,0
	.loc 2 1355 0 discriminator 1
	beq- 7,.L298
	.loc 2 1356 0
	cmpwi 1,11,47
	beq- 1,.L298
	cmpwi 1,11,92
	.loc 2 1304 0
	addi 4,4,-1
.LVL303:
	.loc 2 1356 0
	bne+ 1,.L299
	b .L298
.LVL304:
.L301:
	beq- 1,.L298
	.loc 2 1356 0 is_stmt 0 discriminator 1
	beq- 0,.L298
.LVL305:
.L299:
	.loc 2 1359 0 is_stmt 1
	lbzu 9,1(4)
.LVL306:
	.loc 2 1355 0
	cmpwi 7,9,0
	.loc 2 1356 0
	cmpwi 1,9,47
	cmpwi 0,9,92
	.loc 2 1355 0
	bne+ 7,.L301
.LVL307:
.L298:
	.loc 2 1361 0
	beq- 6,.L302
	.loc 2 1361 0 is_stmt 0 discriminator 1
	beq- 7,.L318
.L303:
	.loc 2 1367 0 is_stmt 1
	nor 0,0,0
	rlwinm 3,0,2,30,30
	addi 3,3,-1
	blr
.LVL308:
.L293:
	.loc 2 1342 0
	cmpwi 7,11,92
	bne- 7,.L294
.LVL309:
	.loc 2 1344 0
	addic. 0,0,45
.LVL310:
	bne- 0,.L294
.L289:
	.loc 2 1314 0
	cmpwi 7,9,0
	bne+ 7,.L316
.LVL311:
.L317:
	.loc 2 1319 0
	li 3,0
	blr
.LVL312:
.L290:
	.loc 2 1330 0
	cmpwi 7,9,92
	bne+ 7,.L292
.LVL313:
	.loc 2 1332 0
	addic. 0,0,-45
.LVL314:
	beq- 0,.L316
	b .L292
.LVL315:
.L302:
	.loc 2 1363 0 discriminator 1
	beq- 7,.L303
	.loc 2 1364 0
	li 3,1
.LBE1163:
	.loc 2 1372 0
	blr
.L318:
.LBB1164:
	.loc 2 1362 0
	li 3,-1
	blr
.LBE1164:
	.cfi_endproc
.LFE2583:
	.size	_ZN5idStr9IcmpnPathEPKcS1_i, .-_ZN5idStr9IcmpnPathEPKcS1_i
	.align 2
	.globl _ZN5idStr6CopynzEPcPKci
	.type	_ZN5idStr6CopynzEPcPKci, @function
_ZN5idStr6CopynzEPcPKci:
.LFB2584:
	.loc 2 1381 0
	.cfi_startproc
.LVL316:
	.loc 2 1382 0
	cmpwi 7,4,0
	.loc 2 1381 0
	mflr 0
	stwu 1,-16(1)
.LCFI32:
	.cfi_def_cfa_offset 16
	.cfi_register 65, 0
	stw 30,8(1)
	mr 30,3
	.cfi_offset 30, -8
	stw 31,12(1)
	mr 31,5
	.cfi_offset 31, -4
	stw 0,20(1)
	.loc 2 1382 0
	beq- 7,.L323
	.cfi_offset 65, 4
	.loc 2 1386 0
	cmpwi 7,5,0
	ble- 7,.L324
	.loc 2 1391 0
	addi 5,5,-1
.LVL317:
	.loc 2 1392 0
	add 31,30,31
.LVL318:
	.loc 2 1391 0
	bl strncpy
.LVL319:
	.loc 2 1392 0
	li 0,0
	stb 0,-1(31)
.L319:
	.loc 2 1393 0
	lwz 0,20(1)
	lwz 30,8(1)
.LVL320:
	mtlr 0
	lwz 31,12(1)
	addi 1,1,16
	.cfi_remember_state
.LCFI33:
	.cfi_def_cfa_offset 0
	.cfi_restore 31
	.cfi_restore 30
	blr
.LVL321:
.L324:
.LCFI34:
	.cfi_restore_state
	.loc 2 1387 0
	lis 9,_ZN5idLib6commonE@ha
	lis 4,.LC1@ha
.LVL322:
	lwz 3,_ZN5idLib6commonE@l(9)
.LVL323:
	la 4,.LC1@l(4)
	lwz 9,0(3)
	lwz 0,80(9)
	mtctr 0
	crxor 6,6,6
	bctrl
.LVL324:
	.loc 2 1393 0
	lwz 0,20(1)
	lwz 30,8(1)
.LVL325:
	mtlr 0
	lwz 31,12(1)
.LVL326:
	addi 1,1,16
	.cfi_remember_state
	.cfi_restore 30
	.cfi_restore 31
.LCFI35:
	.cfi_def_cfa_offset 0
	blr
.LVL327:
.L323:
.LCFI36:
	.cfi_restore_state
.LBB1167:
.LBB1168:
	.loc 2 1383 0
	lis 9,_ZN5idLib6commonE@ha
	lis 4,.LC0@ha
.LVL328:
	lwz 3,_ZN5idLib6commonE@l(9)
.LVL329:
	la 4,.LC0@l(4)
	lwz 9,0(3)
	lwz 0,80(9)
	mtctr 0
	crxor 6,6,6
	bctrl
.LVL330:
	b .L319
.LBE1168:
.LBE1167:
	.cfi_endproc
.LFE2584:
	.size	_ZN5idStr6CopynzEPcPKci, .-_ZN5idStr6CopynzEPcPKci
	.align 2
	.globl _ZN5idStr6AppendEPciPKc
	.type	_ZN5idStr6AppendEPciPKc, @function
_ZN5idStr6AppendEPciPKc:
.LFB2585:
	.loc 2 1402 0
	.cfi_startproc
.LVL331:
	mflr 0
	stwu 1,-24(1)
.LCFI37:
	.cfi_def_cfa_offset 24
	.cfi_register 65, 0
	stw 28,8(1)
	mr 28,5
	.cfi_offset 28, -16
	stw 29,12(1)
	stw 30,16(1)
	mr 30,3
	.cfi_offset 30, -8
	.cfi_offset 29, -12
	stw 31,20(1)
	mr 31,4
	.cfi_offset 31, -4
	stw 0,28(1)
.LBB1169:
	.loc 2 1405 0
	.cfi_offset 65, 4
	bl strlen
.LVL332:
	.loc 2 1406 0
	cmpw 7,3,31
	.loc 2 1405 0
	mr 29,3
.LVL333:
	.loc 2 1406 0
	blt+ 7,.L326
	.loc 2 1407 0
	lis 9,_ZN5idLib6commonE@ha
	lis 4,.LC2@ha
	lwz 3,_ZN5idLib6commonE@l(9)
.LVL334:
	la 4,.LC2@l(4)
	lwz 9,0(3)
	lwz 0,96(9)
	mtctr 0
	crxor 6,6,6
	bctrl
.L326:
.LBE1169:
	.loc 2 1410 0
	lwz 0,28(1)
.LBB1170:
	.loc 2 1409 0
	add 3,30,29
	subf 5,29,31
.LBE1170:
	.loc 2 1410 0
	lwz 30,16(1)
.LVL335:
	lwz 29,12(1)
.LVL336:
.LBB1171:
	.loc 2 1409 0
	mr 4,28
.LBE1171:
	.loc 2 1410 0
	lwz 31,20(1)
.LVL337:
	mtlr 0
	lwz 28,8(1)
.LVL338:
	addi 1,1,24
.LCFI38:
	.cfi_def_cfa_offset 0
	.cfi_restore 31
	.cfi_restore 30
	.cfi_restore 29
	.cfi_restore 28
.LBB1172:
	.loc 2 1409 0
	b _ZN5idStr6CopynzEPcPKci
.LVL339:
.LBE1172:
	.cfi_endproc
.LFE2585:
	.size	_ZN5idStr6AppendEPciPKc, .-_ZN5idStr6AppendEPciPKc
	.align 2
	.globl _ZN5idStr19LengthWithoutColorsEPKc
	.type	_ZN5idStr19LengthWithoutColorsEPKc, @function
_ZN5idStr19LengthWithoutColorsEPKc:
.LFB2586:
	.loc 2 1417 0
	.cfi_startproc
.LVL340:
.LBB1173:
	.loc 2 1421 0
	mr. 9,3
	.loc 2 1422 0
	li 3,0
.LVL341:
	.loc 2 1421 0
	beqlr- 0
	lbz 0,0(9)
	b .L337
.LVL342:
.L330:
	.loc 2 1427 0
	lbz 0,1(9)
.L331:
	.loc 2 1432 0
	addi 9,9,1
.LVL343:
	.loc 2 1433 0
	addi 3,3,1
.LVL344:
.L337:
	.loc 2 1427 0 discriminator 1
	cmpwi 7,0,0
.LBB1174:
.LBB1175:
	.loc 3 1007 0 discriminator 1
	cmpwi 6,0,94
.LBE1175:
.LBE1174:
	.loc 2 1427 0 discriminator 1
	beq- 7,.L338
.L332:
.LVL345:
.LBB1179:
.LBB1176:
	.loc 3 1007 0
	bne+ 6,.L330
.LVL346:
	lbz 11,1(9)
	li 0,0
	cmpwi 7,11,0
	cmpwi 6,11,32
	beq- 7,.L331
	beq- 6,.L336
.LVL347:
.LBE1176:
.LBE1179:
	.loc 2 1429 0
	lbz 0,2(9)
	addi 9,9,2
.LVL348:
	.loc 2 1427 0
	cmpwi 7,0,0
.LBB1180:
.LBB1177:
	.loc 3 1007 0
	cmpwi 6,0,94
.LBE1177:
.LBE1180:
	.loc 2 1427 0
	bne+ 7,.L332
.LVL349:
.L338:
.LBE1173:
	.loc 2 1437 0
	blr
.LVL350:
.L336:
.LBB1182:
.LBB1181:
.LBB1178:
	.loc 3 1007 0
	li 0,32
	b .L331
.LBE1178:
.LBE1181:
.LBE1182:
	.cfi_endproc
.LFE2586:
	.size	_ZN5idStr19LengthWithoutColorsEPKc, .-_ZN5idStr19LengthWithoutColorsEPKc
	.align 2
	.globl _ZN5idStr12RemoveColorsEPc
	.type	_ZN5idStr12RemoveColorsEPc, @function
_ZN5idStr12RemoveColorsEPc:
.LFB2587:
	.loc 2 1444 0
	.cfi_startproc
.LVL351:
.LBB1183:
	.loc 2 1451 0
	lbz 0,0(3)
.LVL352:
	mr 11,3
	cmpwi 7,0,0
	beq- 7,.L340
	mr 10,3
	b .L342
.LVL353:
.L341:
	.loc 2 1456 0
	stb 0,0(11)
	.loc 2 1458 0
	addi 10,9,1
	.loc 2 1456 0
	addi 11,11,1
.LVL354:
	.loc 2 1451 0
	lbz 0,1(9)
.LVL355:
	cmpwi 7,0,0
	beq- 7,.L340
.LVL356:
.L342:
.LBB1184:
.LBB1185:
	.loc 3 1007 0
	cmpwi 7,0,94
.LBE1185:
.LBE1184:
	.loc 2 1456 0
	mr 9,10
.LBB1187:
.LBB1186:
	.loc 3 1007 0
	bne+ 7,.L341
.LVL357:
	lbz 8,1(10)
	cmpwi 7,8,0
	cmpwi 6,8,32
	beq- 7,.L341
	beq- 6,.L341
.LBE1186:
.LBE1187:
	.loc 2 1453 0
	addi 9,10,1
.LVL358:
	.loc 2 1451 0
	lbz 0,1(9)
	.loc 2 1458 0
	addi 10,9,1
.LVL359:
	.loc 2 1451 0
	cmpwi 7,0,0
	bne+ 7,.L342
.LVL360:
.L340:
	.loc 2 1460 0
	li 0,0
	stb 0,0(11)
.LBE1183:
	.loc 2 1463 0
	blr
	.cfi_endproc
.LFE2587:
	.size	_ZN5idStr12RemoveColorsEPc, .-_ZN5idStr12RemoveColorsEPc
	.align 2
	.globl _ZN5idStr8snPrintfEPciPKcz
	.type	_ZN5idStr8snPrintfEPciPKcz, @function
_ZN5idStr8snPrintfEPciPKcz:
.LFB2588:
	.loc 2 1470 0
	.cfi_startproc
.LVL361:
	mflr 0
	stwu 1,-32128(1)
.LCFI39:
	.cfi_def_cfa_offset 32128
	.cfi_register 65, 0
	stw 30,32120(1)
	mr 30,3
	.cfi_offset 30, -8
	stw 31,32124(1)
	mr 31,4
	.cfi_offset 31, -4
	stw 0,32132(1)
	stw 29,32116(1)
	stw 6,32028(1)
	stw 7,32032(1)
	stw 8,32036(1)
	stw 9,32040(1)
	stw 10,32044(1)
	bne- 1,.L347
	.cfi_offset 29, -12
	.cfi_offset 65, 4
	.loc 2 1470 0
	stfd 1,32048(1)
	stfd 2,32056(1)
	stfd 3,32064(1)
	stfd 4,32072(1)
	stfd 5,32080(1)
	stfd 6,32088(1)
	stfd 7,32096(1)
	stfd 8,32104(1)
.L347:
.LBB1188:
	.loc 2 1475 0
	li 0,3
	.loc 2 1476 0
	mr 4,5
.LVL362:
	.loc 2 1475 0
	stb 0,8(1)
	li 0,0
	stb 0,9(1)
	addi 0,1,32136
	stw 0,12(1)
	.loc 2 1476 0
	addi 3,1,20
.LVL363:
	.loc 2 1475 0
	addi 0,1,32016
	.loc 2 1476 0
	addi 5,1,8
.LVL364:
	.loc 2 1475 0
	stw 0,16(1)
	.loc 2 1476 0
	bl vsprintf
.LVL365:
	.loc 2 1478 0
	cmplwi 7,3,31999
	.loc 2 1476 0
	mr 29,3
.LVL366:
	.loc 2 1478 0
	bgt- 7,.L350
.LVL367:
.L348:
	.loc 2 1481 0
	cmpw 7,29,31
	blt+ 7,.L349
	.loc 2 1482 0
	lis 9,_ZN5idLib6commonE@ha
	lis 4,.LC4@ha
	lwz 3,_ZN5idLib6commonE@l(9)
	mr 5,29
	la 4,.LC4@l(4)
	mr 6,31
	lwz 9,0(3)
	mr 29,31
.LVL368:
	lwz 0,80(9)
	mtctr 0
	crxor 6,6,6
	bctrl
.LVL369:
.L349:
	.loc 2 1485 0
	mr 3,30
	addi 4,1,20
	mr 5,31
	bl _ZN5idStr6CopynzEPcPKci
.LBE1188:
	.loc 2 1487 0
	lwz 0,32132(1)
	mr 3,29
	lwz 30,32120(1)
.LVL370:
	mtlr 0
	lwz 29,32116(1)
.LVL371:
	lwz 31,32124(1)
.LVL372:
	addi 1,1,32128
	.cfi_remember_state
.LCFI40:
	.cfi_def_cfa_offset 0
	.cfi_restore 31
	.cfi_restore 30
	.cfi_restore 29
	blr
.LVL373:
.L350:
.LCFI41:
	.cfi_restore_state
.LBB1189:
	.loc 2 1479 0
	lis 9,_ZN5idLib6commonE@ha
	lis 4,.LC3@ha
	lwz 3,_ZN5idLib6commonE@l(9)
.LVL374:
	la 4,.LC3@l(4)
	lwz 9,0(3)
	lwz 0,96(9)
	mtctr 0
	crxor 6,6,6
	bctrl
	b .L348
.LBE1189:
	.cfi_endproc
.LFE2588:
	.size	_ZN5idStr8snPrintfEPciPKcz, .-_ZN5idStr8snPrintfEPciPKcz
	.align 2
	.globl _ZN5idStr18FloatArrayToStringEPKfii
	.type	_ZN5idStr18FloatArrayToStringEPKfii, @function
_ZN5idStr18FloatArrayToStringEPKfii:
.LFB2547:
	.loc 2 423 0
	.cfi_startproc
.LVL375:
	mflr 0
	stwu 1,-56(1)
.LCFI42:
	.cfi_def_cfa_offset 56
	.cfi_register 65, 0
	mfcr 12
.LBB1190:
	.loc 2 430 0
	lis 9,.LANCHOR0@ha
.LBE1190:
	.loc 2 423 0
	stw 27,36(1)
.LBB1191:
	.loc 2 430 0
	la 9,.LANCHOR0@l(9)
.LBE1191:
	.loc 2 423 0
	stw 0,60(1)
.LBB1192:
	.loc 2 435 0
	cmpwi 4,5,0
.LBE1192:
	.loc 2 423 0
	stw 28,40(1)
	mr 28,5
	.cfi_offset 28, -16
	.cfi_offset 65, 4
	.cfi_offset 27, -20
	.cfi_register 70, 12
	stw 29,44(1)
.LBB1193:
	.loc 2 433 0
	lis 5,.LC5@ha
.LVL376:
.LBE1193:
	.loc 2 423 0
	stw 30,48(1)
	mr 27,3
	stw 31,52(1)
.LBB1194:
	.loc 2 430 0
	addi 30,9,260
	.cfi_offset 31, -4
	.cfi_offset 30, -8
	.cfi_offset 29, -12
.LBE1194:
	.loc 2 423 0
	stw 12,28(1)
.LBB1195:
	.loc 2 433 0
	la 5,.LC5@l(5)
.LBE1195:
	.loc 2 423 0
	stw 26,32(1)
.LBB1196:
	.loc 2 433 0
	mr 6,28
.LBE1196:
	.loc 2 423 0
	mr 29,4
.LBB1197:
	.loc 2 433 0
	addi 3,1,8
.LVL377:
	.loc 2 430 0
	lwz 10,256(9)
	.loc 2 433 0
	li 4,16
.LVL378:
	.loc 2 431 0
	addi 0,10,1
	.loc 2 430 0
	slwi 11,10,14
	.loc 2 431 0
	rlwinm 0,0,0,30,31
	.loc 2 430 0
	add 30,30,11
.LVL379:
	.loc 2 431 0
	stw 0,256(9)
	.loc 2 433 0
	.cfi_offset 26, -24
	.cfi_offset 70, -28
	crxor 6,6,6
	bl _ZN5idStr8snPrintfEPciPKcz
	.loc 2 434 0
	lfs 1,0(27)
	mr 3,30
	li 4,16384
	addi 5,1,8
	creqv 6,6,6
	bl _ZN5idStr8snPrintfEPciPKcz
	mr 31,3
.LVL380:
	.loc 2 435 0
	ble- 4,.L352
	.loc 2 436 0 discriminator 1
	cmpwi 7,3,0
	ble- 7,.L352
	.loc 2 436 0 is_stmt 0
	add 9,30,3
	li 11,0
	lbz 0,-1(9)
	mtctr 3
	cmpwi 7,0,48
	beq- 7,.L355
	.loc 2 437 0 is_stmt 1
	cmpwi 7,0,46
	beq- 7,.L372
.LVL381:
.L352:
	.loc 2 439 0
	lis 5,.LC6@ha
	addi 3,1,8
	li 4,16
	la 5,.LC6@l(5)
	mr 6,28
	crxor 6,6,6
	bl _ZN5idStr8snPrintfEPciPKcz
.LVL382:
	.loc 2 440 0
	cmpwi 7,29,1
	ble- 7,.L358
	li 26,1
	.loc 2 444 0
	li 28,0
.LVL383:
	b .L365
.LVL384:
.L373:
	cmpwi 7,0,46
	.loc 2 423 0
	add 9,30,31
	.loc 2 444 0
	mtctr 31
	beq- 7,.L367
.L359:
	.loc 2 440 0
	addi 26,26,1
.LVL385:
	cmpw 7,26,29
	beq- 7,.L358
.LVL386:
.L365:
	.loc 2 441 0
	lfsu 1,4(27)
	add 3,30,31
	subfic 4,31,16384
	addi 5,1,8
	creqv 6,6,6
	bl _ZN5idStr8snPrintfEPciPKcz
	add 31,31,3
.LVL387:
	.loc 2 442 0
	ble- 4,.L359
	.loc 2 443 0 discriminator 1
	cmpwi 7,31,0
	ble- 7,.L359
	.loc 2 443 0 is_stmt 0
	add 9,30,31
	mtctr 31
	lbz 0,-1(9)
	cmpwi 7,0,48
	bne+ 7,.L373
.L362:
	.loc 2 443 0 discriminator 5
	stbu 28,-1(9)
	addi 31,31,-1
.LVL388:
	bdz .L359
	.loc 2 443 0 discriminator 2
	lbz 0,-1(9)
	cmpwi 7,0,48
	beq- 7,.L362
	.loc 2 444 0 is_stmt 1
	cmpwi 7,0,46
	.loc 2 423 0
	add 9,30,31
	.loc 2 444 0
	mtctr 31
	bne+ 7,.L359
.L367:
	.loc 2 444 0 is_stmt 0 discriminator 5
	stbu 28,-1(9)
	addi 31,31,-1
.LVL389:
	bdz .L359
	.loc 2 444 0 discriminator 2
	lbz 0,-1(9)
	cmpwi 7,0,46
	beq- 7,.L367
	.loc 2 440 0 is_stmt 1
	addi 26,26,1
.LVL390:
	cmpw 7,26,29
	bne+ 7,.L365
.LVL391:
.L358:
.LBE1197:
	.loc 2 448 0
	lwz 0,60(1)
	mr 3,30
	lwz 12,28(1)
	mtlr 0
	lwz 26,32(1)
	lwz 27,36(1)
	mtcrf 8,12
	lwz 28,40(1)
	lwz 29,44(1)
.LVL392:
	lwz 30,48(1)
.LVL393:
	lwz 31,52(1)
.LVL394:
	addi 1,1,56
	.cfi_remember_state
.LCFI43:
	.cfi_def_cfa_offset 0
	.cfi_restore 70
	.cfi_restore 31
	.cfi_restore 30
	.cfi_restore 29
	.cfi_restore 28
	.cfi_restore 27
	.cfi_restore 26
	blr
.LVL395:
.L355:
.LCFI44:
	.cfi_restore_state
.LBB1198:
	.loc 2 436 0 discriminator 5
	stbu 11,-1(9)
	addi 31,31,-1
.LVL396:
	bdz .L352
	.loc 2 436 0 is_stmt 0 discriminator 2
	lbz 0,-1(9)
	cmpwi 7,0,48
	beq- 7,.L355
	.loc 2 437 0 is_stmt 1
	cmpwi 7,0,46
	bne+ 7,.L352
.L372:
	mtctr 31
	.loc 2 423 0
	add 9,30,31
	.loc 2 437 0
	li 11,0
.L366:
	.loc 2 437 0 is_stmt 0 discriminator 5
	stbu 11,-1(9)
	addi 31,31,-1
.LVL397:
	bdz .L352
	.loc 2 437 0 discriminator 2
	lbz 0,-1(9)
	cmpwi 7,0,46
	bne+ 7,.L352
	b .L366
.LBE1198:
	.cfi_endproc
.LFE2547:
	.size	_ZN5idStr18FloatArrayToStringEPKfii, .-_ZN5idStr18FloatArrayToStringEPKfii
	.align 2
	.globl _ZN5idStr9vsnPrintfEPciPKcP13__va_list_tag
	.type	_ZN5idStr9vsnPrintfEPciPKcP13__va_list_tag, @function
_ZN5idStr9vsnPrintfEPciPKcP13__va_list_tag:
.LFB2589:
	.loc 2 1507 0 is_stmt 1
	.cfi_startproc
.LVL398:
	mflr 0
	stwu 1,-16(1)
.LCFI45:
	.cfi_def_cfa_offset 16
	.cfi_register 65, 0
	stw 30,8(1)
	mr 30,3
	.cfi_offset 30, -8
	stw 0,20(1)
	stw 31,12(1)
	.loc 2 1507 0
	mr 31,4
	.cfi_offset 31, -4
	.cfi_offset 65, 4
.LBB1199:
	.loc 2 1516 0
	bl vsnprintf
.LVL399:
	.loc 2 1519 0
	add 30,30,31
.LVL400:
	.loc 2 1520 0
	cmpwi 0,3,0
	.loc 2 1519 0
	li 0,0
	stb 0,-1(30)
	.loc 2 1520 0
	blt- 0,.L376
	.loc 2 1520 0 is_stmt 0 discriminator 1
	cmpw 7,31,3
	ble- 7,.L376
.LVL401:
.L375:
.LBE1199:
	.loc 2 1524 0 is_stmt 1
	lwz 0,20(1)
	lwz 30,8(1)
	mtlr 0
	lwz 31,12(1)
.LVL402:
	addi 1,1,16
	.cfi_remember_state
.LCFI46:
	.cfi_def_cfa_offset 0
	.cfi_restore 31
	.cfi_restore 30
	blr
.LVL403:
.L376:
.LCFI47:
	.cfi_restore_state
.LBB1200:
	.loc 2 1521 0
	li 3,-1
.LVL404:
	b .L375
.LBE1200:
	.cfi_endproc
.LFE2589:
	.size	_ZN5idStr9vsnPrintfEPciPKcP13__va_list_tag, .-_ZN5idStr9vsnPrintfEPciPKcP13__va_list_tag
	.align 2
	.globl _Z2vaPKcz
	.type	_Z2vaPKcz, @function
_Z2vaPKcz:
.LFB2592:
	.loc 2 1573 0
	.cfi_startproc
.LVL405:
	mflr 0
	stwu 1,-128(1)
.LCFI48:
	.cfi_def_cfa_offset 128
	.cfi_register 65, 0
	stw 31,124(1)
	stw 0,132(1)
	stw 4,28(1)
	stw 5,32(1)
	stw 6,36(1)
	stw 7,40(1)
	stw 8,44(1)
	stw 9,48(1)
	stw 10,52(1)
	bne- 1,.L378
	.cfi_offset 65, 4
	.cfi_offset 31, -4
	.loc 2 1573 0
	stfd 1,56(1)
	stfd 2,64(1)
	stfd 3,72(1)
	stfd 4,80(1)
	stfd 5,88(1)
	stfd 6,96(1)
	stfd 7,104(1)
	stfd 8,112(1)
.L378:
.LBB1201:
	.loc 2 1579 0
	lis 9,.LANCHOR0@ha
.LBE1201:
	.loc 2 1573 0
	mr 4,3
.LBB1202:
	.loc 2 1579 0
	la 9,.LANCHOR0@l(9)
	.loc 2 1583 0
	addi 5,1,8
	.loc 2 1579 0
	addis 9,9,0x1
	lwz 11,260(9)
	addi 31,9,264
	slwi 0,11,14
	add 31,31,0
.LVL406:
	.loc 2 1580 0
	addi 0,11,1
	rlwinm 0,0,0,30,31
	.loc 2 1583 0
	mr 3,31
.LVL407:
	.loc 2 1580 0
	stw 0,260(9)
	.loc 2 1582 0
	li 0,1
	stb 0,8(1)
	li 0,0
	stb 0,9(1)
	addi 0,1,136
	stw 0,12(1)
	addi 0,1,24
	stw 0,16(1)
	.loc 2 1583 0
	bl vsprintf
.LVL408:
.LBE1202:
	.loc 2 1587 0
	lwz 0,132(1)
	mr 3,31
	lwz 31,124(1)
.LVL409:
	mtlr 0
	addi 1,1,128
.LCFI49:
	.cfi_def_cfa_offset 0
	.cfi_restore 31
	blr
	.cfi_endproc
.LFE2592:
	.size	_Z2vaPKcz, .-_Z2vaPKcz
	.align 2
	.globl _ZN5idStr10InitMemoryEv
	.type	_ZN5idStr10InitMemoryEv, @function
_ZN5idStr10InitMemoryEv:
.LFB2595:
	.loc 2 1626 0
	.cfi_startproc
.LVL410:
	stwu 1,-16(1)
.LCFI50:
	.cfi_def_cfa_offset 16
	mflr 0
.LBB1211:
.LBB1212:
.LBB1213:
.LBB1214:
.LBB1215:
.LBB1216:
.LBB1217:
	.file 4 "d:/Data/Nintendo/DoomGX/src/idlib/../idlib/Heap.h"
	.loc 4 216 0
	li 3,36
.LBE1217:
.LBE1216:
.LBE1215:
.LBE1214:
.LBE1213:
.LBE1212:
.LBE1211:
	.loc 2 1626 0
	stw 31,12(1)
.LBB1232:
.LBB1230:
.LBB1228:
.LBB1225:
.LBB1222:
.LBB1220:
.LBB1218:
	.loc 4 215 0
	lis 31,.LANCHOR0@ha
	.cfi_offset 31, -4
	.cfi_register 65, 0
.LBE1218:
.LBE1220:
.LBE1222:
.LBE1225:
.LBE1228:
.LBE1230:
.LBE1232:
	.loc 2 1626 0
	stw 0,20(1)
.LBB1233:
.LBB1231:
.LBB1229:
.LBB1226:
.LBB1223:
.LBB1221:
.LBB1219:
	.loc 4 215 0
	la 31,.LANCHOR0@l(31)
	addis 31,31,0x2
	lwz 9,288(31)
	addi 0,9,1
	.cfi_offset 65, 4
	stw 0,288(31)
	.loc 4 216 0
	bl _Znwj
.LVL411:
.LBE1219:
.LBE1221:
	.file 5 "d:/Data/Nintendo/DoomGX/src/idlib/../idlib/containers/BTree.h"
	.loc 5 377 0
	li 0,0
.LBE1223:
.LBE1226:
	.loc 5 104 0
	addi 9,3,4
.LBB1227:
.LBB1224:
	.loc 5 377 0
	stw 0,4(3)
	.loc 5 384 0
	stw 0,8(3)
	.loc 5 378 0
	stw 0,12(3)
	.loc 5 379 0
	stw 0,16(3)
	.loc 5 380 0
	stw 0,20(3)
	.loc 5 381 0
	stw 0,24(3)
	.loc 5 382 0
	stw 0,28(3)
	.loc 5 383 0
	stw 0,32(3)
.LBE1224:
.LBE1227:
	.loc 5 104 0
	stw 9,272(31)
.LBE1229:
.LBE1231:
.LBE1233:
	.loc 2 1630 0
	lwz 0,20(1)
	lwz 31,12(1)
	mtlr 0
	addi 1,1,16
.LCFI51:
	.cfi_def_cfa_offset 0
	.cfi_restore 31
	blr
	.cfi_endproc
.LFE2595:
	.size	_ZN5idStr10InitMemoryEv, .-_ZN5idStr10InitMemoryEv
	.align 2
	.globl _ZN5idStr17ShowMemoryUsage_fERK9idCmdArgs
	.type	_ZN5idStr17ShowMemoryUsage_fERK9idCmdArgs, @function
_ZN5idStr17ShowMemoryUsage_fERK9idCmdArgs:
.LFB2598:
	.loc 2 1659 0
	.cfi_startproc
.LVL412:
	mflr 0
	stwu 1,-8(1)
.LCFI52:
	.cfi_def_cfa_offset 8
	.cfi_register 65, 0
	.loc 2 1663 0
	lis 10,_ZN5idLib6commonE@ha
	.loc 2 1662 0
	lis 11,.LANCHOR0@ha
	la 11,.LANCHOR0@l(11)
	.loc 2 1663 0
	lwz 3,_ZN5idLib6commonE@l(10)
.LVL413:
	.loc 2 1659 0
	stw 0,12(1)
	.loc 2 1662 0
	addis 11,11,0x2
.LBB1234:
.LBB1235:
	.loc 4 574 0
	li 8,0
.LBE1235:
.LBE1234:
	.loc 2 1663 0
	lwz 9,264(11)
.LVL414:
	lwz 10,0(3)
	lwz 5,300(11)
.LBB1239:
.LBB1236:
	.loc 4 574 0
	cmpwi 7,9,0
.LBE1236:
.LBE1239:
	.loc 2 1663 0
	lwz 6,316(11)
	lwz 0,68(10)
	.cfi_offset 65, 4
	srawi 5,5,10
	lwz 7,312(11)
	srawi 6,6,10
.LVL415:
.L393:
.LBB1240:
.LBB1237:
	.loc 4 574 0
	beq- 7,.L382
.L392:
	.loc 4 575 0
	lwz 11,0(9)
	cmpwi 7,11,0
	blt- 7,.L383
	lwz 9,8(9)
	cmpwi 7,9,0
	.loc 4 574 0
	bne+ 7,.L392
.L382:
.LBE1237:
.LBE1240:
	.loc 2 1663 0
	lis 4,.LC7@ha
	mtctr 0
	la 4,.LC7@l(4)
	crxor 6,6,6
	bctrl
	.loc 2 1665 0
	lwz 0,12(1)
	addi 1,1,8
	.cfi_remember_state
.LCFI53:
	.cfi_def_cfa_offset 0
	mtlr 0
	blr
.L383:
.LCFI54:
	.cfi_restore_state
.LBB1241:
.LBB1238:
	.loc 4 575 0
	lwz 11,12(9)
	lwz 9,8(9)
	cmpwi 7,11,0
	beq- 7,.L394
	cmpwi 7,9,0
	beq- 7,.L386
	lwz 11,0(9)
	cmpwi 6,11,0
	bge+ 6,.L392
.L386:
	.loc 4 576 0
	addi 8,8,1
.LVL416:
	b .L393
.LVL417:
.L394:
	cmpwi 7,9,0
	b .L393
.LBE1238:
.LBE1241:
	.cfi_endproc
.LFE2598:
	.size	_ZN5idStr17ShowMemoryUsage_fERK9idCmdArgs, .-_ZN5idStr17ShowMemoryUsage_fERK9idCmdArgs
	.section	.text._ZN19idDynamicBlockAllocIcLi262144ELi128EE19FreeEmptyBaseBlocksEv,"axG",@progbits,_ZN19idDynamicBlockAllocIcLi262144ELi128EE19FreeEmptyBaseBlocksEv,comdat
	.align 2
	.weak	_ZN19idDynamicBlockAllocIcLi262144ELi128EE19FreeEmptyBaseBlocksEv
	.type	_ZN19idDynamicBlockAllocIcLi262144ELi128EE19FreeEmptyBaseBlocksEv, @function
_ZN19idDynamicBlockAllocIcLi262144ELi128EE19FreeEmptyBaseBlocksEv:
.LFB2777:
	.loc 4 536 0
	.cfi_startproc
.LVL418:
	mflr 0
	stwu 1,-48(1)
.LCFI55:
	.cfi_def_cfa_offset 48
	.cfi_register 65, 0
	mfcr 12
	stw 31,44(1)
	mr 31,3
	.cfi_offset 31, -4
	.cfi_register 70, 12
	stw 0,52(1)
	stw 23,12(1)
	stw 24,16(1)
	stw 25,20(1)
	stw 26,24(1)
	stw 27,28(1)
	stw 28,32(1)
	stw 29,36(1)
	stw 30,40(1)
	stw 12,8(1)
.LBB1282:
	.loc 4 539 0
	lwz 30,0(3)
	.cfi_offset 70, -40
	.cfi_offset 30, -8
	.cfi_offset 29, -12
	.cfi_offset 28, -16
	.cfi_offset 27, -20
	.cfi_offset 26, -24
	.cfi_offset 25, -28
	.cfi_offset 24, -32
	.cfi_offset 23, -36
	.cfi_offset 65, 4
.LVL419:
	cmpwi 7,30,0
	beq- 7,.L395
.LVL420:
	lwz 0,0(30)
.LBB1283:
.LBB1284:
	.loc 4 881 0
	li 28,0
.LBE1284:
.LBE1283:
	.loc 4 555 0
	lis 27,_ZN5idLib3sysE@ha
	.loc 4 540 0
	lwz 29,8(30)
.LVL421:
	cmpwi 7,0,0
	.loc 4 542 0
	blt- 7,.L446
.LVL422:
.L456:
	cmpwi 4,29,0
.L398:
.LVL423:
	.loc 4 539 0 discriminator 1
	beq- 4,.L395
.L461:
	.loc 4 539 0 is_stmt 0
	lwz 0,0(29)
	cmpwi 7,0,0
.LVL424:
.L400:
	.loc 4 540 0 is_stmt 1
	mr 30,29
	lwz 29,8(30)
.LVL425:
	.loc 4 542 0
	bge+ 7,.L456
.LVL426:
.L446:
	.loc 4 542 0 is_stmt 0 discriminator 1
	lwz 23,12(30)
	cmpwi 4,29,0
	cmpwi 7,23,0
	beq- 7,.L398
	.loc 4 542 0 discriminator 3
	beq- 4,.L399
	.loc 2 1747 0 is_stmt 1 discriminator 5
	lwz 0,0(29)
	.loc 4 542 0 discriminator 5
	cmpwi 7,0,0
	bge+ 7,.L400
.L399:
.LVL427:
.LBB1349:
.LBB1346:
.LBB1285:
.LBB1286:
	.loc 5 209 0 discriminator 6
	lwz 9,16(23)
.LBE1286:
.LBE1285:
	.loc 4 880 0 discriminator 6
	addi 24,31,8
.LVL428:
.LBB1339:
.LBB1336:
	.loc 5 209 0 discriminator 6
	cmpwi 7,9,0
	beq- 7,.L401
	.loc 5 210 0
	lwz 0,12(23)
	stw 0,12(9)
	.loc 5 214 0
	lwz 9,12(23)
	cmpwi 7,9,0
	beq- 7,.L403
.L468:
	.loc 5 215 0
	lwz 0,16(23)
	stw 0,16(9)
.L404:
	.loc 5 219 0
	lwz 9,8(23)
	lwz 11,20(9)
	addi 0,11,-1
	stw 0,20(9)
	.loc 5 222 0
	lwz 25,8(23)
.LVL429:
	lwz 0,8(31)
	cmpw 7,25,0
	beq- 7,.L455
.LVL430:
.L452:
	lwz 0,20(25)
	cmpwi 7,0,1
	ble- 7,.L457
.L455:
	.loc 5 240 0
	cmpwi 7,25,0
	beq- 7,.L422
.L458:
	lwz 9,28(25)
	cmpwi 7,9,0
	beq- 7,.L422
	.loc 5 242 0
	lwz 0,0(9)
	lwz 9,0(25)
	cmpw 7,9,0
	ble- 7,.L428
	.loc 5 243 0
	stw 0,0(25)
.L428:
	.loc 5 240 0
	lwz 25,8(25)
.LVL431:
	cmpwi 7,25,0
	bne+ 7,.L458
.L422:
.LVL432:
.LBB1287:
.LBB1288:
.LBB1289:
	.loc 4 228 0
	addi 3,23,-4
	bl _ZdlPv
	.loc 4 230 0
	lwz 9,24(31)
.LBE1289:
.LBE1288:
.LBE1287:
.LBB1292:
	.loc 5 251 0
	lwz 3,8(31)
.LBE1292:
.LBB1300:
.LBB1291:
.LBB1290:
	.loc 4 230 0
	addi 0,9,-1
	stw 0,24(31)
.LBE1290:
.LBE1291:
.LBE1300:
.LBB1301:
	.loc 5 251 0
	lwz 0,20(3)
	cmpwi 7,0,1
	beq- 7,.L459
.L429:
.LBE1301:
.LBE1336:
.LBE1339:
	.loc 4 881 0
	stw 28,12(30)
	.loc 4 882 0
	lwz 11,48(31)
	.loc 4 883 0
	lwz 9,52(31)
	.loc 4 882 0
	addi 0,11,-1
	stw 0,48(31)
.LBB1340:
.LBB1341:
	.loc 4 387 0
	lwz 0,0(30)
	srawi 11,0,31
	xor 0,11,0
	subf 0,11,0
.LBE1341:
.LBE1340:
	.loc 4 883 0
	subf 0,0,9
	stw 0,52(31)
.LBE1346:
.LBE1349:
	.loc 4 544 0
	lwz 9,4(30)
	.loc 4 545 0
	lwz 0,8(30)
	.loc 4 544 0
	cmpwi 7,9,0
	beq- 7,.L430
.LVL433:
.L466:
	.loc 4 545 0
	stw 0,8(9)
	.loc 4 549 0
	lwz 9,8(30)
	.loc 4 550 0
	lwz 0,4(30)
	.loc 4 549 0
	cmpwi 7,9,0
	beq- 7,.L432
.L467:
	.loc 4 550 0
	stw 0,4(9)
	.loc 4 554 0
	lbz 0,29(31)
	cmpwi 7,0,0
	bne- 7,.L460
.L434:
	.loc 4 557 0
	lwz 11,32(31)
	.loc 4 559 0
	mr 3,30
	.loc 4 558 0
	lwz 9,36(31)
	.loc 4 557 0
	addi 0,11,-1
	stw 0,32(31)
.LBB1350:
.LBB1351:
	.loc 4 387 0
	lwz 0,0(30)
	srawi 11,0,31
	xor 0,11,0
	subf 0,11,0
.LBE1351:
.LBE1350:
	.loc 4 558 0
	subfic 0,0,-16
	add 0,9,0
	stw 0,36(31)
	.loc 4 559 0
	bl _Z10Mem_Free16Pv
.LVL434:
	.loc 4 539 0
	bne+ 4,.L461
.LVL435:
.L395:
.LBE1282:
	.loc 4 566 0
	lwz 0,52(1)
	lwz 12,8(1)
	mtlr 0
	lwz 23,12(1)
	lwz 24,16(1)
	mtcrf 8,12
	lwz 25,20(1)
	lwz 26,24(1)
	lwz 27,28(1)
	lwz 28,32(1)
	lwz 29,36(1)
	lwz 30,40(1)
	lwz 31,44(1)
.LVL436:
	addi 1,1,48
	.cfi_remember_state
.LCFI56:
	.cfi_def_cfa_offset 0
	.cfi_restore 70
	.cfi_restore 31
	.cfi_restore 30
	.cfi_restore 29
	.cfi_restore 28
	.cfi_restore 27
	.cfi_restore 26
	.cfi_restore 25
	.cfi_restore 24
	.cfi_restore 23
	blr
.LVL437:
.L457:
.LCFI57:
	.cfi_restore_state
.LBB1360:
.LBB1352:
.LBB1347:
.LBB1343:
.LBB1337:
	.loc 5 224 0
	lwz 26,12(25)
	cmpwi 7,26,0
	beq- 7,.L462
.LVL438:
.LBB1302:
.LBB1303:
	.loc 5 445 0
	lwz 11,24(25)
.LVL439:
	lwz 9,12(11)
	cmpwi 7,9,0
	bne+ 7,.L447
	b .L469
.LVL440:
.L437:
	mr 9,0
.LVL441:
.L447:
	.loc 5 446 0
	stw 26,8(11)
.LVL442:
	.loc 5 445 0
	mr 11,9
	lwz 0,12(9)
	cmpwi 7,0,0
	bne+ 7,.L437
.L407:
	.loc 5 448 0
	stw 26,8(9)
	.loc 5 449 0
	lwz 0,24(26)
	stw 0,12(9)
	.loc 5 450 0
	lwz 11,24(26)
	stw 9,16(11)
	.loc 5 451 0
	lwz 0,24(25)
	.loc 5 452 0
	lwz 9,20(26)
.LVL443:
	.loc 5 451 0
	stw 0,24(26)
	.loc 5 452 0
	lwz 0,20(25)
	add 0,9,0
	stw 0,20(26)
	.loc 5 455 0
	lwz 9,16(25)
	cmpwi 7,9,0
	beq- 7,.L409
	.loc 5 456 0
	stw 26,12(9)
.L410:
	.loc 5 460 0
	lwz 0,16(25)
.LBB1304:
.LBB1305:
.LBB1306:
	.loc 4 228 0
	addi 3,25,-4
.LBE1306:
.LBE1305:
.LBE1304:
	.loc 5 461 0
	lwz 9,8(26)
	.loc 5 460 0
	stw 0,16(26)
	.loc 5 461 0
	lwz 11,20(9)
	addi 0,11,-1
	stw 0,20(9)
.LVL444:
.LBB1309:
.LBB1308:
.LBB1307:
	.loc 4 228 0
	bl _ZdlPv
.LVL445:
	.loc 4 230 0
	lwz 9,16(24)
	addi 0,9,-1
	stw 0,16(24)
.LVL446:
.L411:
.LBE1307:
.LBE1308:
.LBE1309:
.LBE1303:
.LBE1302:
	.loc 5 231 0
	lwz 11,28(26)
	lwz 9,0(26)
	lwz 0,0(11)
	cmpw 7,9,0
	ble- 7,.L416
	.loc 5 232 0
	stw 0,0(26)
.L416:
	.loc 5 235 0
	lwz 0,20(26)
	cmpwi 7,0,4
	bgt- 7,.L464
	.loc 5 222 0
	lwz 25,8(26)
.LVL447:
	lwz 0,0(24)
	cmpw 7,25,0
	bne+ 7,.L452
	b .L455
.LVL448:
.L462:
	.loc 5 226 0
	lwz 3,16(25)
	mr 26,25
	cmpwi 7,3,0
	beq- 7,.L411
.LVL449:
.LBB1311:
.LBB1312:
	.loc 5 445 0
	lwz 11,24(3)
.LVL450:
	lwz 9,12(11)
	cmpwi 7,9,0
	bne+ 7,.L448
	b .L470
.LVL451:
.L440:
	mr 9,0
.LVL452:
.L448:
	.loc 5 446 0
	stw 25,8(11)
.LVL453:
	.loc 5 445 0
	mr 11,9
	lwz 0,12(9)
	cmpwi 7,0,0
	bne+ 7,.L440
.L412:
	.loc 5 448 0
	stw 25,8(9)
	.loc 5 449 0
	lwz 0,24(25)
	stw 0,12(9)
	.loc 5 450 0
	lwz 11,24(25)
	stw 9,16(11)
	.loc 5 451 0
	lwz 0,24(3)
	.loc 5 452 0
	lwz 9,20(25)
.LVL454:
	.loc 5 451 0
	stw 0,24(25)
	.loc 5 452 0
	lwz 0,20(3)
	add 0,9,0
	stw 0,20(25)
	.loc 5 455 0
	lwz 9,16(3)
	cmpwi 7,9,0
	beq- 7,.L414
	.loc 5 456 0
	stw 25,12(9)
.L415:
	.loc 5 460 0
	lwz 0,16(3)
.LBB1313:
.LBB1314:
.LBB1315:
	.loc 4 228 0
	addi 3,3,-4
.LBE1315:
.LBE1314:
.LBE1313:
	.loc 5 461 0
	lwz 9,8(25)
.LBB1320:
.LBB1318:
.LBB1316:
	.loc 4 230 0
	mr 26,25
.LBE1316:
.LBE1318:
.LBE1320:
	.loc 5 460 0
	stw 0,16(25)
	.loc 5 461 0
	lwz 11,20(9)
	addi 0,11,-1
	stw 0,20(9)
.LVL455:
.LBB1321:
.LBB1319:
.LBB1317:
	.loc 4 228 0
	bl _ZdlPv
.LVL456:
	.loc 4 230 0
	lwz 9,16(24)
	addi 0,9,-1
	stw 0,16(24)
.LVL457:
	b .L411
.LVL458:
.L409:
.LBE1317:
.LBE1319:
.LBE1321:
.LBE1312:
.LBE1311:
.LBB1324:
.LBB1310:
	.loc 5 458 0
	lwz 9,8(25)
	stw 26,24(9)
	b .L410
.LVL459:
.L469:
	.loc 5 445 0
	mr 9,11
	b .L407
.LVL460:
.L414:
.LBE1310:
.LBE1324:
.LBB1325:
.LBB1322:
	.loc 5 458 0
	lwz 9,8(3)
	stw 25,24(9)
	b .L415
.LVL461:
.L464:
.LBE1322:
.LBE1325:
.LBB1326:
.LBB1327:
.LBB1328:
.LBB1329:
.LBB1330:
.LBB1331:
	.loc 4 215 0
	lwz 9,24(31)
	.loc 4 216 0
	li 3,36
	.loc 4 215 0
	addi 0,9,1
	stw 0,24(31)
	.loc 4 216 0
	bl _Znwj
.LVL462:
.LBE1331:
.LBE1330:
	.loc 5 378 0
	stw 28,12(3)
	.loc 5 399 0
	addi 10,3,4
	.loc 5 377 0
	stw 28,4(3)
	.loc 5 379 0
	stw 28,16(3)
	.loc 5 380 0
	stw 28,20(3)
	.loc 5 381 0
	stw 28,24(3)
	.loc 5 382 0
	stw 28,28(3)
	.loc 5 383 0
	stw 28,32(3)
	.loc 5 384 0
	stw 28,8(3)
.LBE1329:
.LBE1328:
	.loc 5 400 0
	lwz 0,8(26)
	stw 0,12(3)
	.loc 5 403 0
	lwz 9,24(26)
.LVL463:
	.loc 5 404 0
	stw 10,8(9)
.LVL464:
	.loc 5 405 0
	lwz 0,20(26)
	cmpwi 7,0,3
	ble- 7,.L418
	li 11,3
.LVL465:
.L419:
	.loc 5 406 0
	lwz 9,12(9)
.LVL466:
	.loc 5 405 0
	addi 11,11,2
.LVL467:
	.loc 5 407 0
	stw 10,8(9)
	.loc 5 405 0
	lwz 0,20(26)
	cmpw 7,11,0
	blt+ 7,.L419
.LVL468:
.L418:
	.loc 5 410 0
	lwz 0,0(9)
	stw 0,4(3)
	.loc 5 411 0
	lwz 0,20(26)
	srawi 0,0,1
	addze 0,0
	stw 0,24(3)
	.loc 5 412 0
	lwz 11,24(26)
	.loc 5 413 0
	stw 9,32(3)
	.loc 5 412 0
	stw 11,28(3)
	.loc 5 415 0
	lwz 11,20(26)
	subf 0,0,11
	stw 0,20(26)
	.loc 5 416 0
	lwz 0,12(9)
	stw 0,24(26)
	.loc 5 418 0
	lwz 11,12(9)
	stw 28,16(11)
	.loc 5 419 0
	stw 28,12(9)
	.loc 5 424 0
	lwz 9,16(26)
.LVL469:
	cmpwi 7,9,0
	beq- 7,.L420
	.loc 5 425 0
	stw 10,12(9)
.L421:
	.loc 5 429 0
	lwz 0,16(26)
	.loc 5 433 0
	mr 25,26
	.loc 5 430 0
	stw 26,16(3)
	.loc 5 429 0
	stw 0,20(3)
	.loc 5 431 0
	stw 10,16(26)
	.loc 5 433 0
	lwz 9,8(26)
	lwz 11,20(9)
	addi 0,11,1
	stw 0,20(9)
	b .L455
.LVL470:
.L459:
.LBE1327:
.LBE1326:
.LBB1333:
	.loc 5 251 0
	lwz 9,24(3)
	lwz 0,4(9)
	cmpwi 7,0,0
	bne+ 7,.L429
.LVL471:
.LBB1293:
	.loc 5 253 0
	stw 0,8(9)
.LBB1294:
.LBB1295:
.LBB1296:
	.loc 4 228 0
	addi 3,3,-4
.LVL472:
.LBE1296:
.LBE1295:
.LBE1294:
	.loc 5 254 0
	lwz 9,8(31)
	lwz 0,24(9)
	stw 0,8(31)
.LVL473:
.LBB1299:
.LBB1298:
.LBB1297:
	.loc 4 228 0
	bl _ZdlPv
.LVL474:
	.loc 4 230 0
	lwz 0,24(31)
	addic 0,0,-1
	stw 0,24(31)
.LBE1297:
.LBE1298:
.LBE1299:
.LBE1293:
.LBE1333:
.LBE1337:
.LBE1343:
	.loc 4 881 0
	stw 28,12(30)
	.loc 4 882 0
	lwz 11,48(31)
	.loc 4 883 0
	lwz 9,52(31)
	.loc 4 882 0
	addi 0,11,-1
	stw 0,48(31)
.LBB1344:
.LBB1342:
	.loc 4 387 0
	lwz 0,0(30)
	srawi 11,0,31
	xor 0,11,0
	subf 0,11,0
.LBE1342:
.LBE1344:
	.loc 4 883 0
	subf 0,0,9
	stw 0,52(31)
.LBE1347:
.LBE1352:
	.loc 4 544 0
	lwz 9,4(30)
	.loc 4 545 0
	lwz 0,8(30)
	.loc 4 544 0
	cmpwi 7,9,0
	bne+ 7,.L466
.L430:
	.loc 4 547 0
	stw 0,0(31)
	.loc 4 549 0
	lwz 9,8(30)
	.loc 4 550 0
	lwz 0,4(30)
	.loc 4 549 0
	cmpwi 7,9,0
	bne+ 7,.L467
.L432:
	.loc 4 552 0
	stw 0,4(31)
	.loc 4 554 0
	lbz 0,29(31)
	cmpwi 7,0,0
	beq+ 7,.L434
.L460:
.LBB1353:
.LBB1354:
	.loc 4 387 0
	lwz 5,0(30)
.LBE1354:
.LBE1353:
	.loc 4 555 0
	mr 4,30
	lwz 3,_ZN5idLib3sysE@l(27)
.LBB1357:
.LBB1355:
	.loc 4 387 0
	srawi 0,5,31
.LBE1355:
.LBE1357:
	.loc 4 555 0
	lwz 9,0(3)
.LBB1358:
.LBB1356:
	.loc 4 387 0
	xor 5,0,5
	subf 5,0,5
.LBE1356:
.LBE1358:
	.loc 4 555 0
	lwz 0,48(9)
	addi 5,5,16
	mtctr 0
	bctrl
	b .L434
.LVL475:
.L470:
.LBB1359:
.LBB1348:
.LBB1345:
.LBB1338:
.LBB1334:
.LBB1323:
	.loc 5 445 0
	mr 9,11
	b .L412
.LVL476:
.L401:
.LBE1323:
.LBE1334:
	.loc 5 212 0
	lwz 9,8(23)
	lwz 0,12(23)
	stw 0,24(9)
	.loc 5 214 0
	lwz 9,12(23)
	cmpwi 7,9,0
	bne+ 7,.L468
.L403:
	.loc 5 217 0
	lwz 9,8(23)
	lwz 0,16(23)
	stw 0,28(9)
	b .L404
.LVL477:
.L420:
.LBB1335:
.LBB1332:
	.loc 5 427 0
	lwz 9,8(26)
	stw 10,24(9)
	b .L421
.LBE1332:
.LBE1335:
.LBE1338:
.LBE1345:
.LBE1348:
.LBE1359:
.LBE1360:
	.cfi_endproc
.LFE2777:
	.size	_ZN19idDynamicBlockAllocIcLi262144ELi128EE19FreeEmptyBaseBlocksEv, .-_ZN19idDynamicBlockAllocIcLi262144ELi128EE19FreeEmptyBaseBlocksEv
	.section	".text"
	.align 2
	.globl _ZN5idStr11PurgeMemoryEv
	.type	_ZN5idStr11PurgeMemoryEv, @function
_ZN5idStr11PurgeMemoryEv:
.LFB2597:
	.loc 2 1648 0
	.cfi_startproc
	.loc 2 1650 0
	lis 3,.LANCHOR0@ha
	.loc 2 1648 0
	mflr 0
	.loc 2 1650 0
	la 3,.LANCHOR0@l(3)
	.loc 2 1648 0
	stwu 1,-8(1)
.LCFI58:
	.cfi_def_cfa_offset 8
	.cfi_register 65, 0
	.loc 2 1650 0
	addis 3,3,0x2
	addi 3,3,264
	.loc 2 1648 0
	stw 0,12(1)
	.loc 2 1650 0
	.cfi_offset 65, 4
	bl _ZN19idDynamicBlockAllocIcLi262144ELi128EE19FreeEmptyBaseBlocksEv
	.loc 2 1652 0
	lwz 0,12(1)
	addi 1,1,8
.LCFI59:
	.cfi_def_cfa_offset 0
	mtlr 0
	blr
	.cfi_endproc
.LFE2597:
	.size	_ZN5idStr11PurgeMemoryEv, .-_ZN5idStr11PurgeMemoryEv
	.section	.text._ZN19idDynamicBlockAllocIcLi262144ELi128EE13AllocInternalEi,"axG",@progbits,_ZN19idDynamicBlockAllocIcLi262144ELi128EE13AllocInternalEi,comdat
	.align 2
	.weak	_ZN19idDynamicBlockAllocIcLi262144ELi128EE13AllocInternalEi
	.type	_ZN19idDynamicBlockAllocIcLi262144ELi128EE13AllocInternalEi, @function
_ZN19idDynamicBlockAllocIcLi262144ELi128EE13AllocInternalEi:
.LFB2825:
	.loc 4 727 0
	.cfi_startproc
.LVL478:
	mflr 0
	stwu 1,-32(1)
.LCFI60:
	.cfi_def_cfa_offset 32
	.cfi_register 65, 0
.LBB1406:
	.loc 4 729 0
	addi 4,4,15
.LVL479:
.LBE1406:
	.loc 4 727 0
	stw 28,16(1)
.LBB1490:
	.loc 4 729 0
	rlwinm 28,4,0,0,27
	.cfi_offset 28, -16
.LVL480:
.LBE1490:
	.loc 4 727 0
	stw 30,24(1)
	mr 30,3
	.cfi_offset 30, -8
	stw 0,36(1)
	stw 26,8(1)
	stw 27,12(1)
	stw 29,20(1)
	stw 31,28(1)
.LBB1491:
.LBB1407:
.LBB1408:
	.loc 5 289 0
	lwz 9,8(3)
	lwz 9,24(9)
.LVL481:
	cmpwi 7,9,0
	bne+ 7,.L531
	.cfi_offset 31, -4
	.cfi_offset 29, -12
	.cfi_offset 27, -20
	.cfi_offset 26, -24
	.cfi_offset 65, 4
.LVL482:
	b .L474
.LVL483:
.L476:
	.loc 5 291 0
	lwz 11,0(9)
	cmpw 7,28,11
	ble- 7,.L475
	mr 9,0
.LVL484:
.L531:
	.loc 5 290 0
	lwz 0,12(9)
	cmpwi 7,0,0
	bne+ 7,.L476
.L475:
	.loc 5 296 0
	lwz 31,4(9)
	cmpwi 7,31,0
	bne- 7,.L542
	.loc 5 289 0
	lwz 9,24(9)
.LVL485:
	cmpwi 7,9,0
	bne+ 7,.L531
.L474:
.LBE1408:
.LBE1407:
.LBB1410:
	.loc 4 734 0
	lbz 0,28(30)
	li 31,0
	cmpwi 7,0,0
	beq- 7,.L483
.LBB1411:
.LBB1412:
.LBB1413:
	.file 6 "d:/Data/Nintendo/DoomGX/src/idlib/../idlib/Lib.h"
	.loc 6 158 0
	lis 0,0x3
.LBE1413:
.LBE1412:
	.loc 4 735 0
	addi 29,28,16
.LVL486:
.LBB1416:
.LBB1414:
	.loc 6 158 0
	ori 0,0,65535
	neg 28,28
.LVL487:
	cmpw 7,29,0
	ble- 7,.L543
.LVL488:
.L512:
.LBE1414:
.LBE1416:
	.loc 4 736 0
	lis 3,.LC8@ha
.LVL489:
	mr 4,29
.LVL490:
	la 3,.LC8@l(3)
	crxor 6,6,6
	bl _Z10Sys_PrintfPKcz
.LVL491:
	.loc 4 737 0
	mr 3,29
	bl _Z11Mem_Alloc16i
.LVL492:
	.loc 4 738 0
	mr. 31,3
	beq- 0,.L544
.LVL493:
.L513:
	.loc 4 741 0
	lbz 0,29(30)
	cmpwi 7,0,0
	bne- 7,.L545
.L514:
.LVL494:
	.loc 4 749 0
	li 0,0
.LBB1417:
.LBB1418:
	.loc 4 388 0
	stw 28,0(31)
.LBE1418:
.LBE1417:
	.loc 4 749 0
	stw 0,8(31)
	.loc 4 750 0
	lwz 0,4(30)
	stw 0,4(31)
	.loc 4 751 0
	lwz 9,4(30)
	cmpwi 7,9,0
	beq- 7,.L515
	.loc 4 752 0
	stw 31,8(9)
.L516:
	.loc 4 757 0
	li 0,0
	.loc 4 756 0
	stw 31,4(30)
	.loc 4 757 0
	stw 0,12(31)
	.loc 4 759 0
	lwz 11,32(30)
	.loc 4 760 0
	lwz 9,36(30)
	.loc 4 759 0
	addi 0,11,1
	.loc 4 760 0
	add 29,9,29
	.loc 4 759 0
	stw 0,32(30)
	.loc 4 760 0
	stw 29,36(30)
.LVL495:
.L483:
.LBE1411:
.LBE1410:
.LBE1491:
	.loc 4 764 0
	lwz 0,36(1)
	mr 3,31
	lwz 26,8(1)
	mtlr 0
	lwz 27,12(1)
	lwz 28,16(1)
	lwz 29,20(1)
	lwz 30,24(1)
.LVL496:
	lwz 31,28(1)
.LVL497:
	addi 1,1,32
	.cfi_remember_state
.LCFI61:
	.cfi_def_cfa_offset 0
	.cfi_restore 31
	.cfi_restore 30
	.cfi_restore 29
	.cfi_restore 28
	.cfi_restore 27
	.cfi_restore 26
	blr
.LVL498:
.L542:
.LCFI62:
	.cfi_restore_state
.LBB1492:
.LBB1422:
.LBB1409:
	.loc 5 297 0
	lwz 0,0(9)
	cmpw 7,28,0
	bgt- 7,.L474
.LVL499:
.LBE1409:
.LBE1422:
.LBB1423:
.LBB1424:
	.loc 4 880 0
	lwz 26,12(31)
	addi 27,30,8
.LVL500:
.LBB1425:
.LBB1426:
	.loc 5 209 0
	lwz 9,16(26)
.LVL501:
	cmpwi 7,9,0
	beq- 7,.L546
	.loc 5 210 0
	lwz 0,12(26)
	stw 0,12(9)
.L484:
	.loc 5 214 0
	lwz 9,12(26)
	cmpwi 7,9,0
	beq- 7,.L485
	.loc 5 215 0
	lwz 0,16(26)
	stw 0,16(9)
.L486:
	.loc 5 219 0
	lwz 9,8(26)
	lwz 11,20(9)
	addi 0,11,-1
	stw 0,20(9)
	.loc 5 222 0
	lwz 28,8(26)
.LVL502:
	lwz 0,8(30)
	cmpw 7,0,28
	beq- 7,.L541
.LVL503:
.L538:
	lwz 0,20(28)
	cmpwi 7,0,1
	ble- 7,.L547
.L541:
	.loc 5 240 0
	cmpwi 7,28,0
	beq- 7,.L504
.L548:
	lwz 9,28(28)
	cmpwi 7,9,0
	beq- 7,.L504
	.loc 5 242 0
	lwz 0,0(9)
	lwz 9,0(28)
	cmpw 7,9,0
	ble- 7,.L510
	.loc 5 243 0
	stw 0,0(28)
.L510:
	.loc 5 240 0
	lwz 28,8(28)
.LVL504:
	cmpwi 7,28,0
	bne+ 7,.L548
.L504:
.LVL505:
.LBB1427:
.LBB1428:
.LBB1429:
	.loc 4 228 0
	addi 3,26,-4
	bl _ZdlPv
	.loc 4 230 0
	lwz 9,24(30)
.LBE1429:
.LBE1428:
.LBE1427:
.LBB1432:
	.loc 5 251 0
	lwz 3,8(30)
.LBE1432:
.LBB1440:
.LBB1431:
.LBB1430:
	.loc 4 230 0
	addi 0,9,-1
	stw 0,24(30)
.LBE1430:
.LBE1431:
.LBE1440:
.LBB1441:
	.loc 5 251 0
	lwz 0,20(3)
	cmpwi 7,0,1
	beq- 7,.L549
.LVL506:
.L511:
.LBE1441:
.LBE1426:
.LBE1425:
	.loc 4 881 0
	li 0,0
.LBE1424:
.LBE1423:
.LBE1492:
	.loc 4 764 0
	mr 3,31
.LBB1493:
.LBB1485:
.LBB1482:
	.loc 4 881 0
	stw 0,12(31)
	.loc 4 882 0
	lwz 11,48(30)
	.loc 4 883 0
	lwz 9,52(30)
	.loc 4 882 0
	addi 0,11,-1
	stw 0,48(30)
.LBB1478:
.LBB1479:
	.loc 4 387 0
	lwz 0,0(31)
	srawi 11,0,31
	xor 0,11,0
	subf 0,11,0
.LBE1479:
.LBE1478:
	.loc 4 883 0
	subf 0,0,9
	stw 0,52(30)
.LVL507:
.LBE1482:
.LBE1485:
.LBE1493:
	.loc 4 764 0
	lwz 0,36(1)
	lwz 26,8(1)
.LVL508:
	mtlr 0
	lwz 27,12(1)
.LVL509:
	lwz 28,16(1)
.LVL510:
	lwz 29,20(1)
	lwz 30,24(1)
.LVL511:
	lwz 31,28(1)
.LVL512:
	addi 1,1,32
	.cfi_remember_state
	.cfi_restore 26
	.cfi_restore 27
	.cfi_restore 28
	.cfi_restore 29
	.cfi_restore 30
	.cfi_restore 31
.LCFI63:
	.cfi_def_cfa_offset 0
	blr
.LVL513:
.L547:
.LCFI64:
	.cfi_restore_state
.LBB1494:
.LBB1486:
.LBB1483:
.LBB1480:
.LBB1476:
	.loc 5 224 0
	lwz 29,12(28)
	cmpwi 7,29,0
	beq- 7,.L550
.LVL514:
.LBB1442:
.LBB1443:
	.loc 5 445 0
	lwz 11,24(28)
.LVL515:
	lwz 9,12(11)
	cmpwi 7,9,0
	bne+ 7,.L533
	b .L554
.LVL516:
.L520:
	mr 9,0
.LVL517:
.L533:
	.loc 5 446 0
	stw 29,8(11)
.LVL518:
	.loc 5 445 0
	mr 11,9
	lwz 0,12(9)
	cmpwi 7,0,0
	bne+ 7,.L520
.L489:
	.loc 5 448 0
	stw 29,8(9)
	.loc 5 449 0
	lwz 0,24(29)
	stw 0,12(9)
	.loc 5 450 0
	lwz 11,24(29)
	stw 9,16(11)
	.loc 5 451 0
	lwz 0,24(28)
	.loc 5 452 0
	lwz 9,20(29)
.LVL519:
	.loc 5 451 0
	stw 0,24(29)
	.loc 5 452 0
	lwz 0,20(28)
	add 0,9,0
	stw 0,20(29)
	.loc 5 455 0
	lwz 9,16(28)
	cmpwi 7,9,0
	beq- 7,.L491
	.loc 5 456 0
	stw 29,12(9)
.L492:
	.loc 5 460 0
	lwz 0,16(28)
.LBB1444:
.LBB1445:
.LBB1446:
	.loc 4 228 0
	addi 3,28,-4
.LBE1446:
.LBE1445:
.LBE1444:
	.loc 5 461 0
	lwz 9,8(29)
	.loc 5 460 0
	stw 0,16(29)
	.loc 5 461 0
	lwz 11,20(9)
	addi 0,11,-1
	stw 0,20(9)
.LVL520:
.LBB1449:
.LBB1448:
.LBB1447:
	.loc 4 228 0
	bl _ZdlPv
.LVL521:
	.loc 4 230 0
	lwz 9,16(27)
	addi 0,9,-1
	stw 0,16(27)
.LVL522:
.L493:
.LBE1447:
.LBE1448:
.LBE1449:
.LBE1443:
.LBE1442:
	.loc 5 231 0
	lwz 11,28(29)
	lwz 9,0(29)
	lwz 0,0(11)
	cmpw 7,9,0
	ble- 7,.L498
	.loc 5 232 0
	stw 0,0(29)
.L498:
	.loc 5 235 0
	lwz 0,20(29)
	cmpwi 7,0,4
	bgt- 7,.L552
	.loc 5 222 0
	lwz 28,8(29)
.LVL523:
	lwz 0,0(27)
	cmpw 7,28,0
	bne+ 7,.L538
	b .L541
.LVL524:
.L550:
	.loc 5 226 0
	lwz 3,16(28)
	mr 29,28
	cmpwi 7,3,0
	beq- 7,.L493
.LVL525:
.LBB1451:
.LBB1452:
	.loc 5 445 0
	lwz 11,24(3)
.LVL526:
	lwz 9,12(11)
	cmpwi 7,9,0
	bne+ 7,.L534
	b .L555
.LVL527:
.L523:
	mr 9,0
.LVL528:
.L534:
	.loc 5 446 0
	stw 28,8(11)
.LVL529:
	.loc 5 445 0
	mr 11,9
	lwz 0,12(9)
	cmpwi 7,0,0
	bne+ 7,.L523
.L494:
	.loc 5 448 0
	stw 28,8(9)
	.loc 5 449 0
	lwz 0,24(28)
	stw 0,12(9)
	.loc 5 450 0
	lwz 11,24(28)
	stw 9,16(11)
	.loc 5 451 0
	lwz 0,24(3)
	.loc 5 452 0
	lwz 9,20(28)
.LVL530:
	.loc 5 451 0
	stw 0,24(28)
	.loc 5 452 0
	lwz 0,20(3)
	add 0,9,0
	stw 0,20(28)
	.loc 5 455 0
	lwz 9,16(3)
	cmpwi 7,9,0
	beq- 7,.L496
	.loc 5 456 0
	stw 28,12(9)
.L497:
	.loc 5 460 0
	lwz 0,16(3)
.LBB1453:
.LBB1454:
.LBB1455:
	.loc 4 228 0
	addi 3,3,-4
.LBE1455:
.LBE1454:
.LBE1453:
	.loc 5 461 0
	lwz 9,8(28)
.LBB1460:
.LBB1458:
.LBB1456:
	.loc 4 230 0
	mr 29,28
.LBE1456:
.LBE1458:
.LBE1460:
	.loc 5 460 0
	stw 0,16(28)
	.loc 5 461 0
	lwz 11,20(9)
	addi 0,11,-1
	stw 0,20(9)
.LVL531:
.LBB1461:
.LBB1459:
.LBB1457:
	.loc 4 228 0
	bl _ZdlPv
.LVL532:
	.loc 4 230 0
	lwz 9,16(27)
	addi 0,9,-1
	stw 0,16(27)
.LVL533:
	b .L493
.LVL534:
.L491:
.LBE1457:
.LBE1459:
.LBE1461:
.LBE1452:
.LBE1451:
.LBB1464:
.LBB1450:
	.loc 5 458 0
	lwz 9,8(28)
	stw 29,24(9)
	b .L492
.LVL535:
.L554:
	.loc 5 445 0
	mr 9,11
	b .L489
.LVL536:
.L496:
.LBE1450:
.LBE1464:
.LBB1465:
.LBB1462:
	.loc 5 458 0
	lwz 9,8(3)
	stw 28,24(9)
	b .L497
.LVL537:
.L552:
.LBE1462:
.LBE1465:
.LBB1466:
.LBB1467:
.LBB1468:
.LBB1469:
.LBB1470:
.LBB1471:
	.loc 4 215 0
	lwz 9,24(30)
	.loc 4 216 0
	li 3,36
	.loc 4 215 0
	addi 0,9,1
	stw 0,24(30)
	.loc 4 216 0
	bl _Znwj
.LVL538:
.LBE1471:
.LBE1470:
	.loc 5 377 0
	li 0,0
	.loc 5 378 0
	stw 0,12(3)
	.loc 5 399 0
	addi 10,3,4
	.loc 5 377 0
	stw 0,4(3)
	.loc 5 379 0
	stw 0,16(3)
	.loc 5 380 0
	stw 0,20(3)
	.loc 5 381 0
	stw 0,24(3)
	.loc 5 382 0
	stw 0,28(3)
	.loc 5 383 0
	stw 0,32(3)
	.loc 5 384 0
	stw 0,8(3)
.LBE1469:
.LBE1468:
	.loc 5 400 0
	lwz 0,8(29)
	stw 0,12(3)
	.loc 5 403 0
	lwz 9,24(29)
.LVL539:
	.loc 5 404 0
	stw 10,8(9)
.LVL540:
	.loc 5 405 0
	lwz 0,20(29)
	cmpwi 7,0,3
	ble- 7,.L500
	li 11,3
.LVL541:
.L501:
	.loc 5 406 0
	lwz 9,12(9)
.LVL542:
	.loc 5 405 0
	addi 11,11,2
.LVL543:
	.loc 5 407 0
	stw 10,8(9)
	.loc 5 405 0
	lwz 0,20(29)
	cmpw 7,11,0
	blt+ 7,.L501
.LVL544:
.L500:
	.loc 5 410 0
	lwz 11,0(9)
	.loc 5 418 0
	li 0,0
	.loc 5 410 0
	stw 11,4(3)
	.loc 5 411 0
	lwz 11,20(29)
	srawi 11,11,1
	addze 11,11
	stw 11,24(3)
	.loc 5 412 0
	lwz 8,24(29)
	.loc 5 413 0
	stw 9,32(3)
	.loc 5 412 0
	stw 8,28(3)
	.loc 5 415 0
	lwz 8,20(29)
	subf 11,11,8
	stw 11,20(29)
	.loc 5 416 0
	lwz 11,12(9)
	stw 11,24(29)
	.loc 5 418 0
	lwz 11,12(9)
	stw 0,16(11)
	.loc 5 419 0
	stw 0,12(9)
	.loc 5 424 0
	lwz 9,16(29)
.LVL545:
	cmpwi 7,9,0
	beq- 7,.L502
	.loc 5 425 0
	stw 10,12(9)
.L503:
	.loc 5 429 0
	lwz 0,16(29)
	.loc 5 433 0
	mr 28,29
	.loc 5 430 0
	stw 29,16(3)
	.loc 5 429 0
	stw 0,20(3)
	.loc 5 431 0
	stw 10,16(29)
	.loc 5 433 0
	lwz 9,8(29)
	lwz 11,20(9)
	addi 0,11,1
	stw 0,20(9)
	b .L541
.LVL546:
.L549:
.LBE1467:
.LBE1466:
.LBB1473:
	.loc 5 251 0
	lwz 9,24(3)
	lwz 0,4(9)
	cmpwi 7,0,0
	bne+ 7,.L511
.LVL547:
.LBB1433:
	.loc 5 253 0
	stw 0,8(9)
.LBB1434:
.LBB1435:
.LBB1436:
	.loc 4 228 0
	addi 3,3,-4
.LVL548:
.LBE1436:
.LBE1435:
.LBE1434:
	.loc 5 254 0
	lwz 9,8(30)
	lwz 0,24(9)
	stw 0,8(30)
.LVL549:
.LBB1439:
.LBB1438:
.LBB1437:
	.loc 4 228 0
	bl _ZdlPv
.LVL550:
	.loc 4 230 0
	lwz 0,24(30)
	addic 0,0,-1
	stw 0,24(30)
	b .L511
.LVL551:
.L543:
.LBE1437:
.LBE1438:
.LBE1439:
.LBE1433:
.LBE1473:
.LBE1476:
.LBE1480:
.LBE1483:
.LBE1486:
.LBB1487:
.LBB1420:
.LBB1419:
.LBB1415:
	.loc 6 158 0
	lis 28,0xfffc
	lis 29,0x4
.LVL552:
	ori 28,28,16
	b .L512
.LVL553:
.L545:
.LBE1415:
.LBE1419:
	.loc 4 742 0
	lis 9,_ZN5idLib3sysE@ha
	mr 4,31
	lwz 3,_ZN5idLib3sysE@l(9)
	lis 5,0x4
	lwz 9,0(3)
	lwz 0,44(9)
	mtctr 0
	bctrl
	b .L514
.LVL554:
.L555:
.LBE1420:
.LBE1487:
.LBB1488:
.LBB1484:
.LBB1481:
.LBB1477:
.LBB1474:
.LBB1463:
	.loc 5 445 0
	mr 9,11
	b .L494
.LVL555:
.L485:
.LBE1463:
.LBE1474:
	.loc 5 217 0
	lwz 9,8(26)
	lwz 0,16(26)
	stw 0,28(9)
	b .L486
.L546:
	.loc 5 212 0
	lwz 9,8(26)
	lwz 0,12(26)
	stw 0,24(9)
	b .L484
.LVL556:
.L502:
.LBB1475:
.LBB1472:
	.loc 5 427 0
	lwz 9,8(29)
	stw 10,24(9)
	b .L503
.LVL557:
.L515:
.LBE1472:
.LBE1475:
.LBE1477:
.LBE1481:
.LBE1484:
.LBE1488:
.LBB1489:
.LBB1421:
	.loc 4 754 0
	stw 31,0(30)
	b .L516
.LVL558:
.L544:
	.loc 4 739 0
	lis 3,.LC9@ha
	mr 4,29
	la 3,.LC9@l(3)
	crxor 6,6,6
	bl _Z9Sys_ErrorPKcz
	b .L513
.LBE1421:
.LBE1489:
.LBE1494:
	.cfi_endproc
.LFE2825:
	.size	_ZN19idDynamicBlockAllocIcLi262144ELi128EE13AllocInternalEi, .-_ZN19idDynamicBlockAllocIcLi262144ELi128EE13AllocInternalEi
	.section	.text._ZN19idDynamicBlockAllocIcLi262144ELi128EE12FreeInternalEP14idDynamicBlockIcE,"axG",@progbits,_ZN19idDynamicBlockAllocIcLi262144ELi128EE12FreeInternalEP14idDynamicBlockIcE,comdat
	.align 2
	.weak	_ZN19idDynamicBlockAllocIcLi262144ELi128EE12FreeInternalEP14idDynamicBlockIcE
	.type	_ZN19idDynamicBlockAllocIcLi262144ELi128EE12FreeInternalEP14idDynamicBlockIcE, @function
_ZN19idDynamicBlockAllocIcLi262144ELi128EE12FreeInternalEP14idDynamicBlockIcE:
.LFB2829:
	.loc 4 833 0
	.cfi_startproc
.LVL559:
	stwu 1,-48(1)
.LCFI65:
	.cfi_def_cfa_offset 48
	mflr 0
	stw 27,28(1)
.LBB1648:
	.loc 4 842 0
	lwz 27,8(4)
	.cfi_offset 27, -20
	.cfi_register 65, 0
.LVL560:
.LBE1648:
	.loc 4 833 0
	stw 26,24(1)
	mr 26,4
	.cfi_offset 26, -24
.LBB2037:
	.loc 4 843 0
	cmpwi 7,27,0
.LBE2037:
	.loc 4 833 0
	stw 28,32(1)
	stw 29,36(1)
	mr 28,3
	.cfi_offset 29, -12
	.cfi_offset 28, -16
	stw 0,52(1)
	addi 29,3,8
	stw 23,12(1)
	stw 24,16(1)
	stw 25,20(1)
	stw 30,40(1)
	stw 31,44(1)
.LBB2038:
	.loc 4 843 0
	beq- 7,.L557
	.cfi_offset 31, -4
	.cfi_offset 30, -8
	.cfi_offset 25, -28
	.cfi_offset 24, -32
	.cfi_offset 23, -36
	.cfi_offset 65, 4
.LVL561:
	.loc 4 843 0 is_stmt 0 discriminator 1
	lwz 0,0(27)
	cmpwi 7,0,0
	blt- 7,.L557
	.loc 4 843 0 discriminator 3
	lwz 25,12(27)
	cmpwi 7,25,0
	beq- 7,.L557
.LVL562:
.LBB1649:
.LBB1650:
.LBB1651:
.LBB1652:
	.loc 5 209 0 is_stmt 1 discriminator 5
	lwz 9,16(25)
	cmpwi 7,9,0
	beq- 7,.L558
	.loc 5 210 0
	lwz 0,12(25)
	stw 0,12(9)
.LVL563:
.L559:
	.loc 5 214 0
	lwz 9,12(25)
	cmpwi 7,9,0
	beq- 7,.L560
	.loc 5 215 0
	lwz 0,16(25)
	stw 0,16(9)
.L561:
	.loc 5 219 0
	lwz 9,8(25)
	lwz 11,20(9)
	addi 0,11,-1
	stw 0,20(9)
	.loc 5 222 0
	lwz 30,8(25)
.LVL564:
	lwz 0,8(28)
	cmpw 7,30,0
	beq- 7,.L719
.LVL565:
.L713:
	lwz 0,20(30)
	cmpwi 7,0,1
	ble- 7,.L722
.L719:
	.loc 5 240 0
	cmpwi 7,30,0
	beq- 7,.L579
.L723:
	lwz 9,28(30)
	cmpwi 7,9,0
	beq- 7,.L579
	.loc 5 242 0
	lwz 0,0(9)
	lwz 9,0(30)
	cmpw 7,9,0
	ble- 7,.L585
	.loc 5 243 0
	stw 0,0(30)
.L585:
	.loc 5 240 0
	lwz 30,8(30)
.LVL566:
	cmpwi 7,30,0
	bne+ 7,.L723
.L579:
.LVL567:
.LBB1653:
.LBB1654:
.LBB1655:
	.loc 4 228 0
	addi 3,25,-4
	bl _ZdlPv
	.loc 4 230 0
	lwz 9,24(28)
.LBE1655:
.LBE1654:
.LBE1653:
.LBB1658:
	.loc 5 251 0
	lwz 3,8(28)
.LBE1658:
.LBB1666:
.LBB1657:
.LBB1656:
	.loc 4 230 0
	addi 0,9,-1
	stw 0,24(28)
.LBE1656:
.LBE1657:
.LBE1666:
.LBB1667:
	.loc 5 251 0
	lwz 0,20(3)
	cmpwi 7,0,1
	beq- 7,.L724
.LVL568:
.L586:
.LBE1667:
.LBE1652:
.LBE1651:
	.loc 4 881 0
	li 0,0
	stw 0,12(27)
	.loc 4 882 0
	lwz 11,48(28)
	.loc 4 883 0
	lwz 9,52(28)
	.loc 4 882 0
	addi 0,11,-1
	stw 0,48(28)
.LBB1711:
.LBB1712:
	.loc 4 387 0
	lwz 0,0(27)
	srawi 10,0,31
	xor 0,10,0
	subf 0,10,0
.LBE1712:
.LBE1711:
	.loc 4 883 0
	subf 0,0,9
	stw 0,52(28)
	.loc 2 1747 0
	lwz 0,0(26)
.LBE1650:
.LBE1649:
.LBB1727:
.LBB1728:
	.loc 4 387 0
	lwz 11,0(27)
.LBE1728:
.LBE1727:
.LBB1731:
.LBB1732:
	srawi 10,0,31
.LBE1732:
.LBE1731:
.LBB1734:
.LBB1735:
	.loc 4 388 0
	cmpwi 7,0,0
.LBE1735:
.LBE1734:
.LBB1738:
.LBB1733:
	.loc 4 387 0
	xor 9,10,0
	subf 9,10,9
.LBE1733:
.LBE1738:
.LBB1739:
.LBB1729:
	srawi 10,11,31
	xor 0,10,11
.LBE1729:
.LBE1739:
	.loc 4 845 0
	addi 9,9,16
.LBB1740:
.LBB1730:
	.loc 4 387 0
	subf 0,10,0
.LBE1730:
.LBE1740:
	.loc 4 845 0
	add 0,9,0
.LVL569:
.LBB1741:
.LBB1736:
	.loc 4 388 0
	blt- 7,.L725
.LVL570:
.L587:
	stw 0,0(26)
.LBE1736:
.LBE1741:
	.loc 4 846 0
	lwz 0,8(27)
	stw 0,8(26)
	.loc 4 847 0
	lwz 9,8(27)
	cmpwi 7,9,0
	beq- 7,.L588
	.loc 4 848 0
	stw 26,4(9)
.LVL571:
.L557:
	.loc 4 855 0
	lwz 25,4(26)
.LVL572:
	.loc 2 1747 0
	lwz 30,0(26)
	.loc 4 856 0
	cmpwi 7,25,0
	beq- 7,.L590
	.loc 4 856 0 is_stmt 0 discriminator 1
	cmpwi 7,30,0
	blt- 7,.L590
	.loc 4 856 0 discriminator 3
	lwz 27,12(25)
.LVL573:
	cmpwi 7,27,0
	beq- 7,.L590
.LVL574:
.LBB1742:
.LBB1743:
.LBB1744:
.LBB1745:
	.loc 5 209 0 is_stmt 1 discriminator 5
	lwz 9,16(27)
	cmpwi 7,9,0
	beq- 7,.L591
	.loc 5 210 0
	lwz 0,12(27)
	stw 0,12(9)
.L592:
	.loc 5 214 0
	lwz 9,12(27)
	cmpwi 7,9,0
	beq- 7,.L593
	.loc 5 215 0
	lwz 0,16(27)
	stw 0,16(9)
.L594:
	.loc 5 219 0
	lwz 9,8(27)
	lwz 11,20(9)
	addi 0,11,-1
	stw 0,20(9)
	.loc 5 222 0
	lwz 30,8(27)
.LVL575:
	lwz 0,8(28)
	cmpw 7,30,0
	beq- 7,.L721
.LVL576:
.L716:
	lwz 0,20(30)
	cmpwi 7,0,1
	ble- 7,.L726
.L721:
	.loc 5 240 0
	cmpwi 7,30,0
	beq- 7,.L612
.L727:
	lwz 9,28(30)
	cmpwi 7,9,0
	beq- 7,.L612
	.loc 5 242 0
	lwz 0,0(9)
	lwz 9,0(30)
	cmpw 7,9,0
	ble- 7,.L618
	.loc 5 243 0
	stw 0,0(30)
.L618:
	.loc 5 240 0
	lwz 30,8(30)
.LVL577:
	cmpwi 7,30,0
	bne+ 7,.L727
.L612:
.LVL578:
.LBB1746:
.LBB1747:
.LBB1748:
	.loc 4 228 0
	addi 3,27,-4
	bl _ZdlPv
	.loc 4 230 0
	lwz 9,24(28)
.LBE1748:
.LBE1747:
.LBE1746:
.LBB1751:
	.loc 5 251 0
	lwz 3,8(28)
.LBE1751:
.LBB1759:
.LBB1750:
.LBB1749:
	.loc 4 230 0
	addi 0,9,-1
	stw 0,24(28)
.LBE1749:
.LBE1750:
.LBE1759:
.LBB1760:
	.loc 5 251 0
	lwz 0,20(3)
	cmpwi 7,0,1
	beq- 7,.L728
.LVL579:
.L619:
.LBE1760:
.LBE1745:
.LBE1744:
	.loc 4 881 0
	li 0,0
	stw 0,12(25)
	.loc 4 882 0
	lwz 11,48(28)
	.loc 4 883 0
	lwz 9,52(28)
	.loc 4 882 0
	addi 0,11,-1
	stw 0,48(28)
.LBB1804:
.LBB1805:
	.loc 4 387 0
	lwz 0,0(25)
	srawi 11,0,31
	xor 0,11,0
	subf 0,11,0
.LBE1805:
.LBE1804:
	.loc 4 883 0
	subf 0,0,9
	stw 0,52(28)
	.loc 2 1747 0
	lwz 0,0(25)
.LBE1743:
.LBE1742:
.LBB1820:
.LBB1821:
	.loc 4 387 0
	lwz 11,0(26)
.LBE1821:
.LBE1820:
.LBB1824:
.LBB1825:
	srawi 10,0,31
.LBE1825:
.LBE1824:
.LBB1827:
.LBB1828:
	.loc 4 388 0
	cmpwi 7,0,0
.LBE1828:
.LBE1827:
.LBB1831:
.LBB1826:
	.loc 4 387 0
	xor 9,10,0
	subf 9,10,9
.LBE1826:
.LBE1831:
.LBB1832:
.LBB1822:
	srawi 10,11,31
	xor 0,10,11
.LBE1822:
.LBE1832:
	.loc 4 858 0
	addi 9,9,16
.LBB1833:
.LBB1823:
	.loc 4 387 0
	subf 0,10,0
.LBE1823:
.LBE1833:
	.loc 4 858 0
	add 0,9,0
.LVL580:
.LBB1834:
.LBB1829:
	.loc 4 388 0
	blt- 7,.L729
.LVL581:
.L620:
	stw 0,0(25)
.LBE1829:
.LBE1834:
	.loc 4 859 0
	lwz 0,8(26)
	stw 0,8(25)
	.loc 4 860 0
	lwz 9,8(26)
	cmpwi 7,9,0
	beq- 7,.L621
	.loc 4 861 0
	stw 25,4(9)
.L622:
.LVL582:
.LBB1835:
.LBB1836:
.LBB1837:
.LBB1838:
	.loc 5 117 0
	lwz 9,8(28)
.LBE1838:
.LBE1837:
.LBB1897:
.LBB1898:
	.loc 4 387 0
	lwz 30,0(25)
.LVL583:
.LBE1898:
.LBE1897:
.LBB1901:
.LBB1887:
	.loc 5 117 0
	lwz 0,20(9)
.LBE1887:
.LBE1901:
.LBB1902:
.LBB1899:
	.loc 4 387 0
	srawi 11,30,31
.LBE1899:
.LBE1902:
.LBB1903:
.LBB1888:
	.loc 5 117 0
	cmpwi 7,0,3
.LBE1888:
.LBE1903:
.LBB1904:
.LBB1900:
	.loc 4 387 0
	xor 30,11,30
	subf 30,11,30
.LVL584:
.LBE1900:
.LBE1904:
.LBB1905:
.LBB1889:
	.loc 5 117 0
	bgt- 7,.L730
.LVL585:
.L623:
.LBB1839:
.LBB1840:
.LBB1841:
.LBB1842:
	.loc 4 215 0
	lwz 9,24(28)
	.loc 4 216 0
	li 3,36
.LBE1842:
.LBE1841:
.LBE1840:
.LBE1839:
.LBB1848:
.LBB1849:
	.loc 5 418 0
	li 24,0
.LBE1849:
.LBE1848:
.LBB1856:
.LBB1847:
.LBB1845:
.LBB1843:
	.loc 4 215 0
	addi 0,9,1
	stw 0,24(28)
	.loc 4 216 0
	bl _Znwj
.LBE1843:
.LBE1845:
	.loc 5 378 0
	li 0,0
	stw 0,12(3)
.LBB1846:
.LBB1844:
	.loc 4 216 0
	mr 26,3
.LVL586:
.LBE1844:
.LBE1846:
	.loc 5 379 0
	stw 0,16(3)
	.loc 5 128 0
	addi 23,3,4
	.loc 5 380 0
	stw 0,20(3)
	.loc 5 381 0
	stw 0,24(3)
	.loc 5 382 0
	stw 0,28(3)
	.loc 5 383 0
	stw 0,32(3)
.LBE1847:
.LBE1856:
	.loc 5 129 0
	stw 30,4(3)
	.loc 5 130 0
	stw 25,8(3)
	.loc 5 132 0
	lwz 11,8(28)
.LVL587:
	lwz 31,24(11)
	cmpwi 7,31,0
	beq- 7,.L731
.LVL588:
.L646:
	.loc 5 134 0
	lwz 0,0(11)
	cmpw 7,30,0
	ble- 7,.L702
	.loc 5 135 0
	stw 30,0(11)
.LVL589:
	b .L702
.L632:
	.loc 5 140 0
	lwz 0,0(31)
	cmpw 6,30,0
	ble- 6,.L631
	mr 31,9
.LVL590:
.L702:
	.loc 5 139 0
	lwz 9,12(31)
	cmpwi 7,9,0
	bne+ 7,.L632
.L631:
	.loc 5 145 0
	lwz 27,4(31)
	cmpwi 6,27,0
	bne- 6,.L732
	.loc 5 180 0
	lwz 0,20(31)
	cmpwi 7,0,3
	bgt- 7,.L733
.LVL591:
.L641:
	.loc 5 182 0
	mr 11,31
.LVL592:
.L734:
	.loc 5 132 0
	lwz 31,24(11)
	cmpwi 7,31,0
	bne+ 7,.L646
.L731:
	.loc 5 189 0
	lwz 0,8(28)
	stw 0,12(26)
	.loc 5 190 0
	lwz 9,8(28)
	stw 30,0(9)
	.loc 5 191 0
	lwz 9,8(28)
	stw 23,24(9)
	.loc 5 192 0
	lwz 9,8(28)
	stw 23,28(9)
	.loc 5 193 0
	lwz 9,8(28)
	lwz 11,20(9)
.LVL593:
	addi 0,11,1
	stw 0,20(9)
.L640:
.LBE1889:
.LBE1905:
	.loc 4 873 0
	stw 23,12(25)
	.loc 4 874 0
	lwz 11,48(28)
	.loc 4 875 0
	lwz 9,52(28)
	.loc 4 874 0
	addi 0,11,1
	stw 0,48(28)
.LBB1906:
.LBB1907:
	.loc 4 387 0
	lwz 0,0(25)
	srawi 10,0,31
	xor 0,10,0
	subf 0,10,0
.LBE1907:
.LBE1906:
	.loc 4 875 0
	add 0,9,0
	stw 0,52(28)
.LBE1836:
.LBE1835:
.LBE2038:
	.loc 4 869 0
	lwz 0,52(1)
	lwz 23,12(1)
	mtlr 0
	lwz 24,16(1)
	lwz 25,20(1)
.LVL594:
	lwz 26,24(1)
.LVL595:
	lwz 27,28(1)
	lwz 28,32(1)
.LVL596:
	lwz 29,36(1)
.LVL597:
	lwz 30,40(1)
.LVL598:
	lwz 31,44(1)
	addi 1,1,48
	.cfi_remember_state
	.cfi_restore 23
	.cfi_restore 24
	.cfi_restore 25
	.cfi_restore 26
	.cfi_restore 27
	.cfi_restore 28
	.cfi_restore 29
	.cfi_restore 30
	.cfi_restore 31
.LCFI66:
	.cfi_def_cfa_offset 0
	blr
.LVL599:
.L733:
.LCFI67:
	.cfi_restore_state
.LBB2039:
.LBB1922:
.LBB1915:
.LBB1908:
.LBB1890:
.LBB1857:
.LBB1854:
.LBB1850:
.LBB1851:
.LBB1852:
.LBB1853:
	.loc 4 215 0
	lwz 9,16(29)
	.loc 4 216 0
	li 3,36
	.loc 4 215 0
	addi 0,9,1
	stw 0,16(29)
	.loc 4 216 0
	bl _Znwj
.LVL600:
.LBE1853:
.LBE1852:
	.loc 5 378 0
	stw 27,12(3)
	.loc 5 399 0
	addi 10,3,4
	.loc 5 377 0
	stw 27,4(3)
	.loc 5 379 0
	stw 27,16(3)
	.loc 5 380 0
	stw 27,20(3)
	.loc 5 381 0
	stw 27,24(3)
	.loc 5 382 0
	stw 27,28(3)
	.loc 5 383 0
	stw 27,32(3)
	.loc 5 384 0
	stw 27,8(3)
.LBE1851:
.LBE1850:
	.loc 5 400 0
	lwz 0,8(31)
	stw 0,12(3)
	.loc 5 403 0
	lwz 9,24(31)
.LVL601:
	.loc 5 404 0
	stw 10,8(9)
.LVL602:
	.loc 5 405 0
	lwz 0,20(31)
	cmpwi 7,0,3
	ble- 7,.L642
	li 11,3
.LVL603:
.L643:
	.loc 5 406 0
	lwz 9,12(9)
.LVL604:
	.loc 5 405 0
	addi 11,11,2
.LVL605:
	.loc 5 407 0
	stw 10,8(9)
	.loc 5 405 0
	lwz 0,20(31)
	cmpw 7,11,0
	blt+ 7,.L643
.LVL606:
.L642:
	.loc 5 410 0
	lwz 0,0(9)
	stw 0,4(3)
	.loc 5 411 0
	lwz 0,20(31)
	srawi 0,0,1
	addze 0,0
	stw 0,24(3)
	.loc 5 412 0
	lwz 11,24(31)
	.loc 5 413 0
	stw 9,32(3)
	.loc 5 412 0
	stw 11,28(3)
	.loc 5 415 0
	lwz 11,20(31)
	subf 0,0,11
	stw 0,20(31)
	.loc 5 416 0
	lwz 0,12(9)
	stw 0,24(31)
	.loc 5 418 0
	lwz 11,12(9)
	stw 24,16(11)
	.loc 5 419 0
	stw 24,12(9)
	.loc 5 424 0
	lwz 9,16(31)
.LVL607:
	cmpwi 7,9,0
	beq- 7,.L644
	.loc 5 425 0
	stw 10,12(9)
.L645:
	.loc 5 429 0
	lwz 0,16(31)
	.loc 5 430 0
	stw 31,16(3)
	.loc 5 429 0
	stw 0,20(3)
	.loc 5 431 0
	stw 10,16(31)
	.loc 5 433 0
	lwz 9,8(31)
	lwz 11,20(9)
	addi 0,11,1
	stw 0,20(9)
.LBE1854:
.LBE1857:
	.loc 5 182 0
	lwz 9,16(31)
	lwz 0,0(9)
	cmpw 7,30,0
	bgt- 7,.L641
	mr 31,9
.LVL608:
	mr 11,31
	b .L734
.LVL609:
.L726:
.LBE1890:
.LBE1908:
.LBE1915:
.LBE1922:
.LBB1923:
.LBB1813:
.LBB1806:
.LBB1797:
	.loc 5 224 0
	lwz 31,12(30)
	cmpwi 7,31,0
	beq- 7,.L735
.LVL610:
.LBB1761:
.LBB1762:
	.loc 5 445 0
	lwz 11,24(30)
.LVL611:
	lwz 9,12(11)
	cmpwi 7,9,0
	bne+ 7,.L708
	b .L750
.LVL612:
.L681:
	mr 9,0
.LVL613:
.L708:
	.loc 5 446 0
	stw 31,8(11)
.LVL614:
	.loc 5 445 0
	mr 11,9
	lwz 0,12(9)
	cmpwi 7,0,0
	bne+ 7,.L681
.L597:
	.loc 5 448 0
	stw 31,8(9)
	.loc 5 449 0
	lwz 0,24(31)
	stw 0,12(9)
	.loc 5 450 0
	lwz 11,24(31)
	stw 9,16(11)
	.loc 5 451 0
	lwz 0,24(30)
	.loc 5 452 0
	lwz 9,20(31)
.LVL615:
	.loc 5 451 0
	stw 0,24(31)
	.loc 5 452 0
	lwz 0,20(30)
	add 0,9,0
	stw 0,20(31)
	.loc 5 455 0
	lwz 9,16(30)
	cmpwi 7,9,0
	beq- 7,.L599
	.loc 5 456 0
	stw 31,12(9)
.L600:
	.loc 5 460 0
	lwz 0,16(30)
.LBB1763:
.LBB1764:
.LBB1765:
	.loc 4 228 0
	addi 3,30,-4
.LBE1765:
.LBE1764:
.LBE1763:
	.loc 5 461 0
	lwz 9,8(31)
	.loc 5 460 0
	stw 0,16(31)
	.loc 5 461 0
	lwz 11,20(9)
	addi 0,11,-1
	stw 0,20(9)
.LVL616:
.LBB1768:
.LBB1767:
.LBB1766:
	.loc 4 228 0
	bl _ZdlPv
.LVL617:
	.loc 4 230 0
	lwz 9,16(29)
	addi 0,9,-1
	stw 0,16(29)
.LVL618:
.L601:
.LBE1766:
.LBE1767:
.LBE1768:
.LBE1762:
.LBE1761:
	.loc 5 231 0
	lwz 11,28(31)
	lwz 9,0(31)
	lwz 0,0(11)
	cmpw 7,9,0
	ble- 7,.L606
	.loc 5 232 0
	stw 0,0(31)
.L606:
	.loc 5 235 0
	lwz 0,20(31)
	cmpwi 7,0,4
	bgt- 7,.L737
	.loc 5 222 0
	lwz 30,8(31)
.LVL619:
	lwz 0,0(29)
	cmpw 7,30,0
	bne+ 7,.L716
	b .L721
.LVL620:
.L735:
	.loc 5 226 0
	lwz 3,16(30)
	mr 31,30
	cmpwi 7,3,0
	beq- 7,.L601
.LVL621:
.LBB1771:
.LBB1772:
	.loc 5 445 0
	lwz 11,24(3)
.LVL622:
	lwz 9,12(11)
	cmpwi 7,9,0
	bne+ 7,.L709
	b .L751
.LVL623:
.L684:
	mr 9,0
.LVL624:
.L709:
	.loc 5 446 0
	stw 30,8(11)
.LVL625:
	.loc 5 445 0
	mr 11,9
	lwz 0,12(9)
	cmpwi 7,0,0
	bne+ 7,.L684
.L602:
	.loc 5 448 0
	stw 30,8(9)
	.loc 5 449 0
	lwz 0,24(30)
	stw 0,12(9)
	.loc 5 450 0
	lwz 11,24(30)
	stw 9,16(11)
	.loc 5 451 0
	lwz 0,24(3)
	.loc 5 452 0
	lwz 9,20(30)
.LVL626:
	.loc 5 451 0
	stw 0,24(30)
	.loc 5 452 0
	lwz 0,20(3)
	add 0,9,0
	stw 0,20(30)
	.loc 5 455 0
	lwz 9,16(3)
	cmpwi 7,9,0
	beq- 7,.L604
	.loc 5 456 0
	stw 30,12(9)
.L605:
	.loc 5 460 0
	lwz 0,16(3)
.LBB1773:
.LBB1774:
.LBB1775:
	.loc 4 228 0
	addi 3,3,-4
.LBE1775:
.LBE1774:
.LBE1773:
	.loc 5 461 0
	lwz 9,8(30)
.LBB1780:
.LBB1778:
.LBB1776:
	.loc 4 230 0
	mr 31,30
.LBE1776:
.LBE1778:
.LBE1780:
	.loc 5 460 0
	stw 0,16(30)
	.loc 5 461 0
	lwz 11,20(9)
	addi 0,11,-1
	stw 0,20(9)
.LVL627:
.LBB1781:
.LBB1779:
.LBB1777:
	.loc 4 228 0
	bl _ZdlPv
.LVL628:
	.loc 4 230 0
	lwz 9,16(29)
	addi 0,9,-1
	stw 0,16(29)
.LVL629:
	b .L601
.LVL630:
.L599:
.LBE1777:
.LBE1779:
.LBE1781:
.LBE1772:
.LBE1771:
.LBB1784:
.LBB1769:
	.loc 5 458 0
	lwz 9,8(30)
	stw 31,24(9)
	b .L600
.LVL631:
.L722:
.LBE1769:
.LBE1784:
.LBE1797:
.LBE1806:
.LBE1813:
.LBE1923:
.LBB1924:
.LBB1720:
.LBB1713:
.LBB1704:
	.loc 5 224 0
	lwz 31,12(30)
	cmpwi 7,31,0
	beq- 7,.L739
.LVL632:
.LBB1668:
.LBB1669:
	.loc 5 445 0
	lwz 11,24(30)
.LVL633:
	lwz 9,12(11)
	cmpwi 7,9,0
	bne+ 7,.L704
	b .L752
.LVL634:
.L676:
	mr 9,0
.LVL635:
.L704:
	.loc 5 446 0
	stw 31,8(11)
.LVL636:
	.loc 5 445 0
	mr 11,9
	lwz 0,12(9)
	cmpwi 7,0,0
	bne+ 7,.L676
.L564:
	.loc 5 448 0
	stw 31,8(9)
	.loc 5 449 0
	lwz 0,24(31)
	stw 0,12(9)
	.loc 5 450 0
	lwz 11,24(31)
	stw 9,16(11)
	.loc 5 451 0
	lwz 0,24(30)
	.loc 5 452 0
	lwz 9,20(31)
.LVL637:
	.loc 5 451 0
	stw 0,24(31)
	.loc 5 452 0
	lwz 0,20(30)
	add 0,9,0
	stw 0,20(31)
	.loc 5 455 0
	lwz 9,16(30)
	cmpwi 7,9,0
	beq- 7,.L566
	.loc 5 456 0
	stw 31,12(9)
.L567:
	.loc 5 460 0
	lwz 0,16(30)
.LBB1670:
.LBB1671:
.LBB1672:
	.loc 4 228 0
	addi 3,30,-4
.LBE1672:
.LBE1671:
.LBE1670:
	.loc 5 461 0
	lwz 9,8(31)
	.loc 5 460 0
	stw 0,16(31)
	.loc 5 461 0
	lwz 11,20(9)
	addi 0,11,-1
	stw 0,20(9)
.LVL638:
.LBB1675:
.LBB1674:
.LBB1673:
	.loc 4 228 0
	bl _ZdlPv
.LVL639:
	.loc 4 230 0
	lwz 9,16(29)
	addi 0,9,-1
	stw 0,16(29)
.LVL640:
.L568:
.LBE1673:
.LBE1674:
.LBE1675:
.LBE1669:
.LBE1668:
	.loc 5 231 0
	lwz 11,28(31)
	lwz 9,0(31)
	lwz 0,0(11)
	cmpw 7,9,0
	ble- 7,.L573
	.loc 5 232 0
	stw 0,0(31)
.L573:
	.loc 5 235 0
	lwz 0,20(31)
	cmpwi 7,0,4
	bgt- 7,.L741
	.loc 5 222 0
	lwz 30,8(31)
.LVL641:
	lwz 0,0(29)
	cmpw 7,30,0
	bne+ 7,.L713
	b .L719
.LVL642:
.L739:
	.loc 5 226 0
	lwz 3,16(30)
	mr 31,30
	cmpwi 7,3,0
	beq- 7,.L568
.LVL643:
.LBB1678:
.LBB1679:
	.loc 5 445 0
	lwz 11,24(3)
.LVL644:
	lwz 9,12(11)
	cmpwi 7,9,0
	bne+ 7,.L705
	b .L753
.LVL645:
.L679:
	mr 9,0
.LVL646:
.L705:
	.loc 5 446 0
	stw 30,8(11)
.LVL647:
	.loc 5 445 0
	mr 11,9
	lwz 0,12(9)
	cmpwi 7,0,0
	bne+ 7,.L679
.L569:
	.loc 5 448 0
	stw 30,8(9)
	.loc 5 449 0
	lwz 0,24(30)
	stw 0,12(9)
	.loc 5 450 0
	lwz 11,24(30)
	stw 9,16(11)
	.loc 5 451 0
	lwz 0,24(3)
	.loc 5 452 0
	lwz 9,20(30)
.LVL648:
	.loc 5 451 0
	stw 0,24(30)
	.loc 5 452 0
	lwz 0,20(3)
	add 0,9,0
	stw 0,20(30)
	.loc 5 455 0
	lwz 9,16(3)
	cmpwi 7,9,0
	beq- 7,.L571
	.loc 5 456 0
	stw 30,12(9)
.L572:
	.loc 5 460 0
	lwz 0,16(3)
.LBB1680:
.LBB1681:
.LBB1682:
	.loc 4 228 0
	addi 3,3,-4
.LBE1682:
.LBE1681:
.LBE1680:
	.loc 5 461 0
	lwz 9,8(30)
.LBB1687:
.LBB1685:
.LBB1683:
	.loc 4 230 0
	mr 31,30
.LBE1683:
.LBE1685:
.LBE1687:
	.loc 5 460 0
	stw 0,16(30)
	.loc 5 461 0
	lwz 11,20(9)
	addi 0,11,-1
	stw 0,20(9)
.LVL649:
.LBB1688:
.LBB1686:
.LBB1684:
	.loc 4 228 0
	bl _ZdlPv
.LVL650:
	.loc 4 230 0
	lwz 9,16(29)
	addi 0,9,-1
	stw 0,16(29)
.LVL651:
	b .L568
.LVL652:
.L566:
.LBE1684:
.LBE1686:
.LBE1688:
.LBE1679:
.LBE1678:
.LBB1691:
.LBB1676:
	.loc 5 458 0
	lwz 9,8(30)
	stw 31,24(9)
	b .L567
.LVL653:
.L590:
.LBE1676:
.LBE1691:
.LBE1704:
.LBE1713:
.LBE1720:
.LBE1924:
.LBB1925:
.LBB1926:
.LBB1927:
.LBB1928:
	.loc 4 387 0
	srawi 0,30,31
.LBE1928:
.LBE1927:
.LBB1930:
.LBB1931:
	.loc 5 117 0
	lwz 9,8(28)
.LBE1931:
.LBE1930:
.LBB1989:
.LBB1929:
	.loc 4 387 0
	xor 30,0,30
	subf 30,0,30
.LVL654:
.LBE1929:
.LBE1989:
.LBB1990:
.LBB1980:
	.loc 5 117 0
	lwz 0,20(9)
	cmpwi 7,0,3
	bgt- 7,.L743
.LVL655:
.L673:
.LBB1932:
.LBB1933:
.LBB1934:
.LBB1935:
	.loc 4 215 0
	lwz 9,24(28)
	.loc 4 216 0
	li 3,36
.LBE1935:
.LBE1934:
.LBE1933:
.LBE1932:
.LBB1941:
.LBB1942:
	.loc 5 418 0
	li 24,0
.LBE1942:
.LBE1941:
.LBB1949:
.LBB1940:
.LBB1938:
.LBB1936:
	.loc 4 215 0
	addi 0,9,1
	stw 0,24(28)
	.loc 4 216 0
	bl _Znwj
.LBE1936:
.LBE1938:
	.loc 5 378 0
	li 0,0
	stw 0,12(3)
.LBB1939:
.LBB1937:
	.loc 4 216 0
	mr 25,3
.LVL656:
.LBE1937:
.LBE1939:
	.loc 5 379 0
	stw 0,16(3)
	.loc 5 128 0
	addi 23,3,4
	.loc 5 380 0
	stw 0,20(3)
	.loc 5 381 0
	stw 0,24(3)
	.loc 5 382 0
	stw 0,28(3)
	.loc 5 383 0
	stw 0,32(3)
.LBE1940:
.LBE1949:
	.loc 5 129 0
	stw 30,4(3)
	.loc 5 130 0
	stw 26,8(3)
	.loc 5 132 0
	lwz 11,8(28)
.LVL657:
	lwz 31,24(11)
	cmpwi 7,31,0
	beq- 7,.L744
.LVL658:
.L670:
	.loc 5 134 0
	lwz 0,0(11)
	cmpw 7,30,0
	ble- 7,.L703
	.loc 5 135 0
	stw 30,0(11)
.LVL659:
	b .L703
.L656:
	.loc 5 140 0
	lwz 0,0(31)
	cmpw 6,30,0
	ble- 6,.L655
	mr 31,9
.LVL660:
.L703:
	.loc 5 139 0
	lwz 9,12(31)
	cmpwi 7,9,0
	bne+ 7,.L656
.L655:
	.loc 5 145 0
	lwz 27,4(31)
	cmpwi 6,27,0
	bne- 6,.L745
	.loc 5 180 0
	lwz 0,20(31)
	cmpwi 7,0,3
	bgt- 7,.L746
.LVL661:
.L665:
	.loc 5 182 0
	mr 11,31
.LVL662:
.L747:
	.loc 5 132 0
	lwz 31,24(11)
	cmpwi 7,31,0
	bne+ 7,.L670
.L744:
	.loc 5 189 0
	lwz 0,8(28)
	stw 0,12(25)
	.loc 5 190 0
	lwz 9,8(28)
	stw 30,0(9)
	.loc 5 191 0
	lwz 9,8(28)
	stw 23,24(9)
	.loc 5 192 0
	lwz 9,8(28)
	stw 23,28(9)
	.loc 5 193 0
	lwz 9,8(28)
	lwz 11,20(9)
.LVL663:
	addi 0,11,1
	stw 0,20(9)
.L664:
.LBE1980:
.LBE1990:
	.loc 4 873 0
	stw 23,12(26)
	.loc 4 874 0
	lwz 11,48(28)
	.loc 4 875 0
	lwz 9,52(28)
	.loc 4 874 0
	addi 0,11,1
	stw 0,48(28)
.LBB1991:
.LBB1992:
	.loc 4 387 0
	lwz 0,0(26)
	srawi 11,0,31
	xor 0,11,0
	subf 0,11,0
.LBE1992:
.LBE1991:
	.loc 4 875 0
	add 0,9,0
	stw 0,52(28)
.LBE1926:
.LBE1925:
.LBE2039:
	.loc 4 869 0
	lwz 0,52(1)
	lwz 23,12(1)
	mtlr 0
	lwz 24,16(1)
	lwz 25,20(1)
.LVL664:
	lwz 26,24(1)
.LVL665:
	lwz 27,28(1)
	lwz 28,32(1)
.LVL666:
	lwz 29,36(1)
.LVL667:
	lwz 30,40(1)
.LVL668:
	lwz 31,44(1)
	addi 1,1,48
	.cfi_remember_state
.LCFI68:
	.cfi_def_cfa_offset 0
	.cfi_restore 31
	.cfi_restore 30
	.cfi_restore 29
	.cfi_restore 28
	.cfi_restore 27
	.cfi_restore 26
	.cfi_restore 25
	.cfi_restore 24
	.cfi_restore 23
	blr
.LVL669:
.L746:
.LCFI69:
	.cfi_restore_state
.LBB2040:
.LBB2009:
.LBB2001:
.LBB1993:
.LBB1981:
.LBB1950:
.LBB1947:
.LBB1943:
.LBB1944:
.LBB1945:
.LBB1946:
	.loc 4 215 0
	lwz 9,16(29)
	.loc 4 216 0
	li 3,36
	.loc 4 215 0
	addi 0,9,1
	stw 0,16(29)
	.loc 4 216 0
	bl _Znwj
.LVL670:
.LBE1946:
.LBE1945:
	.loc 5 378 0
	stw 27,12(3)
	.loc 5 399 0
	addi 10,3,4
	.loc 5 377 0
	stw 27,4(3)
	.loc 5 379 0
	stw 27,16(3)
	.loc 5 380 0
	stw 27,20(3)
	.loc 5 381 0
	stw 27,24(3)
	.loc 5 382 0
	stw 27,28(3)
	.loc 5 383 0
	stw 27,32(3)
	.loc 5 384 0
	stw 27,8(3)
.LBE1944:
.LBE1943:
	.loc 5 400 0
	lwz 0,8(31)
	stw 0,12(3)
	.loc 5 403 0
	lwz 9,24(31)
.LVL671:
	.loc 5 404 0
	stw 10,8(9)
.LVL672:
	.loc 5 405 0
	lwz 0,20(31)
	cmpwi 7,0,3
	ble- 7,.L666
	li 11,3
.LVL673:
.L667:
	.loc 5 406 0
	lwz 9,12(9)
.LVL674:
	.loc 5 405 0
	addi 11,11,2
.LVL675:
	.loc 5 407 0
	stw 10,8(9)
	.loc 5 405 0
	lwz 0,20(31)
	cmpw 7,11,0
	blt+ 7,.L667
.LVL676:
.L666:
	.loc 5 410 0
	lwz 0,0(9)
	stw 0,4(3)
	.loc 5 411 0
	lwz 0,20(31)
	srawi 0,0,1
	addze 0,0
	stw 0,24(3)
	.loc 5 412 0
	lwz 11,24(31)
	.loc 5 413 0
	stw 9,32(3)
	.loc 5 412 0
	stw 11,28(3)
	.loc 5 415 0
	lwz 11,20(31)
	subf 0,0,11
	stw 0,20(31)
	.loc 5 416 0
	lwz 0,12(9)
	stw 0,24(31)
	.loc 5 418 0
	lwz 11,12(9)
	stw 24,16(11)
	.loc 5 419 0
	stw 24,12(9)
	.loc 5 424 0
	lwz 9,16(31)
.LVL677:
	cmpwi 7,9,0
	beq- 7,.L668
	.loc 5 425 0
	stw 10,12(9)
.L669:
	.loc 5 429 0
	lwz 0,16(31)
	.loc 5 430 0
	stw 31,16(3)
	.loc 5 429 0
	stw 0,20(3)
	.loc 5 431 0
	stw 10,16(31)
	.loc 5 433 0
	lwz 9,8(31)
	lwz 11,20(9)
	addi 0,11,1
	stw 0,20(9)
.LBE1947:
.LBE1950:
	.loc 5 182 0
	lwz 9,16(31)
	lwz 0,0(9)
	cmpw 7,30,0
	bgt- 7,.L665
	mr 31,9
.LVL678:
	mr 11,31
	b .L747
.LVL679:
.L750:
.LBE1981:
.LBE1993:
.LBE2001:
.LBE2009:
.LBB2010:
.LBB1814:
.LBB1807:
.LBB1798:
.LBB1785:
.LBB1770:
	.loc 5 445 0
	mr 9,11
	b .L597
.LVL680:
.L644:
.LBE1770:
.LBE1785:
.LBE1798:
.LBE1807:
.LBE1814:
.LBE2010:
.LBB2011:
.LBB1916:
.LBB1909:
.LBB1891:
.LBB1858:
.LBB1855:
	.loc 5 427 0
	lwz 9,8(31)
	stw 10,24(9)
	b .L645
.LVL681:
.L668:
.LBE1855:
.LBE1858:
.LBE1891:
.LBE1909:
.LBE1916:
.LBE2011:
.LBB2012:
.LBB2002:
.LBB1994:
.LBB1982:
.LBB1951:
.LBB1948:
	lwz 9,8(31)
	stw 10,24(9)
	b .L669
.LVL682:
.L732:
.LBE1948:
.LBE1951:
.LBE1982:
.LBE1994:
.LBE2002:
.LBE2012:
.LBB2013:
.LBB1917:
.LBB1910:
.LBB1892:
	.loc 5 147 0
	lwz 0,0(31)
	cmpw 6,30,0
	ble- 6,.L748
	.loc 5 159 0
	beq- 7,.L638
	.loc 5 160 0
	stw 23,16(9)
.L639:
	.loc 5 164 0
	stw 31,20(26)
	.loc 5 165 0
	lwz 0,12(31)
	stw 0,16(26)
	.loc 5 166 0
	stw 23,12(31)
.L637:
	.loc 5 169 0
	stw 11,12(26)
	.loc 5 170 0
	lwz 9,20(11)
	addi 0,9,1
	stw 0,20(11)
	b .L640
.LVL683:
.L737:
.LBE1892:
.LBE1910:
.LBE1917:
.LBE2013:
.LBB2014:
.LBB1815:
.LBB1808:
.LBB1799:
.LBB1786:
.LBB1787:
.LBB1788:
.LBB1789:
.LBB1790:
.LBB1791:
	.loc 4 215 0
	lwz 9,24(28)
	.loc 4 216 0
	li 3,36
	.loc 4 215 0
	addi 0,9,1
	stw 0,24(28)
	.loc 4 216 0
	bl _Znwj
.LVL684:
.LBE1791:
.LBE1790:
	.loc 5 377 0
	li 0,0
	.loc 5 378 0
	stw 0,12(3)
	.loc 5 399 0
	addi 10,3,4
	.loc 5 377 0
	stw 0,4(3)
	.loc 5 379 0
	stw 0,16(3)
	.loc 5 380 0
	stw 0,20(3)
	.loc 5 381 0
	stw 0,24(3)
	.loc 5 382 0
	stw 0,28(3)
	.loc 5 383 0
	stw 0,32(3)
	.loc 5 384 0
	stw 0,8(3)
.LBE1789:
.LBE1788:
	.loc 5 400 0
	lwz 0,8(31)
	stw 0,12(3)
	.loc 5 403 0
	lwz 9,24(31)
.LVL685:
	.loc 5 404 0
	stw 10,8(9)
.LVL686:
	.loc 5 405 0
	lwz 0,20(31)
	cmpwi 7,0,3
	ble- 7,.L608
	li 11,3
.LVL687:
.L609:
	.loc 5 406 0
	lwz 9,12(9)
.LVL688:
	.loc 5 405 0
	addi 11,11,2
.LVL689:
	.loc 5 407 0
	stw 10,8(9)
	.loc 5 405 0
	lwz 0,20(31)
	cmpw 7,11,0
	blt+ 7,.L609
.LVL690:
.L608:
	.loc 5 410 0
	lwz 11,0(9)
	.loc 5 418 0
	li 0,0
	.loc 5 410 0
	stw 11,4(3)
	.loc 5 411 0
	lwz 11,20(31)
	srawi 11,11,1
	addze 11,11
	stw 11,24(3)
	.loc 5 412 0
	lwz 8,24(31)
	.loc 5 413 0
	stw 9,32(3)
	.loc 5 412 0
	stw 8,28(3)
	.loc 5 415 0
	lwz 8,20(31)
	subf 11,11,8
	stw 11,20(31)
	.loc 5 416 0
	lwz 11,12(9)
	stw 11,24(31)
	.loc 5 418 0
	lwz 11,12(9)
	stw 0,16(11)
	.loc 5 419 0
	stw 0,12(9)
	.loc 5 424 0
	lwz 9,16(31)
.LVL691:
	cmpwi 7,9,0
	beq- 7,.L610
	.loc 5 425 0
	stw 10,12(9)
.L611:
	.loc 5 429 0
	lwz 0,16(31)
	.loc 5 433 0
	mr 30,31
	.loc 5 430 0
	stw 31,16(3)
	.loc 5 429 0
	stw 0,20(3)
	.loc 5 431 0
	stw 10,16(31)
	.loc 5 433 0
	lwz 9,8(31)
	lwz 11,20(9)
	addi 0,11,1
	stw 0,20(9)
	b .L721
.LVL692:
.L745:
.LBE1787:
.LBE1786:
.LBE1799:
.LBE1808:
.LBE1815:
.LBE2014:
.LBB2015:
.LBB2003:
.LBB1995:
.LBB1983:
	.loc 5 147 0
	lwz 0,0(31)
	cmpw 6,30,0
	ble- 6,.L749
	.loc 5 159 0
	beq- 7,.L662
	.loc 5 160 0
	stw 23,16(9)
.L663:
	.loc 5 164 0
	stw 31,20(25)
	.loc 5 165 0
	lwz 0,12(31)
	stw 0,16(25)
	.loc 5 166 0
	stw 23,12(31)
.L661:
	.loc 5 169 0
	stw 11,12(25)
	.loc 5 170 0
	lwz 9,20(11)
	addi 0,9,1
	stw 0,20(11)
	b .L664
.LVL693:
.L604:
.LBE1983:
.LBE1995:
.LBE2003:
.LBE2015:
.LBB2016:
.LBB1816:
.LBB1809:
.LBB1800:
.LBB1793:
.LBB1782:
	.loc 5 458 0
	lwz 9,8(3)
	stw 30,24(9)
	b .L605
.LVL694:
.L752:
.LBE1782:
.LBE1793:
.LBE1800:
.LBE1809:
.LBE1816:
.LBE2016:
.LBB2017:
.LBB1721:
.LBB1714:
.LBB1705:
.LBB1692:
.LBB1677:
	.loc 5 445 0
	mr 9,11
	b .L564
.LVL695:
.L748:
.LBE1677:
.LBE1692:
.LBE1705:
.LBE1714:
.LBE1721:
.LBE2017:
.LBB2018:
.LBB1918:
.LBB1911:
.LBB1893:
	.loc 5 149 0
	lwz 9,16(31)
	cmpwi 7,9,0
	beq- 7,.L635
	.loc 5 150 0
	stw 23,12(9)
.L636:
	.loc 5 154 0
	lwz 0,16(31)
	.loc 5 155 0
	stw 31,16(26)
	.loc 5 154 0
	stw 0,20(26)
	.loc 5 156 0
	stw 23,16(31)
	b .L637
.LVL696:
.L749:
.LBE1893:
.LBE1911:
.LBE1918:
.LBE2018:
.LBB2019:
.LBB2004:
.LBB1996:
.LBB1984:
	.loc 5 149 0
	lwz 9,16(31)
	cmpwi 7,9,0
	beq- 7,.L659
	.loc 5 150 0
	stw 23,12(9)
.L660:
	.loc 5 154 0
	lwz 0,16(31)
	.loc 5 155 0
	stw 31,16(25)
	.loc 5 154 0
	stw 0,20(25)
	.loc 5 156 0
	stw 23,16(31)
	b .L661
.LVL697:
.L591:
.LBE1984:
.LBE1996:
.LBE2004:
.LBE2019:
.LBB2020:
.LBB1817:
.LBB1810:
.LBB1801:
	.loc 5 212 0
	lwz 9,8(27)
	lwz 0,12(27)
	stw 0,24(9)
	b .L592
.LVL698:
.L610:
.LBB1794:
.LBB1792:
	.loc 5 427 0
	lwz 9,8(31)
	stw 10,24(9)
	b .L611
.LVL699:
.L728:
.LBE1792:
.LBE1794:
.LBB1795:
	.loc 5 251 0
	lwz 9,24(3)
	lwz 0,4(9)
	cmpwi 7,0,0
	bne+ 7,.L619
.LVL700:
.LBB1752:
	.loc 5 253 0
	stw 0,8(9)
.LBB1753:
.LBB1754:
.LBB1755:
	.loc 4 228 0
	addi 3,3,-4
.LVL701:
.LBE1755:
.LBE1754:
.LBE1753:
	.loc 5 254 0
	lwz 9,8(28)
	lwz 0,24(9)
	stw 0,8(28)
.LVL702:
.LBB1758:
.LBB1757:
.LBB1756:
	.loc 4 228 0
	bl _ZdlPv
.LVL703:
	.loc 4 230 0
	lwz 0,24(28)
	addic 0,0,-1
	stw 0,24(28)
	b .L619
.LVL704:
.L743:
.LBE1756:
.LBE1757:
.LBE1758:
.LBE1752:
.LBE1795:
.LBE1801:
.LBE1810:
.LBE1817:
.LBE2020:
.LBB2021:
.LBB2005:
.LBB1997:
.LBB1985:
.LBB1952:
.LBB1953:
.LBB1954:
.LBB1955:
	.loc 4 215 0
	lwz 9,24(28)
	.loc 4 216 0
	li 3,36
.LBE1955:
.LBE1954:
	.loc 5 377 0
	li 27,0
.LBB1958:
.LBB1956:
	.loc 4 215 0
	addi 0,9,1
	stw 0,24(28)
	.loc 4 216 0
	bl _Znwj
.LBE1956:
.LBE1958:
	.loc 5 377 0
	stw 27,4(3)
.LBB1959:
.LBB1957:
	.loc 4 216 0
	mr 9,3
.LVL705:
.LBE1957:
.LBE1959:
	.loc 5 381 0
	stw 27,24(3)
	.loc 5 118 0
	addi 25,3,4
.LVL706:
	.loc 5 382 0
	stw 27,28(3)
	.loc 5 383 0
	stw 27,32(3)
	.loc 5 378 0
	stw 27,12(3)
	.loc 5 379 0
	stw 27,16(3)
	.loc 5 380 0
	stw 27,20(3)
	.loc 5 384 0
	stw 27,8(3)
.LBE1953:
.LBE1952:
.LBB1960:
.LBB1961:
.LBB1962:
.LBB1963:
.LBB1964:
.LBB1965:
	.loc 4 216 0
	li 3,36
.LVL707:
.LBE1965:
.LBE1964:
.LBE1963:
.LBE1962:
.LBE1961:
.LBE1960:
	.loc 5 119 0
	lwz 11,8(28)
	lwz 0,0(11)
	.loc 5 122 0
	li 11,1
	.loc 5 119 0
	stw 0,4(9)
	.loc 5 120 0
	lwz 0,8(28)
	stw 0,28(9)
	.loc 5 121 0
	lwz 0,8(28)
	.loc 5 122 0
	stw 11,24(9)
	.loc 5 121 0
	stw 0,32(9)
	.loc 5 123 0
	lwz 9,8(28)
.LVL708:
	stw 25,8(9)
.LBB1977:
.LBB1974:
.LBB1972:
.LBB1970:
.LBB1968:
.LBB1966:
	.loc 4 215 0
	lwz 9,24(28)
.LBE1966:
.LBE1968:
.LBE1970:
.LBE1972:
.LBE1974:
.LBE1977:
	.loc 5 124 0
	lwz 31,8(28)
.LVL709:
.LBB1978:
.LBB1975:
.LBB1973:
.LBB1971:
.LBB1969:
.LBB1967:
	.loc 4 215 0
	addi 0,9,1
	stw 0,24(28)
	.loc 4 216 0
	bl _Znwj
.LVL710:
.LBE1967:
.LBE1969:
	.loc 5 378 0
	stw 27,12(3)
	.loc 5 399 0
	addi 10,3,4
	.loc 5 377 0
	stw 27,4(3)
	.loc 5 379 0
	stw 27,16(3)
	.loc 5 380 0
	stw 27,20(3)
	.loc 5 381 0
	stw 27,24(3)
	.loc 5 382 0
	stw 27,28(3)
	.loc 5 383 0
	stw 27,32(3)
	.loc 5 384 0
	stw 27,8(3)
.LBE1971:
.LBE1973:
	.loc 5 400 0
	lwz 0,8(31)
	stw 0,12(3)
	.loc 5 403 0
	lwz 9,24(31)
.LVL711:
	.loc 5 404 0
	stw 10,8(9)
.LVL712:
	.loc 5 405 0
	lwz 0,20(31)
	cmpwi 7,0,3
	ble- 7,.L648
	li 11,3
.LVL713:
.L649:
	.loc 5 406 0
	lwz 9,12(9)
.LVL714:
	.loc 5 405 0
	addi 11,11,2
.LVL715:
	.loc 5 407 0
	stw 10,8(9)
	.loc 5 405 0
	lwz 0,20(31)
	cmpw 7,11,0
	blt+ 7,.L649
.LVL716:
.L648:
	.loc 5 410 0
	lwz 11,0(9)
	.loc 5 418 0
	li 0,0
	.loc 5 410 0
	stw 11,4(3)
	.loc 5 411 0
	lwz 11,20(31)
	srawi 11,11,1
	addze 11,11
	stw 11,24(3)
	.loc 5 412 0
	lwz 8,24(31)
	.loc 5 413 0
	stw 9,32(3)
	.loc 5 412 0
	stw 8,28(3)
	.loc 5 415 0
	lwz 8,20(31)
	subf 11,11,8
	stw 11,20(31)
	.loc 5 416 0
	lwz 11,12(9)
	stw 11,24(31)
	.loc 5 418 0
	lwz 11,12(9)
	stw 0,16(11)
	.loc 5 419 0
	stw 0,12(9)
	.loc 5 424 0
	lwz 9,16(31)
.LVL717:
	cmpwi 7,9,0
	beq- 7,.L650
	.loc 5 425 0
	stw 10,12(9)
.L651:
	.loc 5 429 0
	lwz 0,16(31)
	.loc 5 430 0
	stw 31,16(3)
	.loc 5 429 0
	stw 0,20(3)
	.loc 5 431 0
	stw 10,16(31)
	.loc 5 433 0
	lwz 9,8(31)
	lwz 11,20(9)
	addi 0,11,1
	stw 0,20(9)
.LBE1975:
.LBE1978:
	.loc 5 125 0
	stw 25,8(28)
	b .L673
.LVL718:
.L730:
.LBE1985:
.LBE1997:
.LBE2005:
.LBE2021:
.LBB2022:
.LBB1919:
.LBB1912:
.LBB1894:
.LBB1859:
.LBB1860:
.LBB1861:
.LBB1862:
	.loc 4 215 0
	lwz 9,24(28)
	.loc 4 216 0
	li 3,36
.LBE1862:
.LBE1861:
	.loc 5 377 0
	li 27,0
.LVL719:
.LBB1865:
.LBB1863:
	.loc 4 215 0
	addi 0,9,1
	stw 0,24(28)
	.loc 4 216 0
	bl _Znwj
.LBE1863:
.LBE1865:
	.loc 5 377 0
	stw 27,4(3)
.LBB1866:
.LBB1864:
	.loc 4 216 0
	mr 9,3
.LVL720:
.LBE1864:
.LBE1866:
	.loc 5 381 0
	stw 27,24(3)
	.loc 5 118 0
	addi 26,3,4
.LVL721:
	.loc 5 382 0
	stw 27,28(3)
	.loc 5 383 0
	stw 27,32(3)
	.loc 5 378 0
	stw 27,12(3)
	.loc 5 379 0
	stw 27,16(3)
	.loc 5 380 0
	stw 27,20(3)
	.loc 5 384 0
	stw 27,8(3)
.LBE1860:
.LBE1859:
.LBB1867:
.LBB1868:
.LBB1869:
.LBB1870:
.LBB1871:
.LBB1872:
	.loc 4 216 0
	li 3,36
.LVL722:
.LBE1872:
.LBE1871:
.LBE1870:
.LBE1869:
.LBE1868:
.LBE1867:
	.loc 5 119 0
	lwz 11,8(28)
	lwz 0,0(11)
	.loc 5 122 0
	li 11,1
	.loc 5 119 0
	stw 0,4(9)
	.loc 5 120 0
	lwz 0,8(28)
	stw 0,28(9)
	.loc 5 121 0
	lwz 0,8(28)
	.loc 5 122 0
	stw 11,24(9)
	.loc 5 121 0
	stw 0,32(9)
	.loc 5 123 0
	lwz 9,8(28)
.LVL723:
	stw 26,8(9)
.LBB1884:
.LBB1881:
.LBB1879:
.LBB1877:
.LBB1875:
.LBB1873:
	.loc 4 215 0
	lwz 9,24(28)
.LBE1873:
.LBE1875:
.LBE1877:
.LBE1879:
.LBE1881:
.LBE1884:
	.loc 5 124 0
	lwz 31,8(28)
.LVL724:
.LBB1885:
.LBB1882:
.LBB1880:
.LBB1878:
.LBB1876:
.LBB1874:
	.loc 4 215 0
	addi 0,9,1
	stw 0,24(28)
	.loc 4 216 0
	bl _Znwj
.LVL725:
.LBE1874:
.LBE1876:
	.loc 5 378 0
	stw 27,12(3)
	.loc 5 399 0
	addi 10,3,4
	.loc 5 377 0
	stw 27,4(3)
	.loc 5 379 0
	stw 27,16(3)
	.loc 5 380 0
	stw 27,20(3)
	.loc 5 381 0
	stw 27,24(3)
	.loc 5 382 0
	stw 27,28(3)
	.loc 5 383 0
	stw 27,32(3)
	.loc 5 384 0
	stw 27,8(3)
.LBE1878:
.LBE1880:
	.loc 5 400 0
	lwz 0,8(31)
	stw 0,12(3)
	.loc 5 403 0
	lwz 9,24(31)
.LVL726:
	.loc 5 404 0
	stw 10,8(9)
.LVL727:
	.loc 5 405 0
	lwz 0,20(31)
	cmpwi 7,0,3
	ble- 7,.L624
	li 11,3
.LVL728:
.L625:
	.loc 5 406 0
	lwz 9,12(9)
.LVL729:
	.loc 5 405 0
	addi 11,11,2
.LVL730:
	.loc 5 407 0
	stw 10,8(9)
	.loc 5 405 0
	lwz 0,20(31)
	cmpw 7,11,0
	blt+ 7,.L625
.LVL731:
.L624:
	.loc 5 410 0
	lwz 11,0(9)
	.loc 5 418 0
	li 0,0
	.loc 5 410 0
	stw 11,4(3)
	.loc 5 411 0
	lwz 11,20(31)
	srawi 11,11,1
	addze 11,11
	stw 11,24(3)
	.loc 5 412 0
	lwz 8,24(31)
	.loc 5 413 0
	stw 9,32(3)
	.loc 5 412 0
	stw 8,28(3)
	.loc 5 415 0
	lwz 8,20(31)
	subf 11,11,8
	stw 11,20(31)
	.loc 5 416 0
	lwz 11,12(9)
	stw 11,24(31)
	.loc 5 418 0
	lwz 11,12(9)
	stw 0,16(11)
	.loc 5 419 0
	stw 0,12(9)
	.loc 5 424 0
	lwz 9,16(31)
.LVL732:
	cmpwi 7,9,0
	beq- 7,.L626
	.loc 5 425 0
	stw 10,12(9)
.L627:
	.loc 5 429 0
	lwz 0,16(31)
	.loc 5 430 0
	stw 31,16(3)
	.loc 5 429 0
	stw 0,20(3)
	.loc 5 431 0
	stw 10,16(31)
	.loc 5 433 0
	lwz 9,8(31)
	lwz 11,20(9)
	addi 0,11,1
	stw 0,20(9)
.LVL733:
.LBE1882:
.LBE1885:
	.loc 5 125 0
	stw 26,8(28)
	b .L623
.LVL734:
.L571:
.LBE1894:
.LBE1912:
.LBE1919:
.LBE2022:
.LBB2023:
.LBB1722:
.LBB1715:
.LBB1706:
.LBB1693:
.LBB1689:
	.loc 5 458 0
	lwz 9,8(3)
	stw 30,24(9)
	b .L572
.LVL735:
.L741:
.LBE1689:
.LBE1693:
.LBB1694:
.LBB1695:
.LBB1696:
.LBB1697:
.LBB1698:
.LBB1699:
	.loc 4 215 0
	lwz 9,24(28)
	.loc 4 216 0
	li 3,36
	.loc 4 215 0
	addi 0,9,1
	stw 0,24(28)
	.loc 4 216 0
	bl _Znwj
.LVL736:
.LBE1699:
.LBE1698:
	.loc 5 377 0
	li 0,0
	.loc 5 378 0
	stw 0,12(3)
	.loc 5 399 0
	addi 10,3,4
	.loc 5 377 0
	stw 0,4(3)
	.loc 5 379 0
	stw 0,16(3)
	.loc 5 380 0
	stw 0,20(3)
	.loc 5 381 0
	stw 0,24(3)
	.loc 5 382 0
	stw 0,28(3)
	.loc 5 383 0
	stw 0,32(3)
	.loc 5 384 0
	stw 0,8(3)
.LBE1697:
.LBE1696:
	.loc 5 400 0
	lwz 0,8(31)
	stw 0,12(3)
	.loc 5 403 0
	lwz 9,24(31)
.LVL737:
	.loc 5 404 0
	stw 10,8(9)
.LVL738:
	.loc 5 405 0
	lwz 0,20(31)
	cmpwi 7,0,3
	ble- 7,.L575
	li 11,3
.LVL739:
.L576:
	.loc 5 406 0
	lwz 9,12(9)
.LVL740:
	.loc 5 405 0
	addi 11,11,2
.LVL741:
	.loc 5 407 0
	stw 10,8(9)
	.loc 5 405 0
	lwz 0,20(31)
	cmpw 7,11,0
	blt+ 7,.L576
.LVL742:
.L575:
	.loc 5 410 0
	lwz 11,0(9)
	.loc 5 418 0
	li 0,0
	.loc 5 410 0
	stw 11,4(3)
	.loc 5 411 0
	lwz 11,20(31)
	srawi 11,11,1
	addze 11,11
	stw 11,24(3)
	.loc 5 412 0
	lwz 8,24(31)
	.loc 5 413 0
	stw 9,32(3)
	.loc 5 412 0
	stw 8,28(3)
	.loc 5 415 0
	lwz 8,20(31)
	subf 11,11,8
	stw 11,20(31)
	.loc 5 416 0
	lwz 11,12(9)
	stw 11,24(31)
	.loc 5 418 0
	lwz 11,12(9)
	stw 0,16(11)
	.loc 5 419 0
	stw 0,12(9)
	.loc 5 424 0
	lwz 9,16(31)
.LVL743:
	cmpwi 7,9,0
	beq- 7,.L577
	.loc 5 425 0
	stw 10,12(9)
.L578:
	.loc 5 429 0
	lwz 0,16(31)
	.loc 5 433 0
	mr 30,31
	.loc 5 430 0
	stw 31,16(3)
	.loc 5 429 0
	stw 0,20(3)
	.loc 5 431 0
	stw 10,16(31)
	.loc 5 433 0
	lwz 9,8(31)
	lwz 11,20(9)
	addi 0,11,1
	stw 0,20(9)
	b .L719
.LVL744:
.L729:
.LBE1695:
.LBE1694:
.LBE1706:
.LBE1715:
.LBE1722:
.LBE2023:
.LBB2024:
.LBB1830:
	.loc 4 388 0
	neg 0,0
.LVL745:
	b .L620
.LVL746:
.L724:
.LBE1830:
.LBE2024:
.LBB2025:
.LBB1723:
.LBB1716:
.LBB1707:
.LBB1701:
	.loc 5 251 0
	lwz 9,24(3)
	lwz 0,4(9)
	cmpwi 7,0,0
	bne+ 7,.L586
.LVL747:
.LBB1659:
	.loc 5 253 0
	stw 0,8(9)
.LBB1660:
.LBB1661:
.LBB1662:
	.loc 4 228 0
	addi 3,3,-4
.LVL748:
.LBE1662:
.LBE1661:
.LBE1660:
	.loc 5 254 0
	lwz 9,8(28)
	lwz 0,24(9)
	stw 0,8(28)
.LVL749:
.LBB1665:
.LBB1664:
.LBB1663:
	.loc 4 228 0
	bl _ZdlPv
.LVL750:
	.loc 4 230 0
	lwz 0,24(28)
	addic 0,0,-1
	stw 0,24(28)
	b .L586
.LVL751:
.L751:
.LBE1663:
.LBE1664:
.LBE1665:
.LBE1659:
.LBE1701:
.LBE1707:
.LBE1716:
.LBE1723:
.LBE2025:
.LBB2026:
.LBB1818:
.LBB1811:
.LBB1802:
.LBB1796:
.LBB1783:
	.loc 5 445 0
	mr 9,11
	b .L602
.LVL752:
.L725:
.LBE1783:
.LBE1796:
.LBE1802:
.LBE1811:
.LBE1818:
.LBE2026:
.LBB2027:
.LBB1737:
	.loc 4 388 0
	neg 0,0
.LVL753:
	b .L587
.LVL754:
.L593:
.LBE1737:
.LBE2027:
.LBB2028:
.LBB1819:
.LBB1812:
.LBB1803:
	.loc 5 217 0
	lwz 9,8(27)
	lwz 0,16(27)
	stw 0,28(9)
	b .L594
.LVL755:
.L621:
.LBE1803:
.LBE1812:
.LBE1819:
.LBE2028:
	.loc 4 863 0
	stw 25,4(28)
	b .L622
.LVL756:
.L753:
.LBB2029:
.LBB1724:
.LBB1717:
.LBB1708:
.LBB1702:
.LBB1690:
	.loc 5 445 0
	mr 9,11
	b .L569
.LVL757:
.L558:
.LBE1690:
.LBE1702:
	.loc 5 212 0
	lwz 9,8(25)
	lwz 0,12(25)
	stw 0,24(9)
	b .L559
.LVL758:
.L588:
.LBE1708:
.LBE1717:
.LBE1724:
.LBE2029:
	.loc 4 850 0
	stw 26,4(28)
	b .L557
.LVL759:
.L560:
.LBB2030:
.LBB1725:
.LBB1718:
.LBB1709:
	.loc 5 217 0
	lwz 9,8(25)
	lwz 0,16(25)
	stw 0,28(9)
	b .L561
.LVL760:
.L650:
.LBE1709:
.LBE1718:
.LBE1725:
.LBE2030:
.LBB2031:
.LBB2006:
.LBB1998:
.LBB1986:
.LBB1979:
.LBB1976:
	.loc 5 427 0
	lwz 9,8(31)
	stw 10,24(9)
	b .L651
.LVL761:
.L577:
.LBE1976:
.LBE1979:
.LBE1986:
.LBE1998:
.LBE2006:
.LBE2031:
.LBB2032:
.LBB1726:
.LBB1719:
.LBB1710:
.LBB1703:
.LBB1700:
	lwz 9,8(31)
	stw 10,24(9)
	b .L578
.LVL762:
.L626:
.LBE1700:
.LBE1703:
.LBE1710:
.LBE1719:
.LBE1726:
.LBE2032:
.LBB2033:
.LBB1920:
.LBB1913:
.LBB1895:
.LBB1886:
.LBB1883:
	lwz 9,8(31)
	stw 10,24(9)
	b .L627
.LVL763:
.L662:
.LBE1883:
.LBE1886:
.LBE1895:
.LBE1913:
.LBE1920:
.LBE2033:
.LBB2034:
.LBB2007:
.LBB1999:
.LBB1987:
	.loc 5 162 0
	stw 23,28(11)
	b .L663
.LVL764:
.L635:
.LBE1987:
.LBE1999:
.LBE2007:
.LBE2034:
.LBB2035:
.LBB1921:
.LBB1914:
.LBB1896:
	.loc 5 152 0
	stw 23,24(11)
	b .L636
.L638:
	.loc 5 162 0
	stw 23,28(11)
	b .L639
.LVL765:
.L659:
.LBE1896:
.LBE1914:
.LBE1921:
.LBE2035:
.LBB2036:
.LBB2008:
.LBB2000:
.LBB1988:
	.loc 5 152 0
	stw 23,24(11)
	b .L660
.LBE1988:
.LBE2000:
.LBE2008:
.LBE2036:
.LBE2040:
	.cfi_endproc
.LFE2829:
	.size	_ZN19idDynamicBlockAllocIcLi262144ELi128EE12FreeInternalEP14idDynamicBlockIcE, .-_ZN19idDynamicBlockAllocIcLi262144ELi128EE12FreeInternalEP14idDynamicBlockIcE
	.section	.text._ZN19idDynamicBlockAllocIcLi262144ELi128EE8ShutdownEv,"axG",@progbits,_ZN19idDynamicBlockAllocIcLi262144ELi128EE8ShutdownEv,comdat
	.align 2
	.weak	_ZN19idDynamicBlockAllocIcLi262144ELi128EE8ShutdownEv
	.type	_ZN19idDynamicBlockAllocIcLi262144ELi128EE8ShutdownEv, @function
_ZN19idDynamicBlockAllocIcLi262144ELi128EE8ShutdownEv:
.LFB2776:
	.loc 4 474 0
	.cfi_startproc
.LVL766:
	mflr 0
	stwu 1,-24(1)
.LCFI70:
	.cfi_def_cfa_offset 24
	.cfi_register 65, 0
	stw 31,20(1)
	mr 31,3
	.cfi_offset 31, -4
	stw 0,28(1)
	stw 29,12(1)
	stw 30,16(1)
.LBB2041:
	.loc 4 477 0
	lwz 30,0(3)
	.cfi_offset 30, -8
	.cfi_offset 29, -12
	.cfi_offset 65, 4
.LVL767:
	cmpwi 7,30,0
	beq- 7,.L755
.LVL768:
.L761:
	.loc 4 478 0
	lwz 0,12(30)
	cmpwi 7,0,0
	beq- 7,.L764
.L756:
	.loc 4 477 0
	lwz 30,8(30)
.LVL769:
	cmpwi 7,30,0
	bne+ 7,.L761
	.loc 4 483 0
	lwz 30,0(31)
.LVL770:
	cmpwi 7,30,0
	beq- 7,.L755
	.loc 4 487 0
	lis 29,_ZN5idLib3sysE@ha
	b .L760
.LVL771:
.L758:
	.loc 4 489 0
	mr 3,30
	bl _Z10Mem_Free16Pv
	.loc 4 483 0
	lwz 30,0(31)
.LVL772:
	cmpwi 7,30,0
	beq- 7,.L755
.LVL773:
.L760:
	.loc 4 486 0
	lbz 9,29(31)
	.loc 4 484 0
	lwz 0,8(30)
	.loc 4 486 0
	cmpwi 7,9,0
	.loc 4 484 0
	stw 0,0(31)
	.loc 4 486 0
	beq+ 7,.L758
.LBB2042:
.LBB2043:
	.loc 4 387 0
	lwz 5,0(30)
.LBE2043:
.LBE2042:
	.loc 4 487 0
	mr 4,30
	lwz 3,_ZN5idLib3sysE@l(29)
.LBB2046:
.LBB2044:
	.loc 4 387 0
	srawi 0,5,31
.LBE2044:
.LBE2046:
	.loc 4 487 0
	lwz 9,0(3)
.LBB2047:
.LBB2045:
	.loc 4 387 0
	xor 5,0,5
	subf 5,0,5
.LBE2045:
.LBE2047:
	.loc 4 487 0
	lwz 0,48(9)
	addi 5,5,16
	mtctr 0
	bctrl
	.loc 4 489 0
	mr 3,30
	bl _Z10Mem_Free16Pv
	.loc 4 483 0
	lwz 30,0(31)
.LVL774:
	cmpwi 7,30,0
	bne+ 7,.L760
.LVL775:
.L755:
.LBB2048:
.LBB2049:
.LBB2050:
.LBB2051:
	.loc 4 245 0
	li 0,0
.LBE2051:
.LBE2050:
.LBE2049:
.LBE2048:
.LBB2055:
.LBB2056:
	.loc 4 707 0
	li 9,1
.LBE2056:
.LBE2055:
.LBB2058:
.LBB2054:
.LBB2053:
.LBB2052:
	.loc 4 245 0
	stw 0,24(31)
	stw 0,20(31)
.LBE2052:
.LBE2053:
	.loc 5 110 0
	stw 0,8(31)
.LVL776:
.LBE2054:
.LBE2058:
.LBB2059:
.LBB2057:
	.loc 4 706 0
	stw 0,4(31)
	stw 0,0(31)
	.loc 4 707 0
	stb 9,28(31)
	.loc 4 708 0
	stb 0,29(31)
	.loc 4 709 0
	stw 0,32(31)
	.loc 4 710 0
	stw 0,36(31)
	.loc 4 711 0
	stw 0,40(31)
	.loc 4 712 0
	stw 0,44(31)
	.loc 4 713 0
	stw 0,48(31)
	.loc 4 714 0
	stw 0,52(31)
	.loc 4 715 0
	stw 0,56(31)
	.loc 4 716 0
	stw 0,60(31)
	.loc 4 717 0
	stw 0,64(31)
.LBE2057:
.LBE2059:
.LBE2041:
	.loc 4 495 0
	lwz 0,28(1)
	lwz 29,12(1)
	mtlr 0
	lwz 30,16(1)
.LVL777:
	lwz 31,20(1)
.LVL778:
	addi 1,1,24
	.cfi_remember_state
.LCFI71:
	.cfi_def_cfa_offset 0
	.cfi_restore 31
	.cfi_restore 30
	.cfi_restore 29
	blr
.LVL779:
.L764:
.LCFI72:
	.cfi_restore_state
.LBB2060:
	.loc 4 479 0
	mr 4,30
	mr 3,31
	bl _ZN19idDynamicBlockAllocIcLi262144ELi128EE12FreeInternalEP14idDynamicBlockIcE
	b .L756
.LBE2060:
	.cfi_endproc
.LFE2776:
	.size	_ZN19idDynamicBlockAllocIcLi262144ELi128EE8ShutdownEv, .-_ZN19idDynamicBlockAllocIcLi262144ELi128EE8ShutdownEv
	.section	".text"
	.align 2
	.globl _ZN5idStr14ShutdownMemoryEv
	.type	_ZN5idStr14ShutdownMemoryEv, @function
_ZN5idStr14ShutdownMemoryEv:
.LFB2596:
	.loc 2 1637 0
	.cfi_startproc
	.loc 2 1639 0
	lis 3,.LANCHOR0@ha
	.loc 2 1637 0
	mflr 0
	.loc 2 1639 0
	la 3,.LANCHOR0@l(3)
	.loc 2 1637 0
	stwu 1,-8(1)
.LCFI73:
	.cfi_def_cfa_offset 8
	.cfi_register 65, 0
	.loc 2 1639 0
	addis 3,3,0x2
	addi 3,3,264
	.loc 2 1637 0
	stw 0,12(1)
	.loc 2 1639 0
	.cfi_offset 65, 4
	bl _ZN19idDynamicBlockAllocIcLi262144ELi128EE8ShutdownEv
	.loc 2 1641 0
	lwz 0,12(1)
	addi 1,1,8
.LCFI74:
	.cfi_def_cfa_offset 0
	mtlr 0
	blr
	.cfi_endproc
.LFE2596:
	.size	_ZN5idStr14ShutdownMemoryEv, .-_ZN5idStr14ShutdownMemoryEv
	.align 2
	.type	_Z41__static_initialization_and_destruction_0ii.constprop.31, @function
_Z41__static_initialization_and_destruction_0ii.constprop.31:
.LFB2915:
	.loc 2 1747 0
	.cfi_startproc
	.cfi_personality 0,__gxx_personality_v0
	.cfi_lsda 0,.LLSDA2915
.LVL780:
	cmpwi 7,3,1
	mflr 0
	stwu 1,-16(1)
.LCFI75:
	.cfi_def_cfa_offset 16
	.cfi_register 65, 0
	stw 0,20(1)
	stw 31,12(1)
	.loc 2 1747 0
	beq- 7,.L775
	.cfi_offset 31, -4
	.cfi_offset 65, 4
	.loc 2 40 0
	cmpwi 7,3,0
	bne- 7,.L766
.LVL781:
.LBB2061:
.LBB2062:
.LBB2063:
	.loc 2 37 0
	lis 31,.LANCHOR0@ha
	la 31,.LANCHOR0@l(31)
	addis 31,31,0x2
	.loc 4 465 0
	addi 3,31,264
.LVL782:
.LEHB0:
	bl _ZN19idDynamicBlockAllocIcLi262144ELi128EE8ShutdownEv
.LEHE0:
.LVL783:
.LBB2064:
.LBB2065:
.LBB2066:
.LBB2067:
.LBB2068:
.LBB2069:
	.loc 4 245 0
	li 0,0
	stw 0,288(31)
	stw 0,284(31)
.LBE2069:
.LBE2068:
	.loc 5 110 0
	stw 0,272(31)
.LVL784:
.L766:
.LBE2067:
.LBE2066:
.LBE2065:
.LBE2064:
.LBE2063:
.LBE2062:
.LBE2061:
	.loc 2 1747 0
	lwz 0,20(1)
	lwz 31,12(1)
	mtlr 0
	addi 1,1,16
	.cfi_remember_state
.LCFI76:
	.cfi_def_cfa_offset 0
	.cfi_restore 31
	blr
.LVL785:
.L775:
.LCFI77:
	.cfi_restore_state
.LBB2078:
.LBB2079:
.LBB2080:
.LBB2081:
.LBB2082:
	.loc 4 187 0
	lis 7,.LANCHOR0@ha
.LBE2082:
.LBE2081:
.LBE2080:
.LBE2079:
.LBE2078:
.LBB2097:
.LBB2098:
	.file 7 "d:/Data/Nintendo/DoomGX/src/idlib/../idlib/math/Vector.h"
	.loc 7 870 0
	lis 11,.LC10@ha
.LBE2098:
.LBE2097:
.LBB2102:
.LBB2092:
.LBB2089:
.LBB2086:
.LBB2083:
	.loc 4 187 0
	la 9,.LANCHOR0@l(7)
.LBE2083:
.LBE2086:
.LBE2089:
.LBE2092:
.LBE2102:
.LBB2103:
.LBB2099:
	.loc 7 870 0
	lwz 11,.LC10@l(11)
.LBE2099:
.LBE2103:
.LBB2104:
.LBB2093:
.LBB2090:
.LBB2087:
.LBB2084:
	.loc 4 187 0
	addis 10,9,0x2
	li 8,0
.LBE2084:
.LBE2087:
.LBE2090:
.LBE2093:
.LBE2104:
.LBB2105:
.LBB2100:
	.loc 7 867 0
	li 0,0
.LBE2100:
.LBE2105:
.LBB2106:
.LBB2094:
.LBB2091:
.LBB2088:
.LBB2085:
	.loc 4 187 0
	stw 8,276(10)
	.loc 4 188 0
	stw 8,280(10)
	.loc 4 189 0
	stw 8,288(10)
	stw 8,284(10)
.LBE2085:
.LBE2088:
	.loc 5 94 0
	stw 8,272(10)
.LVL786:
.LBE2091:
.LBE2094:
.LBB2095:
.LBB2096:
	.loc 4 706 0
	stw 8,268(10)
	stw 8,264(10)
	.loc 4 707 0
	stb 3,292(10)
	.loc 4 708 0
	stb 8,293(10)
	.loc 4 709 0
	stw 8,296(10)
	.loc 4 710 0
	stw 8,300(10)
	.loc 4 711 0
	stw 8,304(10)
	.loc 4 712 0
	stw 8,308(10)
	.loc 4 713 0
	stw 8,312(10)
	.loc 4 714 0
	stw 8,316(10)
	.loc 4 715 0
	stw 8,320(10)
	.loc 4 716 0
	stw 8,324(10)
	.loc 4 717 0
	stw 8,328(10)
.LVL787:
.LBE2096:
.LBE2095:
.LBE2106:
.LBB2107:
.LBB2108:
	.loc 7 867 0
	lis 10,.LC11@ha
.LBE2108:
.LBE2107:
.LBB2111:
.LBB2101:
	stw 0,.LANCHOR0@l(7)
	.loc 7 868 0
	stw 0,4(9)
	.loc 7 869 0
	stw 0,8(9)
	.loc 7 870 0
	stw 11,12(9)
.LVL788:
.LBE2101:
.LBE2111:
.LBB2112:
.LBB2113:
	.loc 7 867 0
	stw 11,16(9)
	.loc 7 868 0
	stw 0,20(9)
	.loc 7 869 0
	stw 0,24(9)
	.loc 7 870 0
	stw 11,28(9)
.LVL789:
.LBE2113:
.LBE2112:
.LBB2114:
.LBB2115:
	.loc 7 867 0
	stw 0,32(9)
	.loc 7 868 0
	stw 11,36(9)
	.loc 7 869 0
	stw 0,40(9)
	.loc 7 870 0
	stw 11,44(9)
.LVL790:
.LBE2115:
.LBE2114:
.LBB2116:
.LBB2117:
	.loc 7 867 0
	stw 11,48(9)
	.loc 7 868 0
	stw 11,52(9)
	.loc 7 869 0
	stw 0,56(9)
.LBE2117:
.LBE2116:
.LBB2119:
.LBB2109:
	.loc 7 867 0
	lwz 10,.LC11@l(10)
.LBE2109:
.LBE2119:
.LBB2120:
.LBB2118:
	.loc 7 870 0
	stw 11,60(9)
.LVL791:
.LBE2118:
.LBE2120:
.LBB2121:
.LBB2122:
	.loc 7 867 0
	stw 0,64(9)
	.loc 7 868 0
	stw 0,68(9)
	.loc 7 869 0
	stw 11,72(9)
	.loc 7 870 0
	stw 11,76(9)
.LVL792:
.LBE2122:
.LBE2121:
.LBB2123:
.LBB2124:
	.loc 7 867 0
	stw 0,80(9)
	.loc 7 868 0
	stw 11,84(9)
	.loc 7 869 0
	stw 11,88(9)
	.loc 7 870 0
	stw 11,92(9)
.LVL793:
.LBE2124:
.LBE2123:
.LBB2125:
.LBB2126:
	.loc 7 867 0
	stw 11,96(9)
	.loc 7 868 0
	stw 0,100(9)
	.loc 7 869 0
	stw 11,104(9)
	.loc 7 870 0
	stw 11,108(9)
.LVL794:
.LBE2126:
.LBE2125:
.LBB2127:
.LBB2128:
	.loc 7 867 0
	stw 11,112(9)
	.loc 7 868 0
	stw 11,116(9)
	.loc 7 869 0
	stw 11,120(9)
	.loc 7 870 0
	stw 11,124(9)
.LVL795:
.LBE2128:
.LBE2127:
.LBB2129:
.LBB2110:
	.loc 7 867 0
	stw 10,128(9)
	.loc 7 868 0
	stw 10,132(9)
	.loc 7 869 0
	stw 10,136(9)
	.loc 7 870 0
	stw 11,140(9)
.LVL796:
.LBE2110:
.LBE2129:
.LBB2130:
.LBB2131:
	.loc 7 867 0
	stw 0,144(9)
	.loc 7 868 0
	stw 0,148(9)
	.loc 7 869 0
	stw 0,152(9)
	.loc 7 870 0
	stw 11,156(9)
.LVL797:
.LBE2131:
.LBE2130:
.LBB2132:
.LBB2133:
	.loc 7 867 0
	stw 0,160(9)
	.loc 7 868 0
	stw 0,164(9)
	.loc 7 869 0
	stw 0,168(9)
	.loc 7 870 0
	stw 11,172(9)
.LVL798:
.LBE2133:
.LBE2132:
.LBB2134:
.LBB2135:
	.loc 7 867 0
	stw 0,176(9)
	.loc 7 868 0
	stw 0,180(9)
	.loc 7 869 0
	stw 0,184(9)
	.loc 7 870 0
	stw 11,188(9)
.LVL799:
.LBE2135:
.LBE2134:
.LBB2136:
.LBB2137:
	.loc 7 867 0
	stw 0,192(9)
	.loc 7 868 0
	stw 0,196(9)
	.loc 7 869 0
	stw 0,200(9)
	.loc 7 870 0
	stw 11,204(9)
.LVL800:
.LBE2137:
.LBE2136:
.LBB2138:
.LBB2139:
	.loc 7 867 0
	stw 0,208(9)
	.loc 7 868 0
	stw 0,212(9)
	.loc 7 869 0
	stw 0,216(9)
	.loc 7 870 0
	stw 11,220(9)
.LVL801:
.LBE2139:
.LBE2138:
.LBB2140:
.LBB2141:
	.loc 7 867 0
	stw 0,224(9)
	.loc 7 868 0
	stw 0,228(9)
	.loc 7 869 0
	stw 0,232(9)
	.loc 7 870 0
	stw 11,236(9)
.LVL802:
.LBE2141:
.LBE2140:
.LBB2142:
.LBB2143:
	.loc 7 867 0
	stw 0,240(9)
	.loc 7 868 0
	stw 0,244(9)
	.loc 7 869 0
	stw 0,248(9)
	.loc 7 870 0
	stw 11,252(9)
	b .L766
.LVL803:
.L774:
.LBE2143:
.LBE2142:
.LBB2144:
.LBB2077:
.LBB2076:
.LBB2070:
.LBB2071:
.LBB2072:
.LBB2073:
.LBB2074:
.LBB2075:
	.loc 4 245 0
	li 0,0
	stw 0,288(31)
	stw 0,284(31)
.LBE2075:
.LBE2074:
	.loc 5 110 0
	stw 0,272(31)
.LVL804:
.LEHB1:
	bl _Unwind_Resume
.LEHE1:
.LBE2073:
.LBE2072:
.LBE2071:
.LBE2070:
.LBE2076:
.LBE2077:
.LBE2144:
	.cfi_endproc
.LFE2915:
	.globl __gxx_personality_v0
	.section	.gcc_except_table,"a",@progbits
.LLSDA2915:
	.byte	0xff
	.byte	0xff
	.byte	0x1
	.uleb128 .LLSDACSE2915-.LLSDACSB2915
.LLSDACSB2915:
	.uleb128 .LEHB0-.LFB2915
	.uleb128 .LEHE0-.LEHB0
	.uleb128 .L774-.LFB2915
	.uleb128 0
	.uleb128 .LEHB1-.LFB2915
	.uleb128 .LEHE1-.LEHB1
	.uleb128 0
	.uleb128 0
.LLSDACSE2915:
	.section	".text"
	.size	_Z41__static_initialization_and_destruction_0ii.constprop.31, .-_Z41__static_initialization_and_destruction_0ii.constprop.31
	.section	.text._ZN19idDynamicBlockAllocIcLi262144ELi128EE4FreeEPc,"axG",@progbits,_ZN19idDynamicBlockAllocIcLi262144ELi128EE4FreeEPc,comdat
	.align 2
	.weak	_ZN19idDynamicBlockAllocIcLi262144ELi128EE4FreeEPc
	.type	_ZN19idDynamicBlockAllocIcLi262144ELi128EE4FreeEPc, @function
_ZN19idDynamicBlockAllocIcLi262144ELi128EE4FreeEPc:
.LFB2774:
	.loc 4 644 0
	.cfi_startproc
.LVL805:
	mflr 0
.LBB2145:
	.loc 4 648 0
	cmpwi 0,4,0
	.loc 4 646 0
	lwz 11,64(3)
.LBE2145:
	.loc 4 644 0
	stwu 1,-8(1)
.LCFI78:
	.cfi_def_cfa_offset 8
	.cfi_register 65, 0
	stw 0,12(1)
.LBB2148:
	.loc 4 646 0
	addi 0,11,1
	.cfi_offset 65, 4
	stw 0,64(3)
	.loc 4 648 0
	beq- 0,.L776
.LVL806:
	.loc 4 654 0
	lwz 11,40(3)
	addi 0,11,-1
	.loc 4 655 0
	lwz 11,44(3)
	.loc 4 654 0
	stw 0,40(3)
.LBB2146:
.LBB2147:
	.loc 4 387 0
	lwzu 0,-16(4)
.LVL807:
	srawi 10,0,31
	xor 0,10,0
	subf 0,10,0
.LBE2147:
.LBE2146:
	.loc 4 655 0
	subf 0,0,11
	stw 0,44(3)
	.loc 4 657 0
	bl _ZN19idDynamicBlockAllocIcLi262144ELi128EE12FreeInternalEP14idDynamicBlockIcE
.LVL808:
.L776:
.LBE2148:
	.loc 4 662 0
	lwz 0,12(1)
	addi 1,1,8
.LCFI79:
	.cfi_def_cfa_offset 0
	mtlr 0
	blr
	.cfi_endproc
.LFE2774:
	.size	_ZN19idDynamicBlockAllocIcLi262144ELi128EE4FreeEPc, .-_ZN19idDynamicBlockAllocIcLi262144ELi128EE4FreeEPc
	.section	".text"
	.align 2
	.globl _ZN5idStr8FreeDataEv
	.type	_ZN5idStr8FreeDataEv, @function
_ZN5idStr8FreeDataEv:
.LFB2540:
	.loc 2 123 0
	.cfi_startproc
.LVL809:
	mflr 0
	stwu 1,-56(1)
.LCFI80:
	.cfi_def_cfa_offset 56
	.cfi_register 65, 0
	stw 30,48(1)
	mr 30,3
	.cfi_offset 30, -8
	stw 0,60(1)
	stw 28,40(1)
	stw 29,44(1)
	stw 31,52(1)
.LBB2149:
.LBB2150:
	.loc 2 125 0
	lwz 9,4(3)
	cmpwi 7,9,0
	beq- 7,.L778
	.cfi_offset 31, -4
	.cfi_offset 29, -12
	.cfi_offset 28, -16
	.cfi_offset 65, 4
	.loc 2 125 0 is_stmt 0 discriminator 1
	addi 28,3,12
	cmpw 7,9,28
	beq- 7,.L778
	lis 29,.LC12@ha
	.loc 2 125 0
	li 31,0
	la 29,.LC12@l(29)
.LVL810:
.L781:
.LBB2151:
.LBB2152:
	.loc 2 127 0 is_stmt 1 discriminator 2
	lbzx 5,9,31
	addi 3,1,8
	mr 4,29
	crxor 6,6,6
	bl sprintf
.LVL811:
	.loc 2 126 0 discriminator 2
	cmpwi 7,31,15
	lwz 9,4(30)
	addi 31,31,1
.LVL812:
	bne+ 7,.L781
.LBE2152:
	.loc 2 129 0
	li 0,0
	.loc 2 131 0
	lis 3,.LANCHOR0@ha
	.loc 2 129 0
	stb 0,16(9)
	.loc 2 131 0
	la 3,.LANCHOR0@l(3)
	addis 3,3,0x2
	lwz 4,4(30)
	addi 3,3,264
	bl _ZN19idDynamicBlockAllocIcLi262144ELi128EE4FreeEPc
	.loc 2 135 0
	stw 28,4(30)
.LVL813:
.L778:
.LBE2151:
.LBE2150:
.LBE2149:
	.loc 2 137 0
	lwz 0,60(1)
	lwz 28,40(1)
	mtlr 0
	lwz 29,44(1)
	lwz 30,48(1)
.LVL814:
	lwz 31,52(1)
	addi 1,1,56
.LCFI81:
	.cfi_def_cfa_offset 0
	.cfi_restore 31
	.cfi_restore 30
	.cfi_restore 29
	.cfi_restore 28
	blr
	.cfi_endproc
.LFE2540:
	.size	_ZN5idStr8FreeDataEv, .-_ZN5idStr8FreeDataEv
	.section	.text._ZN19idDynamicBlockAllocIcLi262144ELi128EE14ResizeInternalEP14idDynamicBlockIcEi,"axG",@progbits,_ZN19idDynamicBlockAllocIcLi262144ELi128EE14ResizeInternalEP14idDynamicBlockIcEi,comdat
	.align 2
	.weak	_ZN19idDynamicBlockAllocIcLi262144ELi128EE14ResizeInternalEP14idDynamicBlockIcEi
	.type	_ZN19idDynamicBlockAllocIcLi262144ELi128EE14ResizeInternalEP14idDynamicBlockIcEi, @function
_ZN19idDynamicBlockAllocIcLi262144ELi128EE14ResizeInternalEP14idDynamicBlockIcEi:
.LFB2826:
	.loc 4 767 0
	.cfi_startproc
.LVL815:
	mflr 0
	stwu 1,-40(1)
.LCFI82:
	.cfi_def_cfa_offset 40
	.cfi_register 65, 0
	stw 29,28(1)
.LBB2215:
	.loc 4 768 0
	addi 29,5,15
	.cfi_offset 29, -12
.LBE2215:
	.loc 4 767 0
	stw 0,44(1)
.LBB2325:
	.loc 4 768 0
	rlwinm 29,29,0,0,27
.LVL816:
.LBE2325:
	.loc 4 767 0
	stw 30,32(1)
	mr 30,3
	.cfi_offset 30, -8
	.cfi_offset 65, 4
	stw 31,36(1)
	mr 31,4
	.cfi_offset 31, -4
	stw 24,8(1)
	stw 25,12(1)
	stw 26,16(1)
	stw 27,20(1)
	stw 28,24(1)
.LBB2326:
.LBB2216:
.LBB2217:
.LBB2218:
	.loc 4 387 0
	lwz 9,0(4)
	srawi 0,9,31
	xor 9,0,9
	subf 9,0,9
.LBE2218:
.LBE2217:
	.loc 4 775 0
	cmpw 7,29,9
	ble- 7,.L783
	.cfi_offset 28, -16
	.cfi_offset 27, -20
	.cfi_offset 26, -24
	.cfi_offset 25, -28
	.cfi_offset 24, -32
.LBB2219:
	.loc 4 777 0
	lwz 25,8(4)
.LVL817:
.LBB2220:
	.loc 4 780 0
	cmpwi 7,25,0
	beq- 7,.L784
	.loc 2 1747 0 discriminator 1
	lwz 0,0(25)
	.loc 4 780 0 discriminator 1
	cmpwi 7,0,0
	blt- 7,.L784
	.loc 4 780 0 is_stmt 0 discriminator 3
	lwz 24,12(25)
	cmpwi 7,24,0
	beq- 7,.L784
	.loc 4 780 0 discriminator 4
	addi 9,9,16
	add 0,0,9
	cmpw 7,29,0
	bgt- 7,.L784
.LVL818:
.LBB2221:
.LBB2222:
.LBB2223:
.LBB2224:
	.loc 5 209 0 is_stmt 1 discriminator 6
	lwz 9,16(24)
.LBE2224:
.LBE2223:
	.loc 4 880 0 discriminator 6
	addi 26,3,8
.LVL819:
.LBB2278:
.LBB2274:
	.loc 5 209 0 discriminator 6
	cmpwi 7,9,0
	beq- 7,.L785
	.loc 5 210 0
	lwz 0,12(24)
	stw 0,12(9)
.L786:
	.loc 5 214 0
	lwz 9,12(24)
	cmpwi 7,9,0
	beq- 7,.L787
	.loc 5 215 0
	lwz 0,16(24)
	stw 0,16(9)
.L788:
	.loc 5 219 0
	lwz 9,8(24)
	lwz 11,20(9)
	addi 0,11,-1
	stw 0,20(9)
	.loc 5 222 0
	lwz 27,8(24)
.LVL820:
	lwz 0,8(30)
	cmpw 7,27,0
	beq- 7,.L840
.LVL821:
.L837:
	lwz 0,20(27)
	cmpwi 7,0,1
	ble- 7,.L841
.L840:
	.loc 5 240 0
	cmpwi 7,27,0
	beq- 7,.L806
.L842:
	lwz 9,28(27)
	cmpwi 7,9,0
	beq- 7,.L806
	.loc 5 242 0
	lwz 0,0(9)
	lwz 9,0(27)
	cmpw 7,9,0
	ble- 7,.L812
	.loc 5 243 0
	stw 0,0(27)
.L812:
	.loc 5 240 0
	lwz 27,8(27)
.LVL822:
	cmpwi 7,27,0
	bne+ 7,.L842
.L806:
.LVL823:
.LBB2225:
.LBB2226:
.LBB2227:
	.loc 4 228 0
	addi 3,24,-4
	bl _ZdlPv
	.loc 4 230 0
	lwz 9,24(30)
.LBE2227:
.LBE2226:
.LBE2225:
.LBB2230:
	.loc 5 251 0
	lwz 3,8(30)
.LBE2230:
.LBB2238:
.LBB2229:
.LBB2228:
	.loc 4 230 0
	addi 0,9,-1
	stw 0,24(30)
.LBE2228:
.LBE2229:
.LBE2238:
.LBB2239:
	.loc 5 251 0
	lwz 0,20(3)
	cmpwi 7,0,1
	beq- 7,.L843
.LVL824:
.L813:
.LBE2239:
.LBE2274:
.LBE2278:
	.loc 4 881 0
	li 0,0
	stw 0,12(25)
	.loc 4 882 0
	lwz 11,48(30)
	.loc 4 883 0
	lwz 9,52(30)
	.loc 4 882 0
	addi 0,11,-1
	stw 0,48(30)
.LBB2279:
.LBB2280:
	.loc 4 387 0
	lwz 0,0(25)
	srawi 10,0,31
	xor 0,10,0
	subf 0,10,0
.LBE2280:
.LBE2279:
	.loc 4 883 0
	subf 0,0,9
	stw 0,52(30)
	.loc 2 1747 0
	lwz 0,0(31)
.LBE2222:
.LBE2221:
.LBB2287:
.LBB2288:
	.loc 4 387 0
	lwz 11,0(25)
.LBE2288:
.LBE2287:
.LBB2291:
.LBB2292:
	srawi 10,0,31
.LBE2292:
.LBE2291:
.LBB2294:
.LBB2295:
	.loc 4 388 0
	cmpwi 7,0,0
.LBE2295:
.LBE2294:
.LBB2298:
.LBB2293:
	.loc 4 387 0
	xor 9,10,0
	subf 9,10,9
.LBE2293:
.LBE2298:
.LBB2299:
.LBB2289:
	srawi 10,11,31
	xor 0,10,11
.LBE2289:
.LBE2299:
	.loc 4 784 0
	addi 9,9,16
.LBB2300:
.LBB2290:
	.loc 4 387 0
	subf 0,10,0
.LBE2290:
.LBE2300:
	.loc 4 784 0
	add 0,9,0
.LVL825:
.LBB2301:
.LBB2296:
	.loc 4 388 0
	blt- 7,.L844
.LVL826:
.L814:
	stw 0,0(31)
.LBE2296:
.LBE2301:
	.loc 4 785 0
	lwz 0,8(25)
	stw 0,8(31)
	.loc 4 786 0
	lwz 9,8(25)
	cmpwi 7,9,0
	beq- 7,.L815
	.loc 4 787 0
	stw 31,4(9)
	lwz 9,0(31)
	srawi 11,9,31
	xor 9,11,9
	subf 9,11,9
.LVL827:
.L783:
.LBE2220:
.LBE2219:
.LBE2216:
	.loc 4 804 0
	subf 9,29,9
.LVL828:
	cmpwi 7,9,143
	ble- 7,.L816
	.loc 4 810 0
	addi 4,29,16
	.loc 4 815 0
	addi 9,9,-16
.LBB2316:
.LBB2317:
	.loc 4 388 0
	stwx 9,31,4
.LBE2317:
.LBE2316:
	.loc 4 810 0
	add 4,31,4
.LVL829:
	.loc 4 816 0
	lwz 9,8(31)
.LVL830:
	.loc 4 817 0
	stw 31,4(4)
	.loc 4 818 0
	cmpwi 7,9,0
	.loc 4 816 0
	stw 9,8(4)
	.loc 4 818 0
	beq- 7,.L817
	.loc 4 819 0
	stw 4,4(9)
.L818:
	.loc 4 823 0
	li 0,0
	stw 0,12(4)
	.loc 4 824 0
	stw 4,8(31)
.LVL831:
.LBB2318:
.LBB2319:
	.loc 4 388 0
	lwz 0,0(31)
	cmpwi 7,0,0
	blt- 7,.L845
.LVL832:
.L819:
	stw 29,0(31)
.LBE2319:
.LBE2318:
	.loc 4 827 0
	mr 3,30
	bl _ZN19idDynamicBlockAllocIcLi262144ELi128EE12FreeInternalEP14idDynamicBlockIcE
.LVL833:
.L816:
.LBE2326:
	.loc 4 830 0
	lwz 0,44(1)
	mr 3,31
	lwz 24,8(1)
	mtlr 0
	lwz 25,12(1)
	lwz 26,16(1)
	lwz 27,20(1)
	lwz 28,24(1)
	lwz 29,28(1)
	lwz 30,32(1)
.LVL834:
	lwz 31,36(1)
	addi 1,1,40
	.cfi_remember_state
.LCFI83:
	.cfi_def_cfa_offset 0
	.cfi_restore 31
	.cfi_restore 30
	.cfi_restore 29
	.cfi_restore 28
	.cfi_restore 27
	.cfi_restore 26
	.cfi_restore 25
	.cfi_restore 24
	blr
.LVL835:
.L784:
.LCFI84:
	.cfi_restore_state
.LBB2327:
.LBB2321:
.LBB2313:
.LBB2310:
.LBB2302:
	.loc 4 794 0
	mr 3,30
.LVL836:
	mr 4,5
.LVL837:
	bl _ZN19idDynamicBlockAllocIcLi262144ELi128EE13AllocInternalEi
.LVL838:
	.loc 4 795 0
	mr. 28,3
	beq- 0,.L846
.LVL839:
.LBB2303:
.LBB2304:
	.loc 4 387 0
	lwz 5,0(31)
.LBE2304:
.LBE2303:
	.loc 4 798 0
	addi 4,31,16
	addi 3,28,16
.LVL840:
	srawi 10,5,31
	xor 5,10,5
	subf 5,10,5
	bl memcpy
	.loc 4 799 0
	mr 4,31
	mr 3,30
	mr 31,28
.LVL841:
	bl _ZN19idDynamicBlockAllocIcLi262144ELi128EE12FreeInternalEP14idDynamicBlockIcE
.LVL842:
	lwz 9,0(28)
	srawi 11,9,31
	xor 9,11,9
	subf 9,11,9
	b .L783
.LVL843:
.L845:
.LBE2302:
.LBE2310:
.LBE2313:
.LBE2321:
.LBB2322:
.LBB2320:
	.loc 4 388 0
	neg 29,29
.LVL844:
	b .L819
.LVL845:
.L841:
.LBE2320:
.LBE2322:
.LBB2323:
.LBB2314:
.LBB2311:
.LBB2305:
.LBB2284:
.LBB2281:
.LBB2275:
	.loc 5 224 0
	lwz 28,12(27)
	cmpwi 7,28,0
	beq- 7,.L847
.LVL846:
.LBB2240:
.LBB2241:
	.loc 5 445 0
	lwz 11,24(27)
.LVL847:
	lwz 9,12(11)
	cmpwi 7,9,0
	bne+ 7,.L831
	b .L851
.LVL848:
.L823:
	mr 9,0
.LVL849:
.L831:
	.loc 5 446 0
	stw 28,8(11)
.LVL850:
	.loc 5 445 0
	mr 11,9
	lwz 0,12(9)
	cmpwi 7,0,0
	bne+ 7,.L823
.L791:
	.loc 5 448 0
	stw 28,8(9)
	.loc 5 449 0
	lwz 0,24(28)
	stw 0,12(9)
	.loc 5 450 0
	lwz 11,24(28)
	stw 9,16(11)
	.loc 5 451 0
	lwz 0,24(27)
	.loc 5 452 0
	lwz 9,20(28)
.LVL851:
	.loc 5 451 0
	stw 0,24(28)
	.loc 5 452 0
	lwz 0,20(27)
	add 0,9,0
	stw 0,20(28)
	.loc 5 455 0
	lwz 9,16(27)
	cmpwi 7,9,0
	beq- 7,.L793
	.loc 5 456 0
	stw 28,12(9)
.L794:
	.loc 5 460 0
	lwz 0,16(27)
.LBB2242:
.LBB2243:
.LBB2244:
	.loc 4 228 0
	addi 3,27,-4
.LBE2244:
.LBE2243:
.LBE2242:
	.loc 5 461 0
	lwz 9,8(28)
	.loc 5 460 0
	stw 0,16(28)
	.loc 5 461 0
	lwz 11,20(9)
	addi 0,11,-1
	stw 0,20(9)
.LVL852:
.LBB2247:
.LBB2246:
.LBB2245:
	.loc 4 228 0
	bl _ZdlPv
.LVL853:
	.loc 4 230 0
	lwz 9,16(26)
	addi 0,9,-1
	stw 0,16(26)
.LVL854:
.L795:
.LBE2245:
.LBE2246:
.LBE2247:
.LBE2241:
.LBE2240:
	.loc 5 231 0
	lwz 11,28(28)
	lwz 9,0(28)
	lwz 0,0(11)
	cmpw 7,9,0
	ble- 7,.L800
	.loc 5 232 0
	stw 0,0(28)
.L800:
	.loc 5 235 0
	lwz 0,20(28)
	cmpwi 7,0,4
	bgt- 7,.L849
	.loc 5 222 0
	lwz 27,8(28)
.LVL855:
	lwz 0,0(26)
	cmpw 7,27,0
	bne+ 7,.L837
	b .L840
.LVL856:
.L847:
	.loc 5 226 0
	lwz 3,16(27)
	mr 28,27
	cmpwi 7,3,0
	beq- 7,.L795
.LVL857:
.LBB2249:
.LBB2250:
	.loc 5 445 0
	lwz 11,24(3)
.LVL858:
	lwz 9,12(11)
	cmpwi 7,9,0
	bne+ 7,.L832
	b .L852
.LVL859:
.L826:
	mr 9,0
.LVL860:
.L832:
	.loc 5 446 0
	stw 27,8(11)
.LVL861:
	.loc 5 445 0
	mr 11,9
	lwz 0,12(9)
	cmpwi 7,0,0
	bne+ 7,.L826
.L796:
	.loc 5 448 0
	stw 27,8(9)
	.loc 5 449 0
	lwz 0,24(27)
	stw 0,12(9)
	.loc 5 450 0
	lwz 11,24(27)
	stw 9,16(11)
	.loc 5 451 0
	lwz 0,24(3)
	.loc 5 452 0
	lwz 9,20(27)
.LVL862:
	.loc 5 451 0
	stw 0,24(27)
	.loc 5 452 0
	lwz 0,20(3)
	add 0,9,0
	stw 0,20(27)
	.loc 5 455 0
	lwz 9,16(3)
	cmpwi 7,9,0
	beq- 7,.L798
	.loc 5 456 0
	stw 27,12(9)
.L799:
	.loc 5 460 0
	lwz 0,16(3)
.LBB2251:
.LBB2252:
.LBB2253:
	.loc 4 228 0
	addi 3,3,-4
.LBE2253:
.LBE2252:
.LBE2251:
	.loc 5 461 0
	lwz 9,8(27)
.LBB2258:
.LBB2256:
.LBB2254:
	.loc 4 230 0
	mr 28,27
.LBE2254:
.LBE2256:
.LBE2258:
	.loc 5 460 0
	stw 0,16(27)
	.loc 5 461 0
	lwz 11,20(9)
	addi 0,11,-1
	stw 0,20(9)
.LVL863:
.LBB2259:
.LBB2257:
.LBB2255:
	.loc 4 228 0
	bl _ZdlPv
.LVL864:
	.loc 4 230 0
	lwz 9,16(26)
	addi 0,9,-1
	stw 0,16(26)
.LVL865:
	b .L795
.LVL866:
.L793:
.LBE2255:
.LBE2257:
.LBE2259:
.LBE2250:
.LBE2249:
.LBB2262:
.LBB2248:
	.loc 5 458 0
	lwz 9,8(27)
	stw 28,24(9)
	b .L794
.LVL867:
.L851:
	.loc 5 445 0
	mr 9,11
	b .L791
.LVL868:
.L798:
.LBE2248:
.LBE2262:
.LBB2263:
.LBB2260:
	.loc 5 458 0
	lwz 9,8(3)
	stw 27,24(9)
	b .L799
.LVL869:
.L849:
.LBE2260:
.LBE2263:
.LBB2264:
.LBB2265:
.LBB2266:
.LBB2267:
.LBB2268:
.LBB2269:
	.loc 4 215 0
	lwz 9,24(30)
	.loc 4 216 0
	li 3,36
	.loc 4 215 0
	addi 0,9,1
	stw 0,24(30)
	.loc 4 216 0
	bl _Znwj
.LVL870:
.LBE2269:
.LBE2268:
	.loc 5 377 0
	li 0,0
	.loc 5 378 0
	stw 0,12(3)
	.loc 5 399 0
	addi 10,3,4
	.loc 5 377 0
	stw 0,4(3)
	.loc 5 379 0
	stw 0,16(3)
	.loc 5 380 0
	stw 0,20(3)
	.loc 5 381 0
	stw 0,24(3)
	.loc 5 382 0
	stw 0,28(3)
	.loc 5 383 0
	stw 0,32(3)
	.loc 5 384 0
	stw 0,8(3)
.LBE2267:
.LBE2266:
	.loc 5 400 0
	lwz 0,8(28)
	stw 0,12(3)
	.loc 5 403 0
	lwz 9,24(28)
.LVL871:
	.loc 5 404 0
	stw 10,8(9)
.LVL872:
	.loc 5 405 0
	lwz 0,20(28)
	cmpwi 7,0,3
	ble- 7,.L802
	li 11,3
.LVL873:
.L803:
	.loc 5 406 0
	lwz 9,12(9)
.LVL874:
	.loc 5 405 0
	addi 11,11,2
.LVL875:
	.loc 5 407 0
	stw 10,8(9)
	.loc 5 405 0
	lwz 0,20(28)
	cmpw 7,11,0
	blt+ 7,.L803
.LVL876:
.L802:
	.loc 5 410 0
	lwz 11,0(9)
	.loc 5 418 0
	li 0,0
	.loc 5 410 0
	stw 11,4(3)
	.loc 5 411 0
	lwz 11,20(28)
	srawi 11,11,1
	addze 11,11
	stw 11,24(3)
	.loc 5 412 0
	lwz 8,24(28)
	.loc 5 413 0
	stw 9,32(3)
	.loc 5 412 0
	stw 8,28(3)
	.loc 5 415 0
	lwz 8,20(28)
	subf 11,11,8
	stw 11,20(28)
	.loc 5 416 0
	lwz 11,12(9)
	stw 11,24(28)
	.loc 5 418 0
	lwz 11,12(9)
	stw 0,16(11)
	.loc 5 419 0
	stw 0,12(9)
	.loc 5 424 0
	lwz 9,16(28)
.LVL877:
	cmpwi 7,9,0
	beq- 7,.L804
	.loc 5 425 0
	stw 10,12(9)
.L805:
	.loc 5 429 0
	lwz 0,16(28)
	.loc 5 433 0
	mr 27,28
	.loc 5 430 0
	stw 28,16(3)
	.loc 5 429 0
	stw 0,20(3)
	.loc 5 431 0
	stw 10,16(28)
	.loc 5 433 0
	lwz 9,8(28)
	lwz 11,20(9)
	addi 0,11,1
	stw 0,20(9)
	b .L840
.LVL878:
.L843:
.LBE2265:
.LBE2264:
.LBB2271:
	.loc 5 251 0
	lwz 9,24(3)
	lwz 0,4(9)
	cmpwi 7,0,0
	bne+ 7,.L813
.LVL879:
.LBB2231:
	.loc 5 253 0
	stw 0,8(9)
.LBB2232:
.LBB2233:
.LBB2234:
	.loc 4 228 0
	addi 3,3,-4
.LVL880:
.LBE2234:
.LBE2233:
.LBE2232:
	.loc 5 254 0
	lwz 9,8(30)
	lwz 0,24(9)
	stw 0,8(30)
.LVL881:
.LBB2237:
.LBB2236:
.LBB2235:
	.loc 4 228 0
	bl _ZdlPv
.LVL882:
	.loc 4 230 0
	lwz 0,24(30)
	addic 0,0,-1
	stw 0,24(30)
	b .L813
.LVL883:
.L817:
.LBE2235:
.LBE2236:
.LBE2237:
.LBE2231:
.LBE2271:
.LBE2275:
.LBE2281:
.LBE2284:
.LBE2305:
.LBE2311:
.LBE2314:
.LBE2323:
	.loc 4 821 0
	stw 4,4(30)
	b .L818
.LVL884:
.L844:
.LBB2324:
.LBB2315:
.LBB2312:
.LBB2306:
.LBB2297:
	.loc 4 388 0
	neg 0,0
.LVL885:
	b .L814
.LVL886:
.L852:
.LBE2297:
.LBE2306:
.LBB2307:
.LBB2285:
.LBB2282:
.LBB2276:
.LBB2272:
.LBB2261:
	.loc 5 445 0
	mr 9,11
	b .L796
.LVL887:
.L815:
.LBE2261:
.LBE2272:
.LBE2276:
.LBE2282:
.LBE2285:
.LBE2307:
	.loc 4 789 0
	stw 31,4(30)
	lwz 9,0(31)
	srawi 0,9,31
	xor 9,0,9
	subf 9,0,9
	b .L783
.LVL888:
.L787:
.LBB2308:
.LBB2286:
.LBB2283:
.LBB2277:
	.loc 5 217 0
	lwz 9,8(24)
	lwz 0,16(24)
	stw 0,28(9)
	b .L788
.L785:
	.loc 5 212 0
	lwz 9,8(24)
	lwz 0,12(24)
	stw 0,24(9)
	b .L786
.LVL889:
.L804:
.LBB2273:
.LBB2270:
	.loc 5 427 0
	lwz 9,8(28)
	stw 10,24(9)
	b .L805
.LVL890:
.L846:
.LBE2270:
.LBE2273:
.LBE2277:
.LBE2283:
.LBE2286:
.LBE2308:
.LBB2309:
	.loc 4 796 0
	li 31,0
.LVL891:
	b .L816
.LBE2309:
.LBE2312:
.LBE2315:
.LBE2324:
.LBE2327:
	.cfi_endproc
.LFE2826:
	.size	_ZN19idDynamicBlockAllocIcLi262144ELi128EE14ResizeInternalEP14idDynamicBlockIcEi, .-_ZN19idDynamicBlockAllocIcLi262144ELi128EE14ResizeInternalEP14idDynamicBlockIcEi
	.section	".text"
	.align 2
	.globl _ZN5idStr10ReAllocateEib
	.type	_ZN5idStr10ReAllocateEib, @function
_ZN5idStr10ReAllocateEib:
.LFB2539:
	.loc 2 80 0
	.cfi_startproc
.LVL892:
	mflr 0
	stwu 1,-32(1)
.LCFI85:
	.cfi_def_cfa_offset 32
	.cfi_register 65, 0
	stw 27,12(1)
	mr 27,5
	.cfi_offset 27, -20
	stw 0,36(1)
.LBB2328:
	.loc 2 88 0
	srawi 0,4,5
	addze 0,0
	.cfi_offset 65, 4
	slwi 0,0,5
.LVL893:
.LBE2328:
	.loc 2 80 0
	stw 30,24(1)
.LBB2336:
	.loc 2 89 0
	subf. 0,0,4
.LVL894:
.LBE2336:
	.loc 2 80 0
	stw 31,28(1)
	stw 26,8(1)
.LBB2337:
	.loc 2 90 0
	mr 31,4
	.cfi_offset 26, -24
	.cfi_offset 31, -4
	.cfi_offset 30, -8
.LBE2337:
	.loc 2 80 0
	stw 28,16(1)
	mr 30,3
	stw 29,20(1)
.LBB2338:
	.loc 2 89 0
	beq- 0,.L854
	.cfi_offset 29, -12
	.cfi_offset 28, -16
	.loc 2 93 0
	addi 31,4,32
	subf 31,0,31
.LVL895:
.L854:
.LBB2329:
.LBB2330:
	.loc 4 586 0
	lis 29,.LANCHOR0@ha
.LBE2330:
.LBE2329:
	.loc 2 95 0
	stw 31,8(30)
.LVL896:
.LBB2335:
.LBB2333:
	.loc 4 586 0
	la 29,.LANCHOR0@l(29)
	.loc 4 588 0
	cmpwi 7,31,0
	.loc 4 586 0
	addis 29,29,0x2
	.loc 4 589 0
	li 28,0
	.loc 4 586 0
	lwz 9,320(29)
	addi 0,9,1
.LVL897:
	stw 0,320(29)
	.loc 4 588 0
	ble- 7,.L855
	.loc 2 98 0
	addi 26,29,264
	.loc 4 592 0
	mr 4,31
.LVL898:
	mr 3,26
.LVL899:
	bl _ZN19idDynamicBlockAllocIcLi262144ELi128EE13AllocInternalEi
.LVL900:
	.loc 4 593 0
	mr. 4,3
	beq- 0,.L855
	.loc 4 596 0
	mr 3,26
.LVL901:
	mr 5,31
	bl _ZN19idDynamicBlockAllocIcLi262144ELi128EE14ResizeInternalEP14idDynamicBlockIcEi
.LVL902:
	.loc 4 597 0
	cmpwi 0,3,0
	beq- 0,.L855
	.loc 4 605 0
	lwz 11,304(29)
.LBE2333:
	.loc 4 608 0
	addi 28,3,16
.LBB2334:
	.loc 4 606 0
	lwz 9,308(29)
	.loc 4 605 0
	addi 0,11,1
	stw 0,304(29)
.LBB2331:
.LBB2332:
	.loc 4 387 0
	lwz 0,0(3)
	srawi 11,0,31
	xor 0,11,0
	subf 0,11,0
.LBE2332:
.LBE2331:
	.loc 4 606 0
	add 0,9,0
	stw 0,308(29)
.LVL903:
.L855:
.LBE2334:
.LBE2335:
	.loc 2 102 0
	cmpwi 7,27,0
	beq- 7,.L856
	.loc 2 102 0 is_stmt 0 discriminator 1
	lwz 9,4(30)
	cmpwi 7,9,0
	beq- 7,.L857
	.loc 2 103 0 is_stmt 1
	lwz 0,0(30)
	li 11,0
	.loc 2 104 0
	mr 3,28
	.loc 2 103 0
	stbx 11,9,0
	.loc 2 104 0
	lwz 4,4(30)
	bl strcpy
.L856:
	.loc 2 107 0
	lwz 4,4(30)
	cmpwi 7,4,0
	beq- 7,.L857
	.loc 2 107 0 is_stmt 0 discriminator 1
	addi 0,30,12
	cmpw 7,4,0
	beq- 7,.L857
	.loc 2 109 0 is_stmt 1
	addi 3,29,264
	bl _ZN19idDynamicBlockAllocIcLi262144ELi128EE4FreeEPc
.L857:
	.loc 2 115 0
	stw 28,4(30)
.LBE2338:
	.loc 2 116 0
	lwz 0,36(1)
	lwz 26,8(1)
	mtlr 0
	lwz 27,12(1)
	lwz 28,16(1)
.LVL904:
	lwz 29,20(1)
	lwz 30,24(1)
.LVL905:
	lwz 31,28(1)
.LVL906:
	addi 1,1,32
.LCFI86:
	.cfi_def_cfa_offset 0
	.cfi_restore 31
	.cfi_restore 30
	.cfi_restore 29
	.cfi_restore 28
	.cfi_restore 27
	.cfi_restore 26
	blr
	.cfi_endproc
.LFE2539:
	.size	_ZN5idStr10ReAllocateEib, .-_ZN5idStr10ReAllocateEib
	.align 2
	.globl _ZNK5idStr3MidEii
	.type	_ZNK5idStr3MidEii, @function
_ZNK5idStr3MidEii:
.LFB2557:
	.loc 2 631 0
	.cfi_startproc
	.cfi_personality 0,__gxx_personality_v0
	.cfi_lsda 0,.LLSDA2557
.LVL907:
	mflr 0
	stwu 1,-32(1)
.LCFI87:
	.cfi_def_cfa_offset 32
	.cfi_register 65, 0
	mfcr 12
.LBB2354:
.LBB2355:
.LBB2356:
.LBB2357:
	.loc 3 358 0
	addi 9,3,12
	.loc 3 357 0
	li 11,20
.LBE2357:
.LBE2356:
.LBE2355:
.LBE2354:
	.loc 2 631 0
	stw 29,20(1)
	stw 0,36(1)
.LBB2382:
.LBB2362:
.LBB2360:
.LBB2358:
	.loc 3 356 0
	li 0,0
	.cfi_offset 65, 4
	.cfi_offset 29, -12
	.cfi_register 70, 12
.LBE2358:
.LBE2360:
.LBE2362:
.LBE2382:
	.loc 2 631 0
	stw 30,24(1)
	mr 29,5
	stw 31,28(1)
	mr 30,6
	.cfi_offset 31, -4
	.cfi_offset 30, -8
	stw 27,12(1)
	mr 31,3
.LVL908:
	stw 28,16(1)
	stw 12,8(1)
.LBB2383:
.LBB2363:
.LBB2361:
.LBB2359:
	.loc 3 356 0
	stw 0,0(3)
	.loc 3 357 0
	stw 11,8(3)
	.loc 3 358 0
	stw 9,4(3)
	.loc 3 359 0
	stb 0,12(3)
	.loc 2 1747 0
	lwz 0,0(4)
.LBE2359:
.LBE2361:
.LBE2363:
	.loc 2 636 0
	cmpwi 7,0,0
	beq- 7,.L862
	.cfi_offset 70, -24
	.cfi_offset 28, -16
	.cfi_offset 27, -20
.LVL909:
	.loc 2 636 0 is_stmt 0 discriminator 1
	cmpwi 7,6,0
	ble- 7,.L862
	.loc 2 636 0 discriminator 2
	cmpw 7,0,5
	ble- 7,.L862
	.loc 2 640 0 is_stmt 1
	add 9,5,6
.LVL910:
	cmpw 7,0,9
	ble- 7,.L876
.LVL911:
.L864:
	.loc 2 644 0
	lwz 28,4(4)
.LVL912:
.LBB2364:
.LBB2365:
	.loc 3 789 0
	add. 27,28,29
	beq- 0,.L862
	cmpwi 4,30,0
	bne- 4,.L877
.LVL913:
.L862:
.LBE2365:
.LBE2364:
.LBE2383:
	.loc 2 646 0
	lwz 0,36(1)
	mr 3,31
.LVL914:
	lwz 12,8(1)
	mtlr 0
	lwz 27,12(1)
	lwz 28,16(1)
	mtcrf 8,12
	lwz 29,20(1)
	lwz 30,24(1)
.LVL915:
	lwz 31,28(1)
.LVL916:
	addi 1,1,32
	.cfi_remember_state
.LCFI88:
	.cfi_def_cfa_offset 0
	.cfi_restore 70
	.cfi_restore 31
	.cfi_restore 30
	.cfi_restore 29
	.cfi_restore 28
	.cfi_restore 27
	blr
.LVL917:
.L876:
.LCFI89:
	.cfi_restore_state
.LBB2384:
	.loc 2 641 0
	subf 30,5,0
.LVL918:
	b .L864
.LVL919:
.L877:
.LBB2376:
.LBB2366:
.LBB2367:
	.loc 3 791 0
	addi 4,30,1
.LVL920:
.LBB2368:
.LBB2369:
	.loc 3 350 0
	cmpwi 7,4,20
	bgt- 7,.L865
.LVL921:
.L868:
.LBE2369:
.LBE2368:
	.loc 3 792 0
	lbzx 0,28,29
	cmpwi 7,0,0
	beq- 7,.L867
	ble- 4,.L867
	mtctr 30
	li 9,0
.LVL922:
.L869:
	.loc 3 793 0
	lwz 10,4(31)
	lwz 11,0(31)
	add 11,10,11
	stbx 0,11,9
	.loc 3 792 0
	addi 9,9,1
.LVL923:
	lbzx 0,27,9
	cmpwi 7,0,0
	beq- 7,.L867
	bdnz .L869
.LVL924:
.L867:
	.loc 3 796 0
	lwz 9,4(31)
	li 0,0
	.loc 3 795 0
	stw 30,0(31)
.LBE2367:
.LBE2366:
.LBE2376:
.LBE2384:
	.loc 2 646 0
	mr 3,31
.LBB2385:
.LBB2377:
.LBB2374:
.LBB2372:
	.loc 3 796 0
	stbx 0,9,30
.LBE2372:
.LBE2374:
.LBE2377:
.LBE2385:
	.loc 2 646 0
	lwz 0,36(1)
	lwz 12,8(1)
	mtlr 0
	lwz 27,12(1)
.LVL925:
	lwz 28,16(1)
.LVL926:
	mtcrf 8,12
	lwz 29,20(1)
.LVL927:
	lwz 30,24(1)
.LVL928:
	lwz 31,28(1)
.LVL929:
	addi 1,1,32
	.cfi_remember_state
	.cfi_restore 27
	.cfi_restore 28
	.cfi_restore 29
	.cfi_restore 30
	.cfi_restore 31
	.cfi_restore 70
.LCFI90:
	.cfi_def_cfa_offset 0
	blr
.LVL930:
.L865:
.LCFI91:
	.cfi_restore_state
.LBB2386:
.LBB2378:
.LBB2375:
.LBB2373:
.LBB2371:
.LBB2370:
	.loc 3 351 0
	mr 3,31
.LVL931:
	li 5,1
.LVL932:
.LEHB2:
	bl _ZN5idStr10ReAllocateEib
.LEHE2:
.LVL933:
	b .L868
.L874:
	mr 30,3
.LVL934:
.LBE2370:
.LBE2371:
.LBE2373:
.LBE2375:
.LBE2378:
.LBB2379:
.LBB2380:
.LBB2381:
	.loc 3 501 0
	mr 3,31
	bl _ZN5idStr8FreeDataEv
	mr 3,30
.LEHB3:
	bl _Unwind_Resume
.LEHE3:
.LBE2381:
.LBE2380:
.LBE2379:
.LBE2386:
	.cfi_endproc
.LFE2557:
	.section	.gcc_except_table
.LLSDA2557:
	.byte	0xff
	.byte	0xff
	.byte	0x1
	.uleb128 .LLSDACSE2557-.LLSDACSB2557
.LLSDACSB2557:
	.uleb128 .LEHB2-.LFB2557
	.uleb128 .LEHE2-.LEHB2
	.uleb128 .L874-.LFB2557
	.uleb128 0
	.uleb128 .LEHB3-.LFB2557
	.uleb128 .LEHE3-.LEHB3
	.uleb128 0
	.uleb128 0
.LLSDACSE2557:
	.section	".text"
	.size	_ZNK5idStr3MidEii, .-_ZNK5idStr3MidEii
	.align 2
	.globl _ZN5idStraSEPKc
	.type	_ZN5idStraSEPKc, @function
_ZN5idStraSEPKc:
.LFB2541:
	.loc 2 144 0
	.cfi_startproc
.LVL935:
	stwu 1,-24(1)
.LCFI92:
	.cfi_def_cfa_offset 24
	mflr 0
	stw 31,20(1)
.LBB2395:
	.loc 2 149 0
	mr. 31,4
	.cfi_offset 31, -4
	.cfi_register 65, 0
.LBE2395:
	.loc 2 144 0
	stw 30,16(1)
	mr 30,3
	.cfi_offset 30, -8
	stw 0,28(1)
	stw 28,8(1)
	stw 29,12(1)
.LBB2404:
	.loc 2 149 0
	beq- 0,.L888
	.cfi_offset 29, -12
	.cfi_offset 28, -16
	.cfi_offset 65, 4
	.loc 2 157 0
	lwz 28,4(3)
	cmpw 7,28,31
	beq- 7,.L878
	.loc 2 162 0
	cmplw 7,31,28
	blt- 7,.L882
	.loc 2 162 0 is_stmt 0 discriminator 1
	lwz 0,0(3)
	add 0,28,0
	cmplw 7,31,0
	bgt- 7,.L882
.LVL936:
.LBE2404:
.LBB2405:
.LBB2406:
	.loc 2 167 0 is_stmt 1
	lbz 9,0(31)
	.loc 2 163 0
	subf 10,28,31
.LVL937:
	.loc 2 167 0
	li 0,0
	cmpwi 7,9,0
	beq- 7,.L883
	li 11,0
.LVL938:
.L885:
	.loc 2 168 0
	stbx 9,28,0
	.loc 2 167 0
	addi 0,11,1
.LVL939:
	mr 11,0
.LVL940:
	lbzx 9,31,0
	lwz 28,4(30)
	cmpwi 7,9,0
	bne+ 7,.L885
.LVL941:
.L883:
	.loc 2 171 0
	li 9,0
	stbx 9,28,0
	.loc 2 173 0
	lwz 0,0(30)
	subf 0,10,0
	stw 0,0(30)
.LBE2406:
.LBE2405:
	.loc 2 182 0
	lwz 0,28(1)
	lwz 28,8(1)
	mtlr 0
	lwz 29,12(1)
	lwz 30,16(1)
	lwz 31,20(1)
	addi 1,1,24
	.cfi_remember_state
	.cfi_restore 28
	.cfi_restore 29
	.cfi_restore 30
	.cfi_restore 31
.LCFI93:
	.cfi_def_cfa_offset 0
	blr
.LVL942:
.L882:
.LCFI94:
	.cfi_restore_state
.LBB2407:
	.loc 2 178 0
	mr 3,31
.LVL943:
	bl strlen
.LVL944:
.LBB2396:
.LBB2397:
	.loc 3 350 0
	lwz 0,8(30)
.LBE2397:
.LBE2396:
	.loc 2 179 0
	addi 4,3,1
	.loc 2 178 0
	mr 29,3
.LVL945:
.LBB2400:
.LBB2398:
	.loc 3 350 0
	cmpw 7,4,0
	bgt- 7,.L889
.LVL946:
.L886:
.LBE2398:
.LBE2400:
	.loc 2 180 0
	mr 3,28
	mr 4,31
	bl strcpy
	.loc 2 181 0
	stw 29,0(30)
.LVL947:
.L878:
.LBE2407:
	.loc 2 182 0
	lwz 0,28(1)
	lwz 28,8(1)
	mtlr 0
	lwz 29,12(1)
	lwz 30,16(1)
.LVL948:
	lwz 31,20(1)
.LVL949:
	addi 1,1,24
	.cfi_remember_state
.LCFI95:
	.cfi_def_cfa_offset 0
	.cfi_restore 31
	.cfi_restore 30
	.cfi_restore 29
	.cfi_restore 28
	blr
.LVL950:
.L889:
.LCFI96:
	.cfi_restore_state
.LBB2408:
.LBB2401:
.LBB2399:
	.loc 3 351 0
	mr 3,30
.LVL951:
	li 5,0
	bl _ZN5idStr10ReAllocateEib
.LVL952:
	lwz 28,4(30)
	b .L886
.LVL953:
.L888:
.LBE2399:
.LBE2401:
.LBB2402:
.LBB2403:
	.loc 3 350 0
	lwz 0,8(3)
	cmpwi 7,0,0
	bgt+ 7,.L880
	.loc 3 351 0
	li 4,1
	li 5,0
	bl _ZN5idStr10ReAllocateEib
.L880:
.LBE2403:
.LBE2402:
	.loc 2 152 0
	lwz 9,4(30)
	li 0,0
	stb 0,0(9)
	.loc 2 153 0
	li 0,0
	stw 0,0(30)
	.loc 2 154 0
	b .L878
.LBE2408:
	.cfi_endproc
.LFE2541:
	.size	_ZN5idStraSEPKc, .-_ZN5idStraSEPKc
	.align 2
	.globl _Z8vsprintfR5idStrPKcP13__va_list_tag
	.type	_Z8vsprintfR5idStrPKcP13__va_list_tag, @function
_Z8vsprintfR5idStrPKcP13__va_list_tag:
.LFB2591:
	.loc 2 1554 0
	.cfi_startproc
.LVL954:
	mflr 0
	stwu 1,-32016(1)
.LCFI97:
	.cfi_def_cfa_offset 32016
	.cfi_register 65, 0
	mr 6,5
	stw 31,32012(1)
	mr 31,3
	.cfi_offset 31, -4
	stw 0,32020(1)
	mr 0,4
	.cfi_offset 65, 4
.LBB2409:
	.loc 2 1558 0
	mr 5,0
.LVL955:
	li 4,31999
.LVL956:
	addi 3,1,8
.LVL957:
.LBE2409:
	.loc 2 1554 0
	stw 30,32008(1)
.LBB2410:
	.loc 2 1558 0
	.cfi_offset 30, -8
	bl _ZN5idStr9vsnPrintfEPciPKcP13__va_list_tag
.LVL958:
	.loc 2 1559 0
	li 0,0
	.loc 2 1558 0
	mr 30,3
.LVL959:
	.loc 2 1561 0
	addi 4,1,8
	mr 3,31
.LVL960:
	.loc 2 1559 0
	stb 0,32007(1)
	.loc 2 1561 0
	bl _ZN5idStraSEPKc
.LBE2410:
	.loc 2 1563 0
	lwz 0,32020(1)
	mr 3,30
	lwz 31,32012(1)
.LVL961:
	mtlr 0
	lwz 30,32008(1)
.LVL962:
	addi 1,1,32016
.LCFI98:
	.cfi_def_cfa_offset 0
	.cfi_restore 31
	.cfi_restore 30
	blr
	.cfi_endproc
.LFE2591:
	.size	_Z8vsprintfR5idStrPKcP13__va_list_tag, .-_Z8vsprintfR5idStrPKcP13__va_list_tag
	.align 2
	.globl _Z7sprintfR5idStrPKcz
	.type	_Z7sprintfR5idStrPKcz, @function
_Z7sprintfR5idStrPKcz:
.LFB2590:
	.loc 2 1533 0
	.cfi_startproc
.LVL963:
	mflr 0
	stwu 1,-32128(1)
.LCFI99:
	.cfi_def_cfa_offset 32128
	.cfi_register 65, 0
	stw 31,32124(1)
	mr 31,3
	.cfi_offset 31, -4
	stw 0,32132(1)
	stw 29,32116(1)
	stw 30,32120(1)
	stw 5,32024(1)
	stw 6,32028(1)
	stw 7,32032(1)
	stw 8,32036(1)
	stw 9,32040(1)
	stw 10,32044(1)
	bne- 1,.L892
	.cfi_offset 30, -8
	.cfi_offset 29, -12
	.cfi_offset 65, 4
	.loc 2 1533 0
	stfd 1,32048(1)
	stfd 2,32056(1)
	stfd 3,32064(1)
	stfd 4,32072(1)
	stfd 5,32080(1)
	stfd 6,32088(1)
	stfd 7,32096(1)
	stfd 8,32104(1)
.L892:
.LBB2411:
	.loc 2 1538 0
	li 0,2
.LBE2411:
	.loc 2 1533 0
	mr 5,4
.LBB2412:
	.loc 2 1538 0
	stb 0,8(1)
	addi 0,1,32136
	li 30,0
	.loc 2 1539 0
	addi 6,1,8
	.loc 2 1538 0
	stw 0,12(1)
	.loc 2 1539 0
	li 4,31999
.LVL964:
	.loc 2 1538 0
	addi 0,1,32016
	.loc 2 1539 0
	addi 3,1,20
.LVL965:
	.loc 2 1538 0
	stw 0,16(1)
	stb 30,9(1)
	.loc 2 1539 0
	bl _ZN5idStr9vsnPrintfEPciPKcP13__va_list_tag
.LVL966:
	mr 29,3
.LVL967:
	.loc 2 1543 0
	addi 4,1,20
	mr 3,31
.LVL968:
	.loc 2 1541 0
	stb 30,32019(1)
	.loc 2 1543 0
	bl _ZN5idStraSEPKc
.LBE2412:
	.loc 2 1545 0
	lwz 0,32132(1)
	mr 3,29
	lwz 30,32120(1)
	mtlr 0
	lwz 29,32116(1)
.LVL969:
	lwz 31,32124(1)
.LVL970:
	addi 1,1,32128
.LCFI100:
	.cfi_def_cfa_offset 0
	.cfi_restore 31
	.cfi_restore 30
	.cfi_restore 29
	blr
	.cfi_endproc
.LFE2590:
	.size	_Z7sprintfR5idStrPKcz, .-_Z7sprintfR5idStrPKcz
	.align 2
	.globl _ZN5idStr10AppendPathEPKc
	.type	_ZN5idStr10AppendPathEPKc, @function
_ZN5idStr10AppendPathEPKc:
.LFB2567:
	.loc 2 835 0
	.cfi_startproc
.LVL971:
	stwu 1,-24(1)
.LCFI101:
	.cfi_def_cfa_offset 24
	mflr 0
	stw 30,16(1)
.LBB2416:
	.loc 2 839 0
	mr. 30,4
	.cfi_offset 30, -8
	.cfi_register 65, 0
.LBE2416:
	.loc 2 835 0
	stw 29,12(1)
	mr 29,3
	.cfi_offset 29, -12
	stw 0,28(1)
	stw 28,8(1)
	stw 31,20(1)
.LBB2421:
	.loc 2 839 0
	beq- 0,.L893
	.cfi_offset 31, -4
	.cfi_offset 28, -16
	.cfi_offset 65, 4
	.loc 2 839 0 is_stmt 0 discriminator 1
	lbz 0,0(30)
	cmpwi 7,0,0
	bne- 7,.L904
.L893:
.LBE2421:
	.loc 2 862 0 is_stmt 1
	lwz 0,28(1)
	lwz 28,8(1)
	mtlr 0
	lwz 29,12(1)
	lwz 30,16(1)
	lwz 31,20(1)
	addi 1,1,24
	.cfi_remember_state
.LCFI102:
	.cfi_def_cfa_offset 0
	.cfi_restore 31
	.cfi_restore 30
	.cfi_restore 29
	.cfi_restore 28
	blr
.L904:
.LCFI103:
	.cfi_restore_state
.LBB2422:
	.loc 2 840 0
	lwz 31,0(3)
.LVL972:
	.loc 2 841 0
	mr 3,30
.LVL973:
	bl strlen
.LVL974:
.LBB2417:
.LBB2418:
	.loc 3 350 0
	lwz 0,8(29)
.LBE2418:
.LBE2417:
	.loc 2 841 0
	addi 4,31,2
	mr 28,31
	add 4,4,3
.LVL975:
.LBB2420:
.LBB2419:
	.loc 3 350 0
	cmpw 7,4,0
	ble+ 7,.L895
	.loc 3 351 0
	mr 3,29
	li 5,1
	bl _ZN5idStr10ReAllocateEib
.LVL976:
.L895:
.LBE2419:
.LBE2420:
	.loc 2 843 0
	cmpwi 7,31,0
	.loc 2 844 0
	lwz 10,4(29)
	.loc 2 843 0
	bne- 7,.L905
	li 28,0
.L896:
	.loc 2 835 0
	lbz 8,0(30)
	xori 8,8,47
	cntlzw 8,8
	srwi 8,8,5
.LVL977:
	.loc 2 852 0
	lbzx 0,30,8
	cmpwi 7,0,0
	beq- 7,.L897
	.loc 2 835 0
	mr 11,31
	addi 9,31,1
	subf 8,31,8
	.loc 2 854 0
	li 7,47
	b .L900
.LVL978:
.L898:
	.loc 2 856 0
	stbx 0,10,11
	.loc 2 835 0
	add 10,30,8
	.loc 2 852 0
	addi 11,11,1
	lbzx 0,10,9
	addi 9,9,1
.LVL979:
	lwz 10,4(29)
	cmpwi 7,0,0
	beq- 7,.L903
.L900:
	.loc 2 853 0
	cmpwi 7,0,92
	.loc 2 856 0
	mr 31,9
.LVL980:
	.loc 2 853 0
	bne+ 7,.L898
	.loc 2 854 0
	stbx 7,10,11
.LVL981:
	.loc 2 835 0
	add 10,30,8
	.loc 2 852 0
	addi 11,11,1
	lbzx 0,10,9
	addi 9,9,1
.LVL982:
	lwz 10,4(29)
	cmpwi 7,0,0
	bne+ 7,.L900
.L903:
	mr 28,31
.L897:
	.loc 2 860 0
	li 0,0
	.loc 2 859 0
	stw 31,0(29)
	.loc 2 860 0
	stbx 0,10,28
.LBE2422:
	.loc 2 862 0
	lwz 0,28(1)
	lwz 28,8(1)
	mtlr 0
	lwz 29,12(1)
.LVL983:
	lwz 30,16(1)
.LVL984:
	lwz 31,20(1)
.LVL985:
	addi 1,1,24
	.cfi_remember_state
	.cfi_restore 28
	.cfi_restore 29
	.cfi_restore 30
	.cfi_restore 31
.LCFI104:
	.cfi_def_cfa_offset 0
	blr
.LVL986:
.L905:
.LCFI105:
	.cfi_restore_state
.LBB2423:
	.loc 2 844 0
	add 9,10,31
	lbz 0,-1(9)
	cmpwi 7,0,47
	beq- 7,.L896
	.loc 2 845 0
	li 0,47
	stbx 0,10,31
	addi 31,31,1
.LVL987:
	mr 28,31
	lwz 10,4(29)
	b .L896
.LBE2423:
	.cfi_endproc
.LFE2567:
	.size	_ZN5idStr10AppendPathEPKc, .-_ZN5idStr10AppendPathEPKc
	.align 2
	.globl _ZN5idStr14StripMediaNameEPKcRS_
	.type	_ZN5idStr14StripMediaNameEPKcRS_, @function
_ZN5idStr14StripMediaNameEPKcRS_:
.LFB2545:
	.loc 2 364 0
	.cfi_startproc
.LVL988:
	mflr 0
	stwu 1,-32(1)
.LCFI106:
	.cfi_def_cfa_offset 32
	.cfi_register 65, 0
	stw 29,20(1)
	mr 29,3
	.cfi_offset 29, -12
	stw 31,28(1)
	mr 31,4
	.cfi_offset 31, -4
.LVL989:
	stw 0,36(1)
	stw 27,12(1)
	stw 28,16(1)
	stw 30,24(1)
.LBB2439:
.LBB2440:
.LBB2441:
.LBB2442:
.LBB2443:
	.loc 3 350 0
	lwz 0,8(4)
	.cfi_offset 30, -8
	.cfi_offset 28, -16
	.cfi_offset 27, -20
	.cfi_offset 65, 4
	cmpwi 7,0,0
	bgt+ 7,.L907
.LVL990:
	.loc 3 351 0
	mr 3,4
.LVL991:
	li 5,1
	li 4,1
.LVL992:
	bl _ZN5idStr10ReAllocateEib
.LVL993:
.L907:
.LBE2443:
.LBE2442:
	.loc 3 737 0
	lwz 9,4(31)
	li 0,0
	stb 0,0(9)
	.loc 3 738 0
	li 0,0
	stw 0,0(31)
.LBE2441:
.LBE2440:
	.loc 2 369 0
	lbz 30,0(29)
.LVL994:
	cmpwi 7,30,0
	beq- 7,.L906
	.loc 2 371 0
	cmpwi 7,30,46
	beq- 7,.L906
.LBE2439:
	.loc 2 364 0
	li 9,0
.LBB2464:
.LBB2444:
.LBB2445:
	.loc 3 754 0
	li 28,0
.LBE2445:
.LBE2444:
.LBB2452:
.LBB2453:
	.loc 3 752 0
	li 27,47
	b .L909
.LVL995:
.L910:
.LBE2453:
.LBE2452:
.LBB2459:
.LBB2460:
	.loc 3 1011 0
	addi 0,30,-65
	rlwinm 0,0,0,0xff
	cmplwi 7,0,25
	bgt- 7,.L913
	.loc 3 1012 0
	addi 30,30,32
.LVL996:
	rlwinm 30,30,0,0xff
.LVL997:
.L913:
.LBE2460:
.LBE2459:
.LBB2461:
.LBB2450:
.LBB2446:
.LBB2447:
	.loc 3 350 0
	lwz 0,8(31)
.LBE2447:
.LBE2446:
	.loc 3 751 0
	addi 4,9,2
.LVL998:
.LBB2449:
.LBB2448:
	.loc 3 350 0
	cmpw 7,4,0
	ble+ 7,.L914
	.loc 3 351 0
	mr 3,31
	li 5,1
	bl _ZN5idStr10ReAllocateEib
.LVL999:
	lwz 9,0(31)
.L914:
.LBE2448:
.LBE2449:
	.loc 3 752 0
	lwz 11,4(31)
	stbx 30,11,9
	.loc 3 753 0
	lwz 11,0(31)
	.loc 3 754 0
	lwz 9,4(31)
	.loc 3 753 0
	addi 0,11,1
	stw 0,0(31)
	.loc 3 754 0
	stbx 28,9,0
.LBE2450:
.LBE2461:
	.loc 2 369 0
	lbzu 30,1(29)
.LVL1000:
	cmpwi 7,30,0
	beq- 7,.L906
.LVL1001:
.L915:
	.loc 2 371 0
	cmpwi 7,30,46
	beq- 7,.L906
	lwz 9,0(31)
.L909:
	.loc 2 375 0
	cmpwi 7,30,92
	bne+ 7,.L910
.LVL1002:
.LBB2462:
.LBB2458:
.LBB2454:
.LBB2455:
	.loc 3 350 0
	lwz 0,8(31)
.LBE2455:
.LBE2454:
	.loc 3 751 0
	addi 4,9,2
.LVL1003:
.LBB2457:
.LBB2456:
	.loc 3 350 0
	cmpw 7,4,0
	ble+ 7,.L911
	.loc 3 351 0
	mr 3,31
	li 5,1
	bl _ZN5idStr10ReAllocateEib
.LVL1004:
	lwz 9,0(31)
.L911:
.LBE2456:
.LBE2457:
	.loc 3 752 0
	lwz 11,4(31)
	stbx 27,11,9
.LBE2458:
.LBE2462:
.LBB2463:
.LBB2451:
	.loc 3 753 0
	lwz 11,0(31)
	.loc 3 754 0
	lwz 9,4(31)
	.loc 3 753 0
	addi 0,11,1
	stw 0,0(31)
	.loc 3 754 0
	stbx 28,9,0
.LBE2451:
.LBE2463:
	.loc 2 369 0
	lbzu 30,1(29)
.LVL1005:
	cmpwi 7,30,0
	bne+ 7,.L915
.LVL1006:
.L906:
.LBE2464:
	.loc 2 381 0
	lwz 0,36(1)
	lwz 27,12(1)
	mtlr 0
	lwz 28,16(1)
	lwz 29,20(1)
	lwz 30,24(1)
	lwz 31,28(1)
.LVL1007:
	addi 1,1,32
.LCFI107:
	.cfi_def_cfa_offset 0
	.cfi_restore 31
	.cfi_restore 30
	.cfi_restore 29
	.cfi_restore 28
	.cfi_restore 27
	blr
	.cfi_endproc
.LFE2545:
	.size	_ZN5idStr14StripMediaNameEPKcRS_, .-_ZN5idStr14StripMediaNameEPKcRS_
	.align 2
	.globl _ZN5idStr9StripPathEv
	.type	_ZN5idStr9StripPathEv, @function
_ZN5idStr9StripPathEv:
.LFB2569:
	.loc 2 890 0
	.cfi_startproc
	.cfi_personality 0,__gxx_personality_v0
	.cfi_lsda 0,.LLSDA2569
.LVL1008:
	mflr 0
	stwu 1,-56(1)
.LCFI108:
	.cfi_def_cfa_offset 56
	.cfi_register 65, 0
	stw 30,48(1)
	mr 30,3
	.cfi_offset 30, -8
	stw 0,60(1)
	stw 28,40(1)
	stw 29,44(1)
	stw 31,52(1)
.LBB2491:
	.loc 2 1747 0
	lwz 31,0(3)
	.cfi_offset 31, -4
	.cfi_offset 29, -12
	.cfi_offset 28, -16
	.cfi_offset 65, 4
.LVL1009:
	.loc 2 894 0
	cmpwi 7,31,0
	ble- 7,.L918
	.loc 2 1747 0
	lwz 11,4(3)
.LVL1010:
	.loc 2 894 0
	add 9,11,31
	lbz 0,-1(9)
	cmpwi 7,0,47
	beq- 7,.L930
.LVL1011:
	cmpwi 7,0,92
	mr 6,31
	mtctr 31
	bne+ 7,.L933
.LVL1012:
.L930:
	.loc 2 898 0
	li 6,0
.LVL1013:
.L919:
.LBB2492:
.LBB2493:
	.loc 3 933 0
	addi 29,1,8
	subf 5,6,31
	mr 3,29
.LVL1014:
	mr 4,30
.LEHB4:
	bl _ZNK5idStr3MidEii
.LEHE4:
	lwz 31,8(1)
.LBE2493:
.LBE2492:
.LBB2514:
.LBB2515:
.LBB2516:
.LBB2517:
	.loc 3 350 0
	lwz 0,8(30)
.LBE2517:
.LBE2516:
.LBE2515:
.LBE2514:
.LBB2528:
.LBB2510:
	.loc 3 933 0
	addi 28,31,1
.LVL1015:
.LBE2510:
.LBE2528:
.LBB2529:
.LBB2524:
.LBB2521:
.LBB2518:
	.loc 3 350 0
	cmpw 7,28,0
	ble+ 7,.L926
.L937:
	.loc 3 351 0
	mr 3,30
	mr 4,28
	li 5,0
.LEHB5:
	bl _ZN5idStr10ReAllocateEib
.LEHE5:
	b .L926
.LVL1016:
.L935:
.LBE2518:
.LBE2521:
.LBE2524:
.LBE2529:
	.loc 2 894 0 discriminator 4
	cmpwi 7,0,92
	beq- 7,.L921
.LVL1017:
.L933:
	.loc 2 895 0 discriminator 6
	addi 6,6,-1
.LVL1018:
	.loc 2 894 0 discriminator 6
	bdz .L918
.LVL1019:
	.loc 2 894 0 is_stmt 0 discriminator 2
	add 9,11,6
	lbz 0,-1(9)
	cmpwi 7,0,47
	bne+ 7,.L935
.L921:
	.loc 2 898 0 is_stmt 1
	subf 6,6,31
.LVL1020:
.LBB2530:
.LBB2511:
	.loc 3 930 0
	cmpw 7,31,6
	bgt+ 7,.L919
.LVL1021:
.L918:
.LBB2494:
.LBB2495:
	.loc 3 374 0
	addi 28,31,1
.LBB2496:
.LBB2497:
	.loc 3 356 0
	li 0,0
.LBE2497:
.LBE2496:
.LBB2499:
.LBB2500:
	.loc 3 350 0
	cmpwi 7,28,20
.LBE2500:
.LBE2499:
.LBB2503:
.LBB2498:
	.loc 3 358 0
	addi 3,1,20
	.loc 3 357 0
	li 9,20
	.loc 3 356 0
	stw 0,8(1)
	.loc 3 357 0
	stw 9,16(1)
	addi 29,1,8
.LVL1022:
	.loc 3 358 0
	stw 3,12(1)
	.loc 3 359 0
	stb 0,20(1)
.LVL1023:
.LBE2498:
.LBE2503:
.LBB2504:
.LBB2501:
	.loc 3 350 0
	bgt- 7,.L936
.L924:
.LBE2501:
.LBE2504:
	.loc 3 375 0
	lwz 4,4(30)
	bl strcpy
.LBE2495:
.LBE2494:
.LBE2511:
.LBE2530:
.LBB2531:
.LBB2525:
.LBB2522:
.LBB2519:
	.loc 3 350 0
	lwz 0,8(30)
.LBE2519:
.LBE2522:
.LBE2525:
.LBE2531:
.LBB2532:
.LBB2512:
.LBB2508:
.LBB2506:
	.loc 3 376 0
	stw 31,8(1)
.LVL1024:
.LBE2506:
.LBE2508:
.LBE2512:
.LBE2532:
.LBB2533:
.LBB2526:
.LBB2523:
.LBB2520:
	.loc 3 350 0
	cmpw 7,28,0
	bgt- 7,.L937
.LVL1025:
.L926:
.LBE2520:
.LBE2523:
	.loc 3 535 0
	lwz 4,12(1)
	mr 5,31
	lwz 3,4(30)
	bl memcpy
	.loc 3 536 0
	lwz 9,4(30)
	li 0,0
.LBE2526:
.LBE2533:
.LBB2534:
.LBB2535:
.LBB2536:
	.loc 3 501 0
	mr 3,29
.LBE2536:
.LBE2535:
.LBE2534:
.LBB2539:
.LBB2527:
	.loc 3 536 0
	stbx 0,9,31
	.loc 3 537 0
	stw 31,0(30)
.LVL1026:
.LEHB6:
.LBE2527:
.LBE2539:
.LBB2540:
.LBB2538:
.LBB2537:
	.loc 3 501 0
	bl _ZN5idStr8FreeDataEv
.LBE2537:
.LBE2538:
.LBE2540:
.LBE2491:
	.loc 2 900 0
	lwz 0,60(1)
	mr 3,30
	lwz 28,40(1)
.LVL1027:
	mtlr 0
	lwz 29,44(1)
.LVL1028:
	lwz 30,48(1)
.LVL1029:
	lwz 31,52(1)
	addi 1,1,56
	.cfi_remember_state
.LCFI109:
	.cfi_def_cfa_offset 0
	.cfi_restore 31
	.cfi_restore 30
	.cfi_restore 29
	.cfi_restore 28
	blr
.LVL1030:
.L936:
.LCFI110:
	.cfi_restore_state
.LBB2545:
.LBB2541:
.LBB2513:
.LBB2509:
.LBB2507:
.LBB2505:
.LBB2502:
	.loc 3 351 0
	mr 3,29
	mr 4,28
	li 5,1
	bl _ZN5idStr10ReAllocateEib
.LEHE6:
	lwz 3,12(1)
	b .L924
.LVL1031:
.L932:
	mr 31,3
.LVL1032:
.LBE2502:
.LBE2505:
.LBE2507:
.LBE2509:
.LBE2513:
.LBE2541:
.LBB2542:
.LBB2543:
.LBB2544:
	.loc 3 501 0
	mr 3,29
	bl _ZN5idStr8FreeDataEv
	mr 3,31
.LEHB7:
	bl _Unwind_Resume
.LEHE7:
.LBE2544:
.LBE2543:
.LBE2542:
.LBE2545:
	.cfi_endproc
.LFE2569:
	.section	.gcc_except_table
.LLSDA2569:
	.byte	0xff
	.byte	0xff
	.byte	0x1
	.uleb128 .LLSDACSE2569-.LLSDACSB2569
.LLSDACSB2569:
	.uleb128 .LEHB4-.LFB2569
	.uleb128 .LEHE4-.LEHB4
	.uleb128 0
	.uleb128 0
	.uleb128 .LEHB5-.LFB2569
	.uleb128 .LEHE5-.LEHB5
	.uleb128 .L932-.LFB2569
	.uleb128 0
	.uleb128 .LEHB6-.LFB2569
	.uleb128 .LEHE6-.LEHB6
	.uleb128 0
	.uleb128 0
	.uleb128 .LEHB7-.LFB2569
	.uleb128 .LEHE7-.LEHB7
	.uleb128 0
	.uleb128 0
.LLSDACSE2569:
	.section	".text"
	.size	_ZN5idStr9StripPathEv, .-_ZN5idStr9StripPathEv
	.align 2
	.globl _ZN5idStr6FilterEPKcS1_b
	.type	_ZN5idStr6FilterEPKcS1_b, @function
_ZN5idStr6FilterEPKcS1_b:
.LFB2544:
	.loc 2 254 0
	.cfi_startproc
	.cfi_personality 0,__gxx_personality_v0
	.cfi_lsda 0,.LLSDA2544
.LVL1033:
	mflr 0
	stwu 1,-120(1)
.LCFI111:
	.cfi_def_cfa_offset 120
	.cfi_register 65, 0
.LVL1034:
	mfcr 12
.LBB2579:
.LBB2580:
.LBB2581:
.LBB2582:
	.loc 3 357 0
	li 9,20
.LBE2582:
.LBE2581:
.LBE2580:
.LBE2579:
	.loc 2 254 0
	stw 22,80(1)
.LBB2642:
	.loc 2 340 0
	cmpwi 3,5,0
.LBE2642:
	.loc 2 254 0
	stw 0,124(1)
.LBB2643:
.LBB2587:
.LBB2585:
.LBB2583:
	.loc 3 356 0
	li 0,0
	.cfi_offset 65, 4
	.cfi_offset 22, -40
	.cfi_register 70, 12
.LBE2583:
.LBE2585:
.LBE2587:
.LBE2643:
	.loc 2 254 0
	stw 23,84(1)
.LBB2644:
	.loc 2 340 0
	mr 22,5
.LBE2644:
	.loc 2 254 0
	stw 26,96(1)
.LBB2645:
.LBB2588:
.LBB2589:
.LBB2590:
.LBB2591:
	.loc 3 357 0
	li 23,20
	.cfi_offset 26, -24
	.cfi_offset 23, -36
.LBE2591:
.LBE2590:
.LBE2589:
.LBE2588:
.LBE2645:
	.loc 2 254 0
	stw 28,104(1)
.LBB2646:
	.loc 2 294 0
	li 28,0
	.cfi_offset 28, -16
.LBE2646:
	.loc 2 254 0
	stw 29,108(1)
	cmpwi 2,28,0
	stw 30,112(1)
.LBB2647:
.LBB2605:
.LBB2606:
	.loc 3 737 0
	li 29,0
	.cfi_offset 30, -8
	.cfi_offset 29, -12
.LBE2606:
.LBE2605:
.LBE2647:
	.loc 2 254 0
	stw 31,116(1)
	mr 31,3
	.cfi_offset 31, -4
	stw 21,76(1)
	mr 30,4
	stw 24,88(1)
.LBB2648:
.LBB2614:
.LBB2602:
.LBB2594:
.LBB2592:
	.loc 3 358 0
	addi 26,1,20
.LBE2592:
.LBE2594:
.LBE2602:
.LBE2614:
.LBE2648:
	.loc 2 254 0
	stw 25,92(1)
	stw 27,100(1)
	stw 12,72(1)
.LBB2649:
.LBB2615:
.LBB2586:
.LBB2584:
	.loc 3 357 0
	stw 9,48(1)
	.loc 3 358 0
	addi 9,1,52
	.loc 3 356 0
	stw 0,40(1)
	.loc 3 358 0
	stw 9,44(1)
	.loc 3 359 0
	stb 0,52(1)
	lbz 3,0(3)
.LVL1035:
.L1001:
.LBE2584:
.LBE2586:
.LBE2615:
	.loc 2 258 0 discriminator 1
	cmpwi 7,3,0
	beq- 7,.L1008
	.cfi_offset 70, -48
	.cfi_offset 27, -20
	.cfi_offset 25, -28
	.cfi_offset 24, -32
	.cfi_offset 21, -44
.L981:
	.loc 2 259 0
	cmpwi 7,3,42
	beq- 7,.L1009
	.loc 2 280 0
	cmpwi 7,3,63
	beq- 7,.L980
	.loc 2 284 0
	cmpwi 7,3,91
	beq- 7,.L1010
	.loc 2 340 0
	beq- 3,.L979
	.loc 2 341 0
	lbz 0,0(30)
	cmpw 7,0,3
	bne- 7,.L997
.L980:
.LVL1036:
	.loc 2 351 0
	lbz 3,1(31)
	addi 30,30,1
.LVL1037:
	.loc 2 350 0
	addi 31,31,1
.LVL1038:
	.loc 2 258 0
	cmpwi 7,3,0
	bne+ 7,.L981
.L1008:
	.loc 2 354 0
	li 31,1
.LVL1039:
.L956:
.LBB2616:
.LBB2617:
.LBB2618:
	.loc 3 501 0
	addi 3,1,40
.LEHB8:
	bl _ZN5idStr8FreeDataEv
.LEHE8:
.LBE2618:
.LBE2617:
.LBE2616:
.LBE2649:
	.loc 2 355 0
	lwz 0,124(1)
	lwz 12,72(1)
	mr 3,31
	mtlr 0
	lwz 21,76(1)
	lwz 22,80(1)
	mtcrf 56,12
	lwz 23,84(1)
	lwz 24,88(1)
	lwz 25,92(1)
	lwz 26,96(1)
	lwz 27,100(1)
	lwz 28,104(1)
	lwz 29,108(1)
	lwz 30,112(1)
.LVL1040:
	lwz 31,116(1)
	addi 1,1,120
	.cfi_remember_state
.LCFI112:
	.cfi_def_cfa_offset 0
	.cfi_restore 70
	.cfi_restore 31
	.cfi_restore 30
	.cfi_restore 29
	.cfi_restore 28
	.cfi_restore 27
	.cfi_restore 26
	.cfi_restore 25
	.cfi_restore 24
	.cfi_restore 23
	.cfi_restore 22
	.cfi_restore 21
	blr
.LVL1041:
.L969:
.LCFI113:
	.cfi_restore_state
.LBB2650:
	.loc 2 326 0
	bne- 4,.L1011
.LVL1042:
.L997:
	.loc 2 347 0
	li 31,0
	b .L956
.LVL1043:
.L979:
	.loc 2 346 0
	bl toupper
	mr 27,3
	lbz 3,0(30)
	bl toupper
	cmpw 7,27,3
	beq+ 7,.L980
	.loc 2 347 0
	li 31,0
.LVL1044:
	b .L956
.LVL1045:
.L1010:
	.loc 2 285 0
	lbz 27,1(31)
	.loc 2 293 0
	addi 25,31,1
.LVL1046:
	mcrf 4,2
	.loc 2 285 0
	cmpwi 7,27,91
	beq- 7,.L1012
.LVL1047:
.L1000:
	.loc 2 295 0 discriminator 1
	cmpwi 7,27,0
	beq- 7,.L969
	.loc 2 296 0 discriminator 2
	cmpwi 7,27,93
	.loc 2 295 0 discriminator 2
	bne- 4,.L971
	.loc 2 296 0 discriminator 5
	beq- 7,.L1013
	.loc 2 299 0
	lbz 31,1(25)
	cmpwi 7,31,45
	beq- 7,.L1014
.L961:
	.loc 2 313 0
	beq- 3,.L967
	.loc 2 254 0
	lbz 24,0(30)
	xor 27,24,27
	cntlzw 27,27
	srwi 27,27,5
.L968:
.LVL1048:
	cmpwi 4,27,0
	.loc 2 323 0
	addi 25,25,1
.LVL1049:
	mr 27,31
.LVL1050:
	b .L1000
.L975:
	.loc 2 330 0 discriminator 1
	lbz 3,1(25)
	cmpwi 6,3,93
	bne- 6,.L1015
	.loc 2 333 0
	addi 31,25,1
.LVL1051:
	.loc 2 326 0
	mr 25,31
.LVL1052:
.L971:
	.loc 2 330 0
	beq- 7,.L975
	mr 31,25
	lbzu 27,1(31)
.LVL1053:
	.loc 2 329 0
	cmpwi 7,27,0
	beq- 7,.L1003
	cmpwi 7,27,93
	.loc 2 326 0
	mr 25,31
.LVL1054:
	b .L971
.L1014:
	.loc 2 299 0 discriminator 1
	lbz 24,2(25)
	cmpwi 7,24,0
	beq- 7,.L961
	.loc 2 299 0 is_stmt 0 discriminator 2
	cmpwi 7,24,93
	beq- 7,.L962
	.loc 2 299 0
	lbz 31,3(25)
.L963:
	.loc 2 300 0 is_stmt 1
	beq- 3,.L964
	.loc 2 301 0
	lbz 0,0(30)
	cmplw 7,0,27
	blt- 7,.L965
	.loc 2 254 0 discriminator 1
	subfc 27,0,24
	li 27,0
	adde 27,27,27
	cmpwi 4,27,0
.L965:
	.loc 2 310 0
	addi 25,25,3
.LVL1055:
	mr 27,31
	b .L1000
.L967:
	.loc 2 319 0
	mr 3,27
	bl toupper
	mr 27,3
	lbz 3,0(30)
	bl toupper
	.loc 2 254 0
	xor 27,27,3
	cntlzw 27,27
	srwi 27,27,5
	b .L968
.L1013:
	.loc 2 296 0 discriminator 1
	lbz 0,1(25)
	cmpwi 7,0,93
	bne- 7,.L997
	.loc 2 296 0 is_stmt 0
	li 31,93
	b .L961
.LVL1056:
.L1009:
.LBB2619:
.LBB2611:
.LBB2607:
.LBB2608:
	.loc 3 350 0 is_stmt 1
	lwz 0,48(1)
	cmpwi 7,0,0
	ble- 7,.L1016
.L941:
.LBE2608:
.LBE2607:
	.loc 3 737 0
	lwz 9,44(1)
.LBE2611:
.LBE2619:
	.loc 2 260 0
	addi 27,31,1
.LBB2620:
.LBB2612:
	.loc 3 737 0
	stb 29,0(9)
	.loc 3 738 0
	stw 28,40(1)
.LBE2612:
.LBE2620:
	.loc 2 262 0
	lbz 25,1(31)
	cmpwi 7,25,0
	beq- 7,.L987
	.loc 2 263 0
	cmpwi 7,25,42
	beq- 7,.L987
	cmpwi 7,25,63
	li 9,0
	bne+ 7,.L943
	b .L987
.LVL1057:
.L948:
.LBB2621:
.LBB2622:
.LBB2623:
	.loc 3 752 0
	lwz 11,44(1)
	stbx 25,11,9
	.loc 3 753 0
	lwz 9,40(1)
	addi 0,9,1
	.loc 3 754 0
	lwz 9,44(1)
	.loc 3 753 0
	stw 0,40(1)
	.loc 3 754 0
	stbx 29,9,0
.LBE2623:
.LBE2622:
.LBE2621:
	.loc 2 267 0
	lbz 0,0(27)
	.loc 2 268 0
	xori 9,0,91
	subfic 9,9,0
	addze 9,27
.LVL1058:
	.loc 2 262 0
	lbz 25,1(9)
.LVL1059:
	.loc 2 270 0
	addi 31,9,1
.LVL1060:
	.loc 2 262 0
	cmpwi 7,25,0
	beq- 7,.L1005
.LVL1061:
.L950:
	.loc 2 263 0
	cmpwi 7,25,42
	beq- 7,.L1005
	.loc 2 263 0 is_stmt 0 discriminator 1
	cmpwi 7,25,63
	lwz 9,40(1)
	beq- 7,.L945
	.loc 2 270 0 is_stmt 1
	mr 27,31
.LVL1062:
.L943:
	.loc 2 263 0 discriminator 2
	cmpwi 7,25,91
	bne- 7,.L947
	.loc 2 263 0 is_stmt 0 discriminator 3
	lbz 0,1(27)
	cmpwi 7,0,91
	bne- 7,.L988
.L947:
.LVL1063:
.LBB2630:
.LBB2629:
.LBB2628:
.LBB2624:
.LBB2625:
	.loc 3 350 0 is_stmt 1
	lwz 0,48(1)
.LBE2625:
.LBE2624:
	.loc 3 751 0
	addi 4,9,2
.LVL1064:
.LBB2627:
.LBB2626:
	.loc 3 350 0
	cmpw 7,4,0
	ble+ 7,.L948
	.loc 3 351 0
	addi 3,1,40
	li 5,1
.LEHB9:
	bl _ZN5idStr10ReAllocateEib
.LVL1065:
	lwz 9,40(1)
.LBE2626:
.LBE2627:
	.loc 3 752 0
	lwz 11,44(1)
	stbx 25,11,9
	.loc 3 753 0
	lwz 9,40(1)
	addi 0,9,1
	.loc 3 754 0
	lwz 9,44(1)
	.loc 3 753 0
	stw 0,40(1)
	.loc 3 754 0
	stbx 29,9,0
.LBE2628:
.LBE2629:
.LBE2630:
	.loc 2 267 0
	lbz 0,0(27)
	.loc 2 268 0
	xori 9,0,91
	subfic 9,9,0
	addze 9,27
.LVL1066:
	.loc 2 262 0
	lbz 25,1(9)
.LVL1067:
	.loc 2 270 0
	addi 31,9,1
.LVL1068:
	.loc 2 262 0
	cmpwi 7,25,0
	bne+ 7,.L950
.LVL1069:
.L1005:
	lwz 9,40(1)
.L945:
	.loc 2 272 0
	cmpwi 7,9,0
	bne- 7,.L1017
.LVL1070:
.L1006:
	.loc 2 277 0
	lbz 3,0(31)
	b .L1001
.L1017:
.LVL1071:
.LBB2631:
.LBB2603:
	.loc 3 412 0
	cmpwi 7,30,0
.LBB2595:
.LBB2593:
	.loc 3 356 0
	stw 28,8(1)
	.loc 3 357 0
	stw 23,16(1)
	.loc 3 358 0
	stw 26,12(1)
	.loc 3 359 0
	stb 28,20(1)
.LBE2593:
.LBE2595:
	.loc 3 412 0
	beq- 7,.L989
	.loc 3 413 0
	mr 3,30
	addi 25,1,8
	bl strlen
	.loc 3 414 0
	addi 4,3,1
	.loc 3 413 0
	mr 27,3
.LBB2596:
.LBB2597:
	.loc 3 350 0
	cmpwi 7,4,20
.LBE2597:
.LBE2596:
	.loc 3 413 0
	mr 24,3
.LVL1072:
.LBB2600:
.LBB2598:
	.loc 3 358 0
	mr 3,26
.LVL1073:
	.loc 3 350 0
	bgt- 7,.L1018
.LVL1074:
.L954:
.LBE2598:
.LBE2600:
	.loc 3 415 0
	mr 4,30
	bl strcpy
	.loc 3 416 0
	stw 27,8(1)
	lwz 3,12(1)
.LVL1075:
.L953:
.LBE2603:
.LBE2631:
.LBB2632:
.LBB2633:
	.loc 3 906 0 discriminator 1
	lwz 4,44(1)
	mr 5,22
	li 6,0
	mr 7,24
	bl _ZN5idStr8FindTextEPKcS1_bii
.LVL1076:
	mr 27,3
.LVL1077:
.LBE2633:
.LBE2632:
.LBB2634:
.LBB2635:
.LBB2636:
	.loc 3 501 0 discriminator 1
	mr 3,25
.LVL1078:
	bl _ZN5idStr8FreeDataEv
.LBE2636:
.LBE2635:
.LBE2634:
	.loc 2 274 0
	cmpwi 7,27,-1
	beq- 7,.L997
.LVL1079:
	.loc 2 277 0
	lwz 3,44(1)
	bl strlen
	add 3,3,27
	add 30,30,3
.LVL1080:
	lbz 3,0(31)
	b .L1001
.LVL1081:
.L964:
	.loc 2 306 0
	lbz 3,0(30)
	bl toupper
	mr 21,3
	mr 3,27
	bl toupper
	cmpw 7,21,3
	blt- 7,.L965
	.loc 2 306 0 is_stmt 0 discriminator 1
	mr 3,24
	bl toupper
	.loc 2 254 0 is_stmt 1 discriminator 1
	cmpw 7,21,3
	crnot 30,29
	mfcr 27
	rlwinm 27,27,31,1
	cmpwi 4,27,0
	b .L965
.LVL1082:
.L1003:
	.loc 2 330 0
	lbz 3,2(25)
.L974:
	.loc 2 335 0
	addi 31,31,1
.LVL1083:
	.loc 2 336 0
	addi 30,30,1
.LVL1084:
	b .L1001
.LVL1085:
.L962:
	.loc 2 299 0 discriminator 3
	lbz 0,3(25)
	cmpwi 7,0,93
	bne+ 7,.L961
	.loc 2 299 0 is_stmt 0
	li 31,93
	b .L963
.LVL1086:
.L1016:
.LBB2637:
.LBB2613:
.LBB2610:
.LBB2609:
	.loc 3 351 0 is_stmt 1
	addi 3,1,40
	li 4,1
	li 5,1
	bl _ZN5idStr10ReAllocateEib
	b .L941
.LVL1087:
.L1012:
.LBE2609:
.LBE2610:
.LBE2613:
.LBE2637:
	.loc 2 286 0
	lbz 0,0(30)
	cmpwi 7,0,91
	bne- 7,.L997
.LVL1088:
	.loc 2 290 0
	lbz 3,2(31)
	addi 30,30,1
.LVL1089:
	.loc 2 289 0
	addi 31,31,2
.LVL1090:
	b .L1001
.LVL1091:
.L1015:
	.loc 2 330 0
	mr 31,25
	b .L974
.LVL1092:
.L988:
	.loc 2 272 0
	cmpwi 7,9,0
	.loc 2 263 0
	mr 31,27
	.loc 2 272 0
	beq+ 7,.L1006
	b .L1017
.LVL1093:
.L1018:
.LBB2638:
.LBB2604:
.LBB2601:
.LBB2599:
	.loc 3 351 0
	mr 3,25
	li 5,1
	bl _ZN5idStr10ReAllocateEib
.LEHE9:
.LVL1094:
	lwz 3,12(1)
	b .L954
.LVL1095:
.L989:
.LBE2599:
.LBE2601:
	.loc 3 358 0
	mr 3,26
	.loc 3 412 0
	li 24,0
	addi 25,1,8
	b .L953
.LVL1096:
.L987:
.LBE2604:
.LBE2638:
	.loc 2 263 0
	mr 31,27
.LVL1097:
	.loc 2 277 0
	lbz 3,0(31)
	b .L1001
.LVL1098:
.L998:
	mr 31,3
.LVL1099:
.LBB2639:
.LBB2640:
.LBB2641:
	.loc 3 501 0
	addi 3,1,40
	bl _ZN5idStr8FreeDataEv
	mr 3,31
.LEHB10:
	bl _Unwind_Resume
.LEHE10:
.LVL1100:
.L1011:
.LBE2641:
.LBE2640:
.LBE2639:
	.loc 2 326 0 discriminator 1
	lbz 3,1(25)
	mr 31,25
	b .L974
.LBE2650:
	.cfi_endproc
.LFE2544:
	.section	.gcc_except_table
.LLSDA2544:
	.byte	0xff
	.byte	0xff
	.byte	0x1
	.uleb128 .LLSDACSE2544-.LLSDACSB2544
.LLSDACSB2544:
	.uleb128 .LEHB8-.LFB2544
	.uleb128 .LEHE8-.LEHB8
	.uleb128 0
	.uleb128 0
	.uleb128 .LEHB9-.LFB2544
	.uleb128 .LEHE9-.LEHB9
	.uleb128 .L998-.LFB2544
	.uleb128 0
	.uleb128 .LEHB10-.LFB2544
	.uleb128 .LEHE10-.LEHB10
	.uleb128 0
	.uleb128 0
.LLSDACSE2544:
	.section	".text"
	.size	_ZN5idStr6FilterEPKcS1_b, .-_ZN5idStr6FilterEPKcS1_b
	.align 2
	.globl _ZN5idStr7ReplaceEPKcS1_
	.type	_ZN5idStr7ReplaceEPKcS1_, @function
_ZN5idStr7ReplaceEPKcS1_:
.LFB2555:
	.loc 2 568 0
	.cfi_startproc
	.cfi_personality 0,__gxx_personality_v0
	.cfi_lsda 0,.LLSDA2555
.LVL1101:
	mflr 0
	stwu 1,-88(1)
.LCFI114:
	.cfi_def_cfa_offset 88
	.cfi_register 65, 0
.LBB2673:
.LBB2674:
.LBB2675:
.LBB2676:
.LBB2677:
	.loc 3 357 0
	li 9,20
.LBE2677:
.LBE2676:
.LBE2675:
.LBE2674:
.LBE2673:
	.loc 2 568 0
	stw 26,64(1)
	addi 26,1,8
	.cfi_offset 26, -24
	stw 0,92(1)
.LBB2716:
.LBB2698:
.LBB2692:
.LBB2683:
.LBB2678:
	.loc 3 356 0
	li 0,0
	.cfi_offset 65, 4
.LBE2678:
.LBE2683:
.LBE2692:
.LBE2698:
.LBE2716:
	.loc 2 568 0
	stw 27,68(1)
	mr 27,5
	.cfi_offset 27, -20
	stw 28,72(1)
.LBB2717:
.LBB2699:
.LBB2693:
.LBB2684:
.LBB2679:
	.loc 3 358 0
	addi 28,1,20
	.cfi_offset 28, -16
.LBE2679:
.LBE2684:
.LBE2693:
.LBE2699:
.LBE2717:
	.loc 2 568 0
	stw 29,76(1)
	mr 29,3
	.cfi_offset 29, -12
	stw 30,80(1)
	mr 30,4
	.cfi_offset 30, -8
	stw 21,44(1)
	stw 22,48(1)
	stw 23,52(1)
	stw 24,56(1)
	stw 25,60(1)
	stw 31,84(1)
.LBB2718:
.LBB2700:
.LBB2694:
.LBB2685:
.LBB2680:
	.loc 3 356 0
	stw 0,8(1)
.LBE2680:
.LBE2685:
.LBE2694:
.LBE2700:
	.loc 2 570 0
	lwz 31,4(3)
	.cfi_offset 31, -4
	.cfi_offset 25, -28
	.cfi_offset 24, -32
	.cfi_offset 23, -36
	.cfi_offset 22, -40
	.cfi_offset 21, -44
.LVL1102:
.LBB2701:
.LBB2695:
.LBB2686:
.LBB2681:
	.loc 3 357 0
	stw 9,16(1)
.LBE2681:
.LBE2686:
	.loc 3 412 0
	cmpwi 7,31,0
.LBB2687:
.LBB2682:
	.loc 3 358 0
	stw 28,12(1)
	.loc 3 359 0
	stb 0,20(1)
.LBE2682:
.LBE2687:
	.loc 3 412 0
	beq- 7,.L1020
	.loc 3 413 0
	mr 3,31
.LVL1103:
	addi 26,1,8
	bl strlen
.LVL1104:
	.loc 3 414 0
	addi 4,3,1
	.loc 3 413 0
	mr 23,3
.LVL1105:
.LBB2688:
.LBB2689:
	.loc 3 350 0
	cmpwi 7,4,20
	.loc 3 358 0
	mr 3,28
.LVL1106:
	.loc 3 350 0
	bgt- 7,.L1040
.LVL1107:
.L1021:
.LBE2689:
.LBE2688:
	.loc 3 415 0
	mr 4,31
	bl strcpy
.LBE2695:
.LBE2701:
	.loc 2 572 0
	mr 3,30
.LBB2702:
.LBB2696:
	.loc 3 416 0
	stw 23,8(1)
.LBE2696:
.LBE2702:
	.loc 2 572 0
	bl strlen
	mr 31,3
.LVL1108:
	.loc 2 573 0
	mr 3,27
.LVL1109:
	bl strlen
	.loc 2 577 0
	cmpwi 7,23,0
	.loc 2 573 0
	mr 28,3
.LVL1110:
	.loc 2 577 0
	ble- 7,.L1020
	lwz 24,12(1)
	.loc 2 576 0
	li 22,0
	.loc 2 577 0
	li 25,0
	.loc 2 580 0
	addi 21,31,-1
.LVL1111:
.L1023:
	.loc 2 578 0
	add 3,24,25
	mr 4,30
	mr 5,31
	bl _ZN5idStr4CmpnEPKcS1_i
	cmpwi 7,3,0
	bne- 7,.L1022
	.loc 2 579 0
	addi 22,22,1
.LVL1112:
	.loc 2 580 0
	add 25,25,21
.LVL1113:
.L1022:
	.loc 2 577 0
	addi 25,25,1
.LVL1114:
	cmpw 7,25,23
	blt+ 7,.L1023
	.loc 2 584 0
	cmpwi 7,22,0
	beq- 7,.L1020
	.loc 2 585 0
	subf 4,31,28
	lwz 9,0(29)
	mullw 4,4,22
.LBB2703:
.LBB2704:
	.loc 3 350 0
	lwz 0,8(29)
.LBE2704:
.LBE2703:
	.loc 2 585 0
	add 4,4,9
	addi 4,4,2
.LVL1115:
.LBB2707:
.LBB2705:
	.loc 3 350 0
	cmpw 7,4,0
	bgt- 7,.L1041
.LVL1116:
.L1024:
.LBE2705:
.LBE2707:
	.loc 2 577 0
	li 23,0
	li 25,0
	.loc 2 591 0
	addi 22,31,-1
.LVL1117:
	b .L1028
.LVL1118:
.L1026:
	.loc 2 594 0
	lbzx 0,24,25
	.loc 2 588 0
	addi 25,25,1
.LVL1119:
	.loc 2 594 0
	lwz 9,4(29)
	stbx 0,9,23
	.loc 2 595 0
	addi 23,23,1
.LVL1120:
	.loc 2 588 0
	lwz 0,8(1)
	cmpw 7,0,25
	ble- 7,.L1025
.LVL1121:
.L1042:
	lwz 24,12(1)
.LVL1122:
.L1028:
	.loc 2 589 0
	add 3,24,25
	mr 4,30
	mr 5,31
	bl _ZN5idStr4CmpnEPKcS1_i
	cmpwi 7,3,0
	bne+ 7,.L1026
	.loc 2 590 0
	lwz 3,4(29)
	mr 4,27
	mr 5,28
	.loc 2 591 0
	add 25,25,22
.LVL1123:
	.loc 2 590 0
	add 3,3,23
	.loc 2 588 0
	addi 25,25,1
	.loc 2 590 0
	bl memcpy
	.loc 2 588 0
	lwz 0,8(1)
	.loc 2 592 0
	add 23,23,28
.LVL1124:
	.loc 2 588 0
	cmpw 7,0,25
	bgt+ 7,.L1042
.LVL1125:
.L1025:
	.loc 2 598 0
	lwz 9,4(29)
	li 0,0
	stbx 0,9,23
	.loc 2 599 0
	lwz 3,4(29)
	bl strlen
	stw 3,0(29)
.LVL1126:
.L1020:
.LBB2708:
.LBB2709:
.LBB2710:
	.loc 3 501 0
	mr 3,26
.LEHB11:
	bl _ZN5idStr8FreeDataEv
.LBE2710:
.LBE2709:
.LBE2708:
.LBE2718:
	.loc 2 601 0
	lwz 0,92(1)
	lwz 21,44(1)
	mtlr 0
	lwz 22,48(1)
	lwz 23,52(1)
	lwz 24,56(1)
	lwz 25,60(1)
	lwz 26,64(1)
.LVL1127:
	lwz 27,68(1)
.LVL1128:
	lwz 28,72(1)
	lwz 29,76(1)
.LVL1129:
	lwz 30,80(1)
.LVL1130:
	lwz 31,84(1)
	addi 1,1,88
	.cfi_remember_state
.LCFI115:
	.cfi_def_cfa_offset 0
	.cfi_restore 31
	.cfi_restore 30
	.cfi_restore 29
	.cfi_restore 28
	.cfi_restore 27
	.cfi_restore 26
	.cfi_restore 25
	.cfi_restore 24
	.cfi_restore 23
	.cfi_restore 22
	.cfi_restore 21
	blr
.LVL1131:
.L1040:
.LCFI116:
	.cfi_restore_state
.LBB2719:
.LBB2711:
.LBB2697:
.LBB2691:
.LBB2690:
	.loc 3 351 0
	mr 3,26
	li 5,1
	bl _ZN5idStr10ReAllocateEib
.LEHE11:
.LVL1132:
	lwz 3,12(1)
	b .L1021
.LVL1133:
.L1041:
.LBE2690:
.LBE2691:
.LBE2697:
.LBE2711:
.LBB2712:
.LBB2706:
	mr 3,29
	li 5,0
.LEHB12:
	bl _ZN5idStr10ReAllocateEib
.LEHE12:
.LVL1134:
.LBE2706:
.LBE2712:
	.loc 2 588 0
	lwz 0,8(1)
	li 23,0
.LVL1135:
	cmpwi 7,0,0
	ble- 7,.L1025
	lwz 24,12(1)
	b .L1024
.LVL1136:
.L1034:
	mr 31,3
.LVL1137:
.LBB2713:
.LBB2714:
.LBB2715:
	.loc 3 501 0
	mr 3,26
	bl _ZN5idStr8FreeDataEv
	mr 3,31
.LEHB13:
	bl _Unwind_Resume
.LEHE13:
.LBE2715:
.LBE2714:
.LBE2713:
.LBE2719:
	.cfi_endproc
.LFE2555:
	.section	.gcc_except_table
.LLSDA2555:
	.byte	0xff
	.byte	0xff
	.byte	0x1
	.uleb128 .LLSDACSE2555-.LLSDACSB2555
.LLSDACSB2555:
	.uleb128 .LEHB11-.LFB2555
	.uleb128 .LEHE11-.LEHB11
	.uleb128 0
	.uleb128 0
	.uleb128 .LEHB12-.LFB2555
	.uleb128 .LEHE12-.LEHB12
	.uleb128 .L1034-.LFB2555
	.uleb128 0
	.uleb128 .LEHB13-.LFB2555
	.uleb128 .LEHE13-.LEHB13
	.uleb128 0
	.uleb128 0
.LLSDACSE2555:
	.section	".text"
	.size	_ZN5idStr7ReplaceEPKcS1_, .-_ZN5idStr7ReplaceEPKcS1_
	.align 2
	.globl _ZN5idStr11DefaultPathEPKc
	.type	_ZN5idStr11DefaultPathEPKc, @function
_ZN5idStr11DefaultPathEPKc:
.LFB2566:
	.loc 2 820 0
	.cfi_startproc
	.cfi_personality 0,__gxx_personality_v0
	.cfi_lsda 0,.LLSDA2566
.LVL1138:
	mflr 0
	stwu 1,-64(1)
.LCFI117:
	.cfi_def_cfa_offset 64
	.cfi_register 65, 0
	stw 28,48(1)
	mr 28,4
	.cfi_offset 28, -16
	stw 31,60(1)
	mr 31,3
	.cfi_offset 31, -4
	stw 0,68(1)
	stw 27,44(1)
	stw 29,52(1)
	stw 30,56(1)
	.loc 2 821 0
	lwz 9,4(3)
	lbz 0,0(9)
	.cfi_offset 30, -8
	.cfi_offset 29, -12
	.cfi_offset 27, -20
	.cfi_offset 65, 4
	cmpwi 7,0,47
	beq- 7,.L1044
.LVL1139:
	.loc 2 821 0 is_stmt 0 discriminator 2
	cmpwi 7,0,92
	beq- 7,.L1044
.LVL1140:
.LBB2751:
.LBB2752:
.LBB2753:
.LBB2754:
	.loc 3 412 0 is_stmt 1
	cmpwi 7,4,0
.LBB2755:
.LBB2756:
	.loc 3 356 0
	li 0,0
	.loc 3 358 0
	addi 29,1,20
	.loc 3 357 0
	li 9,20
	.loc 3 356 0
	stw 0,8(1)
	.loc 3 357 0
	stw 9,16(1)
	.loc 3 358 0
	stw 29,12(1)
	.loc 3 359 0
	stb 0,20(1)
.LBE2756:
.LBE2755:
	.loc 3 412 0
	beq- 7,.L1065
	.loc 3 413 0
	mr 3,28
.LVL1141:
	bl strlen
.LVL1142:
	.loc 3 414 0
	addi 4,3,1
	.loc 3 413 0
	mr 27,3
.LBB2757:
.LBB2758:
	.loc 3 350 0
	cmpwi 7,4,20
.LBE2758:
.LBE2757:
	.loc 3 413 0
	mr 30,3
.LVL1143:
.LBB2761:
.LBB2759:
	.loc 3 358 0
	mr 3,29
.LVL1144:
	addi 29,1,8
	.loc 3 350 0
	bgt- 7,.L1066
.LVL1145:
.L1046:
.LBE2759:
.LBE2761:
	.loc 3 415 0
	mr 4,28
	bl strcpy
.LBE2754:
.LBE2753:
.LBB2767:
	.loc 2 1747 0
	lwz 0,0(31)
.LBE2767:
.LBB2779:
.LBB2763:
	.loc 3 416 0
	lwz 9,16(1)
.LVL1146:
.LBE2763:
.LBE2779:
.LBB2780:
.LBB2768:
	.loc 3 761 0
	add 30,0,30
.LVL1147:
.LBE2768:
.LBE2780:
.LBB2781:
.LBB2764:
	.loc 3 416 0
	stw 27,8(1)
.LBE2764:
.LBE2781:
.LBB2782:
.LBB2777:
	.loc 3 762 0
	addi 4,30,1
.LVL1148:
.LBB2769:
.LBB2770:
	.loc 3 350 0
	cmpw 7,4,9
	bgt- 7,.L1047
.LVL1149:
.L1050:
.LBE2770:
.LBE2769:
	.loc 3 763 0
	cmpwi 7,0,0
	li 9,0
	ble- 7,.L1049
.LVL1150:
.L1062:
.LBB2772:
.LBB2773:
	.loc 3 522 0
	lwz 11,4(31)
.LBE2773:
.LBE2772:
	.loc 3 764 0
	lwz 10,12(1)
.LBB2775:
.LBB2774:
	.loc 3 522 0
	lbzx 0,11,9
.LBE2774:
.LBE2775:
	.loc 3 764 0
	lwz 11,8(1)
	add 11,10,11
	stbx 0,11,9
	.loc 3 763 0
	addi 9,9,1
.LVL1151:
	lwz 0,0(31)
	cmpw 7,9,0
	blt+ 7,.L1062
.LVL1152:
.L1049:
	.loc 3 767 0
	lwz 9,12(1)
	li 0,0
	.loc 3 766 0
	stw 30,8(1)
	.loc 3 767 0
	stbx 0,9,30
.LVL1153:
.LBE2777:
.LBE2782:
.LBE2752:
.LBE2751:
.LBB2792:
	.loc 2 1747 0
	lwz 30,8(1)
.LVL1154:
.LBB2793:
.LBB2794:
.LBB2795:
	.loc 3 350 0
	lwz 0,8(31)
.LBE2795:
.LBE2794:
	.loc 3 534 0
	addi 4,30,1
.LVL1155:
.LBB2798:
.LBB2796:
	.loc 3 350 0
	cmpw 7,4,0
	bgt- 7,.L1067
.LVL1156:
.L1051:
.LBE2796:
.LBE2798:
	.loc 3 535 0
	lwz 3,4(31)
	mr 5,30
	lwz 4,12(1)
	bl memcpy
	.loc 3 536 0
	lwz 9,4(31)
	li 0,0
.LBE2793:
.LBE2792:
.LBB2802:
.LBB2803:
.LBB2804:
	.loc 3 501 0
	mr 3,29
.LBE2804:
.LBE2803:
.LBE2802:
.LBB2807:
.LBB2800:
	.loc 3 536 0
	stbx 0,9,30
	.loc 3 537 0
	stw 30,0(31)
.LVL1157:
.LEHB14:
.LBE2800:
.LBE2807:
.LBB2808:
.LBB2806:
.LBB2805:
	.loc 3 501 0
	bl _ZN5idStr8FreeDataEv
.LVL1158:
.L1044:
.LBE2805:
.LBE2806:
.LBE2808:
	.loc 2 828 0
	lwz 0,68(1)
	mr 3,31
	lwz 27,44(1)
	mtlr 0
	lwz 28,48(1)
.LVL1159:
	lwz 29,52(1)
	lwz 30,56(1)
	lwz 31,60(1)
.LVL1160:
	addi 1,1,64
	.cfi_remember_state
.LCFI118:
	.cfi_def_cfa_offset 0
	.cfi_restore 31
	.cfi_restore 30
	.cfi_restore 29
	.cfi_restore 28
	.cfi_restore 27
	blr
.LVL1161:
.L1066:
.LCFI119:
	.cfi_restore_state
.LBB2809:
.LBB2790:
.LBB2783:
.LBB2765:
.LBB2762:
.LBB2760:
	.loc 3 351 0
	mr 3,29
	li 5,1
	bl _ZN5idStr10ReAllocateEib
.LEHE14:
.LVL1162:
	lwz 3,12(1)
	b .L1046
.LVL1163:
.L1065:
.LBE2760:
.LBE2762:
.LBE2765:
.LBE2783:
.LBB2784:
	.loc 2 1747 0
	lwz 0,0(31)
.LBE2784:
.LBB2785:
.LBB2766:
	.loc 3 412 0
	li 30,0
	addi 29,1,8
.LVL1164:
.LBE2766:
.LBE2785:
.LBB2786:
.LBB2778:
	.loc 3 761 0
	add 30,0,30
.LVL1165:
	.loc 3 762 0
	addi 4,30,1
.LVL1166:
.LBB2776:
.LBB2771:
	.loc 3 350 0
	cmpw 7,4,9
	ble+ 7,.L1050
.L1047:
	.loc 3 351 0
	mr 3,29
	li 5,1
.LEHB15:
	bl _ZN5idStr10ReAllocateEib
.LEHE15:
.LVL1167:
	lwz 0,0(31)
	b .L1050
.LVL1168:
.L1067:
.LBE2771:
.LBE2776:
.LBE2778:
.LBE2786:
.LBE2790:
.LBE2809:
.LBB2810:
.LBB2801:
.LBB2799:
.LBB2797:
	mr 3,31
	li 5,0
.LEHB16:
	bl _ZN5idStr10ReAllocateEib
.LEHE16:
.LVL1169:
	b .L1051
.L1060:
	mr 31,3
.LVL1170:
.LBE2797:
.LBE2799:
.LBE2801:
.LBE2810:
.LBB2811:
.LBB2812:
.LBB2813:
	.loc 3 501 0
	mr 3,29
	bl _ZN5idStr8FreeDataEv
	mr 3,31
.LEHB17:
	bl _Unwind_Resume
.LEHE17:
.LVL1171:
.L1061:
	mr 31,3
.LVL1172:
.LBE2813:
.LBE2812:
.LBE2811:
.LBB2814:
.LBB2791:
.LBB2787:
.LBB2788:
.LBB2789:
	mr 3,29
	bl _ZN5idStr8FreeDataEv
	mr 3,31
.LEHB18:
	bl _Unwind_Resume
.LEHE18:
.LBE2789:
.LBE2788:
.LBE2787:
.LBE2791:
.LBE2814:
	.cfi_endproc
.LFE2566:
	.section	.gcc_except_table
.LLSDA2566:
	.byte	0xff
	.byte	0xff
	.byte	0x1
	.uleb128 .LLSDACSE2566-.LLSDACSB2566
.LLSDACSB2566:
	.uleb128 .LEHB14-.LFB2566
	.uleb128 .LEHE14-.LEHB14
	.uleb128 0
	.uleb128 0
	.uleb128 .LEHB15-.LFB2566
	.uleb128 .LEHE15-.LEHB15
	.uleb128 .L1061-.LFB2566
	.uleb128 0
	.uleb128 .LEHB16-.LFB2566
	.uleb128 .LEHE16-.LEHB16
	.uleb128 .L1060-.LFB2566
	.uleb128 0
	.uleb128 .LEHB17-.LFB2566
	.uleb128 .LEHE17-.LEHB17
	.uleb128 0
	.uleb128 0
	.uleb128 .LEHB18-.LFB2566
	.uleb128 .LEHE18-.LEHB18
	.uleb128 0
	.uleb128 0
.LLSDACSE2566:
	.section	".text"
	.size	_ZN5idStr11DefaultPathEPKc, .-_ZN5idStr11DefaultPathEPKc
	.align 2
	.globl _ZN5idStr16SetFileExtensionEPKc
	.type	_ZN5idStr16SetFileExtensionEPKc, @function
_ZN5idStr16SetFileExtensionEPKc:
.LFB2562:
	.loc 2 748 0
	.cfi_startproc
.LVL1173:
	mflr 0
	stwu 1,-24(1)
.LCFI120:
	.cfi_def_cfa_offset 24
	.cfi_register 65, 0
	stw 30,16(1)
	mr 30,4
	.cfi_offset 30, -8
	stw 31,20(1)
	mr 31,3
	.cfi_offset 31, -4
.LVL1174:
	stw 0,28(1)
	stw 29,12(1)
.LBB2826:
.LBB2827:
	.loc 2 765 0
	lwz 29,0(3)
	.cfi_offset 29, -12
	.cfi_offset 65, 4
.LVL1175:
	addic. 9,29,-1
	blt- 0,.L1069
.LVL1176:
	.loc 2 766 0
	lwz 11,4(3)
	mtctr 29
	lbzx 0,11,9
	add 10,11,9
	cmpwi 7,0,46
	bne+ 7,.L1079
	b .L1070
.LVL1177:
.L1073:
	lbzx 0,11,9
	.loc 2 748 0
	add 10,11,9
	.loc 2 766 0
	cmpwi 7,0,46
	beq- 7,.L1070
.L1079:
	.loc 2 765 0
	addi 9,9,-1
.LVL1178:
	bdnz .L1073
.L1069:
.LBE2827:
.LBE2826:
	.loc 2 750 0
	lbz 0,0(30)
	cmpwi 7,0,46
	beq- 7,.L1074
.LVL1179:
.LBB2829:
.LBB2830:
.LBB2831:
.LBB2832:
	.loc 3 350 0
	lwz 0,8(31)
.LBE2832:
.LBE2831:
	.loc 3 751 0
	addi 4,29,2
.LVL1180:
.LBB2835:
.LBB2833:
	.loc 3 350 0
	cmpw 7,4,0
	bgt- 7,.L1083
.LVL1181:
.L1075:
.LBE2833:
.LBE2835:
	.loc 3 752 0
	lwz 9,4(31)
	li 0,46
	stbx 0,9,29
	.loc 3 753 0
	lwz 11,0(31)
	.loc 3 754 0
	lwz 9,4(31)
	.loc 3 753 0
	addi 0,11,1
	.loc 3 754 0
	li 11,0
	.loc 3 753 0
	stw 0,0(31)
	.loc 3 754 0
	stbx 11,9,0
	lwz 29,0(31)
.LVL1182:
.L1074:
.LBE2830:
.LBE2829:
.LBB2838:
.LBB2839:
	.loc 3 775 0
	mr 3,30
	bl strlen
.LBB2840:
.LBB2841:
	.loc 3 350 0
	lwz 0,8(31)
.LBE2841:
.LBE2840:
	.loc 3 775 0
	add 29,29,3
.LVL1183:
	.loc 3 776 0
	addi 4,29,1
.LVL1184:
.LBB2843:
.LBB2842:
	.loc 3 350 0
	cmpw 7,4,0
	ble+ 7,.L1076
	.loc 3 351 0
	mr 3,31
	li 5,1
	bl _ZN5idStr10ReAllocateEib
.LVL1185:
.L1076:
.LBE2842:
.LBE2843:
	.loc 3 777 0
	lbz 0,0(30)
	cmpwi 7,0,0
	beq- 7,.L1077
	li 9,0
.LVL1186:
.L1078:
	.loc 3 778 0
	lwz 10,4(31)
	lwz 11,0(31)
	add 11,10,11
	stbx 0,11,9
	.loc 3 777 0
	addi 9,9,1
.LVL1187:
	lbzx 0,30,9
	cmpwi 7,0,0
	bne+ 7,.L1078
.LVL1188:
.L1077:
	.loc 3 781 0
	lwz 9,4(31)
	li 0,0
	.loc 3 780 0
	stw 29,0(31)
.LBE2839:
.LBE2838:
	.loc 2 755 0
	mr 3,31
.LBB2845:
.LBB2844:
	.loc 3 781 0
	stbx 0,9,29
.LBE2844:
.LBE2845:
	.loc 2 755 0
	lwz 0,28(1)
	lwz 29,12(1)
.LVL1189:
	mtlr 0
	lwz 30,16(1)
.LVL1190:
	lwz 31,20(1)
.LVL1191:
	addi 1,1,24
	.cfi_remember_state
.LCFI121:
	.cfi_def_cfa_offset 0
	.cfi_restore 31
	.cfi_restore 30
	.cfi_restore 29
	blr
.LVL1192:
.L1083:
.LCFI122:
	.cfi_restore_state
.LBB2846:
.LBB2837:
.LBB2836:
.LBB2834:
	.loc 3 351 0
	mr 3,31
.LVL1193:
	li 5,1
	bl _ZN5idStr10ReAllocateEib
.LVL1194:
	lwz 29,0(31)
	b .L1075
.LVL1195:
.L1070:
.LBE2834:
.LBE2836:
.LBE2837:
.LBE2846:
.LBB2847:
.LBB2828:
	.loc 2 767 0
	li 0,0
	.loc 2 768 0
	mr 29,9
	.loc 2 767 0
	stb 0,0(10)
	.loc 2 768 0
	stw 9,0(31)
	b .L1069
.LBE2828:
.LBE2847:
	.cfi_endproc
.LFE2562:
	.size	_ZN5idStr16SetFileExtensionEPKc, .-_ZN5idStr16SetFileExtensionEPKc
	.align 2
	.globl _ZN5idStr7SetUnitEPKcfi9Measure_t
	.type	_ZN5idStr7SetUnitEPKcfi9Measure_t, @function
_ZN5idStr7SetUnitEPKcfi9Measure_t:
.LFB2594:
	.loc 2 1614 0
	.cfi_startproc
.LVL1196:
	mflr 0
	stwu 1,-32(1)
.LCFI123:
	.cfi_def_cfa_offset 32
	.cfi_register 65, 0
	.loc 2 1615 0
	li 9,1
	.loc 2 1614 0
	stw 31,28(1)
	mr 31,3
	.cfi_offset 31, -4
	stw 0,36(1)
	.loc 2 1615 0
	mulli 0,5,10
	.cfi_offset 65, 4
	.loc 2 1614 0
	stw 28,16(1)
	mr 28,6
	.cfi_offset 28, -16
	.loc 2 1615 0
	slw 0,9,0
	lis 9,.LC14@ha
	xoris 0,0,0x8000
	lfs 0,.LC14@l(9)
	stw 0,12(1)
	lis 0,0x4330
	stw 0,8(1)
	.loc 2 1614 0
	stw 29,20(1)
	.loc 2 1615 0
	lfd 13,8(1)
	.loc 2 1614 0
	stw 30,24(1)
	.loc 2 1614 0
	mr 30,5
	.cfi_offset 30, -8
	.cfi_offset 29, -12
.LVL1197:
	.loc 2 1615 0
	fsub 0,13,0
	frsp 0,0
	fdivs 1,1,0
.LVL1198:
	.loc 2 1616 0
	creqv 6,6,6
	bl _Z7sprintfR5idStrPKcz
.LVL1199:
.LBB2862:
.LBB2863:
.LBB2864:
	.loc 3 775 0
	lwz 11,0(31)
.LBB2865:
.LBB2866:
	.loc 3 350 0
	lwz 0,8(31)
.LBE2866:
.LBE2865:
	.loc 3 775 0
	addi 29,11,1
.LVL1200:
	.loc 3 776 0
	addi 4,29,1
.LVL1201:
.LBB2868:
.LBB2867:
	.loc 3 350 0
	cmpw 7,4,0
	ble+ 7,.L1085
	.loc 3 351 0
	mr 3,31
	li 5,1
	bl _ZN5idStr10ReAllocateEib
.LVL1202:
	lwz 11,0(31)
.LVL1203:
.L1085:
.LBE2867:
.LBE2868:
	.loc 3 778 0
	lwz 9,4(31)
	li 0,32
.LBE2864:
.LBE2863:
.LBE2862:
	.loc 2 1618 0
	slwi 28,28,2
.LVL1204:
.LBB2875:
.LBB2872:
.LBB2869:
	.loc 3 778 0
	stbx 0,9,11
.LVL1205:
	.loc 3 781 0
	li 0,0
	.loc 3 780 0
	stw 29,0(31)
.LBE2869:
.LBE2872:
.LBE2875:
	.loc 2 1618 0
	add 30,28,30
.LVL1206:
.LBB2876:
.LBB2873:
.LBB2870:
	.loc 3 781 0
	lwz 9,4(31)
.LBE2870:
.LBE2873:
.LBE2876:
	.loc 2 1618 0
	slwi 30,30,2
.LBB2877:
.LBB2874:
.LBB2871:
	.loc 3 781 0
	stbx 0,9,29
.LBE2871:
.LBE2874:
.LBE2877:
	.loc 2 1618 0
	lis 9,.LANCHOR1@ha
	la 9,.LANCHOR1@l(9)
	lwzx 30,9,30
.LVL1207:
.LBB2878:
.LBB2879:
.LBB2880:
	.loc 3 774 0
	cmpwi 7,30,0
	beq- 7,.L1084
	.loc 3 775 0
	mr 3,30
	bl strlen
	lwz 29,0(31)
.LVL1208:
.LBB2881:
.LBB2882:
	.loc 3 350 0
	lwz 0,8(31)
.LBE2882:
.LBE2881:
	.loc 3 775 0
	add 29,3,29
.LVL1209:
	.loc 3 776 0
	addi 4,29,1
.LVL1210:
.LBB2885:
.LBB2883:
	.loc 3 350 0
	cmpw 7,4,0
	bgt- 7,.L1091
.LVL1211:
.L1087:
.LBE2883:
.LBE2885:
	.loc 3 777 0
	lbz 0,0(30)
	cmpwi 7,0,0
	beq- 7,.L1088
	li 9,0
.LVL1212:
.L1089:
	.loc 3 778 0
	lwz 10,4(31)
	lwz 11,0(31)
	add 11,10,11
	stbx 0,11,9
	.loc 3 777 0
	addi 9,9,1
.LVL1213:
	lbzx 0,30,9
	cmpwi 7,0,0
	bne+ 7,.L1089
.LVL1214:
.L1088:
	.loc 3 781 0
	lwz 9,4(31)
	li 0,0
	.loc 3 780 0
	stw 29,0(31)
	.loc 3 781 0
	stbx 0,9,29
.LVL1215:
.L1084:
.LBE2880:
.LBE2879:
.LBE2878:
	.loc 2 1619 0
	lwz 0,36(1)
	lwz 28,16(1)
	mtlr 0
	lwz 29,20(1)
	lwz 30,24(1)
.LVL1216:
	lwz 31,28(1)
.LVL1217:
	addi 1,1,32
	.cfi_remember_state
.LCFI124:
	.cfi_def_cfa_offset 0
	.cfi_restore 31
	.cfi_restore 30
	.cfi_restore 29
	.cfi_restore 28
	blr
.LVL1218:
.L1091:
.LCFI125:
	.cfi_restore_state
.LBB2889:
.LBB2888:
.LBB2887:
.LBB2886:
.LBB2884:
	.loc 3 351 0
	mr 3,31
	li 5,1
	bl _ZN5idStr10ReAllocateEib
.LVL1219:
	b .L1087
.LBE2884:
.LBE2886:
.LBE2887:
.LBE2888:
.LBE2889:
	.cfi_endproc
.LFE2594:
	.size	_ZN5idStr7SetUnitEPKcfi9Measure_t, .-_ZN5idStr7SetUnitEPKcfi9Measure_t
	.align 2
	.globl _ZN5idStr8BestUnitEPKcf9Measure_t
	.type	_ZN5idStr8BestUnitEPKcf9Measure_t, @function
_ZN5idStr8BestUnitEPKcf9Measure_t:
.LFB2593:
	.loc 2 1596 0
	.cfi_startproc
.LVL1220:
.LBB2905:
	.loc 2 1598 0
	lis 9,.LC15@ha
.LBE2905:
	.loc 2 1596 0
	mflr 0
.LBB2939:
	.loc 2 1598 0
	lfs 0,.LC15@l(9)
.LBE2939:
	.loc 2 1596 0
	stwu 1,-32(1)
.LCFI126:
	.cfi_def_cfa_offset 32
	.cfi_register 65, 0
.LBB2940:
	.loc 2 1598 0
	fcmpu 7,1,0
.LBE2940:
	.loc 2 1596 0
	stw 28,16(1)
	mr 28,5
	.cfi_offset 28, -16
	stw 29,20(1)
.LBB2941:
	.loc 2 1597 0
	li 29,1
	.cfi_offset 29, -12
.LBE2941:
	.loc 2 1596 0
	stw 31,28(1)
	mr 31,3
	.cfi_offset 31, -4
	stw 0,36(1)
	stw 30,24(1)
.LBB2942:
	.loc 2 1598 0
	bng- 7,.L1096
	.cfi_offset 30, -8
	.cfi_offset 65, 4
.LVL1221:
	lis 9,.LC16@ha
	.loc 2 1599 0
	li 29,2
	.loc 2 1598 0
	lfs 0,.LC16@l(9)
	fcmpu 7,1,0
	bgt- 7,.L1111
.LVL1222:
.L1096:
	.loc 2 1601 0
	addi 29,29,-1
.LVL1223:
	.loc 2 1602 0
	li 9,1
	mulli 0,29,10
	.loc 2 1603 0
	mr 3,31
.LVL1224:
	.loc 2 1602 0
	slw 0,9,0
	lis 9,.LC14@ha
	xoris 0,0,0x8000
	lfs 0,.LC14@l(9)
	stw 0,12(1)
	lis 0,0x4330
	stw 0,8(1)
	lfd 13,8(1)
	fsub 0,13,0
	frsp 0,0
	fdivs 1,1,0
.LVL1225:
	.loc 2 1603 0
	creqv 6,6,6
	bl _Z7sprintfR5idStrPKcz
.LVL1226:
.LBB2906:
.LBB2907:
.LBB2908:
	.loc 3 775 0
	lwz 9,0(31)
.LBB2909:
.LBB2910:
	.loc 3 350 0
	lwz 0,8(31)
.LBE2910:
.LBE2909:
	.loc 3 775 0
	addi 30,9,1
.LVL1227:
	.loc 3 776 0
	addi 4,30,1
.LVL1228:
.LBB2913:
.LBB2911:
	.loc 3 350 0
	cmpw 7,4,0
	bgt- 7,.L1112
.LVL1229:
.L1102:
.LBE2911:
.LBE2913:
	.loc 3 778 0
	lwz 11,4(31)
	li 0,32
.LBE2908:
.LBE2907:
.LBE2906:
	.loc 2 1605 0
	slwi 28,28,2
.LVL1230:
.LBB2923:
.LBB2919:
.LBB2915:
	.loc 3 778 0
	stbx 0,11,9
.LVL1231:
	.loc 3 781 0
	li 0,0
	.loc 3 780 0
	stw 30,0(31)
.LBE2915:
.LBE2919:
.LBE2923:
	.loc 2 1605 0
	add 28,28,29
.LBB2924:
.LBB2920:
.LBB2916:
	.loc 3 781 0
	lwz 9,4(31)
.LBE2916:
.LBE2920:
.LBE2924:
	.loc 2 1605 0
	slwi 28,28,2
.LBB2925:
.LBB2921:
.LBB2917:
	.loc 3 781 0
	stbx 0,9,30
.LBE2917:
.LBE2921:
.LBE2925:
	.loc 2 1605 0
	lis 9,.LANCHOR1@ha
	la 9,.LANCHOR1@l(9)
	lwzx 30,9,28
.LVL1232:
.LBB2926:
.LBB2927:
.LBB2928:
	.loc 3 774 0
	cmpwi 7,30,0
	beq- 7,.L1097
	.loc 3 775 0
	mr 3,30
	bl strlen
.LVL1233:
	lwz 28,0(31)
.LBB2929:
.LBB2930:
	.loc 3 350 0
	lwz 0,8(31)
.LBE2930:
.LBE2929:
	.loc 3 775 0
	add 28,3,28
.LVL1234:
	.loc 3 776 0
	addi 4,28,1
.LVL1235:
.LBB2933:
.LBB2931:
	.loc 3 350 0
	cmpw 7,4,0
	bgt- 7,.L1113
.LVL1236:
.L1098:
.LBE2931:
.LBE2933:
	.loc 3 777 0
	lbz 0,0(30)
	cmpwi 7,0,0
	beq- 7,.L1099
	li 9,0
.LVL1237:
.L1100:
	.loc 3 778 0
	lwz 10,4(31)
	lwz 11,0(31)
	add 11,10,11
	stbx 0,11,9
	.loc 3 777 0
	addi 9,9,1
.LVL1238:
	lbzx 0,30,9
	cmpwi 7,0,0
	bne+ 7,.L1100
.LVL1239:
.L1099:
	.loc 3 781 0
	lwz 9,4(31)
	li 0,0
	.loc 3 780 0
	stw 28,0(31)
	.loc 3 781 0
	stbx 0,9,28
.LVL1240:
.L1097:
.LBE2928:
.LBE2927:
.LBE2926:
.LBE2942:
	.loc 2 1607 0
	lwz 0,36(1)
	mr 3,29
	lwz 28,16(1)
	mtlr 0
	lwz 29,20(1)
.LVL1241:
	lwz 30,24(1)
.LVL1242:
	lwz 31,28(1)
.LVL1243:
	addi 1,1,32
	.cfi_remember_state
.LCFI127:
	.cfi_def_cfa_offset 0
	.cfi_restore 31
	.cfi_restore 30
	.cfi_restore 29
	.cfi_restore 28
	blr
.LVL1244:
.L1113:
.LCFI128:
	.cfi_restore_state
.LBB2943:
.LBB2937:
.LBB2936:
.LBB2935:
.LBB2934:
.LBB2932:
	.loc 3 351 0
	mr 3,31
	li 5,1
	bl _ZN5idStr10ReAllocateEib
.LVL1245:
	b .L1098
.LVL1246:
.L1111:
.LBE2932:
.LBE2934:
.LBE2935:
.LBE2936:
.LBE2937:
	.loc 2 1598 0
	lis 9,.LC17@ha
	lfs 0,.LC17@l(9)
	fcmpu 7,1,0
	mfcr 29
	rlwinm 29,29,30,1
	addi 29,29,3
	b .L1096
.LVL1247:
.L1112:
.LBB2938:
.LBB2922:
.LBB2918:
.LBB2914:
.LBB2912:
	.loc 3 351 0
	mr 3,31
	li 5,1
	bl _ZN5idStr10ReAllocateEib
.LVL1248:
	lwz 9,0(31)
	b .L1102
.LBE2912:
.LBE2914:
.LBE2918:
.LBE2922:
.LBE2938:
.LBE2943:
	.cfi_endproc
.LFE2593:
	.size	_ZN5idStr8BestUnitEPKcf9Measure_t, .-_ZN5idStr8BestUnitEPKcf9Measure_t
	.align 2
	.globl _ZN5idStr20DefaultFileExtensionEPKc
	.type	_ZN5idStr20DefaultFileExtensionEPKc, @function
_ZN5idStr20DefaultFileExtensionEPKc:
.LFB2565:
	.loc 2 799 0
	.cfi_startproc
.LVL1249:
	mflr 0
	stwu 1,-24(1)
.LCFI129:
	.cfi_def_cfa_offset 24
	.cfi_register 65, 0
	stw 30,16(1)
	mr 30,4
	.cfi_offset 30, -8
	stw 31,20(1)
	mr 31,3
	.cfi_offset 31, -4
	stw 0,28(1)
	stw 29,12(1)
.LBB2954:
	.loc 2 803 0
	lwz 29,0(3)
	.cfi_offset 29, -12
	.cfi_offset 65, 4
.LVL1250:
	addic. 9,29,-1
	blt- 0,.L1115
	.loc 2 804 0
	lwz 11,4(3)
	mtctr 29
	lbzx 0,11,9
	cmpwi 7,0,46
	bne+ 7,.L1127
	b .L1116
.LVL1251:
.L1119:
	lbzx 0,11,9
	cmpwi 7,0,46
	beq- 7,.L1116
.L1127:
	.loc 2 803 0
	addi 9,9,-1
.LVL1252:
	bdnz .L1119
.L1115:
	.loc 2 808 0
	lbz 0,0(30)
	cmpwi 7,0,46
	beq- 7,.L1120
.LVL1253:
.LBB2955:
.LBB2956:
.LBB2957:
.LBB2958:
	.loc 3 350 0
	lwz 0,8(31)
.LBE2958:
.LBE2957:
	.loc 3 751 0
	addi 4,29,2
.LVL1254:
.LBB2961:
.LBB2959:
	.loc 3 350 0
	cmpw 7,4,0
	bgt- 7,.L1128
.LBE2959:
.LBE2961:
	.loc 3 752 0
	lwz 9,4(31)
.LVL1255:
	li 0,46
	stbx 0,9,29
	.loc 3 753 0
	lwz 11,0(31)
	.loc 3 754 0
	lwz 9,4(31)
	.loc 3 753 0
	addi 0,11,1
	.loc 3 754 0
	li 11,0
	.loc 3 753 0
	stw 0,0(31)
	.loc 3 754 0
	stbx 11,9,0
	lwz 29,0(31)
.LVL1256:
.L1120:
.LBE2956:
.LBE2955:
.LBB2964:
.LBB2965:
	.loc 3 775 0
	mr 3,30
	bl strlen
.LBB2966:
.LBB2967:
	.loc 3 350 0
	lwz 0,8(31)
.LBE2967:
.LBE2966:
	.loc 3 775 0
	add 29,29,3
.LVL1257:
	.loc 3 776 0
	addi 4,29,1
.LVL1258:
.LBB2970:
.LBB2968:
	.loc 3 350 0
	cmpw 7,4,0
	bgt- 7,.L1129
.LVL1259:
.L1122:
.LBE2968:
.LBE2970:
	.loc 3 777 0
	lbz 0,0(30)
	cmpwi 7,0,0
	beq- 7,.L1123
	li 9,0
.LVL1260:
.L1124:
	.loc 3 778 0
	lwz 10,4(31)
	lwz 11,0(31)
	add 11,10,11
	stbx 0,11,9
	.loc 3 777 0
	addi 9,9,1
.LVL1261:
	lbzx 0,30,9
	cmpwi 7,0,0
	bne+ 7,.L1124
.LVL1262:
.L1123:
	.loc 3 781 0
	lwz 9,4(31)
	li 0,0
	.loc 3 780 0
	stw 29,0(31)
	.loc 3 781 0
	stbx 0,9,29
.LVL1263:
.L1116:
.LBE2965:
.LBE2964:
.LBE2954:
	.loc 2 813 0
	lwz 0,28(1)
	mr 3,31
	lwz 29,12(1)
	mtlr 0
	lwz 30,16(1)
.LVL1264:
	lwz 31,20(1)
.LVL1265:
	addi 1,1,24
	.cfi_remember_state
.LCFI130:
	.cfi_def_cfa_offset 0
	.cfi_restore 31
	.cfi_restore 30
	.cfi_restore 29
	blr
.LVL1266:
.L1129:
.LCFI131:
	.cfi_restore_state
.LBB2975:
.LBB2973:
.LBB2972:
.LBB2971:
.LBB2969:
	.loc 3 351 0
	mr 3,31
	li 5,1
	bl _ZN5idStr10ReAllocateEib
.LVL1267:
	b .L1122
.LVL1268:
.L1128:
.LBE2969:
.LBE2971:
.LBE2972:
.LBE2973:
.LBB2974:
.LBB2963:
.LBB2962:
.LBB2960:
	mr 3,31
	li 5,1
	bl _ZN5idStr10ReAllocateEib
.LVL1269:
	lwz 29,0(31)
.LBE2960:
.LBE2962:
	.loc 3 752 0
	lwz 9,4(31)
	li 0,46
	stbx 0,9,29
	.loc 3 753 0
	lwz 11,0(31)
	.loc 3 754 0
	lwz 9,4(31)
	.loc 3 753 0
	addi 0,11,1
	.loc 3 754 0
	li 11,0
	.loc 3 753 0
	stw 0,0(31)
	.loc 3 754 0
	stbx 11,9,0
	lwz 29,0(31)
	b .L1120
.LBE2963:
.LBE2974:
.LBE2975:
	.cfi_endproc
.LFE2565:
	.size	_ZN5idStr20DefaultFileExtensionEPKc, .-_ZN5idStr20DefaultFileExtensionEPKc
	.align 2
	.globl _ZN5idStr12FormatNumberEi
	.type	_ZN5idStr12FormatNumberEi, @function
_ZN5idStr12FormatNumberEi:
.LFB2599:
	.loc 2 1687 0
	.cfi_startproc
	.cfi_personality 0,__gxx_personality_v0
	.cfi_lsda 0,.LLSDA2599
.LVL1270:
	mflr 0
	stwu 1,-56(1)
.LCFI132:
	.cfi_def_cfa_offset 56
	.cfi_register 65, 0
	mfcr 12
.LBB3029:
.LBB3030:
.LBB3031:
.LBB3032:
	.loc 3 356 0
	li 9,0
.LBE3032:
.LBE3031:
.LBE3030:
.LBE3029:
	.loc 2 1687 0
	stw 26,32(1)
.LBB3147:
.LBB3043:
	.loc 2 1692 0
	lis 26,numFormatList@ha
	.cfi_offset 26, -24
	.cfi_register 70, 12
.LBE3043:
.LBE3147:
	.loc 2 1687 0
	stw 0,60(1)
.LBB3148:
.LBB3046:
.LBB3038:
.LBB3033:
	.loc 3 358 0
	addi 11,3,12
.LBE3033:
.LBE3038:
.LBE3046:
.LBE3148:
	.loc 2 1687 0
	stw 27,36(1)
.LBB3149:
.LBB3047:
.LBB3039:
.LBB3034:
	.loc 3 357 0
	li 10,20
.LBE3034:
.LBE3039:
.LBE3047:
.LBE3149:
	.loc 2 1687 0
	stw 31,52(1)
	mr 27,4
	.cfi_offset 31, -4
	.cfi_offset 27, -20
	.cfi_offset 65, 4
	stw 22,16(1)
	mr 31,3
.LVL1271:
	stw 23,20(1)
	stw 24,24(1)
	stw 25,28(1)
	stw 28,40(1)
	stw 29,44(1)
	stw 30,48(1)
	stw 12,12(1)
.LBB3150:
.LBB3048:
.LBB3040:
.LBB3035:
	.loc 3 356 0
	stw 9,0(3)
	.loc 3 357 0
	stw 10,8(3)
.LBE3035:
.LBE3040:
.LBE3048:
.LBB3049:
	.loc 2 1692 0
	lwz 0,numFormatList@l(26)
.LBE3049:
.LBB3050:
.LBB3041:
.LBB3036:
	.loc 3 358 0
	stw 11,4(3)
.LBE3036:
.LBE3041:
.LBE3050:
.LBB3051:
	.loc 2 1692 0
	cmpwi 7,0,0
.LBE3051:
.LBB3052:
.LBB3042:
.LBB3037:
	.loc 3 359 0
	stb 9,12(3)
.LVL1272:
.LBE3037:
.LBE3042:
.LBE3052:
.LBB3053:
	.loc 2 1692 0
	ble- 7,.L1131
	.cfi_offset 70, -44
	.cfi_offset 30, -8
	.cfi_offset 29, -12
	.cfi_offset 28, -16
	.cfi_offset 25, -28
	.cfi_offset 24, -32
	.cfi_offset 23, -36
	.cfi_offset 22, -40
.LVL1273:
	lis 8,.LANCHOR1@ha
.LBB3044:
	.loc 2 1694 0
	mtctr 0
	la 8,.LANCHOR1@l(8)
	li 10,0
	addi 30,8,32
.LVL1274:
.L1132:
	.loc 2 1693 0 discriminator 2
	slwi 11,9,3
.LBE3044:
	.loc 2 1692 0 discriminator 2
	addi 9,9,1
.LVL1275:
.LBB3045:
	.loc 2 1694 0 discriminator 2
	add 11,30,11
	stw 10,4(11)
.LBE3045:
	.loc 2 1692 0 discriminator 2
	bdnz .L1132
.LVL1276:
	.loc 2 1692 0 is_stmt 0
	lwz 8,32(8)
.LVL1277:
.L1135:
.LBE3053:
.LBB3054:
.LBB3055:
	.loc 2 1704 0 is_stmt 1
	cmpw 7,27,8
	.loc 2 1702 0
	mr 11,30
	mr 10,8
	.loc 2 1704 0
	li 9,0
	mtctr 0
	blt+ 7,.L1185
	b .L1134
.LVL1278:
.L1136:
	.loc 2 1702 0
	slwi 11,9,3
	.loc 2 1704 0
	lwzx 10,30,11
	.loc 2 1702 0
	add 11,30,11
.LVL1279:
	.loc 2 1704 0
	cmpw 7,27,10
	bge- 7,.L1134
.LVL1280:
.L1185:
.LBE3055:
	.loc 2 1701 0
	addi 9,9,1
.LVL1281:
	bdnz .L1136
	li 29,0
	li 0,1
.LBE3054:
.LBB3057:
.LBB3058:
	.loc 2 1728 0
	lis 23,.LC19@ha
	.loc 2 1721 0
	lis 22,.LC18@ha
	cmpwi 4,29,0
	cmpwi 3,0,0
	.loc 2 1728 0
	la 23,.LC19@l(23)
.LBB3059:
.LBB3060:
.LBB3061:
	.loc 3 781 0
	li 24,0
.LBE3061:
.LBE3060:
.LBE3059:
	.loc 2 1721 0
	la 22,.LC18@l(22)
.LVL1282:
.L1152:
	.loc 2 1717 0
	slwi 9,29,3
	.loc 2 1719 0
	add 9,30,9
	lwz 4,4(9)
	cmpwi 7,4,0
	beq- 7,.L1137
	.loc 2 1720 0
	bne- 4,.L1138
	.loc 2 1721 0
	mr 3,22
	crxor 6,6,6
	bl _Z2vaPKcz
.LVL1283:
.LBB3074:
.LBB3075:
.LBB3076:
	.loc 3 774 0
	mr. 28,3
	beq- 0,.L1171
	.loc 3 775 0
	bl strlen
.LVL1284:
	lwz 25,0(31)
.LBB3077:
.LBB3078:
	.loc 3 350 0
	lwz 0,8(31)
.LBE3078:
.LBE3077:
	.loc 3 775 0
	add 25,3,25
.LVL1285:
	.loc 3 776 0
	addi 4,25,1
.LVL1286:
.LBB3081:
.LBB3079:
	.loc 3 350 0
	cmpw 7,4,0
	bgt- 7,.L1140
.LVL1287:
.L1143:
.LBE3079:
.LBE3081:
	.loc 3 777 0
	lbz 0,0(28)
	li 9,0
	cmpwi 7,0,0
	beq- 7,.L1142
.LVL1288:
.L1182:
	.loc 3 778 0
	lwz 10,4(31)
	lwz 11,0(31)
	add 11,10,11
	stbx 0,11,9
	.loc 3 777 0
	addi 9,9,1
.LVL1289:
	lbzx 0,28,9
	cmpwi 7,0,0
	bne+ 7,.L1182
.LVL1290:
.L1142:
	.loc 3 781 0
	lwz 9,4(31)
	mcrf 4,3
	.loc 3 780 0
	stw 25,0(31)
	.loc 3 781 0
	stbx 24,9,25
.LVL1291:
.L1139:
.LBE3076:
.LBE3075:
.LBE3074:
.LBE3058:
	.loc 2 1716 0
	lwz 0,numFormatList@l(26)
	addi 29,29,1
.LVL1292:
	cmpw 7,0,29
	bgt+ 7,.L1152
.LBE3057:
	.loc 2 1732 0
	beq- 4,.L1131
	.loc 2 1733 0
	lis 3,.LC20@ha
	mr 4,27
	la 3,.LC20@l(3)
	crxor 6,6,6
	bl _Z2vaPKcz
.LVL1293:
.LBB3103:
.LBB3104:
.LBB3105:
	.loc 3 774 0
	mr. 30,3
	beq- 0,.L1153
	.loc 3 775 0
	bl strlen
.LVL1294:
	lwz 29,0(31)
.LVL1295:
.LBB3106:
.LBB3107:
	.loc 3 350 0
	lwz 0,8(31)
.LBE3107:
.LBE3106:
	.loc 3 775 0
	add 29,3,29
.LVL1296:
	.loc 3 776 0
	addi 4,29,1
.LVL1297:
.LBB3110:
.LBB3108:
	.loc 3 350 0
	cmpw 7,4,0
	bgt- 7,.L1154
.LVL1298:
.L1157:
.LBE3108:
.LBE3110:
	.loc 3 777 0
	lbz 0,0(30)
	li 9,0
	cmpwi 7,0,0
	beq- 7,.L1160
.LVL1299:
.L1180:
	.loc 3 778 0
	lwz 10,4(31)
	lwz 11,0(31)
	add 11,10,11
	stbx 0,11,9
	.loc 3 777 0
	addi 9,9,1
.LVL1300:
	lbzx 0,30,9
	cmpwi 7,0,0
	bne+ 7,.L1180
.LVL1301:
.L1160:
.LBE3105:
.LBE3104:
.LBE3103:
.LBB3114:
.LBB3115:
.LBB3116:
	.loc 3 781 0
	lwz 9,4(31)
	li 0,0
	.loc 3 780 0
	stw 29,0(31)
	.loc 3 781 0
	stbx 0,9,29
.L1153:
	.loc 2 1747 0
	lwz 30,0(31)
.LBE3116:
.LBE3115:
.LBE3114:
	.loc 2 1740 0
	subfic 28,30,11
.LVL1302:
.LBB3125:
	.loc 2 1742 0
	cmpwi 7,28,0
	ble- 7,.L1130
	li 29,0
.LBB3126:
.LBB3127:
	.loc 3 833 0
	li 27,32
.LVL1303:
.L1167:
.LBB3128:
.LBB3129:
	.loc 3 350 0
	lwz 0,8(31)
.LBE3129:
.LBE3128:
	.loc 3 828 0
	addi 4,30,2
.LVL1304:
.LBB3132:
.LBB3130:
	.loc 3 350 0
	mr 11,30
	cmpw 7,4,0
	bgt- 7,.L1196
.LVL1305:
.L1163:
	.loc 3 351 0
	cmpwi 7,30,0
	ble- 7,.L1164
	li 30,0
.LVL1306:
.L1164:
.LBE3130:
.LBE3132:
	.loc 3 829 0
	cmpw 7,30,11
	bgt- 7,.L1165
.L1179:
	.loc 3 830 0
	lwz 9,4(31)
	lbzux 0,9,11
	.loc 3 829 0
	addi 11,11,-1
.LVL1307:
	cmpw 7,11,30
	.loc 3 830 0
	stb 0,1(9)
	.loc 3 829 0
	bge+ 7,.L1179
.L1165:
.LVL1308:
	.loc 3 833 0
	lwz 9,4(31)
.LBE3127:
.LBE3126:
	.loc 2 1742 0
	addi 29,29,1
	cmpw 7,29,28
.LBB3136:
.LBB3134:
	.loc 3 833 0
	stbx 27,9,30
.LVL1309:
	.loc 3 835 0
	lwz 30,0(31)
	addi 30,30,1
	stw 30,0(31)
.LBE3134:
.LBE3136:
	.loc 2 1742 0
	bne+ 7,.L1167
.LVL1310:
.L1130:
.LBE3125:
.LBE3150:
	.loc 2 1747 0
	lwz 0,60(1)
	mr 3,31
	lwz 12,12(1)
	mtlr 0
	lwz 22,16(1)
	lwz 23,20(1)
	mtcrf 24,12
	lwz 24,24(1)
	lwz 25,28(1)
	lwz 26,32(1)
	lwz 27,36(1)
	lwz 28,40(1)
.LVL1311:
	lwz 29,44(1)
	lwz 30,48(1)
	lwz 31,52(1)
.LVL1312:
	addi 1,1,56
	.cfi_remember_state
.LCFI133:
	.cfi_def_cfa_offset 0
	.cfi_restore 70
	.cfi_restore 31
	.cfi_restore 30
	.cfi_restore 29
	.cfi_restore 28
	.cfi_restore 27
	.cfi_restore 26
	.cfi_restore 25
	.cfi_restore 24
	.cfi_restore 23
	.cfi_restore 22
	blr
.LVL1313:
.L1137:
.LCFI134:
	.cfi_restore_state
.LBB3151:
.LBB3138:
.LBB3101:
	.loc 2 1727 0
	beq+ 4,.L1139
	.loc 2 1728 0
	mr 3,23
	li 4,0
	crxor 6,6,6
	bl _Z2vaPKcz
.LVL1314:
.LBB3085:
.LBB3071:
.LBB3068:
	.loc 3 774 0
	mr. 28,3
	beq- 0,.L1139
	.loc 3 775 0
	bl strlen
.LVL1315:
	lwz 25,0(31)
.LBB3062:
.LBB3063:
	.loc 3 350 0
	lwz 0,8(31)
.LBE3063:
.LBE3062:
	.loc 3 775 0
	add 25,3,25
.LVL1316:
	.loc 3 776 0
	addi 4,25,1
.LVL1317:
.LBB3066:
.LBB3064:
	.loc 3 350 0
	cmpw 7,4,0
	bgt- 7,.L1148
.LVL1318:
.L1151:
.LBE3064:
.LBE3066:
	.loc 3 777 0
	lbz 0,0(28)
	li 9,0
	cmpwi 7,0,0
	beq- 7,.L1150
.LVL1319:
.L1184:
	.loc 3 778 0
	lwz 10,4(31)
	lwz 11,0(31)
	add 11,10,11
	stbx 0,11,9
	.loc 3 777 0
	addi 9,9,1
.LVL1320:
	lbzx 0,28,9
	cmpwi 7,0,0
	bne+ 7,.L1184
.LVL1321:
.L1150:
	.loc 3 781 0
	lwz 9,4(31)
	.loc 3 780 0
	stw 25,0(31)
	.loc 3 781 0
	stbx 24,9,25
	b .L1139
.L1138:
.LBE3068:
.LBE3071:
.LBE3085:
	.loc 2 1723 0
	mr 3,23
	crxor 6,6,6
	bl _Z2vaPKcz
.LVL1322:
.LBB3086:
.LBB3087:
.LBB3088:
	.loc 3 774 0
	mr. 28,3
	beq- 0,.L1139
	.loc 3 775 0
	bl strlen
.LVL1323:
	lwz 25,0(31)
.LBB3089:
.LBB3090:
	.loc 3 350 0
	lwz 0,8(31)
.LBE3090:
.LBE3089:
	.loc 3 775 0
	add 25,3,25
.LVL1324:
	.loc 3 776 0
	addi 4,25,1
.LVL1325:
.LBB3093:
.LBB3091:
	.loc 3 350 0
	cmpw 7,4,0
	bgt- 7,.L1144
.LVL1326:
.L1147:
.LBE3091:
.LBE3093:
	.loc 3 777 0
	lbz 0,0(28)
	li 9,0
	cmpwi 7,0,0
	beq- 7,.L1150
.LVL1327:
.L1183:
	.loc 3 778 0
	lwz 10,4(31)
	lwz 11,0(31)
	add 11,10,11
	stbx 0,11,9
	.loc 3 777 0
	addi 9,9,1
.LVL1328:
	lbzx 0,28,9
	cmpwi 7,0,0
	bne+ 7,.L1183
.LBE3088:
.LBE3087:
.LBE3086:
.LBB3097:
.LBB3072:
.LBB3069:
	.loc 3 781 0
	lwz 9,4(31)
.LVL1329:
	.loc 3 780 0
	stw 25,0(31)
	.loc 3 781 0
	stbx 24,9,25
	b .L1139
.LVL1330:
.L1196:
.LBE3069:
.LBE3072:
.LBE3097:
.LBE3101:
.LBE3138:
.LBB3139:
.LBB3137:
.LBB3135:
.LBB3133:
.LBB3131:
	.loc 3 351 0
	mr 3,31
	li 5,1
.LEHB19:
	bl _ZN5idStr10ReAllocateEib
.LVL1331:
	lwz 11,0(31)
	b .L1163
.LVL1332:
.L1134:
.LBE3131:
.LBE3133:
.LBE3135:
.LBE3137:
.LBE3139:
.LBB3140:
.LBB3056:
	.loc 2 1705 0
	lwz 9,4(11)
	.loc 2 1706 0
	subf 27,10,27
.LVL1333:
	.loc 2 1705 0
	addi 9,9,1
	stw 9,4(11)
	b .L1135
.LVL1334:
.L1144:
.LBE3056:
.LBE3140:
.LBB3141:
.LBB3102:
.LBB3098:
.LBB3096:
.LBB3095:
.LBB3094:
.LBB3092:
	.loc 3 351 0
	mr 3,31
	li 5,1
	bl _ZN5idStr10ReAllocateEib
.LVL1335:
	b .L1147
.LVL1336:
.L1140:
.LBE3092:
.LBE3094:
.LBE3095:
.LBE3096:
.LBE3098:
.LBB3099:
.LBB3084:
.LBB3083:
.LBB3082:
.LBB3080:
	mr 3,31
	li 5,1
	bl _ZN5idStr10ReAllocateEib
.LVL1337:
	b .L1143
.LVL1338:
.L1171:
	mcrf 4,3
	b .L1139
.LVL1339:
.L1148:
.LBE3080:
.LBE3082:
.LBE3083:
.LBE3084:
.LBE3099:
.LBB3100:
.LBB3073:
.LBB3070:
.LBB3067:
.LBB3065:
	mr 3,31
	li 5,1
	bl _ZN5idStr10ReAllocateEib
.LVL1340:
	b .L1151
.LVL1341:
.L1131:
.LBE3065:
.LBE3067:
.LBE3070:
.LBE3073:
.LBE3100:
.LBE3102:
.LBE3141:
	.loc 2 1736 0
	lis 3,.LC21@ha
	mr 4,27
	la 3,.LC21@l(3)
	crxor 6,6,6
	bl _Z2vaPKcz
.LVL1342:
.LBB3142:
.LBB3124:
.LBB3123:
	.loc 3 774 0
	mr. 30,3
	beq- 0,.L1153
	.loc 3 775 0
	bl strlen
.LVL1343:
	lwz 29,0(31)
.LBB3117:
.LBB3118:
	.loc 3 350 0
	lwz 0,8(31)
.LBE3118:
.LBE3117:
	.loc 3 775 0
	add 29,3,29
.LVL1344:
	.loc 3 776 0
	addi 4,29,1
.LVL1345:
.LBB3121:
.LBB3119:
	.loc 3 350 0
	cmpw 7,4,0
	bgt- 7,.L1158
.LVL1346:
.L1161:
.LBE3119:
.LBE3121:
	.loc 3 777 0
	lbz 0,0(30)
	li 9,0
	cmpwi 7,0,0
	beq- 7,.L1160
.LVL1347:
.L1181:
	.loc 3 778 0
	lwz 10,4(31)
	lwz 11,0(31)
	add 11,10,11
	stbx 0,11,9
	.loc 3 777 0
	addi 9,9,1
.LVL1348:
	lbzx 0,30,9
	cmpwi 7,0,0
	bne+ 7,.L1181
	.loc 3 781 0
	lwz 9,4(31)
.LVL1349:
	li 0,0
	.loc 3 780 0
	stw 29,0(31)
	.loc 3 781 0
	stbx 0,9,29
	b .L1153
.LVL1350:
.L1158:
.LBB3122:
.LBB3120:
	.loc 3 351 0
	mr 3,31
	li 5,1
	bl _ZN5idStr10ReAllocateEib
.LVL1351:
	b .L1161
.LVL1352:
.L1154:
.LBE3120:
.LBE3122:
.LBE3123:
.LBE3124:
.LBE3142:
.LBB3143:
.LBB3113:
.LBB3112:
.LBB3111:
.LBB3109:
	mr 3,31
	li 5,1
	bl _ZN5idStr10ReAllocateEib
.LEHE19:
.LVL1353:
	b .L1157
.LVL1354:
.L1178:
	mr 30,3
.LVL1355:
.LBE3109:
.LBE3111:
.LBE3112:
.LBE3113:
.LBE3143:
.LBB3144:
.LBB3145:
.LBB3146:
	.loc 3 501 0
	mr 3,31
	bl _ZN5idStr8FreeDataEv
	mr 3,30
.LEHB20:
	bl _Unwind_Resume
.LEHE20:
.LBE3146:
.LBE3145:
.LBE3144:
.LBE3151:
	.cfi_endproc
.LFE2599:
	.section	.gcc_except_table
.LLSDA2599:
	.byte	0xff
	.byte	0xff
	.byte	0x1
	.uleb128 .LLSDACSE2599-.LLSDACSB2599
.LLSDACSB2599:
	.uleb128 .LEHB19-.LFB2599
	.uleb128 .LEHE19-.LEHB19
	.uleb128 .L1178-.LFB2599
	.uleb128 0
	.uleb128 .LEHB20-.LFB2599
	.uleb128 .LEHE20-.LEHB20
	.uleb128 0
	.uleb128 0
.LLSDACSE2599:
	.section	".text"
	.size	_ZN5idStr12FormatNumberEi, .-_ZN5idStr12FormatNumberEi
	.align 2
	.globl _ZNK5idStr3MidEiiRS_
	.type	_ZNK5idStr3MidEiiRS_, @function
_ZNK5idStr3MidEiiRS_:
.LFB2556:
	.loc 2 608 0
	.cfi_startproc
.LVL1356:
	mflr 0
	stwu 1,-40(1)
.LCFI135:
	.cfi_def_cfa_offset 40
	.cfi_register 65, 0
	mfcr 12
	stw 29,28(1)
	mr 29,3
	.cfi_offset 29, -12
	.cfi_register 70, 12
	stw 30,32(1)
	mr 30,4
	.cfi_offset 30, -8
	stw 31,36(1)
	mr 31,5
	.cfi_offset 31, -4
	stw 0,44(1)
	stw 28,24(1)
	stw 12,20(1)
.LBB3166:
.LBB3167:
.LBB3168:
.LBB3169:
.LBB3170:
	.loc 3 350 0
	lwz 0,8(6)
	.cfi_offset 70, -20
	.cfi_offset 28, -16
	.cfi_offset 65, 4
	cmpwi 7,0,0
	bgt+ 7,.L1198
	.loc 3 351 0
	mr 3,6
.LVL1357:
	li 4,1
.LVL1358:
	li 5,1
.LVL1359:
	stw 6,8(1)
	bl _ZN5idStr10ReAllocateEib
.LVL1360:
	lwz 6,8(1)
.L1198:
.LBE3170:
.LBE3169:
	.loc 3 737 0
	lwz 11,4(6)
	li 0,0
	.loc 3 738 0
	li 9,0
.LBE3168:
.LBE3167:
	.loc 2 615 0
	li 3,0
.LBB3172:
.LBB3171:
	.loc 3 737 0
	stb 0,0(11)
	.loc 3 738 0
	stw 9,0(6)
	.loc 2 1747 0
	lwz 0,0(29)
.LBE3171:
.LBE3172:
	.loc 2 614 0
	cmpwi 7,0,0
	beq- 7,.L1199
	.loc 2 614 0 is_stmt 0 discriminator 1
	cmpwi 7,31,0
	ble- 7,.L1199
	.loc 2 614 0 discriminator 2
	cmpw 7,0,30
	ble- 7,.L1199
	.loc 2 618 0 is_stmt 1
	add 9,30,31
	cmpw 7,0,9
	ble- 7,.L1211
.L1200:
.LVL1361:
	.loc 2 622 0
	lwz 29,4(29)
.LVL1362:
.LBB3173:
.LBB3174:
	.loc 3 789 0
	add. 28,29,30
	beq- 0,.L1201
	cmpwi 4,31,0
	bne- 4,.L1212
.LVL1363:
.L1201:
.LBE3174:
.LBE3173:
.LBB3181:
	.loc 2 1747 0
	lwz 3,4(6)
.LVL1364:
.L1199:
.LBE3181:
.LBE3166:
	.loc 2 624 0
	lwz 0,44(1)
	lwz 12,20(1)
	mtlr 0
	lwz 28,24(1)
	lwz 29,28(1)
	mtcrf 8,12
	lwz 30,32(1)
.LVL1365:
	lwz 31,36(1)
.LVL1366:
	addi 1,1,40
	.cfi_remember_state
.LCFI136:
	.cfi_def_cfa_offset 0
	.cfi_restore 70
	.cfi_restore 31
	.cfi_restore 30
	.cfi_restore 29
	.cfi_restore 28
	blr
.LVL1367:
.L1211:
.LCFI137:
	.cfi_restore_state
.LBB3183:
	.loc 2 619 0
	subf 31,30,0
.LVL1368:
	b .L1200
.LVL1369:
.L1212:
.LBB3182:
.LBB3175:
.LBB3176:
.LBB3177:
.LBB3178:
	.loc 3 350 0
	lwz 0,8(6)
.LBE3178:
.LBE3177:
	.loc 3 791 0
	addi 4,31,1
.LVL1370:
.LBB3180:
.LBB3179:
	.loc 3 350 0
	cmpw 7,4,0
	ble+ 7,.L1202
	.loc 3 351 0
	mr 3,6
	li 5,1
	stw 6,8(1)
	bl _ZN5idStr10ReAllocateEib
.LVL1371:
	lwz 6,8(1)
.L1202:
.LVL1372:
.LBE3179:
.LBE3180:
	.loc 3 792 0
	lbzx 0,29,30
	cmpwi 7,0,0
	beq- 7,.L1203
	ble- 4,.L1203
	mtctr 31
	li 9,0
.LVL1373:
.L1204:
	.loc 3 793 0
	lwz 10,4(6)
	lwz 11,0(6)
	add 11,10,11
	stbx 0,11,9
	.loc 3 792 0
	addi 9,9,1
.LVL1374:
	lbzx 0,28,9
	cmpwi 7,0,0
	beq- 7,.L1203
	bdnz .L1204
.LVL1375:
.L1203:
	.loc 3 796 0
	lwz 9,4(6)
	li 0,0
	.loc 3 795 0
	stw 31,0(6)
	.loc 3 796 0
	stbx 0,9,31
	b .L1201
.LBE3176:
.LBE3175:
.LBE3182:
.LBE3183:
	.cfi_endproc
.LFE2556:
	.size	_ZNK5idStr3MidEiiRS_, .-_ZNK5idStr3MidEiiRS_
	.align 2
	.globl _ZNK5idStr20ExtractFileExtensionERS_
	.type	_ZNK5idStr20ExtractFileExtensionERS_, @function
_ZNK5idStr20ExtractFileExtensionERS_:
.LFB2573:
	.loc 2 970 0
	.cfi_startproc
.LVL1376:
	mflr 0
	stwu 1,-24(1)
.LCFI138:
	.cfi_def_cfa_offset 24
	.cfi_register 65, 0
	stw 29,12(1)
	mr 29,4
	.cfi_offset 29, -12
	stw 30,16(1)
	mr 30,3
	.cfi_offset 30, -8
	stw 0,28(1)
	stw 31,20(1)
	.loc 2 1747 0
	lwz 31,0(3)
	.cfi_offset 31, -4
	.cfi_offset 65, 4
.LVL1377:
.LBB3202:
	.loc 2 977 0
	addic. 4,31,-1
.LVL1378:
	ble- 0,.L1214
.LVL1379:
	.loc 2 1747 0
	lwz 0,4(3)
.LVL1380:
.LBB3203:
.LBB3204:
	.loc 3 522 0
	add 9,0,31
.LBE3204:
.LBE3203:
	.loc 2 977 0
	lbz 9,-2(9)
	cmpwi 7,9,46
	beq- 7,.L1219
	.loc 2 970 0
	addi 9,31,-2
	mtctr 4
	add 9,0,9
.LVL1381:
.L1216:
	.loc 2 978 0 discriminator 5
	addi 4,4,-1
.LVL1382:
	.loc 2 977 0 discriminator 5
	bdz .L1218
.LVL1383:
	.loc 2 977 0 is_stmt 0 discriminator 2
	lbzu 0,-1(9)
	cmpwi 7,0,46
	bne+ 7,.L1216
.LVL1384:
.L1219:
	.loc 2 985 0 is_stmt 1
	subf 5,4,31
.LVL1385:
.LBB3205:
.LBB3206:
	.loc 3 918 0
	cmpw 7,31,5
	ble- 7,.L1224
.LVL1386:
.LBE3206:
.LBE3205:
.LBE3202:
	.loc 2 987 0
	lwz 0,28(1)
.LBB3239:
.LBB3227:
.LBB3223:
.LBB3207:
.LBB3208:
	.loc 3 922 0
	mr 3,30
.LVL1387:
.LBE3208:
.LBE3207:
.LBE3223:
.LBE3227:
.LBE3239:
	.loc 2 987 0
	lwz 31,20(1)
.LBB3240:
.LBB3228:
.LBB3224:
.LBB3211:
.LBB3209:
	.loc 3 922 0
	mr 6,29
.LBE3209:
.LBE3211:
.LBE3224:
.LBE3228:
.LBE3240:
	.loc 2 987 0
	lwz 30,16(1)
.LVL1388:
	mtlr 0
	lwz 29,12(1)
.LVL1389:
	addi 1,1,24
	.cfi_remember_state
.LCFI139:
	.cfi_def_cfa_offset 0
	.cfi_restore 31
	.cfi_restore 30
	.cfi_restore 29
.LBB3241:
.LBB3229:
.LBB3225:
.LBB3212:
.LBB3210:
	.loc 3 922 0
	b _ZNK5idStr3MidEiiRS_
.LVL1390:
.L1224:
.LCFI140:
	.cfi_restore_state
.LBE3210:
.LBE3212:
.LBB3213:
.LBB3214:
.LBB3215:
.LBB3216:
	.loc 3 350 0
	lwz 0,8(29)
.LBE3216:
.LBE3215:
	.loc 3 534 0
	addi 4,31,1
.LVL1391:
.LBB3219:
.LBB3217:
	.loc 3 350 0
	cmpw 7,4,0
	bgt- 7,.L1225
.LVL1392:
.L1223:
.LBE3217:
.LBE3219:
	.loc 3 535 0
	lwz 3,4(29)
	mr 5,31
	lwz 4,4(30)
	bl memcpy
	.loc 3 536 0
	lwz 9,4(29)
	li 0,0
	stbx 0,9,31
	.loc 3 537 0
	stw 31,0(29)
.LBE3214:
.LBE3213:
.LBE3225:
.LBE3229:
.LBE3241:
	.loc 2 987 0
	lwz 0,28(1)
	lwz 29,12(1)
.LVL1393:
	mtlr 0
	lwz 30,16(1)
.LVL1394:
	lwz 31,20(1)
	addi 1,1,24
	.cfi_remember_state
.LCFI141:
	.cfi_def_cfa_offset 0
	.cfi_restore 31
	.cfi_restore 30
	.cfi_restore 29
	blr
.LVL1395:
.L1214:
.LCFI142:
	.cfi_restore_state
.LBB3242:
	.loc 2 981 0
	bne+ 0,.L1219
.L1218:
.LVL1396:
.LBB3230:
.LBB3231:
.LBB3232:
.LBB3233:
	.loc 3 350 0
	lwz 0,8(29)
	cmpwi 7,0,0
	ble- 7,.L1226
.LVL1397:
.L1220:
.LBE3233:
.LBE3232:
	.loc 3 737 0
	lwz 9,4(29)
	li 0,0
	stb 0,0(9)
	.loc 3 738 0
	li 0,0
	stw 0,0(29)
.LBE3231:
.LBE3230:
.LBE3242:
	.loc 2 987 0
	lwz 0,28(1)
	lwz 29,12(1)
.LVL1398:
	mtlr 0
	lwz 30,16(1)
.LVL1399:
	lwz 31,20(1)
	addi 1,1,24
	.cfi_remember_state
	.cfi_restore 29
	.cfi_restore 30
	.cfi_restore 31
.LCFI143:
	.cfi_def_cfa_offset 0
	blr
.LVL1400:
.L1225:
.LCFI144:
	.cfi_restore_state
.LBB3243:
.LBB3237:
.LBB3226:
.LBB3222:
.LBB3221:
.LBB3220:
.LBB3218:
	.loc 3 351 0
	mr 3,29
.LVL1401:
	li 5,0
.LVL1402:
	bl _ZN5idStr10ReAllocateEib
.LVL1403:
	b .L1223
.LVL1404:
.L1226:
.LBE3218:
.LBE3220:
.LBE3221:
.LBE3222:
.LBE3226:
.LBE3237:
.LBB3238:
.LBB3236:
.LBB3235:
.LBB3234:
	mr 3,29
	li 4,1
.LVL1405:
	li 5,1
	bl _ZN5idStr10ReAllocateEib
	b .L1220
.LBE3234:
.LBE3235:
.LBE3236:
.LBE3238:
.LBE3243:
	.cfi_endproc
.LFE2573:
	.size	_ZNK5idStr20ExtractFileExtensionERS_, .-_ZNK5idStr20ExtractFileExtensionERS_
	.align 2
	.globl _ZNK5idStr15ExtractFileNameERS_
	.type	_ZNK5idStr15ExtractFileNameERS_, @function
_ZNK5idStr15ExtractFileNameERS_:
.LFB2571:
	.loc 2 926 0
	.cfi_startproc
.LVL1406:
	mflr 0
	stwu 1,-24(1)
.LCFI145:
	.cfi_def_cfa_offset 24
	.cfi_register 65, 0
	stw 29,12(1)
	mr 29,4
	.cfi_offset 29, -12
	stw 30,16(1)
	mr 30,3
	.cfi_offset 30, -8
	stw 0,28(1)
	stw 31,20(1)
	.loc 2 1747 0
	lwz 31,0(3)
	.cfi_offset 31, -4
	.cfi_offset 65, 4
.LVL1407:
.LBB3260:
	.loc 2 933 0
	addic. 4,31,-1
.LVL1408:
	ble- 0,.L1228
.LVL1409:
	.loc 2 1747 0
	lwz 9,4(3)
.LVL1410:
.LBB3261:
.LBB3262:
	.loc 3 522 0
	add 11,9,31
	lbz 0,-2(11)
.LBE3262:
.LBE3261:
	.loc 2 933 0
	cmpwi 7,0,47
	beq- 7,.L1228
.LVL1411:
	cmpwi 7,0,92
	beq- 7,.L1228
	.loc 2 926 0
	addi 0,31,-2
	mtctr 4
	add 9,9,0
	b .L1229
.LVL1412:
.L1235:
	.loc 2 933 0 discriminator 4
	beq- 6,.L1228
.LVL1413:
.L1229:
	.loc 2 934 0 discriminator 6
	addi 4,4,-1
.LVL1414:
	.loc 2 933 0 discriminator 6
	bdz .L1231
.LVL1415:
.LBB3264:
.LBB3263:
	.loc 3 522 0 discriminator 2
	lbzu 0,-1(9)
.LBE3263:
.LBE3264:
	.loc 2 933 0 discriminator 2
	cmpwi 7,0,47
	cmpwi 6,0,92
	bne+ 7,.L1235
.LVL1416:
.L1228:
	.loc 2 937 0
	subf 5,4,31
.LVL1417:
.LBB3265:
.LBB3266:
	.loc 3 918 0
	cmpw 7,31,5
	ble- 7,.L1231
.LVL1418:
.LBE3266:
.LBE3265:
.LBE3260:
	.loc 2 938 0
	lwz 0,28(1)
.LBB3285:
.LBB3282:
.LBB3279:
.LBB3267:
.LBB3268:
	.loc 3 922 0
	mr 3,30
.LVL1419:
.LBE3268:
.LBE3267:
.LBE3279:
.LBE3282:
.LBE3285:
	.loc 2 938 0
	lwz 31,20(1)
.LBB3286:
.LBB3283:
.LBB3280:
.LBB3271:
.LBB3269:
	.loc 3 922 0
	mr 6,29
.LBE3269:
.LBE3271:
.LBE3280:
.LBE3283:
.LBE3286:
	.loc 2 938 0
	lwz 30,16(1)
.LVL1420:
	mtlr 0
	lwz 29,12(1)
.LVL1421:
	addi 1,1,24
	.cfi_remember_state
.LCFI146:
	.cfi_def_cfa_offset 0
	.cfi_restore 31
	.cfi_restore 30
	.cfi_restore 29
.LBB3287:
.LBB3284:
.LBB3281:
.LBB3272:
.LBB3270:
	.loc 3 922 0
	b _ZNK5idStr3MidEiiRS_
.LVL1422:
.L1231:
.LCFI147:
	.cfi_restore_state
.LBE3270:
.LBE3272:
.LBB3273:
.LBB3274:
.LBB3275:
.LBB3276:
	.loc 3 350 0
	lwz 0,8(29)
.LBE3276:
.LBE3275:
	.loc 3 534 0
	addi 4,31,1
.LVL1423:
.LBB3278:
.LBB3277:
	.loc 3 350 0
	cmpw 7,4,0
	ble+ 7,.L1233
	.loc 3 351 0
	mr 3,29
.LVL1424:
	li 5,0
	bl _ZN5idStr10ReAllocateEib
.LVL1425:
.L1233:
.LBE3277:
.LBE3278:
	.loc 3 535 0
	lwz 3,4(29)
	mr 5,31
	lwz 4,4(30)
	bl memcpy
	.loc 3 536 0
	lwz 9,4(29)
	li 0,0
	stbx 0,9,31
	.loc 3 537 0
	stw 31,0(29)
.LBE3274:
.LBE3273:
.LBE3281:
.LBE3284:
.LBE3287:
	.loc 2 938 0
	lwz 0,28(1)
	lwz 29,12(1)
.LVL1426:
	mtlr 0
	lwz 30,16(1)
.LVL1427:
	lwz 31,20(1)
	addi 1,1,24
.LCFI148:
	.cfi_def_cfa_offset 0
	.cfi_restore 31
	.cfi_restore 30
	.cfi_restore 29
	blr
	.cfi_endproc
.LFE2571:
	.size	_ZNK5idStr15ExtractFileNameERS_, .-_ZNK5idStr15ExtractFileNameERS_
	.align 2
	.globl _ZNK5idStr15ExtractFileBaseERS_
	.type	_ZNK5idStr15ExtractFileBaseERS_, @function
_ZNK5idStr15ExtractFileBaseERS_:
.LFB2572:
	.loc 2 945 0
	.cfi_startproc
.LVL1428:
.LBB3288:
	.loc 2 1747 0
	lwz 9,0(3)
.LVL1429:
.LBE3288:
	.loc 2 945 0
	mr 6,4
.LBB3293:
	.loc 2 953 0
	addic. 4,9,-1
.LVL1430:
	ble- 0,.L1237
	.loc 2 1747 0
	lwz 11,4(3)
.LVL1431:
.LBB3289:
.LBB3290:
	.loc 3 522 0
	add 10,11,9
	lbz 0,-2(10)
.LBE3290:
.LBE3289:
	.loc 2 953 0
	cmpwi 7,0,47
	beq- 7,.L1237
.LVL1432:
	cmpwi 7,0,92
	beq- 7,.L1237
	.loc 2 945 0
	addi 0,9,-2
	mtctr 4
	add 11,11,0
	b .L1238
.LVL1433:
.L1248:
	.loc 2 953 0 discriminator 4
	beq- 6,.L1237
.LVL1434:
.L1238:
	.loc 2 954 0 discriminator 6
	addi 4,4,-1
.LVL1435:
	.loc 2 953 0 discriminator 6
	bdz .L1237
.LVL1436:
.LBB3292:
.LBB3291:
	.loc 3 522 0 discriminator 2
	lbzu 0,-1(11)
.LBE3291:
.LBE3292:
	.loc 2 953 0 discriminator 2
	cmpwi 7,0,47
	cmpwi 6,0,92
	bne+ 7,.L1248
.LVL1437:
.L1237:
	.loc 2 958 0 discriminator 1
	cmpw 7,9,4
	li 5,0
	ble- 7,.L1240
	.loc 2 1747 0
	lwz 10,4(3)
.LVL1438:
	subf 9,4,9
	.loc 2 958 0
	mr 11,4
	mtctr 9
	lbzx 0,10,4
	cmpwi 7,0,46
	beq- 7,.L1240
.LVL1439:
.L1245:
	.loc 2 959 0 discriminator 5
	addi 11,11,1
.LVL1440:
	.loc 2 958 0 discriminator 5
	bdz .L1247
.LVL1441:
	.loc 2 958 0 is_stmt 0 discriminator 2
	lbzx 0,10,11
	cmpwi 7,0,46
	bne+ 7,.L1245
.LVL1442:
.L1247:
	.loc 2 958 0
	subf 5,4,11
.LVL1443:
.L1240:
.LBE3293:
	.loc 2 963 0 is_stmt 1
.LBB3294:
	.loc 2 962 0
	b _ZNK5idStr3MidEiiRS_
.LVL1444:
.LVL1445:
.LBE3294:
	.cfi_endproc
.LFE2572:
	.size	_ZNK5idStr15ExtractFileBaseERS_, .-_ZNK5idStr15ExtractFileBaseERS_
	.align 2
	.globl _ZNK5idStr15ExtractFilePathERS_
	.type	_ZNK5idStr15ExtractFilePathERS_, @function
_ZNK5idStr15ExtractFilePathERS_:
.LFB2570:
	.loc 2 907 0
	.cfi_startproc
.LVL1446:
	.loc 2 1747 0
	lwz 5,0(3)
.LVL1447:
	.loc 2 907 0
	mr 6,4
.LBB3295:
	.loc 2 914 0
	cmpwi 7,5,0
	ble- 7,.L1250
	.loc 2 1747 0
	lwz 11,4(3)
.LVL1448:
.LBB3296:
.LBB3297:
	.loc 3 522 0
	add 9,11,5
	lbz 0,-1(9)
.LBE3297:
.LBE3296:
	.loc 2 914 0
	cmpwi 7,0,47
	beq- 7,.L1250
.LVL1449:
	cmpwi 7,0,92
	beq- 7,.L1250
	.loc 2 907 0
	addi 9,5,-1
	mtctr 5
	add 11,11,9
	b .L1251
.LVL1450:
.L1253:
	.loc 2 914 0 discriminator 4
	beq- 6,.L1250
.LVL1451:
.L1251:
	.loc 2 915 0 discriminator 6
	mr 5,9
.LVL1452:
	.loc 2 914 0 discriminator 6
	bdz .L1250
.LVL1453:
.LBB3299:
.LBB3298:
	.loc 3 522 0 discriminator 2
	lbzu 0,-1(11)
	addi 9,9,-1
.LVL1454:
.LBE3298:
.LBE3299:
	.loc 2 914 0 discriminator 2
	cmpwi 7,0,47
	cmpwi 6,0,92
	bne+ 7,.L1253
.LVL1455:
.L1250:
.LBB3300:
.LBB3301:
	.loc 3 914 0
	li 4,0
.LVL1456:
.LBE3301:
.LBE3300:
.LBE3295:
	.loc 2 919 0
.LBB3304:
.LBB3303:
.LBB3302:
	.loc 3 914 0
	b _ZNK5idStr3MidEiiRS_
.LVL1457:
.LVL1458:
.LVL1459:
.LVL1460:
.LVL1461:
.LVL1462:
.LBE3302:
.LBE3303:
.LBE3304:
	.cfi_endproc
.LFE2570:
	.size	_ZNK5idStr15ExtractFilePathERS_, .-_ZNK5idStr15ExtractFilePathERS_
	.section	.text.startup,"ax",@progbits
	.align 2
	.type	_GLOBAL__sub_I_g_color_table, @function
_GLOBAL__sub_I_g_color_table:
.LFB2882:
	.loc 2 1747 0
	.cfi_startproc
	.loc 2 1747 0
	li 3,1
	b _Z41__static_initialization_and_destruction_0ii.constprop.31
	.cfi_endproc
.LFE2882:
	.size	_GLOBAL__sub_I_g_color_table, .-_GLOBAL__sub_I_g_color_table
	.section	.ctors,"aw",@progbits
	.align 2
	.long	_GLOBAL__sub_I_g_color_table
	.section	.text.exit,"ax",@progbits
	.align 2
	.type	_GLOBAL__sub_D_g_color_table, @function
_GLOBAL__sub_D_g_color_table:
.LFB2883:
	.loc 2 1747 0
	.cfi_startproc
	.loc 2 1747 0
	li 3,0
	b _Z41__static_initialization_and_destruction_0ii.constprop.31
	.cfi_endproc
.LFE2883:
	.size	_GLOBAL__sub_D_g_color_table, .-_GLOBAL__sub_D_g_color_table
	.section	.dtors,"aw",@progbits
	.align 2
	.long	_GLOBAL__sub_D_g_color_table
	.weak	_ZTS9idWinding
	.section	.rodata._ZTS9idWinding,"aG",@progbits,_ZTS9idWinding,comdat
	.align 2
	.type	_ZTS9idWinding, @object
	.size	_ZTS9idWinding, 11
_ZTS9idWinding:
	.string	"9idWinding"
	.weak	_ZTI9idWinding
	.section	.sdata._ZTI9idWinding,"awG",@progbits,_ZTI9idWinding,comdat
	.align 2
	.type	_ZTI9idWinding, @object
	.size	_ZTI9idWinding, 8
_ZTI9idWinding:
	.long	_ZTVN10__cxxabiv117__class_type_infoE+8
	.long	_ZTS9idWinding
	.weak	_ZTS14idFixedWinding
	.section	.rodata._ZTS14idFixedWinding,"aG",@progbits,_ZTS14idFixedWinding,comdat
	.align 2
	.type	_ZTS14idFixedWinding, @object
	.size	_ZTS14idFixedWinding, 17
_ZTS14idFixedWinding:
	.string	"14idFixedWinding"
	.weak	_ZTI14idFixedWinding
	.section	.rodata._ZTI14idFixedWinding,"aG",@progbits,_ZTI14idFixedWinding,comdat
	.align 2
	.type	_ZTI14idFixedWinding, @object
	.size	_ZTI14idFixedWinding, 12
_ZTI14idFixedWinding:
	.long	_ZTVN10__cxxabiv120__si_class_type_infoE+8
	.long	_ZTS14idFixedWinding
	.long	_ZTI9idWinding
	.weak	_ZTV9idWinding
	.section	.rodata._ZTV9idWinding,"aG",@progbits,_ZTV9idWinding,comdat
	.align 3
	.type	_ZTV9idWinding, @object
	.size	_ZTV9idWinding, 24
_ZTV9idWinding:
	.long	0
	.long	_ZTI9idWinding
	.long	_ZN9idWindingD1Ev
	.long	_ZN9idWindingD0Ev
	.long	_ZN9idWinding5ClearEv
	.long	_ZN9idWinding10ReAllocateEib
	.weak	_ZTV14idFixedWinding
	.section	.rodata._ZTV14idFixedWinding,"aG",@progbits,_ZTV14idFixedWinding,comdat
	.align 3
	.type	_ZTV14idFixedWinding, @object
	.size	_ZTV14idFixedWinding, 24
_ZTV14idFixedWinding:
	.long	0
	.long	_ZTI14idFixedWinding
	.long	_ZN14idFixedWindingD1Ev
	.long	_ZN14idFixedWindingD0Ev
	.long	_ZN14idFixedWinding5ClearEv
	.long	_ZN14idFixedWinding10ReAllocateEib
	.globl numFormatList
	.globl formatList
	.globl units
	.globl g_color_table
	.weak	_ZN9idWindingD1Ev
	.set	_ZN9idWindingD1Ev,_ZN9idWindingD2Ev
	.weak	_ZN14idFixedWindingD1Ev
	.set	_ZN14idFixedWindingD1Ev,_ZN14idFixedWindingD2Ev
	.section	.rodata.cst4,"aM",@progbits,4
	.align 2
.LC10:
	.4byte	1065353216
.LC11:
	.4byte	1056964608
.LC14:
	.4byte	1501560836
.LC15:
	.4byte	1149239296
.LC16:
	.4byte	1233125376
.LC17:
	.4byte	1317011456
	.section	".data"
	.align 2
	.set	.LANCHOR1,. + 0
	.type	units, @object
	.size	units, 32
units:
	.long	.LC22
	.long	.LC23
	.long	.LC24
	.long	.LC25
	.long	.LC26
	.long	.LC27
	.long	.LC28
	.long	.LC29
	.type	formatList, @object
	.size	formatList, 24
formatList:
	.long	1000000000
	.long	0
	.long	1000000
	.long	0
	.long	1000
	.long	0
	.section	.rodata.str1.4,"aMS",@progbits,1
	.align 2
.LC0:
	.string	"idStr::Copynz: NULL src"
.LC1:
	.string	"idStr::Copynz: destsize < 1"
.LC2:
	.string	"idStr::Append: already overflowed"
	.zero	2
.LC3:
	.string	"idStr::snPrintf: overflowed buffer"
	.zero	1
.LC4:
	.string	"idStr::snPrintf: overflow of %i in %i\n"
	.zero	1
.LC5:
	.string	"%%.%df"
	.zero	1
.LC6:
	.string	" %%.%df"
.LC7:
	.string	"%6d KB string memory (%d KB free in %d blocks, %d empty base blocks)\n"
	.zero	2
.LC8:
	.string	">>> Alloc size: %d\r\n"
	.zero	3
.LC9:
	.string	">>> ::AllocInternal FAIL FOR ALLOCSIZE %d\r\n"
.LC12:
	.string	"%c"
	.zero	1
.LC18:
	.string	"%i,"
.LC19:
	.string	"%3.3i,"
	.zero	1
.LC20:
	.string	"%3.3i"
	.zero	2
.LC21:
	.string	"%i"
	.zero	1
.LC22:
	.string	"B"
	.zero	2
.LC23:
	.string	"KB"
	.zero	1
.LC24:
	.string	"MB"
	.zero	1
.LC25:
	.string	"GB"
	.zero	1
.LC26:
	.string	"B/s"
.LC27:
	.string	"KB/s"
	.zero	3
.LC28:
	.string	"MB/s"
	.zero	3
.LC29:
	.string	"GB/s"
	.section	.sdata,"aw",@progbits
	.align 2
	.type	numFormatList, @object
	.size	numFormatList, 4
numFormatList:
	.long	3
	.section	".bss"
	.align 2
	.set	.LANCHOR0,. + 0
	.type	g_color_table, @object
	.size	g_color_table, 256
g_color_table:
	.zero	256
	.type	_ZZN5idStr18FloatArrayToStringEPKfiiE5index, @object
	.size	_ZZN5idStr18FloatArrayToStringEPKfiiE5index, 4
_ZZN5idStr18FloatArrayToStringEPKfiiE5index:
	.zero	4
	.type	_ZZN5idStr18FloatArrayToStringEPKfiiE3str, @object
	.size	_ZZN5idStr18FloatArrayToStringEPKfiiE3str, 65536
_ZZN5idStr18FloatArrayToStringEPKfiiE3str:
	.zero	65536
	.type	_ZZ2vaPKczE5index, @object
	.size	_ZZ2vaPKczE5index, 4
_ZZ2vaPKczE5index:
	.zero	4
	.type	_ZZ2vaPKczE6string, @object
	.size	_ZZ2vaPKczE6string, 65536
_ZZ2vaPKczE6string:
	.zero	65536
	.type	_ZL19stringDataAllocator, @object
	.size	_ZL19stringDataAllocator, 68
_ZL19stringDataAllocator:
	.zero	68
	.section	".text"
.Letext0:
	.file 8 "c:\\utils\\devkitpro\\devkitppc\\bin\\../lib/gcc/powerpc-eabi/4.6.3/include/stddef.h"
	.file 9 "c:\\utils\\devkitpro\\devkitppc\\bin\\../lib/gcc/powerpc-eabi/4.6.3/include/stdarg.h"
	.file 10 "<built-in>"
	.file 11 "c:\\utils\\devkitpro\\devkitppc\\bin\\../lib/gcc/powerpc-eabi/4.6.3/../../../../powerpc-eabi/include/sys/types.h"
	.file 12 "d:/Data/Nintendo/DoomGX/src/idlib/../sys/sys_public.h"
	.file 13 "d:/Data/Nintendo/DoomGX/src/idlib/../framework/Common.h"
	.file 14 "d:/Data/Nintendo/DoomGX/src/idlib/../framework/CVarSystem.h"
	.file 15 "d:/Data/Nintendo/DoomGX/src/idlib/../framework/FileSystem.h"
	.file 16 "d:/Data/Nintendo/DoomGX/src/idlib/../idlib/CmdArgs.h"
	.file 17 "d:/Data/Nintendo/DoomGX/src/idlib/../idlib/math/Random.h"
	.file 18 "d:/Data/Nintendo/DoomGX/src/idlib/../idlib/math/Angles.h"
	.file 19 "d:/Data/Nintendo/DoomGX/src/idlib/../idlib/math/Matrix.h"
	.file 20 "d:/Data/Nintendo/DoomGX/src/idlib/../idlib/math/Quat.h"
	.file 21 "d:/Data/Nintendo/DoomGX/src/idlib/../idlib/math/Rotation.h"
	.file 22 "d:/Data/Nintendo/DoomGX/src/idlib/../idlib/math/Plane.h"
	.file 23 "d:/Data/Nintendo/DoomGX/src/idlib/../idlib/containers/List.h"
	.file 24 "d:/Data/Nintendo/DoomGX/src/idlib/../idlib/math/Ode.h"
	.file 25 "d:/Data/Nintendo/DoomGX/src/idlib/../idlib/bv/Sphere.h"
	.file 26 "d:/Data/Nintendo/DoomGX/src/idlib/../idlib/bv/Bounds.h"
	.file 27 "d:/Data/Nintendo/DoomGX/src/idlib/../idlib/bv/Box.h"
	.file 28 "d:/Data/Nintendo/DoomGX/src/idlib/../idlib/bv/Frustum.h"
	.file 29 "d:/Data/Nintendo/DoomGX/src/idlib/../idlib/geometry/DrawVert.h"
	.file 30 "d:/Data/Nintendo/DoomGX/src/idlib/../idlib/geometry/JointTransform.h"
	.file 31 "d:/Data/Nintendo/DoomGX/src/idlib/../idlib/geometry/Surface.h"
	.file 32 "d:/Data/Nintendo/DoomGX/src/idlib/../idlib/geometry/TraceModel.h"
	.file 33 "d:/Data/Nintendo/DoomGX/src/idlib/../idlib/Token.h"
	.file 34 "d:/Data/Nintendo/DoomGX/src/idlib/../idlib/Lexer.h"
	.file 35 "d:/Data/Nintendo/DoomGX/src/idlib/../framework/File.h"
	.file 36 "d:/Data/Nintendo/DoomGX/src/idlib/../idlib/Parser.h"
	.file 37 "d:/Data/Nintendo/DoomGX/src/idlib/../idlib/containers/HashIndex.h"
	.file 38 "d:/Data/Nintendo/DoomGX/src/idlib/../idlib/containers/StrList.h"
	.file 39 "d:/Data/Nintendo/DoomGX/src/idlib/../idlib/containers/StrPool.h"
	.file 40 "d:/Data/Nintendo/DoomGX/src/idlib/../idlib/containers/PlaneSet.h"
	.file 41 "d:/Data/Nintendo/DoomGX/src/idlib/../idlib/Dict.h"
	.file 42 "d:/Data/Nintendo/DoomGX/src/idlib/../idlib/LangDict.h"
	.file 43 "d:/Data/Nintendo/DoomGX/src/idlib/../idlib/BitMsg.h"
	.file 44 "d:/Data/Nintendo/DoomGX/src/idlib/../idlib/MapFile.h"
	.file 45 "d:/Data/Nintendo/DoomGX/src/idlib/../framework/CmdSystem.h"
	.file 46 "d:/Data/Nintendo/DoomGX/src/idlib/../framework/UsercmdGen.h"
	.file 47 "d:/Data/Nintendo/DoomGX/src/idlib/../framework/DeclManager.h"
	.file 48 "d:/Data/Nintendo/DoomGX/src/idlib/../framework/DeclParticle.h"
	.file 49 "d:/Data/Nintendo/DoomGX/src/idlib/../renderer/RenderWorld.h"
	.file 50 "d:/Data/Nintendo/DoomGX/src/idlib/../renderer/Cinematic.h"
	.file 51 "d:/Data/Nintendo/DoomGX/src/idlib/../renderer/Model.h"
	.file 52 "d:/Data/Nintendo/DoomGX/src/idlib/../renderer/RenderSystem.h"
	.file 53 "d:/Data/Nintendo/DoomGX/src/idlib/../sound/sound.h"
	.file 54 "d:/Data/Nintendo/DoomGX/src/idlib/../ui/UserInterface.h"
	.file 55 "d:/Data/Nintendo/DoomGX/src/idlib/../cm/CollisionModel.h"
	.file 56 "d:/Data/Nintendo/DoomGX/src/idlib/../tools/compilers/aas/AASFile.h"
	.file 57 "d:/Data/Nintendo/DoomGX/src/idlib/../game/Game.h"
	.file 58 "d:/Data/Nintendo/DoomGX/src/idlib/../framework/async/NetworkSystem.h"
	.file 59 "d:/Data/Nintendo/DoomGX/src/idlib/../renderer/ModelManager.h"
	.file 60 "d:/Data/Nintendo/DoomGX/src/idlib/../tools/compilers/aas/AASFileManager.h"
	.file 61 "d:/Data/Nintendo/DoomGX/src/idlib/../framework/Session.h"
	.file 62 "d:/Data/Nintendo/DoomGX/src/idlib/../ui/ListGUI.h"
	.file 63 "d:/Data/Nintendo/DoomGX/src/idlib/../framework/Console.h"
	.file 64 "d:/Data/Nintendo/DoomGX/src/idlib/../idlib/math/Curve.h"
	.file 65 "d:/Data/Nintendo/DoomGX/src/idlib/../idlib/math/Simd.h"
	.file 66 "d:/Data/Nintendo/DoomGX/src/idlib/../framework/BuildVersion.h"
	.file 67 "d:/Data/Nintendo/DoomGX/src/idlib/precompiled.h"
	.file 68 "d:/Data/Nintendo/DoomGX/src/idlib/../renderer/Material.h"
	.file 69 "d:/Data/Nintendo/DoomGX/src/idlib/../framework/EventLoop.h"
	.file 70 "d:/Data/Nintendo/DoomGX/src/idlib/../framework/EditField.h"
	.file 71 "d:/Data/Nintendo/DoomGX/src/idlib/../framework/async/AsyncNetwork.h"
	.file 72 "d:/Data/Nintendo/DoomGX/src/idlib/../framework/async/AsyncServer.h"