	.file	"Surface_SweptSpline.cpp"
	.section	".text"
.Ltext0:
	.section	.text._ZN14idFixedWinding5ClearEv,"axG",@progbits,_ZN14idFixedWinding5ClearEv,comdat
	.align 2
	.weak	_ZN14idFixedWinding5ClearEv
	.type	_ZN14idFixedWinding5ClearEv, @function
_ZN14idFixedWinding5ClearEv:
.LFB1502:
	.file 1 "d:/Data/Nintendo/DoomGX/src/idlib/geometry/../../idlib/geometry/Winding.h"
	.loc 1 398 0
	.cfi_startproc
.LVL0:
	.loc 1 399 0
	li 0,0
	.loc 1 400 0
	.loc 1 399 0
	stw 0,4(3)
	.loc 1 400 0
	blr
	.cfi_endproc
.LFE1502:
	.size	_ZN14idFixedWinding5ClearEv, .-_ZN14idFixedWinding5ClearEv
	.section	.text._ZN14idCurve_SplineI6idVec4E15SetBoundaryTypeENS1_10boundary_tE,"axG",@progbits,_ZN14idCurve_SplineI6idVec4E15SetBoundaryTypeENS1_10boundary_tE,comdat
	.align 2
	.weak	_ZN14idCurve_SplineI6idVec4E15SetBoundaryTypeENS1_10boundary_tE
	.type	_ZN14idCurve_SplineI6idVec4E15SetBoundaryTypeENS1_10boundary_tE, @function
_ZN14idCurve_SplineI6idVec4E15SetBoundaryTypeENS1_10boundary_tE:
.LFB2726:
	.file 2 "d:/Data/Nintendo/DoomGX/src/idlib/geometry/../../idlib/math/Curve.h"
	.loc 2 939 0
	.cfi_startproc
.LVL1:
	.loc 2 939 0
	li 0,1
	stw 4,44(3)
	stb 0,40(3)
	blr
	.cfi_endproc
.LFE2726:
	.size	_ZN14idCurve_SplineI6idVec4E15SetBoundaryTypeENS1_10boundary_tE, .-_ZN14idCurve_SplineI6idVec4E15SetBoundaryTypeENS1_10boundary_tE
	.section	.text._ZN14idCurve_SplineI6idVec4E12SetCloseTimeEf,"axG",@progbits,_ZN14idCurve_SplineI6idVec4E12SetCloseTimeEf,comdat
	.align 2
	.weak	_ZN14idCurve_SplineI6idVec4E12SetCloseTimeEf
	.type	_ZN14idCurve_SplineI6idVec4E12SetCloseTimeEf, @function
_ZN14idCurve_SplineI6idVec4E12SetCloseTimeEf:
.LFB2727:
	.loc 2 942 0
	.cfi_startproc
.LVL2:
	.loc 2 942 0
	li 0,1
	stfs 1,48(3)
	stb 0,40(3)
	blr
	.cfi_endproc
.LFE2727:
	.size	_ZN14idCurve_SplineI6idVec4E12SetCloseTimeEf, .-_ZN14idCurve_SplineI6idVec4E12SetCloseTimeEf
	.section	.text._ZN14idCurve_SplineI6idVec4E12GetCloseTimeEv,"axG",@progbits,_ZN14idCurve_SplineI6idVec4E12GetCloseTimeEv,comdat
	.align 2
	.weak	_ZN14idCurve_SplineI6idVec4E12GetCloseTimeEv
	.type	_ZN14idCurve_SplineI6idVec4E12GetCloseTimeEv, @function
_ZN14idCurve_SplineI6idVec4E12GetCloseTimeEv:
.LFB2730:
	.loc 2 943 0
	.cfi_startproc
.LVL3:
	.loc 2 943 0
	lwz 0,44(3)
	lis 9,.LC0@ha
	lfs 1,.LC0@l(9)
	cmpwi 7,0,2
	bnelr+ 7
	.loc 2 943 0 is_stmt 0 discriminator 1
	lfs 1,48(3)
	blr
	.cfi_endproc
.LFE2730:
	.size	_ZN14idCurve_SplineI6idVec4E12GetCloseTimeEv, .-_ZN14idCurve_SplineI6idVec4E12GetCloseTimeEv
	.section	.text._ZNK14idCurve_SplineI6idVec4E15GetBoundaryTypeEv,"axG",@progbits,_ZNK14idCurve_SplineI6idVec4E15GetBoundaryTypeEv,comdat
	.align 2
	.weak	_ZNK14idCurve_SplineI6idVec4E15GetBoundaryTypeEv
	.type	_ZNK14idCurve_SplineI6idVec4E15GetBoundaryTypeEv, @function
_ZNK14idCurve_SplineI6idVec4E15GetBoundaryTypeEv:
.LFB2731:
	.loc 2 940 0 is_stmt 1
	.cfi_startproc
.LVL4:
	.loc 2 940 0
	lwz 3,44(3)
.LVL5:
	blr
	.cfi_endproc
.LFE2731:
	.size	_ZNK14idCurve_SplineI6idVec4E15GetBoundaryTypeEv, .-_ZNK14idCurve_SplineI6idVec4E15GetBoundaryTypeEv
	.section	.text._ZNK7idCurveI6idVec4E25GetCurrentFirstDerivativeEf,"axG",@progbits,_ZNK7idCurveI6idVec4E25GetCurrentFirstDerivativeEf,comdat
	.align 2
	.weak	_ZNK7idCurveI6idVec4E25GetCurrentFirstDerivativeEf
	.type	_ZNK7idCurveI6idVec4E25GetCurrentFirstDerivativeEf, @function
_ZNK7idCurveI6idVec4E25GetCurrentFirstDerivativeEf:
.LFB2733:
	.loc 2 153 0
	.cfi_startproc
.LVL6:
	.file 3 "d:/Data/Nintendo/DoomGX/src/idlib/geometry/Surface_SweptSpline.cpp"
	.loc 3 223 0
	lwz 11,32(4)
.LVL7:
.LBB1310:
.LBB1311:
	.file 4 "d:/Data/Nintendo/DoomGX/src/idlib/geometry/../../idlib/math/Vector.h"
	.loc 4 897 0
	lfs 11,0(11)
	lfs 12,4(11)
	lfs 13,8(11)
	fsubs 11,11,11
	lfs 0,12(11)
.LVL8:
	fsubs 12,12,12
	fsubs 13,13,13
.LBE1311:
.LBE1310:
	.loc 2 155 0
.LBB1315:
.LBB1314:
	.loc 4 897 0
	fsubs 0,0,0
.LBB1312:
.LBB1313:
	.loc 4 867 0
	stfs 11,0(3)
	.loc 4 868 0
	stfs 12,4(3)
	.loc 4 869 0
	stfs 13,8(3)
	.loc 4 870 0
	stfs 0,12(3)
.LBE1313:
.LBE1312:
.LBE1314:
.LBE1315:
	.loc 2 155 0
	blr
	.cfi_endproc
.LFE2733:
	.size	_ZNK7idCurveI6idVec4E25GetCurrentFirstDerivativeEf, .-_ZNK7idCurveI6idVec4E25GetCurrentFirstDerivativeEf
	.section	.text._ZNK14idCurve_SplineI6idVec4E6IsDoneEf,"axG",@progbits,_ZNK14idCurve_SplineI6idVec4E6IsDoneEf,comdat
	.align 2
	.weak	_ZNK14idCurve_SplineI6idVec4E6IsDoneEf
	.type	_ZNK14idCurve_SplineI6idVec4E6IsDoneEf, @function
_ZNK14idCurve_SplineI6idVec4E6IsDoneEf:
.LFB2807:
	.loc 2 1051 0
	.cfi_startproc
.LVL9:
	.loc 2 1052 0
	lwz 0,44(3)
	.loc 2 1051 0
	mr 9,3
	.loc 2 1052 0
	li 3,0
.LVL10:
	cmpwi 7,0,2
	beqlr- 7
.LVL11:
.LBB1316:
.LBB1317:
	.file 5 "d:/Data/Nintendo/DoomGX/src/idlib/geometry/../../idlib/containers/List.h"
	.loc 5 573 0 discriminator 1
	lwz 11,4(9)
.LBE1317:
.LBE1316:
	.loc 2 1052 0 discriminator 1
	lwz 9,16(9)
.LVL12:
.LBB1319:
.LBB1318:
	.loc 5 573 0 discriminator 1
	addi 0,11,-1
.LBE1318:
.LBE1319:
	.loc 2 1052 0 discriminator 1
	slwi 0,0,2
	lfsx 0,9,0
	fcmpu 7,0,1
	cror 30,28,30
	mfcr 3
	rlwinm 3,3,31,1
	.loc 2 1053 0 discriminator 1
	blr
	.cfi_endproc
.LFE2807:
	.size	_ZNK14idCurve_SplineI6idVec4E6IsDoneEf, .-_ZNK14idCurve_SplineI6idVec4E6IsDoneEf
	.section	.text._ZNK15idCurve_BSplineI6idVec4E8GetOrderEv,"axG",@progbits,_ZNK15idCurve_BSplineI6idVec4E8GetOrderEv,comdat
	.align 2
	.weak	_ZNK15idCurve_BSplineI6idVec4E8GetOrderEv
	.type	_ZNK15idCurve_BSplineI6idVec4E8GetOrderEv, @function
_ZNK15idCurve_BSplineI6idVec4E8GetOrderEv:
.LFB2808:
	.loc 2 1803 0
	.cfi_startproc
.LVL13:
	.loc 2 1803 0
	lwz 3,52(3)
.LVL14:
	blr
	.cfi_endproc
.LFE2808:
	.size	_ZNK15idCurve_BSplineI6idVec4E8GetOrderEv, .-_ZNK15idCurve_BSplineI6idVec4E8GetOrderEv
	.section	.text._ZN15idCurve_BSplineI6idVec4E8SetOrderEi,"axG",@progbits,_ZN15idCurve_BSplineI6idVec4E8SetOrderEi,comdat
	.align 2
	.weak	_ZN15idCurve_BSplineI6idVec4E8SetOrderEi
	.type	_ZN15idCurve_BSplineI6idVec4E8SetOrderEi, @function
_ZN15idCurve_BSplineI6idVec4E8SetOrderEi:
.LFB2809:
	.loc 2 1804 0
	.cfi_startproc
.LVL15:
	.loc 2 1804 0
	stw 4,52(3)
	blr
	.cfi_endproc
.LFE2809:
	.size	_ZN15idCurve_BSplineI6idVec4E8SetOrderEi, .-_ZN15idCurve_BSplineI6idVec4E8SetOrderEi
	.section	.text._ZN7idCurveI6idVec4E11RemoveIndexEi,"axG",@progbits,_ZN7idCurveI6idVec4E11RemoveIndexEi,comdat
	.align 2
	.weak	_ZN7idCurveI6idVec4E11RemoveIndexEi
	.type	_ZN7idCurveI6idVec4E11RemoveIndexEi, @function
_ZN7idCurveI6idVec4E11RemoveIndexEi:
.LFB2812:
	.loc 2 47 0
	.cfi_startproc
.LVL16:
.LBB1320:
.LBB1321:
	.loc 5 864 0
	cmpwi 0,4,0
.LVL17:
	blt- 0,.L16
	lwz 9,20(3)
	cmpw 7,4,9
	bge- 7,.L17
.LVL18:
.LBE1321:
.LBB1322:
.LBB1323:
	.loc 5 868 0
	addi 9,9,-1
	.loc 5 869 0
	cmpw 7,4,9
	.loc 5 868 0
	stw 9,20(3)
.LVL19:
	.loc 5 869 0
	bge- 7,.L17
	slwi 8,4,4
.LBE1323:
.LBE1322:
.LBE1320:
	.loc 2 47 0
	mr 10,4
.LVL20:
.L18:
.LBB1326:
.LBB1325:
.LBB1324:
	.loc 5 870 0
	lwz 9,32(3)
	.loc 5 869 0
	addi 10,10,1
.LVL21:
	.loc 5 870 0
	add 11,9,8
	.loc 2 47 0
	addi 8,8,16
	.loc 5 870 0
	lwzux 5,9,8
	lwz 0,12(9)
	lwz 6,4(9)
	lwz 7,8(9)
	stw 5,0(11)
	stw 6,4(11)
	stw 7,8(11)
	stw 0,12(11)
	.loc 5 869 0
	lwz 0,20(3)
	cmpw 7,10,0
	blt+ 7,.L18
.LVL22:
.L17:
.LBE1324:
.LBE1325:
.LBE1326:
.LBB1327:
.LBB1328:
	.loc 5 864 0
	lwz 9,4(3)
	cmpw 7,4,9
	bge- 7,.L16
.LVL23:
.LBE1328:
.LBB1329:
.LBB1330:
	.loc 5 868 0
	addi 9,9,-1
	.loc 5 869 0
	cmpw 7,4,9
	.loc 5 868 0
	stw 9,4(3)
.LVL24:
	.loc 5 869 0
	bge- 7,.L16
	slwi 9,4,2
.LVL25:
.L19:
	.loc 5 870 0
	lwz 11,16(3)
	.loc 5 869 0
	addi 4,4,1
.LVL26:
	.loc 5 870 0
	add 10,11,9
	.loc 2 47 0
	addi 9,9,4
	.loc 5 870 0
	lwzx 0,11,9
	stw 0,0(10)
	.loc 5 869 0
	lwz 0,4(3)
	cmpw 7,4,0
	blt+ 7,.L19
.LVL27:
.L16:
.LBE1330:
.LBE1329:
.LBE1327:
	.loc 2 47 0
	li 0,1
	stb 0,40(3)
	blr
	.cfi_endproc
.LFE2812:
	.size	_ZN7idCurveI6idVec4E11RemoveIndexEi, .-_ZN7idCurveI6idVec4E11RemoveIndexEi
	.section	.text._ZNK7idCurveI6idVec4E26GetCurrentSecondDerivativeEf,"axG",@progbits,_ZNK7idCurveI6idVec4E26GetCurrentSecondDerivativeEf,comdat
	.align 2
	.weak	_ZNK7idCurveI6idVec4E26GetCurrentSecondDerivativeEf
	.type	_ZNK7idCurveI6idVec4E26GetCurrentSecondDerivativeEf, @function
_ZNK7idCurveI6idVec4E26GetCurrentSecondDerivativeEf:
.LFB2820:
	.loc 2 165 0
	.cfi_startproc
.LVL28:
	.loc 3 223 0
	lwz 11,32(4)
.LVL29:
.LBB1331:
.LBB1332:
	.loc 4 897 0
	lfs 11,0(11)
	lfs 12,4(11)
	lfs 13,8(11)
	fsubs 11,11,11
	lfs 0,12(11)
.LVL30:
	fsubs 12,12,12
	fsubs 13,13,13
.LBE1332:
.LBE1331:
	.loc 2 167 0
.LBB1336:
.LBB1335:
	.loc 4 897 0
	fsubs 0,0,0
.LBB1333:
.LBB1334:
	.loc 4 867 0
	stfs 11,0(3)
	.loc 4 868 0
	stfs 12,4(3)
	.loc 4 869 0
	stfs 13,8(3)
	.loc 4 870 0
	stfs 0,12(3)
.LBE1334:
.LBE1333:
.LBE1335:
.LBE1336:
	.loc 2 167 0
	blr
	.cfi_endproc
.LFE2820:
	.size	_ZNK7idCurveI6idVec4E26GetCurrentSecondDerivativeEf, .-_ZNK7idCurveI6idVec4E26GetCurrentSecondDerivativeEf
	.section	.text._ZNK7idCurveI6idVec4E6IsDoneEf,"axG",@progbits,_ZNK7idCurveI6idVec4E6IsDoneEf,comdat
	.align 2
	.weak	_ZNK7idCurveI6idVec4E6IsDoneEf
	.type	_ZNK7idCurveI6idVec4E6IsDoneEf, @function
_ZNK7idCurveI6idVec4E6IsDoneEf:
.LFB2821:
	.loc 2 175 0
	.cfi_startproc
.LVL31:
.LBB1337:
.LBB1338:
	.loc 5 573 0
	lwz 11,4(3)
.LBE1338:
.LBE1337:
	.loc 2 176 0
	lwz 9,16(3)
.LBB1340:
.LBB1339:
	.loc 5 573 0
	addi 0,11,-1
.LBE1339:
.LBE1340:
	.loc 2 176 0
	slwi 0,0,2
	lfsx 0,9,0
	.loc 2 177 0
	.loc 2 176 0
	fcmpu 7,0,1
	cror 30,28,30
	.loc 2 177 0
	mfcr 3
	rlwinm 3,3,31,1
.LVL32:
	blr
	.cfi_endproc
.LFE2821:
	.size	_ZNK7idCurveI6idVec4E6IsDoneEf, .-_ZNK7idCurveI6idVec4E6IsDoneEf
	.section	.text._ZN9idWinding5ClearEv,"axG",@progbits,_ZN9idWinding5ClearEv,comdat
	.align 2
	.weak	_ZN9idWinding5ClearEv
	.type	_ZN9idWinding5ClearEv, @function
_ZN9idWinding5ClearEv:
.LFB1473:
	.loc 1 249 0
	.cfi_startproc
.LVL33:
	mflr 0
	stwu 1,-16(1)
.LCFI0:
	.cfi_def_cfa_offset 16
	.cfi_register 65, 0
	stw 31,12(1)
	mr 31,3
	.cfi_offset 31, -4
	stw 0,20(1)
	.loc 1 250 0
	li 0,0
	.cfi_offset 65, 4
	.loc 1 251 0
	lwz 3,8(3)
.LVL34:
	.loc 1 250 0
	stw 0,4(31)
	.loc 1 251 0
	cmpwi 7,3,0
	beq- 7,.L27
	.loc 1 251 0 is_stmt 0 discriminator 1
	bl _ZdaPv
.L27:
	.loc 1 252 0 is_stmt 1
	li 0,0
	stw 0,8(31)
	.loc 1 253 0
	lwz 0,20(1)
	lwz 31,12(1)
.LVL35:
	mtlr 0
	addi 1,1,16
.LCFI1:
	.cfi_def_cfa_offset 0
	.cfi_restore 31
	blr
	.cfi_endproc
.LFE1473:
	.size	_ZN9idWinding5ClearEv, .-_ZN9idWinding5ClearEv
	.section	.text._ZN9idWindingD2Ev,"axG",@progbits,_ZN9idWindingD5Ev,comdat
	.align 2
	.weak	_ZN9idWindingD2Ev
	.type	_ZN9idWindingD2Ev, @function
_ZN9idWindingD2Ev:
.LFB1461:
	.loc 1 183 0
	.cfi_startproc
.LVL36:
	mflr 0
	stwu 1,-16(1)
.LCFI2:
	.cfi_def_cfa_offset 16
	.cfi_register 65, 0
.LBB1342:
	lis 9,_ZTV9idWinding+8@ha
.LBE1342:
	stw 31,12(1)
	mr 31,3
	.cfi_offset 31, -4
	stw 0,20(1)
.LBB1343:
	.loc 1 183 0
	la 0,_ZTV9idWinding+8@l(9)
	.cfi_offset 65, 4
	.loc 1 184 0
	lwz 3,8(3)
.LVL37:
	.loc 1 183 0
	stw 0,0(31)
	.loc 1 184 0
	cmpwi 7,3,0
	beq- 7,.L29
	.loc 1 184 0 is_stmt 0 discriminator 1
	bl _ZdaPv
.L29:
	.loc 1 185 0 is_stmt 1
	li 0,0
	stw 0,8(31)
.LBE1343:
	.loc 1 186 0
	lwz 0,20(1)
	lwz 31,12(1)
.LVL38:
	mtlr 0
	addi 1,1,16
.LCFI3:
	.cfi_def_cfa_offset 0
	.cfi_restore 31
	blr
	.cfi_endproc
.LFE1461:
	.size	_ZN9idWindingD2Ev, .-_ZN9idWindingD2Ev
	.section	.text._ZN13idCurve_NURBSI6idVec4E11RemoveIndexEi,"axG",@progbits,_ZN13idCurve_NURBSI6idVec4E11RemoveIndexEi,comdat
	.align 2
	.weak	_ZN13idCurve_NURBSI6idVec4E11RemoveIndexEi
	.type	_ZN13idCurve_NURBSI6idVec4E11RemoveIndexEi, @function
_ZN13idCurve_NURBSI6idVec4E11RemoveIndexEi:
.LFB2803:
	.loc 2 2337 0
	.cfi_startproc
.LVL39:
.LBB1368:
.LBB1369:
	.loc 5 864 0
	cmpwi 0,4,0
.LVL40:
	bltlr- 0
	lwz 9,20(3)
	cmpw 7,4,9
	bge- 7,.L33
.LVL41:
.LBE1369:
.LBB1370:
.LBB1371:
	.loc 5 868 0
	addi 9,9,-1
	.loc 5 869 0
	cmpw 7,4,9
	.loc 5 868 0
	stw 9,20(3)
.LVL42:
	.loc 5 869 0
	bge- 7,.L33
	slwi 8,4,4
.LBE1371:
.LBE1370:
.LBE1368:
	.loc 2 2337 0
	mr 10,4
.LVL43:
.L34:
.LBB1374:
.LBB1373:
.LBB1372:
	.loc 5 870 0
	lwz 9,32(3)
	.loc 5 869 0
	addi 10,10,1
.LVL44:
	.loc 5 870 0
	add 11,9,8
	.loc 2 2337 0
	addi 8,8,16
	.loc 5 870 0
	lwzux 5,9,8
	lwz 0,12(9)
	lwz 6,4(9)
	lwz 7,8(9)
	stw 5,0(11)
	stw 6,4(11)
	stw 7,8(11)
	stw 0,12(11)
	.loc 5 869 0
	lwz 0,20(3)
	cmpw 7,10,0
	blt+ 7,.L34
.LVL45:
.L33:
.LBE1372:
.LBE1373:
.LBE1374:
.LBB1375:
.LBB1376:
	.loc 5 864 0
	lwz 9,4(3)
	cmpw 7,4,9
	bge- 7,.L35
.LVL46:
.LBE1376:
.LBB1377:
.LBB1378:
	.loc 5 868 0
	addi 9,9,-1
	.loc 5 869 0
	cmpw 7,4,9
	.loc 5 868 0
	stw 9,4(3)
.LVL47:
	.loc 5 869 0
	bge- 7,.L35
	slwi 9,4,2
.LBE1378:
.LBE1377:
.LBE1375:
	.loc 2 2337 0
	mr 11,4
.LVL48:
.L36:
.LBB1381:
.LBB1380:
.LBB1379:
	.loc 5 870 0
	lwz 10,16(3)
	.loc 5 869 0
	addi 11,11,1
.LVL49:
	.loc 5 870 0
	add 8,10,9
	.loc 2 2337 0
	addi 9,9,4
	.loc 5 870 0
	lwzx 0,10,9
	stw 0,0(8)
	.loc 5 869 0
	lwz 0,4(3)
	cmpw 7,11,0
	blt+ 7,.L36
.LVL50:
.L35:
.LBE1379:
.LBE1380:
.LBE1381:
.LBB1382:
.LBB1383:
	.loc 5 864 0
	lwz 9,56(3)
	cmpw 7,4,9
	bgelr- 7
.LVL51:
.LBE1383:
.LBE1382:
.LBB1384:
.LBB1385:
.LBB1386:
.LBB1387:
	.loc 5 868 0
	addi 9,9,-1
	.loc 5 869 0
	cmpw 7,4,9
	.loc 5 868 0
	stw 9,56(3)
.LVL52:
	.loc 5 869 0
	bgelr- 7
	slwi 9,4,2
.LVL53:
.L37:
	.loc 5 870 0
	lwz 11,68(3)
	.loc 5 869 0
	addi 4,4,1
.LVL54:
	.loc 5 870 0
	add 10,11,9
	.loc 2 2337 0
	addi 9,9,4
	.loc 5 870 0
	lwzx 0,11,9
	stw 0,0(10)
	.loc 5 869 0
	lwz 0,56(3)
	cmpw 7,4,0
	blt+ 7,.L37
	blr
.LBE1387:
.LBE1386:
.LBE1385:
.LBE1384:
	.cfi_endproc
.LFE2803:
	.size	_ZN13idCurve_NURBSI6idVec4E11RemoveIndexEi, .-_ZN13idCurve_NURBSI6idVec4E11RemoveIndexEi
	.section	.text._ZN14idFixedWindingD0Ev,"axG",@progbits,_ZN14idFixedWindingD5Ev,comdat
	.align 2
	.weak	_ZN14idFixedWindingD0Ev
	.type	_ZN14idFixedWindingD0Ev, @function
_ZN14idFixedWindingD0Ev:
.LFB1500:
	.loc 1 380 0
	.cfi_startproc
.LVL55:
	mflr 0
	stwu 1,-8(1)
.LCFI4:
	.cfi_def_cfa_offset 8
	.cfi_register 65, 0
.LBB1394:
.LBB1395:
.LBB1396:
.LBB1397:
.LBB1398:
.LBB1399:
	.loc 1 183 0
	lis 11,_ZTV9idWinding+8@ha
.LBE1399:
.LBE1398:
.LBE1397:
.LBE1396:
.LBE1395:
.LBE1394:
	.loc 1 380 0
	stw 0,12(1)
.LBB1405:
.LBB1404:
.LBB1403:
	.loc 1 381 0
	li 0,0
	.cfi_offset 65, 4
	stw 0,8(3)
.LVL56:
.LBB1402:
.LBB1401:
.LBB1400:
	.loc 1 183 0
	la 0,_ZTV9idWinding+8@l(11)
	stw 0,0(3)
.LBE1400:
.LBE1401:
.LBE1402:
.LBE1403:
.LBE1404:
.LBE1405:
	.loc 1 382 0
	bl _ZdlPv
.LVL57:
	lwz 0,12(1)
	addi 1,1,8
.LCFI5:
	.cfi_def_cfa_offset 0
	mtlr 0
	blr
	.cfi_endproc
.LFE1500:
	.size	_ZN14idFixedWindingD0Ev, .-_ZN14idFixedWindingD0Ev
	.section	.text._ZN14idFixedWindingD2Ev,"axG",@progbits,_ZN14idFixedWindingD5Ev,comdat
	.align 2
	.weak	_ZN14idFixedWindingD2Ev
	.type	_ZN14idFixedWindingD2Ev, @function
_ZN14idFixedWindingD2Ev:
.LFB1498:
	.loc 1 380 0
	.cfi_startproc
.LVL58:
.LBB1410:
	.loc 1 381 0
	li 0,0
.LBB1411:
.LBB1412:
.LBB1413:
	.loc 1 183 0
	lis 9,_ZTV9idWinding+8@ha
.LBE1413:
.LBE1412:
.LBE1411:
	.loc 1 381 0
	stw 0,8(3)
.LVL59:
.LBB1416:
.LBB1415:
.LBB1414:
	.loc 1 183 0
	la 0,_ZTV9idWinding+8@l(9)
	stw 0,0(3)
.LBE1414:
.LBE1415:
.LBE1416:
.LBE1410:
	.loc 1 382 0
	blr
	.cfi_endproc
.LFE1498:
	.size	_ZN14idFixedWindingD2Ev, .-_ZN14idFixedWindingD2Ev
	.section	.text._ZN9idWindingD0Ev,"axG",@progbits,_ZN9idWindingD5Ev,comdat
	.align 2
	.weak	_ZN9idWindingD0Ev
	.type	_ZN9idWindingD0Ev, @function
_ZN9idWindingD0Ev:
.LFB1463:
	.loc 1 183 0
	.cfi_startproc
.LVL60:
	mflr 0
	stwu 1,-16(1)
.LCFI6:
	.cfi_def_cfa_offset 16
	.cfi_register 65, 0
.LBB1420:
.LBB1421:
.LBB1422:
	lis 9,_ZTV9idWinding+8@ha
.LBE1422:
.LBE1421:
.LBE1420:
	stw 31,12(1)
	mr 31,3
	.cfi_offset 31, -4
.LVL61:
	stw 0,20(1)
.LBB1427:
.LBB1425:
.LBB1423:
	.loc 1 183 0
	la 0,_ZTV9idWinding+8@l(9)
	.cfi_offset 65, 4
	.loc 1 184 0
	lwz 3,8(3)
.LVL62:
	.loc 1 183 0
	stw 0,0(31)
	.loc 1 184 0
	cmpwi 7,3,0
	beq- 7,.L52
	bl _ZdaPv
.L52:
	.loc 1 185 0
	li 0,0
.LBE1423:
.LBE1425:
.LBE1427:
	.loc 1 186 0
	mr 3,31
.LBB1428:
.LBB1426:
.LBB1424:
	.loc 1 185 0
	stw 0,8(31)
.LBE1424:
.LBE1426:
.LBE1428:
	.loc 1 186 0
	bl _ZdlPv
	lwz 0,20(1)
	lwz 31,12(1)
.LVL63:
	mtlr 0
	addi 1,1,16
.LCFI7:
	.cfi_def_cfa_offset 0
	.cfi_restore 31
	blr
	.cfi_endproc
.LFE1463:
	.size	_ZN9idWindingD0Ev, .-_ZN9idWindingD0Ev
	.section	.text._ZN7idCurveI6idVec4E5ClearEv,"axG",@progbits,_ZN7idCurveI6idVec4E5ClearEv,comdat
	.align 2
	.weak	_ZN7idCurveI6idVec4E5ClearEv
	.type	_ZN7idCurveI6idVec4E5ClearEv, @function
_ZN7idCurveI6idVec4E5ClearEv:
.LFB2813:
	.loc 2 48 0
	.cfi_startproc
.LVL64:
	mflr 0
	stwu 1,-16(1)
.LCFI8:
	.cfi_def_cfa_offset 16
	.cfi_register 65, 0
	stw 31,12(1)
	mr 31,3
	.cfi_offset 31, -4
.LVL65:
	stw 0,20(1)
.LBB1433:
.LBB1434:
	.loc 5 193 0
	lwz 3,32(3)
.LVL66:
	cmpwi 7,3,0
	beq- 7,.L56
	.cfi_offset 65, 4
	.loc 5 194 0
	bl _ZdaPv
.L56:
.LBE1434:
.LBE1433:
.LBB1437:
.LBB1438:
	.loc 5 193 0
	lwz 3,16(31)
.LBE1438:
.LBE1437:
.LBB1441:
.LBB1435:
	.loc 5 197 0
	li 0,0
	stw 0,32(31)
.LBE1435:
.LBE1441:
.LBB1442:
.LBB1439:
	.loc 5 193 0
	cmpwi 7,3,0
.LBE1439:
.LBE1442:
.LBB1443:
.LBB1436:
	.loc 5 198 0
	stw 0,20(31)
	.loc 5 199 0
	stw 0,24(31)
.LVL67:
.LBE1436:
.LBE1443:
.LBB1444:
.LBB1440:
	.loc 5 193 0
	beq- 7,.L57
	.loc 5 194 0
	bl _ZdaPv
.L57:
	.loc 5 197 0
	li 0,0
	stw 0,16(31)
	.loc 5 198 0
	stw 0,4(31)
	.loc 5 199 0
	stw 0,8(31)
.LBE1440:
.LBE1444:
	.loc 2 48 0
	li 0,-1
	stw 0,36(31)
	li 0,1
	stb 0,40(31)
	lwz 0,20(1)
	lwz 31,12(1)
.LVL68:
	mtlr 0
	addi 1,1,16
.LCFI9:
	.cfi_def_cfa_offset 0
	.cfi_restore 31
	blr
	.cfi_endproc
.LFE2813:
	.size	_ZN7idCurveI6idVec4E5ClearEv, .-_ZN7idCurveI6idVec4E5ClearEv
	.section	.text._ZN7idCurveI6idVec4ED2Ev,"axG",@progbits,_ZN7idCurveI6idVec4ED5Ev,comdat
	.align 2
	.weak	_ZN7idCurveI6idVec4ED2Ev
	.type	_ZN7idCurveI6idVec4ED2Ev, @function
_ZN7idCurveI6idVec4ED2Ev:
.LFB2589:
	.loc 2 104 0
	.cfi_startproc
.LVL69:
	mflr 0
	stwu 1,-16(1)
.LCFI10:
	.cfi_def_cfa_offset 16
	.cfi_register 65, 0
.LBB1463:
	.loc 2 105 0
	lis 9,_ZTV7idCurveI6idVec4E+8@ha
.LBE1463:
	.loc 2 104 0
	stw 31,12(1)
	mr 31,3
	.cfi_offset 31, -4
	stw 0,20(1)
.LBB1492:
	.loc 2 105 0
	la 0,_ZTV7idCurveI6idVec4E+8@l(9)
	.cfi_offset 65, 4
.LBB1464:
.LBB1465:
.LBB1466:
.LBB1467:
	.loc 5 193 0
	lwz 3,32(3)
.LVL70:
.LBE1467:
.LBE1466:
.LBE1465:
.LBE1464:
	.loc 2 105 0
	stw 0,0(31)
.LVL71:
.LBB1477:
.LBB1474:
.LBB1471:
.LBB1468:
	.loc 5 193 0
	cmpwi 7,3,0
	beq- 7,.L59
	.loc 5 194 0
	bl _ZdaPv
.L59:
.LBE1468:
.LBE1471:
.LBE1474:
.LBE1477:
.LBB1478:
.LBB1479:
.LBB1480:
.LBB1481:
	.loc 5 193 0
	lwz 3,16(31)
.LBE1481:
.LBE1480:
.LBE1479:
.LBE1478:
.LBB1488:
.LBB1475:
.LBB1472:
.LBB1469:
	.loc 5 197 0
	li 0,0
	stw 0,32(31)
.LBE1469:
.LBE1472:
.LBE1475:
.LBE1488:
.LBB1489:
.LBB1486:
.LBB1484:
.LBB1482:
	.loc 5 193 0
	cmpwi 7,3,0
.LBE1482:
.LBE1484:
.LBE1486:
.LBE1489:
.LBB1490:
.LBB1476:
.LBB1473:
.LBB1470:
	.loc 5 198 0
	stw 0,20(31)
	.loc 5 199 0
	stw 0,24(31)
.LVL72:
.LBE1470:
.LBE1473:
.LBE1476:
.LBE1490:
.LBB1491:
.LBB1487:
.LBB1485:
.LBB1483:
	.loc 5 193 0
	beq- 7,.L61
	.loc 5 194 0
	bl _ZdaPv
.L61:
	.loc 5 197 0
	li 0,0
	stw 0,16(31)
	.loc 5 198 0
	stw 0,4(31)
	.loc 5 199 0
	stw 0,8(31)
.LBE1483:
.LBE1485:
.LBE1487:
.LBE1491:
.LBE1492:
	.loc 2 105 0
	lwz 0,20(1)
	lwz 31,12(1)
.LVL73:
	mtlr 0
	addi 1,1,16
.LCFI11:
	.cfi_def_cfa_offset 0
	.cfi_restore 31
	blr
	.cfi_endproc
.LFE2589:
	.size	_ZN7idCurveI6idVec4ED2Ev, .-_ZN7idCurveI6idVec4ED2Ev
	.section	.text._ZN13idCurve_NURBSI6idVec4ED2Ev,"axG",@progbits,_ZN13idCurve_NURBSI6idVec4ED5Ev,comdat
	.align 2
	.weak	_ZN13idCurve_NURBSI6idVec4ED2Ev
	.type	_ZN13idCurve_NURBSI6idVec4ED2Ev, @function
_ZN13idCurve_NURBSI6idVec4ED2Ev:
.LFB2800:
	.loc 2 2330 0
	.cfi_startproc
.LVL74:
	mflr 0
	stwu 1,-16(1)
.LCFI12:
	.cfi_def_cfa_offset 16
	.cfi_register 65, 0
.LBB1525:
	lis 9,_ZTV13idCurve_NURBSI6idVec4E+8@ha
.LBE1525:
	stw 31,12(1)
	mr 31,3
	.cfi_offset 31, -4
	stw 0,20(1)
.LBB1626:
	.loc 2 2330 0
	la 0,_ZTV13idCurve_NURBSI6idVec4E+8@l(9)
	.cfi_offset 65, 4
.LBB1526:
.LBB1527:
.LBB1528:
.LBB1529:
	.loc 5 193 0
	lwz 3,68(3)
.LVL75:
.LBE1529:
.LBE1528:
.LBE1527:
.LBE1526:
	.loc 2 2330 0
	stw 0,0(31)
.LVL76:
.LBB1542:
.LBB1538:
.LBB1534:
.LBB1530:
	.loc 5 193 0
	cmpwi 7,3,0
	beq- 7,.L65
	.loc 5 194 0
	bl _ZdaPv
.L65:
.LBE1530:
.LBE1534:
.LBE1538:
.LBE1542:
.LBB1543:
.LBB1544:
.LBB1545:
.LBB1546:
.LBB1547:
.LBB1548:
.LBB1549:
.LBB1550:
.LBB1551:
.LBB1552:
.LBB1553:
.LBB1554:
.LBB1555:
.LBB1556:
.LBB1557:
.LBB1558:
	.loc 5 193 0
	lwz 3,32(31)
.LBE1558:
.LBE1557:
.LBE1556:
.LBE1555:
.LBE1554:
.LBE1553:
.LBE1552:
.LBE1551:
.LBE1550:
.LBE1549:
.LBE1548:
.LBE1547:
.LBE1546:
.LBE1545:
.LBE1544:
.LBE1543:
.LBB1620:
.LBB1539:
.LBB1535:
.LBB1531:
	.loc 5 197 0
	li 0,0
.LBE1531:
.LBE1535:
.LBE1539:
.LBE1620:
.LBB1621:
.LBB1617:
.LBB1614:
.LBB1611:
.LBB1608:
.LBB1605:
.LBB1602:
.LBB1599:
.LBB1596:
.LBB1593:
.LBB1590:
.LBB1587:
	.loc 2 105 0
	lis 9,_ZTV7idCurveI6idVec4E+8@ha
.LBE1587:
.LBE1590:
.LBE1593:
.LBE1596:
.LBE1599:
.LBE1602:
.LBE1605:
.LBE1608:
.LBE1611:
.LBE1614:
.LBE1617:
.LBE1621:
.LBB1622:
.LBB1540:
.LBB1536:
.LBB1532:
	.loc 5 197 0
	stw 0,68(31)
.LBE1532:
.LBE1536:
.LBE1540:
.LBE1622:
.LBB1623:
.LBB1618:
.LBB1615:
.LBB1612:
.LBB1609:
.LBB1606:
.LBB1603:
.LBB1600:
.LBB1597:
.LBB1594:
.LBB1591:
.LBB1588:
.LBB1571:
.LBB1567:
.LBB1563:
.LBB1559:
	.loc 5 193 0
	cmpwi 7,3,0
.LBE1559:
.LBE1563:
.LBE1567:
.LBE1571:
.LBE1588:
.LBE1591:
.LBE1594:
.LBE1597:
.LBE1600:
.LBE1603:
.LBE1606:
.LBE1609:
.LBE1612:
.LBE1615:
.LBE1618:
.LBE1623:
.LBB1624:
.LBB1541:
.LBB1537:
.LBB1533:
	.loc 5 198 0
	stw 0,56(31)
	.loc 5 199 0
	stw 0,60(31)
.LVL77:
.LBE1533:
.LBE1537:
.LBE1541:
.LBE1624:
.LBB1625:
.LBB1619:
.LBB1616:
.LBB1613:
.LBB1610:
.LBB1607:
.LBB1604:
.LBB1601:
.LBB1598:
.LBB1595:
.LBB1592:
.LBB1589:
	.loc 2 105 0
	la 0,_ZTV7idCurveI6idVec4E+8@l(9)
	stw 0,0(31)
.LVL78:
.LBB1572:
.LBB1568:
.LBB1564:
.LBB1560:
	.loc 5 193 0
	beq- 7,.L67
	.loc 5 194 0
	bl _ZdaPv
.L67:
.LBE1560:
.LBE1564:
.LBE1568:
.LBE1572:
.LBB1573:
.LBB1574:
.LBB1575:
.LBB1576:
	.loc 5 193 0
	lwz 3,16(31)
.LBE1576:
.LBE1575:
.LBE1574:
.LBE1573:
.LBB1583:
.LBB1569:
.LBB1565:
.LBB1561:
	.loc 5 197 0
	li 0,0
	stw 0,32(31)
.LBE1561:
.LBE1565:
.LBE1569:
.LBE1583:
.LBB1584:
.LBB1581:
.LBB1579:
.LBB1577:
	.loc 5 193 0
	cmpwi 7,3,0
.LBE1577:
.LBE1579:
.LBE1581:
.LBE1584:
.LBB1585:
.LBB1570:
.LBB1566:
.LBB1562:
	.loc 5 198 0
	stw 0,20(31)
	.loc 5 199 0
	stw 0,24(31)
.LVL79:
.LBE1562:
.LBE1566:
.LBE1570:
.LBE1585:
.LBB1586:
.LBB1582:
.LBB1580:
.LBB1578:
	.loc 5 193 0
	beq- 7,.L69
	.loc 5 194 0
	bl _ZdaPv
.L69:
	.loc 5 197 0
	li 0,0
	stw 0,16(31)
	.loc 5 198 0
	stw 0,4(31)
	.loc 5 199 0
	stw 0,8(31)
.LBE1578:
.LBE1580:
.LBE1582:
.LBE1586:
.LBE1589:
.LBE1592:
.LBE1595:
.LBE1598:
.LBE1601:
.LBE1604:
.LBE1607:
.LBE1610:
.LBE1613:
.LBE1616:
.LBE1619:
.LBE1625:
.LBE1626:
	.loc 2 2330 0
	lwz 0,20(1)
	lwz 31,12(1)
.LVL80:
	mtlr 0
	addi 1,1,16
.LCFI13:
	.cfi_def_cfa_offset 0
	.cfi_restore 31
	blr
	.cfi_endproc
.LFE2800:
	.size	_ZN13idCurve_NURBSI6idVec4ED2Ev, .-_ZN13idCurve_NURBSI6idVec4ED2Ev
	.section	.text._ZN13idCurve_NURBSI6idVec4E5ClearEv,"axG",@progbits,_ZN13idCurve_NURBSI6idVec4E5ClearEv,comdat
	.align 2
	.weak	_ZN13idCurve_NURBSI6idVec4E5ClearEv
	.type	_ZN13idCurve_NURBSI6idVec4E5ClearEv, @function
_ZN13idCurve_NURBSI6idVec4E5ClearEv:
.LFB2724:
	.loc 2 2338 0
	.cfi_startproc
.LVL81:
	mflr 0
	stwu 1,-16(1)
.LCFI14:
	.cfi_def_cfa_offset 16
	.cfi_register 65, 0
	stw 31,12(1)
	mr 31,3
	.cfi_offset 31, -4
.LVL82:
	stw 0,20(1)
.LBB1633:
.LBB1634:
	.loc 5 193 0
	lwz 3,32(3)
.LVL83:
	cmpwi 7,3,0
	beq- 7,.L77
	.cfi_offset 65, 4
	.loc 5 194 0
	bl _ZdaPv
.LVL84:
.L77:
.LBE1634:
.LBE1633:
.LBB1637:
.LBB1638:
	.loc 5 193 0
	lwz 3,16(31)
.LBE1638:
.LBE1637:
.LBB1643:
.LBB1635:
	.loc 5 197 0
	li 0,0
	stw 0,32(31)
.LBE1635:
.LBE1643:
.LBB1644:
.LBB1639:
	.loc 5 193 0
	cmpwi 7,3,0
.LBE1639:
.LBE1644:
.LBB1645:
.LBB1636:
	.loc 5 198 0
	stw 0,20(31)
	.loc 5 199 0
	stw 0,24(31)
.LVL85:
.LBE1636:
.LBE1645:
.LBB1646:
.LBB1640:
	.loc 5 193 0
	beq- 7,.L78
	.loc 5 194 0
	bl _ZdaPv
.L78:
.LBE1640:
.LBE1646:
.LBB1647:
.LBB1648:
	.loc 5 193 0
	lwz 3,68(31)
.LBE1648:
.LBE1647:
.LBB1651:
.LBB1641:
	.loc 5 197 0
	li 0,0
	stw 0,16(31)
.LBE1641:
.LBE1651:
.LBB1652:
.LBB1649:
	.loc 5 193 0
	cmpwi 7,3,0
.LBE1649:
.LBE1652:
.LBB1653:
.LBB1642:
	.loc 5 198 0
	stw 0,4(31)
	.loc 5 199 0
	stw 0,8(31)
.LVL86:
.LBE1642:
.LBE1653:
.LBB1654:
.LBB1650:
	.loc 5 193 0
	beq- 7,.L79
	.loc 5 194 0
	bl _ZdaPv
.L79:
	.loc 5 197 0
	li 0,0
	stw 0,68(31)
	.loc 5 198 0
	stw 0,56(31)
	.loc 5 199 0
	stw 0,60(31)
.LBE1650:
.LBE1654:
	.loc 2 2338 0
	li 0,-1
	stw 0,36(31)
	lwz 0,20(1)
	lwz 31,12(1)
.LVL87:
	mtlr 0
	addi 1,1,16
.LCFI15:
	.cfi_def_cfa_offset 0
	.cfi_restore 31
	blr
	.cfi_endproc
.LFE2724:
	.size	_ZN13idCurve_NURBSI6idVec4E5ClearEv, .-_ZN13idCurve_NURBSI6idVec4E5ClearEv
	.section	.text._ZN15idCurve_BSplineI6idVec4ED2Ev,"axG",@progbits,_ZN15idCurve_BSplineI6idVec4ED5Ev,comdat
	.align 2
	.weak	_ZN15idCurve_BSplineI6idVec4ED2Ev
	.type	_ZN15idCurve_BSplineI6idVec4ED2Ev, @function
_ZN15idCurve_BSplineI6idVec4ED2Ev:
.LFB2716:
	.loc 2 1798 0
	.cfi_startproc
.LVL88:
	mflr 0
	stwu 1,-16(1)
.LCFI16:
	.cfi_def_cfa_offset 16
	.cfi_register 65, 0
.LBB1673:
.LBB1674:
.LBB1675:
.LBB1676:
.LBB1677:
.LBB1678:
.LBB1679:
	.loc 2 105 0
	lis 9,_ZTV7idCurveI6idVec4E+8@ha
.LBE1679:
.LBE1678:
.LBE1677:
.LBE1676:
.LBE1675:
.LBE1674:
.LBE1673:
	.loc 2 1798 0
	stw 31,12(1)
	mr 31,3
	.cfi_offset 31, -4
.LVL89:
	stw 0,20(1)
.LBB1714:
.LBB1713:
.LBB1712:
.LBB1711:
.LBB1710:
.LBB1709:
.LBB1708:
	.loc 2 105 0
	la 0,_ZTV7idCurveI6idVec4E+8@l(9)
	.cfi_offset 65, 4
.LBB1680:
.LBB1681:
.LBB1682:
.LBB1683:
	.loc 5 193 0
	lwz 3,32(3)
.LVL90:
.LBE1683:
.LBE1682:
.LBE1681:
.LBE1680:
	.loc 2 105 0
	stw 0,0(31)
.LVL91:
.LBB1693:
.LBB1690:
.LBB1687:
.LBB1684:
	.loc 5 193 0
	cmpwi 7,3,0
	beq- 7,.L81
	.loc 5 194 0
	bl _ZdaPv
.LVL92:
.L81:
.LBE1684:
.LBE1687:
.LBE1690:
.LBE1693:
.LBB1694:
.LBB1695:
.LBB1696:
.LBB1697:
	.loc 5 193 0
	lwz 3,16(31)
.LBE1697:
.LBE1696:
.LBE1695:
.LBE1694:
.LBB1704:
.LBB1691:
.LBB1688:
.LBB1685:
	.loc 5 197 0
	li 0,0
	stw 0,32(31)
.LBE1685:
.LBE1688:
.LBE1691:
.LBE1704:
.LBB1705:
.LBB1702:
.LBB1700:
.LBB1698:
	.loc 5 193 0
	cmpwi 7,3,0
.LBE1698:
.LBE1700:
.LBE1702:
.LBE1705:
.LBB1706:
.LBB1692:
.LBB1689:
.LBB1686:
	.loc 5 198 0
	stw 0,20(31)
	.loc 5 199 0
	stw 0,24(31)
.LVL93:
.LBE1686:
.LBE1689:
.LBE1692:
.LBE1706:
.LBB1707:
.LBB1703:
.LBB1701:
.LBB1699:
	.loc 5 193 0
	beq- 7,.L83
	.loc 5 194 0
	bl _ZdaPv
.L83:
	.loc 5 197 0
	li 0,0
	stw 0,16(31)
	.loc 5 198 0
	stw 0,4(31)
	.loc 5 199 0
	stw 0,8(31)
.LBE1699:
.LBE1701:
.LBE1703:
.LBE1707:
.LBE1708:
.LBE1709:
.LBE1710:
.LBE1711:
.LBE1712:
.LBE1713:
.LBE1714:
	.loc 2 1798 0
	lwz 0,20(1)
	lwz 31,12(1)
.LVL94:
	mtlr 0
	addi 1,1,16
.LCFI17:
	.cfi_def_cfa_offset 0
	.cfi_restore 31
	blr
	.cfi_endproc
.LFE2716:
	.size	_ZN15idCurve_BSplineI6idVec4ED2Ev, .-_ZN15idCurve_BSplineI6idVec4ED2Ev
	.section	.text._ZN14idCurve_SplineI6idVec4ED0Ev,"axG",@progbits,_ZN14idCurve_SplineI6idVec4ED5Ev,comdat
	.align 2
	.weak	_ZN14idCurve_SplineI6idVec4ED0Ev
	.type	_ZN14idCurve_SplineI6idVec4ED0Ev, @function
_ZN14idCurve_SplineI6idVec4ED0Ev:
.LFB1566:
	.loc 2 930 0
	.cfi_startproc
.LVL95:
	mflr 0
	stwu 1,-16(1)
.LCFI18:
	.cfi_def_cfa_offset 16
	.cfi_register 65, 0
.LBB1731:
.LBB1732:
.LBB1733:
.LBB1734:
.LBB1735:
.LBB1736:
	.loc 2 105 0
	lis 9,_ZTV7idCurveI6idVec4E+8@ha
.LBE1736:
.LBE1735:
.LBE1734:
.LBE1733:
.LBE1732:
.LBE1731:
	.loc 2 930 0
	stw 31,12(1)
	mr 31,3
	.cfi_offset 31, -4
.LVL96:
	stw 0,20(1)
.LBB1779:
.LBB1777:
.LBB1775:
.LBB1773:
.LBB1771:
.LBB1769:
	.loc 2 105 0
	la 0,_ZTV7idCurveI6idVec4E+8@l(9)
	.cfi_offset 65, 4
.LBB1737:
.LBB1738:
.LBB1739:
.LBB1740:
	.loc 5 193 0
	lwz 3,32(3)
.LVL97:
.LBE1740:
.LBE1739:
.LBE1738:
.LBE1737:
	.loc 2 105 0
	stw 0,0(31)
.LVL98:
.LBB1750:
.LBB1747:
.LBB1744:
.LBB1741:
	.loc 5 193 0
	cmpwi 7,3,0
	beq- 7,.L89
	.loc 5 194 0
	bl _ZdaPv
.LVL99:
.L89:
.LBE1741:
.LBE1744:
.LBE1747:
.LBE1750:
.LBB1751:
.LBB1752:
.LBB1753:
.LBB1754:
	.loc 5 193 0
	lwz 3,16(31)
.LBE1754:
.LBE1753:
.LBE1752:
.LBE1751:
.LBB1764:
.LBB1748:
.LBB1745:
.LBB1742:
	.loc 5 197 0
	li 0,0
	stw 0,32(31)
.LBE1742:
.LBE1745:
.LBE1748:
.LBE1764:
.LBB1765:
.LBB1761:
.LBB1758:
.LBB1755:
	.loc 5 193 0
	cmpwi 7,3,0
.LBE1755:
.LBE1758:
.LBE1761:
.LBE1765:
.LBB1766:
.LBB1749:
.LBB1746:
.LBB1743:
	.loc 5 198 0
	stw 0,20(31)
	.loc 5 199 0
	stw 0,24(31)
.LVL100:
.LBE1743:
.LBE1746:
.LBE1749:
.LBE1766:
.LBB1767:
.LBB1762:
.LBB1759:
.LBB1756:
	.loc 5 193 0
	beq- 7,.L91
	.loc 5 194 0
	bl _ZdaPv
.L91:
	.loc 5 197 0
	li 0,0
.LBE1756:
.LBE1759:
.LBE1762:
.LBE1767:
.LBE1769:
.LBE1771:
.LBE1773:
.LBE1775:
.LBE1777:
.LBE1779:
	.loc 2 930 0
	mr 3,31
.LBB1780:
.LBB1778:
.LBB1776:
.LBB1774:
.LBB1772:
.LBB1770:
.LBB1768:
.LBB1763:
.LBB1760:
.LBB1757:
	.loc 5 197 0
	stw 0,16(31)
	.loc 5 198 0
	stw 0,4(31)
	.loc 5 199 0
	stw 0,8(31)
.LBE1757:
.LBE1760:
.LBE1763:
.LBE1768:
.LBE1770:
.LBE1772:
.LBE1774:
.LBE1776:
.LBE1778:
.LBE1780:
	.loc 2 930 0
	bl _ZdlPv
	lwz 0,20(1)
	lwz 31,12(1)
.LVL101:
	mtlr 0
	addi 1,1,16
.LCFI19:
	.cfi_def_cfa_offset 0
	.cfi_restore 31
	blr
	.cfi_endproc
.LFE1566:
	.size	_ZN14idCurve_SplineI6idVec4ED0Ev, .-_ZN14idCurve_SplineI6idVec4ED0Ev
	.section	.text._ZN13idCurve_NURBSI6idVec4ED0Ev,"axG",@progbits,_ZN13idCurve_NURBSI6idVec4ED5Ev,comdat
	.align 2
	.weak	_ZN13idCurve_NURBSI6idVec4ED0Ev
	.type	_ZN13idCurve_NURBSI6idVec4ED0Ev, @function
_ZN13idCurve_NURBSI6idVec4ED0Ev:
.LFB2802:
	.loc 2 2330 0
	.cfi_startproc
.LVL102:
	mflr 0
	stwu 1,-16(1)
.LCFI20:
	.cfi_def_cfa_offset 16
	.cfi_register 65, 0
.LBB1811:
.LBB1812:
.LBB1813:
	lis 9,_ZTV13idCurve_NURBSI6idVec4E+8@ha
.LBE1813:
.LBE1812:
.LBE1811:
	stw 31,12(1)
	mr 31,3
	.cfi_offset 31, -4
.LVL103:
	stw 0,20(1)
.LBB1934:
.LBB1932:
.LBB1930:
	.loc 2 2330 0
	la 0,_ZTV13idCurve_NURBSI6idVec4E+8@l(9)
	.cfi_offset 65, 4
.LBB1814:
.LBB1815:
.LBB1816:
.LBB1817:
	.loc 5 193 0
	lwz 3,68(3)
.LVL104:
.LBE1817:
.LBE1816:
.LBE1815:
.LBE1814:
	.loc 2 2330 0
	stw 0,0(31)
.LVL105:
.LBB1830:
.LBB1826:
.LBB1822:
.LBB1818:
	.loc 5 193 0
	cmpwi 7,3,0
	beq- 7,.L97
	.loc 5 194 0
	bl _ZdaPv
.L97:
.LBE1818:
.LBE1822:
.LBE1826:
.LBE1830:
.LBB1831:
.LBB1832:
.LBB1833:
.LBB1834:
.LBB1835:
.LBB1836:
.LBB1837:
.LBB1838:
.LBB1839:
.LBB1840:
.LBB1841:
.LBB1842:
.LBB1843:
.LBB1844:
.LBB1845:
.LBB1846:
	.loc 5 193 0
	lwz 3,32(31)
.LBE1846:
.LBE1845:
.LBE1844:
.LBE1843:
.LBE1842:
.LBE1841:
.LBE1840:
.LBE1839:
.LBE1838:
.LBE1837:
.LBE1836:
.LBE1835:
.LBE1834:
.LBE1833:
.LBE1832:
.LBE1831:
.LBB1923:
.LBB1827:
.LBB1823:
.LBB1819:
	.loc 5 197 0
	li 0,0
.LBE1819:
.LBE1823:
.LBE1827:
.LBE1923:
.LBB1924:
.LBB1919:
.LBB1915:
.LBB1911:
.LBB1907:
.LBB1903:
.LBB1899:
.LBB1895:
.LBB1891:
.LBB1887:
.LBB1883:
.LBB1879:
	.loc 2 105 0
	lis 9,_ZTV7idCurveI6idVec4E+8@ha
.LBE1879:
.LBE1883:
.LBE1887:
.LBE1891:
.LBE1895:
.LBE1899:
.LBE1903:
.LBE1907:
.LBE1911:
.LBE1915:
.LBE1919:
.LBE1924:
.LBB1925:
.LBB1828:
.LBB1824:
.LBB1820:
	.loc 5 197 0
	stw 0,68(31)
.LBE1820:
.LBE1824:
.LBE1828:
.LBE1925:
.LBB1926:
.LBB1920:
.LBB1916:
.LBB1912:
.LBB1908:
.LBB1904:
.LBB1900:
.LBB1896:
.LBB1892:
.LBB1888:
.LBB1884:
.LBB1880:
.LBB1859:
.LBB1855:
.LBB1851:
.LBB1847:
	.loc 5 193 0
	cmpwi 7,3,0
.LBE1847:
.LBE1851:
.LBE1855:
.LBE1859:
.LBE1880:
.LBE1884:
.LBE1888:
.LBE1892:
.LBE1896:
.LBE1900:
.LBE1904:
.LBE1908:
.LBE1912:
.LBE1916:
.LBE1920:
.LBE1926:
.LBB1927:
.LBB1829:
.LBB1825:
.LBB1821:
	.loc 5 198 0
	stw 0,56(31)
	.loc 5 199 0
	stw 0,60(31)
.LVL106:
.LBE1821:
.LBE1825:
.LBE1829:
.LBE1927:
.LBB1928:
.LBB1921:
.LBB1917:
.LBB1913:
.LBB1909:
.LBB1905:
.LBB1901:
.LBB1897:
.LBB1893:
.LBB1889:
.LBB1885:
.LBB1881:
	.loc 2 105 0
	la 0,_ZTV7idCurveI6idVec4E+8@l(9)
	stw 0,0(31)
.LVL107:
.LBB1860:
.LBB1856:
.LBB1852:
.LBB1848:
	.loc 5 193 0
	beq- 7,.L99
	.loc 5 194 0
	bl _ZdaPv
.L99:
.LBE1848:
.LBE1852:
.LBE1856:
.LBE1860:
.LBB1861:
.LBB1862:
.LBB1863:
.LBB1864:
	.loc 5 193 0
	lwz 3,16(31)
.LBE1864:
.LBE1863:
.LBE1862:
.LBE1861:
.LBB1874:
.LBB1857:
.LBB1853:
.LBB1849:
	.loc 5 197 0
	li 0,0
	stw 0,32(31)
.LBE1849:
.LBE1853:
.LBE1857:
.LBE1874:
.LBB1875:
.LBB1871:
.LBB1868:
.LBB1865:
	.loc 5 193 0
	cmpwi 7,3,0
.LBE1865:
.LBE1868:
.LBE1871:
.LBE1875:
.LBB1876:
.LBB1858:
.LBB1854:
.LBB1850:
	.loc 5 198 0
	stw 0,20(31)
	.loc 5 199 0
	stw 0,24(31)
.LVL108:
.LBE1850:
.LBE1854:
.LBE1858:
.LBE1876:
.LBB1877:
.LBB1872:
.LBB1869:
.LBB1866:
	.loc 5 193 0
	beq- 7,.L101
	.loc 5 194 0
	bl _ZdaPv
.L101:
	.loc 5 197 0
	li 0,0
.LBE1866:
.LBE1869:
.LBE1872:
.LBE1877:
.LBE1881:
.LBE1885:
.LBE1889:
.LBE1893:
.LBE1897:
.LBE1901:
.LBE1905:
.LBE1909:
.LBE1913:
.LBE1917:
.LBE1921:
.LBE1928:
.LBE1930:
.LBE1932:
.LBE1934:
	.loc 2 2330 0
	mr 3,31
.LBB1935:
.LBB1933:
.LBB1931:
.LBB1929:
.LBB1922:
.LBB1918:
.LBB1914:
.LBB1910:
.LBB1906:
.LBB1902:
.LBB1898:
.LBB1894:
.LBB1890:
.LBB1886:
.LBB1882:
.LBB1878:
.LBB1873:
.LBB1870:
.LBB1867:
	.loc 5 197 0
	stw 0,16(31)
	.loc 5 198 0
	stw 0,4(31)
	.loc 5 199 0
	stw 0,8(31)
.LBE1867:
.LBE1870:
.LBE1873:
.LBE1878:
.LBE1882:
.LBE1886:
.LBE1890:
.LBE1894:
.LBE1898:
.LBE1902:
.LBE1906:
.LBE1910:
.LBE1914:
.LBE1918:
.LBE1922:
.LBE1929:
.LBE1931:
.LBE1933:
.LBE1935:
	.loc 2 2330 0
	bl _ZdlPv
	lwz 0,20(1)
	lwz 31,12(1)
.LVL109:
	mtlr 0
	addi 1,1,16
.LCFI21:
	.cfi_def_cfa_offset 0
	.cfi_restore 31
	blr
	.cfi_endproc
.LFE2802:
	.size	_ZN13idCurve_NURBSI6idVec4ED0Ev, .-_ZN13idCurve_NURBSI6idVec4ED0Ev
	.section	.text._ZN14idCurve_SplineI6idVec4ED2Ev,"axG",@progbits,_ZN14idCurve_SplineI6idVec4ED5Ev,comdat
	.align 2
	.weak	_ZN14idCurve_SplineI6idVec4ED2Ev
	.type	_ZN14idCurve_SplineI6idVec4ED2Ev, @function
_ZN14idCurve_SplineI6idVec4ED2Ev:
.LFB1564:
	.loc 2 930 0
	.cfi_startproc
.LVL110:
	mflr 0
	stwu 1,-16(1)
.LCFI22:
	.cfi_def_cfa_offset 16
	.cfi_register 65, 0
.LBB1951:
.LBB1952:
.LBB1953:
.LBB1954:
	.loc 2 105 0
	lis 9,_ZTV7idCurveI6idVec4E+8@ha
.LBE1954:
.LBE1953:
.LBE1952:
.LBE1951:
	.loc 2 930 0
	stw 31,12(1)
	mr 31,3
	.cfi_offset 31, -4
.LVL111:
	stw 0,20(1)
.LBB1986:
.LBB1985:
.LBB1984:
.LBB1983:
	.loc 2 105 0
	la 0,_ZTV7idCurveI6idVec4E+8@l(9)
	.cfi_offset 65, 4
.LBB1955:
.LBB1956:
.LBB1957:
.LBB1958:
	.loc 5 193 0
	lwz 3,32(3)
.LVL112:
.LBE1958:
.LBE1957:
.LBE1956:
.LBE1955:
	.loc 2 105 0
	stw 0,0(31)
.LVL113:
.LBB1968:
.LBB1965:
.LBB1962:
.LBB1959:
	.loc 5 193 0
	cmpwi 7,3,0
	beq- 7,.L110
	.loc 5 194 0
	bl _ZdaPv
.L110:
.LBE1959:
.LBE1962:
.LBE1965:
.LBE1968:
.LBB1969:
.LBB1970:
.LBB1971:
.LBB1972:
	.loc 5 193 0
	lwz 3,16(31)
.LBE1972:
.LBE1971:
.LBE1970:
.LBE1969:
.LBB1979:
.LBB1966:
.LBB1963:
.LBB1960:
	.loc 5 197 0
	li 0,0
	stw 0,32(31)
.LBE1960:
.LBE1963:
.LBE1966:
.LBE1979:
.LBB1980:
.LBB1977:
.LBB1975:
.LBB1973:
	.loc 5 193 0
	cmpwi 7,3,0
.LBE1973:
.LBE1975:
.LBE1977:
.LBE1980:
.LBB1981:
.LBB1967:
.LBB1964:
.LBB1961:
	.loc 5 198 0
	stw 0,20(31)
	.loc 5 199 0
	stw 0,24(31)
.LVL114:
.LBE1961:
.LBE1964:
.LBE1967:
.LBE1981:
.LBB1982:
.LBB1978:
.LBB1976:
.LBB1974:
	.loc 5 193 0
	beq- 7,.L112
	.loc 5 194 0
	bl _ZdaPv
.L112:
	.loc 5 197 0
	li 0,0
	stw 0,16(31)
	.loc 5 198 0
	stw 0,4(31)
	.loc 5 199 0
	stw 0,8(31)
.LBE1974:
.LBE1976:
.LBE1978:
.LBE1982:
.LBE1983:
.LBE1984:
.LBE1985:
.LBE1986:
	.loc 2 930 0
	lwz 0,20(1)
	lwz 31,12(1)
.LVL115:
	mtlr 0
	addi 1,1,16
.LCFI23:
	.cfi_def_cfa_offset 0
	.cfi_restore 31
	blr
	.cfi_endproc
.LFE1564:
	.size	_ZN14idCurve_SplineI6idVec4ED2Ev, .-_ZN14idCurve_SplineI6idVec4ED2Ev
	.section	.text._ZN7idCurveI6idVec4ED0Ev,"axG",@progbits,_ZN7idCurveI6idVec4ED5Ev,comdat
	.align 2
	.weak	_ZN7idCurveI6idVec4ED0Ev
	.type	_ZN7idCurveI6idVec4ED0Ev, @function
_ZN7idCurveI6idVec4ED0Ev:
.LFB2591:
	.loc 2 104 0
	.cfi_startproc
.LVL116:
	mflr 0
	stwu 1,-16(1)
.LCFI24:
	.cfi_def_cfa_offset 16
	.cfi_register 65, 0
.LBB2000:
.LBB2001:
.LBB2002:
	.loc 2 105 0
	lis 9,_ZTV7idCurveI6idVec4E+8@ha
.LBE2002:
.LBE2001:
.LBE2000:
	.loc 2 104 0
	stw 31,12(1)
	mr 31,3
	.cfi_offset 31, -4
.LVL117:
	stw 0,20(1)
.LBB2039:
.LBB2037:
.LBB2035:
	.loc 2 105 0
	la 0,_ZTV7idCurveI6idVec4E+8@l(9)
	.cfi_offset 65, 4
.LBB2003:
.LBB2004:
.LBB2005:
.LBB2006:
	.loc 5 193 0
	lwz 3,32(3)
.LVL118:
.LBE2006:
.LBE2005:
.LBE2004:
.LBE2003:
	.loc 2 105 0
	stw 0,0(31)
.LVL119:
.LBB2016:
.LBB2013:
.LBB2010:
.LBB2007:
	.loc 5 193 0
	cmpwi 7,3,0
	beq- 7,.L117
	.loc 5 194 0
	bl _ZdaPv
.LVL120:
.L117:
.LBE2007:
.LBE2010:
.LBE2013:
.LBE2016:
.LBB2017:
.LBB2018:
.LBB2019:
.LBB2020:
	.loc 5 193 0
	lwz 3,16(31)
.LBE2020:
.LBE2019:
.LBE2018:
.LBE2017:
.LBB2030:
.LBB2014:
.LBB2011:
.LBB2008:
	.loc 5 197 0
	li 0,0
	stw 0,32(31)
.LBE2008:
.LBE2011:
.LBE2014:
.LBE2030:
.LBB2031:
.LBB2027:
.LBB2024:
.LBB2021:
	.loc 5 193 0
	cmpwi 7,3,0
.LBE2021:
.LBE2024:
.LBE2027:
.LBE2031:
.LBB2032:
.LBB2015:
.LBB2012:
.LBB2009:
	.loc 5 198 0
	stw 0,20(31)
	.loc 5 199 0
	stw 0,24(31)
.LVL121:
.LBE2009:
.LBE2012:
.LBE2015:
.LBE2032:
.LBB2033:
.LBB2028:
.LBB2025:
.LBB2022:
	.loc 5 193 0
	beq- 7,.L119
	.loc 5 194 0
	bl _ZdaPv
.L119:
	.loc 5 197 0
	li 0,0
.LBE2022:
.LBE2025:
.LBE2028:
.LBE2033:
.LBE2035:
.LBE2037:
.LBE2039:
	.loc 2 105 0
	mr 3,31
.LBB2040:
.LBB2038:
.LBB2036:
.LBB2034:
.LBB2029:
.LBB2026:
.LBB2023:
	.loc 5 197 0
	stw 0,16(31)
	.loc 5 198 0
	stw 0,4(31)
	.loc 5 199 0
	stw 0,8(31)
.LBE2023:
.LBE2026:
.LBE2029:
.LBE2034:
.LBE2036:
.LBE2038:
.LBE2040:
	.loc 2 105 0
	bl _ZdlPv
	lwz 0,20(1)
	lwz 31,12(1)
.LVL122:
	mtlr 0
	addi 1,1,16
.LCFI25:
	.cfi_def_cfa_offset 0
	.cfi_restore 31
	blr
	.cfi_endproc
.LFE2591:
	.size	_ZN7idCurveI6idVec4ED0Ev, .-_ZN7idCurveI6idVec4ED0Ev
	.section	.text._ZN25idCurve_NonUniformBSplineI6idVec4ED0Ev,"axG",@progbits,_ZN25idCurve_NonUniformBSplineI6idVec4ED5Ev,comdat
	.align 2
	.weak	_ZN25idCurve_NonUniformBSplineI6idVec4ED0Ev
	.type	_ZN25idCurve_NonUniformBSplineI6idVec4ED0Ev, @function
_ZN25idCurve_NonUniformBSplineI6idVec4ED0Ev:
.LFB2721:
	.loc 2 2144 0
	.cfi_startproc
.LVL123:
	mflr 0
	stwu 1,-16(1)
.LCFI26:
	.cfi_def_cfa_offset 16
	.cfi_register 65, 0
.LBB2063:
.LBB2064:
.LBB2065:
.LBB2066:
.LBB2067:
.LBB2068:
.LBB2069:
.LBB2070:
.LBB2071:
.LBB2072:
.LBB2073:
.LBB2074:
	.loc 2 105 0
	lis 9,_ZTV7idCurveI6idVec4E+8@ha
.LBE2074:
.LBE2073:
.LBE2072:
.LBE2071:
.LBE2070:
.LBE2069:
.LBE2068:
.LBE2067:
.LBE2066:
.LBE2065:
.LBE2064:
.LBE2063:
	.loc 2 2144 0
	stw 31,12(1)
	mr 31,3
	.cfi_offset 31, -4
.LVL124:
	stw 0,20(1)
.LBB2129:
.LBB2127:
.LBB2125:
.LBB2123:
.LBB2121:
.LBB2119:
.LBB2117:
.LBB2115:
.LBB2113:
.LBB2111:
.LBB2109:
.LBB2107:
	.loc 2 105 0
	la 0,_ZTV7idCurveI6idVec4E+8@l(9)
	.cfi_offset 65, 4
.LBB2075:
.LBB2076:
.LBB2077:
.LBB2078:
	.loc 5 193 0
	lwz 3,32(3)
.LVL125:
.LBE2078:
.LBE2077:
.LBE2076:
.LBE2075:
	.loc 2 105 0
	stw 0,0(31)
.LVL126:
.LBB2088:
.LBB2085:
.LBB2082:
.LBB2079:
	.loc 5 193 0
	cmpwi 7,3,0
	beq- 7,.L124
	.loc 5 194 0
	bl _ZdaPv
.LVL127:
.L124:
.LBE2079:
.LBE2082:
.LBE2085:
.LBE2088:
.LBB2089:
.LBB2090:
.LBB2091:
.LBB2092:
	.loc 5 193 0
	lwz 3,16(31)
.LBE2092:
.LBE2091:
.LBE2090:
.LBE2089:
.LBB2102:
.LBB2086:
.LBB2083:
.LBB2080:
	.loc 5 197 0
	li 0,0
	stw 0,32(31)
.LBE2080:
.LBE2083:
.LBE2086:
.LBE2102:
.LBB2103:
.LBB2099:
.LBB2096:
.LBB2093:
	.loc 5 193 0
	cmpwi 7,3,0
.LBE2093:
.LBE2096:
.LBE2099:
.LBE2103:
.LBB2104:
.LBB2087:
.LBB2084:
.LBB2081:
	.loc 5 198 0
	stw 0,20(31)
	.loc 5 199 0
	stw 0,24(31)
.LVL128:
.LBE2081:
.LBE2084:
.LBE2087:
.LBE2104:
.LBB2105:
.LBB2100:
.LBB2097:
.LBB2094:
	.loc 5 193 0
	beq- 7,.L126
	.loc 5 194 0
	bl _ZdaPv
.L126:
	.loc 5 197 0
	li 0,0
.LBE2094:
.LBE2097:
.LBE2100:
.LBE2105:
.LBE2107:
.LBE2109:
.LBE2111:
.LBE2113:
.LBE2115:
.LBE2117:
.LBE2119:
.LBE2121:
.LBE2123:
.LBE2125:
.LBE2127:
.LBE2129:
	.loc 2 2144 0
	mr 3,31
.LBB2130:
.LBB2128:
.LBB2126:
.LBB2124:
.LBB2122:
.LBB2120:
.LBB2118:
.LBB2116:
.LBB2114:
.LBB2112:
.LBB2110:
.LBB2108:
.LBB2106:
.LBB2101:
.LBB2098:
.LBB2095:
	.loc 5 197 0
	stw 0,16(31)
	.loc 5 198 0
	stw 0,4(31)
	.loc 5 199 0
	stw 0,8(31)
.LBE2095:
.LBE2098:
.LBE2101:
.LBE2106:
.LBE2108:
.LBE2110:
.LBE2112:
.LBE2114:
.LBE2116:
.LBE2118:
.LBE2120:
.LBE2122:
.LBE2124:
.LBE2126:
.LBE2128:
.LBE2130:
	.loc 2 2144 0
	bl _ZdlPv
	lwz 0,20(1)
	lwz 31,12(1)
.LVL129:
	mtlr 0
	addi 1,1,16
.LCFI27:
	.cfi_def_cfa_offset 0
	.cfi_restore 31
	blr
	.cfi_endproc
.LFE2721:
	.size	_ZN25idCurve_NonUniformBSplineI6idVec4ED0Ev, .-_ZN25idCurve_NonUniformBSplineI6idVec4ED0Ev
	.section	.text._ZN25idCurve_NonUniformBSplineI6idVec4ED2Ev,"axG",@progbits,_ZN25idCurve_NonUniformBSplineI6idVec4ED5Ev,comdat
	.align 2
	.weak	_ZN25idCurve_NonUniformBSplineI6idVec4ED2Ev
	.type	_ZN25idCurve_NonUniformBSplineI6idVec4ED2Ev, @function
_ZN25idCurve_NonUniformBSplineI6idVec4ED2Ev:
.LFB2719:
	.loc 2 2144 0
	.cfi_startproc
.LVL130:
	mflr 0
	stwu 1,-16(1)
.LCFI28:
	.cfi_def_cfa_offset 16
	.cfi_register 65, 0
.LBB2151:
.LBB2152:
.LBB2153:
.LBB2154:
.LBB2155:
.LBB2156:
.LBB2157:
.LBB2158:
.LBB2159:
.LBB2160:
	.loc 2 105 0
	lis 9,_ZTV7idCurveI6idVec4E+8@ha
.LBE2160:
.LBE2159:
.LBE2158:
.LBE2157:
.LBE2156:
.LBE2155:
.LBE2154:
.LBE2153:
.LBE2152:
.LBE2151:
	.loc 2 2144 0
	stw 31,12(1)
	mr 31,3
	.cfi_offset 31, -4
.LVL131:
	stw 0,20(1)
.LBB2198:
.LBB2197:
.LBB2196:
.LBB2195:
.LBB2194:
.LBB2193:
.LBB2192:
.LBB2191:
.LBB2190:
.LBB2189:
	.loc 2 105 0
	la 0,_ZTV7idCurveI6idVec4E+8@l(9)
	.cfi_offset 65, 4
.LBB2161:
.LBB2162:
.LBB2163:
.LBB2164:
	.loc 5 193 0
	lwz 3,32(3)
.LVL132:
.LBE2164:
.LBE2163:
.LBE2162:
.LBE2161:
	.loc 2 105 0
	stw 0,0(31)
.LVL133:
.LBB2174:
.LBB2171:
.LBB2168:
.LBB2165:
	.loc 5 193 0
	cmpwi 7,3,0
	beq- 7,.L134
	.loc 5 194 0
	bl _ZdaPv
.LVL134:
.L134:
.LBE2165:
.LBE2168:
.LBE2171:
.LBE2174:
.LBB2175:
.LBB2176:
.LBB2177:
.LBB2178:
	.loc 5 193 0
	lwz 3,16(31)
.LBE2178:
.LBE2177:
.LBE2176:
.LBE2175:
.LBB2185:
.LBB2172:
.LBB2169:
.LBB2166:
	.loc 5 197 0
	li 0,0
	stw 0,32(31)
.LBE2166:
.LBE2169:
.LBE2172:
.LBE2185:
.LBB2186:
.LBB2183:
.LBB2181:
.LBB2179:
	.loc 5 193 0
	cmpwi 7,3,0
.LBE2179:
.LBE2181:
.LBE2183:
.LBE2186:
.LBB2187:
.LBB2173:
.LBB2170:
.LBB2167:
	.loc 5 198 0
	stw 0,20(31)
	.loc 5 199 0
	stw 0,24(31)
.LVL135:
.LBE2167:
.LBE2170:
.LBE2173:
.LBE2187:
.LBB2188:
.LBB2184:
.LBB2182:
.LBB2180:
	.loc 5 193 0
	beq- 7,.L136
	.loc 5 194 0
	bl _ZdaPv
.L136:
	.loc 5 197 0
	li 0,0
	stw 0,16(31)
	.loc 5 198 0
	stw 0,4(31)
	.loc 5 199 0
	stw 0,8(31)
.LBE2180:
.LBE2182:
.LBE2184:
.LBE2188:
.LBE2189:
.LBE2190:
.LBE2191:
.LBE2192:
.LBE2193:
.LBE2194:
.LBE2195:
.LBE2196:
.LBE2197:
.LBE2198:
	.loc 2 2144 0
	lwz 0,20(1)
	lwz 31,12(1)
.LVL136:
	mtlr 0
	addi 1,1,16
.LCFI29:
	.cfi_def_cfa_offset 0
	.cfi_restore 31
	blr
	.cfi_endproc
.LFE2719:
	.size	_ZN25idCurve_NonUniformBSplineI6idVec4ED2Ev, .-_ZN25idCurve_NonUniformBSplineI6idVec4ED2Ev
	.section	.text._ZN15idCurve_BSplineI6idVec4ED0Ev,"axG",@progbits,_ZN15idCurve_BSplineI6idVec4ED5Ev,comdat
	.align 2
	.weak	_ZN15idCurve_BSplineI6idVec4ED0Ev
	.type	_ZN15idCurve_BSplineI6idVec4ED0Ev, @function
_ZN15idCurve_BSplineI6idVec4ED0Ev:
.LFB2718:
	.loc 2 1798 0
	.cfi_startproc
.LVL137:
	mflr 0
	stwu 1,-16(1)
.LCFI30:
	.cfi_def_cfa_offset 16
	.cfi_register 65, 0
.LBB2218:
.LBB2219:
.LBB2220:
.LBB2221:
.LBB2222:
.LBB2223:
.LBB2224:
.LBB2225:
.LBB2226:
	.loc 2 105 0
	lis 9,_ZTV7idCurveI6idVec4E+8@ha
.LBE2226:
.LBE2225:
.LBE2224:
.LBE2223:
.LBE2222:
.LBE2221:
.LBE2220:
.LBE2219:
.LBE2218:
	.loc 2 1798 0
	stw 31,12(1)
	mr 31,3
	.cfi_offset 31, -4
.LVL138:
	stw 0,20(1)
.LBB2275:
.LBB2273:
.LBB2271:
.LBB2269:
.LBB2267:
.LBB2265:
.LBB2263:
.LBB2261:
.LBB2259:
	.loc 2 105 0
	la 0,_ZTV7idCurveI6idVec4E+8@l(9)
	.cfi_offset 65, 4
.LBB2227:
.LBB2228:
.LBB2229:
.LBB2230:
	.loc 5 193 0
	lwz 3,32(3)
.LVL139:
.LBE2230:
.LBE2229:
.LBE2228:
.LBE2227:
	.loc 2 105 0
	stw 0,0(31)
.LVL140:
.LBB2240:
.LBB2237:
.LBB2234:
.LBB2231:
	.loc 5 193 0
	cmpwi 7,3,0
	beq- 7,.L143
	.loc 5 194 0
	bl _ZdaPv
.LVL141:
.L143:
.LBE2231:
.LBE2234:
.LBE2237:
.LBE2240:
.LBB2241:
.LBB2242:
.LBB2243:
.LBB2244:
	.loc 5 193 0
	lwz 3,16(31)
.LBE2244:
.LBE2243:
.LBE2242:
.LBE2241:
.LBB2254:
.LBB2238:
.LBB2235:
.LBB2232:
	.loc 5 197 0
	li 0,0
	stw 0,32(31)
.LBE2232:
.LBE2235:
.LBE2238:
.LBE2254:
.LBB2255:
.LBB2251:
.LBB2248:
.LBB2245:
	.loc 5 193 0
	cmpwi 7,3,0
.LBE2245:
.LBE2248:
.LBE2251:
.LBE2255:
.LBB2256:
.LBB2239:
.LBB2236:
.LBB2233:
	.loc 5 198 0
	stw 0,20(31)
	.loc 5 199 0
	stw 0,24(31)
.LVL142:
.LBE2233:
.LBE2236:
.LBE2239:
.LBE2256:
.LBB2257:
.LBB2252:
.LBB2249:
.LBB2246:
	.loc 5 193 0
	beq- 7,.L145
	.loc 5 194 0
	bl _ZdaPv
.L145:
	.loc 5 197 0
	li 0,0
.LBE2246:
.LBE2249:
.LBE2252:
.LBE2257:
.LBE2259:
.LBE2261:
.LBE2263:
.LBE2265:
.LBE2267:
.LBE2269:
.LBE2271:
.LBE2273:
.LBE2275:
	.loc 2 1798 0
	mr 3,31
.LBB2276:
.LBB2274:
.LBB2272:
.LBB2270:
.LBB2268:
.LBB2266:
.LBB2264:
.LBB2262:
.LBB2260:
.LBB2258:
.LBB2253:
.LBB2250:
.LBB2247:
	.loc 5 197 0
	stw 0,16(31)
	.loc 5 198 0
	stw 0,4(31)
	.loc 5 199 0
	stw 0,8(31)
.LBE2247:
.LBE2250:
.LBE2253:
.LBE2258:
.LBE2260:
.LBE2262:
.LBE2264:
.LBE2266:
.LBE2268:
.LBE2270:
.LBE2272:
.LBE2274:
.LBE2276:
	.loc 2 1798 0
	bl _ZdlPv
	lwz 0,20(1)
	lwz 31,12(1)
.LVL143:
	mtlr 0
	addi 1,1,16
.LCFI31:
	.cfi_def_cfa_offset 0
	.cfi_restore 31
	blr
	.cfi_endproc
.LFE2718:
	.size	_ZN15idCurve_BSplineI6idVec4ED0Ev, .-_ZN15idCurve_BSplineI6idVec4ED0Ev
	.section	.text._ZNK7idCurveI6idVec4E15GetCurrentValueEf,"axG",@progbits,_ZNK7idCurveI6idVec4E15GetCurrentValueEf,comdat
	.align 2
	.weak	_ZNK7idCurveI6idVec4E15GetCurrentValueEf
	.type	_ZNK7idCurveI6idVec4E15GetCurrentValueEf, @function
_ZNK7idCurveI6idVec4E15GetCurrentValueEf:
.LFB2732:
	.loc 2 134 0
	.cfi_startproc
.LVL144:
.LBB2325:
.LBB2326:
.LBB2327:
	.loc 2 391 0
	lwz 9,36(4)
.LBE2327:
	.loc 3 223 0
	lwz 11,4(4)
.LBB2334:
	.loc 2 391 0
	cmpwi 7,9,0
.LVL145:
	blt- 7,.L153
.LVL146:
	cmpw 6,9,11
	ble- 6,.L179
.LVL147:
.L153:
	.loc 2 415 0
	cmpwi 7,11,0
	ble- 7,.L172
	.loc 2 416 0
	srawi 0,11,1
.LVL148:
.LBE2334:
	.loc 3 223 0
	lwz 6,16(4)
.LVL149:
.LBB2335:
	.loc 2 417 0
	slwi 9,0,2
	li 8,0
	lfsx 0,6,9
	mr 9,0
	fcmpu 7,1,0
	bne+ 7,.L164
	b .L155
.LVL150:
.L181:
	.loc 2 415 0
	cmpwi 7,0,0
	.loc 2 421 0
	mr 8,9
.LVL151:
	.loc 2 416 0
	srawi 0,11,1
.LVL152:
	.loc 2 417 0
	add 9,0,8
.LVL153:
	slwi 10,9,2
	.loc 2 415 0
	ble- 7,.L180
.L168:
.LVL154:
	.loc 2 417 0
	lfsx 0,6,10
	fcmpu 7,1,0
	beq- 7,.L155
.LVL155:
.L164:
	.loc 2 419 0
	fcmpu 7,1,0
	.loc 2 421 0
	subf 11,0,11
.LVL156:
	.loc 2 422 0
	li 7,1
	.loc 2 419 0
	bgt- 7,.L181
.LVL157:
	.loc 2 415 0
	cmpwi 7,0,0
	.loc 2 416 0
	srawi 0,11,1
.LVL158:
	.loc 2 417 0
	add 9,0,8
.LVL159:
	.loc 2 425 0
	li 7,0
.LVL160:
	.loc 2 417 0
	slwi 10,9,2
	.loc 2 415 0
	bgt+ 7,.L168
.L180:
	add 9,8,7
.LVL161:
.L162:
	.loc 2 428 0
	stw 9,36(4)
.L155:
	.loc 3 223 0
	lwz 11,20(4)
.LBE2335:
.LBE2326:
.LBE2325:
.LBB2341:
.LBB2342:
.LBB2343:
	.loc 2 139 0
	lwz 10,32(4)
.LBE2343:
.LBE2342:
.LBE2341:
.LBB2348:
	.loc 2 138 0
	cmpw 7,11,9
	ble- 7,.L182
	.loc 2 141 0
	slwi 9,9,4
	add 11,10,9
	lwzx 8,10,9
	lwz 0,12(11)
	lwz 10,4(11)
	lwz 9,8(11)
	stw 8,0(3)
	stw 10,4(3)
	stw 9,8(3)
	stw 0,12(3)
	blr
.L179:
.LBB2339:
.LBB2336:
	.loc 2 393 0
	bne- 7,.L154
.LVL162:
	.loc 2 394 0
	lwz 10,16(4)
	lfs 0,0(10)
	fcmpu 7,1,0
	cror 30,28,30
	bne+ 7,.L153
	b .L155
.LVL163:
.L154:
	.loc 2 397 0
	beq- 6,.L183
.LBE2336:
	.loc 3 223 0
	lwz 10,16(4)
.LVL164:
.LBB2337:
.LBB2328:
.LBB2329:
	.loc 5 573 0
	addi 0,9,-1
.LBE2329:
.LBE2328:
	.loc 2 401 0
	slwi 0,0,2
	lfsx 0,10,0
.LBB2330:
.LBB2331:
	.loc 5 573 0
	slwi 0,9,2
.LBE2331:
.LBE2330:
	.loc 2 401 0
	fcmpu 7,1,0
	bng- 7,.L159
.LVL165:
	lfsx 0,10,0
	fcmpu 7,1,0
	cror 30,28,30
	beq- 7,.L155
.LVL166:
.L159:
	.loc 2 403 0
	lfsx 0,10,0
	fcmpu 7,1,0
	bng- 7,.L153
	addi 9,9,1
	cmpw 7,11,9
	beq- 7,.L162
.LVL167:
	slwi 0,9,2
	lfsx 0,10,0
	fcmpu 7,1,0
	cror 30,28,30
	bne- 7,.L153
	.loc 2 428 0
	stw 9,36(4)
	b .L155
.LVL168:
.L182:
.LBE2337:
.LBE2339:
.LBE2348:
.LBB2349:
.LBB2347:
.LBB2346:
.LBB2344:
.LBB2345:
	.loc 5 573 0
	addi 11,11,-1
.LVL169:
.LBE2345:
.LBE2344:
	.loc 2 139 0
	slwi 11,11,4
	add 9,10,11
	lwzx 8,10,11
	lwz 0,12(9)
	lwz 10,4(9)
	lwz 11,8(9)
	stw 8,0(3)
	stw 10,4(3)
	stw 11,8(3)
	stw 0,12(3)
	blr
.LVL170:
.L183:
.LBE2346:
.LBE2347:
.LBE2349:
.LBB2350:
.LBB2340:
.LBB2338:
.LBB2332:
.LBB2333:
	.loc 5 573 0
	addi 0,9,-1
.LBE2333:
.LBE2332:
	.loc 2 398 0
	lwz 10,16(4)
	slwi 0,0,2
	lfsx 0,10,0
	fcmpu 7,1,0
	bng+ 7,.L153
	b .L155
.LVL171:
.L172:
	.loc 2 415 0
	li 9,0
	.loc 2 428 0
	stw 9,36(4)
	b .L155
.LBE2338:
.LBE2340:
.LBE2350:
	.cfi_endproc
.LFE2732:
	.size	_ZNK7idCurveI6idVec4E15GetCurrentValueEf, .-_ZNK7idCurveI6idVec4E15GetCurrentValueEf
	.section	.text._ZN13idCurve_NURBSI6idVec4E8AddValueEfRKS0_f,"axG",@progbits,_ZN13idCurve_NURBSI6idVec4E8AddValueEfRKS0_f,comdat
	.align 2
	.weak	_ZN13idCurve_NURBSI6idVec4E8AddValueEfRKS0_f
	.type	_ZN13idCurve_NURBSI6idVec4E8AddValueEfRKS0_f, @function
_ZN13idCurve_NURBSI6idVec4E8AddValueEfRKS0_f:
.LFB2810:
	.loc 2 2387 0
	.cfi_startproc
.LVL172:
	mflr 0
	stwu 1,-48(1)
.LCFI32:
	.cfi_def_cfa_offset 48
	.cfi_register 65, 0
	mfcr 12
	stfd 31,40(1)
	fmr 31,2
	.cfi_offset 63, -8
	.cfi_register 70, 12
	stw 28,24(1)
	mr 28,4
	.cfi_offset 28, -24
	stw 31,36(1)
	mr 31,3
	.cfi_offset 31, -12
.LVL173:
	stw 0,52(1)
	stw 27,20(1)
	stw 29,28(1)
	stw 30,32(1)
	stw 12,16(1)
.LBB2438:
.LBB2439:
.LBB2440:
	.loc 2 391 0
	lwz 30,36(3)
	.cfi_offset 70, -32
	.cfi_offset 30, -16
	.cfi_offset 29, -20
	.cfi_offset 27, -28
	.cfi_offset 65, 4
.LVL174:
	cmpwi 4,30,0
	blt- 4,.L185
.LVL175:
.LBE2440:
	.loc 3 223 0
	lwz 9,4(3)
	lwz 29,16(3)
.LBB2445:
	.loc 2 391 0
	cmpw 7,30,9
	ble- 7,.L186
.LVL176:
.L187:
	.loc 2 415 0
	cmpwi 7,9,0
	ble- 7,.L267
	.loc 2 416 0
	srawi 30,9,1
.LVL177:
	.loc 2 417 0
	li 10,0
	slwi 0,30,2
	cmpwi 4,30,0
	lfsx 0,29,0
	mr 0,30
	fcmpu 7,0,1
	bne+ 7,.L198
	b .L189
.LVL178:
.L293:
	.loc 2 415 0
	cmpwi 7,0,0
	.loc 2 421 0
	mr 10,30
.LVL179:
	.loc 2 416 0
	srawi 0,9,1
.LVL180:
	.loc 2 417 0
	add 30,0,10
.LVL181:
	slwi 11,30,2
	.loc 2 415 0
	ble- 7,.L292
.L202:
.LVL182:
	.loc 2 417 0
	lfsx 0,29,11
	fcmpu 7,0,1
	beq- 7,.L289
.LVL183:
.L198:
	.loc 2 419 0
	fcmpu 7,0,1
	.loc 2 421 0
	subf 9,0,9
.LVL184:
	.loc 2 422 0
	li 8,1
	.loc 2 419 0
	blt- 7,.L293
.LVL185:
	.loc 2 415 0
	cmpwi 7,0,0
	.loc 2 416 0
	srawi 0,9,1
.LVL186:
	.loc 2 417 0
	add 30,0,10
.LVL187:
	.loc 2 425 0
	li 8,0
.LVL188:
	.loc 2 417 0
	slwi 11,30,2
	.loc 2 415 0
	bgt+ 7,.L202
.L292:
	add 30,10,8
.LVL189:
.L196:
	.loc 2 428 0
	stw 30,36(31)
.L289:
	cmpwi 4,30,0
.L189:
.LBE2445:
.LBE2439:
.LBB2453:
.LBB2454:
	.loc 5 688 0
	cmpwi 7,29,0
.LBE2454:
.LBE2453:
	.loc 2 2391 0
	addi 27,31,4
.LVL190:
.LBB2498:
.LBB2487:
	.loc 5 688 0
	beq- 7,.L203
	lwz 11,4(31)
	lwz 0,8(31)
.LVL191:
.L204:
.LBB2455:
	.loc 5 692 0
	cmpw 7,0,11
	beq- 7,.L294
.L211:
.LBE2455:
	.loc 5 702 0
	blt- 4,.L269
.L315:
	cmpw 7,11,30
	mr 0,11
	bgt- 7,.L295
.L220:
	slwi 10,0,2
.L219:
.LVL192:
.LBB2470:
	.loc 5 708 0
	cmpw 7,11,0
	ble- 7,.L221
	subf 0,0,11
.LVL193:
	slwi 9,11,2
	mtctr 0
	b .L223
.LVL194:
.L296:
	lwz 29,16(31)
.L223:
	.loc 5 709 0
	add 11,29,9
	lwz 0,-4(11)
	stwx 0,29,9
	.loc 5 708 0
	addi 9,9,-4
	bdnz .L296
	lwz 11,4(31)
	lwz 29,16(31)
.L221:
.LBE2470:
	.loc 5 711 0
	addi 11,11,1
.LBE2487:
.LBE2498:
	.loc 2 2392 0
	addi 27,31,20
.LVL195:
.LBB2499:
.LBB2488:
	.loc 5 711 0
	stw 11,4(31)
	.loc 5 712 0
	stfsx 1,29,10
.LBE2488:
.LBE2499:
.LBB2500:
.LBB2501:
	.loc 5 688 0
	lwz 29,32(31)
	cmpwi 7,29,0
	beq- 7,.L224
	lwz 9,20(31)
	lwz 0,24(31)
.L225:
.LBB2502:
	.loc 5 692 0
	cmpw 7,9,0
	beq- 7,.L297
.L232:
.LBE2502:
	.loc 5 702 0
	blt- 4,.L271
.L306:
	cmpw 7,9,30
	mr 0,9
	bgt- 7,.L298
.L241:
	slwi 6,0,4
.L240:
.LVL196:
.LBB2512:
	.loc 5 708 0
	cmpw 7,9,0
	ble- 7,.L242
	subf 0,0,9
.LVL197:
	slwi 11,9,4
	mtctr 0
	b .L244
.LVL198:
.L299:
	lwz 29,32(31)
.L244:
	.loc 5 709 0
	add 9,29,11
	lwz 8,-12(9)
	lwz 10,-8(9)
	lwz 0,-4(9)
	lwz 7,-16(9)
	stwx 7,29,11
	.loc 5 708 0
	addi 11,11,-16
	.loc 5 709 0
	stw 8,4(9)
	stw 10,8(9)
	stw 0,12(9)
	.loc 5 708 0
	bdnz .L299
	lwz 9,20(31)
	lwz 29,32(31)
.L242:
.LBE2512:
	.loc 5 711 0
	addi 9,9,1
	stw 9,20(31)
	.loc 5 712 0
	add 9,29,6
	lwz 8,0(28)
	lwz 10,4(28)
	lwz 11,8(28)
	lwz 0,12(28)
.LBE2501:
.LBE2500:
	.loc 2 2393 0
	addi 28,31,56
.LVL199:
.LBB2537:
.LBB2528:
	.loc 5 712 0
	stwx 8,29,6
	stw 10,4(9)
	stw 11,8(9)
	stw 0,12(9)
.LBE2528:
.LBE2537:
.LBB2538:
.LBB2539:
	.loc 5 688 0
	lwz 29,68(31)
	cmpwi 7,29,0
	beq- 7,.L245
	lwz 11,56(31)
	lwz 0,60(31)
.L246:
.LBB2540:
	.loc 5 692 0
	cmpw 7,11,0
	beq- 7,.L300
.L253:
.LBE2540:
	.loc 5 702 0
	blt- 4,.L273
.L310:
	cmpw 7,11,30
	mr 10,11
	bgt- 7,.L301
.L262:
	slwi 0,10,2
.L261:
.LVL200:
.LBB2552:
	.loc 5 708 0
	cmpw 7,10,11
	bge- 7,.L263
	subf 10,10,11
.LVL201:
	slwi 9,11,2
	mtctr 10
	b .L265
.LVL202:
.L302:
	lwz 29,68(31)
.L265:
	.loc 5 709 0
	add 11,29,9
	lwz 11,-4(11)
	stwx 11,29,9
	.loc 5 708 0
	addi 9,9,-4
	bdnz .L302
	lwz 11,56(31)
	lwz 29,68(31)
.L263:
.LBE2552:
	.loc 5 711 0
	addi 11,11,1
.LBE2539:
.LBE2538:
.LBE2438:
	.loc 2 2395 0
	mr 3,30
.LBB2607:
.LBB2577:
.LBB2568:
	.loc 5 711 0
	stw 11,56(31)
	.loc 5 712 0
	stfsx 31,29,0
.LBE2568:
.LBE2577:
.LBE2607:
	.loc 2 2395 0
	lwz 0,52(1)
	lwz 12,16(1)
	mtlr 0
	lwz 27,20(1)
.LVL203:
	lwz 28,24(1)
.LVL204:
	mtcrf 8,12
	lwz 29,28(1)
	lwz 30,32(1)
	lwz 31,36(1)
.LVL205:
	lfd 31,40(1)
.LVL206:
	addi 1,1,48
	.cfi_remember_state
.LCFI33:
	.cfi_def_cfa_offset 0
	.cfi_restore 70
	.cfi_restore 63
	.cfi_restore 31
	.cfi_restore 30
	.cfi_restore 29
	.cfi_restore 28
	.cfi_restore 27
	blr
.LVL207:
.L301:
.LCFI34:
	.cfi_restore_state
.LBB2608:
.LBB2578:
.LBB2569:
	.loc 5 702 0
	mr 10,30
	b .L262
.LVL208:
.L298:
.LBE2569:
.LBE2578:
.LBB2579:
.LBB2529:
	mr 0,30
	b .L241
.LVL209:
.L295:
.LBE2529:
.LBE2579:
.LBB2580:
.LBB2489:
	mr 0,30
	b .L220
.LVL210:
.L186:
.LBE2489:
.LBE2580:
.LBB2581:
.LBB2446:
	.loc 2 393 0
	bne- 4,.L188
.LVL211:
	.loc 2 394 0
	lfs 0,0(29)
	fcmpu 7,0,1
	cror 30,29,30
	bne+ 7,.L187
	b .L189
.LVL212:
.L297:
	lwz 11,28(31)
.L227:
.LBE2446:
.LBE2581:
.LBB2582:
.LBB2530:
.LBB2513:
.LBB2503:
	.loc 5 695 0
	cmpwi 7,11,0
	beq- 7,.L303
.L233:
	.loc 5 698 0
	add 10,0,11
.LVL213:
	.loc 5 699 0
	divw 10,10,11
.LVL214:
.LBB2504:
.LBB2505:
	.loc 5 375 0
	mullw. 11,10,11
.LVL215:
	ble- 0,.L304
	.loc 5 380 0
	cmpw 7,0,11
	beq- 7,.L232
.LVL216:
	.loc 5 387 0
	cmpw 7,11,9
	.loc 5 386 0
	stw 11,24(31)
	.loc 5 387 0
	bge- 7,.L236
	.loc 5 388 0
	stw 11,20(31)
.L236:
	.loc 5 392 0
	slwi 3,11,4
	bl _Znaj
.LVL217:
	.loc 5 393 0
	lwz 0,20(31)
	.loc 5 392 0
	stw 3,32(31)
.LVL218:
	.loc 5 393 0
	cmpwi 7,0,0
	ble- 7,.L237
	li 11,0
	li 8,0
	b .L238
.LVL219:
.L305:
	lwz 3,32(31)
.LVL220:
.L238:
	.loc 5 394 0
	mr 9,29
	add 10,3,11
	lwzux 5,9,11
	.loc 5 393 0
	addi 8,8,1
.LVL221:
	.loc 5 394 0
	lwz 0,12(9)
	lwz 6,4(9)
	lwz 7,8(9)
	stwx 5,3,11
	.loc 5 393 0
	addi 11,11,16
	.loc 5 394 0
	stw 6,4(10)
	stw 7,8(10)
	stw 0,12(10)
	.loc 5 393 0
	lwz 0,0(27)
	cmpw 7,8,0
	blt+ 7,.L305
.LVL222:
.L237:
	.loc 5 398 0
	cmpwi 7,29,0
	beq- 7,.L290
	.loc 5 399 0
	mr 3,29
	bl _ZdaPv
.L290:
	lwz 9,20(31)
	lwz 29,32(31)
.LVL223:
.LBE2505:
.LBE2504:
.LBE2503:
.LBE2513:
	.loc 5 702 0
	bge+ 4,.L306
.LVL224:
.L271:
	li 6,0
	.loc 5 703 0
	li 0,0
	b .L240
.LVL225:
.L300:
	lwz 9,64(31)
.L248:
.LBE2530:
.LBE2582:
.LBB2583:
.LBB2570:
.LBB2553:
.LBB2541:
	.loc 5 695 0
	cmpwi 7,9,0
	beq- 7,.L307
.L254:
	.loc 5 698 0
	add 10,0,9
.LVL226:
	.loc 5 699 0
	divw 10,10,9
.LVL227:
.LBB2542:
.LBB2543:
	.loc 5 375 0
	mullw. 9,10,9
.LVL228:
	ble- 0,.L308
	.loc 5 380 0
	cmpw 7,0,9
	beq- 7,.L253
.LVL229:
	.loc 5 387 0
	cmpw 7,11,9
	.loc 5 386 0
	stw 9,60(31)
	.loc 5 387 0
	ble- 7,.L257
	.loc 5 388 0
	stw 9,56(31)
.L257:
	.loc 5 392 0
	slwi 3,9,2
	bl _Znaj
.LVL230:
	.loc 5 393 0
	lwz 0,56(31)
	.loc 5 392 0
	stw 3,68(31)
.LVL231:
	.loc 5 393 0
	cmpwi 7,0,0
	ble- 7,.L258
	.loc 2 2387 0
	addi 11,29,-4
.LBE2543:
.LBE2542:
	.loc 5 393 0
	li 9,0
	b .L259
.LVL232:
.L309:
.LBB2548:
.LBB2546:
	lwz 3,68(31)
.LVL233:
.L259:
	.loc 5 394 0
	lwzu 10,4(11)
	slwi 0,9,2
	.loc 5 393 0
	addi 9,9,1
.LVL234:
	.loc 5 394 0
	stwx 10,3,0
	.loc 5 393 0
	lwz 0,0(28)
	cmpw 7,9,0
	blt+ 7,.L309
.LVL235:
.L258:
	.loc 5 398 0
	cmpwi 7,29,0
	beq- 7,.L291
	.loc 5 399 0
	mr 3,29
	bl _ZdaPv
.L291:
	lwz 11,56(31)
	lwz 29,68(31)
.LVL236:
.LBE2546:
.LBE2548:
.LBE2541:
.LBE2553:
	.loc 5 702 0
	bge+ 4,.L310
.LVL237:
.L273:
	li 0,0
	.loc 5 703 0
	li 10,0
	b .L261
.LVL238:
.L294:
	lwz 9,12(31)
.L206:
.LBE2570:
.LBE2583:
.LBB2584:
.LBB2490:
.LBB2471:
.LBB2456:
	.loc 5 695 0
	cmpwi 7,9,0
	beq- 7,.L311
.L212:
	.loc 5 698 0
	add 10,0,9
.LVL239:
	.loc 5 699 0
	divw 10,10,9
.LVL240:
.LBB2457:
.LBB2458:
	.loc 5 375 0
	mullw. 9,10,9
.LVL241:
	ble- 0,.L312
	.loc 5 380 0
	cmpw 7,0,9
	beq- 7,.L211
.LVL242:
	.loc 5 387 0
	cmpw 7,9,11
	.loc 5 386 0
	stw 9,8(31)
	.loc 5 387 0
	bge- 7,.L215
	.loc 5 388 0
	stw 9,4(31)
.L215:
	.loc 5 392 0
	slwi 3,9,2
	stfd 1,8(1)
	bl _Znaj
.LVL243:
	.loc 5 393 0
	lwz 0,4(31)
	.loc 5 392 0
	stw 3,16(31)
.LVL244:
	.loc 5 393 0
	cmpwi 7,0,0
	lfd 1,8(1)
	ble- 7,.L216
	.loc 2 2387 0
	addi 11,29,-4
.LBE2458:
.LBE2457:
	.loc 5 393 0
	li 9,0
	b .L217
.LVL245:
.L313:
.LBB2464:
.LBB2461:
	lwz 3,16(31)
.LVL246:
.L217:
	.loc 5 394 0
	lwzu 10,4(11)
	slwi 0,9,2
	.loc 5 393 0
	addi 9,9,1
.LVL247:
	.loc 5 394 0
	stwx 10,3,0
	.loc 5 393 0
	lwz 0,0(27)
	cmpw 7,9,0
	blt+ 7,.L313
.LVL248:
.L216:
	.loc 5 398 0
	cmpwi 7,29,0
	beq- 7,.L314
	.loc 5 399 0
	mr 3,29
	stfd 1,8(1)
	bl _ZdaPv
	lwz 11,4(31)
	lwz 29,16(31)
.LVL249:
	lfd 1,8(1)
.LBE2461:
.LBE2464:
.LBE2456:
.LBE2471:
	.loc 5 702 0
	bge+ 4,.L315
.LVL250:
.L269:
	li 10,0
	.loc 5 703 0
	li 0,0
	b .L219
.LVL251:
.L188:
.LBE2490:
.LBE2584:
.LBB2585:
.LBB2447:
.LBB2441:
.LBB2442:
	.loc 5 573 0
	addi 0,30,-1
.LBE2442:
.LBE2441:
	.loc 2 398 0
	slwi 0,0,2
	lfsx 0,29,0
	.loc 2 397 0
	beq- 7,.L316
	.loc 2 401 0
	fcmpu 7,0,1
.LBB2443:
.LBB2444:
	.loc 5 573 0
	slwi 0,30,2
.LBE2444:
.LBE2443:
	.loc 2 401 0
	bnl- 7,.L193
.LVL252:
	lfsx 0,29,0
	fcmpu 7,0,1
	cror 30,29,30
	beq- 7,.L189
.LVL253:
.L193:
	.loc 2 403 0
	lfsx 0,29,0
	fcmpu 7,0,1
	bnl- 7,.L187
	addi 30,30,1
.LVL254:
	cmpw 7,9,30
	beq- 7,.L196
.LVL255:
	slwi 0,30,2
	lfsx 0,29,0
	fcmpu 7,0,1
	cror 30,29,30
	bne- 7,.L187
	.loc 2 428 0
	stw 30,36(31)
	b .L289
.LVL256:
.L185:
.LBE2447:
.LBB2448:
.LBB2449:
.LBB2450:
	.loc 2 405 0
	lwz 29,16(3)
	lwz 9,4(3)
	b .L187
.LVL257:
.L311:
.LBE2450:
.LBE2449:
.LBE2448:
.LBE2585:
.LBB2586:
.LBB2491:
.LBB2472:
.LBB2467:
	.loc 5 696 0
	li 9,16
	stw 9,12(31)
	b .L212
.LVL258:
.L307:
.LBE2467:
.LBE2472:
.LBE2491:
.LBE2586:
.LBB2587:
.LBB2571:
.LBB2554:
.LBB2550:
	li 9,16
	stw 9,64(31)
	b .L254
.LVL259:
.L303:
.LBE2550:
.LBE2554:
.LBE2571:
.LBE2587:
.LBB2588:
.LBB2531:
.LBB2514:
.LBB2510:
	li 11,16
	stw 11,28(31)
	b .L233
.LVL260:
.L316:
.LBE2510:
.LBE2514:
.LBE2531:
.LBE2588:
.LBB2589:
.LBB2451:
	.loc 2 398 0
	fcmpu 7,0,1
	bnl+ 7,.L187
	b .L189
.LVL261:
.L224:
.LBE2451:
.LBE2589:
.LBB2590:
.LBB2532:
	.loc 5 689 0
	lwz 0,28(31)
.LBB2515:
.LBB2516:
	.loc 5 375 0
	cmpwi 7,0,0
.LBE2516:
.LBE2515:
	.loc 5 689 0
	mr 11,0
.LVL262:
.LBB2523:
.LBB2519:
	.loc 5 375 0
	ble- 7,.L317
	.loc 5 380 0
	lwz 9,24(31)
	cmpw 7,0,9
	beq- 7,.L318
.LVL263:
	.loc 5 387 0
	lwz 0,20(31)
	.loc 5 386 0
	stw 11,24(31)
	.loc 5 387 0
	cmpw 7,11,0
	bge- 7,.L229
	.loc 5 388 0
	stw 11,20(31)
.L229:
	.loc 5 392 0
	slwi 3,11,4
	bl _Znaj
.LVL264:
	.loc 5 393 0
	lwz 9,20(31)
	.loc 5 392 0
	mr 29,3
	stw 3,32(31)
.LVL265:
	.loc 5 393 0
	cmpwi 7,9,0
	li 11,0
	li 10,0
	bgt+ 7,.L282
	b .L329
.LVL266:
.L320:
	lwz 29,32(31)
.LVL267:
.L282:
	.loc 5 394 0
	lwz 6,0(11)
	add 9,29,11
	lwz 7,4(11)
	.loc 5 393 0
	addi 10,10,1
.LVL268:
	.loc 5 394 0
	lwz 8,8(11)
	lwz 0,12(11)
	stwx 6,29,11
	.loc 5 393 0
	addi 11,11,16
	.loc 5 394 0
	stw 7,4(9)
	stw 8,8(9)
	stw 0,12(9)
	.loc 5 393 0
	lwz 9,0(27)
	cmpw 7,10,9
	blt+ 7,.L320
	lwz 0,24(31)
	lwz 29,32(31)
	b .L225
.LVL269:
.L203:
.LBE2519:
.LBE2523:
.LBE2532:
.LBE2590:
.LBB2591:
.LBB2492:
	.loc 5 689 0
	lwz 0,12(31)
.LBB2473:
.LBB2474:
	.loc 5 375 0
	cmpwi 7,0,0
.LBE2474:
.LBE2473:
	.loc 5 689 0
	mr 9,0
.LVL270:
.LBB2481:
.LBB2477:
	.loc 5 375 0
	ble- 7,.L321
	.loc 5 380 0
	lwz 11,8(31)
	cmpw 7,0,11
	beq- 7,.L322
.LVL271:
	.loc 5 387 0
	lwz 0,4(31)
	.loc 5 386 0
	stw 9,8(31)
	.loc 5 387 0
	cmpw 7,9,0
	bge- 7,.L208
	.loc 5 388 0
	stw 9,4(31)
.L208:
	.loc 5 392 0
	slwi 3,9,2
	stfd 1,8(1)
	bl _Znaj
.LVL272:
	.loc 5 393 0
	lwz 11,4(31)
	.loc 5 392 0
	stw 3,16(31)
.LVL273:
	mr 29,3
	.loc 5 393 0
	cmpwi 7,11,0
	li 9,0
	li 10,0
	lfd 1,8(1)
	bgt+ 7,.L281
	b .L330
.LVL274:
.L324:
	lwz 29,16(31)
.LVL275:
.L281:
	.loc 5 394 0
	lwz 0,0(9)
	.loc 5 393 0
	addi 10,10,1
.LVL276:
	.loc 5 394 0
	stwx 0,29,9
	.loc 5 393 0
	addi 9,9,4
	lwz 11,0(27)
	cmpw 7,10,11
	blt+ 7,.L324
	lwz 0,8(31)
	lwz 29,16(31)
	b .L204
.LVL277:
.L245:
.LBE2477:
.LBE2481:
.LBE2492:
.LBE2591:
.LBB2592:
.LBB2572:
	.loc 5 689 0
	lwz 0,64(31)
.LBB2555:
.LBB2556:
	.loc 5 375 0
	cmpwi 7,0,0
.LBE2556:
.LBE2555:
	.loc 5 689 0
	mr 9,0
.LVL278:
.LBB2563:
.LBB2559:
	.loc 5 375 0
	ble- 7,.L325
	.loc 5 380 0
	lwz 11,60(31)
	cmpw 7,0,11
	beq- 7,.L326
.LVL279:
	.loc 5 387 0
	lwz 0,56(31)
	.loc 5 386 0
	stw 9,60(31)
	.loc 5 387 0
	cmpw 7,9,0
	bge- 7,.L250
	.loc 5 388 0
	stw 9,56(31)
.L250:
	.loc 5 392 0
	slwi 3,9,2
	bl _Znaj
.LVL280:
	.loc 5 393 0
	lwz 11,56(31)
	.loc 5 392 0
	mr 29,3
	stw 3,68(31)
.LVL281:
	.loc 5 393 0
	cmpwi 7,11,0
	li 9,0
	li 10,0
	bgt+ 7,.L283
	b .L331
.LVL282:
.L328:
	lwz 29,68(31)
.LVL283:
.L283:
	.loc 5 394 0
	lwz 0,0(9)
	.loc 5 393 0
	addi 10,10,1
.LVL284:
	.loc 5 394 0
	stwx 0,29,9
	.loc 5 393 0
	addi 9,9,4
	lwz 11,0(28)
	cmpw 7,10,11
	blt+ 7,.L328
	lwz 0,60(31)
	lwz 29,68(31)
	b .L246
.LVL285:
.L314:
.LBE2559:
.LBE2563:
.LBE2572:
.LBE2592:
.LBB2593:
.LBB2493:
.LBB2482:
.LBB2468:
.LBB2465:
.LBB2462:
	.loc 5 398 0
	lwz 11,4(31)
	lwz 29,16(31)
.LVL286:
	b .L211
.LVL287:
.L326:
.LBE2462:
.LBE2465:
.LBE2468:
.LBE2482:
.LBE2493:
.LBE2593:
.LBB2594:
.LBB2573:
.LBB2564:
.LBB2560:
	.loc 5 380 0
	lwz 11,56(31)
	b .L246
.LVL288:
.L322:
.LBE2560:
.LBE2564:
.LBE2573:
.LBE2594:
.LBB2595:
.LBB2494:
.LBB2483:
.LBB2478:
	lwz 11,4(31)
	b .L204
.LVL289:
.L318:
.LBE2478:
.LBE2483:
.LBE2494:
.LBE2595:
.LBB2596:
.LBB2533:
.LBB2524:
.LBB2520:
	lwz 9,20(31)
	b .L225
.LVL290:
.L267:
.LBE2520:
.LBE2524:
.LBE2533:
.LBE2596:
.LBB2597:
.LBB2452:
	.loc 2 415 0
	li 30,0
	.loc 2 428 0
	stw 30,36(31)
	b .L289
.LVL291:
.L304:
.LBE2452:
.LBE2597:
.LBB2598:
.LBB2534:
.LBB2525:
.LBB2511:
.LBB2509:
.LBB2508:
.LBB2506:
.LBB2507:
	.loc 5 193 0
	cmpwi 7,29,0
	beq- 7,.L235
	.loc 5 194 0
	mr 3,29
	bl _ZdaPv
.LVL292:
.L235:
	.loc 5 197 0
	li 0,0
	.loc 5 199 0
	li 29,0
	.loc 5 197 0
	stw 0,32(31)
	.loc 5 199 0
	li 9,0
	.loc 5 198 0
	stw 0,20(31)
	.loc 5 199 0
	stw 0,24(31)
	b .L232
.LVL293:
.L308:
.LBE2507:
.LBE2506:
.LBE2508:
.LBE2509:
.LBE2511:
.LBE2525:
.LBE2534:
.LBE2598:
.LBB2599:
.LBB2574:
.LBB2565:
.LBB2551:
.LBB2549:
.LBB2547:
.LBB2544:
.LBB2545:
	.loc 5 193 0
	cmpwi 7,29,0
	beq- 7,.L256
	.loc 5 194 0
	mr 3,29
	bl _ZdaPv
.LVL294:
.L256:
	.loc 5 197 0
	li 0,0
	.loc 5 199 0
	li 29,0
	.loc 5 197 0
	stw 0,68(31)
	.loc 5 199 0
	li 11,0
	.loc 5 198 0
	stw 0,56(31)
	.loc 5 199 0
	stw 0,60(31)
	b .L253
.LVL295:
.L312:
.LBE2545:
.LBE2544:
.LBE2547:
.LBE2549:
.LBE2551:
.LBE2565:
.LBE2574:
.LBE2599:
.LBB2600:
.LBB2495:
.LBB2484:
.LBB2469:
.LBB2466:
.LBB2463:
.LBB2459:
.LBB2460:
	.loc 5 193 0
	cmpwi 7,29,0
	beq- 7,.L214
	.loc 5 194 0
	mr 3,29
	stfd 1,8(1)
	bl _ZdaPv
.LVL296:
	lfd 1,8(1)
.L214:
	.loc 5 197 0
	li 0,0
	.loc 5 199 0
	li 29,0
	.loc 5 197 0
	stw 0,16(31)
	.loc 5 199 0
	li 11,0
	.loc 5 198 0
	stw 0,4(31)
	.loc 5 199 0
	stw 0,8(31)
	b .L211
.LVL297:
.L325:
.LBE2460:
.LBE2459:
.LBE2463:
.LBE2466:
.LBE2469:
.LBE2484:
.LBE2495:
.LBE2600:
.LBB2601:
.LBB2575:
.LBB2566:
.LBB2561:
.LBB2557:
.LBB2558:
	.loc 5 198 0
	stw 29,56(31)
	.loc 5 199 0
	li 0,0
.LVL298:
	stw 29,60(31)
	li 11,0
	b .L248
.LVL299:
.L321:
.LBE2558:
.LBE2557:
.LBE2561:
.LBE2566:
.LBE2575:
.LBE2601:
.LBB2602:
.LBB2496:
.LBB2485:
.LBB2479:
.LBB2475:
.LBB2476:
	.loc 5 197 0
	stw 29,16(31)
	.loc 5 199 0
	li 11,0
	.loc 5 198 0
	stw 29,4(31)
	.loc 5 199 0
	li 0,0
.LVL300:
	stw 29,8(31)
	b .L206
.LVL301:
.L317:
.LBE2476:
.LBE2475:
.LBE2479:
.LBE2485:
.LBE2496:
.LBE2602:
.LBB2603:
.LBB2535:
.LBB2526:
.LBB2521:
.LBB2517:
.LBB2518:
	.loc 5 198 0
	stw 29,20(31)
	.loc 5 199 0
	li 0,0
.LVL302:
	stw 29,24(31)
	li 9,0
	b .L227
.LVL303:
.L330:
.LBE2518:
.LBE2517:
.LBE2521:
.LBE2526:
.LBE2535:
.LBE2603:
.LBB2604:
.LBB2497:
.LBB2486:
.LBB2480:
	.loc 5 393 0
	lwz 0,8(31)
	b .L204
.LVL304:
.L329:
.LBE2480:
.LBE2486:
.LBE2497:
.LBE2604:
.LBB2605:
.LBB2536:
.LBB2527:
.LBB2522:
	lwz 0,24(31)
	b .L225
.LVL305:
.L331:
.LBE2522:
.LBE2527:
.LBE2536:
.LBE2605:
.LBB2606:
.LBB2576:
.LBB2567:
.LBB2562:
	lwz 0,60(31)
	b .L246
.LBE2562:
.LBE2567:
.LBE2576:
.LBE2606:
.LBE2608:
	.cfi_endproc
.LFE2810:
	.size	_ZN13idCurve_NURBSI6idVec4E8AddValueEfRKS0_f, .-_ZN13idCurve_NURBSI6idVec4E8AddValueEfRKS0_f
	.section	.text._ZN13idCurve_NURBSI6idVec4E8AddValueEfRKS0_,"axG",@progbits,_ZN13idCurve_NURBSI6idVec4E8AddValueEfRKS0_,comdat
	.align 2
	.weak	_ZN13idCurve_NURBSI6idVec4E8AddValueEfRKS0_
	.type	_ZN13idCurve_NURBSI6idVec4E8AddValueEfRKS0_, @function
_ZN13idCurve_NURBSI6idVec4E8AddValueEfRKS0_:
.LFB2725:
	.loc 2 2368 0
	.cfi_startproc
.LVL306:
	mflr 0
	stwu 1,-40(1)
.LCFI35:
	.cfi_def_cfa_offset 40
	.cfi_register 65, 0
	mfcr 12
	stw 28,24(1)
	mr 28,4
	.cfi_offset 28, -16
	.cfi_register 70, 12
	stw 31,36(1)
	mr 31,3
	.cfi_offset 31, -4
.LVL307:
	stw 0,44(1)
	stw 27,20(1)
	stw 29,28(1)
	stw 30,32(1)
	stw 12,16(1)
.LBB2696:
.LBB2697:
.LBB2698:
	.loc 2 391 0
	lwz 30,36(3)
	.cfi_offset 70, -24
	.cfi_offset 30, -8
	.cfi_offset 29, -12
	.cfi_offset 27, -20
	.cfi_offset 65, 4
.LVL308:
	cmpwi 4,30,0
	blt- 4,.L333
.LVL309:
.LBE2698:
	.loc 3 223 0
	lwz 9,4(3)
	lwz 29,16(3)
.LBB2703:
	.loc 2 391 0
	cmpw 7,30,9
	ble- 7,.L334
.LVL310:
.L335:
	.loc 2 415 0
	cmpwi 7,9,0
	ble- 7,.L415
	.loc 2 416 0
	srawi 30,9,1
.LVL311:
	.loc 2 417 0
	li 10,0
	slwi 0,30,2
	cmpwi 4,30,0
	lfsx 0,29,0
	mr 0,30
	fcmpu 7,1,0
	bne+ 7,.L346
	b .L337
.LVL312:
.L441:
	.loc 2 415 0
	cmpwi 7,0,0
	.loc 2 421 0
	mr 10,30
.LVL313:
	.loc 2 416 0
	srawi 0,9,1
.LVL314:
	.loc 2 417 0
	add 30,0,10
.LVL315:
	slwi 11,30,2
	.loc 2 415 0
	ble- 7,.L440
.L350:
.LVL316:
	.loc 2 417 0
	lfsx 0,29,11
	fcmpu 7,1,0
	beq- 7,.L437
.LVL317:
.L346:
	.loc 2 419 0
	fcmpu 7,1,0
	.loc 2 421 0
	subf 9,0,9
.LVL318:
	.loc 2 422 0
	li 8,1
	.loc 2 419 0
	bgt- 7,.L441
.LVL319:
	.loc 2 415 0
	cmpwi 7,0,0
	.loc 2 416 0
	srawi 0,9,1
.LVL320:
	.loc 2 417 0
	add 30,0,10
.LVL321:
	.loc 2 425 0
	li 8,0
.LVL322:
	.loc 2 417 0
	slwi 11,30,2
	.loc 2 415 0
	bgt+ 7,.L350
.L440:
	add 30,10,8
.LVL323:
.L344:
	.loc 2 428 0
	stw 30,36(31)
.L437:
	cmpwi 4,30,0
.L337:
.LBE2703:
.LBE2697:
.LBB2711:
.LBB2712:
	.loc 5 688 0
	cmpwi 7,29,0
.LBE2712:
.LBE2711:
	.loc 2 2372 0
	addi 27,31,4
.LVL324:
.LBB2756:
.LBB2745:
	.loc 5 688 0
	beq- 7,.L351
	lwz 11,4(31)
	lwz 0,8(31)
.LVL325:
.L352:
.LBB2713:
	.loc 5 692 0
	cmpw 7,0,11
	beq- 7,.L442
.L359:
.LBE2713:
	.loc 5 702 0
	blt- 4,.L417
.L463:
	cmpw 7,11,30
	mr 0,11
	bgt- 7,.L443
.L368:
	slwi 10,0,2
.L367:
.LVL326:
.LBB2728:
	.loc 5 708 0
	cmpw 7,11,0
	ble- 7,.L369
	subf 0,0,11
.LVL327:
	slwi 9,11,2
	mtctr 0
	b .L371
.LVL328:
.L444:
	lwz 29,16(31)
.L371:
	.loc 5 709 0
	add 11,29,9
	lwz 0,-4(11)
	stwx 0,29,9
	.loc 5 708 0
	addi 9,9,-4
	bdnz .L444
	lwz 11,4(31)
	lwz 29,16(31)
.L369:
.LBE2728:
	.loc 5 711 0
	addi 11,11,1
.LBE2745:
.LBE2756:
	.loc 2 2373 0
	addi 27,31,20
.LVL329:
.LBB2757:
.LBB2746:
	.loc 5 711 0
	stw 11,4(31)
	.loc 5 712 0
	stfsx 1,29,10
.LBE2746:
.LBE2757:
.LBB2758:
.LBB2759:
	.loc 5 688 0
	lwz 29,32(31)
	cmpwi 7,29,0
	beq- 7,.L372
	lwz 9,20(31)
	lwz 0,24(31)
.L373:
.LBB2760:
	.loc 5 692 0
	cmpw 7,9,0
	beq- 7,.L445
.L380:
.LBE2760:
	.loc 5 702 0
	blt- 4,.L419
.L454:
	cmpw 7,9,30
	mr 0,9
	bgt- 7,.L446
.L389:
	slwi 6,0,4
.L388:
.LVL330:
.LBB2770:
	.loc 5 708 0
	cmpw 7,9,0
	ble- 7,.L390
	subf 0,0,9
.LVL331:
	slwi 11,9,4
	mtctr 0
	b .L392
.LVL332:
.L447:
	lwz 29,32(31)
.L392:
	.loc 5 709 0
	add 9,29,11
	lwz 8,-12(9)
	lwz 10,-8(9)
	lwz 0,-4(9)
	lwz 7,-16(9)
	stwx 7,29,11
	.loc 5 708 0
	addi 11,11,-16
	.loc 5 709 0
	stw 8,4(9)
	stw 10,8(9)
	stw 0,12(9)
	.loc 5 708 0
	bdnz .L447
	lwz 9,20(31)
	lwz 29,32(31)
.L390:
.LBE2770:
	.loc 5 711 0
	addi 9,9,1
	stw 9,20(31)
	.loc 5 712 0
	add 9,29,6
	lwz 8,0(28)
	lwz 10,4(28)
	lwz 11,8(28)
	lwz 0,12(28)
.LBE2759:
.LBE2758:
	.loc 2 2374 0
	addi 28,31,56
.LVL333:
.LBB2795:
.LBB2786:
	.loc 5 712 0
	stwx 8,29,6
	stw 10,4(9)
	stw 11,8(9)
	stw 0,12(9)
.LBE2786:
.LBE2795:
.LBB2796:
.LBB2797:
	.loc 5 688 0
	lwz 29,68(31)
	cmpwi 7,29,0
	beq- 7,.L393
	lwz 10,56(31)
	lwz 0,60(31)
.L394:
.LBB2798:
	.loc 5 692 0
	cmpw 7,0,10
	beq- 7,.L448
.L401:
.LBE2798:
	.loc 5 702 0
	blt- 4,.L421
.L458:
	cmpw 7,10,30
	mr 0,10
	bgt- 7,.L449
.L410:
	slwi 11,0,2
.L409:
.LVL334:
.LBB2810:
	.loc 5 708 0
	cmpw 7,0,10
	bge- 7,.L411
	subf 0,0,10
.LVL335:
	slwi 9,10,2
	mtctr 0
	b .L413
.LVL336:
.L450:
	lwz 29,68(31)
.L413:
	.loc 5 709 0
	add 10,29,9
	lwz 0,-4(10)
	stwx 0,29,9
	.loc 5 708 0
	addi 9,9,-4
	bdnz .L450
	lwz 10,56(31)
	lwz 29,68(31)
.L411:
.LBE2810:
	.loc 5 712 0
	lis 9,.LC1@ha
	.loc 5 711 0
	addi 10,10,1
	.loc 5 712 0
	lwz 0,.LC1@l(9)
.LBE2797:
.LBE2796:
.LBE2696:
	.loc 2 2376 0
	mr 3,30
.LBB2865:
.LBB2835:
.LBB2826:
	.loc 5 711 0
	stw 10,56(31)
	.loc 5 712 0
	stwx 0,29,11
.LBE2826:
.LBE2835:
.LBE2865:
	.loc 2 2376 0
	lwz 0,44(1)
	lwz 12,16(1)
	mtlr 0
	lwz 27,20(1)
.LVL337:
	lwz 28,24(1)
.LVL338:
	mtcrf 8,12
	lwz 29,28(1)
	lwz 30,32(1)
	lwz 31,36(1)
.LVL339:
	addi 1,1,40
	.cfi_remember_state
.LCFI36:
	.cfi_def_cfa_offset 0
	.cfi_restore 70
	.cfi_restore 31
	.cfi_restore 30
	.cfi_restore 29
	.cfi_restore 28
	.cfi_restore 27
	blr
.LVL340:
.L449:
.LCFI37:
	.cfi_restore_state
.LBB2866:
.LBB2836:
.LBB2827:
	.loc 5 702 0
	mr 0,30
	b .L410
.LVL341:
.L446:
.LBE2827:
.LBE2836:
.LBB2837:
.LBB2787:
	mr 0,30
	b .L389
.LVL342:
.L443:
.LBE2787:
.LBE2837:
.LBB2838:
.LBB2747:
	mr 0,30
	b .L368
.LVL343:
.L334:
.LBE2747:
.LBE2838:
.LBB2839:
.LBB2704:
	.loc 2 393 0
	bne- 4,.L336
.LVL344:
	.loc 2 394 0
	lfs 0,0(29)
	fcmpu 7,1,0
	cror 30,28,30
	bne+ 7,.L335
	b .L337
.LVL345:
.L445:
	lwz 11,28(31)
.L375:
.LBE2704:
.LBE2839:
.LBB2840:
.LBB2788:
.LBB2771:
.LBB2761:
	.loc 5 695 0
	cmpwi 7,11,0
	beq- 7,.L451
.L381:
	.loc 5 698 0
	add 10,0,11
.LVL346:
	.loc 5 699 0
	divw 10,10,11
.LVL347:
.LBB2762:
.LBB2763:
	.loc 5 375 0
	mullw. 11,10,11
.LVL348:
	ble- 0,.L452
	.loc 5 380 0
	cmpw 7,0,11
	beq- 7,.L380
.LVL349:
	.loc 5 387 0
	cmpw 7,11,9
	.loc 5 386 0
	stw 11,24(31)
	.loc 5 387 0
	bge- 7,.L384
	.loc 5 388 0
	stw 11,20(31)
.L384:
	.loc 5 392 0
	slwi 3,11,4
	bl _Znaj
.LVL350:
	.loc 5 393 0
	lwz 0,20(31)
	.loc 5 392 0
	stw 3,32(31)
.LVL351:
	.loc 5 393 0
	cmpwi 7,0,0
	ble- 7,.L385
	li 11,0
	li 8,0
	b .L386
.LVL352:
.L453:
	lwz 3,32(31)
.LVL353:
.L386:
	.loc 5 394 0
	mr 9,29
	add 10,3,11
	lwzux 5,9,11
	.loc 5 393 0
	addi 8,8,1
.LVL354:
	.loc 5 394 0
	lwz 0,12(9)
	lwz 6,4(9)
	lwz 7,8(9)
	stwx 5,3,11
	.loc 5 393 0
	addi 11,11,16
	.loc 5 394 0
	stw 6,4(10)
	stw 7,8(10)
	stw 0,12(10)
	.loc 5 393 0
	lwz 0,0(27)
	cmpw 7,8,0
	blt+ 7,.L453
.LVL355:
.L385:
	.loc 5 398 0
	cmpwi 7,29,0
	beq- 7,.L438
	.loc 5 399 0
	mr 3,29
	bl _ZdaPv
.L438:
	lwz 9,20(31)
	lwz 29,32(31)
.LVL356:
.LBE2763:
.LBE2762:
.LBE2761:
.LBE2771:
	.loc 5 702 0
	bge+ 4,.L454
.LVL357:
.L419:
	li 6,0
	.loc 5 703 0
	li 0,0
	b .L388
.LVL358:
.L448:
	lwz 9,64(31)
.L396:
.LBE2788:
.LBE2840:
.LBB2841:
.LBB2828:
.LBB2811:
.LBB2799:
	.loc 5 695 0
	cmpwi 7,9,0
	beq- 7,.L455
.L402:
	.loc 5 698 0
	add 11,0,9
.LVL359:
	.loc 5 699 0
	divw 11,11,9
.LVL360:
.LBB2800:
.LBB2801:
	.loc 5 375 0
	mullw. 9,11,9
.LVL361:
	ble- 0,.L456
	.loc 5 380 0
	cmpw 7,0,9
	beq- 7,.L401
.LVL362:
	.loc 5 387 0
	cmpw 7,10,9
	.loc 5 386 0
	stw 9,60(31)
	.loc 5 387 0
	ble- 7,.L405
	.loc 5 388 0
	stw 9,56(31)
.L405:
	.loc 5 392 0
	slwi 3,9,2
	bl _Znaj
.LVL363:
	.loc 5 393 0
	lwz 0,56(31)
	.loc 5 392 0
	stw 3,68(31)
.LVL364:
	.loc 5 393 0
	cmpwi 7,0,0
	ble- 7,.L406
	.loc 2 2368 0
	addi 11,29,-4
.LBE2801:
.LBE2800:
	.loc 5 393 0
	li 9,0
	b .L407
.LVL365:
.L457:
.LBB2806:
.LBB2804:
	lwz 3,68(31)
.LVL366:
.L407:
	.loc 5 394 0
	lwzu 10,4(11)
	slwi 0,9,2
	.loc 5 393 0
	addi 9,9,1
.LVL367:
	.loc 5 394 0
	stwx 10,3,0
	.loc 5 393 0
	lwz 0,0(28)
	cmpw 7,9,0
	blt+ 7,.L457
.LVL368:
.L406:
	.loc 5 398 0
	cmpwi 7,29,0
	beq- 7,.L439
	.loc 5 399 0
	mr 3,29
	bl _ZdaPv
.L439:
	lwz 10,56(31)
	lwz 29,68(31)
.LVL369:
.LBE2804:
.LBE2806:
.LBE2799:
.LBE2811:
	.loc 5 702 0
	bge+ 4,.L458
.LVL370:
.L421:
	li 11,0
	.loc 5 703 0
	li 0,0
	b .L409
.LVL371:
.L442:
	lwz 9,12(31)
.L354:
.LBE2828:
.LBE2841:
.LBB2842:
.LBB2748:
.LBB2729:
.LBB2714:
	.loc 5 695 0
	cmpwi 7,9,0
	beq- 7,.L459
.L360:
	.loc 5 698 0
	add 10,0,9
.LVL372:
	.loc 5 699 0
	divw 10,10,9
.LVL373:
.LBB2715:
.LBB2716:
	.loc 5 375 0
	mullw. 9,10,9
.LVL374:
	ble- 0,.L460
	.loc 5 380 0
	cmpw 7,0,9
	beq- 7,.L359
.LVL375:
	.loc 5 387 0
	cmpw 7,9,11
	.loc 5 386 0
	stw 9,8(31)
	.loc 5 387 0
	bge- 7,.L363
	.loc 5 388 0
	stw 9,4(31)
.L363:
	.loc 5 392 0
	slwi 3,9,2
	stfd 1,8(1)
	bl _Znaj
.LVL376:
	.loc 5 393 0
	lwz 0,4(31)
	.loc 5 392 0
	stw 3,16(31)
.LVL377:
	.loc 5 393 0
	cmpwi 7,0,0
	lfd 1,8(1)
	ble- 7,.L364
	.loc 2 2368 0
	addi 11,29,-4
.LBE2716:
.LBE2715:
	.loc 5 393 0
	li 9,0
	b .L365
.LVL378:
.L461:
.LBB2722:
.LBB2719:
	lwz 3,16(31)
.LVL379:
.L365:
	.loc 5 394 0
	lwzu 10,4(11)
	slwi 0,9,2
	.loc 5 393 0
	addi 9,9,1
.LVL380:
	.loc 5 394 0
	stwx 10,3,0
	.loc 5 393 0
	lwz 0,0(27)
	cmpw 7,9,0
	blt+ 7,.L461
.LVL381:
.L364:
	.loc 5 398 0
	cmpwi 7,29,0
	beq- 7,.L462
	.loc 5 399 0
	mr 3,29
	stfd 1,8(1)
	bl _ZdaPv
	lwz 11,4(31)
	lwz 29,16(31)
.LVL382:
	lfd 1,8(1)
.LBE2719:
.LBE2722:
.LBE2714:
.LBE2729:
	.loc 5 702 0
	bge+ 4,.L463
.LVL383:
.L417:
	li 10,0
	.loc 5 703 0
	li 0,0
	b .L367
.LVL384:
.L336:
.LBE2748:
.LBE2842:
.LBB2843:
.LBB2705:
.LBB2699:
.LBB2700:
	.loc 5 573 0
	addi 0,30,-1
.LBE2700:
.LBE2699:
	.loc 2 398 0
	slwi 0,0,2
	lfsx 0,29,0
	.loc 2 397 0
	beq- 7,.L464
	.loc 2 401 0
	fcmpu 7,1,0
.LBB2701:
.LBB2702:
	.loc 5 573 0
	slwi 0,30,2
.LBE2702:
.LBE2701:
	.loc 2 401 0
	bng- 7,.L341
.LVL385:
	lfsx 0,29,0
	fcmpu 7,1,0
	cror 30,28,30
	beq- 7,.L337
.LVL386:
.L341:
	.loc 2 403 0
	lfsx 0,29,0
	fcmpu 7,1,0
	bng- 7,.L335
	addi 30,30,1
.LVL387:
	cmpw 7,9,30
	beq- 7,.L344
.LVL388:
	slwi 0,30,2
	lfsx 0,29,0
	fcmpu 7,1,0
	cror 30,28,30
	bne- 7,.L335
	.loc 2 428 0
	stw 30,36(31)
	b .L437
.LVL389:
.L333:
.LBE2705:
.LBB2706:
.LBB2707:
.LBB2708:
	.loc 2 405 0
	lwz 29,16(3)
	lwz 9,4(3)
	b .L335
.LVL390:
.L459:
.LBE2708:
.LBE2707:
.LBE2706:
.LBE2843:
.LBB2844:
.LBB2749:
.LBB2730:
.LBB2725:
	.loc 5 696 0
	li 9,16
	stw 9,12(31)
	b .L360
.LVL391:
.L455:
.LBE2725:
.LBE2730:
.LBE2749:
.LBE2844:
.LBB2845:
.LBB2829:
.LBB2812:
.LBB2808:
	li 9,16
	stw 9,64(31)
	b .L402
.LVL392:
.L451:
.LBE2808:
.LBE2812:
.LBE2829:
.LBE2845:
.LBB2846:
.LBB2789:
.LBB2772:
.LBB2768:
	li 11,16
	stw 11,28(31)
	b .L381
.LVL393:
.L464:
.LBE2768:
.LBE2772:
.LBE2789:
.LBE2846:
.LBB2847:
.LBB2709:
	.loc 2 398 0
	fcmpu 7,1,0
	bng+ 7,.L335
	b .L337
.LVL394:
.L372:
.LBE2709:
.LBE2847:
.LBB2848:
.LBB2790:
	.loc 5 689 0
	lwz 0,28(31)
.LBB2773:
.LBB2774:
	.loc 5 375 0
	cmpwi 7,0,0
.LBE2774:
.LBE2773:
	.loc 5 689 0
	mr 11,0
.LVL395:
.LBB2781:
.LBB2777:
	.loc 5 375 0
	ble- 7,.L465
	.loc 5 380 0
	lwz 9,24(31)
	cmpw 7,0,9
	beq- 7,.L466
.LVL396:
	.loc 5 387 0
	lwz 0,20(31)
	.loc 5 386 0
	stw 11,24(31)
	.loc 5 387 0
	cmpw 7,11,0
	bge- 7,.L377
	.loc 5 388 0
	stw 11,20(31)
.L377:
	.loc 5 392 0
	slwi 3,11,4
	bl _Znaj
.LVL397:
	.loc 5 393 0
	lwz 9,20(31)
	.loc 5 392 0
	mr 29,3
	stw 3,32(31)
.LVL398:
	.loc 5 393 0
	cmpwi 7,9,0
	li 11,0
	li 10,0
	bgt+ 7,.L430
	b .L477
.LVL399:
.L468:
	lwz 29,32(31)
.LVL400:
.L430:
	.loc 5 394 0
	lwz 6,0(11)
	add 9,29,11
	lwz 7,4(11)
	.loc 5 393 0
	addi 10,10,1
.LVL401:
	.loc 5 394 0
	lwz 8,8(11)
	lwz 0,12(11)
	stwx 6,29,11
	.loc 5 393 0
	addi 11,11,16
	.loc 5 394 0
	stw 7,4(9)
	stw 8,8(9)
	stw 0,12(9)
	.loc 5 393 0
	lwz 9,0(27)
	cmpw 7,10,9
	blt+ 7,.L468
	lwz 0,24(31)
	lwz 29,32(31)
	b .L373
.LVL402:
.L351:
.LBE2777:
.LBE2781:
.LBE2790:
.LBE2848:
.LBB2849:
.LBB2750:
	.loc 5 689 0
	lwz 0,12(31)
.LBB2731:
.LBB2732:
	.loc 5 375 0
	cmpwi 7,0,0
.LBE2732:
.LBE2731:
	.loc 5 689 0
	mr 9,0
.LVL403:
.LBB2739:
.LBB2735:
	.loc 5 375 0
	ble- 7,.L469
	.loc 5 380 0
	lwz 11,8(31)
	cmpw 7,0,11
	beq- 7,.L470
.LVL404:
	.loc 5 387 0
	lwz 0,4(31)
	.loc 5 386 0
	stw 9,8(31)
	.loc 5 387 0
	cmpw 7,9,0
	bge- 7,.L356
	.loc 5 388 0
	stw 9,4(31)
.L356:
	.loc 5 392 0
	slwi 3,9,2
	stfd 1,8(1)
	bl _Znaj
.LVL405:
	.loc 5 393 0
	lwz 11,4(31)
	.loc 5 392 0
	stw 3,16(31)
.LVL406:
	mr 29,3
	.loc 5 393 0
	cmpwi 7,11,0
	li 9,0
	li 10,0
	lfd 1,8(1)
	bgt+ 7,.L429
	b .L478
.LVL407:
.L472:
	lwz 29,16(31)
.LVL408:
.L429:
	.loc 5 394 0
	lwz 0,0(9)
	.loc 5 393 0
	addi 10,10,1
.LVL409:
	.loc 5 394 0
	stwx 0,29,9
	.loc 5 393 0
	addi 9,9,4
	lwz 11,0(27)
	cmpw 7,10,11
	blt+ 7,.L472
	lwz 0,8(31)
	lwz 29,16(31)
	b .L352
.LVL410:
.L393:
.LBE2735:
.LBE2739:
.LBE2750:
.LBE2849:
.LBB2850:
.LBB2830:
	.loc 5 689 0
	lwz 0,64(31)
.LBB2813:
.LBB2814:
	.loc 5 375 0
	cmpwi 7,0,0
.LBE2814:
.LBE2813:
	.loc 5 689 0
	mr 9,0
.LVL411:
.LBB2821:
.LBB2817:
	.loc 5 375 0
	ble- 7,.L473
	.loc 5 380 0
	lwz 11,60(31)
	cmpw 7,0,11
	beq- 7,.L474
.LVL412:
	.loc 5 387 0
	lwz 0,56(31)
	.loc 5 386 0
	stw 9,60(31)
	.loc 5 387 0
	cmpw 7,9,0
	bge- 7,.L398
	.loc 5 388 0
	stw 9,56(31)
.L398:
	.loc 5 392 0
	slwi 3,9,2
	bl _Znaj
.LVL413:
	.loc 5 393 0
	lwz 10,56(31)
	.loc 5 392 0
	mr 29,3
	stw 3,68(31)
.LVL414:
	.loc 5 393 0
	cmpwi 7,10,0
	li 9,0
	li 11,0
	bgt+ 7,.L431
	b .L479
.LVL415:
.L476:
	lwz 29,68(31)
.LVL416:
.L431:
	.loc 5 394 0
	lwz 0,0(9)
	.loc 5 393 0
	addi 11,11,1
.LVL417:
	.loc 5 394 0
	stwx 0,29,9
	.loc 5 393 0
	addi 9,9,4
	lwz 10,0(28)
	cmpw 7,11,10
	blt+ 7,.L476
	lwz 0,60(31)
	lwz 29,68(31)
	b .L394
.LVL418:
.L462:
.LBE2817:
.LBE2821:
.LBE2830:
.LBE2850:
.LBB2851:
.LBB2751:
.LBB2740:
.LBB2726:
.LBB2723:
.LBB2720:
	.loc 5 398 0
	lwz 11,4(31)
	lwz 29,16(31)
.LVL419:
	b .L359
.LVL420:
.L474:
.LBE2720:
.LBE2723:
.LBE2726:
.LBE2740:
.LBE2751:
.LBE2851:
.LBB2852:
.LBB2831:
.LBB2822:
.LBB2818:
	.loc 5 380 0
	lwz 10,56(31)
	b .L394
.LVL421:
.L470:
.LBE2818:
.LBE2822:
.LBE2831:
.LBE2852:
.LBB2853:
.LBB2752:
.LBB2741:
.LBB2736:
	lwz 11,4(31)
	b .L352
.LVL422:
.L466:
.LBE2736:
.LBE2741:
.LBE2752:
.LBE2853:
.LBB2854:
.LBB2791:
.LBB2782:
.LBB2778:
	lwz 9,20(31)
	b .L373
.LVL423:
.L415:
.LBE2778:
.LBE2782:
.LBE2791:
.LBE2854:
.LBB2855:
.LBB2710:
	.loc 2 415 0
	li 30,0
	.loc 2 428 0
	stw 30,36(31)
	b .L437
.LVL424:
.L452:
.LBE2710:
.LBE2855:
.LBB2856:
.LBB2792:
.LBB2783:
.LBB2769:
.LBB2767:
.LBB2766:
.LBB2764:
.LBB2765:
	.loc 5 193 0
	cmpwi 7,29,0
	beq- 7,.L383
	.loc 5 194 0
	mr 3,29
	bl _ZdaPv
.LVL425:
.L383:
	.loc 5 197 0
	li 0,0
	.loc 5 199 0
	li 29,0
	.loc 5 197 0
	stw 0,32(31)
	.loc 5 199 0
	li 9,0
	.loc 5 198 0
	stw 0,20(31)
	.loc 5 199 0
	stw 0,24(31)
	b .L380
.LVL426:
.L456:
.LBE2765:
.LBE2764:
.LBE2766:
.LBE2767:
.LBE2769:
.LBE2783:
.LBE2792:
.LBE2856:
.LBB2857:
.LBB2832:
.LBB2823:
.LBB2809:
.LBB2807:
.LBB2805:
.LBB2802:
.LBB2803:
	.loc 5 193 0
	cmpwi 7,29,0
	beq- 7,.L404
	.loc 5 194 0
	mr 3,29
	bl _ZdaPv
.LVL427:
.L404:
	.loc 5 197 0
	li 0,0
	.loc 5 199 0
	li 29,0
	.loc 5 197 0
	stw 0,68(31)
	.loc 5 199 0
	li 10,0
	.loc 5 198 0
	stw 0,56(31)
	.loc 5 199 0
	stw 0,60(31)
	b .L401
.LVL428:
.L460:
.LBE2803:
.LBE2802:
.LBE2805:
.LBE2807:
.LBE2809:
.LBE2823:
.LBE2832:
.LBE2857:
.LBB2858:
.LBB2753:
.LBB2742:
.LBB2727:
.LBB2724:
.LBB2721:
.LBB2717:
.LBB2718:
	.loc 5 193 0
	cmpwi 7,29,0
	beq- 7,.L362
	.loc 5 194 0
	mr 3,29
	stfd 1,8(1)
	bl _ZdaPv
.LVL429:
	lfd 1,8(1)
.L362:
	.loc 5 197 0
	li 0,0
	.loc 5 199 0
	li 29,0
	.loc 5 197 0
	stw 0,16(31)
	.loc 5 199 0
	li 11,0
	.loc 5 198 0
	stw 0,4(31)
	.loc 5 199 0
	stw 0,8(31)
	b .L359
.LVL430:
.L473:
.LBE2718:
.LBE2717:
.LBE2721:
.LBE2724:
.LBE2727:
.LBE2742:
.LBE2753:
.LBE2858:
.LBB2859:
.LBB2833:
.LBB2824:
.LBB2819:
.LBB2815:
.LBB2816:
	.loc 5 198 0
	stw 29,56(31)
	.loc 5 199 0
	li 10,0
	stw 29,60(31)
	li 0,0
.LVL431:
	b .L396
.LVL432:
.L469:
.LBE2816:
.LBE2815:
.LBE2819:
.LBE2824:
.LBE2833:
.LBE2859:
.LBB2860:
.LBB2754:
.LBB2743:
.LBB2737:
.LBB2733:
.LBB2734:
	.loc 5 197 0
	stw 29,16(31)
	.loc 5 199 0
	li 11,0
	.loc 5 198 0
	stw 29,4(31)
	.loc 5 199 0
	li 0,0
.LVL433:
	stw 29,8(31)
	b .L354
.LVL434:
.L465:
.LBE2734:
.LBE2733:
.LBE2737:
.LBE2743:
.LBE2754:
.LBE2860:
.LBB2861:
.LBB2793:
.LBB2784:
.LBB2779:
.LBB2775:
.LBB2776:
	.loc 5 198 0
	stw 29,20(31)
	.loc 5 199 0
	li 0,0
.LVL435:
	stw 29,24(31)
	li 9,0
	b .L375
.LVL436:
.L478:
.LBE2776:
.LBE2775:
.LBE2779:
.LBE2784:
.LBE2793:
.LBE2861:
.LBB2862:
.LBB2755:
.LBB2744:
.LBB2738:
	.loc 5 393 0
	lwz 0,8(31)
	b .L352
.LVL437:
.L477:
.LBE2738:
.LBE2744:
.LBE2755:
.LBE2862:
.LBB2863:
.LBB2794:
.LBB2785:
.LBB2780:
	lwz 0,24(31)
	b .L373
.LVL438:
.L479:
.LBE2780:
.LBE2785:
.LBE2794:
.LBE2863:
.LBB2864:
.LBB2834:
.LBB2825:
.LBB2820:
	lwz 0,60(31)
	b .L394
.LBE2820:
.LBE2825:
.LBE2834:
.LBE2864:
.LBE2866:
	.cfi_endproc
.LFE2725:
	.size	_ZN13idCurve_NURBSI6idVec4E8AddValueEfRKS0_, .-_ZN13idCurve_NURBSI6idVec4E8AddValueEfRKS0_
	.section	.text._ZN7idCurveI6idVec4E8AddValueEfRKS0_,"axG",@progbits,_ZN7idCurveI6idVec4E8AddValueEfRKS0_,comdat
	.align 2
	.weak	_ZN7idCurveI6idVec4E8AddValueEfRKS0_
	.type	_ZN7idCurveI6idVec4E8AddValueEfRKS0_, @function
_ZN7idCurveI6idVec4E8AddValueEfRKS0_:
.LFB2811:
	.loc 2 116 0
	.cfi_startproc
.LVL439:
	mflr 0
	stwu 1,-40(1)
.LCFI38:
	.cfi_def_cfa_offset 40
	.cfi_register 65, 0
	mfcr 12
	stw 28,24(1)
	mr 28,4
	.cfi_offset 28, -16
	.cfi_register 70, 12
	stw 31,36(1)
	mr 31,3
	.cfi_offset 31, -4
.LVL440:
	stw 0,44(1)
	stw 27,20(1)
	stw 29,28(1)
	stw 30,32(1)
	stw 12,16(1)
.LBB2938:
.LBB2939:
.LBB2940:
	.loc 2 391 0
	lwz 30,36(3)
	.cfi_offset 70, -24
	.cfi_offset 30, -8
	.cfi_offset 29, -12
	.cfi_offset 27, -20
	.cfi_offset 65, 4
.LVL441:
	cmpwi 4,30,0
	blt- 4,.L481
.LBE2940:
	.loc 3 223 0
	lwz 9,4(3)
	lwz 29,16(3)
.LBB2945:
	.loc 2 391 0
	cmpw 7,30,9
	ble- 7,.L482
.L483:
.LVL442:
	.loc 2 415 0
	cmpwi 7,9,0
	ble- 7,.L542
	.loc 2 416 0
	srawi 30,9,1
.LVL443:
	.loc 2 417 0
	li 10,0
	slwi 0,30,2
	cmpwi 4,30,0
	lfsx 0,29,0
	mr 0,30
	fcmpu 7,0,1
	bne+ 7,.L494
	b .L485
.LVL444:
.L562:
	.loc 2 415 0
	cmpwi 7,0,0
	.loc 2 421 0
	mr 10,30
.LVL445:
	.loc 2 416 0
	srawi 0,9,1
.LVL446:
	.loc 2 417 0
	add 30,0,10
.LVL447:
	slwi 11,30,2
	.loc 2 415 0
	ble- 7,.L561
.L498:
.LVL448:
	.loc 2 417 0
	lfsx 0,29,11
	fcmpu 7,0,1
	beq- 7,.L559
.LVL449:
.L494:
	.loc 2 419 0
	fcmpu 7,0,1
	.loc 2 421 0
	subf 9,0,9
.LVL450:
	.loc 2 422 0
	li 8,1
	.loc 2 419 0
	blt- 7,.L562
.LVL451:
	.loc 2 415 0
	cmpwi 7,0,0
	.loc 2 416 0
	srawi 0,9,1
.LVL452:
	.loc 2 417 0
	add 30,0,10
.LVL453:
	.loc 2 425 0
	li 8,0
.LVL454:
	.loc 2 417 0
	slwi 11,30,2
	.loc 2 415 0
	bgt+ 7,.L498
.L561:
	add 30,10,8
.LVL455:
.L492:
	.loc 2 428 0
	stw 30,36(31)
.L559:
	cmpwi 4,30,0
.L485:
.LBE2945:
.LBE2939:
.LBB2953:
.LBB2954:
	.loc 5 688 0
	cmpwi 7,29,0
.LBE2954:
.LBE2953:
	.loc 2 120 0
	addi 27,31,4
.LVL456:
.LBB2997:
.LBB2987:
	.loc 5 688 0
	beq- 7,.L499
	lwz 11,4(31)
	lwz 0,8(31)
.LVL457:
.L500:
.LBB2955:
	.loc 5 692 0
	cmpw 7,11,0
	beq- 7,.L563
.L507:
.LBE2955:
	.loc 5 702 0
	blt- 4,.L544
.L577:
	cmpw 7,11,30
	mr 0,11
	bgt- 7,.L564
.L516:
	slwi 10,0,2
.L515:
.LVL458:
.LBB2970:
	.loc 5 708 0
	cmpw 7,0,11
	bge- 7,.L517
	subf 0,0,11
.LVL459:
	slwi 9,11,2
	mtctr 0
	b .L519
.LVL460:
.L565:
	lwz 29,16(31)
.L519:
	.loc 5 709 0
	add 11,29,9
	lwz 0,-4(11)
	stwx 0,29,9
	.loc 5 708 0
	addi 9,9,-4
	bdnz .L565
	lwz 11,4(31)
	lwz 29,16(31)
.L517:
.LBE2970:
	.loc 5 711 0
	addi 11,11,1
.LBE2987:
.LBE2997:
	.loc 2 121 0
	addi 27,31,20
.LVL461:
.LBB2998:
.LBB2988:
	.loc 5 711 0
	stw 11,4(31)
	.loc 5 712 0
	stfsx 1,29,10
.LBE2988:
.LBE2998:
.LBB2999:
.LBB3000:
	.loc 5 688 0
	lwz 29,32(31)
	cmpwi 7,29,0
	beq- 7,.L520
	lwz 9,20(31)
	lwz 0,24(31)
.L521:
.LBB3001:
	.loc 5 692 0
	cmpw 7,9,0
	beq- 7,.L566
.L528:
.LBE3001:
	.loc 5 702 0
	blt- 4,.L546
.L572:
	cmpw 7,9,30
	mr 0,9
	bgt- 7,.L567
.L537:
	slwi 6,0,4
.L536:
.LVL462:
.LBB3011:
	.loc 5 708 0
	cmpw 7,9,0
	ble- 7,.L538
	subf 0,0,9
.LVL463:
	slwi 11,9,4
	mtctr 0
	b .L540
.LVL464:
.L568:
	lwz 29,32(31)
.L540:
	.loc 5 709 0
	add 9,29,11
	lwz 8,-12(9)
	lwz 10,-8(9)
	lwz 0,-4(9)
	lwz 7,-16(9)
	stwx 7,29,11
	.loc 5 708 0
	addi 11,11,-16
	.loc 5 709 0
	stw 8,4(9)
	stw 10,8(9)
	stw 0,12(9)
	.loc 5 708 0
	bdnz .L568
	lwz 9,20(31)
	lwz 29,32(31)
.L538:
.LBE3011:
	.loc 5 711 0
	addi 9,9,1
.LBE3000:
.LBE2999:
.LBE2938:
	.loc 2 124 0
	mr 3,30
.LBB3059:
.LBB3037:
.LBB3027:
	.loc 5 711 0
	stw 9,20(31)
	.loc 5 712 0
	add 9,29,6
	lwz 0,12(28)
	lwz 8,0(28)
	lwz 10,4(28)
	lwz 11,8(28)
	stwx 8,29,6
	stw 0,12(9)
.LBE3027:
.LBE3037:
	.loc 2 122 0
	li 0,1
.LBB3038:
.LBB3028:
	.loc 5 712 0
	stw 10,4(9)
	stw 11,8(9)
.LBE3028:
.LBE3038:
	.loc 2 122 0
	stb 0,40(31)
.LBE3059:
	.loc 2 124 0
	lwz 0,44(1)
	lwz 12,16(1)
	mtlr 0
	lwz 27,20(1)
.LVL465:
	lwz 28,24(1)
.LVL466:
	mtcrf 8,12
	lwz 29,28(1)
	lwz 30,32(1)
	lwz 31,36(1)
.LVL467:
	addi 1,1,40
	.cfi_remember_state
.LCFI39:
	.cfi_def_cfa_offset 0
	.cfi_restore 70
	.cfi_restore 31
	.cfi_restore 30
	.cfi_restore 29
	.cfi_restore 28
	.cfi_restore 27
	blr
.LVL468:
.L567:
.LCFI40:
	.cfi_restore_state
.LBB3060:
.LBB3039:
.LBB3029:
	.loc 5 702 0
	mr 0,30
	b .L537
.LVL469:
.L564:
.LBE3029:
.LBE3039:
.LBB3040:
.LBB2989:
	mr 0,30
	b .L516
.LVL470:
.L482:
.LBE2989:
.LBE3040:
.LBB3041:
.LBB2946:
	.loc 2 393 0
	bne- 4,.L484
.LVL471:
	.loc 2 394 0
	lfs 0,0(29)
	fcmpu 7,0,1
	cror 30,29,30
	bne+ 7,.L483
	b .L485
.LVL472:
.L566:
	lwz 11,28(31)
.L523:
.LBE2946:
.LBE3041:
.LBB3042:
.LBB3030:
.LBB3012:
.LBB3002:
	.loc 5 695 0
	cmpwi 7,11,0
	beq- 7,.L569
.L529:
	.loc 5 698 0
	add 10,0,11
.LVL473:
	.loc 5 699 0
	divw 10,10,11
.LVL474:
.LBB3003:
.LBB3004:
	.loc 5 375 0
	mullw. 11,10,11
.LVL475:
	ble- 0,.L570
	.loc 5 380 0
	cmpw 7,0,11
	beq- 7,.L528
.LVL476:
	.loc 5 387 0
	cmpw 7,11,9
	.loc 5 386 0
	stw 11,24(31)
	.loc 5 387 0
	bge- 7,.L532
	.loc 5 388 0
	stw 11,20(31)
.L532:
	.loc 5 392 0
	slwi 3,11,4
	bl _Znaj
.LVL477:
	.loc 5 393 0
	lwz 0,20(31)
	.loc 5 392 0
	stw 3,32(31)
.LVL478:
	.loc 5 393 0
	cmpwi 7,0,0
	ble- 7,.L533
	li 11,0
	li 8,0
	b .L534
.LVL479:
.L571:
	lwz 3,32(31)
.LVL480:
.L534:
	.loc 5 394 0
	mr 9,29
	add 10,3,11
	lwzux 5,9,11
	.loc 5 393 0
	addi 8,8,1
.LVL481:
	.loc 5 394 0
	lwz 0,12(9)
	lwz 6,4(9)
	lwz 7,8(9)
	stwx 5,3,11
	.loc 5 393 0
	addi 11,11,16
	.loc 5 394 0
	stw 6,4(10)
	stw 7,8(10)
	stw 0,12(10)
	.loc 5 393 0
	lwz 0,0(27)
	cmpw 7,8,0
	blt+ 7,.L571
.LVL482:
.L533:
	.loc 5 398 0
	cmpwi 7,29,0
	beq- 7,.L560
	.loc 5 399 0
	mr 3,29
	bl _ZdaPv
.L560:
	lwz 9,20(31)
	lwz 29,32(31)
.LVL483:
.LBE3004:
.LBE3003:
.LBE3002:
.LBE3012:
	.loc 5 702 0
	bge+ 4,.L572
.LVL484:
.L546:
	li 6,0
	.loc 5 703 0
	li 0,0
	b .L536
.LVL485:
.L563:
	lwz 9,12(31)
.L502:
.LBE3030:
.LBE3042:
.LBB3043:
.LBB2990:
.LBB2971:
.LBB2956:
	.loc 5 695 0
	cmpwi 7,9,0
	beq- 7,.L573
.L508:
	.loc 5 698 0
	add 10,0,9
.LVL486:
	.loc 5 699 0
	divw 10,10,9
.LVL487:
.LBB2957:
.LBB2958:
	.loc 5 375 0
	mullw. 9,10,9
.LVL488:
	ble- 0,.L574
	.loc 5 380 0
	cmpw 7,9,0
	beq- 7,.L507
.LVL489:
	.loc 5 387 0
	cmpw 7,9,11
	.loc 5 386 0
	stw 9,8(31)
	.loc 5 387 0
	bge- 7,.L511
	.loc 5 388 0
	stw 9,4(31)
.L511:
	.loc 5 392 0
	slwi 3,9,2
	stfd 1,8(1)
	bl _Znaj
.LVL490:
	.loc 5 393 0
	lwz 0,4(31)
	.loc 5 392 0
	stw 3,16(31)
.LVL491:
	.loc 5 393 0
	cmpwi 7,0,0
	lfd 1,8(1)
	ble- 7,.L512
	.loc 2 116 0
	addi 11,29,-4
.LBE2958:
.LBE2957:
	.loc 5 393 0
	li 9,0
	b .L513
.LVL492:
.L575:
.LBB2964:
.LBB2961:
	lwz 3,16(31)
.LVL493:
.L513:
	.loc 5 394 0
	lwzu 10,4(11)
	slwi 0,9,2
	.loc 5 393 0
	addi 9,9,1
.LVL494:
	.loc 5 394 0
	stwx 10,3,0
	.loc 5 393 0
	lwz 0,0(27)
	cmpw 7,9,0
	blt+ 7,.L575
.LVL495:
.L512:
	.loc 5 398 0
	cmpwi 7,29,0
	beq- 7,.L576
	.loc 5 399 0
	mr 3,29
	stfd 1,8(1)
	bl _ZdaPv
	lwz 11,4(31)
	lwz 29,16(31)
.LVL496:
	lfd 1,8(1)
.LBE2961:
.LBE2964:
.LBE2956:
.LBE2971:
	.loc 5 702 0
	bge+ 4,.L577
.LVL497:
.L544:
	li 10,0
	.loc 5 703 0
	li 0,0
	b .L515
.LVL498:
.L484:
.LBE2990:
.LBE3043:
.LBB3044:
.LBB2947:
.LBB2941:
.LBB2942:
	.loc 5 573 0
	addi 0,30,-1
.LBE2942:
.LBE2941:
	.loc 2 398 0
	slwi 0,0,2
	lfsx 0,29,0
	.loc 2 397 0
	beq- 7,.L578
	.loc 2 401 0
	fcmpu 7,0,1
.LBB2943:
.LBB2944:
	.loc 5 573 0
	slwi 0,30,2
.LBE2944:
.LBE2943:
	.loc 2 401 0
	bnl- 7,.L489
.LVL499:
	lfsx 0,29,0
	fcmpu 7,0,1
	cror 30,29,30
	beq- 7,.L485
.LVL500:
.L489:
	.loc 2 403 0
	lfsx 0,29,0
	fcmpu 7,0,1
	bnl- 7,.L483
	addi 30,30,1
.LVL501:
	cmpw 7,9,30
	beq- 7,.L492
.LVL502:
	slwi 0,30,2
	lfsx 0,29,0
	fcmpu 7,0,1
	cror 30,29,30
	bne- 7,.L483
	.loc 2 428 0
	stw 30,36(31)
	b .L559
.LVL503:
.L481:
.LBE2947:
.LBB2948:
.LBB2949:
.LBB2950:
	.loc 2 405 0
	lwz 29,16(3)
	lwz 9,4(3)
	b .L483
.LVL504:
.L573:
.LBE2950:
.LBE2949:
.LBE2948:
.LBE3044:
.LBB3045:
.LBB2991:
.LBB2972:
.LBB2967:
	.loc 5 696 0
	li 9,16
	stw 9,12(31)
	b .L508
.LVL505:
.L569:
.LBE2967:
.LBE2972:
.LBE2991:
.LBE3045:
.LBB3046:
.LBB3031:
.LBB3013:
.LBB3009:
	li 11,16
	stw 11,28(31)
	b .L529
.LVL506:
.L578:
.LBE3009:
.LBE3013:
.LBE3031:
.LBE3046:
.LBB3047:
.LBB2951:
	.loc 2 398 0
	fcmpu 7,0,1
	bnl+ 7,.L483
	b .L485
.LVL507:
.L499:
.LBE2951:
.LBE3047:
.LBB3048:
.LBB2992:
	.loc 5 689 0
	lwz 0,12(31)
.LBB2973:
.LBB2974:
	.loc 5 375 0
	cmpwi 7,0,0
.LBE2974:
.LBE2973:
	.loc 5 689 0
	mr 9,0
.LVL508:
.LBB2981:
.LBB2977:
	.loc 5 375 0
	ble- 7,.L579
	.loc 5 380 0
	lwz 11,8(31)
	cmpw 7,0,11
	beq- 7,.L580
.LVL509:
	.loc 5 387 0
	lwz 0,4(31)
	.loc 5 386 0
	stw 9,8(31)
	.loc 5 387 0
	cmpw 7,9,0
	bge- 7,.L504
	.loc 5 388 0
	stw 9,4(31)
.L504:
	.loc 5 392 0
	slwi 3,9,2
	stfd 1,8(1)
	bl _Znaj
.LVL510:
	.loc 5 393 0
	lwz 11,4(31)
	.loc 5 392 0
	stw 3,16(31)
.LVL511:
	mr 29,3
	.loc 5 393 0
	cmpwi 7,11,0
	li 9,0
	li 10,0
	lfd 1,8(1)
	bgt+ 7,.L553
	b .L587
.LVL512:
.L582:
	lwz 29,16(31)
.LVL513:
.L553:
	.loc 5 394 0
	lwz 0,0(9)
	.loc 5 393 0
	addi 10,10,1
.LVL514:
	.loc 5 394 0
	stwx 0,29,9
	.loc 5 393 0
	addi 9,9,4
	lwz 11,0(27)
	cmpw 7,10,11
	blt+ 7,.L582
	lwz 0,8(31)
	lwz 29,16(31)
	b .L500
.LVL515:
.L520:
.LBE2977:
.LBE2981:
.LBE2992:
.LBE3048:
.LBB3049:
.LBB3032:
	.loc 5 689 0
	lwz 0,28(31)
.LBB3014:
.LBB3015:
	.loc 5 375 0
	cmpwi 7,0,0
.LBE3015:
.LBE3014:
	.loc 5 689 0
	mr 11,0
.LVL516:
.LBB3022:
.LBB3018:
	.loc 5 375 0
	ble- 7,.L583
	.loc 5 380 0
	lwz 9,24(31)
	cmpw 7,0,9
	beq- 7,.L584
.LVL517:
	.loc 5 387 0
	lwz 0,20(31)
	.loc 5 386 0
	stw 11,24(31)
	.loc 5 387 0
	cmpw 7,11,0
	bge- 7,.L525
	.loc 5 388 0
	stw 11,20(31)
.L525:
	.loc 5 392 0
	slwi 3,11,4
	bl _Znaj
.LVL518:
	.loc 5 393 0
	lwz 9,20(31)
	.loc 5 392 0
	mr 29,3
	stw 3,32(31)
.LVL519:
	.loc 5 393 0
	cmpwi 7,9,0
	li 11,0
	li 10,0
	bgt+ 7,.L554
	b .L588
.LVL520:
.L586:
	lwz 29,32(31)
.LVL521:
.L554:
	.loc 5 394 0
	lwz 6,0(11)
	add 9,29,11
	lwz 7,4(11)
	.loc 5 393 0
	addi 10,10,1
.LVL522:
	.loc 5 394 0
	lwz 8,8(11)
	lwz 0,12(11)
	stwx 6,29,11
	.loc 5 393 0
	addi 11,11,16
	.loc 5 394 0
	stw 7,4(9)
	stw 8,8(9)
	stw 0,12(9)
	.loc 5 393 0
	lwz 9,0(27)
	cmpw 7,10,9
	blt+ 7,.L586
	lwz 0,24(31)
	lwz 29,32(31)
	b .L521
.LVL523:
.L576:
.LBE3018:
.LBE3022:
.LBE3032:
.LBE3049:
.LBB3050:
.LBB2993:
.LBB2982:
.LBB2968:
.LBB2965:
.LBB2962:
	.loc 5 398 0
	lwz 11,4(31)
	lwz 29,16(31)
.LVL524:
	b .L507
.LVL525:
.L580:
.LBE2962:
.LBE2965:
.LBE2968:
.LBE2982:
.LBB2983:
.LBB2978:
	.loc 5 380 0
	lwz 11,4(31)
	b .L500
.LVL526:
.L584:
.LBE2978:
.LBE2983:
.LBE2993:
.LBE3050:
.LBB3051:
.LBB3033:
.LBB3023:
.LBB3019:
	lwz 9,20(31)
	b .L521
.LVL527:
.L542:
.LBE3019:
.LBE3023:
.LBE3033:
.LBE3051:
.LBB3052:
.LBB2952:
	.loc 2 415 0
	li 30,0
	.loc 2 428 0
	stw 30,36(31)
	b .L559
.LVL528:
.L570:
.LBE2952:
.LBE3052:
.LBB3053:
.LBB3034:
.LBB3024:
.LBB3010:
.LBB3008:
.LBB3007:
.LBB3005:
.LBB3006:
	.loc 5 193 0
	cmpwi 7,29,0
	beq- 7,.L531
	.loc 5 194 0
	mr 3,29
	bl _ZdaPv
.LVL529:
.L531:
	.loc 5 197 0
	li 0,0
	.loc 5 199 0
	li 29,0
	.loc 5 197 0
	stw 0,32(31)
	.loc 5 199 0
	li 9,0
	.loc 5 198 0
	stw 0,20(31)
	.loc 5 199 0
	stw 0,24(31)
	b .L528
.LVL530:
.L574:
.LBE3006:
.LBE3005:
.LBE3007:
.LBE3008:
.LBE3010:
.LBE3024:
.LBE3034:
.LBE3053:
.LBB3054:
.LBB2994:
.LBB2984:
.LBB2969:
.LBB2966:
.LBB2963:
.LBB2959:
.LBB2960:
	.loc 5 193 0
	cmpwi 7,29,0
	beq- 7,.L510
	.loc 5 194 0
	mr 3,29
	stfd 1,8(1)
	bl _ZdaPv
.LVL531:
	lfd 1,8(1)
.L510:
	.loc 5 197 0
	li 0,0
	.loc 5 199 0
	li 29,0
	.loc 5 197 0
	stw 0,16(31)
	.loc 5 199 0
	li 11,0
	.loc 5 198 0
	stw 0,4(31)
	.loc 5 199 0
	stw 0,8(31)
	b .L507
.LVL532:
.L583:
.LBE2960:
.LBE2959:
.LBE2963:
.LBE2966:
.LBE2969:
.LBE2984:
.LBE2994:
.LBE3054:
.LBB3055:
.LBB3035:
.LBB3025:
.LBB3020:
.LBB3016:
.LBB3017:
	.loc 5 198 0
	stw 29,20(31)
	.loc 5 199 0
	li 0,0
.LVL533:
	stw 29,24(31)
	li 9,0
	b .L523
.LVL534:
.L579:
.LBE3017:
.LBE3016:
.LBE3020:
.LBE3025:
.LBE3035:
.LBE3055:
.LBB3056:
.LBB2995:
.LBB2985:
.LBB2979:
.LBB2975:
.LBB2976:
	.loc 5 197 0
	stw 29,16(31)
	.loc 5 199 0
	li 0,0
.LVL535:
	.loc 5 198 0
	stw 29,4(31)
	.loc 5 199 0
	li 11,0
	stw 29,8(31)
	b .L502
.LVL536:
.L588:
.LBE2976:
.LBE2975:
.LBE2979:
.LBE2985:
.LBE2995:
.LBE3056:
.LBB3057:
.LBB3036:
.LBB3026:
.LBB3021:
	.loc 5 393 0
	lwz 0,24(31)
	b .L521
.LVL537:
.L587:
.LBE3021:
.LBE3026:
.LBE3036:
.LBE3057:
.LBB3058:
.LBB2996:
.LBB2986:
.LBB2980:
	lwz 0,8(31)
	b .L500
.LBE2980:
.LBE2986:
.LBE2996:
.LBE3058:
.LBE3060:
	.cfi_endproc
.LFE2811:
	.size	_ZN7idCurveI6idVec4E8AddValueEfRKS0_, .-_ZN7idCurveI6idVec4E8AddValueEfRKS0_
	.section	.text._ZNK13idCurve_NURBSI6idVec4E15GetCurrentValueEf,"axG",@progbits,_ZNK13idCurve_NURBSI6idVec4E15GetCurrentValueEf,comdat
	.align 2
	.weak	_ZNK13idCurve_NURBSI6idVec4E15GetCurrentValueEf
	.type	_ZNK13idCurve_NURBSI6idVec4E15GetCurrentValueEf, @function
_ZNK13idCurve_NURBSI6idVec4E15GetCurrentValueEf:
.LFB2804:
	.loc 2 2405 0
	.cfi_startproc
.LVL538:
.LBB3337:
	.loc 2 2410 0
	lwz 9,4(4)
.LBE3337:
	.loc 2 2405 0
	mflr 0
	stwu 1,-240(1)
.LCFI41:
	.cfi_def_cfa_offset 240
	.cfi_register 65, 0
.LBB3579:
	.loc 2 2410 0
	cmpwi 7,9,1
.LBE3579:
	.loc 2 2405 0
	stw 31,196(1)
	mr 31,1
	.cfi_offset 31, -44
.LCFI42:
	.cfi_def_cfa_register 31
	stw 0,244(1)
	stfd 27,200(1)
	stfd 28,208(1)
	stfd 29,216(1)
	stfd 30,224(1)
	stfd 31,232(1)
	stw 15,132(1)
	stw 16,136(1)
	stw 17,140(1)
	stw 18,144(1)
	stw 19,148(1)
	stw 20,152(1)
	stw 21,156(1)
	stw 22,160(1)
	stw 23,164(1)
	stw 24,168(1)
	stw 25,172(1)
	stw 26,176(1)
	stw 27,180(1)
	stw 28,184(1)
	stw 29,188(1)
	stw 30,192(1)
.LBB3580:
	.loc 2 2410 0
	beq- 7,.L657
	.cfi_offset 30, -48
	.cfi_offset 29, -52
	.cfi_offset 28, -56
	.cfi_offset 27, -60
	.cfi_offset 26, -64
	.cfi_offset 25, -68
	.cfi_offset 24, -72
	.cfi_offset 23, -76
	.cfi_offset 22, -80
	.cfi_offset 21, -84
	.cfi_offset 20, -88
	.cfi_offset 19, -92
	.cfi_offset 18, -96
	.cfi_offset 17, -100
	.cfi_offset 16, -104
	.cfi_offset 15, -108
	.cfi_offset 63, -8
	.cfi_offset 62, -16
	.cfi_offset 61, -24
	.cfi_offset 60, -32
	.cfi_offset 59, -40
	.cfi_offset 65, 4
	.loc 2 2414 0
	lwz 22,52(4)
.LBB3338:
.LBB3339:
	.loc 2 1034 0
	lwz 10,44(4)
.LBE3339:
.LBE3338:
	.loc 2 2414 0
	slwi 11,22,2
	addi 0,11,45
	lwz 11,0(1)
	rlwinm 0,0,0,0,27
.LBB3345:
.LBB3342:
	.loc 2 1034 0
	cmpwi 7,10,1
.LBE3342:
.LBE3345:
	.loc 2 2414 0
	neg 0,0
	stwux 11,1,0
	addi 19,1,23
	rlwinm 19,19,0,0,27
.LVL539:
.LBB3346:
.LBB3343:
	.loc 2 1034 0
	beq- 7,.L592
.LVL540:
	.loc 2 1042 0
	fmr 10,1
	.loc 2 1034 0
	mr 11,9
.LVL541:
.L593:
.LBE3343:
.LBE3346:
.LBB3347:
.LBB3348:
	.loc 2 391 0
	lwz 23,36(4)
	cmpwi 7,23,0
	blt- 7,.L596
	cmpw 6,23,9
	bgt- 6,.L596
	.loc 2 393 0
	beq- 7,.L658
	.loc 2 397 0
	beq- 6,.L659
	.loc 2 401 0
	addi 21,23,-1
.LBE3348:
	.loc 3 223 0
	lwz 10,16(4)
.LVL542:
.LBB3351:
	.loc 2 401 0
	slwi 0,21,2
	lfsx 0,10,0
.LBB3349:
.LBB3350:
	.loc 5 573 0
	slwi 0,23,2
.LBE3350:
.LBE3349:
	.loc 2 401 0
	fcmpu 7,10,0
	bng- 7,.L602
.LVL543:
	lfsx 0,10,0
	fcmpu 7,10,0
	cror 30,28,30
	beq- 7,.L598
.LVL544:
.L602:
	.loc 2 403 0
	lfsx 0,10,0
	fcmpu 7,10,0
	bgt- 7,.L640
.LVL545:
.L596:
	.loc 2 415 0
	cmpwi 7,9,0
	ble- 7,.L644
	.loc 2 416 0
	srawi 23,9,1
.LVL546:
.LBE3351:
	.loc 3 223 0
	lwz 7,16(4)
.LVL547:
.LBB3352:
	.loc 2 417 0
	slwi 0,23,2
	li 10,0
	lfsx 0,7,0
	mr 0,23
	fcmpu 7,10,0
	bne+ 7,.L607
	b .L606
.LVL548:
.L661:
	.loc 2 415 0
	cmpwi 7,0,0
	.loc 2 421 0
	mr 10,23
.LVL549:
	.loc 2 416 0
	srawi 0,11,1
.LVL550:
	.loc 2 417 0
	add 23,0,10
.LVL551:
	slwi 9,23,2
	.loc 2 415 0
	ble- 7,.L660
.L611:
.LVL552:
	.loc 2 417 0
	lfsx 0,7,9
	fcmpu 7,10,0
	beq- 7,.L606
.LVL553:
.L607:
	.loc 2 419 0
	fcmpu 7,10,0
	.loc 2 421 0
	subf 11,0,11
.LVL554:
	.loc 2 422 0
	li 8,1
	.loc 2 419 0
	bgt- 7,.L661
.LVL555:
	.loc 2 415 0
	cmpwi 7,0,0
	.loc 2 416 0
	srawi 0,11,1
.LVL556:
	.loc 2 417 0
	add 23,0,10
.LVL557:
	.loc 2 425 0
	li 8,0
.LVL558:
	.loc 2 417 0
	slwi 9,23,2
	.loc 2 415 0
	bgt+ 7,.L611
.L660:
	add 23,10,8
	addi 21,23,-1
	.loc 2 428 0
	stw 23,36(4)
	b .L598
.LVL559:
.L592:
.LBE3352:
.LBE3347:
.LBB3368:
	.loc 3 223 0
	lwz 10,16(4)
.LVL560:
.LBB3344:
	.loc 2 1035 0
	mr 11,9
	lfs 10,0(10)
	fcmpu 7,1,10
	blt- 7,.L593
.LBB3340:
.LBB3341:
	.loc 5 573 0
	addi 0,9,-1
.LBE3341:
.LBE3340:
	.loc 2 1038 0
	slwi 0,0,2
	lfsx 10,10,0
	fcmpu 7,1,10
	cror 30,29,30
	beq+ 7,.L593
	.loc 2 1042 0
	fmr 10,1
	b .L593
.LVL561:
.L657:
.LBE3344:
.LBE3368:
	.loc 2 2411 0
	lwz 9,32(4)
	lwz 8,0(9)
	lwz 10,4(9)
	lwz 11,8(9)
	lwz 0,12(9)
	stw 8,0(3)
	stw 10,4(3)
	stw 11,8(3)
	stw 0,12(3)
.LVL562:
.L589:
.LBE3580:
	.loc 2 2428 0
	addi 11,31,240
	lwz 0,4(11)
	lwz 15,-108(11)
	mtlr 0
	lwz 16,-104(11)
	lwz 17,-100(11)
	lwz 18,-96(11)
	lwz 19,-92(11)
	lwz 20,-88(11)
	lwz 21,-84(11)
	lwz 22,-80(11)
	lwz 23,-76(11)
	lwz 24,-72(11)
	lwz 25,-68(11)
	lwz 26,-64(11)
	lwz 27,-60(11)
	lwz 28,-56(11)
	lwz 29,-52(11)
	lwz 30,-48(11)
	lwz 31,-44(11)
	.cfi_remember_state
.LCFI43:
	.cfi_def_cfa 11, 0
	lfd 27,-40(11)
	lfd 28,-32(11)
	lfd 29,-24(11)
	lfd 30,-16(11)
	lfd 31,-8(11)
	mr 1,11
.LCFI44:
	.cfi_def_cfa_register 1
	.cfi_restore 63
	.cfi_restore 62
	.cfi_restore 61
	.cfi_restore 60
	.cfi_restore 59
	.cfi_restore 31
	.cfi_restore 30
	.cfi_restore 29
	.cfi_restore 28
	.cfi_restore 27
	.cfi_restore 26
	.cfi_restore 25
	.cfi_restore 24
	.cfi_restore 23
	.cfi_restore 22
	.cfi_restore 21
	.cfi_restore 20
	.cfi_restore 19
	.cfi_restore 18
	.cfi_restore 17
	.cfi_restore 16
	.cfi_restore 15
	blr
.LVL563:
.L606:
.LCFI45:
	.cfi_restore_state
.LBB3581:
.LBB3369:
.LBB3353:
	.loc 2 417 0
	addi 21,23,-1
.LVL564:
.L598:
.LBE3353:
.LBE3369:
.LBB3370:
.LBB3371:
	.loc 2 2268 0
	cmpwi 7,22,1
	.loc 2 2267 0
	lis 18,.LC1@ha
	addi 9,22,-1
	lwz 0,.LC1@l(18)
	slwi 9,9,2
	stwx 0,19,9
.LVL565:
	.loc 2 2268 0
	ble- 7,.L612
	.loc 2 2405 0
	addi 26,22,-2
	slwi 25,21,2
	slwi 24,26,2
.LBE3371:
.LBE3370:
.LBB3436:
.LBB3354:
.LBB3355:
.LBB3356:
	mr 8,21
.LBE3356:
.LBE3355:
.LBE3354:
.LBE3436:
.LBB3437:
.LBB3431:
	addi 24,24,4
.LBE3431:
.LBE3437:
.LBB3438:
.LBB3363:
.LBB3360:
.LBB3357:
	.loc 2 2268 0
	li 28,2
.LBE3357:
.LBE3360:
.LBE3363:
.LBE3438:
.LBB3439:
.LBB3432:
	.loc 2 2405 0
	add 24,24,19
	.loc 2 2270 0
	li 20,0
	mr 17,18
.LBB3372:
.LBB3373:
	.loc 2 1019 0
	lis 30,0x4330
	lis 12,.LC3@ha
.LVL566:
.L630:
.LBE3373:
.LBE3372:
	.loc 2 2405 0
	addi 0,26,1
	.loc 2 2270 0
	stwu 20,-4(24)
.LVL567:
	.loc 2 2271 0
	cmpw 7,22,0
	addi 27,8,-1
	ble- 7,.L613
	.loc 2 2405 0
	add 8,8,28
	.loc 2 2274 0
	subf 9,27,21
	.loc 2 2405 0
	addi 8,8,-1
	.loc 2 2274 0
	lfs 9,.LC1@l(17)
	mtctr 9
	.loc 2 2405 0
	mr 0,27
	slwi 5,8,2
.LBE3432:
.LBE3439:
.LBB3440:
.LBB3364:
.LBB3361:
.LBB3358:
	mr 6,25
	mr 10,24
.LVL568:
.L629:
.LBE3358:
.LBE3361:
.LBE3364:
.LBE3440:
.LBB3441:
.LBB3433:
.LBB3390:
.LBB3378:
	.loc 2 1006 0
	addic. 0,0,1
.LVL569:
.LBE3378:
	.loc 3 223 0
	lwz 7,4(4)
.LBB3379:
	.loc 2 1004 0
	addi 11,7,-1
.LVL570:
	.loc 2 1006 0
	blt- 0,.L662
	.loc 2 1014 0
	cmpw 7,0,11
	ble- 7,.L617
	.loc 2 1015 0
	lwz 9,44(4)
	cmpwi 7,9,2
	beq- 7,.L663
.LBE3379:
	.loc 3 223 0
	lwz 9,16(4)
.LVL571:
.LBB3380:
	.loc 2 1019 0
	subf 29,11,0
	xoris 29,29,0x8000
	slwi 16,11,2
	lfsx 0,9,16
.LVL572:
	stw 29,36(31)
.LBB3374:
.LBB3375:
	.loc 5 573 0
	addi 29,7,-2
.LBE3375:
.LBE3374:
	.loc 2 1019 0
	stw 30,32(31)
	slwi 29,29,2
	lfs 13,.LC3@l(12)
	lfd 11,32(31)
	fsub 11,11,13
	lfsx 13,9,29
	fsubs 13,0,13
	frsp 11,11
	fmadds 11,11,13,0
.LVL573:
.L616:
.LBE3380:
.LBE3390:
.LBB3391:
.LBB3392:
	.loc 2 1006 0
	cmpwi 7,8,0
.LBE3392:
.LBE3391:
	.loc 2 2273 0
	fsubs 11,10,11
.LVL574:
.LBB3405:
.LBB3397:
	.loc 2 1006 0
	blt- 7,.L664
.LVL575:
.L619:
	.loc 2 1014 0
	cmpw 7,8,11
	ble- 7,.L622
	.loc 2 1015 0
	lwz 29,44(4)
	cmpwi 7,29,2
	beq- 7,.L665
.LVL576:
	.loc 2 1019 0
	subf 29,11,8
	slwi 16,11,2
	xoris 29,29,0x8000
	lfsx 0,9,16
.LVL577:
	stw 29,68(31)
.LBB3393:
.LBB3394:
	.loc 5 573 0
	addi 29,7,-2
.LBE3394:
.LBE3393:
	.loc 2 1019 0
	stw 30,64(31)
	slwi 29,29,2
	lfs 13,.LC3@l(12)
	lfd 12,64(31)
	fsub 12,12,13
	lfsx 13,9,29
	fsubs 13,0,13
	frsp 12,12
	fmadds 13,12,13,0
.LVL578:
.L621:
.LBE3397:
.LBE3405:
.LBB3406:
.LBB3407:
	.loc 2 1006 0
	blt- 0,.L666
.LVL579:
.L624:
	.loc 2 1014 0
	cmpw 7,0,11
	ble- 7,.L627
	.loc 2 1015 0
	lwz 29,44(4)
	cmpwi 7,29,2
	beq- 7,.L667
.LVL580:
	.loc 2 1019 0
	subf 29,11,0
	slwi 11,11,2
.LVL581:
	xoris 29,29,0x8000
	lfsx 12,9,11
.LVL582:
	stw 29,100(31)
.LBB3408:
.LBB3409:
	.loc 5 573 0
	addi 7,7,-2
.LBE3409:
.LBE3408:
	.loc 2 1019 0
	stw 30,96(31)
	slwi 7,7,2
	lfs 0,.LC3@l(12)
	lfd 8,96(31)
	fsub 8,8,0
	lfsx 0,9,7
	fsubs 0,12,0
	frsp 8,8
	fmadds 0,8,0,12
.LVL583:
.L626:
.LBE3407:
.LBE3406:
	.loc 2 2273 0
	fsubs 13,13,0
	.loc 2 2274 0
	lfs 12,0(10)
	lfs 0,4(10)
	.loc 2 2275 0
	addi 6,6,4
	addi 8,8,1
.LVL584:
	addi 5,5,4
	.loc 2 2273 0
	fdivs 13,11,13
.LVL585:
	.loc 2 2274 0
	fsubs 11,9,13
	.loc 2 2275 0
	fmuls 13,0,13
.LVL586:
	.loc 2 2274 0
	fmadds 0,11,0,12
	stfs 0,0(10)
	.loc 2 2275 0
	stfsu 13,4(10)
	.loc 2 2271 0
	bdnz .L629
.LVL587:
.L613:
	.loc 2 2268 0
	addi 28,28,1
.LVL588:
	mr 8,27
	cmpw 7,22,28
	addi 25,25,-4
	addi 26,26,-1
	bge+ 7,.L630
.LVL589:
.L612:
.LBE3433:
.LBE3441:
	.loc 2 2421 0
	lwz 0,52(4)
	.loc 2 2420 0
	lis 9,.LC0@ha
.LBB3442:
.LBB3434:
	.loc 3 223 0
	lwz 11,32(4)
.LVL590:
.LBE3434:
.LBE3442:
	.loc 2 2421 0
	cmpwi 7,0,0
	.loc 2 2420 0
	lfs 9,.LC0@l(9)
.LBB3443:
.LBB3444:
	.loc 4 897 0
	lfs 31,0(11)
	lfs 30,4(11)
	lfs 29,8(11)
	fsubs 10,31,31
.LVL591:
	lfs 28,12(11)
	fsubs 11,30,30
	fsubs 12,29,29
	fsubs 13,28,28
.LVL592:
.LBE3444:
.LBE3443:
	.loc 2 2421 0
	ble- 7,.L631
	lwz 26,56(4)
	.loc 2 2422 0
	srawi 9,0,1
.LBB3445:
.LBB3446:
.LBB3447:
.LBB3448:
	.loc 2 2405 0
	subf 9,9,23
	addi 8,19,-4
.LBE3448:
.LBE3447:
.LBE3446:
.LBE3445:
	.loc 2 2421 0
	addi 29,26,-1
.LBB3473:
.LBB3457:
	.loc 2 2536 0
	addi 25,26,-2
.LBB3450:
.LBB3451:
	.loc 2 2405 0
	slwi 7,9,2
	lwz 6,68(4)
.LBE3451:
.LBE3450:
.LBB3453:
.LBB3454:
	.loc 5 573 0
	slwi 24,29,2
.LBE3454:
.LBE3453:
.LBB3455:
.LBB3449:
	slwi 25,25,2
	.loc 2 2405 0
	slwi 10,9,4
.LBE3449:
.LBE3455:
.LBE3457:
.LBE3473:
.LBB3474:
.LBB3475:
	.loc 2 989 0
	lis 27,0x4330
	lis 28,.LC3@ha
.LBE3475:
.LBE3474:
.LBB3542:
.LBB3458:
.LBB3456:
.LBB3452:
	.loc 2 2405 0
	subf 19,19,7
.LVL593:
.LBE3452:
.LBE3456:
	subfic 23,26,1
	mtctr 0
	b .L639
.LVL594:
.L672:
	.loc 2 2533 0
	lwz 0,44(4)
	cmpwi 7,0,2
	beq- 7,.L668
	.loc 2 2405 0
	add 0,23,9
	.loc 2 2536 0
	lfsx 7,6,24
	xoris 0,0,0x8000
	stw 27,112(31)
	stw 0,116(31)
	lfs 0,.LC3@l(28)
	lfd 5,112(31)
	lfsx 6,6,25
	fsub 0,5,0
	fsubs 6,7,6
	frsp 0,0
	fmadds 0,0,6,7
.L637:
.LBE3458:
.LBE3542:
.LBB3543:
	.loc 3 223 0
	lwz 7,20(4)
.LBE3543:
	.loc 2 2423 0
	fmuls 0,8,0
.LVL595:
.LBB3544:
.LBB3514:
	.loc 2 974 0
	addi 0,7,-1
	.loc 2 984 0
	cmpw 7,9,0
.LBE3514:
.LBE3544:
	.loc 2 2424 0
	fadds 9,9,0
.LVL596:
.LBB3545:
.LBB3515:
	.loc 2 984 0
	ble- 7,.L669
.LVL597:
.L641:
	.loc 2 985 0
	lwz 5,44(4)
	cmpwi 7,5,2
	beq- 7,.L670
.LVL598:
	.loc 2 989 0
	subf 5,0,9
	stw 27,120(31)
	xoris 5,5,0x8000
	lfs 8,.LC3@l(28)
	stw 5,124(31)
	addi 7,7,-2
.LBB3476:
.LBB3477:
	.loc 5 573 0
	slwi 0,0,4
.LVL599:
.LBE3477:
.LBE3476:
.LBB3479:
.LBB3480:
	slwi 7,7,4
.LBE3480:
.LBE3479:
	.loc 2 989 0
	lfd 4,120(31)
.LBB3482:
.LBB3478:
	.loc 5 573 0
	add 30,11,0
.LBE3478:
.LBE3482:
.LBB3483:
.LBB3481:
	add 5,11,7
.LBE3481:
.LBE3483:
.LBB3484:
.LBB3485:
	.loc 4 897 0
	lfsx 5,11,0
.LBE3485:
.LBE3484:
	.loc 2 989 0
	fsub 4,4,8
.LBB3488:
.LBB3486:
	.loc 4 897 0
	lfs 1,4(30)
	lfs 2,8(30)
	lfs 3,12(30)
	lfsx 27,11,7
.LBE3486:
.LBE3488:
	.loc 2 989 0
	frsp 4,4
.LBB3489:
.LBB3487:
	.loc 4 897 0
	lfs 6,4(5)
	lfs 7,8(5)
.LVL600:
	fsubs 27,5,27
	lfs 8,12(5)
	fsubs 6,1,6
	fsubs 7,2,7
	fsubs 8,3,8
	.loc 4 918 0
	fmadds 5,4,27,5
	fmadds 6,4,6,1
	fmadds 7,4,7,2
	fmadds 8,4,8,3
.LVL601:
.L634:
.LBE3487:
.LBE3489:
.LBB3490:
.LBB3491:
	.loc 4 922 0 discriminator 2
	fmadds 10,0,5,10
.LVL602:
.LBE3491:
.LBE3490:
.LBE3515:
.LBE3545:
	.loc 2 2421 0 discriminator 2
	addi 9,9,1
.LVL603:
.LBB3546:
.LBB3516:
.LBB3497:
.LBB3492:
	.loc 4 923 0 discriminator 2
	fmadds 11,0,6,11
.LVL604:
.LBE3492:
.LBE3497:
.LBE3516:
.LBE3546:
	.loc 2 2421 0 discriminator 2
	addi 10,10,16
.LBB3547:
.LBB3517:
.LBB3498:
.LBB3493:
	.loc 4 924 0 discriminator 2
	fmadds 12,0,7,12
.LVL605:
	.loc 4 925 0 discriminator 2
	fmadds 13,0,8,13
.LVL606:
.LBE3493:
.LBE3498:
.LBE3517:
.LBE3547:
	.loc 2 2421 0 discriminator 2
	bdz .L631
.LVL607:
.L639:
.LBB3548:
.LBB3459:
	.loc 2 2526 0 discriminator 2
	cmpwi 7,9,0
.LBE3459:
.LBE3548:
	.loc 2 2423 0 discriminator 2
	lfsu 8,4(8)
.LVL608:
.LBB3549:
.LBB3460:
	.loc 2 2526 0 discriminator 2
	blt- 7,.L671
	.loc 2 2532 0
	cmpw 7,9,29
	bgt- 7,.L672
.LVL609:
	.loc 2 2539 0
	add 7,6,8
	lfsx 0,7,19
.LBE3460:
.LBE3549:
.LBB3550:
	.loc 3 223 0
	lwz 7,20(4)
.LBE3550:
	.loc 2 2423 0
	fmuls 0,8,0
.LVL610:
.LBB3551:
.LBB3518:
	.loc 2 974 0
	addi 0,7,-1
	.loc 2 984 0
	cmpw 7,9,0
.LBE3518:
.LBE3551:
	.loc 2 2424 0
	fadds 9,9,0
.LVL611:
.LBB3552:
.LBB3519:
	.loc 2 984 0
	bgt- 7,.L641
.LVL612:
.L669:
.LBB3499:
.LBB3494:
	.loc 5 573 0
	add 7,11,10
	.loc 2 992 0
	lfsx 5,11,10
	lfs 6,4(7)
.LBE3494:
.LBE3499:
.LBE3519:
.LBE3552:
	.loc 2 2421 0
	addi 9,9,1
.LVL613:
.LBB3553:
.LBB3520:
.LBB3500:
.LBB3495:
	.loc 2 992 0
	lfs 7,8(7)
	.loc 4 922 0
	fmadds 10,0,5,10
.LVL614:
	.loc 2 992 0
	lfs 8,12(7)
.LVL615:
	.loc 4 923 0
	fmadds 11,0,6,11
.LVL616:
	.loc 4 924 0
	fmadds 12,0,7,12
.LVL617:
.LBE3495:
.LBE3500:
.LBE3520:
.LBE3553:
	.loc 2 2421 0
	addi 10,10,16
.LBB3554:
.LBB3521:
.LBB3501:
.LBB3496:
	.loc 4 925 0
	fmadds 13,0,8,13
.LVL618:
.LBE3496:
.LBE3501:
.LBE3521:
.LBE3554:
	.loc 2 2421 0
	bdnz .L639
.LVL619:
.L631:
.LBB3555:
.LBB3556:
	.loc 4 909 0
	lfs 0,.LC1@l(18)
	fdivs 9,0,9
.LVL620:
	.loc 4 910 0
	fmuls 10,9,10
.LVL621:
	fmuls 11,9,11
.LVL622:
	fmuls 12,9,12
.LVL623:
	fmuls 13,9,13
.LVL624:
.LBB3557:
.LBB3558:
	.loc 4 867 0
	stfs 10,0(3)
	.loc 4 868 0
	stfs 11,4(3)
	.loc 4 869 0
	stfs 12,8(3)
	.loc 4 870 0
	stfs 13,12(3)
	b .L589
.LVL625:
.L622:
.LBE3558:
.LBE3557:
.LBE3556:
.LBE3555:
.LBB3559:
.LBB3435:
.LBB3418:
.LBB3398:
	.loc 2 1022 0
	lfsx 13,9,5
.LVL626:
.LBE3398:
.LBE3418:
.LBB3419:
.LBB3412:
	.loc 2 1006 0
	bge+ 0,.L624
.LVL627:
.L666:
	.loc 2 1007 0
	lwz 29,44(4)
	cmpwi 7,29,2
	beq- 7,.L673
.LVL628:
.LBE3412:
.LBB3413:
.LBB3414:
	.loc 2 1011 0
	xoris 11,0,0x8000
.LVL629:
	lfs 12,0(9)
.LVL630:
	stw 11,84(31)
	stw 30,80(31)
	lfs 0,.LC3@l(12)
	lfd 7,80(31)
	lfs 8,4(9)
	fsub 0,7,0
	fsubs 8,8,12
	frsp 0,0
	fmadds 0,0,8,12
	b .L626
.LVL631:
.L617:
.LBE3414:
.LBE3413:
.LBE3419:
.LBB3420:
	.loc 3 223 0
	lwz 9,16(4)
.LVL632:
.LBE3420:
.LBB3421:
.LBB3399:
	.loc 2 1006 0
	cmpwi 7,8,0
.LBE3399:
.LBE3421:
.LBB3422:
.LBB3381:
	.loc 2 1022 0
	lfsx 11,9,6
.LBE3381:
.LBE3422:
	.loc 2 2273 0
	fsubs 11,10,11
.LVL633:
.LBB3423:
.LBB3400:
	.loc 2 1006 0
	bge+ 7,.L619
.LVL634:
.L664:
	.loc 2 1007 0
	lwz 29,44(4)
	cmpwi 7,29,2
	beq- 7,.L674
.LVL635:
.LBE3400:
.LBB3401:
.LBB3402:
	.loc 2 1011 0
	xoris 29,8,0x8000
	lfs 0,0(9)
.LVL636:
	stw 29,52(31)
	stw 30,48(31)
	lfs 13,.LC3@l(12)
	lfd 8,48(31)
	lfs 12,4(9)
	fsub 13,8,13
	fsubs 12,12,0
	frsp 13,13
	fmadds 13,13,12,0
	b .L621
.LVL637:
.L627:
.LBE3402:
.LBE3401:
.LBE3423:
.LBB3424:
.LBB3415:
	.loc 2 1022 0
	lfsx 0,9,6
	b .L626
.LVL638:
.L662:
.LBE3415:
.LBE3424:
.LBB3425:
.LBB3382:
	.loc 2 1007 0
	lwz 9,44(4)
	cmpwi 7,9,2
	beq- 7,.L675
.LVL639:
.LBE3382:
.LBB3383:
	.loc 3 223 0
	lwz 9,16(4)
.LVL640:
.LBB3384:
	.loc 2 1011 0
	xoris 29,0,0x8000
	lfs 12,.LC3@l(12)
	lfs 0,0(9)
.LVL641:
	stw 29,20(31)
	stw 30,16(31)
	lfd 11,16(31)
	lfs 13,4(9)
	fsub 11,11,12
	fsubs 13,13,0
	frsp 11,11
	fmadds 11,11,13,0
	b .L616
.LVL642:
.L663:
.LBE3384:
.LBE3383:
.LBB3385:
	.loc 2 1016 0
	divw 29,0,7
	stw 30,24(31)
	lfs 13,.LC3@l(12)
	slwi 16,11,2
.LBE3385:
	.loc 3 223 0
	lwz 9,16(4)
.LVL643:
.LBB3386:
	.loc 2 1016 0
	lfs 0,48(4)
	xoris 15,29,0x8000
	mullw 29,29,7
	stw 15,28(31)
	lfd 12,24(31)
	lfsx 11,9,16
	subf 29,29,0
	fsub 13,12,13
	slwi 29,29,2
	fadds 11,11,0
.LBE3386:
	lfsx 0,9,29
.LBB3387:
	frsp 13,13
.LBE3387:
	fmadds 11,13,11,0
	b .L616
.LVL644:
.L665:
.LBE3425:
.LBB3426:
.LBB3403:
	divw 29,8,7
	stw 30,56(31)
	lfs 12,.LC3@l(12)
	slwi 16,11,2
	lfs 0,48(4)
	xoris 15,29,0x8000
	mullw 29,29,7
	stw 15,60(31)
	lfd 8,56(31)
	lfsx 13,9,16
	subf 29,29,8
	fsub 12,8,12
	slwi 29,29,2
	fadds 13,13,0
	lfsx 0,9,29
	frsp 12,12
	fmadds 13,12,13,0
	b .L621
.LVL645:
.L667:
.LBE3403:
.LBE3426:
.LBB3427:
.LBB3416:
	divw 29,0,7
	stw 30,88(31)
	lfs 8,.LC3@l(12)
	slwi 11,11,2
.LVL646:
	lfs 12,48(4)
	xoris 16,29,0x8000
	mullw 7,29,7
.LVL647:
	stw 16,92(31)
	lfd 7,88(31)
	lfsx 0,9,11
	subf 7,7,0
	fsub 8,7,8
	slwi 7,7,2
	fadds 0,0,12
	lfsx 12,9,7
	frsp 8,8
	fmadds 0,8,0,12
	b .L626
.LVL648:
.L674:
.LBE3416:
.LBE3427:
.LBB3428:
.LBB3404:
	.loc 2 1008 0
	divw 29,8,7
	slwi 16,11,2
	lfsx 13,9,16
	lfs 0,48(4)
	lfs 8,.LC3@l(12)
	fadds 0,13,0
.LVL649:
	mullw 16,29,7
	xoris 29,29,0x8000
	subf 16,16,8
.LBB3395:
.LBB3396:
	.loc 5 573 0
	add 16,7,16
.LBE3396:
.LBE3395:
	.loc 2 1008 0
	slwi 16,16,2
	lfsx 12,9,16
	stw 29,44(31)
	stw 30,40(31)
	fsubs 12,0,12
	lfd 13,40(31)
	fsub 13,13,8
	frsp 13,13
	fmsubs 13,13,0,12
	b .L621
.LVL650:
.L675:
.LBE3404:
.LBE3428:
.LBB3429:
.LBB3388:
	divw 29,0,7
.LBE3388:
	.loc 3 223 0
	lwz 9,16(4)
.LVL651:
.LBB3389:
	.loc 2 1008 0
	slwi 16,11,2
	lfs 0,48(4)
	lfsx 11,9,16
	lfs 12,.LC3@l(12)
	fadds 0,11,0
.LVL652:
	mullw 16,29,7
	xoris 29,29,0x8000
	subf 16,16,0
.LBB3376:
.LBB3377:
	.loc 5 573 0
	add 16,7,16
.LBE3377:
.LBE3376:
	.loc 2 1008 0
	slwi 16,16,2
	lfsx 13,9,16
	stw 29,12(31)
	stw 30,8(31)
	fsubs 13,0,13
	lfd 11,8(31)
	fsub 11,11,12
	frsp 11,11
	fmsubs 11,11,0,13
	b .L616
.LVL653:
.L673:
.LBE3389:
.LBE3429:
.LBB3430:
.LBB3417:
	divw 29,0,7
	slwi 11,11,2
.LVL654:
	lfsx 12,9,11
	lfs 0,48(4)
	lfs 7,.LC3@l(12)
	fadds 12,12,0
.LVL655:
	mullw 11,29,7
	xoris 29,29,0x8000
	subf 11,11,0
.LBB3410:
.LBB3411:
	.loc 5 573 0
	add 7,7,11
.LBE3411:
.LBE3410:
	.loc 2 1008 0
	slwi 7,7,2
	lfsx 8,9,7
	stw 29,76(31)
	stw 30,72(31)
	fsubs 8,12,8
	lfd 0,72(31)
	fsub 0,0,7
	frsp 0,0
	fmsubs 0,0,12,8
	b .L626
.LVL656:
.L671:
.LBE3417:
.LBE3430:
.LBE3435:
.LBE3559:
.LBB3560:
.LBB3461:
	.loc 2 2527 0
	lwz 0,44(4)
	cmpwi 7,0,2
	beq- 7,.L676
.LVL657:
	.loc 2 2530 0
	xoris 0,9,0x8000
	lfs 0,0(6)
	stw 0,108(31)
	stw 27,104(31)
	lfs 7,.LC3@l(28)
	lfd 4,104(31)
	lfs 3,4(6)
	fsub 4,4,7
.LBE3461:
.LBE3560:
.LBB3561:
.LBB3522:
.LBB3502:
.LBB3503:
	.loc 4 897 0
	lfs 5,16(11)
.LBE3503:
.LBE3502:
.LBE3522:
.LBE3561:
.LBB3562:
.LBB3462:
	.loc 2 2530 0
	fsubs 3,3,0
.LBE3462:
.LBE3562:
.LBB3563:
.LBB3523:
.LBB3508:
.LBB3504:
	.loc 4 897 0
	lfs 6,20(11)
	lfs 7,24(11)
	fsubs 5,5,31
.LBE3504:
.LBE3508:
.LBE3523:
.LBE3563:
.LBB3564:
.LBB3463:
	.loc 2 2530 0
	frsp 4,4
.LVL658:
.LBE3463:
.LBE3564:
.LBB3565:
.LBB3524:
.LBB3509:
.LBB3505:
	.loc 4 897 0
	fsubs 6,6,30
	fsubs 7,7,29
.LBE3505:
.LBE3509:
.LBE3524:
.LBE3565:
	.loc 2 2530 0
	fmadds 0,4,3,0
.LBB3566:
.LBB3525:
.LBB3510:
.LBB3506:
	.loc 4 897 0
	lfs 3,28(11)
.LBE3506:
.LBE3510:
.LBE3525:
.LBE3566:
	.loc 4 918 0
	fmadds 5,4,5,31
	fmadds 6,4,6,30
	.loc 2 2423 0
	fmuls 0,8,0
.LVL659:
.LBB3567:
.LBB3526:
.LBB3511:
.LBB3507:
	.loc 4 897 0
	fsubs 8,3,28
.LBE3507:
.LBE3511:
.LBE3526:
.LBE3567:
	.loc 4 918 0
	fmadds 7,4,7,29
	.loc 2 2424 0
	fadds 9,9,0
.LVL660:
	.loc 4 918 0
	fmadds 8,4,8,28
.LVL661:
	b .L634
.LVL662:
.L668:
.LBB3568:
.LBB3464:
	.loc 2 2534 0
	divw 0,9,26
	mullw 0,0,26
	subf 0,0,9
	slwi 0,0,2
	lfsx 0,6,0
	b .L637
.LVL663:
.L670:
.LBE3464:
.LBE3568:
.LBB3569:
.LBB3527:
	.loc 2 986 0
	divw 0,9,7
.LVL664:
	mullw 0,0,7
	subf 0,0,9
.LBB3512:
.LBB3513:
	.loc 5 573 0
	slwi 0,0,4
	add 7,11,0
.LVL665:
	.loc 2 986 0
	lfsx 5,11,0
	lfs 6,4(7)
	lfs 7,8(7)
	lfs 8,12(7)
	b .L634
.LVL666:
.L676:
.LBE3513:
.LBE3512:
.LBE3527:
.LBE3569:
.LBB3570:
.LBB3465:
.LBB3466:
	.loc 2 2528 0
	divw 5,9,26
.LBE3466:
.LBE3465:
.LBE3570:
.LBB3571:
	.loc 3 223 0
	lwz 0,20(4)
.LBB3528:
.LBB3529:
	.loc 2 978 0
	divw 7,9,0
.LBE3529:
.LBE3528:
.LBE3571:
.LBB3572:
.LBB3471:
.LBB3469:
	.loc 2 2528 0
	mullw 5,5,26
.LBE3469:
.LBE3471:
.LBE3572:
.LBB3573:
.LBB3538:
.LBB3534:
	.loc 2 978 0
	mullw 7,7,0
.LBE3534:
.LBE3538:
.LBE3573:
.LBB3574:
.LBB3472:
.LBB3470:
	.loc 2 2528 0
	subf 5,5,9
.LBB3467:
.LBB3468:
	.loc 5 573 0
	add 5,26,5
.LBE3468:
.LBE3467:
	.loc 2 2528 0
	slwi 5,5,2
.LBE3470:
.LBE3472:
.LBE3574:
	.loc 2 2423 0
	lfsx 0,6,5
.LBB3575:
.LBB3539:
.LBB3535:
	.loc 2 978 0
	subf 7,7,9
.LBE3535:
.LBE3539:
.LBE3575:
	.loc 2 2423 0
	fmuls 0,8,0
.LVL667:
.LBB3576:
.LBB3540:
.LBB3536:
	.loc 2 978 0
	add 0,0,7
.LBB3530:
.LBB3531:
	.loc 5 573 0
	slwi 0,0,4
	add 7,11,0
	.loc 2 978 0
	lfsx 5,11,0
.LBE3531:
.LBE3530:
.LBE3536:
.LBE3540:
.LBE3576:
	.loc 2 2424 0
	fadds 9,9,0
.LVL668:
.LBB3577:
.LBB3541:
.LBB3537:
.LBB3533:
.LBB3532:
	.loc 2 978 0
	lfs 6,4(7)
	lfs 7,8(7)
	lfs 8,12(7)
	b .L634
.LVL669:
.L658:
.LBE3532:
.LBE3533:
.LBE3537:
.LBE3541:
.LBE3577:
.LBB3578:
.LBB3365:
	.loc 2 394 0
	lwz 10,16(4)
	li 21,-1
	lfs 0,0(10)
	fcmpu 7,10,0
	cror 30,28,30
	bne+ 7,.L596
	b .L598
.LVL670:
.L640:
	.loc 2 403 0
	addi 0,23,1
	cmpw 7,0,9
	beq- 7,.L603
.LVL671:
	slwi 8,0,2
	lfsx 0,10,8
	fcmpu 7,10,0
	cror 30,28,30
	bne- 7,.L596
.LVL672:
.L603:
.LBE3365:
.LBB3366:
.LBB3362:
.LBB3359:
	.loc 2 405 0
	mr 21,23
.LVL673:
	stw 0,36(4)
	.loc 2 403 0
	mr 23,0
	b .L598
.LVL674:
.L659:
.LBE3359:
.LBE3362:
.LBE3366:
.LBB3367:
	.loc 2 398 0
	addi 21,9,-1
.LVL675:
	lwz 10,16(4)
	slwi 0,21,2
	lfsx 0,10,0
	fcmpu 7,10,0
	bng+ 7,.L596
	b .L598
.LVL676:
.L644:
	.loc 2 415 0
	li 23,0
	li 21,-1
	.loc 2 428 0
	stw 23,36(4)
	b .L598
.LBE3367:
.LBE3578:
.LBE3581:
	.cfi_endproc
.LFE2804:
	.size	_ZNK13idCurve_NURBSI6idVec4E15GetCurrentValueEf, .-_ZNK13idCurve_NURBSI6idVec4E15GetCurrentValueEf
	.section	.text._ZNK25idCurve_NonUniformBSplineI6idVec4E15GetCurrentValueEf,"axG",@progbits,_ZNK25idCurve_NonUniformBSplineI6idVec4E15GetCurrentValueEf,comdat
	.align 2
	.weak	_ZNK25idCurve_NonUniformBSplineI6idVec4E15GetCurrentValueEf
	.type	_ZNK25idCurve_NonUniformBSplineI6idVec4E15GetCurrentValueEf, @function
_ZNK25idCurve_NonUniformBSplineI6idVec4E15GetCurrentValueEf:
.LFB2814:
	.loc 2 2176 0
	.cfi_startproc
.LVL677:
	mflr 0
.LBB3826:
	.loc 2 2180 0
	lwz 11,52(4)
.LBE3826:
	.loc 2 2176 0
	stwu 1,-216(1)
.LCFI46:
	.cfi_def_cfa_offset 216
	.cfi_register 65, 0
.LBB3990:
	.loc 2 2180 0
	slwi 10,11,2
	.loc 3 223 0
	lwz 9,4(4)
.LBE3990:
	.loc 2 2176 0
	stw 0,220(1)
.LBB3991:
	.loc 2 2180 0
	addi 0,10,45
	.cfi_offset 65, 4
	rlwinm 0,0,0,0,27
	lwz 10,0(1)
	neg 0,0
	.loc 2 2182 0
	cmpwi 7,9,1
.LBE3991:
	.loc 2 2176 0
	stw 18,128(1)
	stw 31,180(1)
	mr 31,1
	.cfi_offset 31, -36
	.cfi_offset 18, -88
.LCFI47:
	.cfi_def_cfa_register 31
	stfd 28,184(1)
	stfd 29,192(1)
	stfd 30,200(1)
	stfd 31,208(1)
	stw 16,120(1)
	stw 17,124(1)
	stw 19,132(1)
	stw 20,136(1)
	stw 21,140(1)
	stw 22,144(1)
	stw 23,148(1)
	stw 24,152(1)
	stw 25,156(1)
	stw 26,160(1)
	stw 27,164(1)
	stw 28,168(1)
	stw 29,172(1)
	stw 30,176(1)
.LBB3992:
	.loc 2 2180 0
	stwux 10,1,0
	addi 0,1,23
	rlwinm 18,0,0,0,27
.LVL678:
	.loc 2 2182 0
	beq- 7,.L738
	.cfi_offset 30, -40
	.cfi_offset 29, -44
	.cfi_offset 28, -48
	.cfi_offset 27, -52
	.cfi_offset 26, -56
	.cfi_offset 25, -60
	.cfi_offset 24, -64
	.cfi_offset 23, -68
	.cfi_offset 22, -72
	.cfi_offset 21, -76
	.cfi_offset 20, -80
	.cfi_offset 19, -84
	.cfi_offset 17, -92
	.cfi_offset 16, -96
	.cfi_offset 63, -8
	.cfi_offset 62, -16
	.cfi_offset 61, -24
	.cfi_offset 60, -32
.LVL679:
.LBB3827:
.LBB3828:
	.loc 2 1034 0
	lwz 0,44(4)
	.loc 2 1042 0
	fmr 10,1
	.loc 2 1034 0
	cmpwi 7,0,1
	beq- 7,.L739
.L680:
.LVL680:
.LBE3828:
.LBE3827:
.LBB3832:
.LBB3833:
	.loc 2 391 0
	lwz 22,36(4)
	cmpwi 7,22,0
	blt- 7,.L681
	cmpw 6,9,22
	blt- 6,.L681
	.loc 2 393 0
	beq- 7,.L740
	.loc 2 397 0
	beq- 6,.L741
	.loc 2 401 0
	addi 21,22,-1
.LBE3833:
	.loc 3 223 0
	lwz 10,16(4)
.LVL681:
.LBB3836:
	.loc 2 401 0
	slwi 0,21,2
	lfsx 0,10,0
.LBB3834:
.LBB3835:
	.loc 5 573 0
	slwi 0,22,2
.LBE3835:
.LBE3834:
	.loc 2 401 0
	fcmpu 7,10,0
	bng- 7,.L687
.LVL682:
	lfsx 0,10,0
	fcmpu 7,10,0
	cror 30,28,30
	beq- 7,.L683
.LVL683:
.L687:
	.loc 2 403 0
	lfsx 0,10,0
	fcmpu 7,10,0
	bgt- 7,.L722
.LVL684:
.L681:
	.loc 2 415 0
	cmpwi 7,9,0
	ble- 7,.L726
	.loc 2 416 0
	srawi 0,9,1
.LVL685:
.LBE3836:
	.loc 3 223 0
	lwz 6,16(4)
.LVL686:
.LBB3837:
	.loc 2 417 0
	slwi 10,0,2
	mr 22,0
	lfsx 0,6,10
	li 8,0
	fcmpu 7,10,0
	bne+ 7,.L691
	b .L690
.LVL687:
.L743:
	.loc 2 415 0
	cmpwi 7,0,0
	.loc 2 421 0
	mr 8,22
.LVL688:
	.loc 2 416 0
	srawi 0,9,1
.LVL689:
	.loc 2 417 0
	add 22,0,8
.LVL690:
	slwi 10,22,2
	.loc 2 415 0
	ble- 7,.L742
.L695:
.LVL691:
	.loc 2 417 0
	lfsx 0,6,10
	fcmpu 7,10,0
	beq- 7,.L690
.LVL692:
.L691:
	.loc 2 419 0
	fcmpu 7,10,0
	.loc 2 421 0
	subf 9,0,9
.LVL693:
	.loc 2 422 0
	li 7,1
	.loc 2 419 0
	bgt- 7,.L743
.LVL694:
	.loc 2 415 0
	cmpwi 7,0,0
	.loc 2 416 0
	srawi 0,9,1
.LVL695:
	.loc 2 417 0
	add 22,0,8
.LVL696:
	.loc 2 425 0
	li 7,0
.LVL697:
	.loc 2 417 0
	slwi 10,22,2
	.loc 2 415 0
	bgt+ 7,.L695
.L742:
	add 22,8,7
	addi 21,22,-1
	.loc 2 428 0
	stw 22,36(4)
	b .L683
.LVL698:
.L739:
.LBE3837:
.LBE3832:
.LBB3853:
	.loc 3 223 0
	lwz 10,16(4)
.LVL699:
.LBB3831:
	.loc 2 1035 0
	lfs 10,0(10)
	fcmpu 7,1,10
	blt- 7,.L680
.LVL700:
.LBB3829:
.LBB3830:
	.loc 5 573 0
	addi 0,9,-1
.LBE3830:
.LBE3829:
	.loc 2 1038 0
	slwi 0,0,2
	lfsx 10,10,0
	fcmpu 7,1,10
	cror 30,29,30
	beq+ 7,.L680
	.loc 2 1042 0
	fmr 10,1
	b .L680
.LVL701:
.L738:
.LBE3831:
.LBE3853:
	.loc 2 2183 0
	lwz 9,32(4)
	lwz 8,0(9)
	lwz 10,4(9)
	lwz 11,8(9)
	lwz 0,12(9)
	stw 8,0(3)
	stw 10,4(3)
	stw 11,8(3)
	stw 0,12(3)
.LVL702:
.L677:
.LBE3992:
	.loc 2 2195 0
	addi 11,31,216
	lwz 0,4(11)
	lwz 16,-96(11)
	mtlr 0
	lwz 17,-92(11)
	lwz 18,-88(11)
	lwz 19,-84(11)
	lwz 20,-80(11)
	lwz 21,-76(11)
	lwz 22,-72(11)
	lwz 23,-68(11)
	lwz 24,-64(11)
	lwz 25,-60(11)
	lwz 26,-56(11)
	lwz 27,-52(11)
	lwz 28,-48(11)
	lwz 29,-44(11)
	lwz 30,-40(11)
	lwz 31,-36(11)
	.cfi_remember_state
.LCFI48:
	.cfi_def_cfa 11, 0
	lfd 28,-32(11)
	lfd 29,-24(11)
	lfd 30,-16(11)
	lfd 31,-8(11)
	mr 1,11
.LCFI49:
	.cfi_def_cfa_register 1
	.cfi_restore 63
	.cfi_restore 62
	.cfi_restore 61
	.cfi_restore 60
	.cfi_restore 31
	.cfi_restore 30
	.cfi_restore 29
	.cfi_restore 28
	.cfi_restore 27
	.cfi_restore 26
	.cfi_restore 25
	.cfi_restore 24
	.cfi_restore 23
	.cfi_restore 22
	.cfi_restore 21
	.cfi_restore 20
	.cfi_restore 19
	.cfi_restore 18
	.cfi_restore 17
	.cfi_restore 16
	blr
.LVL703:
.L690:
.LCFI50:
	.cfi_restore_state
.LBB3993:
.LBB3854:
.LBB3838:
	.loc 2 417 0
	addi 21,22,-1
.LVL704:
.L683:
.LBE3838:
.LBE3854:
.LBB3855:
.LBB3856:
	.loc 2 2268 0
	cmpwi 7,11,1
	.loc 2 2267 0
	lis 19,.LC1@ha
	addi 9,11,-1
	lwz 0,.LC1@l(19)
.LVL705:
	slwi 9,9,2
	stwx 0,9,18
.LVL706:
	.loc 2 2268 0
	ble- 7,.L696
	.loc 2 2176 0
	addi 25,11,-2
	slwi 24,21,2
	slwi 23,25,2
.LBE3856:
.LBE3855:
.LBB3921:
.LBB3839:
.LBB3840:
.LBB3841:
	mr 7,21
.LBE3841:
.LBE3840:
.LBE3839:
.LBE3921:
.LBB3922:
.LBB3916:
	addi 23,23,4
.LBE3916:
.LBE3922:
.LBB3923:
.LBB3848:
.LBB3845:
.LBB3842:
	.loc 2 2268 0
	li 27,2
.LBE3842:
.LBE3845:
.LBE3848:
.LBE3923:
.LBB3924:
.LBB3917:
	.loc 2 2176 0
	add 23,23,18
	.loc 2 2270 0
	li 20,0
.LBB3857:
.LBB3858:
	.loc 2 1019 0
	lis 29,0x4330
	lis 30,.LC3@ha
.LVL707:
.L714:
.LBE3858:
.LBE3857:
	.loc 2 2176 0
	addi 0,25,1
	.loc 2 2270 0
	stwu 20,-4(23)
.LVL708:
	.loc 2 2271 0
	cmpw 7,11,0
	addi 26,7,-1
	ble- 7,.L697
	.loc 2 2176 0
	add 7,7,27
	.loc 2 2274 0
	subf 9,26,21
	.loc 2 2176 0
	addi 7,7,-1
	.loc 2 2274 0
	lfs 9,.LC1@l(19)
	mtctr 9
	.loc 2 2176 0
	mr 0,26
	slwi 12,7,2
.LBE3917:
.LBE3924:
.LBB3925:
.LBB3849:
.LBB3846:
.LBB3843:
	mr 5,24
	mr 8,23
.LVL709:
.L713:
.LBE3843:
.LBE3846:
.LBE3849:
.LBE3925:
.LBB3926:
.LBB3918:
.LBB3875:
.LBB3863:
	.loc 2 1006 0
	addic. 0,0,1
.LVL710:
.LBE3863:
	.loc 3 223 0
	lwz 6,4(4)
.LBB3864:
	.loc 2 1004 0
	addi 10,6,-1
.LVL711:
	.loc 2 1006 0
	blt- 0,.L744
	.loc 2 1014 0
	cmpw 7,0,10
	ble- 7,.L701
	.loc 2 1015 0
	lwz 9,44(4)
	cmpwi 7,9,2
	beq- 7,.L745
.LBE3864:
	.loc 3 223 0
	lwz 9,16(4)
.LVL712:
.LBB3865:
	.loc 2 1019 0
	subf 28,10,0
	xoris 28,28,0x8000
	slwi 17,10,2
	lfsx 0,9,17
.LVL713:
	stw 28,36(31)
.LBB3859:
.LBB3860:
	.loc 5 573 0
	addi 28,6,-2
.LBE3860:
.LBE3859:
	.loc 2 1019 0
	stw 29,32(31)
	slwi 28,28,2
	lfs 13,.LC3@l(30)
	lfd 11,32(31)
	fsub 11,11,13
	lfsx 13,9,28
	fsubs 13,0,13
	frsp 11,11
	fmadds 11,11,13,0
.LVL714:
.L700:
.LBE3865:
.LBE3875:
.LBB3876:
.LBB3877:
	.loc 2 1006 0
	cmpwi 7,7,0
.LBE3877:
.LBE3876:
	.loc 2 2273 0
	fsubs 11,10,11
.LVL715:
.LBB3890:
.LBB3882:
	.loc 2 1006 0
	blt- 7,.L746
.LVL716:
.L703:
	.loc 2 1014 0
	cmpw 7,7,10
	ble- 7,.L706
	.loc 2 1015 0
	lwz 28,44(4)
	cmpwi 7,28,2
	beq- 7,.L747
.LVL717:
	.loc 2 1019 0
	subf 28,10,7
	slwi 17,10,2
	xoris 28,28,0x8000
	lfsx 0,9,17
.LVL718:
	stw 28,68(31)
.LBB3878:
.LBB3879:
	.loc 5 573 0
	addi 28,6,-2
.LBE3879:
.LBE3878:
	.loc 2 1019 0
	stw 29,64(31)
	slwi 28,28,2
	lfs 13,.LC3@l(30)
	lfd 12,64(31)
	fsub 12,12,13
	lfsx 13,9,28
	fsubs 13,0,13
	frsp 12,12
	fmadds 13,12,13,0
.LVL719:
.L705:
.LBE3882:
.LBE3890:
.LBB3891:
.LBB3892:
	.loc 2 1006 0
	blt- 0,.L748
.LVL720:
.L708:
	.loc 2 1014 0
	cmpw 7,0,10
	ble- 7,.L711
	.loc 2 1015 0
	lwz 28,44(4)
	cmpwi 7,28,2
	beq- 7,.L749
.LVL721:
	.loc 2 1019 0
	subf 28,10,0
	slwi 10,10,2
.LVL722:
	xoris 28,28,0x8000
	lfsx 12,9,10
.LVL723:
	stw 28,100(31)
.LBB3893:
.LBB3894:
	.loc 5 573 0
	addi 6,6,-2
.LBE3894:
.LBE3893:
	.loc 2 1019 0
	stw 29,96(31)
	slwi 6,6,2
	lfs 0,.LC3@l(30)
	lfd 8,96(31)
	fsub 8,8,0
	lfsx 0,9,6
	fsubs 0,12,0
	frsp 8,8
	fmadds 0,8,0,12
.LVL724:
.L710:
.LBE3892:
.LBE3891:
	.loc 2 2273 0
	fsubs 13,13,0
	.loc 2 2274 0
	lfs 12,0(8)
	lfs 0,4(8)
	.loc 2 2275 0
	addi 5,5,4
	addi 7,7,1
.LVL725:
	addi 12,12,4
	.loc 2 2273 0
	fdivs 13,11,13
.LVL726:
	.loc 2 2274 0
	fsubs 11,9,13
	.loc 2 2275 0
	fmuls 13,0,13
.LVL727:
	.loc 2 2274 0
	fmadds 0,11,0,12
	stfs 0,0(8)
	.loc 2 2275 0
	stfsu 13,4(8)
	.loc 2 2271 0
	bdnz .L713
.LVL728:
.L697:
	.loc 2 2268 0
	addi 27,27,1
.LVL729:
	mr 7,26
	cmpw 7,11,27
	addi 24,24,-4
	addi 25,25,-1
	bge+ 7,.L714
.LVL730:
.L696:
.LBE3918:
.LBE3926:
	.loc 2 2190 0
	lwz 10,52(4)
.LBB3927:
.LBB3919:
	.loc 3 223 0
	lwz 11,32(4)
.LVL731:
.LBE3919:
.LBE3927:
	.loc 2 2190 0
	cmpwi 7,10,0
.LBB3928:
.LBB3929:
	.loc 4 897 0
	lfs 31,0(11)
	lfs 30,4(11)
	lfs 29,8(11)
	fsubs 10,31,31
.LVL732:
	lfs 28,12(11)
	fsubs 11,30,30
	fsubs 12,29,29
	fsubs 13,28,28
.LVL733:
.LBE3929:
.LBE3928:
	.loc 2 2190 0
	ble- 7,.L715
	lwz 6,20(4)
	.loc 2 2191 0
	srawi 9,10,1
.LBB3930:
.LBB3931:
.LBB3932:
.LBB3933:
	.loc 2 2176 0
	subf 22,9,22
	.loc 5 573 0
	addi 18,18,-4
.LVL734:
.LBE3933:
.LBE3932:
.LBE3931:
.LBE3930:
	.loc 2 2190 0
	addi 0,6,-1
.LBB3980:
.LBB3970:
	.loc 2 989 0
	addi 8,6,-2
.LBB3936:
.LBB3937:
	.loc 5 573 0
	slwi 7,0,4
.LBE3937:
.LBE3936:
.LBB3939:
.LBB3934:
	slwi 8,8,4
.LBE3934:
.LBE3939:
.LBB3940:
.LBB3938:
	add 7,11,7
.LBE3938:
.LBE3940:
.LBB3941:
.LBB3935:
	add 8,11,8
	slwi 9,22,4
.LBE3935:
.LBE3941:
	.loc 2 2176 0
	subfic 28,6,1
	.loc 2 989 0
	lis 29,0x4330
	lis 30,.LC3@ha
	mtctr 10
	b .L721
.LVL735:
.L752:
	.loc 2 2176 0
	add 10,28,22
	.loc 2 989 0
	xoris 5,10,0x8000
	.loc 2 985 0
	lwz 10,44(4)
	cmpwi 7,10,2
	beq- 7,.L750
	.loc 2 989 0
	stw 5,116(31)
	stw 29,112(31)
	lfs 9,.LC3@l(30)
	lfd 5,112(31)
.LBB3942:
.LBB3943:
	.loc 4 897 0
	lfs 1,0(7)
.LBE3943:
.LBE3942:
	.loc 2 989 0
	fsub 5,5,9
.LBB3946:
.LBB3944:
	.loc 4 897 0
	lfs 2,4(7)
	lfs 3,8(7)
	lfs 4,12(7)
	lfs 6,0(8)
.LBE3944:
.LBE3946:
	.loc 2 989 0
	frsp 5,5
.LVL736:
.LBB3947:
.LBB3945:
	.loc 4 897 0
	lfs 7,4(8)
	lfs 8,8(8)
	fsubs 6,1,6
	lfs 9,12(8)
	fsubs 7,2,7
	fsubs 8,3,8
	fsubs 9,4,9
	.loc 4 918 0
	fmadds 6,5,6,1
	fmadds 7,5,7,2
	fmadds 8,5,8,3
	fmadds 9,5,9,4
.LVL737:
.L718:
.LBE3945:
.LBE3947:
.LBB3948:
.LBB3949:
	.loc 4 922 0 discriminator 2
	fmadds 10,0,6,10
.LVL738:
.LBE3949:
.LBE3948:
.LBE3970:
.LBE3980:
	.loc 2 2190 0 discriminator 2
	addi 22,22,1
.LVL739:
.LBB3981:
.LBB3971:
.LBB3956:
.LBB3950:
	.loc 4 923 0 discriminator 2
	fmadds 11,0,7,11
.LVL740:
.LBE3950:
.LBE3956:
.LBE3971:
.LBE3981:
	.loc 2 2190 0 discriminator 2
	addi 9,9,16
.LBB3982:
.LBB3972:
.LBB3957:
.LBB3951:
	.loc 4 924 0 discriminator 2
	fmadds 12,0,8,12
.LVL741:
	.loc 4 925 0 discriminator 2
	fmadds 13,0,9,13
.LVL742:
.LBE3951:
.LBE3957:
.LBE3972:
.LBE3982:
	.loc 2 2190 0 discriminator 2
	bdz .L715
.LVL743:
.L721:
.LBB3983:
.LBB3973:
	.loc 2 976 0 discriminator 2
	cmpwi 7,22,0
	.loc 2 984 0 discriminator 2
	cmpw 6,22,0
.LBE3973:
.LBE3983:
	.loc 2 2192 0 discriminator 2
	lfsu 0,4(18)
.LVL744:
.LBB3984:
.LBB3974:
	.loc 2 976 0 discriminator 2
	blt- 7,.L751
.LBB3958:
.LBB3952:
	.loc 5 573 0
	add 10,11,9
.LBE3952:
.LBE3958:
	.loc 2 984 0
	bgt- 6,.L752
.LVL745:
.LBB3959:
.LBB3953:
	.loc 2 992 0
	lfsx 6,11,9
.LBE3953:
.LBE3959:
.LBE3974:
.LBE3984:
	.loc 2 2190 0
	addi 22,22,1
.LVL746:
.LBB3985:
.LBB3975:
.LBB3960:
.LBB3954:
	.loc 2 992 0
	lfs 7,4(10)
.LBE3954:
.LBE3960:
.LBE3975:
.LBE3985:
	.loc 2 2190 0
	addi 9,9,16
.LBB3986:
.LBB3976:
.LBB3961:
.LBB3955:
	.loc 2 992 0
	lfs 8,8(10)
	.loc 4 922 0
	fmadds 10,0,6,10
.LVL747:
	.loc 2 992 0
	lfs 9,12(10)
.LVL748:
	.loc 4 923 0
	fmadds 11,0,7,11
.LVL749:
	.loc 4 924 0
	fmadds 12,0,8,12
.LVL750:
	.loc 4 925 0
	fmadds 13,0,9,13
.LVL751:
.LBE3955:
.LBE3961:
.LBE3976:
.LBE3986:
	.loc 2 2190 0
	bdnz .L721
.LVL752:
.L715:
	.loc 2 2194 0
	stfs 10,0(3)
	stfs 11,4(3)
	stfs 12,8(3)
	stfs 13,12(3)
	b .L677
.LVL753:
.L706:
.LBB3987:
.LBB3920:
.LBB3903:
.LBB3883:
	.loc 2 1022 0
	lfsx 13,9,12
.LVL754:
.LBE3883:
.LBE3903:
.LBB3904:
.LBB3897:
	.loc 2 1006 0
	bge+ 0,.L708
.LVL755:
.L748:
	.loc 2 1007 0
	lwz 28,44(4)
	cmpwi 7,28,2
	beq- 7,.L753
.LVL756:
.LBE3897:
.LBB3898:
.LBB3899:
	.loc 2 1011 0
	xoris 10,0,0x8000
.LVL757:
	lfs 12,0(9)
.LVL758:
	stw 10,84(31)
	stw 29,80(31)
	lfs 0,.LC3@l(30)
	lfd 7,80(31)
	lfs 8,4(9)
	fsub 0,7,0
	fsubs 8,8,12
	frsp 0,0
	fmadds 0,0,8,12
	b .L710
.LVL759:
.L701:
.LBE3899:
.LBE3898:
.LBE3904:
.LBB3905:
	.loc 3 223 0
	lwz 9,16(4)
.LVL760:
.LBE3905:
.LBB3906:
.LBB3884:
	.loc 2 1006 0
	cmpwi 7,7,0
.LBE3884:
.LBE3906:
.LBB3907:
.LBB3866:
	.loc 2 1022 0
	lfsx 11,9,5
.LBE3866:
.LBE3907:
	.loc 2 2273 0
	fsubs 11,10,11
.LVL761:
.LBB3908:
.LBB3885:
	.loc 2 1006 0
	bge+ 7,.L703
.LVL762:
.L746:
	.loc 2 1007 0
	lwz 28,44(4)
	cmpwi 7,28,2
	beq- 7,.L754
.LVL763:
.LBE3885:
.LBB3886:
.LBB3887:
	.loc 2 1011 0
	xoris 28,7,0x8000
	lfs 0,0(9)
.LVL764:
	stw 28,52(31)
	stw 29,48(31)
	lfs 13,.LC3@l(30)
	lfd 8,48(31)
	lfs 12,4(9)
	fsub 13,8,13
	fsubs 12,12,0
	frsp 13,13
	fmadds 13,13,12,0
	b .L705
.LVL765:
.L711:
.LBE3887:
.LBE3886:
.LBE3908:
.LBB3909:
.LBB3900:
	.loc 2 1022 0
	lfsx 0,9,5
	b .L710
.LVL766:
.L744:
.LBE3900:
.LBE3909:
.LBB3910:
.LBB3867:
	.loc 2 1007 0
	lwz 9,44(4)
	cmpwi 7,9,2
	beq- 7,.L755
.LVL767:
.LBE3867:
.LBB3868:
	.loc 3 223 0
	lwz 9,16(4)
.LVL768:
.LBB3869:
	.loc 2 1011 0
	xoris 28,0,0x8000
	lfs 12,.LC3@l(30)
	lfs 0,0(9)
.LVL769:
	stw 28,20(31)
	stw 29,16(31)
	lfd 11,16(31)
	lfs 13,4(9)
	fsub 11,11,12
	fsubs 13,13,0
	frsp 11,11
	fmadds 11,11,13,0
	b .L700
.LVL770:
.L745:
.LBE3869:
.LBE3868:
.LBB3870:
	.loc 2 1016 0
	divw 28,0,6
	stw 29,24(31)
	lfs 13,.LC3@l(30)
	slwi 17,10,2
.LBE3870:
	.loc 3 223 0
	lwz 9,16(4)
.LVL771:
.LBB3871:
	.loc 2 1016 0
	lfs 0,48(4)
	xoris 16,28,0x8000
	mullw 28,28,6
	stw 16,28(31)
	lfd 12,24(31)
	lfsx 11,9,17
	subf 28,28,0
	fsub 13,12,13
	slwi 28,28,2
	fadds 11,11,0
.LBE3871:
	lfsx 0,9,28
.LBB3872:
	frsp 13,13
.LBE3872:
	fmadds 11,13,11,0
	b .L700
.LVL772:
.L747:
.LBE3910:
.LBB3911:
.LBB3888:
	divw 28,7,6
	stw 29,56(31)
	lfs 12,.LC3@l(30)
	slwi 17,10,2
	lfs 0,48(4)
	xoris 16,28,0x8000
	mullw 28,28,6
	stw 16,60(31)
	lfd 8,56(31)
	lfsx 13,9,17
	subf 28,28,7
	fsub 12,8,12
	slwi 28,28,2
	fadds 13,13,0
	lfsx 0,9,28
	frsp 12,12
	fmadds 13,12,13,0
	b .L705
.LVL773:
.L749:
.LBE3888:
.LBE3911:
.LBB3912:
.LBB3901:
	divw 28,0,6
	stw 29,88(31)
	lfs 8,.LC3@l(30)
	slwi 10,10,2
.LVL774:
	lfs 12,48(4)
	xoris 17,28,0x8000
	mullw 6,28,6
.LVL775:
	stw 17,92(31)
	lfd 7,88(31)
	lfsx 0,9,10
	subf 6,6,0
	fsub 8,7,8
	slwi 6,6,2
	fadds 0,0,12
	lfsx 12,9,6
	frsp 8,8
	fmadds 0,8,0,12
	b .L710
.LVL776:
.L755:
.LBE3901:
.LBE3912:
.LBB3913:
.LBB3873:
	.loc 2 1008 0
	divw 28,0,6
.LBE3873:
	.loc 3 223 0
	lwz 9,16(4)
.LVL777:
.LBB3874:
	.loc 2 1008 0
	slwi 17,10,2
	lfs 0,48(4)
	lfsx 11,9,17
	lfs 12,.LC3@l(30)
	fadds 0,11,0
.LVL778:
	mullw 17,28,6
	xoris 28,28,0x8000
	subf 17,17,0
.LBB3861:
.LBB3862:
	.loc 5 573 0
	add 17,6,17
.LBE3862:
.LBE3861:
	.loc 2 1008 0
	slwi 17,17,2
	lfsx 13,9,17
	stw 28,12(31)
	stw 29,8(31)
	fsubs 13,0,13
	lfd 11,8(31)
	fsub 11,11,12
	frsp 11,11
	fmsubs 11,11,0,13
	b .L700
.LVL779:
.L754:
.LBE3874:
.LBE3913:
.LBB3914:
.LBB3889:
	divw 28,7,6
	slwi 17,10,2
	lfsx 13,9,17
	lfs 0,48(4)
	lfs 8,.LC3@l(30)
	fadds 0,13,0
.LVL780:
	mullw 17,28,6
	xoris 28,28,0x8000
	subf 17,17,7
.LBB3880:
.LBB3881:
	.loc 5 573 0
	add 17,6,17
.LBE3881:
.LBE3880:
	.loc 2 1008 0
	slwi 17,17,2
	lfsx 12,9,17
	stw 28,44(31)
	stw 29,40(31)
	fsubs 12,0,12
	lfd 13,40(31)
	fsub 13,13,8
	frsp 13,13
	fmsubs 13,13,0,12
	b .L705
.LVL781:
.L753:
.LBE3889:
.LBE3914:
.LBB3915:
.LBB3902:
	divw 28,0,6
	slwi 10,10,2
.LVL782:
	lfsx 12,9,10
	lfs 0,48(4)
	lfs 7,.LC3@l(30)
	fadds 12,12,0
.LVL783:
	mullw 10,28,6
	xoris 28,28,0x8000
	subf 10,10,0
.LBB3895:
.LBB3896:
	.loc 5 573 0
	add 6,6,10
.LBE3896:
.LBE3895:
	.loc 2 1008 0
	slwi 6,6,2
	lfsx 8,9,6
	stw 28,76(31)
	stw 29,72(31)
	fsubs 8,12,8
	lfd 0,72(31)
	fsub 0,0,7
	frsp 0,0
	fmsubs 0,0,12,8
	b .L710
.LVL784:
.L751:
.LBE3902:
.LBE3915:
.LBE3920:
.LBE3987:
.LBB3988:
.LBB3977:
	.loc 2 977 0
	lwz 10,44(4)
	.loc 2 981 0
	xoris 5,22,0x8000
	.loc 2 977 0
	cmpwi 7,10,2
	beq- 7,.L756
.LVL785:
	.loc 2 981 0
	stw 5,108(31)
	stw 29,104(31)
	lfs 9,.LC3@l(30)
	lfd 5,104(31)
.LBB3962:
.LBB3963:
	.loc 4 897 0
	lfs 6,16(11)
.LBE3963:
.LBE3962:
	.loc 2 981 0
	fsub 5,5,9
.LBB3966:
.LBB3964:
	.loc 4 897 0
	lfs 7,20(11)
	lfs 8,24(11)
	fsubs 6,6,31
	lfs 9,28(11)
	fsubs 7,7,30
.LBE3964:
.LBE3966:
	.loc 2 981 0
	frsp 5,5
.LVL786:
.LBB3967:
.LBB3965:
	.loc 4 897 0
	fsubs 8,8,29
	fsubs 9,9,28
.LBE3965:
.LBE3967:
	.loc 4 918 0
	fmadds 6,5,6,31
.LVL787:
	fmadds 7,5,7,30
.LVL788:
	fmadds 8,5,8,29
	fmadds 9,5,9,28
.LVL789:
	b .L718
.LVL790:
.L750:
	.loc 2 986 0
	divw 5,22,6
	mullw 5,5,6
	subf 5,5,22
.LVL791:
.L737:
.LBB3968:
.LBB3969:
	.loc 5 573 0
	slwi 5,5,4
	add 10,11,5
	.loc 2 986 0
	lfsx 6,11,5
	lfs 7,4(10)
	lfs 8,8(10)
	lfs 9,12(10)
	b .L718
.L756:
.LVL792:
.LBE3969:
.LBE3968:
.LBE3977:
.LBB3978:
.LBB3979:
	.loc 2 978 0
	divw 5,22,6
	mullw 5,5,6
	subf 5,5,22
	add 5,6,5
	b .L737
.LVL793:
.L740:
.LBE3979:
.LBE3978:
.LBE3988:
.LBB3989:
.LBB3850:
	.loc 2 394 0
	lwz 10,16(4)
	li 21,-1
	lfs 0,0(10)
	fcmpu 7,10,0
	cror 30,28,30
	bne+ 7,.L681
	b .L683
.LVL794:
.L722:
	.loc 2 403 0
	addi 0,22,1
	cmpw 7,9,0
	beq- 7,.L688
.LVL795:
	slwi 8,0,2
	lfsx 0,10,8
	fcmpu 7,10,0
	cror 30,28,30
	bne- 7,.L681
.LVL796:
.L688:
.LBE3850:
.LBB3851:
.LBB3847:
.LBB3844:
	.loc 2 405 0
	mr 21,22
.LVL797:
	stw 0,36(4)
	.loc 2 403 0
	mr 22,0
	b .L683
.LVL798:
.L741:
.LBE3844:
.LBE3847:
.LBE3851:
.LBB3852:
	.loc 2 398 0
	addi 21,9,-1
.LVL799:
	lwz 10,16(4)
	slwi 0,21,2
	lfsx 0,10,0
	fcmpu 7,10,0
	bng+ 7,.L681
	b .L683
.LVL800:
.L726:
	.loc 2 415 0
	li 22,0
	li 21,-1
	.loc 2 428 0
	stw 22,36(4)
	b .L683
.LBE3852:
.LBE3989:
.LBE3993:
	.cfi_endproc
.LFE2814:
	.size	_ZNK25idCurve_NonUniformBSplineI6idVec4E15GetCurrentValueEf, .-_ZNK25idCurve_NonUniformBSplineI6idVec4E15GetCurrentValueEf
	.section	".text"
	.align 2
	.globl _ZN21idSurface_SweptSpline9SetSplineEP14idCurve_SplineI6idVec4E
	.type	_ZN21idSurface_SweptSpline9SetSplineEP14idCurve_SplineI6idVec4E, @function
_ZN21idSurface_SweptSpline9SetSplineEP14idCurve_SplineI6idVec4E:
.LFB2538:
	.loc 3 38 0
	.cfi_startproc
.LVL801:
	mflr 0
	stwu 1,-16(1)
.LCFI51:
	.cfi_def_cfa_offset 16
	.cfi_register 65, 0
	stw 30,8(1)
	mr 30,4
	.cfi_offset 30, -8
	stw 31,12(1)
	mr 31,3
	.cfi_offset 31, -4
	stw 0,20(1)
	.loc 3 39 0
	lwz 3,64(3)
.LVL802:
	cmpwi 7,3,0
	beq- 7,.L758
	.cfi_offset 65, 4
	.loc 3 40 0 discriminator 1
	lwz 9,0(3)
	lwz 0,4(9)
	mtctr 0
	bctrl
.LVL803:
.L758:
	.loc 3 42 0
	stw 30,64(31)
	.loc 3 43 0
	lwz 0,20(1)
	lwz 30,8(1)
.LVL804:
	mtlr 0
	lwz 31,12(1)
.LVL805:
	addi 1,1,16
.LCFI52:
	.cfi_def_cfa_offset 0
	.cfi_restore 31
	.cfi_restore 30
	blr
	.cfi_endproc
.LFE2538:
	.size	_ZN21idSurface_SweptSpline9SetSplineEP14idCurve_SplineI6idVec4E, .-_ZN21idSurface_SweptSpline9SetSplineEP14idCurve_SplineI6idVec4E
	.align 2
	.globl _ZN21idSurface_SweptSpline14SetSweptSplineEP14idCurve_SplineI6idVec4E
	.type	_ZN21idSurface_SweptSpline14SetSweptSplineEP14idCurve_SplineI6idVec4E, @function
_ZN21idSurface_SweptSpline14SetSweptSplineEP14idCurve_SplineI6idVec4E:
.LFB2539:
	.loc 3 50 0
	.cfi_startproc
.LVL806:
	mflr 0
	stwu 1,-16(1)
.LCFI53:
	.cfi_def_cfa_offset 16
	.cfi_register 65, 0
	stw 30,8(1)
	mr 30,4
	.cfi_offset 30, -8
	stw 31,12(1)
	mr 31,3
	.cfi_offset 31, -4
	stw 0,20(1)
	.loc 3 51 0
	lwz 3,68(3)
.LVL807:
	cmpwi 7,3,0
	beq- 7,.L760
	.cfi_offset 65, 4
	.loc 3 52 0 discriminator 1
	lwz 9,0(3)
	lwz 0,4(9)
	mtctr 0
	bctrl
.LVL808:
.L760:
	.loc 3 54 0
	stw 30,68(31)
	.loc 3 55 0
	lwz 0,20(1)
	lwz 30,8(1)
.LVL809:
	mtlr 0
	lwz 31,12(1)
.LVL810:
	addi 1,1,16
.LCFI54:
	.cfi_def_cfa_offset 0
	.cfi_restore 31
	.cfi_restore 30
	blr
	.cfi_endproc
.LFE2539:
	.size	_ZN21idSurface_SweptSpline14SetSweptSplineEP14idCurve_SplineI6idVec4E, .-_ZN21idSurface_SweptSpline14SetSweptSplineEP14idCurve_SplineI6idVec4E
	.align 2
	.globl _ZN21idSurface_SweptSpline14SetSweptCircleEf
	.type	_ZN21idSurface_SweptSpline14SetSweptCircleEf, @function
_ZN21idSurface_SweptSpline14SetSweptCircleEf:
.LFB2540:
	.loc 3 64 0
	.cfi_startproc
.LVL811:
	stwu 1,-112(1)
.LCFI55:
	.cfi_def_cfa_offset 112
	mflr 0
	stw 30,72(1)
	mr 30,3
	.cfi_offset 30, -40
	.cfi_register 65, 0
.LBB4025:
	.loc 3 65 0
	li 3,72
.LVL812:
.LBE4025:
	.loc 3 64 0
	stw 0,116(1)
	stfd 28,80(1)
	stfd 29,88(1)
	stfd 30,96(1)
	fmr 30,1
	.cfi_offset 62, -16
	.cfi_offset 61, -24
	.cfi_offset 60, -32
	.cfi_offset 65, 4
	stfd 31,104(1)
	stw 31,76(1)
.LBB4122:
	.loc 3 65 0
	.cfi_offset 31, -36
	.cfi_offset 63, -8
	bl _Znwj
.LVL813:
.LBB4026:
.LBB4027:
.LBB4028:
.LBB4029:
.LBB4030:
.LBB4031:
.LBB4032:
.LBB4033:
.LBB4034:
.LBB4035:
	.loc 2 94 0
	li 11,-1
.LBE4035:
.LBE4034:
	.loc 2 962 0
	lis 9,.LC0@ha
.LBB4057:
.LBB4052:
	.loc 2 94 0
	stw 11,36(3)
.LBE4052:
.LBE4057:
.LBE4033:
.LBE4032:
	.loc 2 1825 0
	li 11,4
.LBB4067:
.LBB4062:
	.loc 2 962 0
	lfs 31,.LC0@l(9)
.LBB4058:
.LBB4053:
.LBB4036:
.LBB4037:
.LBB4038:
.LBB4039:
	.loc 5 197 0
	li 0,0
.LBE4039:
.LBE4038:
.LBE4037:
.LBE4036:
.LBE4053:
.LBE4058:
.LBE4062:
.LBE4067:
	.loc 2 1825 0
	stw 11,52(3)
.LBE4031:
.LBE4030:
.LBE4029:
.LBE4028:
	.loc 2 2356 0
	lis 11,_ZTV13idCurve_NURBSI6idVec4E+8@ha
.LBB4084:
.LBB4080:
.LBB4076:
.LBB4072:
.LBB4068:
.LBB4063:
.LBB4059:
.LBB4054:
.LBB4045:
.LBB4042:
	.loc 5 159 0
	li 9,16
.LBE4042:
.LBE4045:
.LBE4054:
.LBE4059:
.LBE4063:
.LBE4068:
.LBE4072:
.LBE4076:
.LBE4080:
.LBE4084:
	.loc 2 2356 0
	la 11,_ZTV13idCurve_NURBSI6idVec4E+8@l(11)
	stw 11,0(3)
.LBE4027:
.LBE4026:
	.loc 3 65 0
	mr 31,3
.LVL814:
.LBB4094:
.LBB4092:
.LBB4085:
.LBB4081:
.LBB4077:
.LBB4073:
.LBB4069:
.LBB4064:
.LBB4060:
.LBB4055:
.LBB4046:
.LBB4043:
	.loc 5 159 0
	stw 9,12(3)
.LVL815:
.LBE4043:
.LBE4046:
.LBE4055:
.LBE4060:
.LBE4064:
.LBE4069:
.LBE4073:
.LBE4077:
.LBE4081:
.LBE4085:
.LBE4092:
.LBE4094:
	.loc 3 68 0
	fneg 29,30
.LBB4095:
.LBB4093:
.LBB4086:
.LBB4082:
.LBB4078:
.LBB4074:
.LBB4070:
.LBB4065:
.LBB4061:
.LBB4056:
.LBB4047:
.LBB4044:
.LBB4041:
.LBB4040:
	.loc 5 197 0
	stw 0,16(3)
	.loc 5 198 0
	stw 0,4(3)
	.loc 5 199 0
	stw 0,8(3)
.LVL816:
.LBE4040:
.LBE4041:
.LBE4044:
.LBE4047:
.LBB4048:
.LBB4049:
	.loc 5 159 0
	stw 9,28(3)
.LVL817:
.LBB4050:
.LBB4051:
	.loc 5 197 0
	stw 0,32(3)
	.loc 5 198 0
	stw 0,20(3)
	.loc 5 199 0
	stw 0,24(3)
.LBE4051:
.LBE4050:
.LBE4049:
.LBE4048:
	.loc 2 95 0
	stb 0,40(3)
.LBE4056:
.LBE4061:
	.loc 2 961 0
	stw 0,44(3)
.LBE4065:
.LBE4070:
.LBE4074:
.LBE4078:
.LBE4082:
.LBE4086:
.LBB4087:
.LBB4088:
	.loc 5 159 0
	stw 9,64(3)
.LVL818:
.LBB4089:
.LBB4090:
	.loc 5 197 0
	stw 0,68(3)
	.loc 5 198 0
	stw 0,56(3)
	.loc 5 199 0
	stw 0,60(3)
.LVL819:
.LBE4090:
.LBE4089:
.LBE4088:
.LBE4087:
.LBB4091:
.LBB4083:
.LBB4079:
.LBB4075:
.LBB4071:
.LBB4066:
	.loc 2 962 0
	stfs 31,48(3)
.LBE4066:
.LBE4071:
.LBE4075:
.LBE4079:
.LBE4083:
.LBE4091:
.LBE4093:
.LBE4095:
	.loc 3 66 0
	bl _ZN13idCurve_NURBSI6idVec4E5ClearEv
.LVL820:
	.loc 3 67 0
	lwz 9,0(31)
	fmr 1,31
	addi 4,1,56
	lwz 0,8(9)
.LVL821:
	mr 3,31
.LBB4096:
.LBB4097:
	.loc 4 867 0
	stfs 30,56(1)
.LBE4097:
.LBE4096:
	.loc 3 67 0
	mtctr 0
.LBB4099:
.LBB4098:
	.loc 4 868 0
	stfs 30,60(1)
	.loc 4 869 0
	stfs 31,64(1)
	.loc 4 870 0
	stfs 31,68(1)
.LBE4098:
.LBE4099:
	.loc 3 67 0
	bctrl
.LVL822:
	.loc 3 68 0
	lwz 9,0(31)
	lis 11,.LC5@ha
	addi 4,1,40
	lwz 0,8(9)
.LBB4100:
.LBB4101:
	.loc 4 870 0
	lis 9,.LC4@ha
.LBE4101:
.LBE4100:
	.loc 3 68 0
	lfs 28,.LC5@l(11)
	mr 3,31
.LBB4104:
.LBB4102:
	.loc 4 870 0
	lwz 9,.LC4@l(9)
.LBE4102:
.LBE4104:
	.loc 3 68 0
	mtctr 0
	fmr 1,28
.LBB4105:
.LBB4103:
	.loc 4 867 0
	stfs 29,40(1)
	.loc 4 870 0
	stw 9,52(1)
	.loc 4 868 0
	stfs 30,44(1)
	.loc 4 869 0
	stfs 31,48(1)
.LBE4103:
.LBE4105:
	.loc 3 68 0
	bctrl
	.loc 3 69 0
	lwz 9,0(31)
	addi 4,1,24
.LBB4106:
.LBB4107:
	.loc 4 867 0
	stfs 29,24(1)
.LBE4107:
.LBE4106:
	.loc 3 69 0
	lwz 0,8(9)
.LVL823:
	lis 9,.LC7@ha
	lfs 1,.LC7@l(9)
.LBB4111:
.LBB4108:
	.loc 4 870 0
	lis 9,.LC6@ha
	lwz 9,.LC6@l(9)
.LBE4108:
.LBE4111:
	.loc 3 69 0
	mtctr 0
.LBB4112:
.LBB4109:
	.loc 4 868 0
	stfs 29,28(1)
.LBE4109:
.LBE4112:
	.loc 3 69 0
	mr 3,31
.LBB4113:
.LBB4110:
	.loc 4 870 0
	stw 9,36(1)
	.loc 4 869 0
	stfs 31,32(1)
.LBE4110:
.LBE4113:
	.loc 3 69 0
	bctrl
.LVL824:
	.loc 3 70 0
	lwz 9,0(31)
	addi 4,1,8
.LBB4114:
.LBB4115:
	.loc 4 867 0
	stfs 30,8(1)
.LBE4115:
.LBE4114:
	.loc 3 70 0
	lwz 0,8(9)
.LVL825:
	lis 9,.LC9@ha
	lfs 1,.LC9@l(9)
.LBB4119:
.LBB4116:
	.loc 4 870 0
	lis 9,.LC8@ha
	lwz 9,.LC8@l(9)
.LBE4116:
.LBE4119:
	.loc 3 70 0
	mtctr 0
.LBB4120:
.LBB4117:
	.loc 4 868 0
	stfs 29,12(1)
.LBE4117:
.LBE4120:
	.loc 3 70 0
	mr 3,31
.LBB4121:
.LBB4118:
	.loc 4 870 0
	stw 9,20(1)
	.loc 4 869 0
	stfs 31,16(1)
.LBE4118:
.LBE4121:
	.loc 3 70 0
	bctrl
.LVL826:
	.loc 3 71 0
	lwz 9,0(31)
	mr 3,31
	li 4,2
	lwz 0,36(9)
	mtctr 0
	bctrl
	.loc 3 72 0
	lwz 9,0(31)
	mr 3,31
	fmr 1,28
	lwz 0,44(9)
	mtctr 0
	bctrl
	.loc 3 73 0
	lwz 3,68(30)
	cmpwi 7,3,0
	beq- 7,.L762
	.loc 3 74 0 discriminator 1
	lwz 9,0(3)
	lwz 0,4(9)
	mtctr 0
	bctrl
.L762:
	.loc 3 76 0
	stw 31,68(30)
.LBE4122:
	.loc 3 77 0
	lwz 0,116(1)
	lwz 30,72(1)
.LVL827:
	mtlr 0
	lwz 31,76(1)
.LVL828:
	lfd 28,80(1)
	lfd 29,88(1)
.LVL829:
	lfd 30,96(1)
.LVL830:
	lfd 31,104(1)
	addi 1,1,112
.LCFI56:
	.cfi_def_cfa_offset 0
	.cfi_restore 63
	.cfi_restore 62
	.cfi_restore 61
	.cfi_restore 60
	.cfi_restore 31
	.cfi_restore 30
	blr
	.cfi_endproc
.LFE2540:
	.size	_ZN21idSurface_SweptSpline14SetSweptCircleEf, .-_ZN21idSurface_SweptSpline14SetSweptCircleEf
	.align 2
	.globl _ZN21idSurface_SweptSpline8GetFrameERK6idMat36idVec3RS0_
	.type	_ZN21idSurface_SweptSpline8GetFrameERK6idMat36idVec3RS0_, @function
_ZN21idSurface_SweptSpline8GetFrameERK6idMat36idVec3RS0_:
.LFB2541:
	.loc 3 84 0
	.cfi_startproc
.LVL831:
	stwu 1,-192(1)
.LCFI57:
	.cfi_def_cfa_offset 192
	mflr 0
.LBB4183:
.LBB4184:
.LBB4185:
	.loc 4 620 0
	lfs 12,32(4)
.LBE4185:
.LBE4184:
.LBE4183:
	.loc 3 84 0
	stfd 31,184(1)
.LBB4388:
.LBB4192:
.LBB4193:
	.file 6 "d:/Data/Nintendo/DoomGX/src/idlib/geometry/../../idlib/math/Matrix.h"
	.loc 6 333 0
	lfs 31,4(5)
	.cfi_offset 63, -8
	.cfi_register 65, 0
.LBE4193:
.LBE4192:
.LBE4388:
	.loc 3 84 0
	stfd 29,168(1)
.LBB4389:
.LBB4205:
.LBB4206:
	.loc 4 649 0
	fmuls 0,31,31
.LBE4206:
.LBE4205:
.LBB4231:
.LBB4200:
	.loc 6 333 0
	lfs 29,0(5)
	.cfi_offset 61, -24
.LVL832:
.LBE4200:
.LBE4231:
.LBE4389:
	.loc 3 84 0
	stfd 30,176(1)
.LBB4390:
.LBB4232:
.LBB4201:
	.loc 6 333 0
	lfs 30,8(5)
	.cfi_offset 62, -16
.LVL833:
	.loc 4 649 0
	fmadds 0,29,29,0
.LBE4201:
.LBE4232:
.LBE4390:
	.loc 3 84 0
	stw 27,108(1)
	stfd 24,128(1)
	stfd 25,136(1)
.LBB4391:
.LBB4233:
.LBB4202:
	.loc 4 649 0
	fmadds 0,30,30,0
.LBE4202:
.LBE4233:
.LBE4391:
	.loc 3 84 0
	stfd 26,144(1)
	stfd 27,152(1)
	stfd 28,160(1)
.LBB4392:
.LBB4234:
.LBB4203:
	.loc 4 649 0
	stfs 0,88(1)
.LVL834:
.LBE4203:
.LBE4234:
.LBE4392:
	.loc 3 84 0
	stw 24,96(1)
	lis 24,.LC1@ha
	.cfi_offset 24, -96
	.cfi_offset 60, -32
	.cfi_offset 59, -40
	.cfi_offset 58, -48
	.cfi_offset 57, -56
	.cfi_offset 56, -64
	.cfi_offset 27, -84
.LBB4393:
.LBB4235:
.LBB4223:
.LBB4207:
.LBB4208:
	.file 7 "d:/Data/Nintendo/DoomGX/src/idlib/geometry/../../idlib/math/Math.h"
	.loc 7 270 0
	lwz 27,88(1)
.LVL835:
.LBE4208:
.LBE4207:
.LBE4223:
.LBE4235:
.LBE4393:
	.loc 3 84 0
	stw 25,100(1)
	mr 25,6
	.cfi_offset 25, -92
	stw 26,104(1)
	mr 26,4
	.cfi_offset 26, -88
	stw 28,112(1)
.LBB4394:
.LBB4236:
.LBB4224:
.LBB4216:
.LBB4209:
	.loc 7 276 0
	rlwinm 28,27,9,24,31
	.cfi_offset 28, -80
.LBE4209:
.LBE4216:
.LBE4224:
.LBE4236:
.LBE4394:
	.loc 3 84 0
	stw 29,116(1)
.LBB4395:
.LBB4237:
.LBB4225:
.LBB4217:
.LBB4210:
	.loc 7 276 0
	rlwinm 27,27,19,21,29
.LBE4210:
.LBE4217:
.LBE4225:
.LBE4237:
.LBE4395:
	.loc 3 84 0
	stw 30,120(1)
.LBB4396:
.LBB4238:
.LBB4226:
.LBB4218:
.LBB4211:
	.loc 7 276 0
	subfic 28,28,380
.LBE4211:
.LBE4218:
.LBE4226:
.LBE4238:
.LBE4396:
	.loc 3 84 0
	stw 31,124(1)
.LBB4397:
.LBB4239:
.LBB4227:
.LBB4219:
.LBB4212:
	.loc 7 276 0
	lis 31,_ZN6idMath5iSqrtE@ha
	.cfi_offset 31, -68
	.cfi_offset 30, -72
	.cfi_offset 29, -76
.LBE4212:
.LBE4219:
.LBE4227:
.LBE4239:
.LBE4397:
	.loc 3 84 0
	stw 0,196(1)
.LBB4398:
.LBB4240:
.LBB4228:
.LBB4220:
.LBB4213:
	.loc 7 276 0
	la 31,_ZN6idMath5iSqrtE@l(31)
	rlwinm 28,28,22,0,8
	.loc 7 275 0
	lis 30,.LC6@ha
	.loc 7 276 0
	lwzx 0,31,27
	.cfi_offset 65, 4
	.loc 7 278 0
	lis 29,.LC11@ha
	.loc 7 275 0
	lfs 27,.LC6@l(30)
	.loc 7 276 0
	or 0,28,0
.LBE4213:
.LBE4220:
.LBE4228:
.LBE4240:
.LBB4241:
.LBB4186:
	.loc 4 620 0
	lfs 10,24(4)
.LBE4186:
.LBE4241:
.LBB4242:
.LBB4229:
.LBB4221:
.LBB4214:
	.loc 7 277 0
	stw 0,92(1)
	.loc 7 275 0
	fmuls 28,0,27
.LVL836:
.LBE4214:
.LBE4221:
.LBE4229:
.LBE4242:
.LBB4243:
.LBB4187:
	.loc 4 620 0
	lfs 8,28(4)
.LBE4187:
.LBE4243:
.LBB4244:
.LBB4230:
.LBB4222:
.LBB4215:
	.loc 7 277 0
	lfs 0,92(1)
.LVL837:
	.loc 3 84 0
	fneg 28,28
.LVL838:
	.loc 7 277 0
	fmr 11,0
.LVL839:
	.loc 7 278 0
	lfs 0,.LC11@l(29)
.LVL840:
	fmul 13,11,11
	fmadd 13,28,13,0
	fmul 13,11,13
.LVL841:
	.loc 7 279 0
	fmul 9,13,13
	fmadd 9,28,9,0
.LVL842:
	fmul 9,13,9
.LVL843:
	.loc 7 280 0
	frsp 9,9
.LBE4215:
.LBE4222:
	.loc 4 651 0
	fmuls 11,29,9
	.loc 4 653 0
	fmuls 13,30,9
.LVL844:
	.loc 4 652 0
	fmuls 9,31,9
.LBE4230:
.LBE4244:
.LBB4245:
.LBB4188:
	.loc 4 620 0
	fmuls 24,12,11
	fmuls 26,8,13
	fmuls 25,10,9
	fmsubs 24,10,13,24
	fmsubs 26,12,9,26
	fmsubs 25,8,11,25
.LVL845:
.LBE4188:
.LBE4245:
.LBB4246:
.LBB4247:
	.loc 4 649 0
	fmuls 7,24,24
.LBE4247:
.LBE4246:
.LBB4265:
.LBB4266:
	.loc 4 435 0
	fmuls 9,8,9
.LBE4266:
.LBE4265:
.LBB4267:
.LBB4189:
	.loc 4 649 0
	fmadds 7,26,26,7
.LBE4189:
.LBE4267:
.LBB4268:
.LBB4258:
	.loc 4 435 0
	fmadds 11,10,11,9
.LBE4258:
.LBE4268:
.LBB4269:
.LBB4190:
	.loc 4 649 0
	fmadds 7,25,25,7
.LBE4190:
.LBE4269:
.LBB4270:
.LBB4259:
	.loc 4 435 0
	fmadds 11,12,13,11
.LBE4259:
.LBE4270:
.LBB4271:
.LBB4191:
	.loc 4 649 0
	stfs 7,88(1)
.LVL846:
.LBE4191:
.LBE4271:
.LBB4272:
.LBB4260:
.LBB4248:
.LBB4249:
	.loc 7 275 0
	fmuls 7,7,27
.LVL847:
	.loc 7 270 0
	lwz 0,88(1)
.LVL848:
	.loc 3 84 0
	fneg 7,7
	.loc 7 276 0
	rlwinm 9,0,19,21,29
	rlwinm 11,0,9,24,31
	lwzx 9,31,9
	subfic 0,11,380
	rlwinm 0,0,22,0,8
	or 0,0,9
.LBE4249:
.LBE4248:
.LBE4260:
.LBE4272:
.LBB4273:
.LBB4274:
	.loc 7 545 0
	lis 9,.LC12@ha
.LBE4274:
.LBE4273:
.LBB4281:
.LBB4261:
.LBB4254:
.LBB4250:
	.loc 7 277 0
	stw 0,92(1)
	lfs 10,92(1)
.LBE4250:
.LBE4254:
.LBE4261:
.LBE4281:
.LBB4282:
.LBB4275:
	.loc 7 545 0
	lfs 13,.LC12@l(9)
.LBE4275:
.LBE4282:
.LBB4283:
.LBB4262:
.LBB4255:
.LBB4251:
	.loc 7 277 0
	fmr 12,10
.LVL849:
.LBE4251:
.LBE4255:
.LBE4262:
.LBE4283:
.LBB4284:
.LBB4276:
	.loc 7 545 0
	fcmpu 7,11,13
.LBE4276:
.LBE4284:
.LBB4285:
.LBB4263:
.LBB4256:
.LBB4252:
	.loc 7 278 0
	fmul 13,12,12
.LBE4252:
.LBE4256:
.LBE4263:
.LBE4285:
.LBB4286:
.LBB4277:
	.loc 7 545 0
	cror 30,28,30
.LBE4277:
.LBE4286:
.LBB4287:
.LBB4264:
.LBB4257:
.LBB4253:
	.loc 7 278 0
	fmadd 13,7,13,0
	fmul 13,12,13
.LVL850:
	.loc 7 279 0
	fmul 12,13,13
	fmadd 0,7,12,0
.LVL851:
	fmul 0,13,0
.LVL852:
	.loc 7 280 0
	frsp 0,0
.LVL853:
.LBE4253:
.LBE4257:
	.loc 4 651 0
	fmuls 26,26,0
.LVL854:
	.loc 4 652 0
	fmuls 24,24,0
.LVL855:
	.loc 4 653 0
	fmuls 25,25,0
.LVL856:
.LBE4264:
.LBE4287:
.LBB4288:
.LBB4278:
	.loc 7 545 0
	bne- 7,.L773
.LVL857:
	lis 9,_ZN6idMath2PIE@ha
	lfs 1,_ZN6idMath2PIE@l(9)
	fmuls 1,1,27
.LVL858:
.L766:
.LBE4278:
.LBE4288:
.LBB4289:
.LBB4290:
	.loc 7 347 0
	bl cosf
.LVL859:
	.loc 3 100 0
	lfs 13,.LC1@l(24)
	.loc 3 84 0
	fneg 0,1
.LBE4290:
.LBE4289:
.LBB4292:
.LBB4293:
.LBB4294:
.LBB4295:
	.loc 7 275 0
	lfs 10,.LC6@l(30)
	.loc 7 278 0
	lfs 11,.LC11@l(29)
.LBE4295:
.LBE4294:
.LBE4293:
.LBE4292:
	.loc 3 84 0
	addi 9,1,44
.LBB4304:
.LBB4291:
	.loc 3 100 0
	fmadds 0,0,1,13
	stfs 0,88(1)
.LVL860:
.LBE4291:
.LBE4304:
.LBB4305:
.LBB4302:
.LBB4299:
.LBB4296:
	.loc 7 275 0
	fmuls 10,0,10
	.loc 7 270 0
	lwz 0,88(1)
.LVL861:
	.loc 3 84 0
	fneg 10,10
	.loc 7 276 0
	rlwinm 11,0,19,21,29
	rlwinm 10,0,9,24,31
	lwzx 11,31,11
	subfic 0,10,380
	rlwinm 0,0,22,0,8
	or 0,0,11
.LBE4296:
.LBE4299:
.LBE4302:
.LBE4305:
.LBB4306:
.LBB4279:
	.loc 6 465 0
	addi 11,1,8
.LBE4279:
.LBE4306:
.LBB4307:
.LBB4303:
.LBB4300:
.LBB4297:
	.loc 7 277 0
	stw 0,92(1)
	lfs 0,92(1)
.LVL862:
	fmr 12,0
.LVL863:
	.loc 7 278 0
	fmul 0,12,12
.LVL864:
	fmadd 0,10,0,11
	fmul 0,12,0
.LVL865:
	.loc 7 279 0
	fmul 12,0,0
	fmadd 11,10,12,11
.LVL866:
.LBE4297:
.LBE4300:
	.loc 7 303 0
	lfs 10,88(1)
.LBB4301:
.LBB4298:
	.loc 7 279 0
	fmul 0,0,11
.LVL867:
	.loc 7 280 0
	frsp 0,0
.LVL868:
.LBE4298:
.LBE4301:
	.loc 7 303 0
	fmuls 0,10,0
.LVL869:
.LBE4303:
.LBE4307:
	.loc 3 103 0
	fmuls 24,0,24
	.loc 3 104 0
	fmuls 25,0,25
	.loc 3 102 0
	fmuls 26,0,26
.LVL870:
	.loc 3 107 0
	fadds 12,24,24
	.loc 3 108 0
	fadds 0,25,25
	.loc 3 106 0
	fadds 10,26,26
.LVL871:
	.loc 3 112 0
	fmuls 7,24,12
.LVL872:
	.loc 3 114 0
	fmuls 25,25,0
.LVL873:
	.loc 3 115 0
	fmuls 9,10,1
.LVL874:
	.loc 3 116 0
	fmuls 8,12,1
.LVL875:
	.loc 3 119 0
	fadds 11,7,25
	.loc 3 117 0
	fmuls 1,0,1
.LVL876:
	.loc 3 123 0
	fmadds 25,26,10,25
.LVL877:
	.loc 3 127 0
	fmadds 10,26,10,7
.LVL878:
	.loc 3 120 0
	fmsubs 4,26,12,1
	.loc 3 119 0
	fsubs 11,13,11
	.loc 3 121 0
	fmadds 5,26,0,8
	.loc 3 122 0
	fmadds 1,26,12,1
.LVL879:
	.loc 3 120 0
	stfs 4,48(1)
	.loc 3 123 0
	fsubs 25,13,25
	.loc 3 119 0
	stfs 11,44(1)
.LVL880:
	.loc 3 124 0
	fmsubs 6,24,0,9
	.loc 3 121 0
	stfs 5,52(1)
.LVL881:
	.loc 3 125 0
	fmsubs 26,26,0,8
.LVL882:
	.loc 3 122 0
	stfs 1,56(1)
.LVL883:
	.loc 3 126 0
	fmadds 24,24,0,9
.LVL884:
	.loc 3 123 0
	stfs 25,60(1)
.LVL885:
	.loc 3 127 0
	fsubs 13,13,10
	.loc 3 124 0
	stfs 6,64(1)
.LVL886:
	.loc 3 125 0
	stfs 26,68(1)
.LVL887:
	.loc 3 126 0
	stfs 24,72(1)
.LVL888:
	.loc 3 127 0
	stfs 13,76(1)
.LVL889:
.L767:
.LBB4308:
.LBB4309:
	.loc 6 471 0
	lfs 12,4(26)
	lfs 9,12(9)
	lfs 13,0(26)
	fmuls 9,12,9
	lfs 0,8(26)
	lfs 10,24(9)
	.loc 6 474 0
	addi 26,26,12
	.loc 6 471 0
	fmadds 11,13,11,9
	fmadds 11,0,10,11
	stfs 11,0(11)
.LVL890:
	lfs 11,16(9)
	lfs 9,4(9)
	fmuls 11,12,11
	lfs 10,28(9)
	fmadds 11,9,13,11
	fmadds 11,0,10,11
	stfs 11,4(11)
.LVL891:
	lfs 11,20(9)
	lfs 10,8(9)
	fmuls 12,12,11
	lfs 11,32(9)
	fmadds 13,13,10,12
	fmadds 0,0,11,13
	stfs 0,8(11)
.LVL892:
	addi 11,11,12
.LVL893:
	.loc 6 467 0
	cmpw 7,11,9
	beq- 7,.L774
	.loc 6 474 0
	lfs 11,0(9)
	b .L767
.L774:
.LVL894:
.LBE4309:
.LBE4308:
.LBB4310:
.LBB4204:
	.loc 6 333 0
	li 10,0
.LVL895:
.L769:
.LBB4194:
.LBB4195:
	.loc 4 424 0
	addi 11,1,8
.LVL896:
	mr 9,25
	lwzux 0,11,10
.LVL897:
.LBE4195:
.LBE4194:
	.loc 6 333 0
	cmpwi 7,10,24
.LBB4198:
.LBB4196:
	.loc 4 424 0
	stwux 0,9,10
.LBE4196:
.LBE4198:
	.loc 6 333 0
	addi 10,10,12
.LBB4199:
.LBB4197:
	.loc 4 425 0
	lwz 8,4(11)
	.loc 4 426 0
	lwz 0,8(11)
	.loc 4 425 0
	stw 8,4(9)
	.loc 4 426 0
	stw 0,8(9)
.LBE4197:
.LBE4199:
	.loc 6 333 0
	bne+ 7,.L769
.LVL898:
.LBE4204:
.LBE4310:
.LBB4311:
.LBB4312:
	.loc 4 424 0
	stfs 29,24(25)
	.loc 4 425 0
	stfs 31,28(25)
	.loc 4 426 0
	stfs 30,32(25)
.LVL899:
.LBE4312:
.LBE4311:
.LBB4313:
.LBB4314:
	.loc 4 624 0
	lfs 11,8(25)
.LBE4314:
.LBE4313:
.LBB4322:
.LBB4323:
.LBB4324:
.LBB4325:
	.loc 7 276 0
	lwzx 0,31,27
	.loc 7 278 0
	lfs 0,.LC11@l(29)
	.loc 7 276 0
	or 28,28,0
.LBE4325:
.LBE4324:
.LBE4323:
.LBE4322:
.LBB4338:
.LBB4339:
.LBB4340:
.LBB4341:
	.loc 7 275 0
	lfs 7,.LC6@l(30)
.LVL900:
.LBE4341:
.LBE4340:
.LBE4339:
.LBE4338:
.LBB4350:
.LBB4332:
.LBB4329:
.LBB4326:
	.loc 7 277 0
	stw 28,92(1)
	lfs 12,92(1)
.LBE4326:
.LBE4329:
.LBE4332:
.LBE4350:
.LBB4351:
.LBB4315:
	.loc 4 625 0
	lfs 13,0(25)
.LBE4315:
.LBE4351:
.LBB4352:
.LBB4333:
.LBB4330:
.LBB4327:
	.loc 7 277 0
	fmr 9,12
.LVL901:
.LBE4327:
.LBE4330:
.LBE4333:
.LBE4352:
.LBB4353:
.LBB4316:
	.loc 4 624 0
	lfs 12,4(25)
.LVL902:
.LBE4316:
.LBE4353:
.LBB4354:
.LBB4334:
.LBB4331:
.LBB4328:
	.loc 7 278 0
	fmul 10,9,9
	fmadd 10,28,10,0
	fmul 10,9,10
.LVL903:
	.loc 7 279 0
	fmul 9,10,10
	fmadd 28,28,9,0
.LVL904:
	fmul 28,10,28
.LVL905:
	.loc 7 280 0
	frsp 28,28
.LVL906:
.LBE4328:
.LBE4331:
	.loc 4 651 0
	fmuls 29,29,28
.LVL907:
	.loc 4 653 0
	fmuls 30,30,28
.LVL908:
	.loc 4 652 0
	fmuls 31,31,28
.LVL909:
.LBE4334:
.LBE4354:
.LBB4355:
.LBB4317:
	.loc 4 625 0
	fmuls 8,11,29
.LVL910:
.LBE4317:
.LBE4355:
.LBB4356:
.LBB4335:
	.loc 4 651 0
	stfs 29,24(25)
.LBE4335:
.LBE4356:
.LBB4357:
.LBB4318:
	.loc 4 624 0
	fmuls 9,12,30
.LBE4318:
.LBE4357:
.LBB4358:
.LBB4336:
	.loc 4 653 0
	stfs 30,32(25)
.LVL911:
.LBE4336:
.LBE4358:
.LBB4359:
.LBB4319:
	.loc 4 626 0
	fmuls 10,13,31
.LBE4319:
.LBE4359:
.LBB4360:
.LBB4337:
	.loc 4 652 0
	stfs 31,28(25)
.LBE4337:
.LBE4360:
.LBB4361:
.LBB4320:
	.loc 4 625 0
	fmsubs 13,13,30,8
	.loc 4 624 0
	fmsubs 11,11,31,9
	.loc 4 626 0
	fmsubs 12,12,29,10
.LBE4320:
.LBE4361:
.LBB4362:
.LBB4344:
	.loc 4 649 0
	fmuls 10,13,13
.LBE4344:
.LBE4362:
.LBB4363:
.LBB4321:
	.loc 4 625 0
	stfs 13,16(25)
	.loc 4 624 0
	stfs 11,12(25)
	.loc 4 626 0
	stfs 12,20(25)
	.loc 4 649 0
	fmadds 10,11,11,10
	fmadds 10,12,12,10
	stfs 10,88(1)
.LBE4321:
.LBE4363:
.LBB4364:
.LBB4345:
.LBB4343:
.LBB4342:
	.loc 7 275 0
	fmuls 6,10,7
	.loc 7 270 0
	lwz 0,88(1)
.LVL912:
	.loc 3 84 0
	fneg 6,6
	.loc 7 276 0
	rlwinm 11,0,9,24,31
	rlwinm 0,0,19,21,29
	lwzx 9,31,0
	subfic 0,11,380
	rlwinm 0,0,22,0,8
	or 0,0,9
	.loc 7 277 0
	stw 0,92(1)
	lfs 10,92(1)
	fmr 8,10
.LVL913:
	.loc 7 278 0
	fmul 9,8,8
	fmadd 9,6,9,0
	fmul 9,8,9
.LVL914:
	.loc 7 279 0
	fmul 10,9,9
	fmadd 10,6,10,0
.LVL915:
	fmul 10,9,10
.LVL916:
	.loc 7 280 0
	frsp 10,10
.LBE4342:
.LBE4343:
	.loc 4 651 0
	fmuls 11,11,10
	.loc 4 653 0
	fmuls 12,12,10
	.loc 4 652 0
	fmuls 13,13,10
.LBE4345:
.LBE4364:
.LBB4365:
.LBB4366:
	.loc 4 625 0
	fmuls 8,30,11
.LBE4366:
.LBE4365:
.LBB4372:
.LBB4346:
	.loc 4 651 0
	stfs 11,12(25)
.LBE4346:
.LBE4372:
.LBB4373:
.LBB4367:
	.loc 4 624 0
	fmuls 9,31,12
.LVL917:
.LBE4367:
.LBE4373:
.LBB4374:
.LBB4347:
	.loc 4 653 0
	stfs 12,20(25)
.LVL918:
.LBE4347:
.LBE4374:
.LBB4375:
.LBB4368:
	.loc 4 626 0
	fmuls 10,29,13
.LBE4368:
.LBE4375:
.LBB4376:
.LBB4348:
	.loc 4 652 0
	stfs 13,16(25)
.LBE4348:
.LBE4376:
.LBB4377:
.LBB4369:
	.loc 4 625 0
	fmsubs 29,29,12,8
.LBE4369:
.LBE4377:
.LBB4378:
.LBB4349:
	.loc 4 624 0
	fmsubs 30,30,13,9
.LBE4349:
.LBE4378:
.LBB4379:
.LBB4370:
	.loc 4 626 0
	fmsubs 31,31,11,10
.LBE4370:
.LBE4379:
.LBB4380:
.LBB4381:
	.loc 4 649 0
	fmuls 10,29,29
.LBE4381:
.LBE4380:
.LBB4385:
.LBB4371:
	.loc 4 625 0
	stfs 29,4(25)
	.loc 4 624 0
	stfs 30,0(25)
	.loc 4 626 0
	stfs 31,8(25)
	.loc 4 649 0
	fmadds 10,30,30,10
	fmadds 10,31,31,10
	stfs 10,88(1)
.LBE4371:
.LBE4385:
.LBB4386:
.LBB4384:
.LBB4382:
.LBB4383:
	.loc 7 275 0
	fmuls 11,10,7
	.loc 7 270 0
	lwz 0,88(1)
.LVL919:
	.loc 3 84 0
	fneg 11,11
	.loc 7 276 0
	rlwinm 11,0,9,24,31
	rlwinm 0,0,19,21,29
	lwzx 9,31,0
	subfic 0,11,380
	rlwinm 0,0,22,0,8
	or 0,0,9
	.loc 7 277 0
	stw 0,92(1)
	lfs 13,92(1)
	fmr 12,13
.LVL920:
	.loc 7 278 0
	fmul 13,12,12
.LVL921:
	fmadd 13,11,13,0
	fmul 13,12,13
.LVL922:
	.loc 7 279 0
	fmul 12,13,13
	fmadd 0,11,12,0
.LVL923:
	fmul 0,13,0
.LVL924:
	.loc 7 280 0
	frsp 0,0
.LBE4383:
.LBE4382:
	.loc 4 651 0
	fmuls 30,30,0
	.loc 4 652 0
	fmuls 29,29,0
	.loc 4 653 0
	fmuls 31,31,0
	.loc 4 651 0
	stfs 30,0(25)
	.loc 4 652 0
	stfs 29,4(25)
	.loc 4 653 0
	stfs 31,8(25)
.LBE4384:
.LBE4386:
.LBE4398:
	.loc 3 137 0
	lwz 0,196(1)
	lwz 24,96(1)
	mtlr 0
	lwz 25,100(1)
.LVL925:
	lwz 26,104(1)
	lwz 27,108(1)
	lwz 28,112(1)
	lwz 29,116(1)
	lwz 30,120(1)
	lwz 31,124(1)
	lfd 24,128(1)
	lfd 25,136(1)
	lfd 26,144(1)
	lfd 27,152(1)
	lfd 28,160(1)
	lfd 29,168(1)
	lfd 30,176(1)
	lfd 31,184(1)
	addi 1,1,192
	.cfi_remember_state
.LCFI58:
	.cfi_def_cfa_offset 0
	.cfi_restore 63
	.cfi_restore 62
	.cfi_restore 61
	.cfi_restore 60
	.cfi_restore 59
	.cfi_restore 58
	.cfi_restore 57
	.cfi_restore 56
	.cfi_restore 31
	.cfi_restore 30
	.cfi_restore 29
	.cfi_restore 28
	.cfi_restore 27
	.cfi_restore 26
	.cfi_restore 25
	.cfi_restore 24
	blr
.LVL926:
.L773:
.LCFI59:
	.cfi_restore_state
.LBB4399:
.LBB4387:
.LBB4280:
	.loc 7 548 0
	lfs 0,.LC1@l(24)
	lis 9,.LC0@ha
	lfs 1,.LC0@l(9)
	fcmpu 7,11,0
	cror 30,29,30
	beq+ 7,.L766
	.loc 7 551 0
	fmr 1,11
	bl acosf
.LVL927:
	fmuls 1,1,27
	b .L766
.LBE4280:
.LBE4387:
.LBE4399:
	.cfi_endproc
.LFE2541:
	.size	_ZN21idSurface_SweptSpline8GetFrameERK6idMat36idVec3RS0_, .-_ZN21idSurface_SweptSpline8GetFrameERK6idMat36idVec3RS0_
	.align 2
	.globl _ZN21idSurface_SweptSpline10TessellateEii
	.type	_ZN21idSurface_SweptSpline10TessellateEii, @function
_ZN21idSurface_SweptSpline10TessellateEii:
.LFB2542:
	.loc 3 146 0
	.cfi_startproc
.LVL928:
	mflr 0
	stwu 1,-304(1)
.LCFI60:
	.cfi_def_cfa_offset 304
	.cfi_register 65, 0
	mfcr 12
	stw 25,204(1)
	mr 25,4
	.cfi_offset 25, -100
	.cfi_register 70, 12
	stw 29,220(1)
	mr 29,5
	.cfi_offset 29, -84
	stw 31,228(1)
	mr 31,3
	.cfi_offset 31, -76
	stw 0,308(1)
	stfd 23,232(1)
	stfd 24,240(1)
	stfd 25,248(1)
	stfd 26,256(1)
	stfd 27,264(1)
	stfd 28,272(1)
	stfd 29,280(1)
	stfd 30,288(1)
	stfd 31,296(1)
	stw 15,164(1)
	stw 16,168(1)
	stw 17,172(1)
	stw 18,176(1)
	stw 19,180(1)
	stw 20,184(1)
	stw 21,188(1)
	stw 22,192(1)
	stw 23,196(1)
	stw 24,200(1)
	stw 26,208(1)
	stw 27,212(1)
	stw 28,216(1)
	stw 30,224(1)
	stw 12,160(1)
.LBB4509:
	.loc 3 153 0
	lwz 0,64(3)
	.cfi_offset 70, -144
	.cfi_offset 30, -80
	.cfi_offset 28, -88
	.cfi_offset 27, -92
	.cfi_offset 26, -96
	.cfi_offset 24, -104
	.cfi_offset 23, -108
	.cfi_offset 22, -112
	.cfi_offset 21, -116
	.cfi_offset 20, -120
	.cfi_offset 19, -124
	.cfi_offset 18, -128
	.cfi_offset 17, -132
	.cfi_offset 16, -136
	.cfi_offset 15, -140
	.cfi_offset 63, -8
	.cfi_offset 62, -16
	.cfi_offset 61, -24
	.cfi_offset 60, -32
	.cfi_offset 59, -40
	.cfi_offset 58, -48
	.cfi_offset 57, -56
	.cfi_offset 56, -64
	.cfi_offset 55, -72
	.cfi_offset 65, 4
	cmpwi 7,0,0
	beq- 7,.L776
	.loc 3 153 0 is_stmt 0 discriminator 1
	lwz 9,68(3)
	cmpwi 7,9,0
	beq- 7,.L776
	.loc 3 158 0 is_stmt 1
	mullw 30,4,5
.LVL929:
.LBB4510:
.LBB4511:
	.loc 5 299 0
	lwz 0,4(3)
	cmpw 7,30,0
	bgt- 7,.L818
.LVL930:
.L783:
	.loc 5 302 0
	stw 30,0(31)
.LVL931:
.LBE4511:
.LBE4510:
	.loc 3 161 0
	mr 3,9
	.loc 3 162 0
	mr 20,29
	.loc 3 161 0
	lwz 10,0(9)
.LBB4551:
.LBB4552:
.LBB4553:
.LBB4554:
	.loc 5 573 0
	lwz 11,20(9)
.LBE4554:
.LBE4553:
.LBE4552:
.LBE4551:
	.loc 3 161 0
	lwz 0,48(10)
.LBB4559:
	.loc 3 223 0
	lwz 9,16(9)
.LVL932:
.LBB4557:
.LBB4556:
.LBB4555:
	.loc 5 573 0
	addi 11,11,-1
.LBE4555:
.LBE4556:
.LBE4557:
.LBE4559:
	.loc 3 161 0
	mtctr 0
.LBB4560:
.LBB4558:
	.loc 2 60 0
	slwi 11,11,2
.LBE4558:
.LBE4560:
	.loc 3 161 0
	lfsx 28,9,11
	lfs 0,0(9)
	fsubs 28,28,0
	bctrl
.LVL933:
	.loc 3 162 0
	lwz 3,68(31)
	lwz 9,0(3)
	.loc 3 161 0
	fadds 28,28,1
.LVL934:
	.loc 3 162 0
	lwz 0,40(9)
	mtctr 0
	bctrl
	cmpwi 7,3,2
	beq- 7,.L789
	.loc 3 162 0 is_stmt 0 discriminator 1
	addi 20,29,-1
.L789:
.LVL935:
	.loc 3 164 0 is_stmt 1 discriminator 3
	cmpwi 4,29,0
	.loc 3 163 0 discriminator 3
	addi 21,25,-1
	mullw 15,21,29
.LVL936:
	.loc 3 164 0 discriminator 3
	ble- 4,.L790
	.loc 3 165 0
	lis 18,0x4330
	xoris 0,20,0x8000
	stw 0,100(1)
	lis 9,.LC3@ha
	stw 18,96(1)
	.loc 3 164 0
	mulli 30,15,60
.LVL937:
	.loc 3 165 0
	lfs 30,.LC3@l(9)
	.loc 3 164 0
	li 28,0
	.loc 3 165 0
	lfd 29,96(1)
	addi 22,1,24
	addi 23,1,8
	fsub 29,29,30
	frsp 29,29
.LVL938:
.L791:
	.loc 3 165 0 is_stmt 0 discriminator 2
	xoris 0,28,0x8000
	stw 18,88(1)
	stw 0,92(1)
	.loc 3 166 0 is_stmt 1 discriminator 2
	mr 3,22
	.loc 3 164 0 discriminator 2
	addi 28,28,1
	.loc 3 165 0 discriminator 2
	lfd 31,88(1)
	.loc 3 166 0 discriminator 2
	lwz 4,68(31)
	.loc 3 165 0 discriminator 2
	fsub 31,31,30
	.loc 3 166 0 discriminator 2
	lwz 9,0(4)
	.loc 3 165 0 discriminator 2
	frsp 31,31
	.loc 3 166 0 discriminator 2
	lwz 0,20(9)
	mtctr 0
	.loc 3 165 0 discriminator 2
	fmuls 31,31,28
	fdivs 31,31,29
.LVL939:
	.loc 3 166 0 discriminator 2
	fmr 1,31
	bctrl
	.loc 3 167 0 discriminator 2
	lwz 4,68(31)
	mr 3,23
	fmr 1,31
	lwz 9,0(4)
	.loc 3 166 0 discriminator 2
	lwz 19,24(1)
.LVL940:
	.loc 3 167 0 discriminator 2
	lwz 0,24(9)
	.loc 3 166 0 discriminator 2
	lwz 24,28(1)
.LVL941:
	.loc 3 167 0 discriminator 2
	mtctr 0
	.loc 3 166 0 discriminator 2
	lwz 26,32(1)
.LVL942:
	lwz 27,36(1)
.LVL943:
	.loc 3 167 0 discriminator 2
	bctrl
.LBB4561:
.LBB4562:
	.loc 5 589 0 discriminator 2
	lwz 11,12(31)
.LBE4562:
.LBE4561:
.LBB4564:
.LBB4565:
	.loc 4 424 0 discriminator 2
	lwz 0,8(1)
.LBE4565:
.LBE4564:
	.loc 3 164 0 discriminator 2
	cmpw 7,28,29
.LBB4567:
.LBB4563:
	.loc 5 589 0 discriminator 2
	add 9,11,30
.LBE4563:
.LBE4567:
.LBB4568:
.LBB4569:
	.loc 4 424 0 discriminator 2
	stwx 19,11,30
	.loc 4 425 0 discriminator 2
	stw 24,4(9)
	.loc 4 426 0 discriminator 2
	stw 26,8(9)
.LVL944:
.LBE4569:
.LBE4568:
	.loc 3 169 0 discriminator 2
	lwz 9,12(31)
.LVL945:
	add 9,9,30
	stw 27,12(9)
.LVL946:
.LBB4570:
.LBB4571:
	.loc 5 589 0 discriminator 2
	lwz 9,12(31)
	add 9,9,30
.LVL947:
.LBE4571:
.LBE4570:
	.loc 3 164 0 discriminator 2
	addi 30,30,60
.LBB4572:
.LBB4566:
	.loc 4 424 0 discriminator 2
	stw 0,32(9)
	.loc 4 425 0 discriminator 2
	lwz 0,12(1)
	stw 0,36(9)
	.loc 4 426 0 discriminator 2
	lwz 0,16(1)
	stw 0,40(9)
.LBE4566:
.LBE4572:
	.loc 3 164 0 discriminator 2
	bne+ 7,.L791
.LVL948:
.L790:
	.loc 3 174 0
	lwz 3,64(31)
.LVL949:
	lwz 10,0(3)
.LBB4573:
.LBB4574:
.LBB4575:
.LBB4576:
	.loc 5 573 0
	lwz 11,20(3)
.LBE4576:
.LBE4575:
.LBE4574:
.LBE4573:
	.loc 3 174 0
	lwz 0,48(10)
.LBB4581:
	.loc 3 223 0
	lwz 9,16(3)
.LVL950:
.LBB4579:
.LBB4578:
.LBB4577:
	.loc 5 573 0
	addi 11,11,-1
.LBE4577:
.LBE4578:
.LBE4579:
.LBE4581:
	.loc 3 174 0
	mtctr 0
.LBB4582:
.LBB4580:
	.loc 2 60 0
	slwi 11,11,2
.LBE4580:
.LBE4582:
	.loc 3 174 0
	lfsx 26,9,11
	lfs 0,0(9)
	fsubs 26,26,0
	bctrl
.LVL951:
	.loc 3 175 0
	lwz 3,64(31)
	lwz 9,0(3)
	.loc 3 174 0
	fadds 26,26,1
.LVL952:
	.loc 3 175 0
	lwz 0,40(9)
	mtctr 0
	bctrl
	cmpwi 7,3,2
	beq- 7,.L819
.L792:
.LVL953:
	lis 7,mat3_identity@ha
	.loc 3 175 0 is_stmt 0 discriminator 3
	li 10,0
	la 7,mat3_identity@l(7)
.L793:
.LBB4583:
.LBB4584:
.LBB4585:
.LBB4586:
.LBB4587:
	.loc 4 424 0 is_stmt 1
	mr 11,7
	addi 9,1,40
	lwzux 0,11,10
.LBE4587:
.LBE4586:
	.loc 6 333 0
	cmpwi 7,10,24
.LBB4590:
.LBB4588:
	.loc 4 424 0
	stwux 0,9,10
.LBE4588:
.LBE4590:
	.loc 6 333 0
	addi 10,10,12
.LBB4591:
.LBB4589:
	.loc 4 425 0
	lwz 8,4(11)
	.loc 4 426 0
	lwz 0,8(11)
	.loc 4 425 0
	stw 8,4(9)
	.loc 4 426 0
	stw 0,8(9)
.LBE4589:
.LBE4591:
	.loc 6 333 0
	bne+ 7,.L793
.LVL954:
.LBE4585:
.LBE4584:
.LBE4583:
.LBB4592:
	.loc 3 177 0 discriminator 1
	cmpwi 7,25,0
	ble- 7,.L794
.LBB4593:
	.loc 3 178 0
	lis 19,0x4330
	xoris 0,21,0x8000
	stw 0,116(1)
	lis 9,.LC3@ha
	stw 19,112(1)
	lis 27,_ZN6idMath5iSqrtE@ha
	lfs 28,.LC3@l(9)
.LBE4593:
	.loc 3 146 0
	mulli 18,29,60
.LBB4711:
	.loc 3 178 0
	lfd 27,112(1)
.LBB4594:
	.loc 3 186 0
	mulli 15,15,60
.LVL955:
.LBE4594:
.LBE4711:
.LBE4592:
	.loc 3 146 0
	li 24,0
	li 26,0
.LBB4714:
.LBB4712:
	.loc 3 178 0
	fsub 27,27,28
	addi 22,1,24
	addi 23,1,8
	lis 16,.LC6@ha
	la 27,_ZN6idMath5iSqrtE@l(27)
	lis 17,.LC11@ha
	frsp 27,27
.LBB4708:
.LBB4595:
	.loc 3 195 0
	li 30,0
.LVL956:
.L797:
.LBE4595:
.LBE4708:
	.loc 3 178 0
	xoris 0,26,0x8000
	stw 19,104(1)
	stw 0,108(1)
	.loc 3 180 0
	mr 3,22
	.loc 3 178 0
	lfd 31,104(1)
	.loc 3 180 0
	lwz 4,64(31)
	.loc 3 178 0
	fsub 31,31,28
	.loc 3 180 0
	lwz 9,0(4)
	.loc 3 178 0
	frsp 31,31
	.loc 3 180 0
	lwz 0,20(9)
	mtctr 0
	.loc 3 178 0
	fmuls 31,31,26
	fdivs 31,31,27
.LVL957:
	.loc 3 180 0
	fmr 1,31
	bctrl
	.loc 3 181 0
	lwz 4,64(31)
	mr 3,23
	fmr 1,31
	lwz 9,0(4)
	.loc 3 180 0
	lfs 30,24(1)
.LVL958:
	.loc 3 181 0
	lwz 0,24(9)
	.loc 3 180 0
	lfs 31,28(1)
.LVL959:
	.loc 3 181 0
	mtctr 0
	.loc 3 180 0
	lfs 29,32(1)
.LVL960:
	lwz 28,36(1)
.LVL961:
	.loc 3 181 0
	bctrl
.LVL962:
	.loc 3 183 0
	lwz 0,8(1)
	addi 4,1,40
	mr 3,31
	stw 0,128(1)
	addi 5,1,128
	lwz 0,12(1)
	mr 6,4
	.loc 3 181 0
	lfs 25,8(1)
.LVL963:
	.loc 3 183 0
	stw 0,132(1)
	lwz 0,16(1)
	.loc 3 181 0
	lfs 23,12(1)
.LVL964:
	lfs 24,16(1)
.LVL965:
	.loc 3 183 0
	stw 0,136(1)
	bl _ZN21idSurface_SweptSpline8GetFrameERK6idMat36idVec3RS0_
.LVL966:
.LBB4709:
	.loc 3 186 0
	ble- 4,.L795
	lfs 4,40(1)
.LBB4703:
	.loc 3 195 0
	mtctr 29
.LBE4703:
	.loc 3 186 0
	lfs 5,52(1)
	mr 11,15
	lfs 6,44(1)
.LBE4709:
.LBE4712:
.LBE4714:
	.loc 3 146 0
	mr 8,24
.LBB4715:
.LBB4713:
.LBB4710:
	.loc 3 186 0
	lfs 7,56(1)
	lfs 8,48(1)
.LBB4704:
.LBB4596:
.LBB4597:
.LBB4598:
.LBB4599:
	.loc 7 275 0
	lfs 1,.LC6@l(16)
	.loc 7 278 0
	lfs 2,.LC11@l(17)
.LVL967:
.L796:
.LBE4599:
.LBE4598:
.LBE4597:
.LBE4596:
.LBE4704:
	.loc 3 223 0 discriminator 2
	lwz 10,12(31)
.LBB4705:
.LBB4625:
.LBB4626:
.LBB4627:
	.loc 6 454 0 discriminator 2
	lfs 0,60(1)
.LBE4627:
.LBE4626:
.LBE4625:
.LBB4630:
.LBB4631:
	.loc 5 589 0 discriminator 2
	add 9,10,11
.LBE4631:
.LBE4630:
.LBB4632:
.LBB4629:
.LBB4628:
	.loc 6 454 0 discriminator 2
	lfsx 13,10,11
	lfs 12,4(9)
	fmuls 7,12,7
	fmuls 5,12,5
	fmuls 12,12,0
	lfs 0,8(9)
.LBE4628:
.LBE4629:
.LBE4632:
.LBB4633:
.LBB4634:
	fmadds 6,13,6,7
	lfs 7,68(1)
	fmadds 4,13,4,5
	lfs 5,64(1)
	fmadds 13,13,8,12
	lfs 8,72(1)
	fmadds 6,0,7,6
.LBE4634:
.LBE4633:
.LBB4636:
.LBB4637:
	.loc 5 589 0 discriminator 2
	add 9,10,8
.LBE4637:
.LBE4636:
.LBB4638:
.LBB4635:
	.loc 6 454 0 discriminator 2
	fmadds 13,0,8,13
.LVL968:
	fmadds 0,5,0,4
	.loc 4 452 0 discriminator 2
	fadds 6,31,6
.LVL969:
	fadds 13,13,29
.LVL970:
	fadds 0,30,0
.LBE4635:
.LBE4638:
.LBB4639:
.LBB4640:
	.loc 4 424 0 discriminator 2
	stfsx 0,10,8
.LBE4640:
.LBE4639:
.LBE4705:
	.loc 3 186 0 discriminator 2
	addi 8,8,60
.LBB4706:
.LBB4642:
.LBB4641:
	.loc 4 425 0 discriminator 2
	stfs 6,4(9)
	.loc 4 426 0 discriminator 2
	stfs 13,8(9)
.LVL971:
.LBE4641:
.LBE4642:
.LBB4643:
.LBB4644:
.LBB4645:
	.loc 6 454 0 discriminator 2
	lfs 4,40(1)
.LBE4645:
.LBE4644:
.LBE4643:
	.loc 3 189 0 discriminator 2
	lwz 10,12(31)
.LBB4658:
.LBB4652:
.LBB4646:
	.loc 6 454 0 discriminator 2
	lfs 8,48(1)
.LBE4646:
.LBE4652:
.LBE4658:
	.loc 3 189 0 discriminator 2
	add 10,10,11
.LBB4659:
.LBB4653:
.LBB4647:
	.loc 6 454 0 discriminator 2
	lfs 6,44(1)
.LVL972:
.LBE4647:
.LBE4653:
.LBE4659:
	.loc 3 189 0 discriminator 2
	lwz 0,12(10)
	.loc 3 190 0 discriminator 2
	stw 28,16(9)
	.loc 3 189 0 discriminator 2
	stw 0,12(9)
.LVL973:
.LBB4660:
.LBB4661:
	.loc 5 589 0 discriminator 2
	lwz 10,12(31)
.LBE4661:
.LBE4660:
.LBB4663:
.LBB4654:
.LBB4648:
	.loc 6 454 0 discriminator 2
	lfs 11,60(1)
.LBE4648:
.LBE4654:
.LBE4663:
.LBB4664:
.LBB4662:
	.loc 5 589 0 discriminator 2
	add 10,10,11
.LVL974:
.LBE4662:
.LBE4664:
.LBB4665:
.LBB4655:
.LBB4649:
	.loc 6 454 0 discriminator 2
	lfs 5,52(1)
	lfs 10,36(10)
.LBE4649:
.LBE4655:
.LBE4665:
.LBE4706:
	.loc 3 186 0 discriminator 2
	addi 11,11,60
.LVL975:
.LBB4707:
.LBB4666:
.LBB4656:
.LBB4650:
	.loc 6 454 0 discriminator 2
	lfs 13,32(10)
.LVL976:
	fmuls 11,10,11
	lfs 7,56(1)
	fmuls 9,5,10
	lfs 0,40(10)
	fmuls 10,10,7
	lfs 12,72(1)
	fmadds 11,13,8,11
.LBE4650:
.LBE4656:
.LBE4666:
.LBB4667:
.LBB4668:
	.loc 4 424 0 discriminator 2
	stfs 25,44(9)
.LBE4668:
.LBE4667:
.LBB4672:
.LBB4657:
.LBB4651:
	.loc 6 454 0 discriminator 2
	fmadds 9,4,13,9
	fmadds 13,13,6,10
	lfs 10,68(1)
	fmadds 11,0,12,11
.LVL977:
	lfs 12,64(1)
	fmadds 10,0,10,13
	fmadds 9,12,0,9
.LVL978:
.LBE4651:
.LBE4657:
.LBE4672:
.LBB4673:
.LBB4674:
	.loc 4 426 0 discriminator 2
	stfs 11,40(9)
.LVL979:
.LBE4674:
.LBE4673:
.LBB4677:
.LBB4678:
	.loc 4 620 0 discriminator 2
	fmuls 13,25,11
	fmuls 12,10,24
.LBE4678:
.LBE4677:
.LBB4680:
.LBB4675:
	.loc 4 425 0 discriminator 2
	stfs 10,36(9)
.LBE4675:
.LBE4680:
.LBB4681:
.LBB4679:
	.loc 4 620 0 discriminator 2
	fmuls 0,9,23
.LBE4679:
.LBE4681:
.LBB4682:
.LBB4676:
	.loc 4 424 0 discriminator 2
	stfs 9,32(9)
.LBE4676:
.LBE4682:
.LBB4683:
.LBB4669:
	.loc 4 620 0 discriminator 2
	fmsubs 13,9,24,13
	fmsubs 12,11,23,12
	fmsubs 0,25,10,0
.LBE4669:
.LBE4683:
.LBB4684:
.LBB4616:
	.loc 4 649 0 discriminator 2
	fmuls 3,13,13
.LBE4616:
.LBE4684:
.LBB4685:
.LBB4686:
	fmadds 10,12,12,3
.LVL980:
	fmadds 10,0,0,10
	stfs 10,144(1)
.LBE4686:
.LBE4685:
.LBB4690:
.LBB4617:
.LBB4608:
.LBB4600:
	.loc 7 275 0 discriminator 2
	fmuls 3,10,1
.LBE4600:
.LBE4608:
.LBE4617:
.LBE4690:
.LBB4691:
.LBB4670:
	.loc 4 425 0 discriminator 2
	stfs 23,48(9)
.LBE4670:
.LBE4691:
.LBB4692:
.LBB4618:
.LBB4609:
.LBB4601:
	.loc 7 270 0 discriminator 2
	lwz 0,144(1)
.LBE4601:
.LBE4609:
.LBE4618:
.LBE4692:
.LBB4693:
.LBB4687:
	.loc 4 424 0 discriminator 2
	stfs 12,20(9)
.LBE4687:
.LBE4693:
.LBB4694:
.LBB4619:
.LBB4610:
.LBB4602:
	.loc 3 146 0 discriminator 2
	fneg 3,3
.LBE4602:
.LBE4610:
.LBE4619:
.LBE4694:
.LBB4695:
.LBB4688:
	.loc 4 425 0 discriminator 2
	stfs 13,24(9)
.LBE4688:
.LBE4695:
.LBB4696:
.LBB4620:
.LBB4611:
.LBB4603:
	.loc 7 276 0 discriminator 2
	rlwinm 7,0,9,24,31
.LBE4603:
.LBE4611:
.LBE4620:
.LBE4696:
.LBB4697:
.LBB4689:
	.loc 4 426 0 discriminator 2
	stfs 0,28(9)
.LBE4689:
.LBE4697:
.LBB4698:
.LBB4621:
.LBB4612:
.LBB4604:
	.loc 7 276 0 discriminator 2
	rlwinm 0,0,19,21,29
.LBE4604:
.LBE4612:
.LBE4621:
.LBE4698:
.LBB4699:
.LBB4671:
	.loc 4 426 0 discriminator 2
	stfs 24,52(9)
.LVL981:
.LBE4671:
.LBE4699:
.LBB4700:
.LBB4622:
.LBB4613:
.LBB4605:
	.loc 7 276 0 discriminator 2
	lwzx 10,27,0
.LVL982:
	subfic 0,7,380
	rlwinm 0,0,22,0,8
	or 0,0,10
	.loc 7 277 0 discriminator 2
	stw 0,148(1)
	lfs 11,148(1)
.LVL983:
.LBE4605:
.LBE4613:
.LBE4622:
.LBE4700:
	.loc 3 195 0 discriminator 2
	stb 30,59(9)
.LBB4701:
.LBB4623:
.LBB4614:
.LBB4606:
	.loc 7 277 0 discriminator 2
	fmr 9,11
.LVL984:
.LBE4606:
.LBE4614:
.LBE4623:
.LBE4701:
	.loc 3 195 0 discriminator 2
	stb 30,58(9)
	stb 30,57(9)
	stb 30,56(9)
.LBB4702:
.LBB4624:
.LBB4615:
.LBB4607:
	.loc 7 278 0 discriminator 2
	fmul 10,9,9
.LVL985:
	fmadd 10,3,10,2
	fmul 10,9,10
.LVL986:
	.loc 7 279 0 discriminator 2
	fmul 11,10,10
	fmadd 11,3,11,2
.LVL987:
	fmul 11,10,11
.LVL988:
	.loc 7 280 0 discriminator 2
	frsp 11,11
.LVL989:
.LBE4607:
.LBE4615:
	.loc 4 651 0 discriminator 2
	fmuls 12,12,11
.LVL990:
	.loc 4 652 0 discriminator 2
	fmuls 13,13,11
.LVL991:
	.loc 4 653 0 discriminator 2
	fmuls 0,0,11
.LVL992:
	.loc 4 651 0 discriminator 2
	stfs 12,20(9)
	.loc 4 652 0 discriminator 2
	stfs 13,24(9)
	.loc 4 653 0 discriminator 2
	stfs 0,28(9)
.LBE4624:
.LBE4702:
.LBE4707:
	.loc 3 186 0 discriminator 2
	bdnz .L796
.LVL993:
.L795:
.LBE4710:
.LBE4713:
	.loc 3 177 0
	addi 26,26,1
.LVL994:
	add 24,24,18
	cmpw 7,26,25
	bne+ 7,.L797
.LVL995:
.L794:
.LBE4715:
	.loc 3 199 0
	mullw 30,20,21
.LBB4716:
.LBB4717:
	.loc 5 299 0
	lwz 0,20(31)
.LBE4717:
.LBE4716:
	.loc 3 199 0
	mulli 30,30,6
.LVL996:
.LBB4734:
.LBB4728:
	.loc 5 299 0
	cmpw 7,30,0
	bgt- 7,.L820
.L798:
.LBE4728:
.LBE4734:
	.loc 3 202 0
	cmpwi 7,21,0
.LBB4735:
.LBB4729:
	.loc 5 302 0
	stw 30,16(31)
.LVL997:
.LBE4729:
.LBE4735:
	.loc 3 202 0
	ble- 7,.L804
	.loc 3 146 0
	mulli 27,20,6
	cmpwi 6,20,0
	li 5,0
	.loc 3 202 0
	li 28,0
	li 30,0
.LVL998:
	.loc 3 146 0
	addi 27,27,-6
.LVL999:
.L807:
	.loc 3 205 0
	addi 30,30,1
	divw 4,30,25
	mullw 4,4,25
	subf 4,4,30
	mullw 4,4,29
.LVL1000:
	.loc 3 207 0
	ble- 6,.L805
	mtctr 20
	slwi 9,28,2
	.loc 3 146 0
	mr 11,5
	.loc 3 207 0
	li 10,0
	subf 3,5,4
.LVL1001:
.L806:
	.loc 3 210 0 discriminator 2
	addi 10,10,1
.LVL1002:
	.loc 3 212 0 discriminator 2
	lwz 8,28(31)
	.loc 3 210 0 discriminator 2
	divw 0,10,29
	.loc 3 146 0 discriminator 2
	add 7,3,11
	.loc 3 212 0 discriminator 2
	stwx 11,8,9
	.loc 3 213 0 discriminator 2
	lwz 8,28(31)
	add 8,8,9
	.loc 3 210 0 discriminator 2
	mullw 0,0,29
	subf 0,0,10
.LVL1003:
	.loc 3 213 0 discriminator 2
	add 6,5,0
	.loc 3 214 0 discriminator 2
	add 0,4,0
.LVL1004:
	.loc 3 213 0 discriminator 2
	stw 6,4(8)
	.loc 3 214 0 discriminator 2
	lwz 8,28(31)
	add 8,8,9
	stw 0,8(8)
	.loc 3 216 0 discriminator 2
	lwz 8,28(31)
	add 8,8,9
	stw 0,12(8)
	.loc 3 217 0 discriminator 2
	lwz 8,28(31)
	add 8,8,9
	stw 7,16(8)
	.loc 3 218 0 discriminator 2
	lwz 8,28(31)
	add 8,8,9
	addi 9,9,24
	stw 11,20(8)
.LVL1005:
	addi 11,11,1
	.loc 3 207 0 discriminator 2
	bdnz .L806
	.loc 3 146 0
	addi 28,28,6
	add 28,28,27
.LVL1006:
.L805:
	.loc 3 202 0
	cmpw 7,30,21
	.loc 3 146 0
	add 5,5,29
.LVL1007:
	.loc 3 202 0
	bne+ 7,.L807
.LVL1008:
.L804:
	.loc 3 222 0
	mr 3,31
	bl _ZN9idSurface19GenerateEdgeIndexesEv
.LVL1009:
.L775:
.LBE4509:
	.loc 3 223 0
	lwz 0,308(1)
	lwz 12,160(1)
	mtlr 0
	lwz 15,164(1)
	lwz 16,168(1)
	mtcrf 8,12
	lwz 17,172(1)
	lwz 18,176(1)
	lwz 19,180(1)
	lwz 20,184(1)
	lwz 21,188(1)
	lwz 22,192(1)
	lwz 23,196(1)
	lwz 24,200(1)
	lwz 25,204(1)
.LVL1010:
	lwz 26,208(1)
	lwz 27,212(1)
	lwz 28,216(1)
	lwz 29,220(1)
.LVL1011:
	lwz 30,224(1)
	lwz 31,228(1)
.LVL1012:
	lfd 23,232(1)
	lfd 24,240(1)
	lfd 25,248(1)
	lfd 26,256(1)
	lfd 27,264(1)
	lfd 28,272(1)
	lfd 29,280(1)
	lfd 30,288(1)
	lfd 31,296(1)
	addi 1,1,304
	.cfi_remember_state
.LCFI61:
	.cfi_def_cfa_offset 0
	.cfi_restore 70
	.cfi_restore 63
	.cfi_restore 62
	.cfi_restore 61
	.cfi_restore 60
	.cfi_restore 59
	.cfi_restore 58
	.cfi_restore 57
	.cfi_restore 56
	.cfi_restore 55
	.cfi_restore 31
	.cfi_restore 30
	.cfi_restore 29
	.cfi_restore 28
	.cfi_restore 27
	.cfi_restore 26
	.cfi_restore 25
	.cfi_restore 24
	.cfi_restore 23
	.cfi_restore 22
	.cfi_restore 21
	.cfi_restore 20
	.cfi_restore 19
	.cfi_restore 18
	.cfi_restore 17
	.cfi_restore 16
	.cfi_restore 15
	blr
.LVL1013:
.L820:
.LCFI62:
	.cfi_restore_state
.LBB4776:
.LBB4736:
.LBB4730:
.LBB4718:
.LBB4719:
	.loc 5 375 0
	cmpwi 7,30,0
	ble- 7,.L821
	.loc 5 387 0
	lwz 0,16(31)
	.loc 5 385 0
	lwz 28,28(31)
.LVL1014:
	.loc 5 387 0
	cmpw 7,30,0
	.loc 5 386 0
	stw 30,20(31)
	.loc 5 387 0
	blt- 7,.L822
.L801:
	.loc 5 392 0
	slwi 3,30,2
	bl _Znaj
.LVL1015:
	.loc 5 393 0
	lwz 0,16(31)
	.loc 5 392 0
	stw 3,28(31)
.LVL1016:
	.loc 5 393 0
	cmpwi 7,0,0
	ble- 7,.L802
	.loc 3 146 0
	addi 11,28,-4
.LBE4719:
.LBE4718:
.LBE4730:
.LBE4736:
	.loc 5 393 0
	li 9,0
	b .L803
.LVL1017:
.L823:
.LBB4737:
.LBB4731:
.LBB4725:
.LBB4722:
	lwz 3,28(31)
.LVL1018:
.L803:
	.loc 5 394 0
	lwzu 10,4(11)
	slwi 0,9,2
	.loc 5 393 0
	addi 9,9,1
.LVL1019:
	.loc 5 394 0
	stwx 10,3,0
	.loc 5 393 0
	lwz 0,16(31)
	cmpw 7,9,0
	blt+ 7,.L823
.LVL1020:
.L802:
	.loc 5 398 0
	cmpwi 7,28,0
	beq- 7,.L798
	.loc 5 399 0
	mr 3,28
	bl _ZdaPv
	b .L798
.LVL1021:
.L818:
.LBE4722:
.LBE4725:
.LBE4731:
.LBE4737:
.LBB4738:
.LBB4548:
.LBB4512:
.LBB4513:
	.loc 5 375 0
	cmpwi 7,30,0
	ble- 7,.L824
	.loc 5 387 0
	lwz 0,0(3)
	.loc 5 385 0
	lwz 28,12(3)
.LVL1022:
	.loc 5 387 0
	cmpw 7,30,0
	.loc 5 386 0
	stw 30,4(3)
	.loc 5 387 0
	blt- 7,.L825
.L786:
	.loc 5 392 0
	mulli 3,30,60
	bl _Znaj
.LVL1023:
	.loc 5 393 0
	lwz 0,0(31)
	.loc 5 392 0
	stw 3,12(31)
.LVL1024:
	.loc 5 393 0
	cmpwi 7,0,0
	ble- 7,.L787
	mr 8,28
	li 4,0
	li 27,0
	addi 23,28,20
	addi 24,28,32
	addi 26,28,44
	b .L788
.LVL1025:
.L826:
	lwz 3,12(31)
.LVL1026:
.L788:
.LBB4514:
.LBB4515:
.LBB4516:
.LBB4517:
	.loc 4 424 0
	lwz 0,0(8)
.LBE4517:
.LBE4516:
.LBE4515:
.LBE4514:
	.loc 5 394 0
	add 9,3,4
.LVL1027:
.LBB4538:
.LBB4534:
.LBB4520:
.LBB4521:
	.loc 4 424 0
	mr 5,23
.LBE4521:
.LBE4520:
.LBB4523:
.LBB4524:
	mr 6,24
.LBE4524:
.LBE4523:
.LBB4528:
.LBB4518:
	stwx 0,3,4
.LBE4518:
.LBE4528:
.LBB4529:
.LBB4525:
	mr 7,26
.LBE4525:
.LBE4529:
.LBE4534:
.LBE4538:
	.loc 5 393 0
	addi 27,27,1
.LBB4539:
.LBB4535:
.LBB4530:
.LBB4519:
	.loc 4 425 0
	lwz 0,4(8)
	stw 0,4(9)
	.loc 4 426 0
	lwz 0,8(8)
	stw 0,8(9)
.LBE4519:
.LBE4530:
	.file 8 "d:/Data/Nintendo/DoomGX/src/idlib/geometry/../../idlib/geometry/DrawVert.h"
	.loc 8 40 0
	lwz 10,12(8)
	lwz 11,16(8)
	stw 10,12(9)
	stw 11,16(9)
.LVL1028:
.LBB4531:
.LBB4522:
	.loc 4 424 0
	lwzux 0,5,4
	stw 0,20(9)
	.loc 4 425 0
	lwz 0,4(5)
	stw 0,24(9)
	.loc 4 426 0
	lwz 0,8(5)
	stw 0,28(9)
.LVL1029:
.LBE4522:
.LBE4531:
.LBB4532:
.LBB4526:
	.loc 4 424 0
	lwzux 0,6,4
	stw 0,32(9)
	.loc 4 425 0
	lwz 0,4(6)
	stw 0,36(9)
	.loc 4 426 0
	lwz 0,8(6)
	stw 0,40(9)
.LVL1030:
	.loc 4 424 0
	lwzux 0,7,4
.LBE4526:
.LBE4532:
.LBE4535:
.LBE4539:
	.loc 5 393 0
	addi 4,4,60
.LBB4540:
.LBB4536:
.LBB4533:
.LBB4527:
	.loc 4 424 0
	stw 0,44(9)
	.loc 4 425 0
	lwz 0,4(7)
	stw 0,48(9)
	.loc 4 426 0
	lwz 0,8(7)
	stw 0,52(9)
.LBE4527:
.LBE4533:
	.loc 8 40 0
	lwz 0,56(8)
.LBE4536:
.LBE4540:
	.loc 5 393 0
	addi 8,8,60
.LBB4541:
.LBB4537:
	.loc 8 40 0
	stw 0,56(9)
.LBE4537:
.LBE4541:
	.loc 5 393 0
	lwz 0,0(31)
	cmpw 7,27,0
	blt+ 7,.L826
.LVL1031:
.L787:
	.loc 5 398 0
	cmpwi 7,28,0
	beq- 7,.L817
	.loc 5 399 0
	mr 3,28
	bl _ZdaPv
.L817:
	lwz 9,68(31)
	b .L783
.LVL1032:
.L819:
.LBE4513:
.LBE4512:
.LBE4548:
.LBE4738:
	.loc 3 175 0
	mr 21,25
	b .L792
.LVL1033:
.L822:
.LBB4739:
.LBB4732:
.LBB4726:
.LBB4723:
	.loc 5 388 0
	stw 30,16(31)
	b .L801
.LVL1034:
.L825:
.LBE4723:
.LBE4726:
.LBE4732:
.LBE4739:
.LBB4740:
.LBB4549:
.LBB4546:
.LBB4544:
	stw 30,0(3)
	b .L786
.LVL1035:
.L776:
.LBE4544:
.LBE4546:
.LBE4549:
.LBE4740:
.LBB4741:
.LBB4742:
.LBB4743:
	.loc 5 193 0
	lwz 3,12(31)
	cmpwi 7,3,0
	beq- 7,.L778
	.loc 5 194 0
	bl _ZdaPv
.L778:
.LBE4743:
.LBE4742:
.LBB4746:
.LBB4747:
	.loc 5 193 0
	lwz 3,28(31)
.LBE4747:
.LBE4746:
.LBB4752:
.LBB4744:
	.loc 5 197 0
	li 0,0
	stw 0,12(31)
.LBE4744:
.LBE4752:
.LBB4753:
.LBB4748:
	.loc 5 193 0
	cmpwi 7,3,0
.LBE4748:
.LBE4753:
.LBB4754:
.LBB4745:
	.loc 5 198 0
	stw 0,0(31)
	.loc 5 199 0
	stw 0,4(31)
.LVL1036:
.LBE4745:
.LBE4754:
.LBB4755:
.LBB4749:
	.loc 5 193 0
	beq- 7,.L779
	.loc 5 194 0
	bl _ZdaPv
.L779:
.LBE4749:
.LBE4755:
.LBB4756:
.LBB4757:
	.loc 5 193 0
	lwz 3,44(31)
.LBE4757:
.LBE4756:
.LBB4762:
.LBB4750:
	.loc 5 197 0
	li 0,0
	stw 0,28(31)
.LBE4750:
.LBE4762:
.LBB4763:
.LBB4758:
	.loc 5 193 0
	cmpwi 7,3,0
.LBE4758:
.LBE4763:
.LBB4764:
.LBB4751:
	.loc 5 198 0
	stw 0,16(31)
	.loc 5 199 0
	stw 0,20(31)
.LVL1037:
.LBE4751:
.LBE4764:
.LBB4765:
.LBB4759:
	.loc 5 193 0
	beq- 7,.L780
	.loc 5 194 0
	bl _ZdaPv
.L780:
.LBE4759:
.LBE4765:
.LBB4766:
.LBB4767:
	.loc 5 193 0
	lwz 3,60(31)
.LBE4767:
.LBE4766:
.LBB4770:
.LBB4760:
	.loc 5 197 0
	li 0,0
	stw 0,44(31)
.LBE4760:
.LBE4770:
.LBB4771:
.LBB4768:
	.loc 5 193 0
	cmpwi 7,3,0
.LBE4768:
.LBE4771:
.LBB4772:
.LBB4761:
	.loc 5 198 0
	stw 0,32(31)
	.loc 5 199 0
	stw 0,36(31)
.LVL1038:
.LBE4761:
.LBE4772:
.LBB4773:
.LBB4769:
	.loc 5 193 0
	beq- 7,.L781
	.loc 5 194 0
	bl _ZdaPv
.L781:
	.loc 5 197 0
	li 0,0
	stw 0,60(31)
	.loc 5 198 0
	stw 0,48(31)
	.loc 5 199 0
	stw 0,52(31)
	b .L775
.LVL1039:
.L821:
.LBE4769:
.LBE4773:
.LBE4741:
.LBB4774:
.LBB4733:
.LBB4727:
.LBB4724:
.LBB4720:
.LBB4721:
	.loc 5 193 0
	lwz 3,28(31)
	cmpwi 7,3,0
	beq- 7,.L800
	.loc 5 194 0
	bl _ZdaPv
.L800:
	.loc 5 197 0
	li 0,0
	stw 0,28(31)
	.loc 5 199 0
	stw 0,20(31)
	b .L798
.LVL1040:
.L824:
.LBE4721:
.LBE4720:
.LBE4724:
.LBE4727:
.LBE4733:
.LBE4774:
.LBB4775:
.LBB4550:
.LBB4547:
.LBB4545:
.LBB4542:
.LBB4543:
	.loc 5 193 0
	lwz 3,12(3)
	cmpwi 7,3,0
	beq- 7,.L785
	.loc 5 194 0
	bl _ZdaPv
	lwz 9,68(31)
.L785:
	.loc 5 197 0
	li 0,0
	stw 0,12(31)
	.loc 5 199 0
	stw 0,4(31)
	b .L783
.LBE4543:
.LBE4542:
.LBE4545:
.LBE4547:
.LBE4550:
.LBE4775:
.LBE4776:
	.cfi_endproc
.LFE2542:
	.size	_ZN21idSurface_SweptSpline10TessellateEii, .-_ZN21idSurface_SweptSpline10TessellateEii
	.section	.text._ZNK14idCurve_SplineI6idVec4E12TimeForIndexEi,"axG",@progbits,_ZNK14idCurve_SplineI6idVec4E12TimeForIndexEi,comdat
	.align 2
	.weak	_ZNK14idCurve_SplineI6idVec4E12TimeForIndexEi
	.type	_ZNK14idCurve_SplineI6idVec4E12TimeForIndexEi, @function
_ZNK14idCurve_SplineI6idVec4E12TimeForIndexEi:
.LFB2833:
	.loc 2 1003 0
	.cfi_startproc
.LVL1041:
.LBB4836:
	.loc 2 1006 0
	cmpwi 0,4,0
.LBE4836:
	.loc 3 223 0
	lwz 9,4(3)
	.loc 2 1003 0
	stwu 1,-40(1)
.LCFI63:
	.cfi_def_cfa_offset 40
.LBB4841:
	.loc 2 1004 0
	addi 0,9,-1
.LVL1042:
	.loc 2 1006 0
	blt- 0,.L833
	.loc 2 1014 0
	cmpw 7,0,4
	bge- 7,.L831
	.loc 2 1015 0
	lwz 11,44(3)
	cmpwi 7,11,2
	beq- 7,.L834
	.loc 3 223 0
	lwz 11,16(3)
.LVL1043:
	.loc 2 1019 0
	subf 4,0,4
.LVL1044:
	slwi 0,0,2
.LVL1045:
	xoris 4,4,0x8000
	lfsx 0,11,0
.LVL1046:
	lis 0,0x4330
	stw 4,36(1)
	lis 10,.LC3@ha
	stw 0,32(1)
.LBB4837:
.LBB4838:
	.loc 5 573 0
	addi 9,9,-2
.LBE4838:
.LBE4837:
	.loc 2 1019 0
	lfs 13,.LC3@l(10)
	slwi 9,9,2
	lfd 1,32(1)
	fsub 1,1,13
	lfsx 13,11,9
.LBE4841:
	.loc 2 1023 0
	addi 1,1,40
	.cfi_remember_state
.LCFI64:
	.cfi_def_cfa_offset 0
.LBB4842:
	.loc 2 1019 0
	fsubs 13,0,13
	frsp 1,1
	fmadds 1,1,13,0
.LBE4842:
	.loc 2 1023 0
	blr
.LVL1047:
.L831:
.LCFI65:
	.cfi_restore_state
.LBB4843:
	.loc 2 1022 0
	lwz 9,16(3)
	slwi 4,4,2
.LVL1048:
	lfsx 1,9,4
.LVL1049:
.L830:
.LBE4843:
	.loc 2 1023 0
	addi 1,1,40
	.cfi_remember_state
.LCFI66:
	.cfi_def_cfa_offset 0
	blr
.LVL1050:
.L833:
.LCFI67:
	.cfi_restore_state
.LBB4844:
	.loc 2 1007 0
	lwz 11,44(3)
	cmpwi 7,11,2
	beq- 7,.L835
.LVL1051:
.LBE4844:
.LBB4845:
	.loc 3 223 0
	lwz 9,16(3)
.LVL1052:
.LBB4846:
	.loc 2 1011 0
	xoris 4,4,0x8000
.LVL1053:
	lis 0,0x4330
.LVL1054:
	lfs 0,0(9)
.LVL1055:
	stw 4,20(1)
	stw 0,16(1)
	lfs 13,4(9)
	lis 9,.LC3@ha
	lfd 1,16(1)
.LBE4846:
.LBE4845:
	.loc 2 1023 0
.LBB4849:
.LBB4847:
	.loc 2 1011 0
	lfs 12,.LC3@l(9)
	fsubs 13,13,0
.LBE4847:
.LBE4849:
	.loc 2 1023 0
	addi 1,1,40
	.cfi_remember_state
.LCFI68:
	.cfi_def_cfa_offset 0
.LBB4850:
.LBB4848:
	.loc 2 1011 0
	fsub 1,1,12
	frsp 1,1
	fmadds 1,1,13,0
.LBE4848:
.LBE4850:
	.loc 2 1023 0
	blr
.LVL1056:
.L835:
.LCFI69:
	.cfi_restore_state
.LBB4851:
	.loc 2 1008 0
	divw 10,4,9
	.loc 3 223 0
	lwz 11,16(3)
.LVL1057:
	.loc 2 1008 0
	slwi 0,0,2
.LVL1058:
	lfs 0,48(3)
	lfsx 1,11,0
	fadds 0,1,0
.LVL1059:
	mullw 0,10,9
	xoris 10,10,0x8000
	subf 4,0,4
.LVL1060:
	lis 0,0x4330
.LBB4839:
.LBB4840:
	.loc 5 573 0
	add 9,9,4
.LBE4840:
.LBE4839:
	.loc 2 1008 0
	slwi 9,9,2
	lfsx 13,11,9
	lis 9,.LC3@ha
	stw 10,12(1)
	stw 0,8(1)
	fsubs 13,0,13
	lfs 12,.LC3@l(9)
	lfd 1,8(1)
	fsub 1,1,12
	frsp 1,1
	fmsubs 1,1,0,13
	b .L830
.LVL1061:
.L834:
	.loc 2 1016 0
	divw 10,4,9
	lis 11,0x4330
	stw 11,24(1)
	slwi 0,0,2
.LVL1062:
	.loc 3 223 0
	lwz 11,16(3)
.LVL1063:
	.loc 2 1016 0
	lfs 0,48(3)
	xoris 8,10,0x8000
	mullw 9,10,9
	stw 8,28(1)
	lis 10,.LC3@ha
	lfs 13,.LC3@l(10)
	lfd 12,24(1)
	lfsx 1,11,0
	subf 4,9,4
.LVL1064:
	fsub 13,12,13
	slwi 4,4,2
	fadds 1,1,0
	lfsx 0,11,4
.LBE4851:
	.loc 2 1023 0
	addi 1,1,40
.LCFI70:
	.cfi_def_cfa_offset 0
.LBB4852:
	.loc 2 1016 0
	frsp 13,13
	fmadds 1,13,1,0
.LBE4852:
	.loc 2 1023 0
	blr
	.cfi_endproc
.LFE2833:
	.size	_ZNK14idCurve_SplineI6idVec4E12TimeForIndexEi, .-_ZNK14idCurve_SplineI6idVec4E12TimeForIndexEi
	.section	.text._ZNK25idCurve_NonUniformBSplineI6idVec4E20BasisFirstDerivativeEiifPf,"axG",@progbits,_ZNK25idCurve_NonUniformBSplineI6idVec4E20BasisFirstDerivativeEiifPf,comdat
	.align 2
	.weak	_ZNK25idCurve_NonUniformBSplineI6idVec4E20BasisFirstDerivativeEiifPf
	.type	_ZNK25idCurve_NonUniformBSplineI6idVec4E20BasisFirstDerivativeEiifPf, @function
_ZNK25idCurve_NonUniformBSplineI6idVec4E20BasisFirstDerivativeEiifPf:
.LFB2828:
	.loc 2 2288 0
	.cfi_startproc
.LVL1065:
	stwu 1,-256(1)
.LCFI71:
	.cfi_def_cfa_offset 256
	mflr 0
.LBB5067:
.LBB5068:
.LBB5069:
	.loc 2 2267 0
	lis 9,.LC1@ha
.LBE5069:
.LBE5068:
.LBE5067:
	.loc 2 2288 0
	stw 31,244(1)
.LBB5191:
	.loc 2 2291 0
	addi 31,5,-1
	.cfi_offset 31, -12
	.cfi_register 65, 0
.LBB5133:
.LBB5127:
	.loc 2 2268 0
	cmpwi 7,31,1
.LBE5127:
.LBE5133:
.LBE5191:
	.loc 2 2288 0
	stw 0,260(1)
.LBB5192:
.LBB5134:
.LBB5128:
	.loc 2 2267 0
	lwz 0,.LC1@l(9)
	.cfi_offset 65, 4
	slwi 11,31,2
.LBE5128:
.LBE5134:
.LBE5192:
	.loc 2 2288 0
	stw 28,232(1)
	mr 28,6
	.cfi_offset 28, -24
	stw 30,240(1)
	mr 30,3
	.cfi_offset 30, -16
.LVL1066:
	stfd 31,248(1)
	stw 17,188(1)
	stw 18,192(1)
	stw 19,196(1)
	stw 20,200(1)
	stw 21,204(1)
	stw 22,208(1)
	stw 23,212(1)
	stw 24,216(1)
	stw 25,220(1)
	stw 26,224(1)
	stw 27,228(1)
	stw 29,236(1)
.LBB5193:
.LBB5135:
.LBB5129:
	.loc 2 2267 0
	stwx 0,11,6
.LVL1067:
	.loc 2 2268 0
	ble- 7,.L837
	.cfi_offset 29, -20
	.cfi_offset 27, -28
	.cfi_offset 26, -32
	.cfi_offset 25, -36
	.cfi_offset 24, -40
	.cfi_offset 23, -44
	.cfi_offset 22, -48
	.cfi_offset 21, -52
	.cfi_offset 20, -56
	.cfi_offset 19, -60
	.cfi_offset 18, -64
	.cfi_offset 17, -68
	.cfi_offset 63, -8
.LVL1068:
	.loc 2 2288 0
	mr 27,11
	add 21,6,11
	.loc 2 2268 0
	slwi 22,4,2
	.loc 2 2288 0
	addi 11,5,-2
.LBE5129:
.LBE5135:
.LBE5193:
	mr 7,4
	.loc 2 2268 0
	li 24,2
	lis 29,.LC3@ha
.LBB5194:
.LBB5136:
.LBB5130:
	.loc 2 2270 0
	li 19,0
.LBB5070:
.LBB5071:
	.loc 2 1019 0
	lis 26,0x4330
.LVL1069:
.L855:
.LBE5071:
.LBE5070:
	.loc 2 2271 0
	cmpw 7,31,11
	.loc 2 2270 0
	stwu 19,-4(21)
.LVL1070:
	addi 23,7,-1
	addi 20,11,-1
	.loc 2 2271 0
	ble- 7,.L838
	.loc 2 2288 0
	add 10,11,4
	add 7,7,24
	addi 10,10,-1
	addi 7,7,-1
	subf 10,20,10
	.loc 2 2274 0
	lfs 10,.LC1@l(9)
	subf 10,23,10
	.loc 2 2288 0
	mr 0,23
	.loc 2 2274 0
	mtctr 10
	.loc 2 2288 0
	addi 11,21,-4
	slwi 12,7,2
.LBE5130:
.LBE5136:
.LBE5194:
	mr 3,22
.LVL1071:
.L854:
.LBB5195:
.LBB5137:
.LBB5131:
.LBB5088:
.LBB5076:
	.loc 2 1006 0
	addic. 0,0,1
.LVL1072:
.LBE5076:
	.loc 3 223 0
	lwz 6,4(30)
.LBB5077:
	.loc 2 1004 0
	addi 8,6,-1
.LVL1073:
	.loc 2 1006 0
	blt- 0,.L875
	.loc 2 1014 0
	cmpw 7,0,8
	ble- 7,.L842
	.loc 2 1015 0
	lwz 10,44(30)
	cmpwi 7,10,2
	beq- 7,.L876
.LBE5077:
	.loc 3 223 0
	lwz 10,16(30)
.LVL1074:
.LBB5078:
	.loc 2 1019 0
	subf 25,8,0
	xoris 25,25,0x8000
	slwi 18,8,2
	lfsx 0,10,18
.LVL1075:
	stw 25,36(1)
.LBB5072:
.LBB5073:
	.loc 5 573 0
	addi 25,6,-2
.LBE5073:
.LBE5072:
	.loc 2 1019 0
	stw 26,32(1)
	slwi 25,25,2
	lfs 13,.LC3@l(29)
	lfd 11,32(1)
	fsub 11,11,13
	lfsx 13,10,25
	fsubs 13,0,13
	frsp 11,11
	fmadds 11,11,13,0
.LVL1076:
.L841:
.LBE5078:
.LBE5088:
.LBB5089:
.LBB5090:
	.loc 2 1006 0
	cmpwi 7,7,0
.LBE5090:
.LBE5089:
	.loc 2 2273 0
	fsubs 11,1,11
.LVL1077:
.LBB5102:
.LBB5095:
	.loc 2 1006 0
	blt- 7,.L877
.LVL1078:
.L844:
	.loc 2 1014 0
	cmpw 7,7,8
	ble- 7,.L847
	.loc 2 1015 0
	lwz 25,44(30)
	cmpwi 7,25,2
	beq- 7,.L878
.LVL1079:
	.loc 2 1019 0
	subf 25,8,7
	slwi 18,8,2
	xoris 25,25,0x8000
	lfsx 0,10,18
.LVL1080:
	stw 25,68(1)
.LBB5091:
.LBB5092:
	.loc 5 573 0
	addi 25,6,-2
.LBE5092:
.LBE5091:
	.loc 2 1019 0
	stw 26,64(1)
	slwi 25,25,2
	lfs 13,.LC3@l(29)
	lfd 12,64(1)
	fsub 12,12,13
	lfsx 13,10,25
	fsubs 13,0,13
	frsp 12,12
	fmadds 13,12,13,0
.LVL1081:
.L846:
.LBE5095:
.LBE5102:
.LBB5103:
.LBB5104:
	.loc 2 1006 0
	blt- 0,.L879
.LVL1082:
.L849:
	.loc 2 1014 0
	cmpw 7,0,8
	ble- 7,.L852
	.loc 2 1015 0
	lwz 25,44(30)
	cmpwi 7,25,2
	beq- 7,.L880
.LVL1083:
	.loc 2 1019 0
	subf 25,8,0
	slwi 8,8,2
.LVL1084:
	xoris 25,25,0x8000
	lfsx 12,10,8
.LVL1085:
	stw 25,100(1)
.LBB5105:
.LBB5106:
	.loc 5 573 0
	addi 6,6,-2
.LBE5106:
.LBE5105:
	.loc 2 1019 0
	stw 26,96(1)
	slwi 6,6,2
	lfs 0,.LC3@l(29)
	lfd 9,96(1)
	fsub 9,9,0
	lfsx 0,10,6
	fsubs 0,12,0
	frsp 9,9
	fmadds 0,9,0,12
.LVL1086:
.L851:
.LBE5104:
.LBE5103:
	.loc 2 2273 0
	fsubs 13,13,0
	.loc 2 2274 0
	lfs 12,4(11)
	lfs 0,8(11)
	.loc 2 2275 0
	addi 3,3,4
	addi 7,7,1
.LVL1087:
	addi 12,12,4
	.loc 2 2273 0
	fdivs 13,11,13
.LVL1088:
	.loc 2 2274 0
	fsubs 11,10,13
	.loc 2 2275 0
	fmuls 13,0,13
.LVL1089:
	.loc 2 2274 0
	fmadds 0,11,0,12
	.loc 2 2275 0
	stfs 13,8(11)
	.loc 2 2274 0
	stfs 0,4(11)
	.loc 2 2275 0
	addi 11,11,4
	.loc 2 2271 0
	bdnz .L854
.LVL1090:
.L838:
	.loc 2 2268 0
	addi 24,24,1
.LVL1091:
	mr 11,20
	cmpw 7,24,5
	mr 7,23
	addi 22,22,-4
	bne+ 7,.L855
.LBE5131:
.LBE5137:
	.loc 2 2292 0
	li 0,0
	stw 0,0(28)
.LVL1092:
.L856:
	.loc 2 2293 0
	xoris 0,31,0x8000
	lfs 0,.LC3@l(29)
	stw 0,108(1)
	lis 0,0x4330
	stw 0,104(1)
	cmpwi 7,31,0
	.loc 2 2288 0
	add 10,31,4
	addi 11,4,-2
	.loc 2 2293 0
	lfd 11,104(1)
	mr 9,28
	.loc 2 2288 0
	addi 10,10,-2
	.loc 2 2293 0
	slwi 6,11,2
	fsub 11,11,0
.LBB5138:
.LBB5139:
	.loc 2 1022 0
	slwi 5,5,2
.LVL1093:
	.loc 2 1019 0
	lis 3,0x4330
	mtctr 31
.LBE5139:
.LBE5138:
	.loc 2 2293 0
	frsp 11,11
	bgt+ 7,.L868
	b .L894
.LVL1094:
.L887:
.LBB5157:
.LBB5144:
	.loc 2 1015 0
	lwz 8,44(30)
	cmpwi 7,8,2
	beq- 7,.L882
.LBE5144:
	.loc 3 223 0
	lwz 8,16(30)
.LVL1095:
.LBB5145:
	.loc 2 1019 0
	subf 26,0,10
	xoris 26,26,0x8000
	slwi 25,0,2
	lfsx 10,8,25
.LVL1096:
	stw 26,140(1)
.LBB5140:
.LBB5141:
	.loc 5 573 0
	addi 26,7,-2
.LBE5141:
.LBE5140:
	.loc 2 1019 0
	stw 3,136(1)
	slwi 26,26,2
	lfs 13,.LC3@l(29)
	lfd 12,136(1)
	fsub 12,12,13
	lfsx 13,8,26
	fsubs 13,10,13
	frsp 12,12
	fmadds 12,12,13,10
.LVL1097:
.L860:
.LBE5145:
.LBE5157:
.LBB5158:
.LBB5159:
	.loc 2 1006 0
	cmpwi 7,11,0
	blt- 7,.L883
.LVL1098:
.L863:
	.loc 2 1014 0
	cmpw 7,11,0
	ble- 7,.L866
	.loc 2 1015 0
	lwz 26,44(30)
	cmpwi 7,26,2
	beq- 7,.L884
.LVL1099:
	.loc 2 1019 0
	subf 26,0,11
	slwi 0,0,2
.LVL1100:
	xoris 26,26,0x8000
	lfsx 10,8,0
.LVL1101:
	stw 26,172(1)
.LBB5160:
.LBB5161:
	.loc 5 573 0
	addi 7,7,-2
.LVL1102:
.LBE5161:
.LBE5160:
	.loc 2 1019 0
	stw 3,168(1)
	slwi 7,7,2
	lfs 13,.LC3@l(29)
	lfd 9,168(1)
	fsub 9,9,13
	lfsx 13,8,7
	fsubs 13,10,13
	frsp 9,9
	fmadds 13,9,13,10
.LVL1103:
.L865:
.LBE5159:
.LBE5158:
	.loc 2 2295 0
	fsubs 13,12,13
	.loc 2 2293 0
	addi 10,10,1
.LVL1104:
	addi 11,11,1
.LVL1105:
	addi 6,6,4
	.loc 2 2295 0
	fdivs 13,11,13
	fmuls 0,0,13
	stfs 0,-4(9)
	.loc 2 2293 0
	bdz .L885
.LVL1106:
.L868:
	.loc 2 2294 0 discriminator 2
	lfs 13,0(9)
.LBB5177:
.LBB5146:
	.loc 2 1006 0 discriminator 2
	cmpwi 7,10,0
.LBE5146:
.LBE5177:
	.loc 2 2294 0 discriminator 2
	lfsu 0,4(9)
	fsubs 0,13,0
	stfs 0,-4(9)
.LVL1107:
.LBB5178:
	.loc 3 223 0 discriminator 2
	lwz 7,4(30)
.LBB5147:
	.loc 2 1004 0 discriminator 2
	addi 0,7,-1
.LVL1108:
	.loc 2 1006 0 discriminator 2
	blt- 7,.L886
	.loc 2 1014 0
	cmpw 7,10,0
	bgt- 7,.L887
.LBE5147:
	.loc 3 223 0
	lwz 8,16(30)
.LVL1109:
.LBE5178:
.LBB5179:
.LBB5164:
	.loc 2 1006 0
	cmpwi 7,11,0
.LBE5164:
.LBE5179:
.LBB5180:
.LBB5148:
	.loc 2 1022 0
	add 26,8,5
	add 26,26,6
	lfs 12,-4(26)
.LVL1110:
.LBE5148:
.LBE5180:
.LBB5181:
.LBB5165:
	.loc 2 1006 0
	bge+ 7,.L863
.LVL1111:
.L883:
	.loc 2 1007 0
	lwz 26,44(30)
	cmpwi 7,26,2
	beq- 7,.L888
.LVL1112:
.LBE5165:
.LBB5166:
.LBB5167:
	.loc 2 1011 0
	xoris 0,11,0x8000
.LVL1113:
	lfs 10,0(8)
.LVL1114:
	stw 0,156(1)
.LBE5167:
.LBE5166:
.LBE5181:
	.loc 2 2293 0
	addi 10,10,1
.LVL1115:
.LBB5182:
.LBB5171:
.LBB5168:
	.loc 2 1011 0
	stw 3,152(1)
.LBE5168:
.LBE5171:
.LBE5182:
	.loc 2 2293 0
	addi 11,11,1
.LVL1116:
.LBB5183:
.LBB5172:
.LBB5169:
	.loc 2 1011 0
	lfs 13,.LC3@l(29)
.LBE5169:
.LBE5172:
.LBE5183:
	.loc 2 2293 0
	addi 6,6,4
.LBB5184:
.LBB5173:
.LBB5170:
	.loc 2 1011 0
	lfd 8,152(1)
	lfs 9,4(8)
	fsub 13,8,13
	fsubs 9,9,10
	frsp 13,13
	fmadds 13,13,9,10
.LBE5170:
.LBE5173:
.LBE5184:
	.loc 2 2295 0
	fsubs 13,12,13
	fdivs 13,11,13
	fmuls 0,0,13
	stfs 0,-4(9)
	.loc 2 2293 0
	bdnz .L868
.LVL1117:
.L885:
	mr 26,31
.LVL1118:
.L857:
	.loc 2 2297 0
	add 26,4,26
	mr 3,30
	add 4,31,26
.LVL1119:
	xoris 31,31,0x8000
.LVL1120:
	addi 4,4,-2
	bl _ZNK14idCurve_SplineI6idVec4E12TimeForIndexEi
.LVL1121:
	mr 3,30
	addi 4,26,-2
	fmr 31,1
	bl _ZNK14idCurve_SplineI6idVec4E12TimeForIndexEi
	lis 0,0x4330
	stw 31,180(1)
	stw 0,176(1)
	fsubs 1,31,1
	lfs 0,.LC3@l(29)
	lfd 13,176(1)
	fsub 0,13,0
	lfsx 13,28,27
	frsp 0,0
	fdivs 0,0,1
	fmuls 0,13,0
	stfsx 0,28,27
.LBE5195:
	.loc 2 2298 0
	lwz 0,260(1)
	lwz 17,188(1)
	mtlr 0
	lwz 18,192(1)
	lwz 19,196(1)
	lwz 20,200(1)
	lwz 21,204(1)
	lwz 22,208(1)
	lwz 23,212(1)
	lwz 24,216(1)
	lwz 25,220(1)
	lwz 26,224(1)
	lwz 27,228(1)
	lwz 28,232(1)
.LVL1122:
	lwz 29,236(1)
	lwz 30,240(1)
.LVL1123:
	lwz 31,244(1)
.LVL1124:
	lfd 31,248(1)
	addi 1,1,256
	.cfi_remember_state
.LCFI72:
	.cfi_def_cfa_offset 0
	.cfi_restore 63
	.cfi_restore 31
	.cfi_restore 30
	.cfi_restore 29
	.cfi_restore 28
	.cfi_restore 27
	.cfi_restore 26
	.cfi_restore 25
	.cfi_restore 24
	.cfi_restore 23
	.cfi_restore 22
	.cfi_restore 21
	.cfi_restore 20
	.cfi_restore 19
	.cfi_restore 18
	.cfi_restore 17
	blr
.LVL1125:
.L852:
.LCFI73:
	.cfi_restore_state
.LBB5196:
.LBB5185:
.LBB5132:
.LBB5115:
.LBB5109:
	.loc 2 1022 0
	lfsx 0,10,3
	b .L851
.LVL1126:
.L847:
.LBE5109:
.LBE5115:
.LBB5116:
.LBB5096:
	lfsx 13,10,12
.LVL1127:
.LBE5096:
.LBE5116:
.LBB5117:
.LBB5110:
	.loc 2 1006 0
	bge+ 0,.L849
.LVL1128:
.L879:
	.loc 2 1007 0
	lwz 25,44(30)
	cmpwi 7,25,2
	beq- 7,.L889
.LVL1129:
.LBE5110:
.LBB5111:
.LBB5112:
	.loc 2 1011 0
	xoris 8,0,0x8000
.LVL1130:
	lfs 12,0(10)
.LVL1131:
	stw 8,84(1)
	stw 26,80(1)
	lfs 0,.LC3@l(29)
	lfd 8,80(1)
	lfs 9,4(10)
	fsub 0,8,0
	fsubs 9,9,12
	frsp 0,0
	fmadds 0,0,9,12
	b .L851
.LVL1132:
.L842:
.LBE5112:
.LBE5111:
.LBE5117:
.LBB5118:
	.loc 3 223 0
	lwz 10,16(30)
.LVL1133:
.LBE5118:
.LBB5119:
.LBB5097:
	.loc 2 1006 0
	cmpwi 7,7,0
.LBE5097:
.LBE5119:
.LBB5120:
.LBB5079:
	.loc 2 1022 0
	lfsx 11,10,3
.LBE5079:
.LBE5120:
	.loc 2 2273 0
	fsubs 11,1,11
.LVL1134:
.LBB5121:
.LBB5098:
	.loc 2 1006 0
	bge+ 7,.L844
.LVL1135:
.L877:
	.loc 2 1007 0
	lwz 25,44(30)
	cmpwi 7,25,2
	beq- 7,.L890
.LVL1136:
.LBE5098:
.LBB5099:
.LBB5100:
	.loc 2 1011 0
	xoris 25,7,0x8000
	lfs 0,0(10)
.LVL1137:
	stw 25,52(1)
	stw 26,48(1)
	lfs 13,.LC3@l(29)
	lfd 9,48(1)
	lfs 12,4(10)
	fsub 13,9,13
	fsubs 12,12,0
	frsp 13,13
	fmadds 13,13,12,0
	b .L846
.LVL1138:
.L875:
.LBE5100:
.LBE5099:
.LBE5121:
.LBB5122:
.LBB5080:
	.loc 2 1007 0
	lwz 10,44(30)
	cmpwi 7,10,2
	beq- 7,.L891
.LVL1139:
.LBE5080:
.LBB5081:
	.loc 3 223 0
	lwz 10,16(30)
.LVL1140:
.LBB5082:
	.loc 2 1011 0
	xoris 25,0,0x8000
	lfs 12,.LC3@l(29)
	lfs 0,0(10)
.LVL1141:
	stw 25,20(1)
	stw 26,16(1)
	lfd 11,16(1)
	lfs 13,4(10)
	fsub 11,11,12
	fsubs 13,13,0
	frsp 11,11
	fmadds 11,11,13,0
	b .L841
.LVL1142:
.L876:
.LBE5082:
.LBE5081:
.LBB5083:
	.loc 2 1016 0
	divw 25,0,6
	stw 26,24(1)
	lfs 13,.LC3@l(29)
	slwi 18,8,2
.LBE5083:
	.loc 3 223 0
	lwz 10,16(30)
.LVL1143:
.LBB5084:
	.loc 2 1016 0
	lfs 0,48(30)
	xoris 17,25,0x8000
	mullw 25,25,6
	stw 17,28(1)
	lfd 12,24(1)
	lfsx 11,10,18
	subf 25,25,0
	fsub 13,12,13
	slwi 25,25,2
	fadds 11,11,0
.LBE5084:
	lfsx 0,10,25
.LBB5085:
	frsp 13,13
.LBE5085:
	fmadds 11,13,11,0
	b .L841
.LVL1144:
.L880:
.LBE5122:
.LBB5123:
.LBB5113:
	divw 25,0,6
	stw 26,88(1)
	lfs 9,.LC3@l(29)
	slwi 8,8,2
.LVL1145:
	lfs 12,48(30)
	xoris 18,25,0x8000
	mullw 6,25,6
.LVL1146:
	stw 18,92(1)
	lfd 8,88(1)
	lfsx 0,10,8
	subf 6,6,0
	fsub 9,8,9
	slwi 6,6,2
	fadds 0,0,12
	lfsx 12,10,6
	frsp 9,9
	fmadds 0,9,0,12
	b .L851
.LVL1147:
.L878:
.LBE5113:
.LBE5123:
.LBB5124:
.LBB5101:
	divw 25,7,6
	stw 26,56(1)
	lfs 12,.LC3@l(29)
	slwi 18,8,2
	lfs 0,48(30)
	xoris 17,25,0x8000
	mullw 25,25,6
	stw 17,60(1)
	lfd 9,56(1)
	lfsx 13,10,18
	subf 25,25,7
	fsub 12,9,12
	slwi 25,25,2
	fadds 13,13,0
	lfsx 0,10,25
	frsp 12,12
	fmadds 13,12,13,0
	b .L846
.LVL1148:
.L890:
	.loc 2 1008 0
	divw 25,7,6
	slwi 18,8,2
	lfsx 13,10,18
	lfs 0,48(30)
	lfs 9,.LC3@l(29)
	fadds 0,13,0
.LVL1149:
	mullw 18,25,6
	xoris 25,25,0x8000
	subf 18,18,7
.LBB5093:
.LBB5094:
	.loc 5 573 0
	add 18,6,18
.LBE5094:
.LBE5093:
	.loc 2 1008 0
	slwi 18,18,2
	lfsx 12,10,18
	stw 25,44(1)
	stw 26,40(1)
	fsubs 12,0,12
	lfd 13,40(1)
	fsub 13,13,9
	frsp 13,13
	fmsubs 13,13,0,12
	b .L846
.LVL1150:
.L889:
.LBE5101:
.LBE5124:
.LBB5125:
.LBB5114:
	divw 25,0,6
	slwi 8,8,2
.LVL1151:
	lfsx 12,10,8
	lfs 0,48(30)
	lfs 8,.LC3@l(29)
	fadds 12,12,0
.LVL1152:
	mullw 8,25,6
	xoris 25,25,0x8000
	subf 8,8,0
.LBB5107:
.LBB5108:
	.loc 5 573 0
	add 6,6,8
.LBE5108:
.LBE5107:
	.loc 2 1008 0
	slwi 6,6,2
	lfsx 9,10,6
	stw 25,76(1)
	stw 26,72(1)
	fsubs 9,12,9
	lfd 0,72(1)
	fsub 0,0,8
	frsp 0,0
	fmsubs 0,0,12,9
	b .L851
.LVL1153:
.L891:
.LBE5114:
.LBE5125:
.LBB5126:
.LBB5086:
	divw 25,0,6
.LBE5086:
	.loc 3 223 0
	lwz 10,16(30)
.LVL1154:
.LBB5087:
	.loc 2 1008 0
	slwi 18,8,2
	lfs 0,48(30)
	lfsx 11,10,18
	lfs 12,.LC3@l(29)
	fadds 0,11,0
.LVL1155:
	mullw 18,25,6
	xoris 25,25,0x8000
	subf 18,18,0
.LBB5074:
.LBB5075:
	.loc 5 573 0
	add 18,6,18
.LBE5075:
.LBE5074:
	.loc 2 1008 0
	slwi 18,18,2
	lfsx 13,10,18
	stw 25,12(1)
	stw 26,8(1)
	fsubs 13,0,13
	lfd 11,8(1)
	fsub 11,11,12
	frsp 11,11
	fmsubs 11,11,0,13
	b .L841
.LVL1156:
.L866:
.LBE5087:
.LBE5126:
.LBE5132:
.LBE5185:
.LBB5186:
.LBB5174:
	.loc 2 1022 0
	lfsx 13,8,6
	b .L865
.LVL1157:
.L886:
.LBE5174:
.LBE5186:
.LBB5187:
.LBB5149:
	.loc 2 1007 0
	lwz 8,44(30)
	cmpwi 7,8,2
	beq- 7,.L892
.LVL1158:
.LBE5149:
.LBB5150:
	.loc 3 223 0
	lwz 8,16(30)
.LVL1159:
.LBB5151:
	.loc 2 1011 0
	xoris 26,10,0x8000
	lfs 12,.LC3@l(29)
	lfs 10,0(8)
.LVL1160:
	stw 26,124(1)
	stw 3,120(1)
	lfd 9,120(1)
	lfs 13,4(8)
	fsub 12,9,12
	fsubs 13,13,10
	frsp 12,12
	fmadds 12,12,13,10
	b .L860
.LVL1161:
.L884:
.LBE5151:
.LBE5150:
.LBE5187:
.LBB5188:
.LBB5175:
	.loc 2 1016 0
	divw 26,11,7
	stw 3,160(1)
	lfs 9,.LC3@l(29)
	slwi 0,0,2
.LVL1162:
	lfs 13,48(30)
	xoris 25,26,0x8000
	mullw 7,26,7
.LVL1163:
	stw 25,164(1)
	lfd 8,160(1)
	lfsx 10,8,0
	subf 0,7,11
	fsub 9,8,9
	slwi 0,0,2
	fadds 13,10,13
	lfsx 10,8,0
	frsp 9,9
	fmadds 13,9,13,10
	b .L865
.LVL1164:
.L882:
.LBE5175:
.LBE5188:
.LBB5189:
.LBB5152:
	divw 26,10,7
	stw 3,128(1)
	lfs 10,.LC3@l(29)
	slwi 25,0,2
.LBE5152:
	.loc 3 223 0
	lwz 8,16(30)
.LVL1165:
.LBB5153:
	.loc 2 1016 0
	lfs 13,48(30)
	xoris 24,26,0x8000
	mullw 26,26,7
	stw 24,132(1)
	lfd 9,128(1)
	lfsx 12,8,25
	subf 26,26,10
	fsub 10,9,10
	slwi 26,26,2
	fadds 12,12,13
.LBE5153:
	lfsx 13,8,26
.LBB5154:
	frsp 10,10
.LBE5154:
	fmadds 12,10,12,13
	b .L860
.LVL1166:
.L892:
.LBB5155:
	.loc 2 1008 0
	divw 26,10,7
.LBE5155:
	.loc 3 223 0
	lwz 8,16(30)
.LVL1167:
.LBB5156:
	.loc 2 1008 0
	slwi 25,0,2
	lfs 13,48(30)
	lfsx 12,8,25
	lfs 10,.LC3@l(29)
	fadds 13,12,13
.LVL1168:
	mullw 25,26,7
	xoris 26,26,0x8000
	subf 25,25,10
.LBB5142:
.LBB5143:
	.loc 5 573 0
	add 25,7,25
.LBE5143:
.LBE5142:
	.loc 2 1008 0
	slwi 25,25,2
	lfsx 12,8,25
	stw 26,116(1)
	stw 3,112(1)
	fsubs 12,13,12
	lfd 9,112(1)
	fsub 10,9,10
	frsp 10,10
	fmsubs 12,10,13,12
	b .L860
.LVL1169:
.L888:
.LBE5156:
.LBE5189:
.LBB5190:
.LBB5176:
	divw 26,11,7
	slwi 0,0,2
.LVL1170:
	lfsx 10,8,0
	lfs 13,48(30)
	lfs 9,.LC3@l(29)
	fadds 10,10,13
.LVL1171:
	mullw 0,26,7
	xoris 26,26,0x8000
	subf 0,0,11
.LBB5162:
.LBB5163:
	.loc 5 573 0
	add 0,7,0
.LBE5163:
.LBE5162:
	.loc 2 1008 0
	slwi 0,0,2
	lfsx 13,8,0
	stw 26,148(1)
	stw 3,144(1)
	fsubs 13,10,13
	lfd 8,144(1)
	fsub 9,8,9
	frsp 9,9
	fmsubs 13,9,10,13
	b .L865
.LVL1172:
.L837:
.LBE5176:
.LBE5190:
	.loc 2 2293 0
	cmpwi 7,31,0
	.loc 2 2292 0
	li 0,0
	stw 0,0(6)
.LVL1173:
	.loc 2 2293 0
	bgt- 7,.L893
	li 27,0
	li 26,0
	lis 29,.LC3@ha
	b .L857
.L893:
	slwi 27,31,2
	lis 29,.LC3@ha
	b .L856
.LVL1174:
.L894:
	li 0,1
	mtctr 0
	b .L868
.LBE5196:
	.cfi_endproc
.LFE2828:
	.size	_ZNK25idCurve_NonUniformBSplineI6idVec4E20BasisFirstDerivativeEiifPf, .-_ZNK25idCurve_NonUniformBSplineI6idVec4E20BasisFirstDerivativeEiifPf
	.section	.text._ZNK25idCurve_NonUniformBSplineI6idVec4E25GetCurrentFirstDerivativeEf,"axG",@progbits,_ZNK25idCurve_NonUniformBSplineI6idVec4E25GetCurrentFirstDerivativeEf,comdat
	.align 2
	.weak	_ZNK25idCurve_NonUniformBSplineI6idVec4E25GetCurrentFirstDerivativeEf
	.type	_ZNK25idCurve_NonUniformBSplineI6idVec4E25GetCurrentFirstDerivativeEf, @function
_ZNK25idCurve_NonUniformBSplineI6idVec4E25GetCurrentFirstDerivativeEf:
.LFB2815:
	.loc 2 2205 0
	.cfi_startproc
.LVL1175:
	mflr 0
	stwu 1,-80(1)
.LCFI74:
	.cfi_def_cfa_offset 80
	.cfi_register 65, 0
	stw 27,28(1)
	stw 0,84(1)
	stw 28,32(1)
	mr 28,3
	.cfi_offset 28, -48
	.cfi_offset 65, 4
	.cfi_offset 27, -52
	stw 29,36(1)
	mr 29,4
	.cfi_offset 29, -44
	stw 31,44(1)
	mr 31,1
	.cfi_offset 31, -36
.LCFI75:
	.cfi_def_cfa_register 31
	stfd 28,48(1)
	stfd 29,56(1)
	stfd 30,64(1)
	stfd 31,72(1)
	stw 30,40(1)
.LBB5316:
	.loc 2 2209 0
	lwz 5,52(4)
	.loc 3 223 0
	lwz 9,4(4)
	.loc 2 2209 0
	slwi 11,5,2
	addi 0,11,45
	lwz 11,0(1)
	rlwinm 0,0,0,0,27
	.loc 2 2211 0
	cmpwi 7,9,1
	.loc 2 2209 0
	neg 0,0
	stwux 11,1,0
	addi 27,1,23
	rlwinm 27,27,0,0,27
.LVL1176:
	.loc 2 2211 0
	beq- 7,.L933
	.cfi_offset 30, -40
	.cfi_offset 63, -8
	.cfi_offset 62, -16
	.cfi_offset 61, -24
	.cfi_offset 60, -32
.LVL1177:
.LBB5317:
.LBB5318:
	.loc 2 1034 0
	lwz 0,44(4)
	.loc 2 1042 0
	fmr 13,1
	.loc 2 1034 0
	cmpwi 7,0,1
	beq- 7,.L934
.L898:
.LVL1178:
.LBE5318:
.LBE5317:
.LBB5322:
.LBB5323:
	.loc 2 391 0
	lwz 30,36(29)
	cmpwi 7,30,0
	blt- 7,.L899
	cmpw 6,9,30
	blt- 6,.L899
	.loc 2 393 0
	beq- 7,.L935
	.loc 2 397 0
	beq- 6,.L936
	.loc 2 401 0
	addi 4,30,-1
.LVL1179:
.LBE5323:
	.loc 3 223 0
	lwz 11,16(29)
.LVL1180:
.LBB5326:
	.loc 2 401 0
	slwi 0,4,2
	lfsx 0,11,0
.LBB5324:
.LBB5325:
	.loc 5 573 0
	slwi 0,30,2
.LBE5325:
.LBE5324:
	.loc 2 401 0
	fcmpu 7,13,0
	bng- 7,.L905
.LVL1181:
	lfsx 0,11,0
	fcmpu 7,13,0
	cror 30,28,30
	beq- 7,.L901
.LVL1182:
.L905:
	.loc 2 403 0
	lfsx 0,11,0
	fcmpu 7,13,0
	bgt- 7,.L921
.LVL1183:
.L899:
	.loc 2 415 0
	cmpwi 7,9,0
	ble- 7,.L925
	.loc 2 416 0
	srawi 30,9,1
.LVL1184:
.LBE5326:
	.loc 3 223 0
	lwz 7,16(29)
.LVL1185:
.LBB5327:
	.loc 2 417 0
	slwi 0,30,2
	li 10,0
	lfsx 0,7,0
	mr 0,30
	fcmpu 7,13,0
	bne+ 7,.L909
	b .L908
.LVL1186:
.L938:
	.loc 2 415 0
	cmpwi 7,0,0
	.loc 2 421 0
	mr 10,30
.LVL1187:
	.loc 2 416 0
	srawi 0,9,1
.LVL1188:
	.loc 2 417 0
	add 30,0,10
.LVL1189:
	slwi 11,30,2
	.loc 2 415 0
	ble- 7,.L937
.LVL1190:
.L913:
	.loc 2 417 0
	lfsx 0,7,11
	fcmpu 7,13,0
	beq- 7,.L908
.LVL1191:
.L909:
	.loc 2 419 0
	fcmpu 7,13,0
	.loc 2 421 0
	subf 9,0,9
.LVL1192:
	.loc 2 422 0
	li 8,1
	.loc 2 419 0
	bgt- 7,.L938
.LVL1193:
	.loc 2 415 0
	cmpwi 7,0,0
	.loc 2 416 0
	srawi 0,9,1
.LVL1194:
	.loc 2 417 0
	add 30,0,10
.LVL1195:
	.loc 2 425 0
	li 8,0
.LVL1196:
	.loc 2 417 0
	slwi 11,30,2
	.loc 2 415 0
	bgt+ 7,.L913
.L937:
	add 30,10,8
	addi 4,30,-1
	.loc 2 428 0
	stw 30,36(29)
	b .L901
.LVL1197:
.L934:
.LBE5327:
.LBE5322:
.LBB5334:
	.loc 3 223 0
	lwz 11,16(4)
.LVL1198:
.LBB5321:
	.loc 2 1035 0
	lfs 13,0(11)
	fcmpu 7,1,13
	blt- 7,.L898
.LVL1199:
.LBB5319:
.LBB5320:
	.loc 5 573 0
	addi 0,9,-1
.LBE5320:
.LBE5319:
	.loc 2 1038 0
	slwi 0,0,2
	lfsx 13,11,0
	fcmpu 7,1,13
	cror 30,29,30
	beq+ 7,.L898
	.loc 2 1042 0
	fmr 13,1
	b .L898
.LVL1200:
.L933:
.LBE5321:
.LBE5334:
	.loc 3 223 0
	lwz 9,32(4)
.LVL1201:
.LBE5316:
	.loc 2 2224 0
	addi 11,31,80
.LBB5401:
.LBB5335:
.LBB5336:
	.loc 4 897 0
	lfs 11,0(9)
	lfs 12,4(9)
	lfs 13,8(9)
	fsubs 11,11,11
	lfs 0,12(9)
.LVL1202:
	fsubs 12,12,12
	fsubs 13,13,13
	fsubs 0,0,0
.LBB5337:
.LBB5338:
	.loc 4 867 0
	stfs 11,0(3)
	.loc 4 868 0
	stfs 12,4(3)
	.loc 4 869 0
	stfs 13,8(3)
	.loc 4 870 0
	stfs 0,12(3)
.LBE5338:
.LBE5337:
.LBE5336:
.LBE5335:
.LBE5401:
	.loc 2 2224 0
	mr 3,28
.LVL1203:
	lwz 0,4(11)
	lwz 27,-52(11)
.LVL1204:
	mtlr 0
	lwz 28,-48(11)
.LVL1205:
	lwz 29,-44(11)
.LVL1206:
	lwz 30,-40(11)
	lwz 31,-36(11)
	.cfi_remember_state
.LCFI76:
	.cfi_def_cfa 11, 0
	lfd 28,-32(11)
	lfd 29,-24(11)
	lfd 30,-16(11)
	lfd 31,-8(11)
	mr 1,11
.LCFI77:
	.cfi_def_cfa_register 1
	.cfi_restore 63
	.cfi_restore 62
	.cfi_restore 61
	.cfi_restore 60
	.cfi_restore 31
	.cfi_restore 30
	.cfi_restore 29
	.cfi_restore 28
	.cfi_restore 27
	blr
.LVL1207:
.L908:
.LCFI78:
	.cfi_restore_state
.LBB5402:
.LBB5339:
.LBB5328:
	.loc 2 417 0
	addi 4,30,-1
.LVL1208:
.L901:
.LBE5328:
.LBE5339:
	.loc 2 2217 0
	fmr 1,13
.LVL1209:
	mr 3,29
.LVL1210:
	mr 6,27
	bl _ZNK25idCurve_NonUniformBSplineI6idVec4E20BasisFirstDerivativeEiifPf
.LVL1211:
	.loc 2 2219 0
	lwz 10,52(29)
	.loc 3 223 0
	lwz 11,32(29)
.LVL1212:
	.loc 2 2219 0
	cmpwi 7,10,0
.LBB5340:
.LBB5341:
	.loc 4 897 0
	lfs 31,0(11)
	lfs 30,4(11)
	lfs 29,8(11)
	fsubs 10,31,31
	lfs 28,12(11)
	fsubs 11,30,30
	fsubs 12,29,29
	fsubs 13,28,28
.LVL1213:
.LBE5341:
.LBE5340:
	.loc 2 2219 0
	ble- 7,.L914
	lwz 6,20(29)
	.loc 2 2220 0
	srawi 9,10,1
.LBB5342:
.LBB5343:
.LBB5344:
.LBB5345:
	.loc 2 2205 0
	subf 30,9,30
	.loc 5 573 0
	addi 27,27,-4
.LVL1214:
.LBE5345:
.LBE5344:
.LBE5343:
.LBE5342:
	.loc 2 2219 0
	addi 0,6,-1
.LBB5392:
.LBB5382:
	.loc 2 989 0
	addi 8,6,-2
.LBB5348:
.LBB5349:
	.loc 5 573 0
	slwi 7,0,4
.LBE5349:
.LBE5348:
.LBB5351:
.LBB5346:
	slwi 8,8,4
.LBE5346:
.LBE5351:
.LBB5352:
.LBB5350:
	add 7,11,7
.LBE5350:
.LBE5352:
.LBB5353:
.LBB5347:
	add 8,11,8
	slwi 9,30,4
.LBE5347:
.LBE5353:
	.loc 2 2205 0
	subfic 12,6,1
	.loc 2 989 0
	lis 3,0x4330
	lis 4,.LC3@ha
	mtctr 10
	b .L920
.LVL1215:
.L941:
	.loc 2 2205 0
	add 10,12,30
	.loc 2 989 0
	xoris 5,10,0x8000
	.loc 2 985 0
	lwz 10,44(29)
	cmpwi 7,10,2
	beq- 7,.L939
	.loc 2 989 0
	stw 5,20(31)
	stw 3,16(31)
	lfs 9,.LC3@l(4)
	lfd 5,16(31)
.LBB5354:
.LBB5355:
	.loc 4 897 0
	lfs 1,0(7)
.LBE5355:
.LBE5354:
	.loc 2 989 0
	fsub 5,5,9
.LBB5358:
.LBB5356:
	.loc 4 897 0
	lfs 2,4(7)
	lfs 3,8(7)
	lfs 4,12(7)
	lfs 6,0(8)
.LBE5356:
.LBE5358:
	.loc 2 989 0
	frsp 5,5
.LVL1216:
.LBB5359:
.LBB5357:
	.loc 4 897 0
	lfs 7,4(8)
	lfs 8,8(8)
	fsubs 6,1,6
	lfs 9,12(8)
	fsubs 7,2,7
	fsubs 8,3,8
	fsubs 9,4,9
	.loc 4 918 0
	fmadds 6,5,6,1
	fmadds 7,5,7,2
	fmadds 8,5,8,3
	fmadds 9,5,9,4
.LVL1217:
.L917:
.LBE5357:
.LBE5359:
.LBB5360:
.LBB5361:
	.loc 4 922 0 discriminator 2
	fmadds 10,0,6,10
.LVL1218:
.LBE5361:
.LBE5360:
.LBE5382:
.LBE5392:
	.loc 2 2219 0 discriminator 2
	addi 30,30,1
.LVL1219:
.LBB5393:
.LBB5383:
.LBB5368:
.LBB5362:
	.loc 4 923 0 discriminator 2
	fmadds 11,0,7,11
.LVL1220:
.LBE5362:
.LBE5368:
.LBE5383:
.LBE5393:
	.loc 2 2219 0 discriminator 2
	addi 9,9,16
.LBB5394:
.LBB5384:
.LBB5369:
.LBB5363:
	.loc 4 924 0 discriminator 2
	fmadds 12,0,8,12
.LVL1221:
	.loc 4 925 0 discriminator 2
	fmadds 13,0,9,13
.LVL1222:
.LBE5363:
.LBE5369:
.LBE5384:
.LBE5394:
	.loc 2 2219 0 discriminator 2
	bdz .L914
.LVL1223:
.L920:
.LBB5395:
.LBB5385:
	.loc 2 976 0 discriminator 2
	cmpwi 7,30,0
	.loc 2 984 0 discriminator 2
	cmpw 6,30,0
.LBE5385:
.LBE5395:
	.loc 2 2221 0 discriminator 2
	lfsu 0,4(27)
.LVL1224:
.LBB5396:
.LBB5386:
	.loc 2 976 0 discriminator 2
	blt- 7,.L940
.LBB5370:
.LBB5364:
	.loc 5 573 0
	add 10,11,9
.LBE5364:
.LBE5370:
	.loc 2 984 0
	bgt- 6,.L941
.LVL1225:
.LBB5371:
.LBB5365:
	.loc 2 992 0
	lfsx 6,11,9
.LBE5365:
.LBE5371:
.LBE5386:
.LBE5396:
	.loc 2 2219 0
	addi 30,30,1
.LVL1226:
.LBB5397:
.LBB5387:
.LBB5372:
.LBB5366:
	.loc 2 992 0
	lfs 7,4(10)
.LBE5366:
.LBE5372:
.LBE5387:
.LBE5397:
	.loc 2 2219 0
	addi 9,9,16
.LBB5398:
.LBB5388:
.LBB5373:
.LBB5367:
	.loc 2 992 0
	lfs 8,8(10)
	.loc 4 922 0
	fmadds 10,0,6,10
.LVL1227:
	.loc 2 992 0
	lfs 9,12(10)
.LVL1228:
	.loc 4 923 0
	fmadds 11,0,7,11
.LVL1229:
	.loc 4 924 0
	fmadds 12,0,8,12
.LVL1230:
	.loc 4 925 0
	fmadds 13,0,9,13
.LVL1231:
.LBE5367:
.LBE5373:
.LBE5388:
.LBE5398:
	.loc 2 2219 0
	bdnz .L920
.LVL1232:
.L914:
	.loc 2 2223 0
	stfs 10,0(28)
.LBE5402:
	.loc 2 2224 0
	addi 11,31,80
.LBB5403:
	.loc 2 2223 0
	stfs 11,4(28)
.LBE5403:
	.loc 2 2224 0
	mr 3,28
.LBB5404:
	.loc 2 2223 0
	stfs 12,8(28)
	stfs 13,12(28)
.LBE5404:
	.loc 2 2224 0
	lwz 0,4(11)
	lwz 27,-52(11)
	mtlr 0
	lwz 28,-48(11)
.LVL1233:
	lwz 29,-44(11)
.LVL1234:
	lwz 30,-40(11)
	lwz 31,-36(11)
	.cfi_remember_state
.LCFI79:
	.cfi_def_cfa 11, 0
	lfd 28,-32(11)
	lfd 29,-24(11)
	lfd 30,-16(11)
	lfd 31,-8(11)
	mr 1,11
	.cfi_restore 27
	.cfi_restore 28
	.cfi_restore 29
	.cfi_restore 30
	.cfi_restore 31
	.cfi_restore 60
	.cfi_restore 61
	.cfi_restore 62
	.cfi_restore 63
.LCFI80:
	.cfi_def_cfa_register 1
	blr
.LVL1235:
.L940:
.LCFI81:
	.cfi_restore_state
.LBB5405:
.LBB5399:
.LBB5389:
	.loc 2 977 0
	lwz 10,44(29)
	.loc 2 981 0
	xoris 5,30,0x8000
	.loc 2 977 0
	cmpwi 7,10,2
	beq- 7,.L942
.LVL1236:
	.loc 2 981 0
	stw 5,12(31)
	stw 3,8(31)
	lfs 9,.LC3@l(4)
	lfd 5,8(31)
.LBB5374:
.LBB5375:
	.loc 4 897 0
	lfs 6,16(11)
.LBE5375:
.LBE5374:
	.loc 2 981 0
	fsub 5,5,9
.LBB5378:
.LBB5376:
	.loc 4 897 0
	lfs 7,20(11)
	lfs 8,24(11)
	fsubs 6,6,31
	lfs 9,28(11)
	fsubs 7,7,30
.LBE5376:
.LBE5378:
	.loc 2 981 0
	frsp 5,5
.LVL1237:
.LBB5379:
.LBB5377:
	.loc 4 897 0
	fsubs 8,8,29
	fsubs 9,9,28
.LBE5377:
.LBE5379:
	.loc 4 918 0
	fmadds 6,5,6,31
.LVL1238:
	fmadds 7,5,7,30
.LVL1239:
	fmadds 8,5,8,29
	fmadds 9,5,9,28
.LVL1240:
	b .L917
.LVL1241:
.L939:
	.loc 2 986 0
	divw 5,30,6
	mullw 5,5,6
	subf 5,5,30
.LVL1242:
.L932:
.LBB5380:
.LBB5381:
	.loc 5 573 0
	slwi 5,5,4
	add 10,11,5
	.loc 2 986 0
	lfsx 6,11,5
	lfs 7,4(10)
	lfs 8,8(10)
	lfs 9,12(10)
	b .L917
.L942:
.LVL1243:
.LBE5381:
.LBE5380:
.LBE5389:
.LBB5390:
.LBB5391:
	.loc 2 978 0
	divw 5,30,6
	mullw 5,5,6
	subf 5,5,30
	add 5,6,5
	b .L932
.LVL1244:
.L935:
.LBE5391:
.LBE5390:
.LBE5399:
.LBB5400:
.LBB5329:
	.loc 2 394 0
	lwz 11,16(29)
	li 4,-1
	lfs 0,0(11)
	fcmpu 7,13,0
	cror 30,28,30
	bne+ 7,.L899
	b .L901
.LVL1245:
.L921:
	.loc 2 403 0
	addi 0,30,1
	cmpw 7,9,0
	beq- 7,.L906
.LVL1246:
	slwi 10,0,2
	lfsx 0,11,10
	fcmpu 7,13,0
	cror 30,28,30
	bne- 7,.L899
.LVL1247:
.L906:
.LBE5329:
.LBB5330:
.LBB5331:
.LBB5332:
	.loc 2 405 0
	mr 4,30
.LVL1248:
	stw 0,36(29)
	.loc 2 403 0
	mr 30,0
.LVL1249:
	b .L901
.LVL1250:
.L936:
.LBE5332:
.LBE5331:
.LBE5330:
.LBB5333:
	.loc 2 398 0
	addi 4,9,-1
.LVL1251:
	lwz 11,16(29)
	slwi 0,4,2
	lfsx 0,11,0
	fcmpu 7,13,0
	bng+ 7,.L899
	b .L901
.LVL1252:
.L925:
	.loc 2 415 0
	li 30,0
	li 4,-1
	.loc 2 428 0
	stw 30,36(29)
	b .L901
.LBE5333:
.LBE5400:
.LBE5405:
	.cfi_endproc
.LFE2815:
	.size	_ZNK25idCurve_NonUniformBSplineI6idVec4E25GetCurrentFirstDerivativeEf, .-_ZNK25idCurve_NonUniformBSplineI6idVec4E25GetCurrentFirstDerivativeEf
	.section	.text._ZNK13idCurve_NURBSI6idVec4E26GetCurrentSecondDerivativeEf,"axG",@progbits,_ZNK13idCurve_NURBSI6idVec4E26GetCurrentSecondDerivativeEf,comdat
	.align 2
	.weak	_ZNK13idCurve_NURBSI6idVec4E26GetCurrentSecondDerivativeEf
	.type	_ZNK13idCurve_NURBSI6idVec4E26GetCurrentSecondDerivativeEf, @function
_ZNK13idCurve_NURBSI6idVec4E26GetCurrentSecondDerivativeEf:
.LFB2806:
	.loc 2 2478 0
	.cfi_startproc
.LVL1253:
	mflr 0
	stwu 1,-432(1)
.LCFI82:
	.cfi_def_cfa_offset 432
	.cfi_register 65, 0
	stw 24,264(1)
	mr 24,3
	.cfi_offset 24, -168
	stw 0,436(1)
	stfd 15,296(1)
	stfd 16,304(1)
	stfd 17,312(1)
	stfd 18,320(1)
	stfd 19,328(1)
	stfd 20,336(1)
	stfd 21,344(1)
	stfd 22,352(1)
	stfd 23,360(1)
	stfd 24,368(1)
	stfd 25,376(1)
	stfd 26,384(1)
	stfd 27,392(1)
	stfd 28,400(1)
	stfd 29,408(1)
	stfd 30,416(1)
	stfd 31,424(1)
	stw 14,224(1)
	stw 15,228(1)
	stw 16,232(1)
	stw 17,236(1)
	stw 18,240(1)
	stw 19,244(1)
	stw 20,248(1)
	stw 21,252(1)
	stw 22,256(1)
	stw 23,260(1)
	stw 25,268(1)
	stw 26,272(1)
	stw 27,276(1)
	stw 28,280(1)
	stw 30,288(1)
	mr 30,4
	.cfi_offset 30, -144
	.cfi_offset 28, -152
	.cfi_offset 27, -156
	.cfi_offset 26, -160
	.cfi_offset 25, -164
	.cfi_offset 23, -172
	.cfi_offset 22, -176
	.cfi_offset 21, -180
	.cfi_offset 20, -184
	.cfi_offset 19, -188
	.cfi_offset 18, -192
	.cfi_offset 17, -196
	.cfi_offset 16, -200
	.cfi_offset 15, -204
	.cfi_offset 14, -208
	.cfi_offset 63, -8
	.cfi_offset 62, -16
	.cfi_offset 61, -24
	.cfi_offset 60, -32
	.cfi_offset 59, -40
	.cfi_offset 58, -48
	.cfi_offset 57, -56
	.cfi_offset 56, -64
	.cfi_offset 55, -72
	.cfi_offset 54, -80
	.cfi_offset 53, -88
	.cfi_offset 52, -96
	.cfi_offset 51, -104
	.cfi_offset 50, -112
	.cfi_offset 49, -120
	.cfi_offset 48, -128
	.cfi_offset 47, -136
	.cfi_offset 65, 4
	stw 31,292(1)
	mr 31,1
	.cfi_offset 31, -140
.LCFI83:
	.cfi_def_cfa_register 31
	stw 29,284(1)
.LBB5799:
	.loc 2 2483 0
	lwz 9,4(4)
	cmpwi 7,9,1
	beq- 7,.L1033
	.cfi_offset 29, -148
	.loc 2 2487 0
	lwz 18,52(4)
	lwz 11,0(1)
	slwi 10,18,2
	addi 0,10,45
	rlwinm 0,0,0,0,27
	neg 0,0
	stwux 11,1,0
	.loc 2 2488 0
	lwz 10,0(1)
	.loc 2 2487 0
	addi 25,1,23
.LBB5800:
.LBB5801:
	.loc 2 1034 0
	lwz 11,44(4)
.LBE5801:
.LBE5800:
	.loc 2 2487 0
	rlwinm 25,25,0,0,27
.LVL1254:
	.loc 2 2488 0
	stwux 10,1,0
.LBB5807:
.LBB5804:
	.loc 2 1034 0
	cmpwi 7,11,1
.LBE5804:
.LBE5807:
	.loc 2 2488 0
	addi 23,1,23
	.loc 2 2489 0
	stwux 10,1,0
	.loc 2 2488 0
	rlwinm 23,23,0,0,27
.LVL1255:
	.loc 2 2489 0
	addi 26,1,23
	rlwinm 26,26,0,0,27
.LVL1256:
.LBB5808:
.LBB5805:
	.loc 2 1034 0
	beq- 7,.L946
.LVL1257:
	.loc 2 1042 0
	fmr 31,1
	.loc 2 1034 0
	mr 11,9
.LVL1258:
.L947:
.LBE5805:
.LBE5808:
.LBB5809:
.LBB5810:
	.loc 2 391 0
	lwz 28,36(30)
	cmpwi 7,28,0
	blt- 7,.L950
	cmpw 6,28,9
	bgt- 6,.L950
	.loc 2 393 0
	beq- 7,.L1034
	.loc 2 397 0
	beq- 6,.L1035
	.loc 2 401 0
	addi 27,28,-1
.LBE5810:
	.loc 3 223 0
	lwz 10,16(30)
.LVL1259:
.LBB5813:
	.loc 2 401 0
	slwi 0,27,2
	lfsx 0,10,0
.LBB5811:
.LBB5812:
	.loc 5 573 0
	slwi 0,28,2
.LBE5812:
.LBE5811:
	.loc 2 401 0
	fcmpu 7,31,0
	bng- 7,.L957
.LVL1260:
	lfsx 0,10,0
	addi 8,28,-3
	stw 8,220(31)
	fcmpu 7,31,0
	stw 27,216(31)
	cror 30,28,30
	beq- 7,.L952
.LVL1261:
.L957:
	.loc 2 403 0
	lfsx 0,10,0
	fcmpu 7,31,0
	bgt- 7,.L1010
.LVL1262:
.L950:
	.loc 2 415 0
	cmpwi 7,9,0
	ble- 7,.L1014
	.loc 2 416 0
	srawi 28,9,1
.LVL1263:
.LBE5813:
	.loc 3 223 0
	lwz 7,16(30)
.LVL1264:
.LBB5814:
	.loc 2 417 0
	slwi 0,28,2
	li 10,0
	lfsx 0,7,0
	mr 0,28
	fcmpu 7,31,0
	bne+ 7,.L963
	b .L962
.LVL1265:
.L1037:
	.loc 2 415 0
	cmpwi 7,0,0
	.loc 2 421 0
	mr 10,28
.LVL1266:
	.loc 2 416 0
	srawi 0,11,1
.LVL1267:
	.loc 2 417 0
	add 28,0,10
.LVL1268:
	slwi 9,28,2
	.loc 2 415 0
	ble- 7,.L1036
.L967:
.LVL1269:
	.loc 2 417 0
	lfsx 0,7,9
	fcmpu 7,31,0
	beq- 7,.L962
.LVL1270:
.L963:
	.loc 2 419 0
	fcmpu 7,31,0
	.loc 2 421 0
	subf 11,0,11
.LVL1271:
	.loc 2 422 0
	li 8,1
	.loc 2 419 0
	bgt- 7,.L1037
.LVL1272:
	.loc 2 415 0
	cmpwi 7,0,0
	.loc 2 416 0
	srawi 0,11,1
.LVL1273:
	.loc 2 417 0
	add 28,0,10
.LVL1274:
	.loc 2 425 0
	li 8,0
.LVL1275:
	.loc 2 417 0
	slwi 9,28,2
	.loc 2 415 0
	bgt+ 7,.L967
.L1036:
	add 28,8,10
	addi 11,28,-3
.LVL1276:
	addi 27,28,-1
	stw 11,220(31)
.LVL1277:
.L961:
	.loc 2 428 0
	stw 28,36(30)
	stw 27,216(31)
	b .L952
.LVL1278:
.L946:
.LBE5814:
.LBE5809:
.LBB5828:
	.loc 3 223 0
	lwz 10,16(4)
.LVL1279:
.LBB5806:
	.loc 2 1035 0
	mr 11,9
	lfs 31,0(10)
	fcmpu 7,1,31
	blt- 7,.L947
.LBB5802:
.LBB5803:
	.loc 5 573 0
	addi 0,9,-1
.LBE5803:
.LBE5802:
	.loc 2 1038 0
	slwi 0,0,2
	lfsx 31,10,0
	fcmpu 7,1,31
	cror 30,29,30
	beq+ 7,.L947
	.loc 2 1042 0
	fmr 31,1
	b .L947
.LVL1280:
.L1033:
.LBE5806:
.LBE5828:
	.loc 2 2484 0
	lwz 9,32(4)
	lwz 8,0(9)
	lwz 10,4(9)
	lwz 11,8(9)
	lwz 0,12(9)
	stw 8,0(3)
	stw 10,4(3)
	stw 11,8(3)
	stw 0,12(3)
.LVL1281:
.L943:
.LBE5799:
	.loc 2 2513 0
	addi 11,31,432
	mr 3,24
	lwz 0,4(11)
	lwz 14,-208(11)
	mtlr 0
	lwz 15,-204(11)
	lwz 16,-200(11)
	lwz 17,-196(11)
	lwz 18,-192(11)
	lwz 19,-188(11)
	lwz 20,-184(11)
	lwz 21,-180(11)
	lwz 22,-176(11)
	lwz 23,-172(11)
	lwz 24,-168(11)
.LVL1282:
	lwz 25,-164(11)
	lwz 26,-160(11)
	lwz 27,-156(11)
	lwz 28,-152(11)
	lwz 29,-148(11)
	lwz 30,-144(11)
.LVL1283:
	lwz 31,-140(11)
	.cfi_remember_state
.LCFI84:
	.cfi_def_cfa 11, 0
	lfd 15,-136(11)
	lfd 16,-128(11)
	lfd 17,-120(11)
	lfd 18,-112(11)
	lfd 19,-104(11)
	lfd 20,-96(11)
	lfd 21,-88(11)
	lfd 22,-80(11)
	lfd 23,-72(11)
	lfd 24,-64(11)
	lfd 25,-56(11)
	lfd 26,-48(11)
	lfd 27,-40(11)
	lfd 28,-32(11)
	lfd 29,-24(11)
	lfd 30,-16(11)
	lfd 31,-8(11)
	mr 1,11
.LCFI85:
	.cfi_def_cfa_register 1
	.cfi_restore 63
	.cfi_restore 62
	.cfi_restore 61
	.cfi_restore 60
	.cfi_restore 59
	.cfi_restore 58
	.cfi_restore 57
	.cfi_restore 56
	.cfi_restore 55
	.cfi_restore 54
	.cfi_restore 53
	.cfi_restore 52
	.cfi_restore 51
	.cfi_restore 50
	.cfi_restore 49
	.cfi_restore 48
	.cfi_restore 47
	.cfi_restore 31
	.cfi_restore 30
	.cfi_restore 29
	.cfi_restore 28
	.cfi_restore 27
	.cfi_restore 26
	.cfi_restore 25
	.cfi_restore 24
	.cfi_restore 23
	.cfi_restore 22
	.cfi_restore 21
	.cfi_restore 20
	.cfi_restore 19
	.cfi_restore 18
	.cfi_restore 17
	.cfi_restore 16
	.cfi_restore 15
	.cfi_restore 14
	blr
.LVL1284:
.L962:
.LCFI86:
	.cfi_restore_state
.LBB6138:
.LBB5829:
.LBB5815:
	.loc 2 417 0
	addi 27,28,-1
	addi 9,28,-3
	stw 9,220(31)
.LBE5815:
.LBB5816:
.LBB5817:
.LBB5818:
	.loc 2 403 0
	stw 27,216(31)
.LVL1285:
.L952:
.LBE5818:
.LBE5817:
.LBE5816:
.LBE5829:
.LBB5830:
.LBB5831:
	.loc 2 2268 0
	cmpwi 7,18,1
	.loc 2 2267 0
	lis 11,.LC1@ha
	addi 9,18,-1
	lwz 0,.LC1@l(11)
	slwi 9,9,2
	lis 29,.LC3@ha
	stwx 0,25,9
.LVL1286:
	.loc 2 2268 0
	ble- 7,.L968
	.loc 2 2478 0
	addi 22,18,-2
	slwi 20,27,2
	slwi 19,22,2
.LBE5831:
.LBE5830:
.LBB5895:
.LBB5821:
	mr 8,27
.LBE5821:
.LBE5895:
.LBB5896:
.LBB5891:
	addi 19,19,4
.LBE5891:
.LBE5896:
.LBB5897:
.LBB5822:
	.loc 2 2268 0
	li 3,2
.LVL1287:
.LBE5822:
.LBE5897:
.LBB5898:
.LBB5892:
	.loc 2 2478 0
	add 19,19,25
	.loc 2 2270 0
	li 16,0
	mr 15,11
.LBB5832:
.LBB5833:
	.loc 2 1019 0
	lis 4,0x4330
.LVL1288:
.L986:
.LBE5833:
.LBE5832:
	.loc 2 2478 0
	addi 0,22,1
	.loc 2 2270 0
	stwu 16,-4(19)
.LVL1289:
	.loc 2 2271 0
	cmpw 7,18,0
	addi 21,8,-1
	ble- 7,.L969
	.loc 2 2478 0
	add 8,8,3
	.loc 2 2274 0
	subf 11,21,27
	.loc 2 2478 0
	addi 8,8,-1
	.loc 2 2274 0
	lfs 10,.LC1@l(15)
	mtctr 11
	.loc 2 2478 0
	mr 0,21
	slwi 5,8,2
.LBE5892:
.LBE5898:
.LBB5899:
.LBB5823:
	mr 6,20
	mr 10,19
.LVL1290:
.L985:
.LBE5823:
.LBE5899:
.LBB5900:
.LBB5893:
.LBB5850:
.LBB5838:
	.loc 2 1006 0
	addic. 0,0,1
.LVL1291:
.LBE5838:
	.loc 3 223 0
	lwz 7,4(30)
.LBB5839:
	.loc 2 1004 0
	addi 11,7,-1
.LVL1292:
	.loc 2 1006 0
	blt- 0,.L1038
	.loc 2 1014 0
	cmpw 7,0,11
	ble- 7,.L973
	.loc 2 1015 0
	lwz 9,44(30)
	cmpwi 7,9,2
	beq- 7,.L1039
.LBE5839:
	.loc 3 223 0
	lwz 9,16(30)
.LVL1293:
.LBB5840:
	.loc 2 1019 0
	subf 17,11,0
	xoris 17,17,0x8000
	slwi 14,11,2
	lfsx 0,9,14
.LVL1294:
	stw 17,36(31)
.LBB5834:
.LBB5835:
	.loc 5 573 0
	addi 17,7,-2
.LBE5835:
.LBE5834:
	.loc 2 1019 0
	stw 4,32(31)
	slwi 17,17,2
	lfs 13,.LC3@l(29)
	lfd 11,32(31)
	fsub 11,11,13
	lfsx 13,9,17
	fsubs 13,0,13
	frsp 11,11
	fmadds 11,11,13,0
.LVL1295:
.L972:
.LBE5840:
.LBE5850:
.LBB5851:
.LBB5852:
	.loc 2 1006 0
	cmpwi 7,8,0
.LBE5852:
.LBE5851:
	.loc 2 2273 0
	fsubs 11,31,11
.LVL1296:
.LBB5865:
.LBB5857:
	.loc 2 1006 0
	blt- 7,.L1040
.LVL1297:
.L975:
	.loc 2 1014 0
	cmpw 7,8,11
	ble- 7,.L978
	.loc 2 1015 0
	lwz 17,44(30)
	cmpwi 7,17,2
	beq- 7,.L1041
.LVL1298:
	.loc 2 1019 0
	subf 17,11,8
	slwi 14,11,2
	xoris 17,17,0x8000
	lfsx 0,9,14
.LVL1299:
	stw 17,68(31)
.LBB5853:
.LBB5854:
	.loc 5 573 0
	addi 17,7,-2
.LBE5854:
.LBE5853:
	.loc 2 1019 0
	stw 4,64(31)
	slwi 17,17,2
	lfs 13,.LC3@l(29)
	lfd 12,64(31)
	fsub 12,12,13
	lfsx 13,9,17
	fsubs 13,0,13
	frsp 12,12
	fmadds 13,12,13,0
.LVL1300:
.L977:
.LBE5857:
.LBE5865:
.LBB5866:
.LBB5867:
	.loc 2 1006 0
	blt- 0,.L1042
.LVL1301:
.L980:
	.loc 2 1014 0
	cmpw 7,0,11
	ble- 7,.L983
	.loc 2 1015 0
	lwz 17,44(30)
	cmpwi 7,17,2
	beq- 7,.L1043
.LVL1302:
	.loc 2 1019 0
	subf 17,11,0
	slwi 11,11,2
.LVL1303:
	xoris 17,17,0x8000
	lfsx 12,9,11
.LVL1304:
	stw 17,100(31)
.LBB5868:
.LBB5869:
	.loc 5 573 0
	addi 7,7,-2
.LBE5869:
.LBE5868:
	.loc 2 1019 0
	stw 4,96(31)
	slwi 7,7,2
	lfs 0,.LC3@l(29)
	lfd 9,96(31)
	fsub 9,9,0
	lfsx 0,9,7
	fsubs 0,12,0
	frsp 9,9
	fmadds 0,9,0,12
.LVL1305:
.L982:
.LBE5867:
.LBE5866:
	.loc 2 2273 0
	fsubs 13,13,0
	.loc 2 2274 0
	lfs 12,0(10)
	lfs 0,4(10)
	.loc 2 2275 0
	addi 6,6,4
	addi 8,8,1
.LVL1306:
	addi 5,5,4
	.loc 2 2273 0
	fdivs 13,11,13
.LVL1307:
	.loc 2 2274 0
	fsubs 11,10,13
	.loc 2 2275 0
	fmuls 13,0,13
.LVL1308:
	.loc 2 2274 0
	fmadds 0,11,0,12
	stfs 0,0(10)
	.loc 2 2275 0
	stfsu 13,4(10)
	.loc 2 2271 0
	bdnz .L985
.LVL1309:
.L969:
	.loc 2 2268 0
	addi 3,3,1
.LVL1310:
	mr 8,21
	cmpw 7,18,3
	addi 20,20,-4
	addi 22,22,-1
	bge+ 7,.L986
.LVL1311:
.L968:
.LBE5893:
.LBE5900:
	.loc 2 2494 0
	fmr 1,31
.LVL1312:
	lwz 5,52(30)
	mr 3,30
	mr 4,27
	mr 6,23
.LBB5901:
.LBB5902:
	.loc 2 2313 0
	li 20,0
.LBE5902:
.LBE5901:
	.loc 2 2494 0
	bl _ZNK25idCurve_NonUniformBSplineI6idVec4E20BasisFirstDerivativeEiifPf
	.loc 2 2495 0
	lwz 21,52(30)
.LVL1313:
.LBB5975:
.LBB5961:
	.loc 2 2311 0
	fmr 1,31
	mr 3,30
	addi 22,21,-1
	mr 4,27
	mr 5,22
	addi 6,26,4
	bl _ZNK25idCurve_NonUniformBSplineI6idVec4E20BasisFirstDerivativeEiifPf
.LVL1314:
	.loc 2 2313 0
	cmpwi 7,22,0
	.loc 2 2312 0
	li 0,0
	stw 0,0(26)
.LVL1315:
	.loc 2 2313 0
	ble- 7,.L987
	xoris 0,22,0x8000
	lfs 0,.LC3@l(29)
	stw 0,108(31)
	lis 0,0x4330
	stw 0,104(31)
	.loc 2 2478 0
	add 8,22,27
	addi 9,8,-2
	addi 27,27,-2
.LVL1316:
	.loc 2 2313 0
	lfd 11,104(31)
	.loc 2 2478 0
	slwi 7,27,2
	stw 9,220(31)
.LBB5903:
.LBB5904:
	.loc 2 1022 0
	slwi 21,21,2
.LVL1317:
.LBE5904:
.LBE5903:
	.loc 2 2313 0
	fsub 11,11,0
	.loc 2 2478 0
	stw 8,216(31)
	.loc 2 2313 0
	mr 9,26
	.loc 2 2478 0
	lwz 11,220(31)
.LBB5924:
.LBB5909:
	.loc 2 1019 0
	lis 6,0x4330
	mtctr 22
.LBE5909:
.LBE5924:
	.loc 2 2313 0
	frsp 11,11
	b .L998
.LVL1318:
.L1049:
.LBB5925:
.LBB5910:
	.loc 2 1015 0
	lwz 10,44(30)
	cmpwi 7,10,2
	beq- 7,.L1044
.LBE5910:
	.loc 3 223 0
	lwz 10,16(30)
.LVL1319:
.LBB5911:
	.loc 2 1019 0
	subf 5,0,11
	xoris 5,5,0x8000
	slwi 4,0,2
	lfsx 10,10,4
.LVL1320:
	stw 5,140(31)
.LBB5905:
.LBB5906:
	.loc 5 573 0
	addi 5,8,-2
.LBE5906:
.LBE5905:
	.loc 2 1019 0
	stw 6,136(31)
	slwi 5,5,2
	lfs 13,.LC3@l(29)
	lfd 12,136(31)
	fsub 12,12,13
	lfsx 13,10,5
	fsubs 13,10,13
	frsp 12,12
	fmadds 12,12,13,10
.LVL1321:
.L990:
.LBE5911:
.LBE5925:
.LBB5926:
.LBB5927:
	.loc 2 1006 0
	cmpwi 7,27,0
	blt- 7,.L1045
.LVL1322:
.L993:
	.loc 2 1014 0
	cmpw 7,27,0
	ble- 7,.L996
	.loc 2 1015 0
	lwz 5,44(30)
	cmpwi 7,5,2
	beq- 7,.L1046
.LVL1323:
	.loc 2 1019 0
	subf 5,0,27
	slwi 0,0,2
.LVL1324:
	xoris 5,5,0x8000
	lfsx 10,10,0
.LVL1325:
	stw 5,172(31)
.LBB5928:
.LBB5929:
	.loc 5 573 0
	addi 8,8,-2
.LVL1326:
.LBE5929:
.LBE5928:
	.loc 2 1019 0
	stw 6,168(31)
	slwi 8,8,2
	lfs 13,.LC3@l(29)
	lfd 9,168(31)
	fsub 9,9,13
	lfsx 13,10,8
	fsubs 13,10,13
	frsp 9,9
	fmadds 13,9,13,10
.LVL1327:
.L995:
.LBE5927:
.LBE5926:
	.loc 2 2315 0
	fsubs 13,12,13
	.loc 2 2313 0
	addi 11,11,1
.LVL1328:
	addi 27,27,1
.LVL1329:
	addi 7,7,4
	.loc 2 2315 0
	fdivs 13,11,13
	fmuls 0,0,13
	stfs 0,-4(9)
	.loc 2 2313 0
	bdz .L1047
.LVL1330:
.L998:
	.loc 2 2314 0
	lfs 13,0(9)
.LBB5945:
.LBB5912:
	.loc 2 1006 0
	cmpwi 7,11,0
.LBE5912:
.LBE5945:
	.loc 2 2314 0
	lfsu 0,4(9)
.LBB5946:
	.loc 3 223 0
	lwz 8,4(30)
.LBE5946:
	.loc 2 2314 0
	fsubs 0,13,0
.LBB5947:
.LBB5913:
	.loc 2 1004 0
	addi 0,8,-1
.LBE5913:
.LBE5947:
	.loc 2 2314 0
	stfs 0,-4(9)
.LVL1331:
.LBB5948:
.LBB5914:
	.loc 2 1006 0
	blt- 7,.L1048
	.loc 2 1014 0
	cmpw 7,11,0
	bgt- 7,.L1049
.LBE5914:
	.loc 3 223 0
	lwz 10,16(30)
.LVL1332:
.LBE5948:
.LBB5949:
.LBB5932:
	.loc 2 1006 0
	cmpwi 7,27,0
.LBE5932:
.LBE5949:
.LBB5950:
.LBB5915:
	.loc 2 1022 0
	add 5,10,21
	add 5,5,7
	lfs 12,-4(5)
.LVL1333:
.LBE5915:
.LBE5950:
.LBB5951:
.LBB5933:
	.loc 2 1006 0
	bge+ 7,.L993
.LVL1334:
.L1045:
	.loc 2 1007 0
	lwz 5,44(30)
	cmpwi 7,5,2
	beq- 7,.L1050
.LVL1335:
.LBE5933:
.LBB5934:
.LBB5935:
	.loc 2 1011 0
	xoris 0,27,0x8000
.LVL1336:
	lfs 10,0(10)
.LVL1337:
	stw 0,156(31)
.LBE5935:
.LBE5934:
.LBE5951:
	.loc 2 2313 0
	addi 11,11,1
.LVL1338:
.LBB5952:
.LBB5939:
.LBB5936:
	.loc 2 1011 0
	stw 6,152(31)
.LBE5936:
.LBE5939:
.LBE5952:
	.loc 2 2313 0
	addi 27,27,1
.LVL1339:
.LBB5953:
.LBB5940:
.LBB5937:
	.loc 2 1011 0
	lfs 13,.LC3@l(29)
.LBE5937:
.LBE5940:
.LBE5953:
	.loc 2 2313 0
	addi 7,7,4
.LBB5954:
.LBB5941:
.LBB5938:
	.loc 2 1011 0
	lfd 8,152(31)
	lfs 9,4(10)
	fsub 13,8,13
	fsubs 9,9,10
	frsp 13,13
	fmadds 13,13,9,10
.LBE5938:
.LBE5941:
.LBE5954:
	.loc 2 2315 0
	fsubs 13,12,13
	fdivs 13,11,13
	fmuls 0,0,13
	stfs 0,-4(9)
	.loc 2 2313 0
	bdnz .L998
.LVL1340:
.L1047:
	slwi 20,22,2
.LVL1341:
.L987:
	.loc 2 2317 0
	lwz 11,216(31)
	mr 3,30
	add 4,22,11
	xoris 22,22,0x8000
.LVL1342:
	addi 4,4,-2
	bl _ZNK14idCurve_SplineI6idVec4E12TimeForIndexEi
	lwz 4,220(31)
	mr 3,30
	fmr 31,1
.LVL1343:
	bl _ZNK14idCurve_SplineI6idVec4E12TimeForIndexEi
	lis 0,0x4330
	stw 22,180(31)
	stw 0,176(31)
	fsubs 1,31,1
	lfs 0,.LC3@l(29)
	lfd 13,176(31)
.LBE5961:
.LBE5975:
	.loc 2 2498 0
	lwz 7,52(30)
.LBB5976:
.LBB5962:
	.loc 2 2317 0
	fsub 0,13,0
	lfsx 13,26,20
	.loc 3 223 0
	lwz 10,32(30)
.LVL1344:
.LBE5962:
.LBE5976:
	.loc 2 2498 0
	cmpwi 7,7,0
.LBB5977:
.LBB5963:
	.loc 2 2317 0
	frsp 0,0
	fdivs 0,0,1
	fmuls 0,13,0
	stfsx 0,26,20
.LBE5963:
.LBE5977:
.LBB5978:
.LBB5979:
	.loc 4 897 0
	lfs 23,0(10)
	lfs 22,4(10)
	lfs 21,8(10)
	fsubs 2,23,23
	lfs 20,12(10)
	fsubs 3,22,22
	fsubs 4,21,21
	fsubs 5,20,20
.LVL1345:
.LBE5979:
.LBE5978:
	.loc 2 2498 0
	ble- 7,.L1016
	lwz 22,20(30)
.LVL1346:
.LBB5980:
.LBB5964:
	.loc 2 2497 0
	lis 8,.LC0@ha
.LBE5964:
.LBE5980:
	.loc 2 2498 0
	lwz 27,56(30)
	.loc 2 2499 0
	srawi 0,7,1
.LBB5981:
.LBB5965:
	.loc 2 2497 0
	lfs 28,.LC0@l(8)
.LBE5965:
.LBE5981:
	.loc 2 2498 0
	addi 3,22,-1
.LBB5982:
.LBB5983:
	.loc 2 989 0
	addi 6,22,-2
.LBB5984:
.LBB5985:
	.loc 2 2478 0
	subf 28,0,28
.LBE5985:
.LBE5984:
.LBE5983:
.LBE5982:
	.loc 2 2498 0
	addi 4,27,-1
.LBB6044:
.LBB6045:
	.loc 2 2536 0
	addi 18,27,-2
.LVL1347:
.LBE6045:
.LBE6044:
.LBB6063:
.LBB6024:
.LBB5988:
.LBB5989:
	.loc 5 573 0
	slwi 5,3,4
.LBE5989:
.LBE5988:
.LBB5991:
.LBB5986:
	slwi 6,6,4
	lwz 8,68(30)
.LBE5986:
.LBE5991:
.LBE6024:
.LBE6063:
.LBB6064:
.LBB6050:
.LBB6046:
.LBB6047:
	slwi 17,4,2
.LBE6047:
.LBE6046:
.LBB6048:
.LBB6049:
	slwi 18,18,2
.LBE6049:
.LBE6048:
.LBE6050:
.LBE6064:
.LBB6065:
.LBB6025:
.LBB5992:
.LBB5990:
	add 5,10,5
.LBE5990:
.LBE5992:
.LBB5993:
.LBB5987:
	add 6,10,6
	slwi 11,28,4
.LBE5987:
.LBE5993:
.LBE6025:
.LBE6065:
.LBB6066:
.LBB5966:
	.loc 2 2496 0
	fmr 24,2
	.loc 2 2478 0
	li 9,0
	.loc 2 2496 0
	fmr 25,3
.LBE5966:
.LBE6066:
.LBB6067:
.LBB6026:
	.loc 2 2478 0
	subfic 19,22,1
.LBE6026:
.LBE6067:
.LBB6068:
.LBB5967:
	.loc 2 2496 0
	fmr 26,4
.LBE5967:
.LBE6068:
.LBB6069:
.LBB6027:
	.loc 2 989 0
	lis 0,0x4330
.LBE6027:
.LBE6069:
.LBB6070:
.LBB5968:
	.loc 2 2496 0
	fmr 27,5
.LBE5968:
.LBE6070:
.LBB6071:
.LBB6051:
	.loc 2 2539 0
	slwi 21,28,2
.LBE6051:
.LBE6071:
.LBB6072:
.LBB5969:
	.loc 2 2496 0
	fmr 29,2
.LBE5969:
.LBE6072:
.LBB6073:
.LBB6052:
	.loc 2 2478 0
	subfic 20,27,1
.LBE6052:
.LBE6073:
.LBB6074:
.LBB5970:
	.loc 2 2496 0
	fmr 30,3
.LBE5970:
.LBE6074:
.LBB6075:
.LBB6053:
	.loc 2 2478 0
	mtctr 7
.LBE6053:
.LBE6075:
.LBB6076:
.LBB5971:
	.loc 2 2496 0
	fmr 31,4
	fmr 1,5
	.loc 2 2497 0
	fmr 6,28
	fmr 7,28
	b .L1009
.LVL1348:
.L1056:
.LBE5971:
.LBE6076:
.LBB6077:
.LBB6054:
	.loc 2 2533 0
	lwz 7,44(30)
	cmpwi 7,7,2
	beq- 7,.L1051
	.loc 2 2478 0
	add 7,20,28
	.loc 2 2536 0
	lfsx 0,8,17
	xoris 7,7,0x8000
	stw 0,192(31)
	stw 7,196(31)
	lfs 13,.LC3@l(29)
	lfd 11,192(31)
	lfsx 12,8,18
	fsub 13,11,13
	fsubs 12,0,12
	frsp 13,13
	fmadds 13,13,12,0
.L1005:
.LBE6054:
.LBE6077:
	.loc 2 2501 0
	lfsx 12,9,25
.LBB6078:
.LBB6028:
	.loc 2 984 0
	cmpw 7,28,3
.LBE6028:
.LBE6078:
	.loc 2 2502 0
	lfsx 0,9,23
	.loc 2 2503 0
	lfsx 11,9,26
	.loc 2 2501 0
	fmuls 12,13,12
.LVL1349:
	.loc 2 2502 0
	fmuls 0,13,0
.LVL1350:
	.loc 2 2503 0
	fmuls 13,13,11
.LVL1351:
	.loc 2 2504 0
	fadds 7,7,12
.LVL1352:
	.loc 2 2505 0
	fadds 6,6,0
.LVL1353:
	.loc 2 2506 0
	fadds 28,28,13
.LVL1354:
.LBB6079:
.LBB6029:
	.loc 2 984 0
	ble- 7,.L1052
.LVL1355:
.L1011:
	.loc 2 985 0
	lwz 7,44(30)
	cmpwi 7,7,2
	beq- 7,.L1053
	.loc 2 2478 0
	add 7,19,28
	.loc 2 989 0
	stw 0,208(31)
	xoris 7,7,0x8000
	lfs 11,.LC3@l(29)
	stw 7,212(31)
	lfd 10,208(31)
.LBB5994:
.LBB5995:
	.loc 4 897 0
	lfs 8,0(5)
.LBE5995:
.LBE5994:
	.loc 2 989 0
	fsub 11,10,11
.LBB5998:
.LBB5996:
	.loc 4 897 0
	lfs 9,4(5)
	lfs 10,8(5)
	lfs 19,12(5)
	lfs 15,0(6)
.LBE5996:
.LBE5998:
	.loc 2 989 0
	frsp 11,11
.LVL1356:
.LBB5999:
.LBB5997:
	.loc 4 897 0
	lfs 16,4(6)
	lfs 17,8(6)
	fsubs 15,8,15
	lfs 18,12(6)
	fsubs 16,9,16
	fsubs 17,10,17
	fsubs 18,19,18
	.loc 4 918 0
	fmadds 8,11,15,8
	fmadds 9,11,16,9
	fmadds 10,11,17,10
	fmadds 11,11,18,19
.LVL1357:
.L1007:
.LBE5997:
.LBE5999:
.LBB6000:
.LBB6001:
	.loc 4 922 0 discriminator 2
	fmadds 29,12,8,29
.LVL1358:
.LBE6001:
.LBE6000:
.LBE6029:
.LBE6079:
	.loc 2 2498 0 discriminator 2
	addi 28,28,1
.LVL1359:
.LBB6080:
.LBB6030:
.LBB6009:
.LBB6002:
	.loc 4 923 0 discriminator 2
	fmadds 30,12,9,30
.LVL1360:
.LBE6002:
.LBE6009:
.LBE6030:
.LBE6080:
	.loc 2 2498 0 discriminator 2
	addi 11,11,16
.LBB6081:
.LBB6031:
.LBB6010:
.LBB6003:
	.loc 4 924 0 discriminator 2
	fmadds 31,12,10,31
.LVL1361:
.LBE6003:
.LBE6010:
.LBE6031:
.LBE6081:
	.loc 2 2498 0 discriminator 2
	addi 9,9,4
.LBB6082:
.LBB6032:
.LBB6011:
.LBB6004:
	.loc 4 925 0 discriminator 2
	fmadds 1,12,11,1
.LVL1362:
	.loc 4 922 0 discriminator 2
	fmadds 24,0,8,24
.LVL1363:
	.loc 4 923 0 discriminator 2
	fmadds 25,0,9,25
.LVL1364:
	.loc 4 924 0 discriminator 2
	fmadds 26,0,10,26
.LVL1365:
	.loc 4 925 0 discriminator 2
	fmadds 27,0,11,27
.LVL1366:
	.loc 4 922 0 discriminator 2
	fmadds 2,13,8,2
.LVL1367:
	.loc 4 923 0 discriminator 2
	fmadds 3,13,9,3
.LVL1368:
	.loc 4 924 0 discriminator 2
	fmadds 4,13,10,4
.LVL1369:
	.loc 4 925 0 discriminator 2
	fmadds 5,13,11,5
.LVL1370:
.LBE6004:
.LBE6011:
.LBE6032:
.LBE6082:
	.loc 2 2498 0 discriminator 2
	bdz .L1054
.LVL1371:
.L1009:
.LBB6083:
.LBB6055:
	.loc 2 2526 0 discriminator 2
	cmpwi 7,28,0
	blt- 7,.L1055
	.loc 2 2532 0
	cmpw 7,28,4
	bgt- 7,.L1056
.LVL1372:
	.loc 2 2539 0
	add 7,21,9
.LBE6055:
.LBE6083:
	.loc 2 2501 0
	lfsx 12,9,25
.LBB6084:
.LBB6056:
	.loc 2 2539 0
	lfsx 13,8,7
.LBE6056:
.LBE6084:
.LBB6085:
.LBB6033:
	.loc 2 984 0
	cmpw 7,28,3
.LBE6033:
.LBE6085:
	.loc 2 2502 0
	lfsx 0,9,23
	.loc 2 2503 0
	lfsx 11,9,26
	.loc 2 2501 0
	fmuls 12,13,12
.LVL1373:
	.loc 2 2502 0
	fmuls 0,13,0
.LVL1374:
	.loc 2 2503 0
	fmuls 13,13,11
.LVL1375:
	.loc 2 2504 0
	fadds 7,7,12
.LVL1376:
	.loc 2 2505 0
	fadds 6,6,0
.LVL1377:
	.loc 2 2506 0
	fadds 28,28,13
.LVL1378:
.LBB6086:
.LBB6034:
	.loc 2 984 0
	bgt- 7,.L1011
.LVL1379:
.L1052:
.LBB6012:
.LBB6005:
	.loc 5 573 0
	add 7,10,11
	.loc 2 992 0
	lfsx 8,10,11
	lfs 9,4(7)
.LBE6005:
.LBE6012:
.LBE6034:
.LBE6086:
	.loc 2 2498 0
	addi 28,28,1
.LVL1380:
.LBB6087:
.LBB6035:
.LBB6013:
.LBB6006:
	.loc 2 992 0
	lfs 10,8(7)
	.loc 4 922 0
	fmadds 29,12,8,29
.LVL1381:
	.loc 2 992 0
	lfs 11,12(7)
.LVL1382:
	.loc 4 923 0
	fmadds 30,12,9,30
.LVL1383:
	.loc 4 924 0
	fmadds 31,12,10,31
.LVL1384:
.LBE6006:
.LBE6013:
.LBE6035:
.LBE6087:
	.loc 2 2498 0
	addi 11,11,16
.LBB6088:
.LBB6036:
.LBB6014:
.LBB6007:
	.loc 4 925 0
	fmadds 1,12,11,1
.LVL1385:
.LBE6007:
.LBE6014:
.LBE6036:
.LBE6088:
	.loc 2 2498 0
	addi 9,9,4
.LBB6089:
.LBB6037:
.LBB6015:
.LBB6008:
	.loc 4 922 0
	fmadds 24,0,8,24
.LVL1386:
	.loc 4 923 0
	fmadds 25,0,9,25
.LVL1387:
	.loc 4 924 0
	fmadds 26,0,10,26
.LVL1388:
	.loc 4 925 0
	fmadds 27,0,11,27
.LVL1389:
	.loc 4 922 0
	fmadds 2,13,8,2
.LVL1390:
	.loc 4 923 0
	fmadds 3,13,9,3
.LVL1391:
	.loc 4 924 0
	fmadds 4,13,10,4
.LVL1392:
	.loc 4 925 0
	fmadds 5,13,11,5
.LVL1393:
.LBE6008:
.LBE6015:
.LBE6037:
.LBE6089:
	.loc 2 2498 0
	bdnz .L1009
.LVL1394:
.L1054:
	fmuls 0,7,7
.LVL1395:
	fmuls 13,7,0
.LVL1396:
	fmuls 13,7,13
.LVL1397:
.L999:
.LBB6090:
.LBB6091:
	.loc 4 909 0
	lis 11,.LC1@ha
.LBE6091:
.LBE6090:
.LBB6100:
.LBB6101:
	.loc 4 905 0
	fmuls 9,6,29
.LBE6101:
.LBE6100:
.LBB6103:
.LBB6094:
	.loc 4 909 0
	lfs 8,.LC1@l(11)
.LBE6094:
.LBE6103:
.LBB6104:
.LBB6102:
	.loc 4 905 0
	fmuls 10,6,30
	fmuls 11,6,31
	fmuls 12,6,1
.LBE6102:
.LBE6104:
.LBB6105:
.LBB6095:
	.loc 4 909 0
	fdivs 13,8,13
.LVL1398:
.LBE6095:
.LBE6105:
.LBB6106:
.LBB6107:
	.loc 4 897 0
	fmsubs 24,7,24,9
.LVL1399:
	fmsubs 25,7,25,10
.LVL1400:
	fmsubs 26,7,26,11
.LVL1401:
	fmsubs 27,7,27,12
.LVL1402:
	.loc 4 905 0
	fadds 24,24,24
	fadds 25,25,25
	fadds 26,26,26
	fadds 27,27,27
.LVL1403:
.LBE6107:
.LBE6106:
.LBB6108:
.LBB6109:
	fmuls 10,7,24
	fmuls 11,7,25
	fmuls 12,7,26
	fmuls 9,7,27
.LBE6109:
.LBE6108:
.LBB6110:
.LBB6111:
	fmuls 29,28,29
.LVL1404:
	fmuls 30,28,30
.LVL1405:
	fmuls 31,28,31
.LVL1406:
	fmuls 1,28,1
.LVL1407:
.LBE6111:
.LBE6110:
.LBB6112:
.LBB6113:
	fmuls 10,6,10
.LBE6113:
.LBE6112:
.LBB6117:
.LBB6096:
	.loc 4 897 0
	fmsubs 2,7,2,29
.LVL1408:
.LBE6096:
.LBE6117:
.LBB6118:
.LBB6114:
	.loc 4 905 0
	fmuls 11,6,11
.LBE6114:
.LBE6118:
.LBB6119:
.LBB6097:
	.loc 4 897 0
	fmsubs 3,7,3,30
.LVL1409:
.LBE6097:
.LBE6119:
.LBB6120:
.LBB6115:
	.loc 4 905 0
	fmuls 12,6,12
.LBE6115:
.LBE6120:
.LBB6121:
.LBB6098:
	.loc 4 897 0
	fmsubs 4,7,4,31
.LVL1410:
.LBE6098:
.LBE6121:
.LBB6122:
.LBB6116:
	.loc 4 905 0
	fmuls 6,6,9
.LVL1411:
.LBE6116:
.LBE6122:
.LBB6123:
.LBB6099:
	.loc 4 897 0
	fmsubs 7,7,5,1
.LVL1412:
	fmsubs 10,2,0,10
	fmsubs 11,3,0,11
	fmsubs 12,4,0,12
	fmsubs 0,7,0,6
.LVL1413:
	.loc 4 910 0
	fmuls 10,10,13
	fmuls 11,11,13
	fmuls 12,12,13
	fmuls 13,0,13
.LVL1414:
.LBB6092:
.LBB6093:
	.loc 4 867 0
	stfs 10,0(24)
	.loc 4 868 0
	stfs 11,4(24)
	.loc 4 869 0
	stfs 12,8(24)
	.loc 4 870 0
	stfs 13,12(24)
	b .L943
.LVL1415:
.L978:
.LBE6093:
.LBE6092:
.LBE6099:
.LBE6123:
.LBB6124:
.LBB5894:
.LBB5878:
.LBB5858:
	.loc 2 1022 0
	lfsx 13,9,5
.LVL1416:
.LBE5858:
.LBE5878:
.LBB5879:
.LBB5872:
	.loc 2 1006 0
	bge+ 0,.L980
.LVL1417:
.L1042:
	.loc 2 1007 0
	lwz 17,44(30)
	cmpwi 7,17,2
	beq- 7,.L1057
.LVL1418:
.LBE5872:
.LBB5873:
.LBB5874:
	.loc 2 1011 0
	xoris 11,0,0x8000
.LVL1419:
	lfs 12,0(9)
.LVL1420:
	stw 11,84(31)
	stw 4,80(31)
	lfs 0,.LC3@l(29)
	lfd 8,80(31)
	lfs 9,4(9)
	fsub 0,8,0
	fsubs 9,9,12
	frsp 0,0
	fmadds 0,0,9,12
	b .L982
.LVL1421:
.L973:
.LBE5874:
.LBE5873:
.LBE5879:
.LBB5880:
	.loc 3 223 0
	lwz 9,16(30)
.LVL1422:
.LBE5880:
.LBB5881:
.LBB5859:
	.loc 2 1006 0
	cmpwi 7,8,0
.LBE5859:
.LBE5881:
.LBB5882:
.LBB5841:
	.loc 2 1022 0
	lfsx 11,9,6
.LBE5841:
.LBE5882:
	.loc 2 2273 0
	fsubs 11,31,11
.LVL1423:
.LBB5883:
.LBB5860:
	.loc 2 1006 0
	bge+ 7,.L975
.LVL1424:
.L1040:
	.loc 2 1007 0
	lwz 17,44(30)
	cmpwi 7,17,2
	beq- 7,.L1058
.LVL1425:
.LBE5860:
.LBB5861:
.LBB5862:
	.loc 2 1011 0
	xoris 17,8,0x8000
	lfs 0,0(9)
.LVL1426:
	stw 17,52(31)
	stw 4,48(31)
	lfs 13,.LC3@l(29)
	lfd 9,48(31)
	lfs 12,4(9)
	fsub 13,9,13
	fsubs 12,12,0
	frsp 13,13
	fmadds 13,13,12,0
	b .L977
.LVL1427:
.L983:
.LBE5862:
.LBE5861:
.LBE5883:
.LBB5884:
.LBB5875:
	.loc 2 1022 0
	lfsx 0,9,6
	b .L982
.LVL1428:
.L1038:
.LBE5875:
.LBE5884:
.LBB5885:
.LBB5842:
	.loc 2 1007 0
	lwz 9,44(30)
	cmpwi 7,9,2
	beq- 7,.L1059
.LVL1429:
.LBE5842:
.LBB5843:
	.loc 3 223 0
	lwz 9,16(30)
.LVL1430:
.LBB5844:
	.loc 2 1011 0
	xoris 17,0,0x8000
	lfs 12,.LC3@l(29)
	lfs 0,0(9)
.LVL1431:
	stw 17,20(31)
	stw 4,16(31)
	lfd 11,16(31)
	lfs 13,4(9)
	fsub 11,11,12
	fsubs 13,13,0
	frsp 11,11
	fmadds 11,11,13,0
	b .L972
.LVL1432:
.L1039:
.LBE5844:
.LBE5843:
.LBB5845:
	.loc 2 1016 0
	divw 17,0,7
	stw 4,24(31)
	lfs 13,.LC3@l(29)
	slwi 14,11,2
.LBE5845:
	.loc 3 223 0
	lwz 9,16(30)
.LVL1433:
.LBB5846:
	.loc 2 1016 0
	lfs 0,48(30)
	xoris 12,17,0x8000
	mullw 17,17,7
	stw 12,28(31)
	lfd 12,24(31)
	lfsx 11,9,14
	subf 17,17,0
	fsub 13,12,13
	slwi 17,17,2
	fadds 11,11,0
.LBE5846:
	lfsx 0,9,17
.LBB5847:
	frsp 13,13
.LBE5847:
	fmadds 11,13,11,0
	b .L972
.LVL1434:
.L1041:
.LBE5885:
.LBB5886:
.LBB5863:
	divw 17,8,7
	stw 4,56(31)
	lfs 12,.LC3@l(29)
	slwi 14,11,2
	lfs 0,48(30)
	xoris 12,17,0x8000
	mullw 17,17,7
	stw 12,60(31)
	lfd 9,56(31)
	lfsx 13,9,14
	subf 17,17,8
	fsub 12,9,12
	slwi 17,17,2
	fadds 13,13,0
	lfsx 0,9,17
	frsp 12,12
	fmadds 13,12,13,0
	b .L977
.LVL1435:
.L1043:
.LBE5863:
.LBE5886:
.LBB5887:
.LBB5876:
	divw 17,0,7
	stw 4,88(31)
	lfs 9,.LC3@l(29)
	slwi 11,11,2
.LVL1436:
	lfs 12,48(30)
	xoris 14,17,0x8000
	mullw 7,17,7
.LVL1437:
	stw 14,92(31)
	lfd 8,88(31)
	lfsx 0,9,11
	subf 7,7,0
	fsub 9,8,9
	slwi 7,7,2
	fadds 0,0,12
	lfsx 12,9,7
	frsp 9,9
	fmadds 0,9,0,12
	b .L982
.LVL1438:
.L1059:
.LBE5876:
.LBE5887:
.LBB5888:
.LBB5848:
	.loc 2 1008 0
	divw 17,0,7
.LBE5848:
	.loc 3 223 0
	lwz 9,16(30)
.LVL1439:
.LBB5849:
	.loc 2 1008 0
	slwi 14,11,2
	lfs 0,48(30)
	lfsx 11,9,14
	lfs 12,.LC3@l(29)
	fadds 0,11,0
.LVL1440:
	mullw 14,17,7
	xoris 17,17,0x8000
	subf 14,14,0
.LBB5836:
.LBB5837:
	.loc 5 573 0
	add 14,7,14
.LBE5837:
.LBE5836:
	.loc 2 1008 0
	slwi 14,14,2
	lfsx 13,9,14
	stw 17,12(31)
	stw 4,8(31)
	fsubs 13,0,13
	lfd 11,8(31)
	fsub 11,11,12
	frsp 11,11
	fmsubs 11,11,0,13
	b .L972
.LVL1441:
.L1058:
.LBE5849:
.LBE5888:
.LBB5889:
.LBB5864:
	divw 17,8,7
	slwi 14,11,2
	lfsx 13,9,14
	lfs 0,48(30)
	lfs 9,.LC3@l(29)
	fadds 0,13,0
.LVL1442:
	mullw 14,17,7
	xoris 17,17,0x8000
	subf 14,14,8
.LBB5855:
.LBB5856:
	.loc 5 573 0
	add 14,7,14
.LBE5856:
.LBE5855:
	.loc 2 1008 0
	slwi 14,14,2
	lfsx 12,9,14
	stw 17,44(31)
	stw 4,40(31)
	fsubs 12,0,12
	lfd 13,40(31)
	fsub 13,13,9
	frsp 13,13
	fmsubs 13,13,0,12
	b .L977
.LVL1443:
.L1057:
.LBE5864:
.LBE5889:
.LBB5890:
.LBB5877:
	divw 17,0,7
	slwi 11,11,2
.LVL1444:
	lfsx 12,9,11
	lfs 0,48(30)
	lfs 8,.LC3@l(29)
	fadds 12,12,0
.LVL1445:
	mullw 11,17,7
	xoris 17,17,0x8000
	subf 11,11,0
.LBB5870:
.LBB5871:
	.loc 5 573 0
	add 7,7,11
.LBE5871:
.LBE5870:
	.loc 2 1008 0
	slwi 7,7,2
	lfsx 9,9,7
	stw 17,76(31)
	stw 4,72(31)
	fsubs 9,12,9
	lfd 0,72(31)
	fsub 0,0,8
	frsp 0,0
	fmsubs 0,0,12,9
	b .L982
.LVL1446:
.L996:
.LBE5877:
.LBE5890:
.LBE5894:
.LBE6124:
.LBB6125:
.LBB5972:
.LBB5955:
.LBB5942:
	.loc 2 1022 0
	lfsx 13,10,7
	b .L995
.LVL1447:
.L1048:
.LBE5942:
.LBE5955:
.LBB5956:
.LBB5916:
	.loc 2 1007 0
	lwz 10,44(30)
	cmpwi 7,10,2
	beq- 7,.L1060
.LVL1448:
.LBE5916:
.LBB5917:
	.loc 3 223 0
	lwz 10,16(30)
.LVL1449:
.LBB5918:
	.loc 2 1011 0
	xoris 5,11,0x8000
	lfs 12,.LC3@l(29)
	lfs 10,0(10)
.LVL1450:
	stw 5,124(31)
	stw 6,120(31)
	lfd 9,120(31)
	lfs 13,4(10)
	fsub 12,9,12
	fsubs 13,13,10
	frsp 12,12
	fmadds 12,12,13,10
	b .L990
.LVL1451:
.L1046:
.LBE5918:
.LBE5917:
.LBE5956:
.LBB5957:
.LBB5943:
	.loc 2 1016 0
	divw 5,27,8
	stw 6,160(31)
	lfs 9,.LC3@l(29)
	slwi 0,0,2
.LVL1452:
	lfs 13,48(30)
	xoris 4,5,0x8000
	mullw 8,5,8
.LVL1453:
	stw 4,164(31)
	lfd 8,160(31)
	lfsx 10,10,0
	subf 0,8,27
	fsub 9,8,9
	slwi 0,0,2
	fadds 13,10,13
	lfsx 10,10,0
	frsp 9,9
	fmadds 13,9,13,10
	b .L995
.LVL1454:
.L1044:
.LBE5943:
.LBE5957:
.LBB5958:
.LBB5919:
	divw 5,11,8
	stw 6,128(31)
	lfs 10,.LC3@l(29)
	slwi 4,0,2
.LBE5919:
	.loc 3 223 0
	lwz 10,16(30)
.LVL1455:
.LBB5920:
	.loc 2 1016 0
	lfs 13,48(30)
	xoris 3,5,0x8000
	mullw 5,5,8
	stw 3,132(31)
	lfd 9,128(31)
	lfsx 12,10,4
	subf 5,5,11
	fsub 10,9,10
	slwi 5,5,2
	fadds 12,12,13
.LBE5920:
	lfsx 13,10,5
.LBB5921:
	frsp 10,10
.LBE5921:
	fmadds 12,10,12,13
	b .L990
.LVL1456:
.L1055:
.LBE5958:
.LBE5972:
.LBE6125:
.LBB6126:
.LBB6057:
	.loc 2 2527 0
	lwz 7,44(30)
	cmpwi 7,7,2
	beq- 7,.L1061
.LVL1457:
	.loc 2 2530 0
	xoris 7,28,0x8000
	lfs 0,0(8)
.LVL1458:
	stw 7,188(31)
	stw 0,184(31)
	lfs 13,.LC3@l(29)
	lfd 11,184(31)
	lfs 12,4(8)
	fsub 13,11,13
	fsubs 12,12,0
	frsp 13,13
	fmadds 13,13,12,0
.LVL1459:
.L1002:
.LBE6057:
.LBE6126:
.LBB6127:
.LBB6038:
	.loc 2 977 0
	lwz 7,44(30)
.LBE6038:
.LBE6127:
	.loc 2 2501 0
	lfsx 12,9,25
	.loc 2 2502 0
	lfsx 0,9,23
.LBB6128:
.LBB6039:
	.loc 2 977 0
	cmpwi 7,7,2
.LBE6039:
.LBE6128:
	.loc 2 2503 0
	lfsx 11,9,26
	.loc 2 2501 0
	fmuls 12,13,12
.LVL1460:
	.loc 2 2502 0
	fmuls 0,13,0
.LVL1461:
	.loc 2 2503 0
	fmuls 13,13,11
.LVL1462:
	.loc 2 2504 0
	fadds 7,7,12
.LVL1463:
	.loc 2 2505 0
	fadds 6,6,0
.LVL1464:
	.loc 2 2506 0
	fadds 28,28,13
.LVL1465:
.LBB6129:
.LBB6040:
	.loc 2 977 0
	beq- 7,.L1062
.LVL1466:
	.loc 2 981 0
	xoris 7,28,0x8000
	stw 0,200(31)
	stw 7,204(31)
	lfs 11,.LC3@l(29)
	lfd 10,200(31)
.LBB6016:
.LBB6017:
	.loc 4 897 0
	lfs 8,16(10)
.LBE6017:
.LBE6016:
	.loc 2 981 0
	fsub 11,10,11
.LBB6020:
.LBB6018:
	.loc 4 897 0
	lfs 9,20(10)
	lfs 10,24(10)
	fsubs 8,8,23
	lfs 19,28(10)
	fsubs 9,9,22
.LBE6018:
.LBE6020:
	.loc 2 981 0
	frsp 11,11
.LVL1467:
.LBB6021:
.LBB6019:
	.loc 4 897 0
	fsubs 10,10,21
	fsubs 19,19,20
.LBE6019:
.LBE6021:
	.loc 4 918 0
	fmadds 8,11,8,23
.LVL1468:
	fmadds 9,11,9,22
.LVL1469:
	fmadds 10,11,10,21
	fmadds 11,11,19,20
.LVL1470:
	b .L1007
.LVL1471:
.L1051:
.LBE6040:
.LBE6129:
.LBB6130:
.LBB6058:
	.loc 2 2534 0
	divw 7,28,27
	mullw 7,7,27
	subf 7,7,28
	slwi 7,7,2
	lfsx 13,8,7
	b .L1005
.LVL1472:
.L1053:
.LBE6058:
.LBE6130:
.LBB6131:
.LBB6041:
	.loc 2 986 0
	divw 16,28,22
	mullw 16,16,22
	subf 16,16,28
.LVL1473:
.L1032:
.LBB6022:
.LBB6023:
	.loc 5 573 0
	slwi 16,16,4
	add 7,10,16
	.loc 2 986 0
	lfsx 8,10,16
	lfs 9,4(7)
	lfs 10,8(7)
	lfs 11,12(7)
	b .L1007
.LVL1474:
.L1060:
.LBE6023:
.LBE6022:
.LBE6041:
.LBE6131:
.LBB6132:
.LBB5973:
.LBB5959:
.LBB5922:
	.loc 2 1008 0
	divw 5,11,8
.LBE5922:
	.loc 3 223 0
	lwz 10,16(30)
.LVL1475:
.LBB5923:
	.loc 2 1008 0
	slwi 4,0,2
	lfs 13,48(30)
	lfsx 12,10,4
	lfs 10,.LC3@l(29)
	fadds 13,12,13
.LVL1476:
	mullw 4,5,8
	xoris 5,5,0x8000
	subf 4,4,11
.LBB5907:
.LBB5908:
	.loc 5 573 0
	add 4,8,4
.LBE5908:
.LBE5907:
	.loc 2 1008 0
	slwi 4,4,2
	lfsx 12,10,4
	stw 5,116(31)
	stw 6,112(31)
	fsubs 12,13,12
	lfd 9,112(31)
	fsub 10,9,10
	frsp 10,10
	fmsubs 12,10,13,12
	b .L990
.LVL1477:
.L1062:
.LBE5923:
.LBE5959:
.LBE5973:
.LBE6132:
.LBB6133:
.LBB6042:
.LBB6043:
	.loc 2 978 0
	divw 16,28,22
	mullw 16,16,22
	subf 16,16,28
	add 16,16,22
	b .L1032
.LVL1478:
.L1061:
.LBE6043:
.LBE6042:
.LBE6133:
.LBB6134:
.LBB6059:
.LBB6060:
	.loc 2 2528 0
	divw 7,28,27
	mullw 7,7,27
	subf 7,7,28
.LBB6061:
.LBB6062:
	.loc 5 573 0
	add 7,7,27
.LBE6062:
.LBE6061:
	.loc 2 2528 0
	slwi 7,7,2
	lfsx 13,8,7
	b .L1002
.LVL1479:
.L1050:
.LBE6060:
.LBE6059:
.LBE6134:
.LBB6135:
.LBB5974:
.LBB5960:
.LBB5944:
	.loc 2 1008 0
	divw 5,27,8
	slwi 0,0,2
.LVL1480:
	lfsx 10,10,0
	lfs 13,48(30)
	lfs 9,.LC3@l(29)
	fadds 10,10,13
.LVL1481:
	mullw 0,5,8
	xoris 5,5,0x8000
	subf 0,0,27
.LBB5930:
.LBB5931:
	.loc 5 573 0
	add 0,8,0
.LBE5931:
.LBE5930:
	.loc 2 1008 0
	slwi 0,0,2
	lfsx 13,10,0
	stw 5,148(31)
	stw 6,144(31)
	fsubs 13,10,13
	lfd 8,144(31)
	fsub 9,8,9
	frsp 9,9
	fmsubs 13,9,10,13
	b .L995
.LVL1482:
.L1034:
.LBE5944:
.LBE5960:
.LBE5974:
.LBE6135:
.LBB6136:
.LBB5824:
	.loc 2 394 0
	lwz 10,16(30)
	lfs 0,0(10)
	fcmpu 7,31,0
	cror 30,28,30
	bne+ 7,.L950
	li 8,-3
	li 9,-1
	stw 8,220(31)
	li 27,-1
	stw 9,216(31)
	b .L952
.LVL1483:
.L1016:
.LBE5824:
.LBE6136:
	.loc 2 2498 0
	lis 9,.LC0@ha
	.loc 2 2496 0
	fmr 24,2
	.loc 2 2498 0
	lfs 13,.LC0@l(9)
	.loc 2 2496 0
	fmr 25,3
	fmr 26,4
	fmr 27,5
	fmr 29,2
	fmr 30,3
	fmr 31,4
	fmr 1,5
	.loc 2 2498 0
	fmr 0,13
	.loc 2 2497 0
	fmr 28,13
	fmr 6,13
	fmr 7,13
	b .L999
.LVL1484:
.L1010:
.LBB6137:
.LBB5825:
	.loc 2 403 0
	addi 0,28,1
	cmpw 7,0,9
	beq- 7,.L959
.LVL1485:
	slwi 8,0,2
	lfsx 0,10,8
	fcmpu 7,31,0
	cror 30,28,30
	bne- 7,.L950
.LVL1486:
.L959:
.LBE5825:
.LBB5826:
.LBB5820:
.LBB5819:
	.loc 2 405 0
	stw 28,216(31)
	addi 28,28,-2
.LVL1487:
	stw 28,220(31)
	.loc 2 403 0
	mr 28,0
	.loc 2 405 0
	stw 0,36(30)
	lwz 27,216(31)
.LVL1488:
	b .L952
.LVL1489:
.L1035:
.LBE5819:
.LBE5820:
.LBE5826:
.LBB5827:
	.loc 2 398 0
	addi 27,9,-1
.LVL1490:
	lwz 10,16(30)
	slwi 0,27,2
	stw 27,216(31)
	lfsx 0,10,0
	addi 0,9,-3
	stw 0,220(31)
	fcmpu 7,31,0
	bng+ 7,.L950
	b .L952
.LVL1491:
.L1014:
	.loc 2 415 0
	li 0,-3
	li 27,-1
	stw 0,220(31)
	li 28,0
	b .L961
.LBE5827:
.LBE6137:
.LBE6138:
	.cfi_endproc
.LFE2806:
	.size	_ZNK13idCurve_NURBSI6idVec4E26GetCurrentSecondDerivativeEf, .-_ZNK13idCurve_NURBSI6idVec4E26GetCurrentSecondDerivativeEf
	.section	.text._ZNK25idCurve_NonUniformBSplineI6idVec4E26GetCurrentSecondDerivativeEf,"axG",@progbits,_ZNK25idCurve_NonUniformBSplineI6idVec4E26GetCurrentSecondDerivativeEf,comdat
	.align 2
	.weak	_ZNK25idCurve_NonUniformBSplineI6idVec4E26GetCurrentSecondDerivativeEf
	.type	_ZNK25idCurve_NonUniformBSplineI6idVec4E26GetCurrentSecondDerivativeEf, @function
_ZNK25idCurve_NonUniformBSplineI6idVec4E26GetCurrentSecondDerivativeEf:
.LFB2816:
	.loc 2 2234 0
	.cfi_startproc
.LVL1492:
	mflr 0
	stwu 1,-184(1)
.LCFI87:
	.cfi_def_cfa_offset 184
	.cfi_register 65, 0
	stw 26,128(1)
	stw 0,188(1)
	stw 28,136(1)
	mr 28,3
	.cfi_offset 28, -48
	.cfi_offset 65, 4
	.cfi_offset 26, -56
	stw 30,144(1)
	mr 30,4
	.cfi_offset 30, -40
	stw 31,148(1)
	mr 31,1
	.cfi_offset 31, -36
.LCFI88:
	.cfi_def_cfa_register 31
	stfd 28,152(1)
	stfd 29,160(1)
	stfd 30,168(1)
	stfd 31,176(1)
	stw 21,108(1)
	stw 22,112(1)
	stw 23,116(1)
	stw 24,120(1)
	stw 25,124(1)
	stw 27,132(1)
	stw 29,140(1)
.LBB6345:
	.loc 2 2238 0
	lwz 25,52(4)
	.cfi_offset 29, -44
	.cfi_offset 27, -52
	.cfi_offset 25, -60
	.cfi_offset 24, -64
	.cfi_offset 23, -68
	.cfi_offset 22, -72
	.cfi_offset 21, -76
	.cfi_offset 63, -8
	.cfi_offset 62, -16
	.cfi_offset 61, -24
	.cfi_offset 60, -32
	.loc 3 223 0
	lwz 9,4(4)
	.loc 2 2238 0
	slwi 11,25,2
	addi 0,11,45
	lwz 11,0(1)
	rlwinm 0,0,0,0,27
	.loc 2 2240 0
	cmpwi 7,9,1
	.loc 2 2238 0
	neg 0,0
	stwux 11,1,0
	addi 26,1,23
	rlwinm 26,26,0,0,27
.LVL1493:
	.loc 2 2240 0
	beq- 7,.L1118
.LVL1494:
.LBB6346:
.LBB6347:
	.loc 2 1034 0
	lwz 0,44(4)
	.loc 2 1042 0
	fmr 13,1
	.loc 2 1034 0
	cmpwi 7,0,1
	beq- 7,.L1119
.L1066:
.LVL1495:
.LBE6347:
.LBE6346:
.LBB6351:
.LBB6352:
	.loc 2 391 0
	lwz 29,36(30)
	cmpwi 7,29,0
	blt- 7,.L1067
	cmpw 6,9,29
	blt- 6,.L1067
	.loc 2 393 0
	beq- 7,.L1120
	.loc 2 397 0
	beq- 6,.L1121
	.loc 2 401 0
	addi 24,29,-1
.LBE6352:
	.loc 3 223 0
	lwz 11,16(30)
.LVL1496:
.LBB6355:
	.loc 2 401 0
	slwi 0,24,2
	lfsx 0,11,0
.LBB6353:
.LBB6354:
	.loc 5 573 0
	slwi 0,29,2
.LBE6354:
.LBE6353:
	.loc 2 401 0
	fcmpu 7,13,0
	bng- 7,.L1074
.LVL1497:
	lfsx 0,11,0
	addi 23,29,-3
	mr 22,24
	fcmpu 7,13,0
	cror 30,28,30
	beq- 7,.L1069
.LVL1498:
.L1074:
	.loc 2 403 0
	lfsx 0,11,0
	fcmpu 7,13,0
	bgt- 7,.L1103
.LVL1499:
.L1067:
	.loc 2 415 0
	cmpwi 7,9,0
	ble- 7,.L1106
	.loc 2 416 0
	srawi 29,9,1
.LVL1500:
.LBE6355:
	.loc 3 223 0
	lwz 7,16(30)
.LVL1501:
.LBB6356:
	.loc 2 417 0
	slwi 0,29,2
	li 10,0
	lfsx 0,7,0
	mr 0,29
	fcmpu 7,13,0
	bne+ 7,.L1079
	b .L1078
.LVL1502:
.L1123:
	.loc 2 415 0
	cmpwi 7,0,0
	.loc 2 421 0
	mr 10,29
.LVL1503:
	.loc 2 416 0
	srawi 0,9,1
.LVL1504:
	.loc 2 417 0
	add 29,0,10
.LVL1505:
	slwi 11,29,2
	.loc 2 415 0
	ble- 7,.L1122
.LVL1506:
.L1083:
	.loc 2 417 0
	lfsx 0,7,11
	fcmpu 7,13,0
	beq- 7,.L1078
.LVL1507:
.L1079:
	.loc 2 419 0
	fcmpu 7,13,0
	.loc 2 421 0
	subf 9,0,9
.LVL1508:
	.loc 2 422 0
	li 8,1
	.loc 2 419 0
	bgt- 7,.L1123
.LVL1509:
	.loc 2 415 0
	cmpwi 7,0,0
	.loc 2 416 0
	srawi 0,9,1
.LVL1510:
	.loc 2 417 0
	add 29,0,10
.LVL1511:
	.loc 2 425 0
	li 8,0
.LVL1512:
	.loc 2 417 0
	slwi 11,29,2
	.loc 2 415 0
	bgt+ 7,.L1083
.L1122:
	add 29,10,8
	addi 24,29,-1
	addi 23,29,-3
	mr 22,24
	.loc 2 428 0
	stw 29,36(30)
	b .L1069
.LVL1513:
.L1119:
.LBE6356:
.LBE6351:
.LBB6367:
	.loc 3 223 0
	lwz 11,16(4)
.LVL1514:
.LBB6350:
	.loc 2 1035 0
	lfs 13,0(11)
	fcmpu 7,1,13
	blt- 7,.L1066
.LVL1515:
.LBB6348:
.LBB6349:
	.loc 5 573 0
	addi 0,9,-1
.LBE6349:
.LBE6348:
	.loc 2 1038 0
	slwi 0,0,2
	lfsx 13,11,0
	fcmpu 7,1,13
	cror 30,29,30
	beq+ 7,.L1066
	.loc 2 1042 0
	fmr 13,1
	b .L1066
.LVL1516:
.L1118:
.LBE6350:
.LBE6367:
	.loc 3 223 0
	lwz 9,32(4)
.LVL1517:
.LBB6368:
.LBB6369:
	.loc 4 897 0
	lfs 11,0(9)
	lfs 12,4(9)
	lfs 13,8(9)
	fsubs 11,11,11
	lfs 0,12(9)
.LVL1518:
	fsubs 12,12,12
	fsubs 13,13,13
	fsubs 0,0,0
.LBB6370:
.LBB6371:
	.loc 4 867 0
	stfs 11,0(3)
	.loc 4 868 0
	stfs 12,4(3)
	.loc 4 869 0
	stfs 13,8(3)
	.loc 4 870 0
	stfs 0,12(3)
.LVL1519:
.L1063:
.LBE6371:
.LBE6370:
.LBE6369:
.LBE6368:
.LBE6345:
	.loc 2 2253 0
	addi 11,31,184
	mr 3,28
	lwz 0,4(11)
	lwz 21,-76(11)
	mtlr 0
	lwz 22,-72(11)
	lwz 23,-68(11)
	lwz 24,-64(11)
	lwz 25,-60(11)
	lwz 26,-56(11)
	lwz 27,-52(11)
	lwz 28,-48(11)
.LVL1520:
	lwz 29,-44(11)
	lwz 30,-40(11)
.LVL1521:
	lwz 31,-36(11)
	.cfi_remember_state
.LCFI89:
	.cfi_def_cfa 11, 0
	lfd 28,-32(11)
	lfd 29,-24(11)
	lfd 30,-16(11)
	lfd 31,-8(11)
	mr 1,11
.LCFI90:
	.cfi_def_cfa_register 1
	.cfi_restore 63
	.cfi_restore 62
	.cfi_restore 61
	.cfi_restore 60
	.cfi_restore 31
	.cfi_restore 30
	.cfi_restore 29
	.cfi_restore 28
	.cfi_restore 27
	.cfi_restore 26
	.cfi_restore 25
	.cfi_restore 24
	.cfi_restore 23
	.cfi_restore 22
	.cfi_restore 21
.LVL1522:
	blr
.LVL1523:
.L1078:
.LCFI91:
	.cfi_restore_state
.LBB6504:
.LBB6372:
.LBB6357:
	.loc 2 417 0
	addi 24,29,-1
	addi 23,29,-3
.LBE6357:
.LBB6358:
.LBB6359:
.LBB6360:
	.loc 2 403 0
	mr 22,24
.LVL1524:
.L1069:
.LBE6360:
.LBE6359:
.LBE6358:
.LBE6372:
.LBB6373:
.LBB6374:
	.loc 2 2311 0
	fmr 1,13
.LVL1525:
	addi 27,25,-1
	mr 3,30
.LVL1526:
	mr 4,22
.LVL1527:
	mr 5,27
	addi 6,26,4
	bl _ZNK25idCurve_NonUniformBSplineI6idVec4E20BasisFirstDerivativeEiifPf
.LVL1528:
	.loc 2 2313 0
	cmpwi 7,27,0
	.loc 2 2312 0
	li 0,0
	stw 0,0(26)
.LVL1529:
	.loc 2 2313 0
	ble- 7,.L1107
	xoris 0,27,0x8000
	lis 21,.LC3@ha
	stw 0,12(31)
	lis 0,0x4330
	stw 0,8(31)
	.loc 2 2234 0
	add 24,27,22
	.loc 2 2313 0
	lfs 0,.LC3@l(21)
	.loc 2 2234 0
	addi 23,24,-2
	.loc 2 2313 0
	lfd 11,8(31)
	.loc 2 2234 0
	addi 22,22,-2
.LVL1530:
	.loc 2 2313 0
	mr 9,26
	.loc 2 2234 0
	mr 11,23
	.loc 2 2313 0
	fsub 11,11,0
	.loc 2 2234 0
	slwi 7,22,2
.LBB6375:
.LBB6376:
	.loc 2 1022 0
	slwi 25,25,2
.LVL1531:
	.loc 2 1019 0
	lis 6,0x4330
	mtctr 27
.LBE6376:
.LBE6375:
	.loc 2 2313 0
	frsp 11,11
	b .L1095
.LVL1532:
.L1129:
.LBB6395:
.LBB6381:
	.loc 2 1015 0
	lwz 10,44(30)
	cmpwi 7,10,2
	beq- 7,.L1124
.LBE6381:
	.loc 3 223 0
	lwz 10,16(30)
.LVL1533:
.LBB6382:
	.loc 2 1019 0
	subf 5,0,11
	xoris 5,5,0x8000
	slwi 4,0,2
	lfsx 10,10,4
.LVL1534:
	stw 5,44(31)
.LBB6377:
.LBB6378:
	.loc 5 573 0
	addi 5,8,-2
.LBE6378:
.LBE6377:
	.loc 2 1019 0
	stw 6,40(31)
	slwi 5,5,2
	lfs 13,.LC3@l(21)
	lfd 12,40(31)
	fsub 12,12,13
	lfsx 13,10,5
	fsubs 13,10,13
	frsp 12,12
	fmadds 12,12,13,10
.LVL1535:
.L1087:
.LBE6382:
.LBE6395:
.LBB6396:
.LBB6397:
	.loc 2 1006 0
	cmpwi 7,22,0
	blt- 7,.L1125
.LVL1536:
.L1090:
	.loc 2 1014 0
	cmpw 7,22,0
	ble- 7,.L1093
	.loc 2 1015 0
	lwz 5,44(30)
	cmpwi 7,5,2
	beq- 7,.L1126
.LVL1537:
	.loc 2 1019 0
	subf 5,0,22
	slwi 0,0,2
.LVL1538:
	xoris 5,5,0x8000
	lfsx 10,10,0
.LVL1539:
	stw 5,76(31)
.LBB6398:
.LBB6399:
	.loc 5 573 0
	addi 8,8,-2
.LVL1540:
.LBE6399:
.LBE6398:
	.loc 2 1019 0
	stw 6,72(31)
	slwi 8,8,2
	lfs 13,.LC3@l(21)
	lfd 9,72(31)
	fsub 9,9,13
	lfsx 13,10,8
	fsubs 13,10,13
	frsp 9,9
	fmadds 13,9,13,10
.LVL1541:
.L1092:
.LBE6397:
.LBE6396:
	.loc 2 2315 0
	fsubs 13,12,13
	.loc 2 2313 0
	addi 11,11,1
.LVL1542:
	addi 22,22,1
.LVL1543:
	addi 7,7,4
	.loc 2 2315 0
	fdivs 13,11,13
	fmuls 0,0,13
	stfs 0,-4(9)
	.loc 2 2313 0
	bdz .L1127
.LVL1544:
.L1095:
	.loc 2 2314 0
	lfs 13,0(9)
.LBB6415:
.LBB6383:
	.loc 2 1006 0
	cmpwi 7,11,0
.LBE6383:
.LBE6415:
	.loc 2 2314 0
	lfsu 0,4(9)
.LBB6416:
	.loc 3 223 0
	lwz 8,4(30)
.LBE6416:
	.loc 2 2314 0
	fsubs 0,13,0
.LBB6417:
.LBB6384:
	.loc 2 1004 0
	addi 0,8,-1
.LBE6384:
.LBE6417:
	.loc 2 2314 0
	stfs 0,-4(9)
.LVL1545:
.LBB6418:
.LBB6385:
	.loc 2 1006 0
	blt- 7,.L1128
	.loc 2 1014 0
	cmpw 7,11,0
	bgt- 7,.L1129
.LBE6385:
	.loc 3 223 0
	lwz 10,16(30)
.LVL1546:
.LBE6418:
.LBB6419:
.LBB6402:
	.loc 2 1006 0
	cmpwi 7,22,0
.LBE6402:
.LBE6419:
.LBB6420:
.LBB6386:
	.loc 2 1022 0
	add 5,10,25
	add 5,5,7
	lfs 12,-4(5)
.LVL1547:
.LBE6386:
.LBE6420:
.LBB6421:
.LBB6403:
	.loc 2 1006 0
	bge+ 7,.L1090
.LVL1548:
.L1125:
	.loc 2 1007 0
	lwz 5,44(30)
	cmpwi 7,5,2
	beq- 7,.L1130
.LVL1549:
.LBE6403:
.LBB6404:
.LBB6405:
	.loc 2 1011 0
	xoris 0,22,0x8000
.LVL1550:
	lfs 10,0(10)
.LVL1551:
	stw 0,60(31)
.LBE6405:
.LBE6404:
.LBE6421:
	.loc 2 2313 0
	addi 11,11,1
.LVL1552:
.LBB6422:
.LBB6409:
.LBB6406:
	.loc 2 1011 0
	stw 6,56(31)
.LBE6406:
.LBE6409:
.LBE6422:
	.loc 2 2313 0
	addi 22,22,1
.LVL1553:
.LBB6423:
.LBB6410:
.LBB6407:
	.loc 2 1011 0
	lfs 13,.LC3@l(21)
.LBE6407:
.LBE6410:
.LBE6423:
	.loc 2 2313 0
	addi 7,7,4
.LBB6424:
.LBB6411:
.LBB6408:
	.loc 2 1011 0
	lfd 8,56(31)
	lfs 9,4(10)
	fsub 13,8,13
	fsubs 9,9,10
	frsp 13,13
	fmadds 13,13,9,10
.LBE6408:
.LBE6411:
.LBE6424:
	.loc 2 2315 0
	fsubs 13,12,13
	fdivs 13,11,13
	fmuls 0,0,13
	stfs 0,-4(9)
	.loc 2 2313 0
	bdnz .L1095
.LVL1554:
.L1127:
	slwi 25,27,2
.LVL1555:
.L1084:
	.loc 2 2317 0
	add 4,24,27
	mr 3,30
	addi 4,4,-2
	xoris 27,27,0x8000
.LVL1556:
	bl _ZNK14idCurve_SplineI6idVec4E12TimeForIndexEi
	mr 3,30
	mr 4,23
	fmr 31,1
	bl _ZNK14idCurve_SplineI6idVec4E12TimeForIndexEi
	lis 0,0x4330
	stw 27,84(31)
	stw 0,80(31)
	fsubs 1,31,1
	lfs 0,.LC3@l(21)
	lfd 31,80(31)
	lfsx 13,26,25
	fsub 31,31,0
.LBE6374:
.LBE6373:
	.loc 2 2248 0
	lwz 10,52(30)
.LBB6436:
.LBB6431:
	.loc 3 223 0
	lwz 11,32(30)
.LVL1557:
.LBE6431:
.LBE6436:
	.loc 2 2248 0
	cmpwi 7,10,0
.LBB6437:
.LBB6432:
	.loc 2 2317 0
	frsp 31,31
	fdivs 31,31,1
	fmuls 31,13,31
	stfsx 31,26,25
.LBE6432:
.LBE6437:
.LBB6438:
.LBB6439:
	.loc 4 897 0
	lfs 31,0(11)
	lfs 30,4(11)
	lfs 29,8(11)
	fsubs 10,31,31
	lfs 28,12(11)
	fsubs 11,30,30
	fsubs 12,29,29
	fsubs 13,28,28
.LVL1558:
.LBE6439:
.LBE6438:
	.loc 2 2248 0
	ble- 7,.L1096
	lwz 6,20(30)
	.loc 2 2249 0
	srawi 9,10,1
.LBB6440:
.LBB6441:
.LBB6442:
.LBB6443:
	.loc 2 2234 0
	subf 29,9,29
	.loc 5 573 0
	addi 26,26,-4
.LVL1559:
.LBE6443:
.LBE6442:
.LBE6441:
.LBE6440:
	.loc 2 2248 0
	addi 0,6,-1
.LBB6490:
.LBB6480:
	.loc 2 989 0
	addi 8,6,-2
.LBB6446:
.LBB6447:
	.loc 5 573 0
	slwi 7,0,4
.LBE6447:
.LBE6446:
.LBB6449:
.LBB6444:
	slwi 8,8,4
.LBE6444:
.LBE6449:
.LBB6450:
.LBB6448:
	add 7,11,7
.LBE6448:
.LBE6450:
.LBB6451:
.LBB6445:
	add 8,11,8
	slwi 9,29,4
.LBE6445:
.LBE6451:
	.loc 2 2234 0
	subfic 3,6,1
	.loc 2 989 0
	lis 4,0x4330
	mtctr 10
	b .L1102
.LVL1560:
.L1133:
	.loc 2 2234 0
	add 10,3,29
	.loc 2 989 0
	xoris 5,10,0x8000
	.loc 2 985 0
	lwz 10,44(30)
	cmpwi 7,10,2
	beq- 7,.L1131
	.loc 2 989 0
	stw 5,100(31)
	stw 4,96(31)
	lfs 9,.LC3@l(21)
	lfd 5,96(31)
.LBB6452:
.LBB6453:
	.loc 4 897 0
	lfs 1,0(7)
.LBE6453:
.LBE6452:
	.loc 2 989 0
	fsub 5,5,9
.LBB6456:
.LBB6454:
	.loc 4 897 0
	lfs 2,4(7)
	lfs 3,8(7)
	lfs 4,12(7)
	lfs 6,0(8)
.LBE6454:
.LBE6456:
	.loc 2 989 0
	frsp 5,5
.LVL1561:
.LBB6457:
.LBB6455:
	.loc 4 897 0
	lfs 7,4(8)
	lfs 8,8(8)
	fsubs 6,1,6
	lfs 9,12(8)
	fsubs 7,2,7
	fsubs 8,3,8
	fsubs 9,4,9
	.loc 4 918 0
	fmadds 6,5,6,1
	fmadds 7,5,7,2
	fmadds 8,5,8,3
	fmadds 9,5,9,4
.LVL1562:
.L1099:
.LBE6455:
.LBE6457:
.LBB6458:
.LBB6459:
	.loc 4 922 0 discriminator 2
	fmadds 10,0,6,10
.LVL1563:
.LBE6459:
.LBE6458:
.LBE6480:
.LBE6490:
	.loc 2 2248 0 discriminator 2
	addi 29,29,1
.LVL1564:
.LBB6491:
.LBB6481:
.LBB6466:
.LBB6460:
	.loc 4 923 0 discriminator 2
	fmadds 11,0,7,11
.LVL1565:
.LBE6460:
.LBE6466:
.LBE6481:
.LBE6491:
	.loc 2 2248 0 discriminator 2
	addi 9,9,16
.LBB6492:
.LBB6482:
.LBB6467:
.LBB6461:
	.loc 4 924 0 discriminator 2
	fmadds 12,0,8,12
.LVL1566:
	.loc 4 925 0 discriminator 2
	fmadds 13,0,9,13
.LVL1567:
.LBE6461:
.LBE6467:
.LBE6482:
.LBE6492:
	.loc 2 2248 0 discriminator 2
	bdz .L1096
.LVL1568:
.L1102:
.LBB6493:
.LBB6483:
	.loc 2 976 0 discriminator 2
	cmpwi 7,29,0
	.loc 2 984 0 discriminator 2
	cmpw 6,29,0
.LBE6483:
.LBE6493:
	.loc 2 2250 0 discriminator 2
	lfsu 0,4(26)
.LVL1569:
.LBB6494:
.LBB6484:
	.loc 2 976 0 discriminator 2
	blt- 7,.L1132
.LBB6468:
.LBB6462:
	.loc 5 573 0
	add 10,11,9
.LBE6462:
.LBE6468:
	.loc 2 984 0
	bgt- 6,.L1133
.LVL1570:
.LBB6469:
.LBB6463:
	.loc 2 992 0
	lfsx 6,11,9
.LBE6463:
.LBE6469:
.LBE6484:
.LBE6494:
	.loc 2 2248 0
	addi 29,29,1
.LVL1571:
.LBB6495:
.LBB6485:
.LBB6470:
.LBB6464:
	.loc 2 992 0
	lfs 7,4(10)
.LBE6464:
.LBE6470:
.LBE6485:
.LBE6495:
	.loc 2 2248 0
	addi 9,9,16
.LBB6496:
.LBB6486:
.LBB6471:
.LBB6465:
	.loc 2 992 0
	lfs 8,8(10)
	.loc 4 922 0
	fmadds 10,0,6,10
.LVL1572:
	.loc 2 992 0
	lfs 9,12(10)
.LVL1573:
	.loc 4 923 0
	fmadds 11,0,7,11
.LVL1574:
	.loc 4 924 0
	fmadds 12,0,8,12
.LVL1575:
	.loc 4 925 0
	fmadds 13,0,9,13
.LVL1576:
.LBE6465:
.LBE6471:
.LBE6486:
.LBE6496:
	.loc 2 2248 0
	bdnz .L1102
.LVL1577:
.L1096:
	.loc 2 2252 0
	stfs 10,0(28)
	stfs 11,4(28)
	stfs 12,8(28)
	stfs 13,12(28)
	b .L1063
.LVL1578:
.L1093:
.LBB6497:
.LBB6433:
.LBB6425:
.LBB6412:
	.loc 2 1022 0
	lfsx 13,10,7
	b .L1092
.LVL1579:
.L1128:
.LBE6412:
.LBE6425:
.LBB6426:
.LBB6387:
	.loc 2 1007 0
	lwz 10,44(30)
	cmpwi 7,10,2
	beq- 7,.L1134
.LVL1580:
.LBE6387:
.LBB6388:
	.loc 3 223 0
	lwz 10,16(30)
.LVL1581:
.LBB6389:
	.loc 2 1011 0
	xoris 5,11,0x8000
	lfs 13,.LC3@l(21)
	lfs 10,0(10)
.LVL1582:
	stw 5,28(31)
	stw 6,24(31)
	lfd 12,24(31)
	lfs 9,4(10)
	fsub 12,12,13
	fsubs 9,9,10
	frsp 12,12
	fmadds 12,12,9,10
	b .L1087
.LVL1583:
.L1126:
.LBE6389:
.LBE6388:
.LBE6426:
.LBB6427:
.LBB6413:
	.loc 2 1016 0
	divw 5,22,8
	stw 6,64(31)
	lfs 9,.LC3@l(21)
	slwi 0,0,2
.LVL1584:
	lfs 10,48(30)
	xoris 4,5,0x8000
	mullw 8,5,8
.LVL1585:
	stw 4,68(31)
	lfd 8,64(31)
	lfsx 13,10,0
	subf 8,8,22
	fsub 9,8,9
	slwi 8,8,2
	fadds 13,13,10
	lfsx 10,10,8
	frsp 9,9
	fmadds 13,9,13,10
	b .L1092
.LVL1586:
.L1124:
.LBE6413:
.LBE6427:
