	.file	"sys_local.cpp"
	.section	".text"
.Ltext0:
	.section	.text._ZN14idFixedWinding5ClearEv,"axG",@progbits,_ZN14idFixedWinding5ClearEv,comdat
	.align 2
	.weak	_ZN14idFixedWinding5ClearEv
	.type	_ZN14idFixedWinding5ClearEv, @function
_ZN14idFixedWinding5ClearEv:
.LFB1502:
	.file 1 "d:/Data/Nintendo/DoomGX/src/sys/../idlib/../idlib/geometry/Winding.h"
	.loc 1 398 0
	.cfi_startproc
.LVL0:
	.loc 1 399 0
	li 0,0
	.loc 1 400 0
	.loc 1 399 0
	stw 0,4(3)
	.loc 1 400 0
	blr
	.cfi_endproc
.LFE1502:
	.size	_ZN14idFixedWinding5ClearEv, .-_ZN14idFixedWinding5ClearEv
	.section	.text._ZN6idCVarD2Ev,"axG",@progbits,_ZN6idCVarD5Ev,comdat
	.align 2
	.weak	_ZN6idCVarD2Ev
	.type	_ZN6idCVarD2Ev, @function
_ZN6idCVarD2Ev:
.LFB2175:
	.file 2 "d:/Data/Nintendo/DoomGX/src/sys/../idlib/../framework/CVarSystem.h"
	.loc 2 127 0
	.cfi_startproc
.LVL1:
.LBB430:
	.loc 2 127 0
	lis 9,_ZTV6idCVar+8@ha
.LBE430:
.LBB431:
	la 0,_ZTV6idCVar+8@l(9)
	stw 0,0(3)
.LBE431:
	blr
	.cfi_endproc
.LFE2175:
	.size	_ZN6idCVarD2Ev, .-_ZN6idCVarD2Ev
	.section	.text._ZN6idCVar17InternalSetStringEPKc,"axG",@progbits,_ZN6idCVar17InternalSetStringEPKc,comdat
	.align 2
	.weak	_ZN6idCVar17InternalSetStringEPKc
	.type	_ZN6idCVar17InternalSetStringEPKc, @function
_ZN6idCVar17InternalSetStringEPKc:
.LFB2197:
	.loc 2 173 0
	.cfi_startproc
.LVL2:
	.loc 2 173 0
	blr
	.cfi_endproc
.LFE2197:
	.size	_ZN6idCVar17InternalSetStringEPKc, .-_ZN6idCVar17InternalSetStringEPKc
	.section	.text._ZN6idCVar15InternalSetBoolEb,"axG",@progbits,_ZN6idCVar15InternalSetBoolEb,comdat
	.align 2
	.weak	_ZN6idCVar15InternalSetBoolEb
	.type	_ZN6idCVar15InternalSetBoolEb, @function
_ZN6idCVar15InternalSetBoolEb:
.LFB2198:
	.loc 2 174 0
	.cfi_startproc
.LVL3:
	.loc 2 174 0
	blr
	.cfi_endproc
.LFE2198:
	.size	_ZN6idCVar15InternalSetBoolEb, .-_ZN6idCVar15InternalSetBoolEb
	.section	.text._ZN6idCVar18InternalSetIntegerEi,"axG",@progbits,_ZN6idCVar18InternalSetIntegerEi,comdat
	.align 2
	.weak	_ZN6idCVar18InternalSetIntegerEi
	.type	_ZN6idCVar18InternalSetIntegerEi, @function
_ZN6idCVar18InternalSetIntegerEi:
.LFB2199:
	.loc 2 175 0
	.cfi_startproc
.LVL4:
	.loc 2 175 0
	blr
	.cfi_endproc
.LFE2199:
	.size	_ZN6idCVar18InternalSetIntegerEi, .-_ZN6idCVar18InternalSetIntegerEi
	.section	.text._ZN6idCVar16InternalSetFloatEf,"axG",@progbits,_ZN6idCVar16InternalSetFloatEf,comdat
	.align 2
	.weak	_ZN6idCVar16InternalSetFloatEf
	.type	_ZN6idCVar16InternalSetFloatEf, @function
_ZN6idCVar16InternalSetFloatEf:
.LFB2200:
	.loc 2 176 0
	.cfi_startproc
.LVL5:
	.loc 2 176 0
	blr
	.cfi_endproc
.LFE2200:
	.size	_ZN6idCVar16InternalSetFloatEf, .-_ZN6idCVar16InternalSetFloatEf
	.section	".text"
	.align 2
	.globl _ZN10idSysLocal18GetProcessorStringEv
	.type	_ZN10idSysLocal18GetProcessorStringEv, @function
_ZN10idSysLocal18GetProcessorStringEv:
.LFB2549:
	.file 3 "d:/Data/Nintendo/DoomGX/src/sys/sys_local.cpp"
	.loc 3 71 0
	.cfi_startproc
.LVL6:
	.loc 3 72 0
	lis 3,.LC0@ha
.LVL7:
	.loc 3 73 0
	la 3,.LC0@l(3)
	blr
	.cfi_endproc
.LFE2549:
	.size	_ZN10idSysLocal18GetProcessorStringEv, .-_ZN10idSysLocal18GetProcessorStringEv
	.align 2
	.globl _ZN10idSysLocal10LockMemoryEPvi
	.type	_ZN10idSysLocal10LockMemoryEPvi, @function
_ZN10idSysLocal10LockMemoryEPvi:
.LFB2554:
	.loc 3 100 0
	.cfi_startproc
.LVL8:
	.loc 3 103 0
	li 3,1
.LVL9:
	blr
	.cfi_endproc
.LFE2554:
	.size	_ZN10idSysLocal10LockMemoryEPvi, .-_ZN10idSysLocal10LockMemoryEPvi
	.align 2
	.globl _ZN10idSysLocal12UnlockMemoryEPvi
	.type	_ZN10idSysLocal12UnlockMemoryEPvi, @function
_ZN10idSysLocal12UnlockMemoryEPvi:
.LFB2555:
	.loc 3 106 0
	.cfi_startproc
.LVL10:
	.loc 3 109 0
	li 3,1
.LVL11:
	blr
	.cfi_endproc
.LFE2555:
	.size	_ZN10idSysLocal12UnlockMemoryEPvi, .-_ZN10idSysLocal12UnlockMemoryEPvi
	.align 2
	.globl _ZN10idSysLocal24GenerateMouseButtonEventEib
	.type	_ZN10idSysLocal24GenerateMouseButtonEventEib, @function
_ZN10idSysLocal24GenerateMouseButtonEventEib:
.LFB2564:
	.loc 3 158 0
	.cfi_startproc
.LVL12:
.LBB432:
	.loc 3 163 0
	li 0,0
	.loc 3 161 0
	addi 5,5,186
.LVL13:
	.loc 3 160 0
	li 11,1
	.loc 3 161 0
	stw 5,8(3)
	.loc 3 160 0
	stw 11,4(3)
.LBE432:
	.loc 3 166 0
.LBB433:
	.loc 3 162 0
	stw 6,12(3)
	.loc 3 163 0
	stw 0,16(3)
	.loc 3 164 0
	stw 0,20(3)
.LBE433:
	.loc 3 166 0
	blr
	.cfi_endproc
.LFE2564:
	.size	_ZN10idSysLocal24GenerateMouseButtonEventEib, .-_ZN10idSysLocal24GenerateMouseButtonEventEib
	.align 2
	.globl _ZN10idSysLocal22GenerateMouseMoveEventEii
	.type	_ZN10idSysLocal22GenerateMouseMoveEventEii, @function
_ZN10idSysLocal22GenerateMouseMoveEventEii:
.LFB2565:
	.loc 3 168 0
	.cfi_startproc
.LVL14:
.LBB434:
	.loc 3 173 0
	li 0,0
	.loc 3 170 0
	li 11,3
	stw 11,4(3)
.LBE434:
	.loc 3 176 0
.LBB435:
	.loc 3 171 0
	stw 5,8(3)
	.loc 3 172 0
	stw 6,12(3)
	.loc 3 173 0
	stw 0,16(3)
	.loc 3 174 0
	stw 0,20(3)
.LBE435:
	.loc 3 176 0
	blr
	.cfi_endproc
.LFE2565:
	.size	_ZN10idSysLocal22GenerateMouseMoveEventEii, .-_ZN10idSysLocal22GenerateMouseMoveEventEii
	.section	.text._ZN9idWinding5ClearEv,"axG",@progbits,_ZN9idWinding5ClearEv,comdat
	.align 2
	.weak	_ZN9idWinding5ClearEv
	.type	_ZN9idWinding5ClearEv, @function
_ZN9idWinding5ClearEv:
.LFB1473:
	.loc 1 249 0
	.cfi_startproc
.LVL15:
	mflr 0
	stwu 1,-16(1)
.LCFI0:
	.cfi_def_cfa_offset 16
	.cfi_register 65, 0
	stw 31,12(1)
	mr 31,3
	.cfi_offset 31, -4
	stw 0,20(1)
	.loc 1 250 0
	li 0,0
	.cfi_offset 65, 4
	.loc 1 251 0
	lwz 3,8(3)
.LVL16:
	.loc 1 250 0
	stw 0,4(31)
	.loc 1 251 0
	cmpwi 7,3,0
	beq- 7,.L14
	.loc 1 251 0 is_stmt 0 discriminator 1
	bl _ZdaPv
.L14:
	.loc 1 252 0 is_stmt 1
	li 0,0
	stw 0,8(31)
	.loc 1 253 0
	lwz 0,20(1)
	lwz 31,12(1)
.LVL17:
	mtlr 0
	addi 1,1,16
.LCFI1:
	.cfi_def_cfa_offset 0
	.cfi_restore 31
	blr
	.cfi_endproc
.LFE1473:
	.size	_ZN9idWinding5ClearEv, .-_ZN9idWinding5ClearEv
	.section	.text._ZN9idWindingD2Ev,"axG",@progbits,_ZN9idWindingD5Ev,comdat
	.align 2
	.weak	_ZN9idWindingD2Ev
	.type	_ZN9idWindingD2Ev, @function
_ZN9idWindingD2Ev:
.LFB1461:
	.loc 1 183 0
	.cfi_startproc
.LVL18:
	mflr 0
	stwu 1,-16(1)
.LCFI2:
	.cfi_def_cfa_offset 16
	.cfi_register 65, 0
.LBB437:
	lis 9,_ZTV9idWinding+8@ha
.LBE437:
	stw 31,12(1)
	mr 31,3
	.cfi_offset 31, -4
	stw 0,20(1)
.LBB438:
	.loc 1 183 0
	la 0,_ZTV9idWinding+8@l(9)
	.cfi_offset 65, 4
	.loc 1 184 0
	lwz 3,8(3)
.LVL19:
	.loc 1 183 0
	stw 0,0(31)
	.loc 1 184 0
	cmpwi 7,3,0
	beq- 7,.L17
	.loc 1 184 0 is_stmt 0 discriminator 1
	bl _ZdaPv
.L17:
	.loc 1 185 0 is_stmt 1
	li 0,0
	stw 0,8(31)
.LBE438:
	.loc 1 186 0
	lwz 0,20(1)
	lwz 31,12(1)
.LVL20:
	mtlr 0
	addi 1,1,16
.LCFI3:
	.cfi_def_cfa_offset 0
	.cfi_restore 31
	blr
	.cfi_endproc
.LFE1461:
	.size	_ZN9idWindingD2Ev, .-_ZN9idWindingD2Ev
	.section	.text._ZN6idCVarD0Ev,"axG",@progbits,_ZN6idCVarD5Ev,comdat
	.align 2
	.weak	_ZN6idCVarD0Ev
	.type	_ZN6idCVarD0Ev, @function
_ZN6idCVarD0Ev:
.LFB2177:
	.loc 2 127 0
	.cfi_startproc
.LVL21:
	mflr 0
	stwu 1,-8(1)
.LCFI4:
	.cfi_def_cfa_offset 8
	.cfi_register 65, 0
.LBB439:
.LBB440:
.LBB441:
	lis 9,_ZTV6idCVar+8@ha
.LBE441:
.LBE440:
.LBE439:
	stw 0,12(1)
.LBB444:
.LBB443:
.LBB442:
	.loc 2 127 0
	la 0,_ZTV6idCVar+8@l(9)
	.cfi_offset 65, 4
	stw 0,0(3)
.LBE442:
.LBE443:
.LBE444:
	bl _ZdlPv
.LVL22:
	lwz 0,12(1)
	addi 1,1,8
.LCFI5:
	.cfi_def_cfa_offset 0
	mtlr 0
	blr
	.cfi_endproc
.LFE2177:
	.size	_ZN6idCVarD0Ev, .-_ZN6idCVarD0Ev
	.section	.text._ZN11idCmdSystem20ArgCompletion_StringIXadL_Z16sysLanguageNamesEEEEvRK9idCmdArgsPFvPKcE,"axG",@progbits,_ZN11idCmdSystem20ArgCompletion_StringIXadL_Z16sysLanguageNamesEEEEvRK9idCmdArgsPFvPKcE,comdat
	.align 2
	.weak	_ZN11idCmdSystem20ArgCompletion_StringIXadL_Z16sysLanguageNamesEEEEvRK9idCmdArgsPFvPKcE
	.type	_ZN11idCmdSystem20ArgCompletion_StringIXadL_Z16sysLanguageNamesEEEEvRK9idCmdArgsPFvPKcE, @function
_ZN11idCmdSystem20ArgCompletion_StringIXadL_Z16sysLanguageNamesEEEEvRK9idCmdArgsPFvPKcE:
.LFB2738:
	.file 4 "d:/Data/Nintendo/DoomGX/src/sys/../idlib/../framework/CmdSystem.h"
	.loc 4 142 0
	.cfi_startproc
.LVL23:
	stwu 1,-32(1)
.LCFI6:
	.cfi_def_cfa_offset 32
	mflr 0
	stw 31,28(1)
.LBB445:
	.loc 4 143 0
	lis 31,.LANCHOR0@ha
	.cfi_offset 31, -4
	.cfi_register 65, 0
	lwz 5,.LANCHOR0@l(31)
	la 31,.LANCHOR0@l(31)
.LBE445:
	.loc 4 142 0
	stw 30,24(1)
	mr 30,3
	.cfi_offset 30, -8
.LBB450:
	.loc 4 143 0
	cmpwi 7,5,0
.LBE450:
	.loc 4 142 0
	stw 0,36(1)
	stw 28,16(1)
	stw 29,20(1)
	.loc 4 142 0
	stw 4,8(1)
.LBB451:
	.loc 4 143 0
	beq- 7,.L22
	.cfi_offset 29, -12
	.cfi_offset 28, -16
	.cfi_offset 65, 4
	lis 29,.LC2@ha
.LBB446:
.LBB447:
	.file 5 "d:/Data/Nintendo/DoomGX/src/sys/../idlib/../idlib/CmdArgs.h"
	.loc 5 50 0
	lis 28,.LC1@ha
	la 29,.LC2@l(29)
	b .L25
.LVL24:
.L28:
	lwz 4,4(30)
.LBE447:
.LBE446:
	.loc 4 144 0
	mr 3,29
	crxor 6,6,6
	bl _Z2vaPKcz
	lwz 0,8(1)
	mtctr 0
	bctrl
	.loc 4 143 0
	lwzu 5,4(31)
	cmpwi 7,5,0
	beq- 7,.L22
.LVL25:
.L25:
.LBB449:
.LBB448:
	.loc 5 50 0
	lwz 0,0(30)
	cmpwi 7,0,0
	bgt+ 7,.L28
	la 4,.LC1@l(28)
.LBE448:
.LBE449:
	.loc 4 144 0
	mr 3,29
	crxor 6,6,6
	bl _Z2vaPKcz
	lwz 0,8(1)
	mtctr 0
	bctrl
	.loc 4 143 0
	lwzu 5,4(31)
	cmpwi 7,5,0
	bne+ 7,.L25
.LVL26:
.L22:
.LBE451:
	.loc 4 146 0
	lwz 0,36(1)
	lwz 28,16(1)
	mtlr 0
	lwz 29,20(1)
	lwz 30,24(1)
.LVL27:
	lwz 31,28(1)
	addi 1,1,32
.LCFI7:
	.cfi_def_cfa_offset 0
	.cfi_restore 31
	.cfi_restore 30
	.cfi_restore 29
	.cfi_restore 28
	blr
	.cfi_endproc
.LFE2738:
	.size	_ZN11idCmdSystem20ArgCompletion_StringIXadL_Z16sysLanguageNamesEEEEvRK9idCmdArgsPFvPKcE, .-_ZN11idCmdSystem20ArgCompletion_StringIXadL_Z16sysLanguageNamesEEEEvRK9idCmdArgsPFvPKcE
	.section	".text"
	.align 2
	.globl _ZN10idSysLocal20FPU_EnableExceptionsEi
	.type	_ZN10idSysLocal20FPU_EnableExceptionsEi, @function
_ZN10idSysLocal20FPU_EnableExceptionsEi:
.LFB2566:
	.loc 3 179 0
	.cfi_startproc
.LVL28:
	mflr 0
	stwu 1,-8(1)
.LCFI8:
	.cfi_def_cfa_offset 8
	.cfi_register 65, 0
	.loc 3 180 0
	lis 3,.LC3@ha
.LVL29:
	la 3,.LC3@l(3)
	.loc 3 179 0
	stw 0,12(1)
	.loc 3 180 0
	.cfi_offset 65, 4
	crxor 6,6,6
	bl _Z10Sys_PrintfPKcz
.LVL30:
	.loc 3 181 0
	lwz 0,12(1)
	addi 1,1,8
.LCFI9:
	.cfi_def_cfa_offset 0
	mtlr 0
	blr
	.cfi_endproc
.LFE2566:
	.size	_ZN10idSysLocal20FPU_EnableExceptionsEi, .-_ZN10idSysLocal20FPU_EnableExceptionsEi
	.align 2
	.globl _ZN10idSysLocal15DLL_GetFileNameEPKcPci
	.type	_ZN10idSysLocal15DLL_GetFileNameEPKcPci, @function
_ZN10idSysLocal15DLL_GetFileNameEPKcPci:
.LFB2563:
	.loc 3 153 0
	.cfi_startproc
.LVL31:
	mflr 0
	stwu 1,-8(1)
.LCFI10:
	.cfi_def_cfa_offset 8
	.cfi_register 65, 0
	.loc 3 154 0
	lis 3,.LC4@ha
.LVL32:
	la 3,.LC4@l(3)
	.loc 3 153 0
	stw 0,12(1)
	.loc 3 154 0
	.cfi_offset 65, 4
	crxor 6,6,6
	bl _Z10Sys_PrintfPKcz
.LVL33:
	.loc 3 155 0
	lwz 0,12(1)
	addi 1,1,8
.LCFI11:
	.cfi_def_cfa_offset 0
	mtlr 0
	blr
	.cfi_endproc
.LFE2563:
	.size	_ZN10idSysLocal15DLL_GetFileNameEPKcPci, .-_ZN10idSysLocal15DLL_GetFileNameEPKcPci
	.align 2
	.globl _ZN10idSysLocal10DLL_UnloadEi
	.type	_ZN10idSysLocal10DLL_UnloadEi, @function
_ZN10idSysLocal10DLL_UnloadEi:
.LFB2562:
	.loc 3 148 0
	.cfi_startproc
.LVL34:
	mflr 0
	stwu 1,-8(1)
.LCFI12:
	.cfi_def_cfa_offset 8
	.cfi_register 65, 0
	.loc 3 149 0
	lis 3,.LC5@ha
.LVL35:
	la 3,.LC5@l(3)
	.loc 3 148 0
	stw 0,12(1)
	.loc 3 149 0
	.cfi_offset 65, 4
	crxor 6,6,6
	bl _Z10Sys_PrintfPKcz
.LVL36:
	.loc 3 150 0
	lwz 0,12(1)
	addi 1,1,8
.LCFI13:
	.cfi_def_cfa_offset 0
	mtlr 0
	blr
	.cfi_endproc
.LFE2562:
	.size	_ZN10idSysLocal10DLL_UnloadEi, .-_ZN10idSysLocal10DLL_UnloadEi
	.align 2
	.globl _ZN10idSysLocal18DLL_GetProcAddressEiPKc
	.type	_ZN10idSysLocal18DLL_GetProcAddressEiPKc, @function
_ZN10idSysLocal18DLL_GetProcAddressEiPKc:
.LFB2561:
	.loc 3 142 0
	.cfi_startproc
.LVL37:
	mflr 0
	stwu 1,-8(1)
.LCFI14:
	.cfi_def_cfa_offset 8
	.cfi_register 65, 0
	.loc 3 143 0
	lis 3,.LC6@ha
.LVL38:
	la 3,.LC6@l(3)
	.loc 3 142 0
	stw 0,12(1)
	.loc 3 143 0
	.cfi_offset 65, 4
	crxor 6,6,6
	bl _Z10Sys_PrintfPKcz
.LVL39:
	.loc 3 145 0
	lwz 0,12(1)
	li 3,0
	addi 1,1,8
.LCFI15:
	.cfi_def_cfa_offset 0
	mtlr 0
	blr
	.cfi_endproc
.LFE2561:
	.size	_ZN10idSysLocal18DLL_GetProcAddressEiPKc, .-_ZN10idSysLocal18DLL_GetProcAddressEiPKc
	.align 2
	.globl _ZN10idSysLocal8DLL_LoadEPKc
	.type	_ZN10idSysLocal8DLL_LoadEPKc, @function
_ZN10idSysLocal8DLL_LoadEPKc:
.LFB2560:
	.loc 3 134 0
	.cfi_startproc
.LVL40:
	mflr 0
	stwu 1,-8(1)
.LCFI16:
	.cfi_def_cfa_offset 8
	.cfi_register 65, 0
.LBB452:
	.loc 3 137 0
	lis 3,.LC7@ha
.LVL41:
	la 3,.LC7@l(3)
.LBE452:
	.loc 3 134 0
	stw 0,12(1)
.LBB453:
	.loc 3 137 0
	.cfi_offset 65, 4
	crxor 6,6,6
	bl _Z10Sys_PrintfPKcz
.LVL42:
.LBE453:
	.loc 3 139 0
	lwz 0,12(1)
	li 3,0
	addi 1,1,8
.LCFI17:
	.cfi_def_cfa_offset 0
	mtlr 0
	blr
	.cfi_endproc
.LFE2560:
	.size	_ZN10idSysLocal8DLL_LoadEPKc, .-_ZN10idSysLocal8DLL_LoadEPKc
	.align 2
	.globl _ZN10idSysLocal15ShutdownSymbolsEv
	.type	_ZN10idSysLocal15ShutdownSymbolsEv, @function
_ZN10idSysLocal15ShutdownSymbolsEv:
.LFB2559:
	.loc 3 129 0
	.cfi_startproc
.LVL43:
	mflr 0
	stwu 1,-8(1)
.LCFI18:
	.cfi_def_cfa_offset 8
	.cfi_register 65, 0
	.loc 3 130 0
	lis 3,.LC8@ha
.LVL44:
	la 3,.LC8@l(3)
	.loc 3 129 0
	stw 0,12(1)
	.loc 3 130 0
	.cfi_offset 65, 4
	crxor 6,6,6
	bl _Z10Sys_PrintfPKcz
	.loc 3 131 0
	lwz 0,12(1)
	addi 1,1,8
.LCFI19:
	.cfi_def_cfa_offset 0
	mtlr 0
	blr
	.cfi_endproc
.LFE2559:
	.size	_ZN10idSysLocal15ShutdownSymbolsEv, .-_ZN10idSysLocal15ShutdownSymbolsEv
	.align 2
	.globl _ZN10idSysLocal18GetCallStackCurStrEi
	.type	_ZN10idSysLocal18GetCallStackCurStrEi, @function
_ZN10idSysLocal18GetCallStackCurStrEi:
.LFB2558:
	.loc 3 123 0
	.cfi_startproc
.LVL45:
	mflr 0
	stwu 1,-8(1)
.LCFI20:
	.cfi_def_cfa_offset 8
	.cfi_register 65, 0
	.loc 3 124 0
	lis 3,.LC9@ha
.LVL46:
	la 3,.LC9@l(3)
	.loc 3 123 0
	stw 0,12(1)
	.loc 3 124 0
	.cfi_offset 65, 4
	crxor 6,6,6
	bl _Z10Sys_PrintfPKcz
.LVL47:
	.loc 3 126 0
	lwz 0,12(1)
	li 3,0
	addi 1,1,8
.LCFI21:
	.cfi_def_cfa_offset 0
	mtlr 0
	blr
	.cfi_endproc
.LFE2558:
	.size	_ZN10idSysLocal18GetCallStackCurStrEi, .-_ZN10idSysLocal18GetCallStackCurStrEi
	.align 2
	.globl _ZN10idSysLocal15GetCallStackStrEPKmi
	.type	_ZN10idSysLocal15GetCallStackStrEPKmi, @function
_ZN10idSysLocal15GetCallStackStrEPKmi:
.LFB2557:
	.loc 3 117 0
	.cfi_startproc
.LVL48:
	mflr 0
	stwu 1,-8(1)
.LCFI22:
	.cfi_def_cfa_offset 8
	.cfi_register 65, 0
	.loc 3 118 0
	lis 3,.LC10@ha
.LVL49:
	la 3,.LC10@l(3)
	.loc 3 117 0
	stw 0,12(1)
	.loc 3 118 0
	.cfi_offset 65, 4
	crxor 6,6,6
	bl _Z10Sys_PrintfPKcz
.LVL50:
	.loc 3 120 0
	lwz 0,12(1)
	li 3,0
	addi 1,1,8
.LCFI23:
	.cfi_def_cfa_offset 0
	mtlr 0
	blr
	.cfi_endproc
.LFE2557:
	.size	_ZN10idSysLocal15GetCallStackStrEPKmi, .-_ZN10idSysLocal15GetCallStackStrEPKmi
	.align 2
	.globl _ZN10idSysLocal12GetCallStackEPmi
	.type	_ZN10idSysLocal12GetCallStackEPmi, @function
_ZN10idSysLocal12GetCallStackEPmi:
.LFB2556:
	.loc 3 112 0
	.cfi_startproc
.LVL51:
	mflr 0
	stwu 1,-8(1)
.LCFI24:
	.cfi_def_cfa_offset 8
	.cfi_register 65, 0
	.loc 3 113 0
	lis 3,.LC11@ha
.LVL52:
	la 3,.LC11@l(3)
	.loc 3 112 0
	stw 0,12(1)
	.loc 3 113 0
	.cfi_offset 65, 4
	crxor 6,6,6
	bl _Z10Sys_PrintfPKcz
.LVL53:
	.loc 3 114 0
	lwz 0,12(1)
	addi 1,1,8
.LCFI25:
	.cfi_def_cfa_offset 0
	mtlr 0
	blr
	.cfi_endproc
.LFE2556:
	.size	_ZN10idSysLocal12GetCallStackEPmi, .-_ZN10idSysLocal12GetCallStackEPmi
	.align 2
	.globl _ZN10idSysLocal10FPU_SetDAZEb
	.type	_ZN10idSysLocal10FPU_SetDAZEb, @function
_ZN10idSysLocal10FPU_SetDAZEb:
.LFB2553:
	.loc 3 95 0
	.cfi_startproc
.LVL54:
	mflr 0
	stwu 1,-8(1)
.LCFI26:
	.cfi_def_cfa_offset 8
	.cfi_register 65, 0
	.loc 3 96 0
	lis 3,.LC12@ha
.LVL55:
	la 3,.LC12@l(3)
	.loc 3 95 0
	stw 0,12(1)
	.loc 3 96 0
	.cfi_offset 65, 4
	crxor 6,6,6
	bl _Z10Sys_PrintfPKcz
.LVL56:
	.loc 3 97 0
	lwz 0,12(1)
	addi 1,1,8
.LCFI27:
	.cfi_def_cfa_offset 0
	mtlr 0
	blr
	.cfi_endproc
.LFE2553:
	.size	_ZN10idSysLocal10FPU_SetDAZEb, .-_ZN10idSysLocal10FPU_SetDAZEb
	.align 2
	.globl _ZN10idSysLocal10FPU_SetFTZEb
	.type	_ZN10idSysLocal10FPU_SetFTZEb, @function
_ZN10idSysLocal10FPU_SetFTZEb:
.LFB2552:
	.loc 3 90 0
	.cfi_startproc
.LVL57:
	mflr 0
	stwu 1,-8(1)
.LCFI28:
	.cfi_def_cfa_offset 8
	.cfi_register 65, 0
	.loc 3 91 0
	lis 3,.LC13@ha
.LVL58:
	la 3,.LC13@l(3)
	.loc 3 90 0
	stw 0,12(1)
	.loc 3 91 0
	.cfi_offset 65, 4
	crxor 6,6,6
	bl _Z10Sys_PrintfPKcz
.LVL59:
	.loc 3 92 0
	lwz 0,12(1)
	addi 1,1,8
.LCFI29:
	.cfi_def_cfa_offset 0
	mtlr 0
	blr
	.cfi_endproc
.LFE2552:
	.size	_ZN10idSysLocal10FPU_SetFTZEb, .-_ZN10idSysLocal10FPU_SetFTZEb
	.align 2
	.globl _ZN10idSysLocal16FPU_StackIsEmptyEv
	.type	_ZN10idSysLocal16FPU_StackIsEmptyEv, @function
_ZN10idSysLocal16FPU_StackIsEmptyEv:
.LFB2551:
	.loc 3 82 0
	.cfi_startproc
.LVL60:
	mflr 0
	stwu 1,-8(1)
.LCFI30:
	.cfi_def_cfa_offset 8
	.cfi_register 65, 0
.LBB454:
	.loc 3 85 0
	lis 3,.LC14@ha
.LVL61:
	la 3,.LC14@l(3)
.LBE454:
	.loc 3 82 0
	stw 0,12(1)
.LBB455:
	.loc 3 85 0
	.cfi_offset 65, 4
	crxor 6,6,6
	bl _Z10Sys_PrintfPKcz
.LBE455:
	.loc 3 87 0
	lwz 0,12(1)
	li 3,0
	addi 1,1,8
.LCFI31:
	.cfi_def_cfa_offset 0
	mtlr 0
	blr
	.cfi_endproc
.LFE2551:
	.size	_ZN10idSysLocal16FPU_StackIsEmptyEv, .-_ZN10idSysLocal16FPU_StackIsEmptyEv
	.align 2
	.globl _ZN10idSysLocal12FPU_GetStateEv
	.type	_ZN10idSysLocal12FPU_GetStateEv, @function
_ZN10idSysLocal12FPU_GetStateEv:
.LFB2550:
	.loc 3 76 0
	.cfi_startproc
.LVL62:
	mflr 0
	stwu 1,-8(1)
.LCFI32:
	.cfi_def_cfa_offset 8
	.cfi_register 65, 0
	.loc 3 77 0
	lis 3,.LC15@ha
.LVL63:
	la 3,.LC15@l(3)
	.loc 3 76 0
	stw 0,12(1)
	.loc 3 77 0
	.cfi_offset 65, 4
	crxor 6,6,6
	bl _Z10Sys_PrintfPKcz
	.loc 3 79 0
	lwz 0,12(1)
	li 3,0
	addi 1,1,8
.LCFI33:
	.cfi_def_cfa_offset 0
	mtlr 0
	blr
	.cfi_endproc
.LFE2550:
	.size	_ZN10idSysLocal12FPU_GetStateEv, .-_ZN10idSysLocal12FPU_GetStateEv
	.align 2
	.globl _ZN10idSysLocal14GetProcessorIdEv
	.type	_ZN10idSysLocal14GetProcessorIdEv, @function
_ZN10idSysLocal14GetProcessorIdEv:
.LFB2548:
	.loc 3 63 0
	.cfi_startproc
.LVL64:
	mflr 0
	stwu 1,-8(1)
.LCFI34:
	.cfi_def_cfa_offset 8
	.cfi_register 65, 0
.LBB456:
	.loc 3 66 0
	lis 3,.LC16@ha
.LVL65:
	la 3,.LC16@l(3)
.LBE456:
	.loc 3 63 0
	stw 0,12(1)
.LBB457:
	.loc 3 66 0
	.cfi_offset 65, 4
	crxor 6,6,6
	bl _Z10Sys_PrintfPKcz
.LBE457:
	.loc 3 68 0
	lwz 0,12(1)
	li 3,0
	addi 1,1,8
.LCFI35:
	.cfi_def_cfa_offset 0
	mtlr 0
	blr
	.cfi_endproc
.LFE2548:
	.size	_ZN10idSysLocal14GetProcessorIdEv, .-_ZN10idSysLocal14GetProcessorIdEv
	.align 2
	.globl _ZN10idSysLocal12DebugVPrintfEPKcP13__va_list_tag
	.type	_ZN10idSysLocal12DebugVPrintfEPKcP13__va_list_tag, @function
_ZN10idSysLocal12DebugVPrintfEPKcP13__va_list_tag:
.LFB2545:
	.loc 3 48 0
	.cfi_startproc
.LVL66:
	mflr 0
	stwu 1,-8(1)
.LCFI36:
	.cfi_def_cfa_offset 8
	.cfi_register 65, 0
	.loc 3 49 0
	lis 3,.LC17@ha
.LVL67:
	la 3,.LC17@l(3)
	.loc 3 48 0
	stw 0,12(1)
	.loc 3 49 0
	.cfi_offset 65, 4
	crxor 6,6,6
	bl _Z10Sys_PrintfPKcz
.LVL68:
	.loc 3 50 0
	lwz 0,12(1)
	addi 1,1,8
.LCFI37:
	.cfi_def_cfa_offset 0
	mtlr 0
	blr
	.cfi_endproc
.LFE2545:
	.size	_ZN10idSysLocal12DebugVPrintfEPKcP13__va_list_tag, .-_ZN10idSysLocal12DebugVPrintfEPKcP13__va_list_tag
	.align 2
	.globl _ZN10idSysLocal11DebugPrintfEPKcz
	.type	_ZN10idSysLocal11DebugPrintfEPKcz, @function
_ZN10idSysLocal11DebugPrintfEPKcz:
.LFB2544:
	.loc 3 43 0
	.cfi_startproc
.LVL69:
	mflr 0
	stwu 1,-8(1)
.LCFI38:
	.cfi_def_cfa_offset 8
	.cfi_register 65, 0
	.loc 3 44 0
	lis 3,.LC18@ha
.LVL70:
	la 3,.LC18@l(3)
	.loc 3 43 0
	stw 0,12(1)
	.loc 3 44 0
	.cfi_offset 65, 4
	crxor 6,6,6
	bl _Z10Sys_PrintfPKcz
.LVL71:
	.loc 3 45 0
	lwz 0,12(1)
	addi 1,1,8
.LCFI39:
	.cfi_def_cfa_offset 0
	mtlr 0
	blr
	.cfi_endproc
.LFE2544:
	.size	_ZN10idSysLocal11DebugPrintfEPKcz, .-_ZN10idSysLocal11DebugPrintfEPKcz
	.align 2
	.globl _ZN10idSysLocal19ClockTicksPerSecondEv
	.type	_ZN10idSysLocal19ClockTicksPerSecondEv, @function
_ZN10idSysLocal19ClockTicksPerSecondEv:
.LFB2547:
	.loc 3 58 0
	.cfi_startproc
.LVL72:
	mflr 0
	stwu 1,-8(1)
.LCFI40:
	.cfi_def_cfa_offset 8
	.cfi_register 65, 0
	stw 0,12(1)
	.loc 3 59 0
	.cfi_offset 65, 4
	bl _Z23Sys_ClockTicksPerSecondv
.LVL73:
	.loc 3 60 0
	lwz 0,12(1)
	addi 1,1,8
.LCFI41:
	.cfi_def_cfa_offset 0
	mtlr 0
	blr
	.cfi_endproc
.LFE2547:
	.size	_ZN10idSysLocal19ClockTicksPerSecondEv, .-_ZN10idSysLocal19ClockTicksPerSecondEv
	.align 2
	.globl _ZN10idSysLocal13GetClockTicksEv
	.type	_ZN10idSysLocal13GetClockTicksEv, @function
_ZN10idSysLocal13GetClockTicksEv:
.LFB2546:
	.loc 3 53 0
	.cfi_startproc
.LVL74:
	mflr 0
	stwu 1,-8(1)
.LCFI42:
	.cfi_def_cfa_offset 8
	.cfi_register 65, 0
	stw 0,12(1)
	.loc 3 54 0
	.cfi_offset 65, 4
	bl _Z17Sys_GetClockTicksv
.LVL75:
	.loc 3 55 0
	lwz 0,12(1)
	addi 1,1,8
.LCFI43:
	.cfi_def_cfa_offset 0
	mtlr 0
	blr
	.cfi_endproc
.LFE2546:
	.size	_ZN10idSysLocal13GetClockTicksEv, .-_ZN10idSysLocal13GetClockTicksEv
	.align 2
	.type	_Z41__static_initialization_and_destruction_0ii.constprop.11, @function
_Z41__static_initialization_and_destruction_0ii.constprop.11:
.LFB2814:
	.loc 3 234 0
	.cfi_startproc
.LVL76:
	cmpwi 7,3,1
	mflr 0
	stwu 1,-8(1)
.LCFI44:
	.cfi_def_cfa_offset 8
	.cfi_register 65, 0
	stw 0,12(1)
	.loc 3 234 0
	beq- 7,.L52
	.cfi_offset 65, 4
	.loc 3 40 0
	cmpwi 7,3,0
	bne- 7,.L47
.LVL77:
.LBB458:
.LBB459:
.LBB460:
	.loc 2 127 0
	lis 9,_ZTV6idCVar+8@ha
	la 0,_ZTV6idCVar+8@l(9)
	lis 9,.LANCHOR1@ha
	stw 0,.LANCHOR1@l(9)
.LVL78:
.L47:
.LBE460:
.LBE459:
.LBE458:
	.loc 3 234 0
	lwz 0,12(1)
	addi 1,1,8
	.cfi_remember_state
.LCFI45:
	.cfi_def_cfa_offset 0
	mtlr 0
	blr
.LVL79:
.L52:
.LCFI46:
	.cfi_restore_state
.LBB461:
.LBB462:
	.loc 2 195 0
	lis 10,_ZTV6idCVar+8@ha
	lis 9,.LANCHOR1@ha
	la 10,_ZTV6idCVar+8@l(10)
	la 4,.LANCHOR1@l(9)
	stw 10,.LANCHOR1@l(9)
.LVL80:
.LBB463:
.LBB464:
	.loc 2 280 0
	lis 9,.LC19@ha
	la 9,.LC19@l(9)
	.loc 2 292 0
	lis 11,_ZN6idCVar10staticVarsE@ha
	.loc 2 280 0
	stw 9,4(4)
	.loc 2 281 0
	lis 9,.LC20@ha
	la 9,.LC20@l(9)
	.loc 2 292 0
	lwz 0,_ZN6idCVar10staticVarsE@l(11)
	.loc 2 281 0
	stw 9,8(4)
	.loc 2 283 0
	lis 9,.LC1@ha
	la 9,.LC1@l(9)
	.loc 2 292 0
	cmpwi 7,0,-1
	.loc 2 283 0
	stw 9,12(4)
	.loc 2 284 0
	lis 9,0x2
	ori 9,9,4104
	.loc 2 291 0
	stw 4,44(4)
	.loc 2 284 0
	stw 9,16(4)
	.loc 2 285 0
	lis 9,.LC21@ha
	lwz 9,.LC21@l(9)
	stw 9,20(4)
	.loc 2 286 0
	lis 9,.LC22@ha
	lwz 9,.LC22@l(9)
	stw 9,24(4)
	.loc 2 287 0
	lis 9,.LANCHOR0@ha
	la 9,.LANCHOR0@l(9)
	stw 9,28(4)
	.loc 2 288 0
	lis 9,_ZN11idCmdSystem20ArgCompletion_StringIXadL_Z16sysLanguageNamesEEEEvRK9idCmdArgsPFvPKcE@ha
	la 9,_ZN11idCmdSystem20ArgCompletion_StringIXadL_Z16sysLanguageNamesEEEEvRK9idCmdArgsPFvPKcE@l(9)
	stw 9,32(4)
	.loc 2 289 0
	li 9,0
	stw 9,36(4)
	.loc 2 290 0
	li 9,0
	stw 9,40(4)
	.loc 2 292 0
	beq- 7,.L49
	.loc 2 293 0
	stw 0,48(4)
	.loc 2 294 0
	stw 4,_ZN6idCVar10staticVarsE@l(11)
.LVL81:
.L50:
.LBE464:
.LBE463:
.LBE462:
.LBE461:
.LBB468:
.LBB469:
	.file 6 "d:/Data/Nintendo/DoomGX/src/sys/sys_local.h"
	.loc 6 40 0
	lis 9,_ZTV10idSysLocal+8@ha
	la 0,_ZTV10idSysLocal+8@l(9)
	lis 9,sysLocal@ha
	stw 0,sysLocal@l(9)
	b .L47
.LVL82:
.L49:
.LBE469:
.LBE468:
.LBB470:
.LBB467:
.LBB466:
.LBB465:
	.loc 2 296 0
	lis 9,cvarSystem@ha
	lwz 3,cvarSystem@l(9)
.LVL83:
	lwz 9,0(3)
	lwz 0,20(9)
	mtctr 0
	bctrl
	b .L50
.LBE465:
.LBE466:
.LBE467:
.LBE470:
	.cfi_endproc
.LFE2814:
	.size	_Z41__static_initialization_and_destruction_0ii.constprop.11, .-_Z41__static_initialization_and_destruction_0ii.constprop.11
	.section	.text._ZN14idFixedWindingD2Ev,"axG",@progbits,_ZN14idFixedWindingD5Ev,comdat
	.align 2
	.weak	_ZN14idFixedWindingD2Ev
	.type	_ZN14idFixedWindingD2Ev, @function
_ZN14idFixedWindingD2Ev:
.LFB1498:
	.loc 1 380 0
	.cfi_startproc
.LVL84:
.LBB476:
	.loc 1 381 0
	li 0,0
.LBB477:
.LBB478:
.LBB479:
	.loc 1 183 0
	lis 9,_ZTV9idWinding+8@ha
.LBE479:
.LBE478:
.LBE477:
	.loc 1 381 0
	stw 0,8(3)
.LVL85:
.LBB482:
.LBB481:
.LBB480:
	.loc 1 183 0
	la 0,_ZTV9idWinding+8@l(9)
	stw 0,0(3)
.LBE480:
.LBE481:
.LBE482:
.LBE476:
	.loc 1 382 0
	blr
	.cfi_endproc
.LFE1498:
	.size	_ZN14idFixedWindingD2Ev, .-_ZN14idFixedWindingD2Ev
	.section	.text._ZN14idFixedWindingD0Ev,"axG",@progbits,_ZN14idFixedWindingD5Ev,comdat
	.align 2
	.weak	_ZN14idFixedWindingD0Ev
	.type	_ZN14idFixedWindingD0Ev, @function
_ZN14idFixedWindingD0Ev:
.LFB1500:
	.loc 1 380 0
	.cfi_startproc
.LVL86:
	mflr 0
	stwu 1,-8(1)
.LCFI47:
	.cfi_def_cfa_offset 8
	.cfi_register 65, 0
.LBB489:
.LBB490:
.LBB491:
.LBB492:
.LBB493:
.LBB494:
	.loc 1 183 0
	lis 11,_ZTV9idWinding+8@ha
.LBE494:
.LBE493:
.LBE492:
.LBE491:
.LBE490:
.LBE489:
	.loc 1 380 0
	stw 0,12(1)
.LBB500:
.LBB499:
.LBB498:
	.loc 1 381 0
	li 0,0
	.cfi_offset 65, 4
	stw 0,8(3)
.LVL87:
.LBB497:
.LBB496:
.LBB495:
	.loc 1 183 0
	la 0,_ZTV9idWinding+8@l(11)
	stw 0,0(3)
.LBE495:
.LBE496:
.LBE497:
.LBE498:
.LBE499:
.LBE500:
	.loc 1 382 0
	bl _ZdlPv
.LVL88:
	lwz 0,12(1)
	addi 1,1,8
.LCFI48:
	.cfi_def_cfa_offset 0
	mtlr 0
	blr
	.cfi_endproc
.LFE1500:
	.size	_ZN14idFixedWindingD0Ev, .-_ZN14idFixedWindingD0Ev
	.section	.text._ZN9idWindingD0Ev,"axG",@progbits,_ZN9idWindingD5Ev,comdat
	.align 2
	.weak	_ZN9idWindingD0Ev
	.type	_ZN9idWindingD0Ev, @function
_ZN9idWindingD0Ev:
.LFB1463:
	.loc 1 183 0
	.cfi_startproc
.LVL89:
	mflr 0
	stwu 1,-16(1)
.LCFI49:
	.cfi_def_cfa_offset 16
	.cfi_register 65, 0
.LBB504:
.LBB505:
.LBB506:
	lis 9,_ZTV9idWinding+8@ha
.LBE506:
.LBE505:
.LBE504:
	stw 31,12(1)
	mr 31,3
	.cfi_offset 31, -4
.LVL90:
	stw 0,20(1)
.LBB511:
.LBB509:
.LBB507:
	.loc 1 183 0
	la 0,_ZTV9idWinding+8@l(9)
	.cfi_offset 65, 4
	.loc 1 184 0
	lwz 3,8(3)
.LVL91:
	.loc 1 183 0
	stw 0,0(31)
	.loc 1 184 0
	cmpwi 7,3,0
	beq- 7,.L61
	bl _ZdaPv
.LVL92:
.L61:
	.loc 1 185 0
	li 0,0
.LBE507:
.LBE509:
.LBE511:
	.loc 1 186 0
	mr 3,31
.LBB512:
.LBB510:
.LBB508:
	.loc 1 185 0
	stw 0,8(31)
.LBE508:
.LBE510:
.LBE512:
	.loc 1 186 0
	bl _ZdlPv
	lwz 0,20(1)
	lwz 31,12(1)
.LVL93:
	mtlr 0
	addi 1,1,16
.LCFI50:
	.cfi_def_cfa_offset 0
	.cfi_restore 31
	blr
	.cfi_endproc
.LFE1463:
	.size	_ZN9idWindingD0Ev, .-_ZN9idWindingD0Ev
	.section	".text"
	.align 2
	.globl _Z18Sys_TimeStampToStrl
	.type	_Z18Sys_TimeStampToStrl, @function
_Z18Sys_TimeStampToStrl:
.LFB2567:
	.loc 3 189 0
	.cfi_startproc
	.cfi_personality 0,__gxx_personality_v0
	.cfi_lsda 0,.LLSDA2567
.LVL94:
	stwu 1,-112(1)
.LCFI51:
	.cfi_def_cfa_offset 112
	mflr 0
	stw 27,92(1)
	mr 9,1
.LBB658:
	.loc 3 191 0
	lis 27,.LANCHOR1@ha
	.cfi_offset 27, -20
	.cfi_register 65, 0
.LBE658:
	.loc 3 189 0
	stw 0,116(1)
	stw 28,96(1)
.LBB1019:
	.loc 3 191 0
	li 0,0
	.cfi_offset 28, -16
	.cfi_offset 65, 4
.LBE1019:
	.loc 3 189 0
	stw 31,108(1)
.LBB1020:
	.loc 3 191 0
	la 27,.LANCHOR1@l(27)
.LBE1020:
	.loc 3 189 0
	stw 25,84(1)
	addi 28,1,40
	stw 26,88(1)
	stw 29,100(1)
	stw 30,104(1)
	.loc 3 189 0
	stwu 3,72(9)
.LBB1021:
	.loc 3 191 0
	stb 0,52(27)
	.loc 3 193 0
	mr 3,9
.LVL95:
	.cfi_offset 30, -8
	.cfi_offset 29, -12
	.cfi_offset 26, -24
	.cfi_offset 25, -28
	.cfi_offset 31, -4
	bl localtime
	.loc 3 196 0
	lis 9,cvarSystem@ha
	.loc 3 193 0
	mr 31,3
.LVL96:
	.loc 3 196 0
	lwz 3,cvarSystem@l(9)
.LVL97:
.LBB659:
.LBB660:
.LBB661:
	.file 7 "d:/Data/Nintendo/DoomGX/src/sys/../idlib/../idlib/Str.h"
	.loc 7 357 0
	li 9,20
	.loc 7 356 0
	li 0,0
	.loc 7 357 0
	stw 9,48(1)
	.loc 7 358 0
	addi 9,1,52
	.loc 7 356 0
	stw 0,40(1)
.LBE661:
.LBE660:
.LBE659:
	.loc 3 196 0
	lis 4,.LC19@ha
.LBB666:
.LBB664:
.LBB662:
	.loc 7 359 0
	stb 0,52(1)
.LBE662:
.LBE664:
.LBE666:
	.loc 3 196 0
	la 4,.LC19@l(4)
.LBB667:
.LBB665:
.LBB663:
	.loc 7 358 0
	stw 9,44(1)
.LBE663:
.LBE665:
.LBE667:
	.loc 3 196 0
	lwz 9,0(3)
	lwz 0,44(9)
	mtctr 0
.LEHB0:
	bctrl
.LEHE0:
.LVL98:
.LBB668:
.LBB669:
	.loc 7 412 0
	mr. 29,3
.LBB670:
.LBB671:
	.loc 7 356 0
	li 0,0
	.loc 7 358 0
	addi 28,1,20
.LVL99:
	.loc 7 357 0
	li 9,20
	.loc 7 356 0
	stw 0,8(1)
	.loc 7 357 0
	stw 9,16(1)
	.loc 7 358 0
	stw 28,12(1)
	.loc 7 359 0
	stb 0,20(1)
.LBE671:
.LBE670:
	.loc 7 412 0
	beq- 0,.L132
	.loc 7 413 0
	bl strlen
.LVL100:
	addi 26,1,8
	.loc 7 414 0
	addi 4,3,1
	.loc 7 413 0
	mr 30,3
.LVL101:
.LBB672:
.LBB673:
	.loc 7 350 0
	cmpwi 7,4,20
	.loc 7 358 0
	mr 3,28
.LVL102:
	.loc 7 350 0
	bgt- 7,.L146
.LVL103:
.L66:
.LBE673:
.LBE672:
	.loc 7 415 0
	mr 4,29
	bl strcpy
	.loc 7 416 0
	stw 30,8(1)
	lwz 3,12(1)
.LVL104:
.L65:
.LBE669:
.LBE668:
.LBB678:
.LBB679:
	.loc 7 690 0
	lis 4,.LC20@ha
	addi 28,1,40
.LVL105:
	la 4,.LC20@l(4)
.LEHB1:
	bl _ZN5idStr4IcmpEPKcS1_
.LBE679:
.LBE678:
	.loc 3 197 0
	cmpwi 7,3,0
	.loc 3 199 0
	lis 30,.LC23@ha
	.loc 3 197 0
	bne- 7,.L67
	.loc 3 199 0
	lwz 4,16(31)
	la 30,.LC23@l(30)
	mr 3,30
	addi 28,1,40
	addi 4,4,1
	crxor 6,6,6
	bl _Z2vaPKcz
	addi 28,1,40
	mr 4,3
	mr 3,28
	bl _ZN5idStraSEPKc
.LVL106:
.LBB680:
.LBB681:
.LBB682:
	.loc 7 775 0
	lwz 11,40(1)
.LBB683:
.LBB684:
	.loc 7 350 0
	lwz 0,48(1)
.LBE684:
.LBE683:
	.loc 7 775 0
	addi 29,11,1
.LVL107:
	.loc 7 776 0
	addi 4,29,1
.LVL108:
.LBB687:
.LBB685:
	.loc 7 350 0
	cmpw 7,4,0
	bgt- 7,.L147
.LVL109:
.L68:
.LBE685:
.LBE687:
	.loc 7 778 0
	lwz 9,44(1)
	li 0,47
.LBE682:
.LBE681:
.LBE680:
	.loc 3 201 0
	mr 3,30
.LBB693:
.LBB691:
.LBB689:
	.loc 7 778 0
	stbx 0,9,11
.LVL110:
	.loc 7 781 0
	li 0,0
	.loc 7 780 0
	stw 29,40(1)
	.loc 7 781 0
	lwz 9,44(1)
	stbx 0,9,29
.LBE689:
.LBE691:
.LBE693:
	.loc 3 201 0
	lwz 4,12(31)
	crxor 6,6,6
	bl _Z2vaPKcz
.LVL111:
.LBB694:
.LBB695:
.LBB696:
	.loc 7 774 0
	mr. 29,3
.LVL112:
	beq- 0,.L69
	.loc 7 775 0
	bl strlen
.LVL113:
	lwz 25,40(1)
.LBB697:
.LBB698:
	.loc 7 350 0
	lwz 0,48(1)
.LBE698:
.LBE697:
	.loc 7 775 0
	add 25,3,25
.LVL114:
	.loc 7 776 0
	addi 4,25,1
.LVL115:
.LBB701:
.LBB699:
	.loc 7 350 0
	cmpw 7,4,0
	bgt- 7,.L148
.LVL116:
.L70:
.LBE699:
.LBE701:
	.loc 7 777 0
	lbz 0,0(29)
	cmpwi 7,0,0
	beq- 7,.L71
	li 9,0
.LVL117:
.L72:
	.loc 7 778 0
	lwz 11,40(1)
	lwz 10,44(1)
	add 11,10,11
	stbx 0,11,9
	.loc 7 777 0
	addi 9,9,1
.LVL118:
	lbzx 0,29,9
	cmpwi 7,0,0
	bne+ 7,.L72
.LVL119:
.L71:
	.loc 7 781 0
	lwz 9,44(1)
	li 0,0
	.loc 7 780 0
	stw 25,40(1)
	.loc 7 781 0
	stbx 0,9,25
.LVL120:
.L69:
.LBE696:
.LBE695:
.LBE694:
.LBB705:
.LBB706:
.LBB707:
	.loc 7 775 0
	lwz 11,40(1)
.LBB708:
.LBB709:
	.loc 7 350 0
	lwz 0,48(1)
.LBE709:
.LBE708:
	.loc 7 775 0
	addi 29,11,1
.LVL121:
	.loc 7 776 0
	addi 4,29,1
.LVL122:
.LBB712:
.LBB710:
	.loc 7 350 0
	cmpw 7,4,0
	bgt- 7,.L149
.LVL123:
.L73:
.LBE710:
.LBE712:
	.loc 7 778 0
	lwz 9,44(1)
	li 0,47
.LBE707:
.LBE706:
.LBE705:
	.loc 3 203 0
	lis 3,.LC24@ha
.LBB720:
.LBB717:
.LBB714:
	.loc 7 778 0
	stbx 0,9,11
.LVL124:
	.loc 7 781 0
	li 0,0
	.loc 7 780 0
	stw 29,40(1)
.LBE714:
.LBE717:
.LBE720:
	.loc 3 203 0
	la 3,.LC24@l(3)
.LBB721:
.LBB718:
.LBB715:
	.loc 7 781 0
	lwz 9,44(1)
	stbx 0,9,29
.LBE715:
.LBE718:
.LBE721:
	.loc 3 203 0
	lwz 4,20(31)
	addi 4,4,1900
	crxor 6,6,6
	bl _Z2vaPKcz
.LVL125:
.LBB722:
.LBB723:
.LBB724:
	.loc 7 774 0
	mr. 29,3
.LVL126:
	beq- 0,.L74
	.loc 7 775 0
	bl strlen
.LVL127:
	lwz 25,40(1)
.LBB725:
.LBB726:
	.loc 7 350 0
	lwz 0,48(1)
.LBE726:
.LBE725:
	.loc 7 775 0
	add 25,3,25
.LVL128:
	.loc 7 776 0
	addi 4,25,1
.LVL129:
.LBB729:
.LBB727:
	.loc 7 350 0
	cmpw 7,4,0
	bgt- 7,.L150
.LVL130:
.L75:
.LBE727:
.LBE729:
	.loc 7 777 0
	lbz 0,0(29)
	cmpwi 7,0,0
	beq- 7,.L76
	li 9,0
.LVL131:
.L77:
	.loc 7 778 0
	lwz 11,40(1)
	lwz 10,44(1)
	add 11,10,11
	stbx 0,11,9
	.loc 7 777 0
	addi 9,9,1
.LVL132:
	lbzx 0,29,9
	cmpwi 7,0,0
	bne+ 7,.L77
.LVL133:
.L76:
	.loc 7 781 0
	lwz 9,44(1)
	li 0,0
	.loc 7 780 0
	stw 25,40(1)
	.loc 7 781 0
	stbx 0,9,25
.LVL134:
.L74:
.LBE724:
.LBE723:
.LBE722:
.LBB733:
.LBB734:
.LBB735:
	.loc 7 775 0
	lwz 11,40(1)
.LBB736:
.LBB737:
	.loc 7 350 0
	lwz 0,48(1)
.LBE737:
.LBE736:
	.loc 7 775 0
	addi 29,11,1
.LVL135:
	.loc 7 776 0
	addi 4,29,1
.LVL136:
.LBB740:
.LBB738:
	.loc 7 350 0
	cmpw 7,4,0
	bgt- 7,.L151
.LBE738:
.LBE740:
	.loc 7 778 0
	lwz 9,44(1)
	li 0,9
	stbx 0,9,11
.LVL137:
	.loc 7 781 0
	li 0,0
	.loc 7 780 0
	stw 29,40(1)
	.loc 7 781 0
	lwz 9,44(1)
	stbx 0,9,29
.LBE735:
.LBE734:
.LBE733:
	.loc 3 205 0
	lwz 4,8(31)
.LVL138:
	cmpwi 7,4,12
	bgt- 7,.L152
.L79:
	.loc 3 207 0
	cmpwi 7,4,0
	beq- 7,.L153
	.loc 3 210 0
	mr 3,30
	crxor 6,6,6
	bl _Z2vaPKcz
.LVL139:
.LBB744:
.LBB745:
.LBB746:
	.loc 7 774 0
	mr. 29,3
.LVL140:
	beq- 0,.L80
	.loc 7 775 0
	bl strlen
.LVL141:
	lwz 25,40(1)
.LBB747:
.LBB748:
	.loc 7 350 0
	lwz 0,48(1)
.LBE748:
.LBE747:
	.loc 7 775 0
	add 25,3,25
.LVL142:
	.loc 7 776 0
	addi 4,25,1
.LVL143:
.LBB751:
.LBB749:
	.loc 7 350 0
	cmpw 7,4,0
	bgt- 7,.L154
.LVL144:
.L89:
.LBE749:
.LBE751:
	.loc 7 777 0
	lbz 0,0(29)
	cmpwi 7,0,0
	beq- 7,.L90
	li 9,0
.LVL145:
.L91:
	.loc 7 778 0
	lwz 11,40(1)
	lwz 10,44(1)
	add 11,10,11
	stbx 0,11,9
	.loc 7 777 0
	addi 9,9,1
.LVL146:
	lbzx 0,29,9
	cmpwi 7,0,0
	bne+ 7,.L91
.LVL147:
.L90:
	.loc 7 781 0
	lwz 9,44(1)
	li 0,0
	.loc 7 780 0
	stw 25,40(1)
	.loc 7 781 0
	stbx 0,9,25
.L168:
.LVL148:
.LBE746:
.LBE745:
.LBE744:
.LBB757:
.LBB758:
.LBB759:
	.loc 7 775 0
	lwz 11,40(1)
.LBB760:
.LBB761:
	.loc 7 350 0
	lwz 0,48(1)
.LBE761:
.LBE760:
	.loc 7 775 0
	addi 29,11,1
.LVL149:
	.loc 7 776 0
	addi 4,29,1
.LVL150:
.LBB765:
.LBB762:
	.loc 7 350 0
	cmpw 7,4,0
	ble+ 7,.L92
.L164:
	.loc 7 351 0
	mr 3,28
	li 5,1
	bl _ZN5idStr10ReAllocateEib
.LVL151:
	lwz 11,40(1)
	b .L92
.LVL152:
.L67:
.LBE762:
.LBE765:
.LBE759:
.LBE758:
.LBE757:
	.loc 3 221 0
	la 30,.LC23@l(30)
	lwz 4,12(31)
	mr 3,30
	addi 28,1,40
	crxor 6,6,6
	bl _Z2vaPKcz
	addi 28,1,40
	mr 4,3
	mr 3,28
	bl _ZN5idStraSEPKc
.LVL153:
.LBB772:
.LBB773:
.LBB774:
	.loc 7 775 0
	lwz 11,40(1)
.LBB775:
.LBB776:
	.loc 7 350 0
	lwz 0,48(1)
.LBE776:
.LBE775:
	.loc 7 775 0
	addi 29,11,1
.LVL154:
	.loc 7 776 0
	addi 4,29,1
.LVL155:
.LBB779:
.LBB777:
	.loc 7 350 0
	cmpw 7,4,0
	bgt- 7,.L155
.LVL156:
.L107:
.LBE777:
.LBE779:
	.loc 7 778 0
	lwz 9,44(1)
	li 0,47
.LBE774:
.LBE773:
.LBE772:
	.loc 3 223 0
	mr 3,30
.LBB785:
.LBB783:
.LBB781:
	.loc 7 778 0
	stbx 0,9,11
.LVL157:
	.loc 7 781 0
	li 0,0
	.loc 7 780 0
	stw 29,40(1)
	.loc 7 781 0
	lwz 9,44(1)
	stbx 0,9,29
.LBE781:
.LBE783:
.LBE785:
	.loc 3 223 0
	lwz 4,16(31)
	addi 4,4,1
	crxor 6,6,6
	bl _Z2vaPKcz
.LVL158:
.LBB786:
.LBB787:
.LBB788:
	.loc 7 774 0
	mr. 29,3
.LVL159:
	beq- 0,.L108
	.loc 7 775 0
	bl strlen
.LVL160:
	lwz 25,40(1)
.LBB789:
.LBB790:
	.loc 7 350 0
	lwz 0,48(1)
.LBE790:
.LBE789:
	.loc 7 775 0
	add 25,3,25
.LVL161:
	.loc 7 776 0
	addi 4,25,1
.LVL162:
.LBB793:
.LBB791:
	.loc 7 350 0
	cmpw 7,4,0
	bgt- 7,.L156
.LVL163:
.L109:
.LBE791:
.LBE793:
	.loc 7 777 0
	lbz 0,0(29)
	cmpwi 7,0,0
	beq- 7,.L110
	li 9,0
.LVL164:
.L111:
	.loc 7 778 0
	lwz 11,40(1)
	lwz 10,44(1)
	add 11,10,11
	stbx 0,11,9
	.loc 7 777 0
	addi 9,9,1
.LVL165:
	lbzx 0,29,9
	cmpwi 7,0,0
	bne+ 7,.L111
.LVL166:
.L110:
	.loc 7 781 0
	lwz 9,44(1)
	li 0,0
	.loc 7 780 0
	stw 25,40(1)
	.loc 7 781 0
	stbx 0,9,25
.LVL167:
.L108:
.LBE788:
.LBE787:
.LBE786:
.LBB797:
.LBB798:
.LBB799:
	.loc 7 775 0
	lwz 11,40(1)
.LBB800:
.LBB801:
	.loc 7 350 0
	lwz 0,48(1)
.LBE801:
.LBE800:
	.loc 7 775 0
	addi 29,11,1
.LVL168:
	.loc 7 776 0
	addi 4,29,1
.LVL169:
.LBB804:
.LBB802:
	.loc 7 350 0
	cmpw 7,4,0
	bgt- 7,.L157
.LVL170:
.L112:
.LBE802:
.LBE804:
	.loc 7 778 0
	lwz 9,44(1)
	li 0,47
.LBE799:
.LBE798:
.LBE797:
	.loc 3 225 0
	lis 3,.LC24@ha
.LBB812:
.LBB809:
.LBB806:
	.loc 7 778 0
	stbx 0,9,11
.LVL171:
	.loc 7 781 0
	li 0,0
	.loc 7 780 0
	stw 29,40(1)
.LBE806:
.LBE809:
.LBE812:
	.loc 3 225 0
	la 3,.LC24@l(3)
.LBB813:
.LBB810:
.LBB807:
	.loc 7 781 0
	lwz 9,44(1)
	stbx 0,9,29
.LBE807:
.LBE810:
.LBE813:
	.loc 3 225 0
	lwz 4,20(31)
	addi 4,4,1900
	crxor 6,6,6
	bl _Z2vaPKcz
.LVL172:
.LBB814:
.LBB815:
.LBB816:
	.loc 7 774 0
	mr. 29,3
.LVL173:
	beq- 0,.L113
	.loc 7 775 0
	bl strlen
.LVL174:
	lwz 25,40(1)
.LBB817:
.LBB818:
	.loc 7 350 0
	lwz 0,48(1)
.LBE818:
.LBE817:
	.loc 7 775 0
	add 25,3,25
.LVL175:
	.loc 7 776 0
	addi 4,25,1
.LVL176:
.LBB821:
.LBB819:
	.loc 7 350 0
	cmpw 7,4,0
	bgt- 7,.L158
.LVL177:
.L114:
.LBE819:
.LBE821:
	.loc 7 777 0
	lbz 0,0(29)
	cmpwi 7,0,0
	beq- 7,.L115
	li 9,0
.LVL178:
.L116:
	.loc 7 778 0
	lwz 11,40(1)
	lwz 10,44(1)
	add 11,10,11
	stbx 0,11,9
	.loc 7 777 0
	addi 9,9,1
.LVL179:
	lbzx 0,29,9
	cmpwi 7,0,0
	bne+ 7,.L116
.LVL180:
.L115:
	.loc 7 781 0
	lwz 9,44(1)
	li 0,0
	.loc 7 780 0
	stw 25,40(1)
	.loc 7 781 0
	stbx 0,9,25
.LVL181:
.L113:
.LBE816:
.LBE815:
.LBE814:
.LBB825:
.LBB826:
.LBB827:
	.loc 7 775 0
	lwz 11,40(1)
.LBB828:
.LBB829:
	.loc 7 350 0
	lwz 0,48(1)
.LBE829:
.LBE828:
	.loc 7 775 0
	addi 29,11,1
.LVL182:
	.loc 7 776 0
	addi 4,29,1
.LVL183:
.LBB832:
.LBB830:
	.loc 7 350 0
	cmpw 7,4,0
	bgt- 7,.L159
.LVL184:
.L117:
.LBE830:
.LBE832:
	.loc 7 778 0
	lwz 9,44(1)
	li 0,9
.LBE827:
.LBE826:
.LBE825:
	.loc 3 227 0
	mr 3,30
.LBB838:
.LBB836:
.LBB834:
	.loc 7 778 0
	stbx 0,9,11
.LVL185:
	.loc 7 781 0
	li 0,0
	.loc 7 780 0
	stw 29,40(1)
	.loc 7 781 0
	lwz 9,44(1)
	stbx 0,9,29
.LBE834:
.LBE836:
.LBE838:
	.loc 3 227 0
	lwz 4,8(31)
	crxor 6,6,6
	bl _Z2vaPKcz
.LVL186:
.LBB839:
.LBB840:
.LBB841:
	.loc 7 774 0
	mr. 29,3
.LVL187:
	beq- 0,.L118
	.loc 7 775 0
	bl strlen
.LVL188:
	lwz 25,40(1)
.LBB842:
.LBB843:
	.loc 7 350 0
	lwz 0,48(1)
.LBE843:
.LBE842:
	.loc 7 775 0
	add 25,3,25
.LVL189:
	.loc 7 776 0
	addi 4,25,1
.LVL190:
.LBB846:
.LBB844:
	.loc 7 350 0
	cmpw 7,4,0
	bgt- 7,.L160
.LVL191:
.L119:
.LBE844:
.LBE846:
	.loc 7 777 0
	lbz 0,0(29)
	cmpwi 7,0,0
	beq- 7,.L120
	li 9,0
.LVL192:
.L121:
	.loc 7 778 0
	lwz 11,40(1)
	lwz 10,44(1)
	add 11,10,11
	stbx 0,11,9
	.loc 7 777 0
	addi 9,9,1
.LVL193:
	lbzx 0,29,9
	cmpwi 7,0,0
	bne+ 7,.L121
.LVL194:
.L120:
	.loc 7 781 0
	lwz 9,44(1)
	li 0,0
	.loc 7 780 0
	stw 25,40(1)
	.loc 7 781 0
	stbx 0,9,25
.LVL195:
.L118:
.LBE841:
.LBE840:
.LBE839:
.LBB850:
.LBB851:
.LBB852:
	.loc 7 775 0
	lwz 11,40(1)
.LBB853:
.LBB854:
	.loc 7 350 0
	lwz 0,48(1)
.LBE854:
.LBE853:
	.loc 7 775 0
	addi 29,11,1
.LVL196:
	.loc 7 776 0
	addi 4,29,1
.LVL197:
.LBB857:
.LBB855:
	.loc 7 350 0
	cmpw 7,4,0
	bgt- 7,.L161
.LVL198:
.L122:
.LBE855:
.LBE857:
	.loc 7 778 0
	lwz 9,44(1)
	li 0,58
.LBE852:
.LBE851:
.LBE850:
	.loc 3 229 0
	mr 3,30
.LBB863:
.LBB861:
.LBB859:
	.loc 7 778 0
	stbx 0,9,11
.LVL199:
	.loc 7 781 0
	li 0,0
	.loc 7 780 0
	stw 29,40(1)
	.loc 7 781 0
	lwz 9,44(1)
	stbx 0,9,29
.LBE859:
.LBE861:
.LBE863:
	.loc 3 229 0
	lwz 4,4(31)
	crxor 6,6,6
	bl _Z2vaPKcz
.LVL200:
.LBB864:
.LBB865:
.LBB866:
	.loc 7 774 0
	mr. 31,3
.LVL201:
	beq- 0,.L102
	.loc 7 775 0
	bl strlen
.LVL202:
	lwz 30,40(1)
.LBB867:
.LBB868:
	.loc 7 350 0
	lwz 0,48(1)
.LBE868:
.LBE867:
	.loc 7 775 0
	add 30,3,30
.LVL203:
	.loc 7 776 0
	addi 4,30,1
.LVL204:
.LBB871:
.LBB869:
	.loc 7 350 0
	cmpw 7,4,0
	bgt- 7,.L162
.LVL205:
.L123:
.LBE869:
.LBE871:
	.loc 7 777 0
	lbz 0,0(31)
	cmpwi 7,0,0
	beq- 7,.L124
	li 9,0
.LVL206:
.L125:
	.loc 7 778 0
	lwz 11,40(1)
	lwz 10,44(1)
	add 11,10,11
	stbx 0,11,9
	.loc 7 777 0
	addi 9,9,1
.LVL207:
	lbzx 0,31,9
	cmpwi 7,0,0
	bne+ 7,.L125
.LVL208:
.L124:
	.loc 7 781 0
	lwz 9,44(1)
	li 0,0
	.loc 7 780 0
	stw 30,40(1)
	.loc 7 781 0
	stbx 0,9,30
.LVL209:
.L102:
.LBE866:
.LBE865:
.LBE864:
	.loc 3 231 0
	addi 27,27,52
	lwz 4,4(28)
	mr 3,27
	li 5,1024
	bl _ZN5idStr6CopynzEPcPKci
.LEHE1:
.LVL210:
.LBB875:
.LBB876:
.LBB877:
	.loc 7 501 0
	mr 3,26
.LEHB2:
	bl _ZN5idStr8FreeDataEv
.LEHE2:
.LVL211:
.LBE877:
.LBE876:
.LBE875:
.LBB878:
.LBB879:
.LBB880:
	mr 3,28
.LEHB3:
	bl _ZN5idStr8FreeDataEv
.LEHE3:
.LBE880:
.LBE879:
.LBE878:
.LBE1021:
	.loc 3 234 0
	lwz 0,116(1)
	mr 3,27
	lwz 25,84(1)
	mtlr 0
	lwz 26,88(1)
	lwz 27,92(1)
	lwz 28,96(1)
.LVL212:
	lwz 29,100(1)
	lwz 30,104(1)
	lwz 31,108(1)
	addi 1,1,112
	.cfi_remember_state
.LCFI52:
	.cfi_def_cfa_offset 0
	.cfi_restore 31
	.cfi_restore 30
	.cfi_restore 29
	.cfi_restore 28
	.cfi_restore 27
	.cfi_restore 26
	.cfi_restore 25
	blr
.LVL213:
.L146:
.LCFI53:
	.cfi_restore_state
.LBB1022:
.LBB881:
.LBB676:
.LBB675:
.LBB674:
	.loc 7 351 0
	mr 3,26
	li 5,1
	addi 28,1,40
.LVL214:
.LEHB4:
	bl _ZN5idStr10ReAllocateEib
.LEHE4:
.LVL215:
	lwz 3,12(1)
	b .L66
.LVL216:
.L153:
.LBE674:
.LBE675:
.LBE676:
.LBE881:
.LBB882:
.LBB883:
.LBB884:
	.loc 7 775 0
	lwz 11,40(1)
.LBB885:
.LBB886:
	.loc 7 350 0
	lwz 0,48(1)
.LBE886:
.LBE885:
	.loc 7 776 0
	addi 4,11,3
	.loc 7 775 0
	addi 29,11,2
.LVL217:
.LBB890:
.LBB887:
	.loc 7 350 0
	cmpw 7,4,0
	bgt- 7,.L85
.LVL218:
.L87:
	lis 10,.LC25@ha
.LBE887:
.LBE890:
.LBE884:
.LBE883:
.LBE882:
.LBB899:
.LBB900:
.LBB901:
	.loc 7 777 0
	li 0,49
.LBE901:
.LBE900:
.LBE899:
.LBB914:
.LBB896:
.LBB893:
.LBB891:
.LBB888:
	.loc 7 350 0
	la 10,.LC25@l(10)
.LBE888:
.LBE891:
.LBE893:
.LBE896:
.LBE914:
.LBB915:
.LBB911:
.LBB908:
	.loc 7 777 0
	li 9,0
	b .L86
.LVL219:
.L163:
.LBE908:
.LBE911:
.LBE915:
.LBB916:
.LBB897:
.LBB894:
	lwz 11,40(1)
.LVL220:
.L86:
	.loc 7 778 0
	lwz 8,44(1)
	add 11,8,11
	stbx 0,11,9
	.loc 7 777 0
	addi 9,9,1
.LVL221:
	lbzu 0,1(10)
	cmpwi 7,0,0
	bne+ 7,.L163
	.loc 7 781 0
	lwz 9,44(1)
.LVL222:
	.loc 7 780 0
	stw 29,40(1)
	.loc 7 781 0
	stbx 0,9,29
.LVL223:
.L80:
.LBE894:
.LBE897:
.LBE916:
.LBB917:
.LBB770:
.LBB768:
	.loc 7 775 0
	lwz 11,40(1)
.LBB766:
.LBB763:
	.loc 7 350 0
	lwz 0,48(1)
.LBE763:
.LBE766:
	.loc 7 775 0
	addi 29,11,1
.LVL224:
	.loc 7 776 0
	addi 4,29,1
.LVL225:
.LBB767:
.LBB764:
	.loc 7 350 0
	cmpw 7,4,0
	bgt- 7,.L164
.LVL226:
.L92:
.LBE764:
.LBE767:
	.loc 7 778 0
	lwz 9,44(1)
	li 0,58
.LBE768:
.LBE770:
.LBE917:
	.loc 3 213 0
	mr 3,30
.LBB918:
.LBB771:
.LBB769:
	.loc 7 778 0
	stbx 0,9,11
.LVL227:
	.loc 7 781 0
	li 0,0
	.loc 7 780 0
	stw 29,40(1)
	.loc 7 781 0
	lwz 9,44(1)
	stbx 0,9,29
.LBE769:
.LBE771:
.LBE918:
	.loc 3 213 0
	lwz 4,4(31)
.LEHB5:
	crxor 6,6,6
	bl _Z2vaPKcz
.LVL228:
.LBB919:
.LBB920:
.LBB921:
	.loc 7 774 0
	mr. 30,3
	beq- 0,.L93
	.loc 7 775 0
	bl strlen
.LVL229:
	lwz 29,40(1)
.LVL230:
.LBB922:
.LBB923:
	.loc 7 350 0
	lwz 0,48(1)
.LBE923:
.LBE922:
	.loc 7 775 0
	add 29,3,29
.LVL231:
	.loc 7 776 0
	addi 4,29,1
.LVL232:
.LBB926:
.LBB924:
	.loc 7 350 0
	cmpw 7,4,0
	bgt- 7,.L165
.LVL233:
.L94:
.LBE924:
.LBE926:
	.loc 7 777 0
	lbz 0,0(30)
	cmpwi 7,0,0
	beq- 7,.L95
	li 9,0
.LVL234:
.L96:
	.loc 7 778 0
	lwz 11,40(1)
	lwz 10,44(1)
	add 11,10,11
	stbx 0,11,9
	.loc 7 777 0
	addi 9,9,1
.LVL235:
	lbzx 0,30,9
	cmpwi 7,0,0
	bne+ 7,.L96
.LVL236:
.L95:
	.loc 7 781 0
	lwz 9,44(1)
	li 0,0
	.loc 7 780 0
	stw 29,40(1)
	.loc 7 781 0
	stbx 0,9,29
.LVL237:
.L93:
.LBE921:
.LBE920:
.LBE919:
	.loc 3 214 0
	lwz 0,8(31)
.LBB938:
.LBB939:
.LBB940:
	.loc 7 775 0
	lwz 11,40(1)
.LBE940:
.LBE939:
.LBE938:
	.loc 3 214 0
	cmpwi 7,0,11
.LBB961:
.LBB956:
.LBB951:
.LBB941:
.LBB942:
	.loc 7 350 0
	lwz 0,48(1)
.LBE942:
.LBE941:
	.loc 7 776 0
	addi 4,11,3
.LBE951:
.LBE956:
.LBE961:
	.loc 3 214 0
	ble- 7,.L97
.LVL238:
.LBB962:
.LBB957:
.LBB952:
.LBB947:
.LBB943:
	.loc 7 350 0
	cmpw 7,4,0
.LBE943:
.LBE947:
	.loc 7 775 0
	addi 31,11,2
.LVL239:
.LBB948:
.LBB944:
	.loc 7 350 0
	bgt- 7,.L98
.LVL240:
.L100:
	lis 10,.LC26@ha
.LBE944:
.LBE948:
.LBE952:
.LBE957:
.LBE962:
.LBB963:
.LBB933:
.LBB928:
	.loc 7 777 0
	li 0,112
.LBE928:
.LBE933:
.LBE963:
.LBB964:
.LBB958:
.LBB953:
.LBB949:
.LBB945:
	.loc 7 350 0
	la 10,.LC26@l(10)
.LBE945:
.LBE949:
.LBE953:
.LBE958:
.LBE964:
.LBB965:
.LBB934:
.LBB929:
	.loc 7 777 0
	li 9,0
	b .L99
.LVL241:
.L166:
.LBE929:
.LBE934:
.LBE965:
.LBB966:
.LBB959:
.LBB954:
	lwz 11,40(1)
.LVL242:
.L99:
	.loc 7 778 0
	lwz 8,44(1)
	add 11,8,11
	stbx 0,11,9
	.loc 7 777 0
	addi 9,9,1
.LVL243:
	lbzu 0,1(10)
	cmpwi 7,0,0
	bne+ 7,.L166
.LBE954:
.LBE959:
.LBE966:
.LBB967:
.LBB968:
.LBB969:
	.loc 7 781 0
	lwz 9,44(1)
.LVL244:
	.loc 7 780 0
	stw 31,40(1)
	.loc 7 781 0
	stbx 0,9,31
	b .L102
.LVL245:
.L159:
.LBE969:
.LBE968:
.LBE967:
.LBB986:
.LBB837:
.LBB835:
.LBB833:
.LBB831:
	.loc 7 351 0
	mr 3,28
	li 5,1
	bl _ZN5idStr10ReAllocateEib
.LVL246:
	lwz 11,40(1)
	b .L117
.LVL247:
.L151:
.LBE831:
.LBE833:
.LBE835:
.LBE837:
.LBE986:
.LBB987:
.LBB743:
.LBB742:
.LBB741:
.LBB739:
	mr 3,28
	li 5,1
	bl _ZN5idStr10ReAllocateEib
.LVL248:
	lwz 11,40(1)
.LBE739:
.LBE741:
	.loc 7 778 0
	li 0,9
	lwz 9,44(1)
	stbx 0,9,11
.LVL249:
	.loc 7 781 0
	li 0,0
	.loc 7 780 0
	stw 29,40(1)
	.loc 7 781 0
	lwz 9,44(1)
	stbx 0,9,29
.LBE742:
.LBE743:
.LBE987:
	.loc 3 205 0
	lwz 4,8(31)
	cmpwi 7,4,12
	ble+ 7,.L79
.L152:
	.loc 3 206 0
	mr 3,30
	addi 4,4,-12
	crxor 6,6,6
	bl _Z2vaPKcz
.LVL250:
.LBB988:
.LBB912:
.LBB909:
	.loc 7 774 0
	mr. 29,3
.LVL251:
	beq- 0,.L80
	.loc 7 775 0
	bl strlen
.LVL252:
	lwz 25,40(1)
.LBB902:
.LBB903:
	.loc 7 350 0
	lwz 0,48(1)
.LBE903:
.LBE902:
	.loc 7 775 0
	add 25,3,25
.LVL253:
	.loc 7 776 0
	addi 4,25,1
.LVL254:
.LBB906:
.LBB904:
	.loc 7 350 0
	cmpw 7,4,0
	bgt- 7,.L167
.LVL255:
.L81:
.LBE904:
.LBE906:
	.loc 7 777 0
	lbz 0,0(29)
	cmpwi 7,0,0
	beq- 7,.L90
	li 9,0
.LVL256:
.L83:
	.loc 7 778 0
	lwz 11,40(1)
	lwz 10,44(1)
	add 11,10,11
	stbx 0,11,9
	.loc 7 777 0
	addi 9,9,1
.LVL257:
	lbzx 0,29,9
	cmpwi 7,0,0
	bne+ 7,.L83
.LBE909:
.LBE912:
.LBE988:
.LBB989:
.LBB755:
.LBB753:
	.loc 7 781 0
	lwz 9,44(1)
.LVL258:
	li 0,0
	.loc 7 780 0
	stw 25,40(1)
	.loc 7 781 0
	stbx 0,9,25
	b .L168
.LVL259:
.L155:
.LBE753:
.LBE755:
.LBE989:
.LBB990:
.LBB784:
.LBB782:
.LBB780:
.LBB778:
	.loc 7 351 0
	mr 3,28
	li 5,1
	bl _ZN5idStr10ReAllocateEib
.LVL260:
	lwz 11,40(1)
	b .L107
.LVL261:
.L149:
.LBE778:
.LBE780:
.LBE782:
.LBE784:
.LBE990:
.LBB991:
.LBB719:
.LBB716:
.LBB713:
.LBB711:
	mr 3,28
	li 5,1
	bl _ZN5idStr10ReAllocateEib
.LVL262:
	lwz 11,40(1)
	b .L73
.LVL263:
.L161:
.LBE711:
.LBE713:
.LBE716:
.LBE719:
.LBE991:
.LBB992:
.LBB862:
.LBB860:
.LBB858:
.LBB856:
	mr 3,28
	li 5,1
	bl _ZN5idStr10ReAllocateEib
.LVL264:
	lwz 11,40(1)
	b .L122
.LVL265:
.L157:
.LBE856:
.LBE858:
.LBE860:
.LBE862:
.LBE992:
.LBB993:
.LBB811:
.LBB808:
.LBB805:
.LBB803:
	mr 3,28
	li 5,1
	bl _ZN5idStr10ReAllocateEib
.LVL266:
	lwz 11,40(1)
	b .L112
.LVL267:
.L147:
.LBE803:
.LBE805:
.LBE808:
.LBE811:
.LBE993:
.LBB994:
.LBB692:
.LBB690:
.LBB688:
.LBB686:
	mr 3,28
	li 5,1
	bl _ZN5idStr10ReAllocateEib
.LVL268:
	lwz 11,40(1)
	b .L68
.LVL269:
.L162:
.LBE686:
.LBE688:
.LBE690:
.LBE692:
.LBE994:
.LBB995:
.LBB874:
.LBB873:
.LBB872:
.LBB870:
	mr 3,28
	li 5,1
	bl _ZN5idStr10ReAllocateEib
.LVL270:
	b .L123
.LVL271:
.L158:
.LBE870:
.LBE872:
.LBE873:
.LBE874:
.LBE995:
.LBB996:
.LBB824:
.LBB823:
.LBB822:
.LBB820:
	mr 3,28
	li 5,1
	bl _ZN5idStr10ReAllocateEib
.LVL272:
	b .L114
.LVL273:
.L148:
.LBE820:
.LBE822:
.LBE823:
.LBE824:
.LBE996:
.LBB997:
.LBB704:
.LBB703:
.LBB702:
.LBB700:
	mr 3,28
	li 5,1
	bl _ZN5idStr10ReAllocateEib
.LVL274:
	b .L70
.LVL275:
.L160:
.LBE700:
.LBE702:
.LBE703:
.LBE704:
.LBE997:
.LBB998:
.LBB849:
.LBB848:
.LBB847:
.LBB845:
	mr 3,28
	li 5,1
	bl _ZN5idStr10ReAllocateEib
.LVL276:
	b .L119
.LVL277:
.L156:
.LBE845:
.LBE847:
.LBE848:
.LBE849:
.LBE998:
.LBB999:
.LBB796:
.LBB795:
.LBB794:
.LBB792:
	mr 3,28
	li 5,1
	bl _ZN5idStr10ReAllocateEib
.LVL278:
	b .L109
.LVL279:
.L150:
.LBE792:
.LBE794:
.LBE795:
.LBE796:
.LBE999:
.LBB1000:
.LBB732:
.LBB731:
.LBB730:
.LBB728:
	mr 3,28
	li 5,1
	bl _ZN5idStr10ReAllocateEib
.LVL280:
	b .L75
.LVL281:
.L97:
.LBE728:
.LBE730:
.LBE731:
.LBE732:
.LBE1000:
.LBB1001:
.LBB982:
.LBB978:
.LBB970:
.LBB971:
	.loc 7 350 0
	cmpw 7,4,0
.LBE971:
.LBE970:
	.loc 7 775 0
	addi 31,11,2
.LVL282:
.LBB975:
.LBB972:
	.loc 7 350 0
	bgt- 7,.L103
.LVL283:
.L105:
	lis 10,.LC27@ha
.LBE972:
.LBE975:
.LBE978:
.LBE982:
.LBE1001:
.LBB1002:
.LBB935:
.LBB930:
	.loc 7 777 0
	li 0,97
.LBE930:
.LBE935:
.LBE1002:
.LBB1003:
.LBB983:
.LBB979:
.LBB976:
.LBB973:
	.loc 7 350 0
	la 10,.LC27@l(10)
.LBE973:
.LBE976:
.LBE979:
.LBE983:
.LBE1003:
.LBB1004:
.LBB936:
.LBB931:
	.loc 7 777 0
	li 9,0
	b .L104
.LVL284:
.L169:
.LBE931:
.LBE936:
.LBE1004:
.LBB1005:
.LBB984:
.LBB980:
	lwz 11,40(1)
.LVL285:
.L104:
	.loc 7 778 0
	lwz 8,44(1)
	add 11,8,11
	stbx 0,11,9
	.loc 7 777 0
	addi 9,9,1
.LVL286:
	lbzu 0,1(10)
	cmpwi 7,0,0
	bne+ 7,.L169
	.loc 7 781 0
	lwz 9,44(1)
.LVL287:
	.loc 7 780 0
	stw 31,40(1)
	.loc 7 781 0
	stbx 0,9,31
	b .L102
.LVL288:
.L165:
.LBE980:
.LBE984:
.LBE1005:
.LBB1006:
.LBB937:
.LBB932:
.LBB927:
.LBB925:
	.loc 7 351 0
	mr 3,28
	li 5,1
	bl _ZN5idStr10ReAllocateEib
.LVL289:
	b .L94
.LVL290:
.L103:
.LBE925:
.LBE927:
.LBE932:
.LBE937:
.LBE1006:
.LBB1007:
.LBB985:
.LBB981:
.LBB977:
.LBB974:
	mr 3,28
	li 5,1
	bl _ZN5idStr10ReAllocateEib
.LVL291:
	lwz 11,40(1)
	b .L105
.LVL292:
.L98:
.LBE974:
.LBE977:
.LBE981:
.LBE985:
.LBE1007:
.LBB1008:
.LBB960:
.LBB955:
.LBB950:
.LBB946:
	mr 3,28
	li 5,1
	bl _ZN5idStr10ReAllocateEib
.LVL293:
	lwz 11,40(1)
	b .L100
.LVL294:
.L132:
.LBE946:
.LBE950:
.LBE955:
.LBE960:
.LBE1008:
.LBB1009:
.LBB677:
	.loc 7 358 0
	mr 3,28
.LVL295:
	addi 26,1,8
	b .L65
.LVL296:
.L85:
.LBE677:
.LBE1009:
.LBB1010:
.LBB898:
.LBB895:
.LBB892:
.LBB889:
	.loc 7 351 0
	mr 3,28
	li 5,1
	bl _ZN5idStr10ReAllocateEib
.LVL297:
	lwz 11,40(1)
	b .L87
.LVL298:
.L154:
.LBE889:
.LBE892:
.LBE895:
.LBE898:
.LBE1010:
.LBB1011:
.LBB756:
.LBB754:
.LBB752:
.LBB750:
	mr 3,28
	li 5,1
	bl _ZN5idStr10ReAllocateEib
.LVL299:
	b .L89
.LVL300:
.L167:
.LBE750:
.LBE752:
.LBE754:
.LBE756:
.LBE1011:
.LBB1012:
.LBB913:
.LBB910:
.LBB907:
.LBB905:
	mr 3,28
	li 5,1
	bl _ZN5idStr10ReAllocateEib
.LEHE5:
.LVL301:
	b .L81
.LVL302:
.L135:
	mr 31,3
.LVL303:
.LBE905:
.LBE907:
.LBE910:
.LBE913:
.LBE1012:
.LBB1013:
.LBB1014:
.LBB1015:
	.loc 7 501 0
	mr 3,26
	bl _ZN5idStr8FreeDataEv
.LVL304:
.L130:
.LBE1015:
.LBE1014:
.LBE1013:
.LBB1016:
.LBB1017:
.LBB1018:
	mr 3,28
	bl _ZN5idStr8FreeDataEv
	mr 3,31
.LEHB6:
	bl _Unwind_Resume
.LEHE6:
.LVL305:
.L134:
	mr 31,3
	b .L130
.LBE1018:
.LBE1017:
.LBE1016:
.LBE1022:
	.cfi_endproc
.LFE2567:
	.globl __gxx_personality_v0
	.section	.gcc_except_table,"a",@progbits
.LLSDA2567:
	.byte	0xff
	.byte	0xff
	.byte	0x1
	.uleb128 .LLSDACSE2567-.LLSDACSB2567
.LLSDACSB2567:
	.uleb128 .LEHB0-.LFB2567
	.uleb128 .LEHE0-.LEHB0
	.uleb128 .L134-.LFB2567
	.uleb128 0
	.uleb128 .LEHB1-.LFB2567
	.uleb128 .LEHE1-.LEHB1
	.uleb128 .L135-.LFB2567
	.uleb128 0
	.uleb128 .LEHB2-.LFB2567
	.uleb128 .LEHE2-.LEHB2
	.uleb128 .L134-.LFB2567
	.uleb128 0
	.uleb128 .LEHB3-.LFB2567
	.uleb128 .LEHE3-.LEHB3
	.uleb128 0
	.uleb128 0
	.uleb128 .LEHB4-.LFB2567
	.uleb128 .LEHE4-.LEHB4
	.uleb128 .L134-.LFB2567
	.uleb128 0
	.uleb128 .LEHB5-.LFB2567
	.uleb128 .LEHE5-.LEHB5
	.uleb128 .L135-.LFB2567
	.uleb128 0
	.uleb128 .LEHB6-.LFB2567
	.uleb128 .LEHE6-.LEHB6
	.uleb128 0
	.uleb128 0
.LLSDACSE2567:
	.section	".text"
	.size	_Z18Sys_TimeStampToStrl, .-_Z18Sys_TimeStampToStrl
	.section	.text.startup,"ax",@progbits
	.align 2
	.type	_GLOBAL__sub_I_sysLanguageNames, @function
_GLOBAL__sub_I_sysLanguageNames:
.LFB2801:
	.loc 3 234 0
	.cfi_startproc
	.loc 3 234 0
	li 3,1
	b _Z41__static_initialization_and_destruction_0ii.constprop.11
	.cfi_endproc
.LFE2801:
	.size	_GLOBAL__sub_I_sysLanguageNames, .-_GLOBAL__sub_I_sysLanguageNames
	.section	.ctors,"aw",@progbits
	.align 2
	.long	_GLOBAL__sub_I_sysLanguageNames
	.section	.text.exit,"ax",@progbits
	.align 2
	.type	_GLOBAL__sub_D_sysLanguageNames, @function
_GLOBAL__sub_D_sysLanguageNames:
.LFB2802:
	.loc 3 234 0
	.cfi_startproc
	.loc 3 234 0
	li 3,0
	b _Z41__static_initialization_and_destruction_0ii.constprop.11
	.cfi_endproc
.LFE2802:
	.size	_GLOBAL__sub_D_sysLanguageNames, .-_GLOBAL__sub_D_sysLanguageNames
	.section	.dtors,"aw",@progbits
	.align 2
	.long	_GLOBAL__sub_D_sysLanguageNames
	.weak	_ZTS9idWinding
	.section	.rodata._ZTS9idWinding,"aG",@progbits,_ZTS9idWinding,comdat
	.align 2
	.type	_ZTS9idWinding, @object
	.size	_ZTS9idWinding, 11
_ZTS9idWinding:
	.string	"9idWinding"
	.weak	_ZTI9idWinding
	.section	.sdata._ZTI9idWinding,"awG",@progbits,_ZTI9idWinding,comdat
	.align 2
	.type	_ZTI9idWinding, @object
	.size	_ZTI9idWinding, 8
_ZTI9idWinding:
	.long	_ZTVN10__cxxabiv117__class_type_infoE+8
	.long	_ZTS9idWinding
	.weak	_ZTS14idFixedWinding
	.section	.rodata._ZTS14idFixedWinding,"aG",@progbits,_ZTS14idFixedWinding,comdat
	.align 2
	.type	_ZTS14idFixedWinding, @object
	.size	_ZTS14idFixedWinding, 17
_ZTS14idFixedWinding:
	.string	"14idFixedWinding"
	.weak	_ZTI14idFixedWinding
	.section	.rodata._ZTI14idFixedWinding,"aG",@progbits,_ZTI14idFixedWinding,comdat
	.align 2
	.type	_ZTI14idFixedWinding, @object
	.size	_ZTI14idFixedWinding, 12
_ZTI14idFixedWinding:
	.long	_ZTVN10__cxxabiv120__si_class_type_infoE+8
	.long	_ZTS14idFixedWinding
	.long	_ZTI9idWinding
	.weak	_ZTS10idSysLocal
	.section	.rodata._ZTS10idSysLocal,"aG",@progbits,_ZTS10idSysLocal,comdat
	.align 2
	.type	_ZTS10idSysLocal, @object
	.size	_ZTS10idSysLocal, 13
_ZTS10idSysLocal:
	.string	"10idSysLocal"
	.weak	_ZTI10idSysLocal
	.section	.rodata._ZTI10idSysLocal,"aG",@progbits,_ZTI10idSysLocal,comdat
	.align 2
	.type	_ZTI10idSysLocal, @object
	.size	_ZTI10idSysLocal, 12
_ZTI10idSysLocal:
	.long	_ZTVN10__cxxabiv120__si_class_type_infoE+8
	.long	_ZTS10idSysLocal
	.long	_ZTI5idSys
	.weak	_ZTV9idWinding
	.section	.rodata._ZTV9idWinding,"aG",@progbits,_ZTV9idWinding,comdat
	.align 3
	.type	_ZTV9idWinding, @object
	.size	_ZTV9idWinding, 24
_ZTV9idWinding:
	.long	0
	.long	_ZTI9idWinding
	.long	_ZN9idWindingD1Ev
	.long	_ZN9idWindingD0Ev
	.long	_ZN9idWinding5ClearEv
	.long	_ZN9idWinding10ReAllocateEib
	.weak	_ZTV14idFixedWinding
	.section	.rodata._ZTV14idFixedWinding,"aG",@progbits,_ZTV14idFixedWinding,comdat
	.align 3
	.type	_ZTV14idFixedWinding, @object
	.size	_ZTV14idFixedWinding, 24
_ZTV14idFixedWinding:
	.long	0
	.long	_ZTI14idFixedWinding
	.long	_ZN14idFixedWindingD1Ev
	.long	_ZN14idFixedWindingD0Ev
	.long	_ZN14idFixedWinding5ClearEv
	.long	_ZN14idFixedWinding10ReAllocateEib
	.weak	_ZTV10idSysLocal
	.section	.rodata._ZTV10idSysLocal,"aG",@progbits,_ZTV10idSysLocal,comdat
	.align 3
	.type	_ZTV10idSysLocal, @object
	.size	_ZTV10idSysLocal, 108
_ZTV10idSysLocal:
	.long	0
	.long	_ZTI10idSysLocal
	.long	_ZN10idSysLocal11DebugPrintfEPKcz
	.long	_ZN10idSysLocal12DebugVPrintfEPKcP13__va_list_tag
	.long	_ZN10idSysLocal13GetClockTicksEv
	.long	_ZN10idSysLocal19ClockTicksPerSecondEv
	.long	_ZN10idSysLocal14GetProcessorIdEv
	.long	_ZN10idSysLocal18GetProcessorStringEv
	.long	_ZN10idSysLocal12FPU_GetStateEv
	.long	_ZN10idSysLocal16FPU_StackIsEmptyEv
	.long	_ZN10idSysLocal10FPU_SetFTZEb
	.long	_ZN10idSysLocal10FPU_SetDAZEb
	.long	_ZN10idSysLocal20FPU_EnableExceptionsEi
	.long	_ZN10idSysLocal10LockMemoryEPvi
	.long	_ZN10idSysLocal12UnlockMemoryEPvi
	.long	_ZN10idSysLocal12GetCallStackEPmi
	.long	_ZN10idSysLocal15GetCallStackStrEPKmi
	.long	_ZN10idSysLocal18GetCallStackCurStrEi
	.long	_ZN10idSysLocal15ShutdownSymbolsEv
	.long	_ZN10idSysLocal8DLL_LoadEPKc
	.long	_ZN10idSysLocal18DLL_GetProcAddressEiPKc
	.long	_ZN10idSysLocal10DLL_UnloadEi
	.long	_ZN10idSysLocal15DLL_GetFileNameEPKcPci
	.long	_ZN10idSysLocal24GenerateMouseButtonEventEib
	.long	_ZN10idSysLocal22GenerateMouseMoveEventEii
	.long	_ZN10idSysLocal7OpenURLEPKcb
	.long	_ZN10idSysLocal12StartProcessEPKcb
	.globl sys
	.globl sysLocal
	.globl sys_lang
	.globl sysLanguageNames
	.weak	_ZTV6idCVar
	.section	.rodata._ZTV6idCVar,"aG",@progbits,_ZTV6idCVar,comdat
	.align 3
	.type	_ZTV6idCVar, @object
	.size	_ZTV6idCVar, 32
_ZTV6idCVar:
	.long	0
	.long	_ZTI6idCVar
	.long	_ZN6idCVarD1Ev
	.long	_ZN6idCVarD0Ev
	.long	_ZN6idCVar17InternalSetStringEPKc
	.long	_ZN6idCVar15InternalSetBoolEb
	.long	_ZN6idCVar18InternalSetIntegerEi
	.long	_ZN6idCVar16InternalSetFloatEf
	.weak	_ZTI5idSys
	.section	.sdata._ZTI5idSys,"awG",@progbits,_ZTI5idSys,comdat
	.align 2
	.type	_ZTI5idSys, @object
	.size	_ZTI5idSys, 8
_ZTI5idSys:
	.long	_ZTVN10__cxxabiv117__class_type_infoE+8
	.long	_ZTS5idSys
	.weak	_ZTI6idCVar
	.section	.sdata._ZTI6idCVar,"awG",@progbits,_ZTI6idCVar,comdat
	.align 2
	.type	_ZTI6idCVar, @object
	.size	_ZTI6idCVar, 8
_ZTI6idCVar:
	.long	_ZTVN10__cxxabiv117__class_type_infoE+8
	.long	_ZTS6idCVar
	.weak	_ZTS5idSys
	.section	.sdata._ZTS5idSys,"awG",@progbits,_ZTS5idSys,comdat
	.align 2
	.type	_ZTS5idSys, @object
	.size	_ZTS5idSys, 7
_ZTS5idSys:
	.string	"5idSys"
	.weak	_ZTS6idCVar
	.section	.sdata._ZTS6idCVar,"awG",@progbits,_ZTS6idCVar,comdat
	.align 2
	.type	_ZTS6idCVar, @object
	.size	_ZTS6idCVar, 8
_ZTS6idCVar:
	.string	"6idCVar"
	.weak	_ZN6idCVarD1Ev
	.set	_ZN6idCVarD1Ev,_ZN6idCVarD2Ev
	.weak	_ZN9idWindingD1Ev
	.set	_ZN9idWindingD1Ev,_ZN9idWindingD2Ev
	.weak	_ZN14idFixedWindingD1Ev
	.set	_ZN14idFixedWindingD1Ev,_ZN14idFixedWindingD2Ev
	.section	.rodata.cst4,"aM",@progbits,4
	.align 2
.LC21:
	.4byte	1065353216
.LC22:
	.4byte	-1082130432
	.section	".data"
	.align 2
	.set	.LANCHOR0,. + 0
	.type	sysLanguageNames, @object
	.size	sysLanguageNames, 44
sysLanguageNames:
	.long	.LC20
	.long	.LC28
	.long	.LC29
	.long	.LC30
	.long	.LC31
	.long	.LC32
	.long	.LC33
	.long	.LC34
	.long	.LC35
	.long	.LC36
	.long	0
	.section	.rodata.str1.4,"aMS",@progbits,1
	.align 2
.LC0:
	.string	"PowerPC Gekko @720Mhz"
	.zero	2
.LC1:
	.string	""
	.zero	3
.LC2:
	.string	"%s %s"
	.zero	2
.LC3:
	.string	"void idSysLocal::FPU_EnableExceptions( int exceptions )\r\n"
	.zero	2
.LC4:
	.string	"void idSysLocal::DLL_GetFileName( const char *baseName, char *dllName, int maxLength )\r\n"
	.zero	3
.LC5:
	.string	"void idSysLocal::DLL_Unload( int dllHandle )\r\n"
	.zero	1
.LC6:
	.string	"void *idSysLocal::DLL_GetProcAddress( int dllHandle, const char *procName )\r\n"
	.zero	2
.LC7:
	.string	"int idSysLocal::DLL_Load( const char *dllName )\r\n"
	.zero	2
.LC8:
	.string	"void idSysLocal::ShutdownSymbols( void )\r\n"
	.zero	1
.LC9:
	.string	"char * idSysLocal::GetCallStackCurStr( int depth )\r\n"
	.zero	3
.LC10:
	.string	"char * idSysLocal::GetCallStackStr( const address_t *callStack, const int callStackSize )\r\n"
.LC11:
	.string	"void idSysLocal::GetCallStack( address_t *callStack, const int callStackSize )\r\n"
	.zero	3
.LC12:
	.string	"void idSysLocal::FPU_SetDAZ( bool enable )\r\n"
	.zero	3
.LC13:
	.string	"void idSysLocal::FPU_SetFTZ( bool enable )\r\n"
	.zero	3
.LC14:
	.string	"bool idSysLocal::FPU_StackIsEmpty( void )\r\n"
.LC15:
	.string	"char *idSysLocal::FPU_GetState( void )\r\n"
	.zero	3
.LC16:
	.string	"cpuid_t idSysLocal::GetProcessorId( void )\r\n"
	.zero	3
.LC17:
	.string	"void idSysLocal::DebugVPrintf( const char *fmt, va_list arg )\r\n"
.LC18:
	.string	"void idSysLocal::DebugPrintf( const char *fmt, ... )\r\n"
	.zero	1
.LC19:
	.string	"sys_lang"
	.zero	3
.LC20:
	.string	"english"
.LC23:
	.string	"%02d"
	.zero	3
.LC24:
	.string	"%d"
	.zero	1
.LC25:
	.string	"12"
	.zero	1
.LC26:
	.string	"pm"
	.zero	1
.LC27:
	.string	"am"
	.zero	1
.LC28:
	.string	"spanish"
.LC29:
	.string	"italian"
.LC30:
	.string	"german"
	.zero	1
.LC31:
	.string	"french"
	.zero	1
.LC32:
	.string	"russian"
.LC33:
	.string	"polish"
	.zero	1
.LC34:
	.string	"korean"
	.zero	1
.LC35:
	.string	"japanese"
	.zero	3
.LC36:
	.string	"chinese"
	.section	.sbss,"aw",@nobits
	.align 2
	.type	sysLocal, @object
	.size	sysLocal, 4
sysLocal:
	.zero	4
	.section	.sdata,"aw",@progbits
	.align 2
	.type	sys, @object
	.size	sys, 4
sys:
	.long	sysLocal
	.section	".bss"
	.align 2
	.set	.LANCHOR1,. + 0
	.type	sys_lang, @object
	.size	sys_lang, 52
sys_lang:
	.zero	52
	.type	_ZZ18Sys_TimeStampToStrlE10timeString, @object
	.size	_ZZ18Sys_TimeStampToStrlE10timeString, 1024
_ZZ18Sys_TimeStampToStrlE10timeString:
	.zero	1024
	.section	".text"
.Letext0:
	.file 8 "<built-in>"
	.file 9 "c:\\utils\\devkitpro\\devkitppc\\bin\\../lib/gcc/powerpc-eabi/4.6.3/include/stddef.h"
	.file 10 "c:\\utils\\devkitpro\\devkitppc\\bin\\../lib/gcc/powerpc-eabi/4.6.3/../../../../powerpc-eabi/include/sys/types.h"
	.file 11 "c:\\utils\\devkitpro\\devkitppc\\bin\\../lib/gcc/powerpc-eabi/4.6.3/../../../../powerpc-eabi/include/time.h"
	.file 12 "d:/Data/Nintendo/DoomGX/src/sys/../idlib/../sys/sys_public.h"
	.file 13 "d:/Data/Nintendo/DoomGX/src/sys/../idlib/../framework/Common.h"
	.file 14 "d:/Data/Nintendo/DoomGX/src/sys/../idlib/../framework/FileSystem.h"
	.file 15 "d:/Data/Nintendo/DoomGX/src/sys/../idlib/../idlib/Lib.h"
	.file 16 "d:/Data/Nintendo/DoomGX/src/sys/../idlib/../idlib/math/Random.h"
	.file 17 "d:/Data/Nintendo/DoomGX/src/sys/../idlib/../idlib/math/Vector.h"
	.file 18 "d:/Data/Nintendo/DoomGX/src/sys/../idlib/../idlib/math/Angles.h"
	.file 19 "d:/Data/Nintendo/DoomGX/src/sys/../idlib/../idlib/math/Matrix.h"
	.file 20 "d:/Data/Nintendo/DoomGX/src/sys/../idlib/../idlib/math/Quat.h"
	.file 21 "d:/Data/Nintendo/DoomGX/src/sys/../idlib/../idlib/math/Rotation.h"
	.file 22 "d:/Data/Nintendo/DoomGX/src/sys/../idlib/../idlib/math/Plane.h"
	.file 23 "d:/Data/Nintendo/DoomGX/src/sys/../idlib/../idlib/containers/List.h"
	.file 24 "d:/Data/Nintendo/DoomGX/src/sys/../idlib/../idlib/math/Ode.h"
	.file 25 "d:/Data/Nintendo/DoomGX/src/sys/../idlib/../idlib/bv/Sphere.h"
	.file 26 "d:/Data/Nintendo/DoomGX/src/sys/../idlib/../idlib/bv/Bounds.h"
	.file 27 "d:/Data/Nintendo/DoomGX/src/sys/../idlib/../idlib/bv/Box.h"
	.file 28 "d:/Data/Nintendo/DoomGX/src/sys/../idlib/../idlib/bv/Frustum.h"
	.file 29 "d:/Data/Nintendo/DoomGX/src/sys/../idlib/../idlib/geometry/DrawVert.h"
	.file 30 "d:/Data/Nintendo/DoomGX/src/sys/../idlib/../idlib/geometry/JointTransform.h"
	.file 31 "d:/Data/Nintendo/DoomGX/src/sys/../idlib/../idlib/geometry/Surface.h"
	.file 32 "d:/Data/Nintendo/DoomGX/src/sys/../idlib/../idlib/geometry/TraceModel.h"
	.file 33 "d:/Data/Nintendo/DoomGX/src/sys/../idlib/../idlib/Token.h"
	.file 34 "d:/Data/Nintendo/DoomGX/src/sys/../idlib/../idlib/Lexer.h"
	.file 35 "d:/Data/Nintendo/DoomGX/src/sys/../idlib/../framework/File.h"
	.file 36 "d:/Data/Nintendo/DoomGX/src/sys/../idlib/../idlib/Parser.h"
	.file 37 "d:/Data/Nintendo/DoomGX/src/sys/../idlib/../idlib/containers/HashIndex.h"
	.file 38 "d:/Data/Nintendo/DoomGX/src/sys/../idlib/../idlib/containers/StrList.h"
	.file 39 "d:/Data/Nintendo/DoomGX/src/sys/../idlib/../idlib/containers/StrPool.h"
	.file 40 "d:/Data/Nintendo/DoomGX/src/sys/../idlib/../idlib/containers/PlaneSet.h"
	.file 41 "d:/Data/Nintendo/DoomGX/src/sys/../idlib/../idlib/Dict.h"
	.file 42 "d:/Data/Nintendo/DoomGX/src/sys/../idlib/../idlib/LangDict.h"
	.file 43 "d:/Data/Nintendo/DoomGX/src/sys/../idlib/../idlib/BitMsg.h"
	.file 44 "d:/Data/Nintendo/DoomGX/src/sys/../idlib/../idlib/MapFile.h"
	.file 45 "d:/Data/Nintendo/DoomGX/src/sys/../idlib/../framework/UsercmdGen.h"
	.file 46 "d:/Data/Nintendo/DoomGX/src/sys/../idlib/../framework/DeclManager.h"
	.file 47 "d:/Data/Nintendo/DoomGX/src/sys/../idlib/../framework/DeclParticle.h"
	.file 48 "d:/Data/Nintendo/DoomGX/src/sys/../idlib/../renderer/RenderWorld.h"
	.file 49 "d:/Data/Nintendo/DoomGX/src/sys/../idlib/../renderer/Cinematic.h"
	.file 50 "d:/Data/Nintendo/DoomGX/src/sys/../idlib/../renderer/Model.h"
	.file 51 "d:/Data/Nintendo/DoomGX/src/sys/../idlib/../renderer/RenderSystem.h"
	.file 52 "d:/Data/Nintendo/DoomGX/src/sys/../idlib/../sound/sound.h"
	.file 53 "d:/Data/Nintendo/DoomGX/src/sys/../idlib/../ui/UserInterface.h"
	.file 54 "d:/Data/Nintendo/DoomGX/src/sys/../idlib/../cm/CollisionModel.h"
	.file 55 "d:/Data/Nintendo/DoomGX/src/sys/../idlib/../tools/compilers/aas/AASFile.h"
	.file 56 "d:/Data/Nintendo/DoomGX/src/sys/../idlib/../game/Game.h"
	.file 57 "d:/Data/Nintendo/DoomGX/src/sys/../idlib/../framework/async/NetworkSystem.h"
	.file 58 "d:/Data/Nintendo/DoomGX/src/sys/../idlib/../renderer/ModelManager.h"
	.file 59 "d:/Data/Nintendo/DoomGX/src/sys/../idlib/../tools/compilers/aas/AASFileManager.h"
	.file 60 "d:/Data/Nintendo/DoomGX/src/sys/../idlib/../framework/KeyInput.h"
	.file 61 "d:/Data/Nintendo/DoomGX/src/sys/../idlib/../framework/Session.h"
	.file 62 "d:/Data/Nintendo/DoomGX/src/sys/../idlib/../ui/ListGUI.h"
	.file 63 "d:/Data/Nintendo/DoomGX/src/sys/../idlib/../framework/Console.h"
	.file 64 "d:/Data/Nintendo/DoomGX/src/sys/../idlib/../idlib/math/Curve.h"
	.file 65 "d:/Data/Nintendo/DoomGX/src/sys/../idlib/../idlib/math/Simd.h"
	.file 66 "d:/Data/Nintendo/DoomGX/src/sys/../idlib/../framework/BuildVersion.h"
	.file 67 "d:/Data/Nintendo/DoomGX/src/sys/../idlib/precompiled.h"
	.file 68 "d:/Data/Nintendo/DoomGX/src/sys/../idlib/../renderer/Material.h"
	.file 69 "d:/Data/Nintendo/DoomGX/src/sys/../idlib/../framework/EventLoop.h"
	.file 70 "d:/Data/Nintendo/DoomGX/src/sys/../idlib/../framework/EditField.h"
	.file 71 "d:/Data/Nintendo/DoomGX/src/sys/../idlib/../framework/async/AsyncNetwork.h"
	.file 72 "d:/Data/Nintendo/DoomGX/src/sys/../idlib/../framework/async/AsyncServer.h"