	.file	"sys_net.cpp"
	.section	".text"
.Ltext0:
	.section	.text._ZN14idFixedWinding5ClearEv,"axG",@progbits,_ZN14idFixedWinding5ClearEv,comdat
	.align 2
	.weak	_ZN14idFixedWinding5ClearEv
	.type	_ZN14idFixedWinding5ClearEv, @function
_ZN14idFixedWinding5ClearEv:
.LFB1502:
	.file 1 "d:/Data/Nintendo/DoomGX/src/sys/ogc/../../idlib/../idlib/geometry/Winding.h"
	.loc 1 398 0
	.cfi_startproc
.LVL0:
	.loc 1 399 0
	li 0,0
	.loc 1 400 0
	.loc 1 399 0
	stw 0,4(3)
	.loc 1 400 0
	blr
	.cfi_endproc
.LFE1502:
	.size	_ZN14idFixedWinding5ClearEv, .-_ZN14idFixedWinding5ClearEv
	.section	.text._ZN6idCVarD2Ev,"axG",@progbits,_ZN6idCVarD5Ev,comdat
	.align 2
	.weak	_ZN6idCVarD2Ev
	.type	_ZN6idCVarD2Ev, @function
_ZN6idCVarD2Ev:
.LFB2175:
	.file 2 "d:/Data/Nintendo/DoomGX/src/sys/ogc/../../idlib/../framework/CVarSystem.h"
	.loc 2 127 0
	.cfi_startproc
.LVL1:
.LBB405:
	.loc 2 127 0
	lis 9,_ZTV6idCVar+8@ha
.LBE405:
.LBB406:
	la 0,_ZTV6idCVar+8@l(9)
	stw 0,0(3)
.LBE406:
	blr
	.cfi_endproc
.LFE2175:
	.size	_ZN6idCVarD2Ev, .-_ZN6idCVarD2Ev
	.section	.text._ZN6idCVar17InternalSetStringEPKc,"axG",@progbits,_ZN6idCVar17InternalSetStringEPKc,comdat
	.align 2
	.weak	_ZN6idCVar17InternalSetStringEPKc
	.type	_ZN6idCVar17InternalSetStringEPKc, @function
_ZN6idCVar17InternalSetStringEPKc:
.LFB2197:
	.loc 2 173 0
	.cfi_startproc
.LVL2:
	.loc 2 173 0
	blr
	.cfi_endproc
.LFE2197:
	.size	_ZN6idCVar17InternalSetStringEPKc, .-_ZN6idCVar17InternalSetStringEPKc
	.section	.text._ZN6idCVar15InternalSetBoolEb,"axG",@progbits,_ZN6idCVar15InternalSetBoolEb,comdat
	.align 2
	.weak	_ZN6idCVar15InternalSetBoolEb
	.type	_ZN6idCVar15InternalSetBoolEb, @function
_ZN6idCVar15InternalSetBoolEb:
.LFB2198:
	.loc 2 174 0
	.cfi_startproc
.LVL3:
	.loc 2 174 0
	blr
	.cfi_endproc
.LFE2198:
	.size	_ZN6idCVar15InternalSetBoolEb, .-_ZN6idCVar15InternalSetBoolEb
	.section	.text._ZN6idCVar18InternalSetIntegerEi,"axG",@progbits,_ZN6idCVar18InternalSetIntegerEi,comdat
	.align 2
	.weak	_ZN6idCVar18InternalSetIntegerEi
	.type	_ZN6idCVar18InternalSetIntegerEi, @function
_ZN6idCVar18InternalSetIntegerEi:
.LFB2199:
	.loc 2 175 0
	.cfi_startproc
.LVL4:
	.loc 2 175 0
	blr
	.cfi_endproc
.LFE2199:
	.size	_ZN6idCVar18InternalSetIntegerEi, .-_ZN6idCVar18InternalSetIntegerEi
	.section	.text._ZN6idCVar16InternalSetFloatEf,"axG",@progbits,_ZN6idCVar16InternalSetFloatEf,comdat
	.align 2
	.weak	_ZN6idCVar16InternalSetFloatEf
	.type	_ZN6idCVar16InternalSetFloatEf, @function
_ZN6idCVar16InternalSetFloatEf:
.LFB2200:
	.loc 2 176 0
	.cfi_startproc
.LVL5:
	.loc 2 176 0
	blr
	.cfi_endproc
.LFE2200:
	.size	_ZN6idCVar16InternalSetFloatEf, .-_ZN6idCVar16InternalSetFloatEf
	.section	.text._ZN9idWinding5ClearEv,"axG",@progbits,_ZN9idWinding5ClearEv,comdat
	.align 2
	.weak	_ZN9idWinding5ClearEv
	.type	_ZN9idWinding5ClearEv, @function
_ZN9idWinding5ClearEv:
.LFB1473:
	.loc 1 249 0
	.cfi_startproc
.LVL6:
	mflr 0
	stwu 1,-16(1)
.LCFI0:
	.cfi_def_cfa_offset 16
	.cfi_register 65, 0
	stw 31,12(1)
	mr 31,3
	.cfi_offset 31, -4
	stw 0,20(1)
	.loc 1 250 0
	li 0,0
	.cfi_offset 65, 4
	.loc 1 251 0
	lwz 3,8(3)
.LVL7:
	.loc 1 250 0
	stw 0,4(31)
	.loc 1 251 0
	cmpwi 7,3,0
	beq- 7,.L9
	.loc 1 251 0 is_stmt 0 discriminator 1
	bl _ZdaPv
.L9:
	.loc 1 252 0 is_stmt 1
	li 0,0
	stw 0,8(31)
	.loc 1 253 0
	lwz 0,20(1)
	lwz 31,12(1)
.LVL8:
	mtlr 0
	addi 1,1,16
.LCFI1:
	.cfi_def_cfa_offset 0
	.cfi_restore 31
	blr
	.cfi_endproc
.LFE1473:
	.size	_ZN9idWinding5ClearEv, .-_ZN9idWinding5ClearEv
	.section	.text._ZN9idWindingD2Ev,"axG",@progbits,_ZN9idWindingD5Ev,comdat
	.align 2
	.weak	_ZN9idWindingD2Ev
	.type	_ZN9idWindingD2Ev, @function
_ZN9idWindingD2Ev:
.LFB1461:
	.loc 1 183 0
	.cfi_startproc
.LVL9:
	mflr 0
	stwu 1,-16(1)
.LCFI2:
	.cfi_def_cfa_offset 16
	.cfi_register 65, 0
.LBB408:
	lis 9,_ZTV9idWinding+8@ha
.LBE408:
	stw 31,12(1)
	mr 31,3
	.cfi_offset 31, -4
	stw 0,20(1)
.LBB409:
	.loc 1 183 0
	la 0,_ZTV9idWinding+8@l(9)
	.cfi_offset 65, 4
	.loc 1 184 0
	lwz 3,8(3)
.LVL10:
	.loc 1 183 0
	stw 0,0(31)
	.loc 1 184 0
	cmpwi 7,3,0
	beq- 7,.L12
	.loc 1 184 0 is_stmt 0 discriminator 1
	bl _ZdaPv
.L12:
	.loc 1 185 0 is_stmt 1
	li 0,0
	stw 0,8(31)
.LBE409:
	.loc 1 186 0
	lwz 0,20(1)
	lwz 31,12(1)
.LVL11:
	mtlr 0
	addi 1,1,16
.LCFI3:
	.cfi_def_cfa_offset 0
	.cfi_restore 31
	blr
	.cfi_endproc
.LFE1461:
	.size	_ZN9idWindingD2Ev, .-_ZN9idWindingD2Ev
	.section	.text._ZN6idCVarD0Ev,"axG",@progbits,_ZN6idCVarD5Ev,comdat
	.align 2
	.weak	_ZN6idCVarD0Ev
	.type	_ZN6idCVarD0Ev, @function
_ZN6idCVarD0Ev:
.LFB2177:
	.loc 2 127 0
	.cfi_startproc
.LVL12:
	mflr 0
	stwu 1,-8(1)
.LCFI4:
	.cfi_def_cfa_offset 8
	.cfi_register 65, 0
.LBB410:
.LBB411:
.LBB412:
	lis 9,_ZTV6idCVar+8@ha
.LBE412:
.LBE411:
.LBE410:
	stw 0,12(1)
.LBB415:
.LBB414:
.LBB413:
	.loc 2 127 0
	la 0,_ZTV6idCVar+8@l(9)
	.cfi_offset 65, 4
	stw 0,0(3)
.LBE413:
.LBE414:
.LBE415:
	bl _ZdlPv
.LVL13:
	lwz 0,12(1)
	addi 1,1,8
.LCFI5:
	.cfi_def_cfa_offset 0
	mtlr 0
	blr
	.cfi_endproc
.LFE2177:
	.size	_ZN6idCVarD0Ev, .-_ZN6idCVarD0Ev
	.section	.text._ZN11idCmdSystem21ArgCompletion_BooleanERK9idCmdArgsPFvPKcE,"axG",@progbits,_ZN11idCmdSystem21ArgCompletion_BooleanERK9idCmdArgsPFvPKcE,comdat
	.align 2
	.weak	_ZN11idCmdSystem21ArgCompletion_BooleanERK9idCmdArgsPFvPKcE
	.type	_ZN11idCmdSystem21ArgCompletion_BooleanERK9idCmdArgsPFvPKcE, @function
_ZN11idCmdSystem21ArgCompletion_BooleanERK9idCmdArgsPFvPKcE:
.LFB2158:
	.file 3 "d:/Data/Nintendo/DoomGX/src/sys/ogc/../../idlib/../framework/CmdSystem.h"
	.loc 3 131 0
	.cfi_startproc
.LVL14:
	mflr 0
	stwu 1,-24(1)
.LCFI6:
	.cfi_def_cfa_offset 24
	.cfi_register 65, 0
	stw 31,20(1)
	mr 31,3
	.cfi_offset 31, -4
.LVL15:
	stw 0,28(1)
	.loc 3 131 0
	stw 4,8(1)
.LBB416:
.LBB417:
	.file 4 "d:/Data/Nintendo/DoomGX/src/sys/ogc/../../idlib/../idlib/CmdArgs.h"
	.loc 4 50 0
	lwz 0,0(3)
	.cfi_offset 65, 4
	cmpwi 7,0,0
	ble- 7,.L20
.LVL16:
	lwz 4,4(3)
.LVL17:
.LBE417:
.LBE416:
	.loc 3 132 0
	lis 3,.LC1@ha
.LVL18:
	la 3,.LC1@l(3)
	crxor 6,6,6
	bl _Z2vaPKcz
	lwz 0,8(1)
	mtctr 0
	bctrl
.LVL19:
.LBB420:
.LBB421:
	.loc 4 50 0
	lwz 0,0(31)
	cmpwi 7,0,0
	ble- 7,.L21
.L22:
	lwz 4,4(31)
.LBE421:
.LBE420:
	.loc 3 133 0
	lis 3,.LC2@ha
	la 3,.LC2@l(3)
	crxor 6,6,6
	bl _Z2vaPKcz
	lwz 0,8(1)
	mtctr 0
	bctrl
	.loc 3 134 0
	lwz 0,28(1)
	lwz 31,20(1)
.LVL20:
	mtlr 0
	addi 1,1,24
	.cfi_remember_state
.LCFI7:
	.cfi_def_cfa_offset 0
	.cfi_restore 31
	blr
.LVL21:
.L20:
.LCFI8:
	.cfi_restore_state
.LBB424:
.LBB418:
	.loc 4 50 0
	lis 4,.LC0@ha
.LBE418:
.LBE424:
	.loc 3 132 0
	lis 3,.LC1@ha
.LVL22:
.LBB425:
.LBB419:
	.loc 4 50 0
	la 4,.LC0@l(4)
.LBE419:
.LBE425:
	.loc 3 132 0
	la 3,.LC1@l(3)
	crxor 6,6,6
	bl _Z2vaPKcz
	lwz 0,8(1)
	mtctr 0
	bctrl
.LVL23:
.LBB426:
.LBB422:
	.loc 4 50 0
	lwz 0,0(31)
	cmpwi 7,0,0
	bgt+ 7,.L22
.L21:
	lis 4,.LC0@ha
.LBE422:
.LBE426:
	.loc 3 133 0
	lis 3,.LC2@ha
.LBB427:
.LBB423:
	.loc 4 50 0
	la 4,.LC0@l(4)
.LBE423:
.LBE427:
	.loc 3 133 0
	la 3,.LC2@l(3)
	crxor 6,6,6
	bl _Z2vaPKcz
	lwz 0,8(1)
	mtctr 0
	bctrl
	.loc 3 134 0
	lwz 0,28(1)
	lwz 31,20(1)
.LVL24:
	mtlr 0
	addi 1,1,24
	.cfi_restore 31
.LCFI9:
	.cfi_def_cfa_offset 0
	blr
	.cfi_endproc
.LFE2158:
	.size	_ZN11idCmdSystem21ArgCompletion_BooleanERK9idCmdArgsPFvPKcE, .-_ZN11idCmdSystem21ArgCompletion_BooleanERK9idCmdArgsPFvPKcE
	.section	".text"
	.align 2
	.type	_ZL15SockadrToNetadrP11sockaddr_inP8netadr_t.constprop.17, @function
_ZL15SockadrToNetadrP11sockaddr_inP8netadr_t.constprop.17:
.LFB2812:
	.file 5 "d:/Data/Nintendo/DoomGX/src/sys/ogc/sys_net.cpp"
	.loc 5 175 0
	.cfi_startproc
.LVL25:
	mflr 0
	stwu 1,-16(1)
.LCFI10:
	.cfi_def_cfa_offset 16
	.cfi_register 65, 0
	stw 31,12(1)
	mr 31,4
	.cfi_offset 31, -4
	stw 0,20(1)
	stw 30,8(1)
.LBB428:
	.loc 5 176 0
	lwz 30,4(3)
	.cfi_offset 30, -8
	.cfi_offset 65, 4
.LVL26:
	.loc 5 177 0
	stw 30,4(4)
	.loc 5 178 0
	lhz 0,2(3)
	.loc 5 181 0
	lis 3,.LC3@ha
.LVL27:
	la 3,.LC3@l(3)
	.loc 5 178 0
	sth 0,8(4)
	.loc 5 181 0
	mr 4,30
.LVL28:
	crxor 6,6,6
	bl _Z10Sys_PrintfPKcz
	.loc 5 182 0
	cmpwi 7,30,128
	.loc 5 185 0
	li 0,3
	.loc 5 182 0
	beq- 7,.L26
	stw 0,0(31)
.LBE428:
	.loc 5 187 0
	lwz 0,20(1)
	lwz 30,8(1)
.LVL29:
	mtlr 0
	lwz 31,12(1)
.LVL30:
	addi 1,1,16
	.cfi_remember_state
.LCFI11:
	.cfi_def_cfa_offset 0
	.cfi_restore 31
	.cfi_restore 30
	blr
.LVL31:
.L26:
.LCFI12:
	.cfi_restore_state
.LBB429:
	.loc 5 183 0
	li 0,1
	.loc 5 182 0
	stw 0,0(31)
.LBE429:
	.loc 5 187 0
	lwz 0,20(1)
	lwz 30,8(1)
.LVL32:
	mtlr 0
	lwz 31,12(1)
.LVL33:
	addi 1,1,16
	.cfi_restore 30
	.cfi_restore 31
.LCFI13:
	.cfi_def_cfa_offset 0
	blr
	.cfi_endproc
.LFE2812:
	.size	_ZL15SockadrToNetadrP11sockaddr_inP8netadr_t.constprop.17, .-_ZL15SockadrToNetadrP11sockaddr_inP8netadr_t.constprop.17
	.align 2
	.type	_ZL11ExtractPortPKcPciPi.constprop.19, @function
_ZL11ExtractPortPKcPciPi.constprop.19:
.LFB2810:
	.loc 5 108 0
	.cfi_startproc
.LVL34:
	stwu 1,-24(1)
.LCFI14:
	.cfi_def_cfa_offset 24
	mflr 0
	stw 31,20(1)
	mr 31,4
	.cfi_offset 31, -4
	.cfi_register 65, 0
	stw 29,12(1)
.LBB430:
	.loc 5 110 0
	mr 4,3
.LVL35:
.LBE430:
	.loc 5 108 0
	stw 30,16(1)
	mr 29,5
	.cfi_offset 30, -8
	.cfi_offset 29, -12
	mr 30,3
.LBB431:
	.loc 5 110 0
	li 5,256
.LVL36:
	mr 3,31
.LVL37:
.LBE431:
	.loc 5 108 0
	stw 0,28(1)
.LBB432:
	.loc 5 110 0
	.cfi_offset 65, 4
	bl strncpy
.LVL38:
	.loc 5 111 0
	mr 3,30
	bl strlen
.LVL39:
	cmpwi 7,3,255
	ble- 7,.L28
	li 3,255
.LVL40:
.L28:
	li 0,0
	.loc 5 112 0
	li 4,58
	.loc 5 111 0
	stbx 0,31,3
	.loc 5 112 0
	mr 3,31
	bl strchr
.LVL41:
	.loc 5 113 0
	mr. 9,3
	.loc 5 114 0
	li 3,0
.LVL42:
	.loc 5 113 0
	beq- 0,.L29
	.loc 5 116 0
	stb 3,0(9)
	.loc 5 117 0
	li 4,0
	addi 3,9,1
	li 5,10
	bl strtol
.LVL43:
	.loc 5 118 0
	cmpwi 7,3,0
	.loc 5 117 0
	mr 31,3
.LVL44:
	stw 3,0(29)
	.loc 5 118 0
	beq- 7,.L34
	lis 0,0x7fff
	.loc 5 122 0
	li 3,1
	.loc 5 118 0
	ori 0,0,65535
	add 31,31,0
	li 0,-3
	cmplw 7,31,0
	bgt- 7,.L35
.L29:
.LBE432:
	.loc 5 123 0
	lwz 0,28(1)
	lwz 29,12(1)
.LVL45:
	mtlr 0
	lwz 30,16(1)
.LVL46:
	lwz 31,20(1)
	addi 1,1,24
	.cfi_remember_state
.LCFI15:
	.cfi_def_cfa_offset 0
	.cfi_restore 31
	.cfi_restore 30
	.cfi_restore 29
	blr
.LVL47:
.L34:
.LCFI16:
	.cfi_restore_state
.LBB433:
	.loc 5 118 0
	bl __errno
	lwz 0,0(3)
	.loc 5 120 0
	mr 3,31
	.loc 5 118 0
	cmpwi 7,0,22
	beq- 7,.L29
	lwz 31,0(29)
	lis 0,0x7fff
	ori 0,0,65535
	.loc 5 122 0
	li 3,1
	.loc 5 118 0
	add 31,31,0
	li 0,-3
	cmplw 7,31,0
	ble+ 7,.L29
.L35:
	.loc 5 119 0
	bl __errno
.LBE433:
	.loc 5 123 0
	lwz 0,28(1)
.LBB434:
	.loc 5 108 0
	lwz 3,0(3)
.LBE434:
	.loc 5 123 0
	mtlr 0
	lwz 29,12(1)
.LVL48:
.LBB435:
	.loc 5 108 0
	xori 3,3,34
.LBE435:
	.loc 5 123 0
	lwz 30,16(1)
.LVL49:
.LBB436:
	.loc 5 108 0
	cntlzw 3,3
.LBE436:
	.loc 5 123 0
	lwz 31,20(1)
.LBB437:
	.loc 5 108 0
	srwi 3,3,5
.LBE437:
	.loc 5 123 0
.LBB438:
	.loc 5 108 0
	xori 3,3,1
.LBE438:
	.loc 5 123 0
	addi 1,1,24
	.cfi_restore 29
	.cfi_restore 30
	.cfi_restore 31
.LCFI17:
	.cfi_def_cfa_offset 0
	blr
	.cfi_endproc
.LFE2810:
	.size	_ZL11ExtractPortPKcPciPi.constprop.19, .-_ZL11ExtractPortPKcPciPi.constprop.19
	.align 2
	.type	_ZL16StringToSockaddrPKcP11sockaddr_inb.constprop.16, @function
_ZL16StringToSockaddrPKcP11sockaddr_inb.constprop.16:
.LFB2813:
	.loc 5 132 0
	.cfi_startproc
.LVL50:
	mflr 0
	stwu 1,-296(1)
.LCFI18:
	.cfi_def_cfa_offset 296
	.cfi_register 65, 0
.LBB443:
	.loc 5 138 0
	li 9,2
.LBE443:
	.loc 5 132 0
	stw 30,288(1)
	mr 30,3
	.cfi_offset 30, -8
	stw 0,300(1)
.LBB444:
	.loc 5 137 0
	li 0,0
	.cfi_offset 65, 4
.LBE444:
	.loc 5 132 0
	stw 31,292(1)
	mr 31,4
	.cfi_offset 31, -4
	stw 28,280(1)
	stw 29,284(1)
.LBB445:
	.loc 5 137 0
	stw 0,0(4)
	stw 0,4(4)
	stw 0,8(4)
	stw 0,12(4)
	.loc 5 138 0
	stb 9,1(4)
	.loc 5 140 0
	sth 0,2(4)
	.loc 5 142 0
	lbz 9,0(3)
	addi 9,9,-48
	rlwinm 9,9,0,0xff
	cmplwi 7,9,9
	ble- 7,.L46
	.cfi_offset 29, -12
	.cfi_offset 28, -16
	.loc 5 153 0
	cmpwi 7,5,0
	.loc 5 166 0
	li 28,1
	.loc 5 153 0
	bne- 7,.L47
.LVL51:
.L39:
.LBE445:
	.loc 5 167 0
	lwz 0,300(1)
	mr 3,28
	lwz 29,284(1)
	mtlr 0
	lwz 28,280(1)
	lwz 30,288(1)
.LVL52:
	lwz 31,292(1)
.LVL53:
	addi 1,1,296
	.cfi_remember_state
.LCFI19:
	.cfi_def_cfa_offset 0
	.cfi_restore 31
	.cfi_restore 30
	.cfi_restore 29
	.cfi_restore 28
	blr
.LVL54:
.L47:
.LCFI20:
	.cfi_restore_state
.LBB446:
	.loc 5 156 0
	addi 4,1,12
.LVL55:
	addi 5,1,8
.LVL56:
	bl _ZL11ExtractPortPKcPciPi.constprop.19
.LVL57:
	cmpwi 7,3,0
	bne- 7,.L48
.LVL58:
.L40:
	.loc 5 159 0
	addi 3,1,12
	.loc 5 160 0
	li 28,0
	.loc 5 159 0
	bl net_gethostbyname
.LVL59:
	cmpwi 0,3,0
	beq- 0,.L39
	.loc 5 163 0
	lwz 9,12(3)
	.loc 5 166 0
	li 28,1
.LBE446:
	.loc 5 167 0
	mr 3,28
.LVL60:
.LBB447:
	.loc 5 163 0
	lwz 9,0(9)
	lwz 0,0(9)
	stw 0,4(31)
.LBE447:
	.loc 5 167 0
	lwz 0,300(1)
	lwz 28,280(1)
	mtlr 0
	lwz 29,284(1)
	lwz 30,288(1)
.LVL61:
	lwz 31,292(1)
.LVL62:
	addi 1,1,296
	.cfi_remember_state
	.cfi_restore 28
	.cfi_restore 29
	.cfi_restore 30
	.cfi_restore 31
.LCFI21:
	.cfi_def_cfa_offset 0
	blr
.LVL63:
.L46:
.LCFI22:
	.cfi_restore_state
.LBB448:
.LBB449:
.LBB450:
	.loc 5 143 0
	addi 29,4,4
	.loc 5 166 0
	li 28,1
	.loc 5 143 0
	mr 4,29
.LVL64:
	bl inet_aton
.LVL65:
	cmpwi 7,3,0
	bne+ 7,.L39
	.loc 5 145 0
	mr 3,30
	addi 4,1,12
	addi 5,1,8
	.loc 5 146 0
	li 28,0
	.loc 5 145 0
	bl _ZL11ExtractPortPKcPciPi.constprop.19
	cmpwi 7,3,0
	beq+ 7,.L39
	.loc 5 148 0
	addi 3,1,12
	mr 4,29
	bl inet_aton
	cmpwi 7,3,0
	beq- 7,.L39
.LVL66:
	.loc 5 151 0
	lwz 0,8(1)
	.loc 5 166 0
	li 28,1
	.loc 5 151 0
	sth 0,2(31)
	b .L39
.LVL67:
.L48:
.LBE450:
.LBE449:
.LBE448:
.LBB451:
	.loc 5 157 0
	lwz 0,8(1)
	sth 0,2(31)
	b .L40
.LBE451:
	.cfi_endproc
.LFE2813:
	.size	_ZL16StringToSockaddrPKcP11sockaddr_inb.constprop.16, .-_ZL16StringToSockaddrPKcP11sockaddr_inb.constprop.16
	.section	.text._ZN14idFixedWindingD0Ev,"axG",@progbits,_ZN14idFixedWindingD5Ev,comdat
	.align 2
	.weak	_ZN14idFixedWindingD0Ev
	.type	_ZN14idFixedWindingD0Ev, @function
_ZN14idFixedWindingD0Ev:
.LFB1500:
	.loc 1 380 0
	.cfi_startproc
.LVL68:
	mflr 0
	stwu 1,-8(1)
.LCFI23:
	.cfi_def_cfa_offset 8
	.cfi_register 65, 0
.LBB458:
.LBB459:
.LBB460:
.LBB461:
.LBB462:
.LBB463:
	.loc 1 183 0
	lis 11,_ZTV9idWinding+8@ha
.LBE463:
.LBE462:
.LBE461:
.LBE460:
.LBE459:
.LBE458:
	.loc 1 380 0
	stw 0,12(1)
.LBB469:
.LBB468:
.LBB467:
	.loc 1 381 0
	li 0,0
	.cfi_offset 65, 4
	stw 0,8(3)
.LVL69:
.LBB466:
.LBB465:
.LBB464:
	.loc 1 183 0
	la 0,_ZTV9idWinding+8@l(11)
	stw 0,0(3)
.LBE464:
.LBE465:
.LBE466:
.LBE467:
.LBE468:
.LBE469:
	.loc 1 382 0
	bl _ZdlPv
.LVL70:
	lwz 0,12(1)
	addi 1,1,8
.LCFI24:
	.cfi_def_cfa_offset 0
	mtlr 0
	blr
	.cfi_endproc
.LFE1500:
	.size	_ZN14idFixedWindingD0Ev, .-_ZN14idFixedWindingD0Ev
	.section	.text._ZN14idFixedWindingD2Ev,"axG",@progbits,_ZN14idFixedWindingD5Ev,comdat
	.align 2
	.weak	_ZN14idFixedWindingD2Ev
	.type	_ZN14idFixedWindingD2Ev, @function
_ZN14idFixedWindingD2Ev:
.LFB1498:
	.loc 1 380 0
	.cfi_startproc
.LVL71:
.LBB474:
	.loc 1 381 0
	li 0,0
.LBB475:
.LBB476:
.LBB477:
	.loc 1 183 0
	lis 9,_ZTV9idWinding+8@ha
.LBE477:
.LBE476:
.LBE475:
	.loc 1 381 0
	stw 0,8(3)
.LVL72:
.LBB480:
.LBB479:
.LBB478:
	.loc 1 183 0
	la 0,_ZTV9idWinding+8@l(9)
	stw 0,0(3)
.LBE478:
.LBE479:
.LBE480:
.LBE474:
	.loc 1 382 0
	blr
	.cfi_endproc
.LFE1498:
	.size	_ZN14idFixedWindingD2Ev, .-_ZN14idFixedWindingD2Ev
	.section	.text._ZN9idWindingD0Ev,"axG",@progbits,_ZN9idWindingD5Ev,comdat
	.align 2
	.weak	_ZN9idWindingD0Ev
	.type	_ZN9idWindingD0Ev, @function
_ZN9idWindingD0Ev:
.LFB1463:
	.loc 1 183 0
	.cfi_startproc
.LVL73:
	mflr 0
	stwu 1,-16(1)
.LCFI25:
	.cfi_def_cfa_offset 16
	.cfi_register 65, 0
.LBB484:
.LBB485:
.LBB486:
	lis 9,_ZTV9idWinding+8@ha
.LBE486:
.LBE485:
.LBE484:
	stw 31,12(1)
	mr 31,3
	.cfi_offset 31, -4
.LVL74:
	stw 0,20(1)
.LBB491:
.LBB489:
.LBB487:
	.loc 1 183 0
	la 0,_ZTV9idWinding+8@l(9)
	.cfi_offset 65, 4
	.loc 1 184 0
	lwz 3,8(3)
.LVL75:
	.loc 1 183 0
	stw 0,0(31)
	.loc 1 184 0
	cmpwi 7,3,0
	beq- 7,.L57
	bl _ZdaPv
.LVL76:
.L57:
	.loc 1 185 0
	li 0,0
.LBE487:
.LBE489:
.LBE491:
	.loc 1 186 0
	mr 3,31
.LBB492:
.LBB490:
.LBB488:
	.loc 1 185 0
	stw 0,8(31)
.LBE488:
.LBE490:
.LBE492:
	.loc 1 186 0
	bl _ZdlPv
	lwz 0,20(1)
	lwz 31,12(1)
.LVL77:
	mtlr 0
	addi 1,1,16
.LCFI26:
	.cfi_def_cfa_offset 0
	.cfi_restore 31
	blr
	.cfi_endproc
.LFE1463:
	.size	_ZN9idWindingD0Ev, .-_ZN9idWindingD0Ev
	.section	.text._ZN6idCVarC2EPKcS1_iS1_PFvRK9idCmdArgsPFvS1_EE,"axG",@progbits,_ZN6idCVarC5EPKcS1_iS1_PFvRK9idCmdArgsPFvS1_EE,comdat
	.align 2
	.weak	_ZN6idCVarC2EPKcS1_iS1_PFvRK9idCmdArgsPFvS1_EE
	.type	_ZN6idCVarC2EPKcS1_iS1_PFvRK9idCmdArgsPFvS1_EE, @function
_ZN6idCVarC2EPKcS1_iS1_PFvRK9idCmdArgsPFvS1_EE:
.LFB2202:
	.loc 2 181 0
	.cfi_startproc
.LVL78:
	mflr 0
.LBB501:
	.loc 2 183 0
	cmpwi 0,8,0
.LBE501:
	.loc 2 181 0
	stwu 1,-8(1)
.LCFI27:
	.cfi_def_cfa_offset 8
	.cfi_register 65, 0
.LBB504:
	.loc 2 182 0
	lis 9,_ZTV6idCVar+8@ha
.LBE504:
	.loc 2 181 0
	stw 0,12(1)
.LBB505:
	.loc 2 182 0
	la 0,_ZTV6idCVar+8@l(9)
	.cfi_offset 65, 4
	stw 0,0(3)
	.loc 2 183 0
	beq- 0,.L64
.LVL79:
.L61:
.LBB502:
.LBB503:
	.loc 2 292 0
	lis 9,_ZN6idCVar10staticVarsE@ha
	.loc 2 285 0
	lis 10,.LC4@ha
	.loc 2 292 0
	lwz 11,_ZN6idCVar10staticVarsE@l(9)
	.loc 2 287 0
	li 0,0
	.loc 2 285 0
	lwz 10,.LC4@l(10)
	.loc 2 284 0
	ori 6,6,4096
.LVL80:
	.loc 2 292 0
	cmpwi 7,11,-1
	.loc 2 287 0
	stw 0,28(3)
	.loc 2 285 0
	stw 10,20(3)
	.loc 2 286 0
	lis 10,.LC5@ha
	lwz 10,.LC5@l(10)
	.loc 2 289 0
	stw 0,36(3)
	.loc 2 290 0
	li 0,0
	.loc 2 280 0
	stw 4,4(3)
	.loc 2 281 0
	stw 5,8(3)
	.loc 2 283 0
	stw 7,12(3)
	.loc 2 284 0
	stw 6,16(3)
	.loc 2 286 0
	stw 10,24(3)
	.loc 2 288 0
	stw 8,32(3)
	.loc 2 290 0
	stw 0,40(3)
	.loc 2 291 0
	stw 3,44(3)
	.loc 2 292 0
	beq- 7,.L62
.LVL81:
	.loc 2 293 0
	stw 11,48(3)
	.loc 2 294 0
	stw 3,_ZN6idCVar10staticVarsE@l(9)
.LBE503:
.LBE502:
.LBE505:
	.loc 2 187 0
	lwz 0,12(1)
	addi 1,1,8
	.cfi_remember_state
.LCFI28:
	.cfi_def_cfa_offset 0
	mtlr 0
	blr
.LVL82:
.L64:
.LCFI29:
	.cfi_restore_state
.LBB506:
	.loc 2 183 0 discriminator 1
	andi. 0,6,1
	beq- 0,.L61
	.loc 2 184 0
	lis 8,_ZN11idCmdSystem21ArgCompletion_BooleanERK9idCmdArgsPFvPKcE@ha
.LVL83:
	la 8,_ZN11idCmdSystem21ArgCompletion_BooleanERK9idCmdArgsPFvPKcE@l(8)
	b .L61
.LVL84:
.L62:
.LBE506:
.LBB507:
.LBB508:
.LBB509:
.LBB510:
	.loc 2 296 0
	lis 9,cvarSystem@ha
	mr 4,3
.LVL85:
	lwz 11,cvarSystem@l(9)
	lwz 9,0(11)
	mr 3,11
.LVL86:
	lwz 0,20(9)
	mtctr 0
	bctrl
.LVL87:
.LBE510:
.LBE509:
.LBE508:
.LBE507:
	.loc 2 187 0
	lwz 0,12(1)
	addi 1,1,8
.LCFI30:
	.cfi_def_cfa_offset 0
	mtlr 0
	blr
	.cfi_endproc
.LFE2202:
	.size	_ZN6idCVarC2EPKcS1_iS1_PFvRK9idCmdArgsPFvS1_EE, .-_ZN6idCVarC2EPKcS1_iS1_PFvRK9idCmdArgsPFvS1_EE
	.section	".text"
	.align 2
	.globl _Z18Sys_InitNetworkingv
	.type	_Z18Sys_InitNetworkingv, @function
_Z18Sys_InitNetworkingv:
.LFB2538:
	.loc 5 32 0
	.cfi_startproc
	mflr 0
	stwu 1,-88(1)
.LCFI31:
	.cfi_def_cfa_offset 88
	.cfi_register 65, 0
.LBB511:
	.loc 5 33 0
	lis 3,.LC6@ha
	la 3,.LC6@l(3)
.LBE511:
	.loc 5 32 0
	stw 26,64(1)
	stw 0,92(1)
.LBB516:
	.loc 5 39 0
	lis 26,num_interfaces@ha
	.cfi_offset 65, 4
	.cfi_offset 26, -24
.LBE516:
	.loc 5 32 0
	stw 28,72(1)
.LBB517:
	.loc 5 44 0
	lis 28,.LANCHOR0@ha
	.cfi_offset 28, -16
.LBE517:
	.loc 5 32 0
	stw 30,80(1)
.LBB518:
	.loc 5 44 0
	la 28,.LANCHOR0@l(28)
.LBE518:
	.loc 5 32 0
	stw 31,84(1)
	stw 24,56(1)
	stw 25,60(1)
	stw 27,68(1)
	stw 29,76(1)
.LBB519:
	.loc 5 33 0
	.cfi_offset 29, -12
	.cfi_offset 27, -20
	.cfi_offset 25, -28
	.cfi_offset 24, -32
	.cfi_offset 31, -4
	.cfi_offset 30, -8
	crxor 6,6,6
	bl _Z10Sys_PrintfPKcz
	.loc 5 35 0
	li 0,0
	.loc 5 42 0
	addi 4,1,8
	addi 5,1,24
	li 6,1
	addi 3,1,40
	.loc 5 35 0
	stw 0,40(1)
	stw 0,44(1)
	stw 0,48(1)
	stw 0,52(1)
	.loc 5 36 0
	stw 0,24(1)
	stw 0,28(1)
	stw 0,32(1)
	stw 0,36(1)
	.loc 5 37 0
	stw 0,8(1)
	stw 0,12(1)
	stw 0,16(1)
	stw 0,20(1)
	.loc 5 39 0
	stw 0,num_interfaces@l(26)
	.loc 5 42 0
	bl if_config
	.loc 5 44 0
	lwz 31,num_interfaces@l(26)
	addi 3,1,40
	bl inet_addr
	.loc 5 45 0
	lwz 30,num_interfaces@l(26)
	.loc 5 44 0
	slwi 0,31,3
	stwx 3,28,0
	.loc 5 45 0
	addi 3,1,8
	bl inet_addr
	slwi 9,30,3
	add 9,28,9
	.loc 5 47 0
	lwz 31,num_interfaces@l(26)
	.loc 5 45 0
	stw 3,4(9)
	.loc 5 50 0
	lis 3,.LC7@ha
	.loc 5 47 0
	addi 31,31,1
	.loc 5 50 0
	la 3,.LC7@l(3)
	.loc 5 47 0
	stw 31,num_interfaces@l(26)
	.loc 5 50 0
	bl inet_addr
	slwi 31,31,3
	stwx 3,28,31
	.loc 5 51 0
	lis 3,.LC8@ha
	la 3,.LC8@l(3)
	lwz 31,num_interfaces@l(26)
	bl inet_addr
	.loc 5 53 0
	lwz 11,num_interfaces@l(26)
	.loc 5 51 0
	slwi 9,31,3
	.loc 5 53 0
	addi 0,11,1
	.loc 5 51 0
	add 9,28,9
.LBB512:
	.loc 5 55 0
	cmpwi 7,0,0
.LBE512:
	.loc 5 51 0
	stw 3,4(9)
	.loc 5 53 0
	stw 0,num_interfaces@l(26)
.LVL88:
.LBB515:
	.loc 5 55 0
	ble- 7,.L65
	lis 27,common@ha
	lis 24,.LC9@ha
	lis 25,.LC10@ha
	li 30,0
	la 27,common@l(27)
	la 24,.LC9@l(24)
	la 25,.LC10@l(25)
	la 26,num_interfaces@l(26)
.LVL89:
.L67:
.LBB513:
	.loc 5 58 0 discriminator 2
	lwz 3,0(27)
	.loc 5 56 0 discriminator 2
	slwi 9,30,3
	add 31,28,9
.LVL90:
	.loc 5 58 0 discriminator 2
	lbzx 5,28,9
	lwz 11,0(3)
	mr 4,24
	lbz 6,1(31)
.LBE513:
	.loc 5 55 0 discriminator 2
	addi 30,30,1
.LBB514:
	.loc 5 58 0 discriminator 2
	lwz 0,68(11)
	lbz 7,2(31)
	mtctr 0
	lbz 8,3(31)
	crxor 6,6,6
	bctrl
	.loc 5 59 0 discriminator 2
	lwz 3,0(27)
	mr 4,25
	lbz 5,4(31)
	lwz 9,0(3)
	lbz 6,5(31)
	lwz 0,68(9)
	lbz 7,6(31)
	mtctr 0
	lbz 8,7(31)
	crxor 6,6,6
	bctrl
.LVL91:
.LBE514:
	.loc 5 55 0 discriminator 2
	lwz 0,0(26)
	cmpw 7,0,30
	bgt+ 7,.L67
.LVL92:
.L65:
.LBE515:
.LBE519:
	.loc 5 61 0
	lwz 0,92(1)
	lwz 24,56(1)
	mtlr 0
	lwz 25,60(1)
	lwz 26,64(1)
	lwz 27,68(1)
	lwz 28,72(1)
	lwz 29,76(1)
	lwz 30,80(1)
	lwz 31,84(1)
	addi 1,1,88
.LCFI32:
	.cfi_def_cfa_offset 0
	.cfi_restore 31
	.cfi_restore 30
	.cfi_restore 29
	.cfi_restore 28
	.cfi_restore 27
	.cfi_restore 26
	.cfi_restore 25
	.cfi_restore 24
	blr
	.cfi_endproc
.LFE2538:
	.size	_Z18Sys_InitNetworkingv, .-_Z18Sys_InitNetworkingv
	.align 2
	.globl _Z16Sys_IsLANAddress8netadr_t
	.type	_Z16Sys_IsLANAddress8netadr_t, @function
_Z16Sys_IsLANAddress8netadr_t:
.LFB2539:
	.loc 5 69 0
	.cfi_startproc
.LBB520:
	.loc 5 95 0
	lwz 0,0(3)
	lwz 8,4(3)
.LVL93:
	.loc 5 80 0
	li 3,1
.LVL94:
	.loc 5 79 0
	cmpwi 7,0,1
	beqlr- 7
	.loc 5 83 0
	cmpwi 7,0,3
	.loc 5 84 0
	li 3,0
	.loc 5 83 0
	bnelr+ 7
	.loc 5 87 0
	lis 9,num_interfaces@ha
	lwz 0,num_interfaces@l(9)
.LVL95:
	cmpwi 7,0,0
	beqlr- 7
.LVL96:
	.loc 5 91 0 discriminator 1
	blelr- 7
.LVL97:
	.loc 5 94 0
	lis 11,.LANCHOR0@ha
	mtctr 0
	la 9,.LANCHOR0@l(11)
	lwz 10,.LANCHOR0@l(11)
	lwz 11,4(9)
	.loc 5 95 0
	li 3,1
	.loc 5 94 0
	xor 10,8,10
	addi 9,9,8
	and. 7,10,11
	bne+ 0,.L71
	blr
.LVL98:
.L72:
	lwz 10,0(11)
	.loc 5 69 0
	addi 9,9,8
	.loc 5 94 0
	lwz 0,4(11)
	xor 11,8,10
	and. 10,11,0
	beq- 0,.L78
.L71:
	.loc 5 69 0
	mr 11,9
	.loc 5 91 0
	bdnz .L72
	.loc 5 99 0
	li 3,0
	blr
.L78:
	.loc 5 95 0
	li 3,1
.LBE520:
	.loc 5 100 0
	blr
	.cfi_endproc
.LFE2539:
	.size	_Z16Sys_IsLANAddress8netadr_t, .-_Z16Sys_IsLANAddress8netadr_t
	.align 2
	.globl _Z18Sys_StringToNetAdrPKcP8netadr_tb
	.type	_Z18Sys_StringToNetAdrPKcP8netadr_tb, @function
_Z18Sys_StringToNetAdrPKcP8netadr_tb:
.LFB2543:
	.loc 5 195 0
	.cfi_startproc
.LVL99:
	stwu 1,-32(1)
.LCFI33:
	.cfi_def_cfa_offset 32
	mflr 0
	stw 31,28(1)
	mr 31,4
	.cfi_offset 31, -4
	.cfi_register 65, 0
.LBB521:
	.loc 5 198 0
	addi 4,1,8
.LVL100:
.LBE521:
	.loc 5 195 0
	stw 0,36(1)
.LBB522:
	.loc 5 198 0
	.cfi_offset 65, 4
	bl _ZL16StringToSockaddrPKcP11sockaddr_inb.constprop.16
.LVL101:
	cmpwi 7,3,0
	.loc 5 199 0
	li 3,0
	.loc 5 198 0
	beq+ 7,.L80
	.loc 5 202 0
	addi 3,1,8
	mr 4,31
	bl _ZL15SockadrToNetadrP11sockaddr_inP8netadr_t.constprop.17
	.loc 5 203 0
	li 3,1
.L80:
.LBE522:
	.loc 5 204 0
	lwz 0,36(1)
	lwz 31,28(1)
.LVL102:
	mtlr 0
	addi 1,1,32
.LCFI34:
	.cfi_def_cfa_offset 0
	.cfi_restore 31
	blr
	.cfi_endproc
.LFE2543:
	.size	_Z18Sys_StringToNetAdrPKcP8netadr_tb, .-_Z18Sys_StringToNetAdrPKcP8netadr_tb
	.align 2
	.globl _Z18Sys_NetAdrToString8netadr_t
	.type	_Z18Sys_NetAdrToString8netadr_t, @function
_Z18Sys_NetAdrToString8netadr_t:
.LFB2545:
	.loc 5 233 0
	.cfi_startproc
	mflr 0
	stwu 1,-32(1)
.LCFI35:
	.cfi_def_cfa_offset 32
	.cfi_register 65, 0
	mr 9,3
	stw 27,12(1)
	stw 0,36(1)
	stw 28,16(1)
	stw 29,20(1)
	stw 30,24(1)
	stw 31,28(1)
	.loc 5 233 0
	lwz 0,0(3)
	.cfi_offset 31, -4
	.cfi_offset 30, -8
	.cfi_offset 29, -12
	.cfi_offset 28, -16
	.cfi_offset 65, 4
	.cfi_offset 27, -20
.LVL103:
.LBB527:
	.loc 5 236 0
	cmpwi 7,0,1
	beq- 7,.L87
	.loc 5 238 0
	cmpwi 7,0,3
	beq- 7,.L86
	lis 31,.LANCHOR0+32@ha
	la 31,.LANCHOR0+32@l(31)
.LVL104:
.L84:
.LBE527:
	.loc 5 243 0
	lwz 0,36(1)
	mr 3,31
	lwz 27,12(1)
	mtlr 0
	lwz 28,16(1)
	lwz 29,20(1)
	lwz 30,24(1)
	lwz 31,28(1)
	addi 1,1,32
	.cfi_remember_state
.LCFI36:
	.cfi_def_cfa_offset 0
	.cfi_restore 31
	.cfi_restore 30
	.cfi_restore 29
	.cfi_restore 28
	.cfi_restore 27
	blr
.LVL105:
.L86:
.LCFI37:
	.cfi_restore_state
.LBB528:
	.loc 5 240 0
	lha 3,8(3)
	lis 31,.LANCHOR0@ha
	lbz 27,4(9)
	la 31,.LANCHOR0@l(31)
	lbz 28,5(9)
	addi 31,31,32
	lbz 29,6(9)
	lbz 30,7(9)
	bl _Z8BigShorts
.LVL106:
	lis 5,.LC12@ha
	mr 10,3
	mr 6,27
	mr 3,31
	mr 7,28
	mr 8,29
	mr 9,30
	li 4,64
	la 5,.LC12@l(5)
	crxor 6,6,6
	bl _ZN5idStr8snPrintfEPciPKcz
.LBE528:
	.loc 5 243 0
	lwz 0,36(1)
	mr 3,31
	lwz 27,12(1)
	mtlr 0
	lwz 28,16(1)
	lwz 29,20(1)
	lwz 30,24(1)
	lwz 31,28(1)
	addi 1,1,32
	.cfi_remember_state
	.cfi_restore 27
	.cfi_restore 28
	.cfi_restore 29
	.cfi_restore 30
	.cfi_restore 31
.LCFI38:
	.cfi_def_cfa_offset 0
	blr
.LVL107:
.L87:
.LCFI39:
	.cfi_restore_state
.LBB529:
.LBB530:
.LBB531:
	.loc 5 237 0
	lis 31,.LANCHOR0@ha
	lis 5,.LC11@ha
	la 31,.LANCHOR0@l(31)
	li 4,64
	addi 31,31,32
	la 5,.LC11@l(5)
	mr 3,31
	crxor 6,6,6
	bl _ZN5idStr8snPrintfEPciPKcz
.LVL108:
	b .L84
.LBE531:
.LBE530:
.LBE529:
	.cfi_endproc
.LFE2545:
	.size	_Z18Sys_NetAdrToString8netadr_t, .-_Z18Sys_NetAdrToString8netadr_t
	.align 2
	.globl _Z21Sys_CompareNetAdrBase8netadr_tS_
	.type	_Z21Sys_CompareNetAdrBase8netadr_tS_, @function
_Z21Sys_CompareNetAdrBase8netadr_tS_:
.LFB2546:
	.loc 5 253 0
	.cfi_startproc
	mflr 0
	stwu 1,-8(1)
.LCFI40:
	.cfi_def_cfa_offset 8
	.cfi_register 65, 0
	mr 9,3
.LVL109:
	stw 0,12(1)
	.loc 5 254 0
	lwz 11,0(3)
	.loc 5 255 0
	li 3,0
.LVL110:
	.loc 5 254 0
	lwz 0,0(4)
	.cfi_offset 65, 4
	cmpw 7,0,11
	beq- 7,.L93
.L89:
	.loc 5 271 0
	lwz 0,12(1)
	addi 1,1,8
	.cfi_remember_state
.LCFI41:
	.cfi_def_cfa_offset 0
	mtlr 0
	blr
.L93:
.LCFI42:
	.cfi_restore_state
	.loc 5 258 0
	cmpwi 7,0,1
	.loc 5 259 0
	li 3,1
	.loc 5 258 0
	beq- 7,.L89
	.loc 5 262 0
	cmpwi 7,0,3
	beq- 7,.L94
	.loc 5 269 0
	lis 9,common@ha
.LVL111:
	lis 4,.LC13@ha
	lwz 3,common@l(9)
	la 4,.LC13@l(4)
	lwz 9,0(3)
	lwz 0,68(9)
	mtctr 0
	crxor 6,6,6
	bctrl
	.loc 5 271 0
	lwz 0,12(1)
	.loc 5 270 0
	li 3,0
	.loc 5 271 0
	mtlr 0
	addi 1,1,8
	.cfi_remember_state
.LCFI43:
	.cfi_def_cfa_offset 0
	blr
.LVL112:
.L94:
.LCFI44:
	.cfi_restore_state
	.loc 5 253 0
	lwz 0,4(4)
	lwz 3,4(9)
	xor 3,3,0
	.loc 5 271 0
	lwz 0,12(1)
	.loc 5 253 0
	cntlzw 3,3
	.loc 5 271 0
	mtlr 0
	.loc 5 253 0
	srwi 3,3,5
	.loc 5 271 0
	addi 1,1,8
.LCFI45:
	.cfi_def_cfa_offset 0
	blr
	.cfi_endproc
.LFE2546:
	.size	_Z21Sys_CompareNetAdrBase8netadr_tS_, .-_Z21Sys_CompareNetAdrBase8netadr_tS_
	.align 2
	.globl _ZN6idPortC2Ev
	.type	_ZN6idPortC2Ev, @function
_ZN6idPortC2Ev:
.LFB2549:
	.loc 5 346 0
	.cfi_startproc
.LVL113:
	mflr 0
	stwu 1,-16(1)
.LCFI46:
	.cfi_def_cfa_offset 16
	.cfi_register 65, 0
.LBB532:
	lis 9,_ZTV6idPort+8@ha
	.loc 5 348 0
	li 4,36
.LBE532:
	.loc 5 346 0
	stw 31,12(1)
	mr 31,3
	.cfi_offset 31, -4
	stw 0,20(1)
.LBB533:
	.loc 5 346 0
	la 0,_ZTV6idPort+8@l(9)
	.cfi_offset 65, 4
	stw 0,0(3)
	.loc 5 348 0
	lis 3,.LC14@ha
.LVL114:
	la 3,.LC14@l(3)
	crxor 6,6,6
	bl _Z15Sys_DebugPrintfPKcz
	.loc 5 351 0
	li 0,0
	stw 0,32(31)
	.loc 5 352 0
	stw 0,20(31)
	stw 0,24(31)
	stw 0,28(31)
.LBE533:
	.loc 5 353 0
	lwz 0,20(1)
	lwz 31,12(1)
.LVL115:
	mtlr 0
	addi 1,1,16
.LCFI47:
	.cfi_def_cfa_offset 0
	.cfi_restore 31
	blr
	.cfi_endproc
.LFE2549:
	.size	_ZN6idPortC2Ev, .-_ZN6idPortC2Ev
	.align 2
	.globl _ZN6idPort5CloseEv
	.type	_ZN6idPort5CloseEv, @function
_ZN6idPort5CloseEv:
.LFB2555:
	.loc 5 359 0
	.cfi_startproc
.LVL116:
	mflr 0
	stwu 1,-16(1)
.LCFI48:
	.cfi_def_cfa_offset 16
	.cfi_register 65, 0
	stw 31,12(1)
	mr 31,3
	.cfi_offset 31, -4
	stw 0,20(1)
	.loc 5 360 0
	lwz 3,32(3)
.LVL117:
	cmpwi 7,3,0
	beq+ 7,.L96
	.cfi_offset 65, 4
	.loc 5 361 0
	bl net_close
	.loc 5 362 0
	li 0,0
	stw 0,32(31)
	.loc 5 363 0
	stw 0,20(31)
	stw 0,24(31)
	stw 0,28(31)
.L96:
	.loc 5 365 0
	lwz 0,20(1)
	lwz 31,12(1)
.LVL118:
	mtlr 0
	addi 1,1,16
.LCFI49:
	.cfi_def_cfa_offset 0
	.cfi_restore 31
	blr
	.cfi_endproc
.LFE2555:
	.size	_ZN6idPort5CloseEv, .-_ZN6idPort5CloseEv
	.align 2
	.globl _ZN6idPortD2Ev
	.type	_ZN6idPortD2Ev, @function
_ZN6idPortD2Ev:
.LFB2552:
	.loc 5 355 0
	.cfi_startproc
.LVL119:
.LBB534:
	.loc 5 355 0
	lis 9,_ZTV6idPort+8@ha
.LBE534:
	.loc 5 357 0
.LBB535:
	.loc 5 355 0
	la 0,_ZTV6idPort+8@l(9)
	stw 0,0(3)
	.loc 5 356 0
	b _ZN6idPort5CloseEv
.LVL120:
.LBE535:
	.cfi_endproc
.LFE2552:
	.size	_ZN6idPortD2Ev, .-_ZN6idPortD2Ev
	.align 2
	.type	_Z41__static_initialization_and_destruction_0ii.constprop.18, @function
_Z41__static_initialization_and_destruction_0ii.constprop.18:
.LFB2811:
	.loc 5 506 0
	.cfi_startproc
.LVL121:
	cmpwi 7,3,1
	mflr 0
	stwu 1,-16(1)
.LCFI50:
	.cfi_def_cfa_offset 16
	.cfi_register 65, 0
	stw 0,20(1)
	stw 30,8(1)
	stw 31,12(1)
	.loc 5 506 0
	beq- 7,.L107
	.cfi_offset 31, -4
	.cfi_offset 30, -8
	.cfi_offset 65, 4
	.loc 5 24 0
	cmpwi 7,3,0
	bne- 7,.L100
.LVL122:
.LBB552:
.LBB553:
.LBB554:
.LBB555:
.LBB556:
	.loc 2 127 0
	lis 31,.LANCHOR0@ha
	lis 9,_ZTV6idCVar+8@ha
	la 31,.LANCHOR0@l(31)
.LBE556:
.LBE555:
.LBE554:
.LBB561:
.LBB562:
.LBB563:
	.loc 5 355 0
	lis 30,_ZTV6idPort+8@ha
	mr 3,31
.LVL123:
.LBE563:
.LBE562:
.LBE561:
.LBB570:
.LBB559:
.LBB557:
	.loc 2 127 0
	la 0,_ZTV6idCVar+8@l(9)
.LBE557:
.LBE559:
.LBE570:
.LBB571:
.LBB567:
.LBB564:
	.loc 5 355 0
	la 30,_ZTV6idPort+8@l(30)
.LBE564:
.LBE567:
.LBE571:
.LBB572:
.LBB560:
.LBB558:
	.loc 2 127 0
	stw 0,220(31)
.LVL124:
.LBE558:
.LBE560:
.LBE572:
.LBB573:
.LBB568:
.LBB565:
	.loc 5 355 0
	stwu 30,132(3)
.LBE565:
.LBE568:
.LBE573:
.LBB574:
.LBB575:
.LBB576:
	.loc 2 127 0
	stw 0,168(31)
.LVL125:
.LBE576:
.LBE575:
.LBE574:
.LBB577:
.LBB569:
.LBB566:
	.loc 5 356 0
	bl _ZN6idPort5CloseEv
.LVL126:
.LBE566:
.LBE569:
.LBE577:
.LBB578:
.LBB579:
.LBB580:
	.loc 5 355 0
	mr 3,31
	stwu 30,96(3)
.LBE580:
.LBE579:
.LBE578:
.LBE553:
.LBE552:
	.loc 5 506 0
	lwz 0,20(1)
	lwz 30,8(1)
	lwz 31,12(1)
	mtlr 0
	addi 1,1,16
	.cfi_remember_state
.LCFI51:
	.cfi_def_cfa_offset 0
	.cfi_restore 31
	.cfi_restore 30
.LBB585:
.LBB584:
.LBB583:
.LBB582:
.LBB581:
	.loc 5 356 0
	b _ZN6idPort5CloseEv
.LVL127:
.L107:
.LCFI52:
	.cfi_restore_state
.LBE581:
.LBE582:
.LBE583:
.LBE584:
.LBE585:
	.loc 5 22 0
	lis 31,.LANCHOR0@ha
	la 31,.LANCHOR0@l(31)
	addi 3,31,96
.LVL128:
	bl _ZN6idPortC1Ev
	addi 3,31,132
	bl _ZN6idPortC1Ev
	.loc 5 23 0
	lis 4,.LC15@ha
	lis 5,.LC11@ha
	lis 7,.LC16@ha
	addi 3,31,168
	la 4,.LC15@l(4)
	la 5,.LC11@l(5)
	la 7,.LC16@l(7)
	li 6,8
	li 8,0
	bl _ZN6idCVarC1EPKcS1_iS1_PFvRK9idCmdArgsPFvS1_EE
	.loc 5 24 0
	lis 4,.LC17@ha
	lis 5,.LC0@ha
	lis 7,.LC18@ha
	addi 3,31,220
	la 4,.LC17@l(4)
	la 5,.LC0@l(5)
	li 6,10
	la 7,.LC18@l(7)
	li 8,0
	bl _ZN6idCVarC1EPKcS1_iS1_PFvRK9idCmdArgsPFvS1_EE
.L100:
	.loc 5 506 0
	lwz 0,20(1)
	lwz 30,8(1)
	mtlr 0
	lwz 31,12(1)
	addi 1,1,16
.LCFI53:
	.cfi_def_cfa_offset 0
	.cfi_restore 31
	.cfi_restore 30
	blr
	.cfi_endproc
.LFE2811:
	.size	_Z41__static_initialization_and_destruction_0ii.constprop.18, .-_Z41__static_initialization_and_destruction_0ii.constprop.18
	.align 2
	.globl _ZN6idPortD0Ev
	.type	_ZN6idPortD0Ev, @function
_ZN6idPortD0Ev:
.LFB2554:
	.loc 5 355 0
	.cfi_startproc
.LVL129:
	mflr 0
	stwu 1,-16(1)
.LCFI54:
	.cfi_def_cfa_offset 16
	.cfi_register 65, 0
.LBB586:
.LBB587:
.LBB588:
	lis 9,_ZTV6idPort+8@ha
.LBE588:
.LBE587:
.LBE586:
	stw 31,12(1)
	mr 31,3
	.cfi_offset 31, -4
.LVL130:
	stw 0,20(1)
.LBB591:
.LBB590:
.LBB589:
	.loc 5 355 0
	la 0,_ZTV6idPort+8@l(9)
	.cfi_offset 65, 4
	stw 0,0(3)
	.loc 5 356 0
	bl _ZN6idPort5CloseEv
.LVL131:
.LBE589:
.LBE590:
.LBE591:
	.loc 5 357 0
	mr 3,31
	bl _ZdlPv
	lwz 0,20(1)
	lwz 31,12(1)
.LVL132:
	mtlr 0
	addi 1,1,16
.LCFI55:
	.cfi_def_cfa_offset 0
	.cfi_restore 31
	blr
	.cfi_endproc
.LFE2554:
	.size	_ZN6idPortD0Ev, .-_ZN6idPortD0Ev
	.align 2
	.globl _ZN6idPort9GetPacketER8netadr_tPvRii
	.type	_ZN6idPort9GetPacketER8netadr_tPvRii, @function
_ZN6idPort9GetPacketER8netadr_tPvRii:
.LFB2556:
	.loc 5 372 0
	.cfi_startproc
.LVL133:
	stwu 1,-64(1)
.LCFI56:
	.cfi_def_cfa_offset 64
	mflr 0
	stw 27,44(1)
	mr 27,3
	.cfi_offset 27, -20
	.cfi_register 65, 0
.LBB592:
	.loc 5 376 0
	lis 3,.LC19@ha
.LVL134:
.LBE592:
	.loc 5 372 0
	stw 0,68(1)
.LBB593:
	.loc 5 376 0
	la 3,.LC19@l(3)
.LBE593:
	.loc 5 372 0
	stw 26,40(1)
	stw 28,48(1)
	mr 26,5
	.cfi_offset 28, -16
	.cfi_offset 26, -24
	.cfi_offset 65, 4
	stw 29,52(1)
	mr 28,4
	stw 30,56(1)
	mr 29,6
	.cfi_offset 30, -8
	.cfi_offset 29, -12
	stw 31,60(1)
	.loc 5 372 0
	mr 30,7
.LBB594:
	.loc 5 376 0
	.cfi_offset 31, -4
	crxor 6,6,6
	bl _Z10Sys_PrintfPKcz
.LVL135:
	.loc 5 377 0
	lwz 0,32(27)
	.loc 5 378 0
	li 31,0
	.loc 5 377 0
	cmpwi 7,0,0
	bne- 7,.L120
.LVL136:
.L112:
.LBE594:
	.loc 5 400 0
	lwz 0,68(1)
	mr 3,31
	lwz 26,40(1)
.LVL137:
	mtlr 0
	lwz 27,44(1)
	lwz 28,48(1)
.LVL138:
	lwz 29,52(1)
	lwz 30,56(1)
	lwz 31,60(1)
	addi 1,1,64
	.cfi_remember_state
.LCFI57:
	.cfi_def_cfa_offset 0
	.cfi_restore 31
	.cfi_restore 30
	.cfi_restore 29
	.cfi_restore 28
	.cfi_restore 27
	.cfi_restore 26
	blr
.LVL139:
.L120:
.LCFI58:
	.cfi_restore_state
.LBB595:
	.loc 5 382 0
	lis 3,.LC20@ha
	.loc 5 381 0
	li 0,16
	.loc 5 382 0
	la 3,.LC20@l(3)
	.loc 5 381 0
	stw 0,8(1)
.LVL140:
	.loc 5 382 0
	crxor 6,6,6
	bl _Z10Sys_PrintfPKcz
	.loc 5 383 0
	lwz 3,32(27)
	mr 4,26
	mr 5,30
	li 6,0
	addi 7,1,12
	addi 8,1,8
	bl net_recvfrom
	.loc 5 385 0
	cmpwi 7,3,-1
	.loc 5 383 0
	mr 27,3
.LVL141:
	.loc 5 385 0
	beq- 7,.L121
	.loc 5 395 0
	cmpw 7,30,3
	bgt- 7,.L122
.LVL142:
.L115:
	.loc 5 397 0
	addi 3,1,12
	mr 4,28
	bl _ZL15SockadrToNetadrP11sockaddr_inP8netadr_t.constprop.17
	.loc 5 398 0
	stw 27,0(29)
	.loc 5 399 0
	li 31,1
.LBE595:
	.loc 5 400 0
	lwz 0,68(1)
	mr 3,31
	lwz 26,40(1)
.LVL143:
	mtlr 0
	lwz 27,44(1)
.LVL144:
	lwz 28,48(1)
.LVL145:
	lwz 29,52(1)
.LVL146:
	lwz 30,56(1)
.LVL147:
	lwz 31,60(1)
	addi 1,1,64
	.cfi_remember_state
	.cfi_restore 26
	.cfi_restore 27
	.cfi_restore 28
	.cfi_restore 29
	.cfi_restore 30
	.cfi_restore 31
.LCFI59:
	.cfi_def_cfa_offset 0
	blr
.LVL148:
.L122:
.LCFI60:
	.cfi_restore_state
.LBB596:
	.loc 5 395 0 discriminator 1
	lis 3,.LC21@ha
.LVL149:
	la 3,.LC21@l(3)
	crxor 6,6,6
	bl _Z9Sys_ErrorPKcz
	b .L115
.L121:
	.loc 5 386 0
	bl __errno
	lwz 0,0(3)
	cmpwi 7,0,11
	beq- 7,.L112
	.loc 5 386 0 is_stmt 0 discriminator 2
	bl __errno
	lwz 0,0(3)
	cmpwi 7,0,111
	beq- 7,.L112
	.loc 5 390 0 is_stmt 1
	lis 9,common@ha
	lwz 30,common@l(9)
.LVL150:
	lwz 9,0(30)
	lwz 29,76(9)
.LVL151:
	bl __errno
	lwz 3,0(3)
	bl strerror
	lis 4,.LC22@ha
	mr 5,3
	la 4,.LC22@l(4)
	mtctr 29
	mr 3,30
	crxor 6,6,6
	bctrl
	.loc 5 391 0
	bl __errno
	lwz 3,0(3)
	bl strerror
	mr 4,3
	lis 3,.LC23@ha
	la 3,.LC23@l(3)
	crxor 6,6,6
	bl _Z10Sys_PrintfPKcz
	.loc 5 392 0
	b .L112
.LBE596:
	.cfi_endproc
.LFE2556:
	.size	_ZN6idPort9GetPacketER8netadr_tPvRii, .-_ZN6idPort9GetPacketER8netadr_tPvRii
	.align 2
	.globl _ZN6idPort17GetPacketBlockingER8netadr_tPvRiii
	.type	_ZN6idPort17GetPacketBlockingER8netadr_tPvRiii, @function
_ZN6idPort17GetPacketBlockingER8netadr_tPvRiii:
.LFB2557:
	.loc 5 408 0
	.cfi_startproc
.LVL152:
	stwu 1,-88(1)
.LCFI61:
	.cfi_def_cfa_offset 88
	mflr 0
	stw 31,84(1)
	mr 31,3
	.cfi_offset 31, -4
	.cfi_register 65, 0
.LBB597:
	.loc 5 412 0
	lis 3,.LC24@ha
.LVL153:
.LBE597:
	.loc 5 408 0
	stw 26,64(1)
.LBB601:
	.loc 5 412 0
	la 3,.LC24@l(3)
.LBE601:
	.loc 5 408 0
	stw 27,68(1)
	stw 28,72(1)
	mr 27,4
	.cfi_offset 28, -16
	.cfi_offset 27, -20
	.cfi_offset 26, -24
	stw 29,76(1)
	mr 28,6
	stw 30,80(1)
	mr 29,5
	.cfi_offset 30, -8
	.cfi_offset 29, -12
	stw 0,92(1)
	mr 30,7
	stw 25,60(1)
	.loc 5 408 0
	mr 26,8
.LBB602:
	.loc 5 412 0
	.cfi_offset 25, -28
	.cfi_offset 65, 4
	crxor 6,6,6
	bl _Z10Sys_PrintfPKcz
.LVL154:
	.loc 5 414 0
	lwz 10,32(31)
	.loc 5 415 0
	li 3,0
	.loc 5 414 0
	cmpwi 7,10,0
	beq- 7,.L124
	.loc 5 418 0
	cmpwi 7,26,0
.LBB598:
	.loc 5 422 0
	li 11,8
.LBE598:
	.loc 5 419 0
	addi 9,1,19
.LBB599:
	.loc 5 422 0
	li 0,0
	mtctr 11
.LBE599:
	.loc 5 418 0
	blt- 7,.L136
.L134:
.LBB600:
	.loc 5 422 0 discriminator 2
	stbu 0,1(9)
	bdnz .L134
.LBE600:
	.loc 5 425 0
	lis 0,0x1062
	srawi 11,26,31
	ori 0,0,19923
	.loc 5 423 0
	rlwinm 9,10,29,3,29
	.loc 5 425 0
	mulhw 0,26,0
	.loc 5 423 0
	rlwinm 10,10,0,27,31
	.loc 5 427 0
	lis 3,.LC25@ha
	la 3,.LC25@l(3)
	.loc 5 425 0
	srawi 0,0,6
	subf 0,11,0
	.loc 5 423 0
	addi 11,1,8
	.loc 5 426 0
	mulli 8,0,1000
	.loc 5 423 0
	add 9,11,9
	lwz 11,12(9)
	.loc 5 425 0
	stw 0,12(1)
	.loc 5 426 0
	subf 26,8,26
.LVL155:
	.loc 5 423 0
	li 8,1
	slw 10,8,10
	.loc 5 426 0
	mulli 26,26,1000
	.loc 5 423 0
	or 11,11,10
	stw 11,12(9)
	.loc 5 426 0
	stw 26,16(1)
	.loc 5 427 0
	crxor 6,6,6
	bl _Z10Sys_PrintfPKcz
	.loc 5 428 0
	lwz 3,32(31)
	addi 4,1,20
	li 5,0
	addi 3,3,1
	li 6,0
	addi 7,1,12
	bl net_select
.LVL156:
	.loc 5 429 0
	cmpwi 7,3,-1
	beq- 7,.L137
	.loc 5 438 0
	cmpwi 7,3,0
	.loc 5 440 0
	li 3,0
.LVL157:
	.loc 5 438 0
	bne- 7,.L129
.LVL158:
.L124:
.LBE602:
	.loc 5 459 0
	lwz 0,92(1)
	lwz 25,60(1)
	mtlr 0
	lwz 26,64(1)
	lwz 27,68(1)
.LVL159:
	lwz 28,72(1)
.LVL160:
	lwz 29,76(1)
.LVL161:
	lwz 30,80(1)
	lwz 31,84(1)
	addi 1,1,88
	.cfi_remember_state
.LCFI62:
	.cfi_def_cfa_offset 0
	.cfi_restore 31
	.cfi_restore 30
	.cfi_restore 29
	.cfi_restore 28
	.cfi_restore 27
	.cfi_restore 26
	.cfi_restore 25
	blr
.LVL162:
.L137:
.LCFI63:
	.cfi_restore_state
.LBB603:
	.loc 5 430 0
	bl __errno
.LVL163:
	.loc 5 431 0
	lis 9,common@ha
	.loc 5 430 0
	lwz 0,0(3)
	cmpwi 7,0,4
	beq- 7,.L138
	.loc 5 434 0
	lwz 25,common@l(9)
	lwz 9,0(25)
	lwz 26,96(9)
	bl __errno
	lwz 3,0(3)
	bl strerror
	lis 4,.LC27@ha
	mr 5,3
	la 4,.LC27@l(4)
	mr 3,25
	mtctr 26
	crxor 6,6,6
	bctrl
.L129:
	.loc 5 445 0
	lis 3,.LC28@ha
	.loc 5 444 0
	li 0,16
	.loc 5 445 0
	la 3,.LC28@l(3)
	.loc 5 444 0
	stw 0,8(1)
.LVL164:
	.loc 5 445 0
	crxor 6,6,6
	bl _Z10Sys_PrintfPKcz
	.loc 5 446 0
	lwz 3,32(31)
	mr 4,29
	mr 5,30
	li 6,0
	addi 7,1,28
	addi 8,1,8
	bl net_recvfrom
	.loc 5 447 0
	cmpwi 7,3,-1
	.loc 5 446 0
	mr 31,3
.LVL165:
	.loc 5 447 0
	beq- 7,.L139
	.loc 5 454 0
	cmpw 7,30,3
	bgt- 7,.L140
.LVL166:
.L131:
	.loc 5 456 0
	addi 3,1,28
	mr 4,27
	bl _ZL15SockadrToNetadrP11sockaddr_inP8netadr_t.constprop.17
	.loc 5 457 0
	stw 31,0(28)
	.loc 5 458 0
	li 3,1
.LBE603:
	.loc 5 459 0
	lwz 0,92(1)
	lwz 25,60(1)
	mtlr 0
	lwz 26,64(1)
	lwz 27,68(1)
.LVL167:
	lwz 28,72(1)
.LVL168:
	lwz 29,76(1)
.LVL169:
	lwz 30,80(1)
.LVL170:
	lwz 31,84(1)
.LVL171:
	addi 1,1,88
	.cfi_remember_state
	.cfi_restore 25
	.cfi_restore 26
	.cfi_restore 27
	.cfi_restore 28
	.cfi_restore 29
	.cfi_restore 30
	.cfi_restore 31
.LCFI64:
	.cfi_def_cfa_offset 0
	blr
.LVL172:
.L140:
.LCFI65:
	.cfi_restore_state
.LBB604:
	.loc 5 454 0 discriminator 1
	lis 3,.LC31@ha
.LVL173:
	la 3,.LC31@l(3)
	crxor 6,6,6
	bl _Z9Sys_ErrorPKcz
	b .L131
.LVL174:
.L136:
	.loc 5 419 0
	mr 3,31
	mr 4,27
	mr 5,29
	mr 6,28
	mr 7,30
	bl _ZN6idPort9GetPacketER8netadr_tPvRii
	b .L124
.LVL175:
.L139:
	.loc 5 449 0
	lis 9,common@ha
	lwz 31,common@l(9)
	lwz 9,0(31)
	lwz 30,76(9)
.LVL176:
	bl __errno
.LVL177:
	lwz 3,0(3)
	bl strerror
	lis 4,.LC29@ha
	mr 5,3
	la 4,.LC29@l(4)
	mtctr 30
	mr 3,31
	crxor 6,6,6
	bctrl
	.loc 5 450 0
	bl __errno
	lwz 3,0(3)
	bl strerror
	mr 4,3
	lis 3,.LC30@ha
	la 3,.LC30@l(3)
	crxor 6,6,6
	bl _Z10Sys_PrintfPKcz
	.loc 5 451 0
	li 3,0
	b .L124
.LVL178:
.L138:
	.loc 5 431 0
	lwz 3,common@l(9)
	lis 4,.LC26@ha
	la 4,.LC26@l(4)
	lwz 9,0(3)
	lwz 0,76(9)
	mtctr 0
	crxor 6,6,6
	bctrl
	.loc 5 432 0
	li 3,0
	b .L124
.LBE604:
	.cfi_endproc
.LFE2557:
	.size	_ZN6idPort17GetPacketBlockingER8netadr_tPvRiii, .-_ZN6idPort17GetPacketBlockingER8netadr_tPvRiii
	.align 2
	.globl _ZN6idPort10SendPacketE8netadr_tPKvi
	.type	_ZN6idPort10SendPacketE8netadr_tPKvi, @function
_ZN6idPort10SendPacketE8netadr_tPKvi:
.LFB2558:
	.loc 5 466 0
	.cfi_startproc
.LVL179:
	mflr 0
	stwu 1,-72(1)
.LCFI66:
	.cfi_def_cfa_offset 72
	.cfi_register 65, 0
	stw 26,48(1)
	mr 26,5
	.cfi_offset 26, -24
	stw 27,52(1)
	mr 27,6
	.cfi_offset 27, -20
	stw 28,56(1)
	mr 28,3
	.cfi_offset 28, -16
	stw 31,68(1)
.LBB605:
	.loc 5 469 0
	lis 3,.LC32@ha
.LVL180:
.LBE605:
	.loc 5 466 0
	stw 0,76(1)
.LBB610:
	.loc 5 469 0
	la 3,.LC32@l(3)
.LBE610:
	.loc 5 466 0
	stw 29,60(1)
	mr 31,4
	.cfi_offset 29, -12
	.cfi_offset 65, 4
	.cfi_offset 31, -4
	stw 30,64(1)
	.loc 5 466 0
	lwz 30,0(4)
	.cfi_offset 30, -8
.LVL181:
	lhz 29,8(4)
.LVL182:
.LBB611:
	.loc 5 469 0
	crxor 6,6,6
	bl _Z10Sys_PrintfPKcz
.LVL183:
	.loc 5 471 0
	cmpwi 7,30,0
	beq- 7,.L147
	.loc 5 477 0
	lwz 0,32(28)
	cmpwi 7,0,0
	bne- 7,.L148
.LVL184:
.L141:
.LBE611:
	.loc 5 489 0
	lwz 0,76(1)
	lwz 26,48(1)
.LVL185:
	mtlr 0
	lwz 27,52(1)
.LVL186:
	lwz 28,56(1)
	lwz 29,60(1)
	lwz 30,64(1)
	lwz 31,68(1)
	addi 1,1,72
	.cfi_remember_state
.LCFI67:
	.cfi_def_cfa_offset 0
	.cfi_restore 31
	.cfi_restore 30
	.cfi_restore 29
	.cfi_restore 28
	.cfi_restore 27
	.cfi_restore 26
	blr
.LVL187:
.L148:
.LCFI68:
	.cfi_restore_state
.LBB612:
.LBB606:
.LBB607:
	.loc 5 214 0
	cmpwi 7,30,2
	.loc 5 212 0
	li 0,0
	stw 0,8(1)
	stw 0,12(1)
	stw 0,16(1)
	stw 0,20(1)
	.loc 5 214 0
	beq- 7,.L149
	.loc 5 219 0
	cmpwi 7,30,3
	beq- 7,.L146
	cmpwi 7,30,1
	beq- 7,.L146
.L145:
.LBE607:
.LBE606:
	.loc 5 483 0
	lis 3,.LC35@ha
	la 3,.LC35@l(3)
	crxor 6,6,6
	bl _Z10Sys_PrintfPKcz
	.loc 5 484 0
	lwz 3,32(28)
	mr 4,26
	mr 5,27
	li 6,0
	addi 7,1,8
	li 8,16
	bl net_sendto
.LVL188:
	.loc 5 485 0
	cmpwi 7,3,-1
	bne+ 7,.L141
	.loc 5 486 0
	lis 9,common@ha
	sth 29,8(31)
	lwz 28,common@l(9)
.LVL189:
	addi 3,1,32
.LVL190:
	lwz 9,4(31)
	lwz 11,0(28)
	lwz 0,8(31)
	stw 30,0(31)
	lwz 29,68(11)
.LVL191:
	stw 9,36(1)
	stw 0,40(1)
	stw 30,32(1)
	bl _Z18Sys_NetAdrToString8netadr_t
	mr 30,3
.LVL192:
	bl __errno
	lwz 3,0(3)
	bl strerror
	lis 4,.LC36@ha
	mr 6,3
	mr 5,30
	la 4,.LC36@l(4)
	mtctr 29
	mr 3,28
	crxor 6,6,6
	bctrl
	.loc 5 487 0
	lwz 11,0(31)
	lwz 9,4(31)
	addi 3,1,32
	lwz 0,8(31)
	stw 11,32(1)
	stw 9,36(1)
	stw 0,40(1)
	bl _Z18Sys_NetAdrToString8netadr_t
	mr 31,3
.LVL193:
	bl __errno
	lwz 3,0(3)
	bl strerror
	mr 4,31
	mr 5,3
	lis 3,.LC37@ha
	la 3,.LC37@l(3)
	crxor 6,6,6
	bl _Z10Sys_PrintfPKcz
	b .L141
.LVL194:
.L147:
	.loc 5 472 0
	lis 9,common@ha
	lis 4,.LC33@ha
	lwz 3,common@l(9)
	la 4,.LC33@l(4)
	lwz 9,0(3)
	lwz 0,80(9)
	mtctr 0
	crxor 6,6,6
	bctrl
	.loc 5 473 0
	lis 3,.LC34@ha
	la 3,.LC34@l(3)
	crxor 6,6,6
	bl _Z10Sys_PrintfPKcz
.LBE612:
	.loc 5 489 0
	lwz 0,76(1)
	lwz 26,48(1)
.LVL195:
	mtlr 0
	lwz 27,52(1)
.LVL196:
	lwz 28,56(1)
.LVL197:
	lwz 29,60(1)
.LVL198:
	lwz 30,64(1)
.LVL199:
	lwz 31,68(1)
.LVL200:
	addi 1,1,72
	.cfi_remember_state
	.cfi_restore 26
	.cfi_restore 27
	.cfi_restore 28
	.cfi_restore 29
	.cfi_restore 30
	.cfi_restore 31
.LCFI69:
	.cfi_def_cfa_offset 0
	blr
.LVL201:
.L146:
.LCFI70:
	.cfi_restore_state
.LBB613:
.LBB609:
.LBB608:
	.loc 5 222 0
	lwz 0,4(31)
	.loc 5 220 0
	li 9,2
	stb 9,9(1)
	.loc 5 222 0
	stw 0,12(1)
	.loc 5 223 0
	sth 29,10(1)
	b .L145
.L149:
	.loc 5 218 0
	li 0,-1
	.loc 5 215 0
	stb 30,9(1)
	.loc 5 217 0
	sth 29,10(1)
	.loc 5 218 0
	stw 0,12(1)
	b .L145
.LBE608:
.LBE609:
.LBE613:
	.cfi_endproc
.LFE2558:
	.size	_ZN6idPort10SendPacketE8netadr_tPKvi, .-_ZN6idPort10SendPacketE8netadr_tPKvi
	.align 2
	.globl _ZN6idPort11InitForPortEi
	.type	_ZN6idPort11InitForPortEi, @function
_ZN6idPort11InitForPortEi:
.LFB2559:
	.loc 5 497 0
	.cfi_startproc
.LVL202:
	mflr 0
	stwu 1,-72(1)
.LCFI71:
	.cfi_def_cfa_offset 72
	.cfi_register 65, 0
	mfcr 12
	stw 26,48(1)
	stw 0,76(1)
	stw 27,52(1)
.LBB621:
.LBB622:
	.loc 5 284 0
	lis 27,common@ha
	.cfi_offset 27, -20
	.cfi_offset 65, 4
	.cfi_offset 26, -24
	.cfi_register 70, 12
.LBE622:
.LBE621:
	.loc 5 497 0
	stw 28,56(1)
	mr 28,3
	.cfi_offset 28, -16
	stw 29,60(1)
	.loc 5 498 0
	lis 3,.LC38@ha
.LVL203:
	.loc 5 497 0
	stw 30,64(1)
	mr 30,4
	.cfi_offset 30, -8
	.cfi_offset 29, -12
	stw 31,68(1)
.LBB627:
.LBB628:
	.loc 5 498 0
	lis 31,.LANCHOR0@ha
	.cfi_offset 31, -4
.LBE628:
.LBE627:
	.loc 5 497 0
	stw 25,44(1)
.LBB631:
.LBB629:
	.loc 5 498 0
	la 31,.LANCHOR0@l(31)
.LBE629:
.LBE631:
	.loc 5 497 0
	stw 12,40(1)
	.loc 5 498 0
	la 3,.LC38@l(3)
	mr 5,30
	.loc 5 499 0
	addi 26,28,20
.LBB632:
.LBB630:
	.loc 2 141 0
	lwz 9,212(31)
.LBE630:
.LBE632:
	.loc 5 498 0
	lwz 4,8(9)
.LVL204:
	.cfi_offset 70, -32
	.cfi_offset 25, -28
	crxor 6,6,6
	bl _Z10Sys_PrintfPKcz
.LVL205:
.LBB633:
.LBB634:
	.loc 2 141 0
	lwz 9,212(31)
.LBE634:
.LBE633:
.LBB636:
.LBB623:
	.loc 5 281 0
	li 0,1
	.loc 5 284 0
	lwz 3,common@l(27)
.LBE623:
.LBE636:
.LBB637:
.LBB635:
	.loc 2 141 0
	lwz 29,8(9)
.LVL206:
.LBE635:
.LBE637:
.LBB638:
.LBB624:
	.loc 5 281 0
	stw 0,12(1)
.LVL207:
	.loc 5 283 0
	cmpwi 4,29,0
	.loc 5 284 0
	lwz 9,0(3)
	lwz 0,68(9)
	.loc 5 283 0
	beq- 4,.L151
	.loc 5 284 0
	lis 4,.LC39@ha
	mr 5,29
	la 4,.LC39@l(4)
	mr 6,30
	mtctr 0
	crxor 6,6,6
	bctrl
.LVL208:
.L152:
	.loc 5 289 0
	li 3,2
	li 4,2
	li 5,17
	bl net_socket
	cmpwi 7,3,-1
	mr 31,3
.LVL209:
	beq- 7,.L167
	.loc 5 294 0
	mr 5,1
	li 0,1
	stwu 0,8(5)
.LVL210:
	.loc 5 295 0
	lis 4,0x8004
	ori 4,4,26238
	bl net_ioctl
.LVL211:
	cmpwi 7,3,-1
	beq- 7,.L168
	.loc 5 301 0
	li 4,0
	mr 3,31
	ori 4,4,65535
	li 5,32
	addi 6,1,12
	li 7,4
	bl net_setsockopt
	cmpwi 7,3,-1
	beq- 7,.L169
	.loc 5 306 0
	beq- 4,.L157
	lbz 0,0(29)
	cmpwi 7,0,0
	bne- 7,.L170
.L157:
	.loc 5 308 0
	li 0,0
	addi 25,1,16
	stw 0,20(1)
.L164:
	.loc 5 313 0
	cmpwi 7,30,-1
	beq- 7,.L171
	.loc 5 316 0
	sth 30,18(1)
.L160:
	.loc 5 319 0
	li 0,2
	.loc 5 321 0
	mr 3,31
	mr 4,25
	li 5,16
	.loc 5 319 0
	stb 0,17(1)
	.loc 5 321 0
	bl net_bind
	cmpwi 7,3,-1
	beq- 7,.L172
	.loc 5 327 0
	cmpwi 7,26,0
	beq- 7,.L162
	.loc 5 337 0
	mr 3,25
	mr 4,26
	bl _ZL15SockadrToNetadrP11sockaddr_inP8netadr_t.constprop.17
.L162:
.LBE624:
.LBE638:
	.loc 5 500 0
	cmpwi 7,31,0
	.loc 5 499 0
	stw 31,32(28)
	.loc 5 505 0
	li 3,1
	.loc 5 500 0
	ble- 7,.L165
	.loc 5 506 0
	lwz 0,76(1)
	lwz 12,40(1)
	mtlr 0
	lwz 25,44(1)
	lwz 26,48(1)
.LVL212:
	mtcrf 8,12
	lwz 27,52(1)
	lwz 28,56(1)
.LVL213:
	lwz 29,60(1)
.LVL214:
	lwz 30,64(1)
.LVL215:
	lwz 31,68(1)
.LVL216:
	addi 1,1,72
	.cfi_remember_state
.LCFI72:
	.cfi_def_cfa_offset 0
	.cfi_restore 70
	.cfi_restore 31
	.cfi_restore 30
	.cfi_restore 29
	.cfi_restore 28
	.cfi_restore 27
	.cfi_restore 26
	.cfi_restore 25
	blr
.LVL217:
.L167:
.LCFI73:
	.cfi_restore_state
.LBB639:
.LBB625:
	.loc 5 290 0
	lwz 30,common@l(27)
.LVL218:
	lwz 9,0(30)
	lwz 31,68(9)
	bl __errno
.LVL219:
	lwz 3,0(3)
	bl strerror
	lis 4,.LC41@ha
	mr 5,3
	la 4,.LC41@l(4)
	mr 3,30
	mtctr 31
	crxor 6,6,6
	bctrl
.LVL220:
.L165:
.LBE625:
.LBE639:
	.loc 5 501 0
	li 0,0
	.loc 5 503 0
	li 3,0
	.loc 5 501 0
	stw 0,32(28)
	.loc 5 502 0
	stw 0,20(28)
	stw 0,4(26)
	stw 0,8(26)
	.loc 5 506 0
	lwz 0,76(1)
	lwz 12,40(1)
	mtlr 0
	lwz 25,44(1)
	lwz 26,48(1)
.LVL221:
	mtcrf 8,12
	lwz 27,52(1)
	lwz 28,56(1)
.LVL222:
	lwz 29,60(1)
	lwz 30,64(1)
	lwz 31,68(1)
	addi 1,1,72
	.cfi_remember_state
	.cfi_restore 25
	.cfi_restore 26
	.cfi_restore 27
	.cfi_restore 28
	.cfi_restore 29
	.cfi_restore 30
	.cfi_restore 31
	.cfi_restore 70
.LCFI74:
	.cfi_def_cfa_offset 0
	blr
.LVL223:
.L171:
.LCFI75:
	.cfi_restore_state
.LBB640:
.LBB626:
	.loc 5 314 0
	li 0,0
	sth 0,18(1)
	b .L160
.L168:
	.loc 5 297 0
	lwz 30,common@l(27)
.LVL224:
	lwz 9,0(30)
	lwz 31,68(9)
.LVL225:
	bl __errno
	lwz 3,0(3)
	bl strerror
	lis 4,.LC42@ha
	mr 5,3
	la 4,.LC42@l(4)
	mr 3,30
	mtctr 31
	crxor 6,6,6
	bctrl
	b .L165
.LVL226:
.L151:
	.loc 5 286 0
	lis 4,.LC40@ha
	mr 5,30
	la 4,.LC40@l(4)
	mtctr 0
	crxor 6,6,6
	bctrl
	b .L152
.LVL227:
.L170:
	.loc 5 307 0
	lis 4,.LC11@ha
	mr 3,29
	la 4,.LC11@l(4)
	bl _ZN5idStr4IcmpEPKcS1_
	.loc 5 306 0
	cmpwi 7,3,0
	beq- 7,.L157
	.loc 5 310 0
	addi 25,1,16
	mr 3,29
	mr 4,25
	li 5,1
	bl _ZL16StringToSockaddrPKcP11sockaddr_inb.constprop.16
	b .L164
.L169:
	.loc 5 302 0
	lwz 30,common@l(27)
.LVL228:
	lwz 9,0(30)
	lwz 31,68(9)
.LVL229:
	bl __errno
	lwz 3,0(3)
	bl strerror
	lis 4,.LC43@ha
	mr 5,3
	la 4,.LC43@l(4)
	mr 3,30
	mtctr 31
	crxor 6,6,6
	bctrl
	b .L165
.LVL230:
.L172:
	.loc 5 322 0
	lwz 29,common@l(27)
.LVL231:
	lwz 9,0(29)
	lwz 30,68(9)
.LVL232:
	bl __errno
	lwz 3,0(3)
	bl strerror
	lis 4,.LC44@ha
	mr 5,3
	la 4,.LC44@l(4)
	mr 3,29
	mtctr 30
	crxor 6,6,6
	bctrl
	.loc 5 323 0
	mr 3,31
	bl net_close
	b .L165
.LBE626:
.LBE640:
	.cfi_endproc
.LFE2559:
	.size	_ZN6idPort11InitForPortEi, .-_ZN6idPort11InitForPortEi
	.section	.text.startup,"ax",@progbits
	.align 2
	.type	_GLOBAL__sub_I_num_interfaces, @function
_GLOBAL__sub_I_num_interfaces:
.LFB2793:
	.loc 5 506 0
	.cfi_startproc
	.loc 5 506 0
	li 3,1
	b _Z41__static_initialization_and_destruction_0ii.constprop.18
	.cfi_endproc
.LFE2793:
	.size	_GLOBAL__sub_I_num_interfaces, .-_GLOBAL__sub_I_num_interfaces
	.section	.ctors,"aw",@progbits
	.align 2
	.long	_GLOBAL__sub_I_num_interfaces
	.section	.text.exit,"ax",@progbits
	.align 2
	.type	_GLOBAL__sub_D_num_interfaces, @function
_GLOBAL__sub_D_num_interfaces:
.LFB2794:
	.loc 5 506 0
	.cfi_startproc
	.loc 5 506 0
	li 3,0
	b _Z41__static_initialization_and_destruction_0ii.constprop.18
	.cfi_endproc
.LFE2794:
	.size	_GLOBAL__sub_D_num_interfaces, .-_GLOBAL__sub_D_num_interfaces
	.section	.dtors,"aw",@progbits
	.align 2
	.long	_GLOBAL__sub_D_num_interfaces
	.weak	_ZTS6idPort
	.section	.sdata._ZTS6idPort,"awG",@progbits,_ZTS6idPort,comdat
	.align 2
	.type	_ZTS6idPort, @object
	.size	_ZTS6idPort, 8
_ZTS6idPort:
	.string	"6idPort"
	.weak	_ZTI6idPort
	.section	.sdata._ZTI6idPort,"awG",@progbits,_ZTI6idPort,comdat
	.align 2
	.type	_ZTI6idPort, @object
	.size	_ZTI6idPort, 8
_ZTI6idPort:
	.long	_ZTVN10__cxxabiv117__class_type_infoE+8
	.long	_ZTS6idPort
	.weak	_ZTS9idWinding
	.section	.rodata._ZTS9idWinding,"aG",@progbits,_ZTS9idWinding,comdat
	.align 2
	.type	_ZTS9idWinding, @object
	.size	_ZTS9idWinding, 11
_ZTS9idWinding:
	.string	"9idWinding"
	.weak	_ZTI9idWinding
	.section	.sdata._ZTI9idWinding,"awG",@progbits,_ZTI9idWinding,comdat
	.align 2
	.type	_ZTI9idWinding, @object
	.size	_ZTI9idWinding, 8
_ZTI9idWinding:
	.long	_ZTVN10__cxxabiv117__class_type_infoE+8
	.long	_ZTS9idWinding
	.weak	_ZTS14idFixedWinding
	.section	.rodata._ZTS14idFixedWinding,"aG",@progbits,_ZTS14idFixedWinding,comdat
	.align 2
	.type	_ZTS14idFixedWinding, @object
	.size	_ZTS14idFixedWinding, 17
_ZTS14idFixedWinding:
	.string	"14idFixedWinding"
	.weak	_ZTI14idFixedWinding
	.section	.rodata._ZTI14idFixedWinding,"aG",@progbits,_ZTI14idFixedWinding,comdat
	.align 2
	.type	_ZTI14idFixedWinding, @object
	.size	_ZTI14idFixedWinding, 12
_ZTI14idFixedWinding:
	.long	_ZTVN10__cxxabiv120__si_class_type_infoE+8
	.long	_ZTS14idFixedWinding
	.long	_ZTI9idWinding
	.weak	_ZTV9idWinding
	.section	.rodata._ZTV9idWinding,"aG",@progbits,_ZTV9idWinding,comdat
	.align 3
	.type	_ZTV9idWinding, @object
	.size	_ZTV9idWinding, 24
_ZTV9idWinding:
	.long	0
	.long	_ZTI9idWinding
	.long	_ZN9idWindingD1Ev
	.long	_ZN9idWindingD0Ev
	.long	_ZN9idWinding5ClearEv
	.long	_ZN9idWinding10ReAllocateEib
	.weak	_ZTV14idFixedWinding
	.section	.rodata._ZTV14idFixedWinding,"aG",@progbits,_ZTV14idFixedWinding,comdat
	.align 3
	.type	_ZTV14idFixedWinding, @object
	.size	_ZTV14idFixedWinding, 24
_ZTV14idFixedWinding:
	.long	0
	.long	_ZTI14idFixedWinding
	.long	_ZN14idFixedWindingD1Ev
	.long	_ZN14idFixedWindingD0Ev
	.long	_ZN14idFixedWinding5ClearEv
	.long	_ZN14idFixedWinding10ReAllocateEib
	.weak	_ZTV6idPort
	.section	.rodata._ZTV6idPort,"aG",@progbits,_ZTV6idPort,comdat
	.align 3
	.type	_ZTV6idPort, @object
	.size	_ZTV6idPort, 16
_ZTV6idPort:
	.long	0
	.long	_ZTI6idPort
	.long	_ZN6idPortD1Ev
	.long	_ZN6idPortD0Ev
	.globl net_port
	.globl net_ip
	.globl serverPort
	.globl clientPort
	.globl netint
	.globl num_interfaces
	.weak	_ZTV6idCVar
	.section	.rodata._ZTV6idCVar,"aG",@progbits,_ZTV6idCVar,comdat
	.align 3
	.type	_ZTV6idCVar, @object
	.size	_ZTV6idCVar, 32
_ZTV6idCVar:
	.long	0
	.long	_ZTI6idCVar
	.long	_ZN6idCVarD1Ev
	.long	_ZN6idCVarD0Ev
	.long	_ZN6idCVar17InternalSetStringEPKc
	.long	_ZN6idCVar15InternalSetBoolEb
	.long	_ZN6idCVar18InternalSetIntegerEi
	.long	_ZN6idCVar16InternalSetFloatEf
	.weak	_ZTI6idCVar
	.section	.sdata._ZTI6idCVar,"awG",@progbits,_ZTI6idCVar,comdat
	.align 2
	.type	_ZTI6idCVar, @object
	.size	_ZTI6idCVar, 8
_ZTI6idCVar:
	.long	_ZTVN10__cxxabiv117__class_type_infoE+8
	.long	_ZTS6idCVar
	.weak	_ZTS6idCVar
	.section	.sdata._ZTS6idCVar,"awG",@progbits,_ZTS6idCVar,comdat
	.align 2
	.type	_ZTS6idCVar, @object
	.size	_ZTS6idCVar, 8
_ZTS6idCVar:
	.string	"6idCVar"
	.weak	_ZN6idCVarD1Ev
	.set	_ZN6idCVarD1Ev,_ZN6idCVarD2Ev
	.weak	_ZN9idWindingD1Ev
	.set	_ZN9idWindingD1Ev,_ZN9idWindingD2Ev
	.weak	_ZN14idFixedWindingD1Ev
	.set	_ZN14idFixedWindingD1Ev,_ZN14idFixedWindingD2Ev
	.weak	_ZN6idCVarC1EPKcS1_iS1_PFvRK9idCmdArgsPFvS1_EE
	.set	_ZN6idCVarC1EPKcS1_iS1_PFvRK9idCmdArgsPFvS1_EE,_ZN6idCVarC2EPKcS1_iS1_PFvRK9idCmdArgsPFvS1_EE
	.globl _ZN6idPortC1Ev
	.set	_ZN6idPortC1Ev,_ZN6idPortC2Ev
	.globl _ZN6idPortD1Ev
	.set	_ZN6idPortD1Ev,_ZN6idPortD2Ev
	.section	.rodata.cst4,"aM",@progbits,4
	.align 2
.LC4:
	.4byte	1065353216
.LC5:
	.4byte	-1082130432
	.section	.rodata.str1.4,"aMS",@progbits,1
	.align 2
.LC0:
	.string	""
	.zero	3
.LC1:
	.string	"%s 0"
	.zero	3
.LC2:
	.string	"%s 1"
	.zero	3
.LC3:
	.string	">>> SockadrToNetadr %X\r\n"
	.zero	3
.LC6:
	.string	">>> Sys_InitNetworking\r\n"
	.zero	3
.LC7:
	.string	"127.0.0.1"
	.zero	2
.LC8:
	.string	"255.0.0.0"
	.zero	2
.LC9:
	.string	"ADDR %d.%d.%d.%d\r\n"
	.zero	1
.LC10:
	.string	"MASK %d.%d.%d.%d\r\n"
	.zero	1
.LC11:
	.string	"localhost"
	.zero	2
.LC12:
	.string	"%i.%i.%i.%i:%i"
	.zero	1
.LC13:
	.string	"Sys_CompareNetAdrBase: bad address type\n"
	.zero	3
.LC14:
	.string	"idPort::idPort() size %d\r\n"
	.zero	1
.LC15:
	.string	"net_ip"
	.zero	1
.LC16:
	.string	"local IP address"
	.zero	3
.LC17:
	.string	"net_port"
	.zero	3
.LC18:
	.string	"local IP port number"
	.zero	3
.LC19:
	.string	">>> idPort::GetPacket\r\n"
.LC20:
	.string	">>> idPort::GetPacket net_recvfrom\r\n"
	.zero	3
.LC21:
	.string	"idPort::GetPacket ret < size\r\n"
	.zero	1
.LC22:
	.string	"idPort::GetPacket recvfrom(): %s\n"
	.zero	2
.LC23:
	.string	">>> idPort::GetPacket recvfrom(): %s\r\n"
	.zero	1
.LC24:
	.string	">>> idPort::GetPacketBlocking\r\n"
.LC25:
	.string	">>> idPort::GetPacketBlocking net_select\r\n"
	.zero	1
.LC26:
	.string	"idPort::GetPacketBlocking: select EINTR\n"
	.zero	3
.LC27:
	.string	"idPort::GetPacketBlocking: select failed: %s\n"
	.zero	2
.LC28:
	.string	">>> idPort::GetPacketBlocking net_recvfrom\r\n"
	.zero	3
.LC29:
	.string	"idPort::GetPacketBlocking: %s\n"
	.zero	1
.LC30:
	.string	">>> idPort::GetPacketBlocking: %s\r\n"
.LC31:
	.string	"idPort::GetPacketBlocking ret < size\r\n"
	.zero	1
.LC32:
	.string	">>> idPort::SendPacket\r\n"
	.zero	3
.LC33:
	.string	"idPort::SendPacket: bad address type NA_BAD - ignored"
	.zero	2
.LC34:
	.string	">>> idPort::SendPacket: bad address type NA_BAD - ignored\r\n"
.LC35:
	.string	">>> idPort::SendPacket net_sendto\r\n"
.LC36:
	.string	"idPort::SendPacket ERROR: to %s: %s\n"
	.zero	3
.LC37:
	.string	">>> idPort::SendPacket ERROR: to %s: %s\r\n"
	.zero	2
.LC38:
	.string	">>> bool idPort::InitForPort %s %d\r\n"
	.zero	3
.LC39:
	.string	"Opening IP socket: %s:%i\n"
	.zero	2
.LC40:
	.string	"Opening IP socket: localhost:%i\n"
	.zero	3
.LC41:
	.string	"ERROR: IPSocket: socket: %s"
.LC42:
	.string	"ERROR: IPSocket: ioctl FIONBIO:%s\n"
	.zero	1
.LC43:
	.string	"ERROR: IPSocket: setsockopt SO_BROADCAST:%s\n"
	.zero	3
.LC44:
	.string	"ERROR: IPSocket: bind: %s\n"
	.section	.sbss,"aw",@nobits
	.align 2
	.type	num_interfaces, @object
	.size	num_interfaces, 4
num_interfaces:
	.zero	4
	.section	".bss"
	.align 2
	.set	.LANCHOR0,. + 0
	.type	netint, @object
	.size	netint, 32
netint:
	.zero	32
	.type	_ZZ18Sys_NetAdrToString8netadr_tE1s, @object
	.size	_ZZ18Sys_NetAdrToString8netadr_tE1s, 64
_ZZ18Sys_NetAdrToString8netadr_tE1s:
	.zero	64
	.type	clientPort, @object
	.size	clientPort, 36
clientPort:
	.zero	36
	.type	serverPort, @object
	.size	serverPort, 36
serverPort:
	.zero	36
	.type	net_ip, @object
	.size	net_ip, 52
net_ip:
	.zero	52
	.type	net_port, @object
	.size	net_port, 52
net_port:
	.zero	52
	.section	".text"
.Letext0:
	.file 6 "<built-in>"
	.file 7 "c:\\utils\\devkitpro\\devkitppc\\bin\\../lib/gcc/powerpc-eabi/4.6.3/include/stddef.h"
	.file 8 "c:\\utils\\devkitpro\\devkitppc\\bin\\../lib/gcc/powerpc-eabi/4.6.3/../../../../powerpc-eabi/include/sys/types.h"
	.file 9 "d:/Data/Nintendo/DoomGX/src/sys/ogc/../../idlib/../sys/sys_public.h"
	.file 10 "d:/Data/Nintendo/DoomGX/src/sys/ogc/../../idlib/../framework/Common.h"
	.file 11 "d:/Data/Nintendo/DoomGX/src/sys/ogc/../../idlib/../framework/FileSystem.h"
	.file 12 "d:/Data/Nintendo/DoomGX/src/sys/ogc/../../idlib/../idlib/Lib.h"
	.file 13 "d:/Data/Nintendo/DoomGX/src/sys/ogc/../../idlib/../idlib/math/Random.h"
	.file 14 "d:/Data/Nintendo/DoomGX/src/sys/ogc/../../idlib/../idlib/math/Vector.h"
	.file 15 "d:/Data/Nintendo/DoomGX/src/sys/ogc/../../idlib/../idlib/math/Angles.h"
	.file 16 "d:/Data/Nintendo/DoomGX/src/sys/ogc/../../idlib/../idlib/math/Matrix.h"
	.file 17 "d:/Data/Nintendo/DoomGX/src/sys/ogc/../../idlib/../idlib/math/Quat.h"
	.file 18 "d:/Data/Nintendo/DoomGX/src/sys/ogc/../../idlib/../idlib/math/Rotation.h"
	.file 19 "d:/Data/Nintendo/DoomGX/src/sys/ogc/../../idlib/../idlib/math/Plane.h"
	.file 20 "d:/Data/Nintendo/DoomGX/src/sys/ogc/../../idlib/../idlib/containers/List.h"
	.file 21 "d:/Data/Nintendo/DoomGX/src/sys/ogc/../../idlib/../idlib/math/Ode.h"
	.file 22 "d:/Data/Nintendo/DoomGX/src/sys/ogc/../../idlib/../idlib/bv/Sphere.h"
	.file 23 "d:/Data/Nintendo/DoomGX/src/sys/ogc/../../idlib/../idlib/bv/Bounds.h"
	.file 24 "d:/Data/Nintendo/DoomGX/src/sys/ogc/../../idlib/../idlib/bv/Box.h"
	.file 25 "d:/Data/Nintendo/DoomGX/src/sys/ogc/../../idlib/../idlib/bv/Frustum.h"
	.file 26 "d:/Data/Nintendo/DoomGX/src/sys/ogc/../../idlib/../idlib/geometry/DrawVert.h"
	.file 27 "d:/Data/Nintendo/DoomGX/src/sys/ogc/../../idlib/../idlib/geometry/JointTransform.h"
	.file 28 "d:/Data/Nintendo/DoomGX/src/sys/ogc/../../idlib/../idlib/geometry/Surface.h"
	.file 29 "d:/Data/Nintendo/DoomGX/src/sys/ogc/../../idlib/../idlib/geometry/TraceModel.h"
	.file 30 "d:/Data/Nintendo/DoomGX/src/sys/ogc/../../idlib/../idlib/Str.h"
	.file 31 "d:/Data/Nintendo/DoomGX/src/sys/ogc/../../idlib/../idlib/Token.h"
	.file 32 "d:/Data/Nintendo/DoomGX/src/sys/ogc/../../idlib/../idlib/Lexer.h"
	.file 33 "d:/Data/Nintendo/DoomGX/src/sys/ogc/../../idlib/../framework/File.h"
	.file 34 "d:/Data/Nintendo/DoomGX/src/sys/ogc/../../idlib/../idlib/Parser.h"
	.file 35 "d:/Data/Nintendo/DoomGX/src/sys/ogc/../../idlib/../idlib/containers/HashIndex.h"
	.file 36 "d:/Data/Nintendo/DoomGX/src/sys/ogc/../../idlib/../idlib/containers/StrList.h"
	.file 37 "d:/Data/Nintendo/DoomGX/src/sys/ogc/../../idlib/../idlib/containers/StrPool.h"
	.file 38 "d:/Data/Nintendo/DoomGX/src/sys/ogc/../../idlib/../idlib/containers/PlaneSet.h"
	.file 39 "d:/Data/Nintendo/DoomGX/src/sys/ogc/../../idlib/../idlib/Dict.h"
	.file 40 "d:/Data/Nintendo/DoomGX/src/sys/ogc/../../idlib/../idlib/LangDict.h"
	.file 41 "d:/Data/Nintendo/DoomGX/src/sys/ogc/../../idlib/../idlib/BitMsg.h"
	.file 42 "d:/Data/Nintendo/DoomGX/src/sys/ogc/../../idlib/../idlib/MapFile.h"
	.file 43 "d:/Data/Nintendo/DoomGX/src/sys/ogc/../../idlib/../framework/UsercmdGen.h"
	.file 44 "d:/Data/Nintendo/DoomGX/src/sys/ogc/../../idlib/../framework/DeclManager.h"
	.file 45 "d:/Data/Nintendo/DoomGX/src/sys/ogc/../../idlib/../framework/DeclParticle.h"
	.file 46 "d:/Data/Nintendo/DoomGX/src/sys/ogc/../../idlib/../renderer/RenderWorld.h"
	.file 47 "c:\\utils\\devkitpro\\devkitppc\\bin\\../lib/gcc/powerpc-eabi/4.6.3/../../../../powerpc-eabi/include/stdint.h"
	.file 48 "d:/Data/Nintendo/DoomGX/src/sys/ogc/../../idlib/../renderer/Cinematic.h"
	.file 49 "d:/Data/Nintendo/DoomGX/src/sys/ogc/../../idlib/../renderer/Model.h"
	.file 50 "d:/Data/Nintendo/DoomGX/src/sys/ogc/../../idlib/../renderer/RenderSystem.h"
	.file 51 "d:/Data/Nintendo/DoomGX/src/sys/ogc/../../idlib/../sound/sound.h"
	.file 52 "d:/Data/Nintendo/DoomGX/src/sys/ogc/../../idlib/../ui/UserInterface.h"
	.file 53 "d:/Data/Nintendo/DoomGX/src/sys/ogc/../../idlib/../cm/CollisionModel.h"
	.file 54 "d:/Data/Nintendo/DoomGX/src/sys/ogc/../../idlib/../tools/compilers/aas/AASFile.h"
	.file 55 "d:/Data/Nintendo/DoomGX/src/sys/ogc/../../idlib/../game/Game.h"
	.file 56 "d:/Data/Nintendo/DoomGX/src/sys/ogc/../../idlib/../framework/async/NetworkSystem.h"
	.file 57 "d:/Data/Nintendo/DoomGX/src/sys/ogc/../../idlib/../renderer/ModelManager.h"
	.file 58 "d:/Data/Nintendo/DoomGX/src/sys/ogc/../../idlib/../tools/compilers/aas/AASFileManager.h"
	.file 59 "d:/Data/Nintendo/DoomGX/src/sys/ogc/../../idlib/../framework/Session.h"
	.file 60 "d:/Data/Nintendo/DoomGX/src/sys/ogc/../../idlib/../ui/ListGUI.h"
	.file 61 "c:/utils/devkitPro/libogc/include/gctypes.h"
	.file 62 "c:\\utils\\devkitpro\\devkitppc\\bin\\../lib/gcc/powerpc-eabi/4.6.3/../../../../powerpc-eabi/include/sys/time.h"
	.file 63 "c:/utils/devkitPro/libogc/include/network.h"
	.file 64 "d:/Data/Nintendo/DoomGX/src/sys/ogc/../../idlib/../framework/Console.h"
	.file 65 "d:/Data/Nintendo/DoomGX/src/sys/ogc/../../idlib/../idlib/math/Curve.h"
	.file 66 "d:/Data/Nintendo/DoomGX/src/sys/ogc/../../idlib/../idlib/math/Simd.h"
	.file 67 "d:/Data/Nintendo/DoomGX/src/sys/ogc/../../idlib/../framework/BuildVersion.h"
	.file 68 "d:/Data/Nintendo/DoomGX/src/sys/ogc/../../idlib/precompiled.h"
	.file 69 "d:/Data/Nintendo/DoomGX/src/sys/ogc/../../idlib/../renderer/Material.h"
	.file 70 "d:/Data/Nintendo/DoomGX/src/sys/ogc/../../idlib/../framework/EventLoop.h"
	.file 71 "d:/Data/Nintendo/DoomGX/src/sys/ogc/../../idlib/../framework/EditField.h"
	.file 72 "d:/Data/Nintendo/DoomGX/src/sys/ogc/../../idlib/../framework/async/AsyncNetwork.h"
	.file 73 "d:/Data/Nintendo/DoomGX/src/sys/ogc/../../idlib/../framework/async/AsyncServer.h"