	.file	"SysCmds.cpp"
	.section	".text"
.Ltext0:
	.section	.text._ZN14idFixedWinding5ClearEv,"axG",@progbits,_ZN14idFixedWinding5ClearEv,comdat
	.align 2
	.weak	_ZN14idFixedWinding5ClearEv
	.type	_ZN14idFixedWinding5ClearEv, @function
_ZN14idFixedWinding5ClearEv:
.LFB1502:
	.file 1 "d:/Data/Nintendo/DoomGX/src/game/gamesys/../../idlib/../idlib/geometry/Winding.h"
	.loc 1 398 0
	.cfi_startproc
.LVL0:
	.loc 1 399 0
	li 0,0
	.loc 1 400 0
	.loc 1 399 0
	stw 0,4(3)
	.loc 1 400 0
	blr
	.cfi_endproc
.LFE1502:
	.size	_ZN14idFixedWinding5ClearEv, .-_ZN14idFixedWinding5ClearEv
	.section	".text"
	.align 2
	.type	_ZL21ArgCompletion_DefFileRK9idCmdArgsPFvPKcE, @function
_ZL21ArgCompletion_DefFileRK9idCmdArgsPFvPKcE:
.LFB2884:
	.file 2 "d:/Data/Nintendo/DoomGX/src/game/gamesys/SysCmds.cpp"
	.loc 2 2259 0
	.cfi_startproc
.LVL1:
	mflr 0
	stwu 1,-8(1)
.LCFI0:
	.cfi_def_cfa_offset 8
	.cfi_register 65, 0
	.loc 2 2260 0
	lis 9,cmdSystem@ha
	.loc 2 2259 0
	mr 11,3
	.loc 2 2260 0
	lwz 9,cmdSystem@l(9)
	lis 6,.LC0@ha
	.loc 2 2259 0
	stw 0,12(1)
	.loc 2 2260 0
	lis 8,.LC1@ha
	.loc 2 2259 0
	mr 5,4
	.loc 2 2260 0
	mr 3,9
.LVL2:
	lwz 10,0(9)
	mr 4,11
.LVL3:
	la 6,.LC0@l(6)
	li 7,1
	lwz 0,44(10)
	.cfi_offset 65, 4
	la 8,.LC1@l(8)
	li 9,0
	mtctr 0
	crxor 6,6,6
	bctrl
.LVL4:
	.loc 2 2261 0
	lwz 0,12(1)
	addi 1,1,8
.LCFI1:
	.cfi_def_cfa_offset 0
	mtlr 0
	blr
	.cfi_endproc
.LFE2884:
	.size	_ZL21ArgCompletion_DefFileRK9idCmdArgsPFvPKcE, .-_ZL21ArgCompletion_DefFileRK9idCmdArgsPFvPKcE
	.section	.text._ZN11idCmdSystem18ArgCompletion_DeclILi4EEEvRK9idCmdArgsPFvPKcE,"axG",@progbits,_ZN11idCmdSystem18ArgCompletion_DeclILi4EEEvRK9idCmdArgsPFvPKcE,comdat
	.align 2
	.weak	_ZN11idCmdSystem18ArgCompletion_DeclILi4EEEvRK9idCmdArgsPFvPKcE
	.type	_ZN11idCmdSystem18ArgCompletion_DeclILi4EEEvRK9idCmdArgsPFvPKcE, @function
_ZN11idCmdSystem18ArgCompletion_DeclILi4EEEvRK9idCmdArgsPFvPKcE:
.LFB3098:
	.file 3 "d:/Data/Nintendo/DoomGX/src/game/gamesys/../../idlib/../framework/CmdSystem.h"
	.loc 3 148 0
	.cfi_startproc
.LVL5:
	mflr 0
	stwu 1,-8(1)
.LCFI2:
	.cfi_def_cfa_offset 8
	.cfi_register 65, 0
	.loc 3 149 0
	lis 9,cmdSystem@ha
	.loc 3 148 0
	mr 11,3
	.loc 3 149 0
	lwz 9,cmdSystem@l(9)
	.loc 3 148 0
	mr 5,4
	stw 0,12(1)
	.loc 3 149 0
	mr 4,11
.LVL6:
	mr 3,9
.LVL7:
	li 6,4
	lwz 10,0(9)
	lwz 0,48(10)
	.cfi_offset 65, 4
	mtctr 0
	bctrl
.LVL8:
	.loc 3 150 0
	lwz 0,12(1)
	addi 1,1,8
.LCFI3:
	.cfi_def_cfa_offset 0
	mtlr 0
	blr
	.cfi_endproc
.LFE3098:
	.size	_ZN11idCmdSystem18ArgCompletion_DeclILi4EEEvRK9idCmdArgsPFvPKcE, .-_ZN11idCmdSystem18ArgCompletion_DeclILi4EEEvRK9idCmdArgsPFvPKcE
	.section	.text._ZN11idCmdSystem18ArgCompletion_DeclILi5EEEvRK9idCmdArgsPFvPKcE,"axG",@progbits,_ZN11idCmdSystem18ArgCompletion_DeclILi5EEEvRK9idCmdArgsPFvPKcE,comdat
	.align 2
	.weak	_ZN11idCmdSystem18ArgCompletion_DeclILi5EEEvRK9idCmdArgsPFvPKcE
	.type	_ZN11idCmdSystem18ArgCompletion_DeclILi5EEEvRK9idCmdArgsPFvPKcE, @function
_ZN11idCmdSystem18ArgCompletion_DeclILi5EEEvRK9idCmdArgsPFvPKcE:
.LFB3099:
	.loc 3 148 0
	.cfi_startproc
.LVL9:
	mflr 0
	stwu 1,-8(1)
.LCFI4:
	.cfi_def_cfa_offset 8
	.cfi_register 65, 0
	.loc 3 149 0
	lis 9,cmdSystem@ha
	.loc 3 148 0
	mr 11,3
	.loc 3 149 0
	lwz 9,cmdSystem@l(9)
	.loc 3 148 0
	mr 5,4
	stw 0,12(1)
	.loc 3 149 0
	mr 4,11
.LVL10:
	mr 3,9
.LVL11:
	li 6,5
	lwz 10,0(9)
	lwz 0,48(10)
	.cfi_offset 65, 4
	mtctr 0
	bctrl
.LVL12:
	.loc 3 150 0
	lwz 0,12(1)
	addi 1,1,8
.LCFI5:
	.cfi_def_cfa_offset 0
	mtlr 0
	blr
	.cfi_endproc
.LFE3099:
	.size	_ZN11idCmdSystem18ArgCompletion_DeclILi5EEEvRK9idCmdArgsPFvPKcE, .-_ZN11idCmdSystem18ArgCompletion_DeclILi5EEEvRK9idCmdArgsPFvPKcE
	.section	.text._ZN11idCmdSystem18ArgCompletion_DeclILi6EEEvRK9idCmdArgsPFvPKcE,"axG",@progbits,_ZN11idCmdSystem18ArgCompletion_DeclILi6EEEvRK9idCmdArgsPFvPKcE,comdat
	.align 2
	.weak	_ZN11idCmdSystem18ArgCompletion_DeclILi6EEEvRK9idCmdArgsPFvPKcE
	.type	_ZN11idCmdSystem18ArgCompletion_DeclILi6EEEvRK9idCmdArgsPFvPKcE, @function
_ZN11idCmdSystem18ArgCompletion_DeclILi6EEEvRK9idCmdArgsPFvPKcE:
.LFB3100:
	.loc 3 148 0
	.cfi_startproc
.LVL13:
	mflr 0
	stwu 1,-8(1)
.LCFI6:
	.cfi_def_cfa_offset 8
	.cfi_register 65, 0
	.loc 3 149 0
	lis 9,cmdSystem@ha
	.loc 3 148 0
	mr 11,3
	.loc 3 149 0
	lwz 9,cmdSystem@l(9)
	.loc 3 148 0
	mr 5,4
	stw 0,12(1)
	.loc 3 149 0
	mr 4,11
.LVL14:
	mr 3,9
.LVL15:
	li 6,6
	lwz 10,0(9)
	lwz 0,48(10)
	.cfi_offset 65, 4
	mtctr 0
	bctrl
.LVL16:
	.loc 3 150 0
	lwz 0,12(1)
	addi 1,1,8
.LCFI7:
	.cfi_def_cfa_offset 0
	mtlr 0
	blr
	.cfi_endproc
.LFE3100:
	.size	_ZN11idCmdSystem18ArgCompletion_DeclILi6EEEvRK9idCmdArgsPFvPKcE, .-_ZN11idCmdSystem18ArgCompletion_DeclILi6EEEvRK9idCmdArgsPFvPKcE
	.section	.text._ZN11idCmdSystem18ArgCompletion_DeclILi2EEEvRK9idCmdArgsPFvPKcE,"axG",@progbits,_ZN11idCmdSystem18ArgCompletion_DeclILi2EEEvRK9idCmdArgsPFvPKcE,comdat
	.align 2
	.weak	_ZN11idCmdSystem18ArgCompletion_DeclILi2EEEvRK9idCmdArgsPFvPKcE
	.type	_ZN11idCmdSystem18ArgCompletion_DeclILi2EEEvRK9idCmdArgsPFvPKcE, @function
_ZN11idCmdSystem18ArgCompletion_DeclILi2EEEvRK9idCmdArgsPFvPKcE:
.LFB3101:
	.loc 3 148 0
	.cfi_startproc
.LVL17:
	mflr 0
	stwu 1,-8(1)
.LCFI8:
	.cfi_def_cfa_offset 8
	.cfi_register 65, 0
	.loc 3 149 0
	lis 9,cmdSystem@ha
	.loc 3 148 0
	mr 11,3
	.loc 3 149 0
	lwz 9,cmdSystem@l(9)
	.loc 3 148 0
	mr 5,4
	stw 0,12(1)
	.loc 3 149 0
	mr 4,11
.LVL18:
	mr 3,9
.LVL19:
	li 6,2
	lwz 10,0(9)
	lwz 0,48(10)
	.cfi_offset 65, 4
	mtctr 0
	bctrl
.LVL20:
	.loc 3 150 0
	lwz 0,12(1)
	addi 1,1,8
.LCFI9:
	.cfi_def_cfa_offset 0
	mtlr 0
	blr
	.cfi_endproc
.LFE3101:
	.size	_ZN11idCmdSystem18ArgCompletion_DeclILi2EEEvRK9idCmdArgsPFvPKcE, .-_ZN11idCmdSystem18ArgCompletion_DeclILi2EEEvRK9idCmdArgsPFvPKcE
	.section	.text._ZN9idWinding5ClearEv,"axG",@progbits,_ZN9idWinding5ClearEv,comdat
	.align 2
	.weak	_ZN9idWinding5ClearEv
	.type	_ZN9idWinding5ClearEv, @function
_ZN9idWinding5ClearEv:
.LFB1473:
	.loc 1 249 0
	.cfi_startproc
.LVL21:
	mflr 0
	stwu 1,-16(1)
.LCFI10:
	.cfi_def_cfa_offset 16
	.cfi_register 65, 0
	stw 31,12(1)
	mr 31,3
	.cfi_offset 31, -4
	stw 0,20(1)
	.loc 1 250 0
	li 0,0
	.cfi_offset 65, 4
	.loc 1 251 0
	lwz 3,8(3)
.LVL22:
	.loc 1 250 0
	stw 0,4(31)
	.loc 1 251 0
	cmpwi 7,3,0
	beq- 7,.L8
	.loc 1 251 0 is_stmt 0 discriminator 1
	bl _ZdaPv
.L8:
	.loc 1 252 0 is_stmt 1
	li 0,0
	stw 0,8(31)
	.loc 1 253 0
	lwz 0,20(1)
	lwz 31,12(1)
.LVL23:
	mtlr 0
	addi 1,1,16
.LCFI11:
	.cfi_def_cfa_offset 0
	.cfi_restore 31
	blr
	.cfi_endproc
.LFE1473:
	.size	_ZN9idWinding5ClearEv, .-_ZN9idWinding5ClearEv
	.section	.text._ZN9idWindingD2Ev,"axG",@progbits,_ZN9idWindingD5Ev,comdat
	.align 2
	.weak	_ZN9idWindingD2Ev
	.type	_ZN9idWindingD2Ev, @function
_ZN9idWindingD2Ev:
.LFB1461:
	.loc 1 183 0
	.cfi_startproc
.LVL24:
	mflr 0
	stwu 1,-16(1)
.LCFI12:
	.cfi_def_cfa_offset 16
	.cfi_register 65, 0
.LBB1925:
	lis 9,_ZTV9idWinding+8@ha
.LBE1925:
	stw 31,12(1)
	mr 31,3
	.cfi_offset 31, -4
	stw 0,20(1)
.LBB1926:
	.loc 1 183 0
	la 0,_ZTV9idWinding+8@l(9)
	.cfi_offset 65, 4
	.loc 1 184 0
	lwz 3,8(3)
.LVL25:
	.loc 1 183 0
	stw 0,0(31)
	.loc 1 184 0
	cmpwi 7,3,0
	beq- 7,.L11
	.loc 1 184 0 is_stmt 0 discriminator 1
	bl _ZdaPv
.L11:
	.loc 1 185 0 is_stmt 1
	li 0,0
	stw 0,8(31)
.LBE1926:
	.loc 1 186 0
	lwz 0,20(1)
	lwz 31,12(1)
.LVL26:
	mtlr 0
	addi 1,1,16
.LCFI13:
	.cfi_def_cfa_offset 0
	.cfi_restore 31
	blr
	.cfi_endproc
.LFE1461:
	.size	_ZN9idWindingD2Ev, .-_ZN9idWindingD2Ev
	.section	".text"
	.align 2
	.type	_ZL20Cmd_CloseViewNotes_fRK9idCmdArgs, @function
_ZL20Cmd_CloseViewNotes_fRK9idCmdArgs:
.LFB2879:
	.loc 2 2041 0
	.cfi_startproc
.LVL27:
	mflr 0
	stwu 1,-16(1)
.LCFI14:
	.cfi_def_cfa_offset 16
	.cfi_register 65, 0
.LBB1927:
	.loc 2 2042 0
	lis 3,gameLocal@ha
.LVL28:
	la 3,gameLocal@l(3)
.LBE1927:
	.loc 2 2041 0
	stw 31,12(1)
	stw 0,20(1)
.LBB1928:
	.loc 2 2042 0
	.cfi_offset 65, 4
	.cfi_offset 31, -4
	bl _ZNK11idGameLocal14GetLocalPlayerEv
.LVL29:
	.loc 2 2044 0
	mr. 31,3
	beq- 0,.L13
	.loc 2 2048 0
	lwz 3,5140(31)
.LVL30:
	lis 4,.LC2@ha
	lis 5,.LC3@ha
	la 4,.LC2@l(4)
	lwz 9,0(3)
	la 5,.LC3@l(5)
	lwz 0,56(9)
	mtctr 0
	bctrl
	.loc 2 2049 0
	lwz 3,5140(31)
	lis 4,.LC4@ha
	lwz 9,0(3)
	la 4,.LC4@l(4)
	lwz 0,36(9)
	mtctr 0
	bctrl
.L13:
.LBE1928:
	.loc 2 2050 0
	lwz 0,20(1)
	lwz 31,12(1)
.LVL31:
	mtlr 0
	addi 1,1,16
.LCFI15:
	.cfi_def_cfa_offset 0
	.cfi_restore 31
	blr
	.cfi_endproc
.LFE2879:
	.size	_ZL20Cmd_CloseViewNotes_fRK9idCmdArgs, .-_ZL20Cmd_CloseViewNotes_fRK9idCmdArgs
	.align 2
	.globl _Z12Cmd_Noclip_fRK9idCmdArgs
	.type	_Z12Cmd_Noclip_fRK9idCmdArgs, @function
_Z12Cmd_Noclip_fRK9idCmdArgs:
.LFB2824:
	.loc 2 453 0
	.cfi_startproc
.LVL32:
	stwu 1,-16(1)
.LCFI16:
	.cfi_def_cfa_offset 16
	mflr 0
	stw 31,12(1)
.LBB1929:
	.loc 2 457 0
	lis 31,gameLocal@ha
	.cfi_offset 31, -4
	.cfi_register 65, 0
	la 31,gameLocal@l(31)
.LBE1929:
	.loc 2 453 0
	stw 30,8(1)
.LBB1930:
	.loc 2 457 0
	mr 3,31
.LVL33:
.LBE1930:
	.loc 2 453 0
	stw 0,20(1)
.LBB1931:
	.loc 2 457 0
	.cfi_offset 65, 4
	.cfi_offset 30, -8
	bl _ZNK11idGameLocal14GetLocalPlayerEv
.LVL34:
	.loc 2 458 0
	mr. 30,3
	beq- 0,.L15
	.loc 2 458 0 is_stmt 0 discriminator 2
	mr 3,31
.LVL35:
	li 4,1
	bl _ZN11idGameLocal8CheatsOkEb
	cmpwi 7,3,0
	bne- 7,.L21
.L15:
.LBE1931:
	.loc 2 470 0 is_stmt 1
	lwz 0,20(1)
	lwz 30,8(1)
.LVL36:
	mtlr 0
	lwz 31,12(1)
	addi 1,1,16
	.cfi_remember_state
.LCFI17:
	.cfi_def_cfa_offset 0
	.cfi_restore 31
	.cfi_restore 30
	blr
.LVL37:
.L21:
.LCFI18:
	.cfi_restore_state
.LBB1932:
	.loc 2 462 0
	lbz 0,4628(30)
	cmpwi 7,0,0
	bne- 7,.L18
	.loc 2 465 0
	lis 5,.LC6@ha
	la 5,.LC6@l(5)
.L19:
.LVL38:
	.loc 2 467 0
	xori 0,0,1
	.loc 2 469 0
	lis 4,.LC7@ha
	.loc 2 467 0
	stb 0,4628(30)
	.loc 2 469 0
	mr 3,31
	la 4,.LC7@l(4)
	crxor 6,6,6
	bl _ZNK11idGameLocal6PrintfEPKcz
.LVL39:
.LBE1932:
	.loc 2 470 0
	lwz 0,20(1)
	lwz 30,8(1)
.LVL40:
	mtlr 0
	lwz 31,12(1)
	addi 1,1,16
	.cfi_remember_state
	.cfi_restore 30
	.cfi_restore 31
.LCFI19:
	.cfi_def_cfa_offset 0
	blr
.LVL41:
.L18:
.LCFI20:
	.cfi_restore_state
.LBB1933:
	.loc 2 463 0
	lis 5,.LC5@ha
	la 5,.LC5@l(5)
	b .L19
.LBE1933:
	.cfi_endproc
.LFE2824:
	.size	_Z12Cmd_Noclip_fRK9idCmdArgs, .-_Z12Cmd_Noclip_fRK9idCmdArgs
	.align 2
	.globl _Z14Cmd_Notarget_fRK9idCmdArgs
	.type	_Z14Cmd_Notarget_fRK9idCmdArgs, @function
_Z14Cmd_Notarget_fRK9idCmdArgs:
.LFB2823:
	.loc 2 426 0
	.cfi_startproc
.LVL42:
	stwu 1,-16(1)
.LCFI21:
	.cfi_def_cfa_offset 16
	mflr 0
	stw 31,12(1)
.LBB1934:
	.loc 2 430 0
	lis 31,gameLocal@ha
	.cfi_offset 31, -4
	.cfi_register 65, 0
	la 31,gameLocal@l(31)
.LBE1934:
	.loc 2 426 0
	stw 30,8(1)
.LBB1935:
	.loc 2 430 0
	mr 3,31
.LVL43:
.LBE1935:
	.loc 2 426 0
	stw 0,20(1)
.LBB1936:
	.loc 2 430 0
	.cfi_offset 65, 4
	.cfi_offset 30, -8
	bl _ZNK11idGameLocal14GetLocalPlayerEv
.LVL44:
	.loc 2 431 0
	mr. 30,3
	beq- 0,.L22
	.loc 2 431 0 is_stmt 0 discriminator 2
	mr 3,31
.LVL45:
	li 4,1
	bl _ZN11idGameLocal8CheatsOkEb
	cmpwi 7,3,0
	bne- 7,.L28
.L22:
.LBE1936:
	.loc 2 444 0 is_stmt 1
	lwz 0,20(1)
	lwz 30,8(1)
.LVL46:
	mtlr 0
	lwz 31,12(1)
	addi 1,1,16
	.cfi_remember_state
.LCFI22:
	.cfi_def_cfa_offset 0
	.cfi_restore 31
	.cfi_restore 30
	blr
.LVL47:
.L28:
.LCFI23:
	.cfi_restore_state
.LBB1937:
	.loc 2 435 0
	lwz 0,192(30)
	cmpwi 7,0,0
	blt- 7,.L29
	.loc 2 440 0
	lis 5,.LC9@ha
	.loc 2 439 0
	li 9,1
	.loc 2 440 0
	la 5,.LC9@l(5)
.L25:
	.loc 2 431 0
	rlwimi 0,9,31,0,0
	.loc 2 443 0
	lis 4,.LC7@ha
	.loc 2 431 0
	stw 0,192(30)
.LVL48:
	.loc 2 443 0
	mr 3,31
	la 4,.LC7@l(4)
	crxor 6,6,6
	bl _ZNK11idGameLocal6PrintfEPKcz
.LVL49:
.LBE1937:
	.loc 2 444 0
	lwz 0,20(1)
	lwz 30,8(1)
.LVL50:
	mtlr 0
	lwz 31,12(1)
	addi 1,1,16
	.cfi_remember_state
	.cfi_restore 30
	.cfi_restore 31
.LCFI24:
	.cfi_def_cfa_offset 0
	blr
.LVL51:
.L29:
.LCFI25:
	.cfi_restore_state
.LBB1938:
	.loc 2 437 0
	lis 5,.LC8@ha
	.loc 2 436 0
	li 9,0
	.loc 2 437 0
	la 5,.LC8@l(5)
	b .L25
.LBE1938:
	.cfi_endproc
.LFE2823:
	.size	_Z14Cmd_Notarget_fRK9idCmdArgs, .-_Z14Cmd_Notarget_fRK9idCmdArgs
	.align 2
	.globl _Z9Cmd_God_fRK9idCmdArgs
	.type	_Z9Cmd_God_fRK9idCmdArgs, @function
_Z9Cmd_God_fRK9idCmdArgs:
.LFB2822:
	.loc 2 397 0
	.cfi_startproc
.LVL52:
	stwu 1,-16(1)
.LCFI26:
	.cfi_def_cfa_offset 16
	mflr 0
	stw 31,12(1)
.LBB1939:
	.loc 2 401 0
	lis 31,gameLocal@ha
	.cfi_offset 31, -4
	.cfi_register 65, 0
	la 31,gameLocal@l(31)
.LBE1939:
	.loc 2 397 0
	stw 30,8(1)
.LBB1940:
	.loc 2 401 0
	mr 3,31
.LVL53:
.LBE1940:
	.loc 2 397 0
	stw 0,20(1)
.LBB1941:
	.loc 2 401 0
	.cfi_offset 65, 4
	.cfi_offset 30, -8
	bl _ZNK11idGameLocal14GetLocalPlayerEv
.LVL54:
	.loc 2 402 0
	mr. 30,3
	beq- 0,.L30
	.loc 2 402 0 is_stmt 0 discriminator 2
	mr 3,31
.LVL55:
	li 4,1
	bl _ZN11idGameLocal8CheatsOkEb
	cmpwi 7,3,0
	bne- 7,.L36
.L30:
.LBE1941:
	.loc 2 415 0 is_stmt 1
	lwz 0,20(1)
	lwz 30,8(1)
.LVL56:
	mtlr 0
	lwz 31,12(1)
	addi 1,1,16
	.cfi_remember_state
.LCFI27:
	.cfi_def_cfa_offset 0
	.cfi_restore 31
	.cfi_restore 30
	blr
.LVL57:
.L36:
.LCFI28:
	.cfi_restore_state
.LBB1942:
	.loc 2 406 0
	lbz 0,4629(30)
	cmpwi 7,0,0
	bne- 7,.L37
	.loc 2 411 0
	lis 5,.LC11@ha
	.loc 2 410 0
	li 0,1
	.loc 2 411 0
	la 5,.LC11@l(5)
.L33:
	.loc 2 402 0
	stb 0,4629(30)
.LVL58:
	.loc 2 414 0
	lis 4,.LC7@ha
	mr 3,31
	la 4,.LC7@l(4)
	crxor 6,6,6
	bl _ZNK11idGameLocal6PrintfEPKcz
.LVL59:
.LBE1942:
	.loc 2 415 0
	lwz 0,20(1)
	lwz 30,8(1)
.LVL60:
	mtlr 0
	lwz 31,12(1)
	addi 1,1,16
	.cfi_remember_state
	.cfi_restore 30
	.cfi_restore 31
.LCFI29:
	.cfi_def_cfa_offset 0
	blr
.LVL61:
.L37:
.LCFI30:
	.cfi_restore_state
.LBB1943:
	.loc 2 408 0
	lis 5,.LC10@ha
	.loc 2 407 0
	li 0,0
	.loc 2 408 0
	la 5,.LC10@l(5)
	b .L33
.LBE1943:
	.cfi_endproc
.LFE2822:
	.size	_Z9Cmd_God_fRK9idCmdArgs, .-_Z9Cmd_God_fRK9idCmdArgs
	.align 2
	.type	__tcf_0, @function
__tcf_0:
.LFB2881:
	.loc 2 2058 0
	.cfi_startproc
	mflr 0
	stwu 1,-8(1)
.LCFI31:
	.cfi_def_cfa_offset 8
	.cfi_register 65, 0
	lis 3,.LANCHOR0@ha
	la 3,.LANCHOR0@l(3)
	stw 0,12(1)
	.loc 2 2058 0
	.cfi_offset 65, 4
	bl _ZN7idLexerD1Ev
	lwz 0,12(1)
	addi 1,1,8
.LCFI32:
	.cfi_def_cfa_offset 0
	mtlr 0
	blr
	.cfi_endproc
.LFE2881:
	.size	__tcf_0, .-__tcf_0
	.align 2
	.type	_ZL18Cmd_DisasmScript_fRK9idCmdArgs, @function
_ZL18Cmd_DisasmScript_fRK9idCmdArgs:
.LFB2876:
	.loc 2 1975 0
	.cfi_startproc
.LVL62:
	mflr 0
	stwu 1,-8(1)
.LCFI33:
	.cfi_def_cfa_offset 8
	.cfi_register 65, 0
	.loc 2 1976 0
	lis 3,gameLocal+33476@ha
.LVL63:
	la 3,gameLocal+33476@l(3)
	.loc 2 1975 0
	stw 0,12(1)
	.loc 2 1976 0
	.cfi_offset 65, 4
	bl _ZNK9idProgram11DisassembleEv
	.loc 2 1977 0
	lwz 0,12(1)
	addi 1,1,8
.LCFI34:
	.cfi_def_cfa_offset 0
	mtlr 0
	blr
	.cfi_endproc
.LFE2876:
	.size	_ZL18Cmd_DisasmScript_fRK9idCmdArgs, .-_ZL18Cmd_DisasmScript_fRK9idCmdArgs
	.align 2
	.type	_ZL15Cmd_GameError_fRK9idCmdArgs, @function
_ZL15Cmd_GameError_fRK9idCmdArgs:
.LFB2873:
	.loc 2 1850 0
	.cfi_startproc
.LVL64:
	mflr 0
	stwu 1,-8(1)
.LCFI35:
	.cfi_def_cfa_offset 8
	.cfi_register 65, 0
	.loc 2 1851 0
	lis 3,gameLocal@ha
.LVL65:
	lis 4,.LC12@ha
	la 3,gameLocal@l(3)
	la 4,.LC12@l(4)
	.loc 2 1850 0
	stw 0,12(1)
	.loc 2 1851 0
	.cfi_offset 65, 4
	crxor 6,6,6
	bl _ZNK11idGameLocal5ErrorEPKcz
	.loc 2 1852 0
	lwz 0,12(1)
	addi 1,1,8
.LCFI36:
	.cfi_def_cfa_offset 0
	mtlr 0
	blr
	.cfi_endproc
.LFE2873:
	.size	_ZL15Cmd_GameError_fRK9idCmdArgs, .-_ZL15Cmd_GameError_fRK9idCmdArgs
	.align 2
	.type	_ZL19Cmd_UnbindRagdoll_fRK9idCmdArgs, @function
_ZL19Cmd_UnbindRagdoll_fRK9idCmdArgs:
.LFB2872:
	.loc 2 1832 0
	.cfi_startproc
.LVL66:
	stwu 1,-16(1)
.LCFI37:
	.cfi_def_cfa_offset 16
	mflr 0
	stw 30,8(1)
.LBB1944:
	.loc 2 1835 0
	lis 30,gameLocal@ha
	.cfi_offset 30, -8
	.cfi_register 65, 0
	la 30,gameLocal@l(30)
.LBE1944:
	.loc 2 1832 0
	stw 31,12(1)
.LBB1945:
	.loc 2 1835 0
	mr 3,30
.LVL67:
.LBE1945:
	.loc 2 1832 0
	stw 0,20(1)
.LBB1946:
	.loc 2 1835 0
	.cfi_offset 65, 4
	.cfi_offset 31, -4
	bl _ZNK11idGameLocal14GetLocalPlayerEv
.LVL68:
	.loc 2 1836 0
	mr. 31,3
	beq- 0,.L41
	.loc 2 1836 0 is_stmt 0 discriminator 2
	mr 3,30
.LVL69:
	li 4,1
	bl _ZN11idGameLocal8CheatsOkEb
	cmpwi 7,3,0
	bne- 7,.L43
.L41:
.LBE1946:
	.loc 2 1843 0 is_stmt 1
	lwz 0,20(1)
	lwz 30,8(1)
	mtlr 0
	lwz 31,12(1)
.LVL70:
	addi 1,1,16
	.cfi_remember_state
.LCFI38:
	.cfi_def_cfa_offset 0
	.cfi_restore 31
	.cfi_restore 30
	blr
.LVL71:
.L43:
.LCFI39:
	.cfi_restore_state
.LBB1947:
	.loc 2 1841 0
	addi 3,31,5368
	bl _ZN12idDragEntity14UnbindSelectedEv
.LBE1947:
	.loc 2 1843 0
	lwz 0,20(1)
	lwz 30,8(1)
	mtlr 0
	lwz 31,12(1)
.LVL72:
	addi 1,1,16
	.cfi_restore 30
	.cfi_restore 31
.LCFI40:
	.cfi_def_cfa_offset 0
	blr
	.cfi_endproc
.LFE2872:
	.size	_ZL19Cmd_UnbindRagdoll_fRK9idCmdArgs, .-_ZL19Cmd_UnbindRagdoll_fRK9idCmdArgs
	.align 2
	.type	_ZL17Cmd_BindRagdoll_fRK9idCmdArgs, @function
_ZL17Cmd_BindRagdoll_fRK9idCmdArgs:
.LFB2871:
	.loc 2 1814 0
	.cfi_startproc
.LVL73:
	stwu 1,-16(1)
.LCFI41:
	.cfi_def_cfa_offset 16
	mflr 0
	stw 30,8(1)
.LBB1948:
	.loc 2 1817 0
	lis 30,gameLocal@ha
	.cfi_offset 30, -8
	.cfi_register 65, 0
	la 30,gameLocal@l(30)
.LBE1948:
	.loc 2 1814 0
	stw 31,12(1)
.LBB1949:
	.loc 2 1817 0
	mr 3,30
.LVL74:
.LBE1949:
	.loc 2 1814 0
	stw 0,20(1)
.LBB1950:
	.loc 2 1817 0
	.cfi_offset 65, 4
	.cfi_offset 31, -4
	bl _ZNK11idGameLocal14GetLocalPlayerEv
.LVL75:
	.loc 2 1818 0
	mr. 31,3
	beq- 0,.L44
	.loc 2 1818 0 is_stmt 0 discriminator 2
	mr 3,30
.LVL76:
	li 4,1
	bl _ZN11idGameLocal8CheatsOkEb
	cmpwi 7,3,0
	bne- 7,.L46
.L44:
.LBE1950:
	.loc 2 1825 0 is_stmt 1
	lwz 0,20(1)
	lwz 30,8(1)
	mtlr 0
	lwz 31,12(1)
.LVL77:
	addi 1,1,16
	.cfi_remember_state
.LCFI42:
	.cfi_def_cfa_offset 0
	.cfi_restore 31
	.cfi_restore 30
	blr
.LVL78:
.L46:
.LCFI43:
	.cfi_restore_state
.LBB1951:
	.loc 2 1823 0
	addi 3,31,5368
	bl _ZN12idDragEntity12BindSelectedEv
.LBE1951:
	.loc 2 1825 0
	lwz 0,20(1)
	lwz 30,8(1)
	mtlr 0
	lwz 31,12(1)
.LVL79:
	addi 1,1,16
	.cfi_restore 30
	.cfi_restore 31
.LCFI44:
	.cfi_def_cfa_offset 0
	blr
	.cfi_endproc
.LFE2871:
	.size	_ZL17Cmd_BindRagdoll_fRK9idCmdArgs, .-_ZL17Cmd_BindRagdoll_fRK9idCmdArgs
	.align 2
	.type	_ZL20Cmd_DeleteSelected_fRK9idCmdArgs, @function
_ZL20Cmd_DeleteSelected_fRK9idCmdArgs:
.LFB2868:
	.loc 2 1642 0
	.cfi_startproc
.LVL80:
	stwu 1,-16(1)
.LCFI45:
	.cfi_def_cfa_offset 16
	mflr 0
	stw 30,8(1)
.LBB1952:
	.loc 2 1645 0
	lis 30,gameLocal@ha
	.cfi_offset 30, -8
	.cfi_register 65, 0
	la 30,gameLocal@l(30)
.LBE1952:
	.loc 2 1642 0
	stw 31,12(1)
.LBB1953:
	.loc 2 1645 0
	mr 3,30
.LVL81:
.LBE1953:
	.loc 2 1642 0
	stw 0,20(1)
.LBB1954:
	.loc 2 1645 0
	.cfi_offset 65, 4
	.cfi_offset 31, -4
	bl _ZNK11idGameLocal14GetLocalPlayerEv
.LVL82:
	.loc 2 1646 0
	mr. 31,3
	beq- 0,.L47
	.loc 2 1646 0 is_stmt 0 discriminator 2
	mr 3,30
.LVL83:
	li 4,1
	bl _ZN11idGameLocal8CheatsOkEb
	cmpwi 7,3,0
	bne- 7,.L49
.L47:
.LBE1954:
	.loc 2 1653 0 is_stmt 1
	lwz 0,20(1)
	lwz 30,8(1)
	mtlr 0
	lwz 31,12(1)
.LVL84:
	addi 1,1,16
	.cfi_remember_state
.LCFI46:
	.cfi_def_cfa_offset 0
	.cfi_restore 31
	.cfi_restore 30
	blr
.LVL85:
.L49:
.LCFI47:
	.cfi_restore_state
.LBB1955:
	.loc 2 1651 0
	addi 3,31,5368
	bl _ZN12idDragEntity14DeleteSelectedEv
.LBE1955:
	.loc 2 1653 0
	lwz 0,20(1)
	lwz 30,8(1)
	mtlr 0
	lwz 31,12(1)
.LVL86:
	addi 1,1,16
	.cfi_restore 30
	.cfi_restore 31
.LCFI48:
	.cfi_def_cfa_offset 0
	blr
	.cfi_endproc
.LFE2868:
	.size	_ZL20Cmd_DeleteSelected_fRK9idCmdArgs, .-_ZL20Cmd_DeleteSelected_fRK9idCmdArgs
	.align 2
	.type	_ZL17Cmd_WeaponSplat_fRK9idCmdArgs, @function
_ZL17Cmd_WeaponSplat_fRK9idCmdArgs:
.LFB2866:
	.loc 2 1559 0
	.cfi_startproc
.LVL87:
	stwu 1,-16(1)
.LCFI49:
	.cfi_def_cfa_offset 16
	mflr 0
	stw 31,12(1)
.LBB1956:
	.loc 2 1562 0
	lis 31,gameLocal@ha
	.cfi_offset 31, -4
	.cfi_register 65, 0
	la 31,gameLocal@l(31)
.LBE1956:
	.loc 2 1559 0
	stw 30,8(1)
.LBB1959:
	.loc 2 1562 0
	mr 3,31
.LVL88:
.LBE1959:
	.loc 2 1559 0
	stw 0,20(1)
.LBB1960:
	.loc 2 1562 0
	.cfi_offset 65, 4
	.cfi_offset 30, -8
	bl _ZNK11idGameLocal14GetLocalPlayerEv
.LVL89:
	.loc 2 1563 0
	mr. 30,3
	beq- 0,.L50
	.loc 2 1563 0 is_stmt 0 discriminator 2
	mr 3,31
.LVL90:
	li 4,1
	bl _ZN11idGameLocal8CheatsOkEb
	cmpwi 7,3,0
	beq- 7,.L50
.LVL91:
.LBB1957:
.LBB1958:
	.file 4 "d:/Data/Nintendo/DoomGX/src/game/gamesys/../Game_local.h"
	.loc 4 634 0 is_stmt 1
	lwz 0,5136(30)
	.loc 4 638 0
	li 3,0
	.loc 4 634 0
	rlwinm 9,0,0,20,31
.LVL92:
	.loc 4 635 0
	srawi 0,0,12
	addi 11,9,4228
	slwi 11,11,2
	add 11,31,11
	lwz 11,4(11)
	cmpw 7,11,0
	bne+ 7,.L54
	.loc 4 636 0
	addi 9,9,132
.LVL93:
	slwi 9,9,2
.LVL94:
	add 31,31,9
	lwz 3,4(31)
.L54:
.LBE1958:
.LBE1957:
	.loc 2 1567 0
	lis 9,.LC13@ha
	lfs 1,.LC13@l(9)
	bl _ZN8idWeapon10BloodSplatEf
.LVL95:
.L50:
.LBE1960:
	.loc 2 1568 0
	lwz 0,20(1)
	lwz 30,8(1)
.LVL96:
	mtlr 0
	lwz 31,12(1)
	addi 1,1,16
.LCFI50:
	.cfi_def_cfa_offset 0
	.cfi_restore 31
	.cfi_restore 30
	blr
	.cfi_endproc
.LFE2866:
	.size	_ZL17Cmd_WeaponSplat_fRK9idCmdArgs, .-_ZL17Cmd_WeaponSplat_fRK9idCmdArgs
	.align 2
	.globl _Z16Cmd_SetViewpos_fRK9idCmdArgs
	.type	_Z16Cmd_SetViewpos_fRK9idCmdArgs, @function
_Z16Cmd_SetViewpos_fRK9idCmdArgs:
.LFB2833:
	.loc 2 673 0
	.cfi_startproc
.LVL97:
	stwu 1,-64(1)
.LCFI51:
	.cfi_def_cfa_offset 64
	mflr 0
	stw 29,52(1)
.LBB1961:
	.loc 2 679 0
	lis 29,gameLocal@ha
	.cfi_offset 29, -12
	.cfi_register 65, 0
	la 29,gameLocal@l(29)
.LBE1961:
	.loc 2 673 0
	stw 30,56(1)
	mr 30,3
	.cfi_offset 30, -8
.LBB1982:
	.loc 2 679 0
	mr 3,29
.LVL98:
.LBE1982:
	.loc 2 673 0
	stw 31,60(1)
	stw 0,68(1)
	stw 26,40(1)
	stw 27,44(1)
	stw 28,48(1)
.LBB1983:
	.loc 2 679 0
	.cfi_offset 28, -16
	.cfi_offset 27, -20
	.cfi_offset 26, -24
	.cfi_offset 65, 4
	.cfi_offset 31, -4
	bl _ZNK11idGameLocal14GetLocalPlayerEv
.LVL99:
	.loc 2 680 0
	mr. 31,3
	beq- 0,.L56
	.loc 2 680 0 is_stmt 0 discriminator 2
	mr 3,29
.LVL100:
	li 4,1
	bl _ZN11idGameLocal8CheatsOkEb
	cmpwi 7,3,0
	beq- 7,.L56
	.loc 2 2405 0 is_stmt 1
	lwz 0,0(30)
	.loc 2 684 0
	cmpwi 7,0,4
	beq- 7,.L70
	.loc 2 684 0 is_stmt 0 discriminator 1
	cmpwi 7,0,5
	beq- 7,.L59
	.loc 2 685 0 is_stmt 1 discriminator 4
	lis 4,.LC14@ha
	mr 3,29
	la 4,.LC14@l(4)
	crxor 6,6,6
	bl _ZNK11idGameLocal6PrintfEPKcz
.L56:
.LBE1983:
	.loc 2 700 0
	lwz 0,68(1)
	lwz 26,40(1)
	mtlr 0
	lwz 27,44(1)
	lwz 28,48(1)
	lwz 29,52(1)
	lwz 30,56(1)
.LVL101:
	lwz 31,60(1)
.LVL102:
	addi 1,1,64
	.cfi_remember_state
.LCFI52:
	.cfi_def_cfa_offset 0
	.cfi_restore 31
	.cfi_restore 30
	.cfi_restore 29
	.cfi_restore 28
	.cfi_restore 27
	.cfi_restore 26
	blr
.LVL103:
.L59:
.LCFI53:
	.cfi_restore_state
.LBB1984:
	.loc 2 691 0
	lwz 3,20(30)
.LBB1962:
.LBB1963:
	.file 5 "d:/Data/Nintendo/DoomGX/src/game/gamesys/../../idlib/../idlib/math/Angles.h"
	.loc 5 127 0
	li 0,0
	stw 0,16(1)
	stw 0,12(1)
	stw 0,8(1)
.LVL104:
.LBE1963:
.LBE1962:
	.loc 2 691 0
	bl atof
	frsp 1,1
	lwz 0,0(30)
	stfs 1,12(1)
.LVL105:
.L65:
.LBB1966:
.LBB1964:
	.loc 5 127 0 discriminator 1
	li 29,0
.LBE1964:
.LBE1966:
.LBB1967:
.LBB1968:
	.file 6 "d:/Data/Nintendo/DoomGX/src/game/gamesys/../../idlib/../idlib/CmdArgs.h"
	.loc 6 50 0 discriminator 1
	lis 26,.LC3@ha
.LVL106:
.LBE1968:
.LBE1967:
.LBB1971:
.LBB1972:
	.loc 2 673 0 discriminator 1
	slwi 28,29,2
.LBE1972:
.LBE1971:
	.loc 2 695 0 discriminator 1
	addi 29,29,1
.LVL107:
.LBB1974:
.LBB1969:
	.loc 6 50 0 discriminator 1
	cmpw 7,0,29
	.loc 2 673 0 discriminator 1
	slwi 0,29,2
	addi 27,1,20
	add 9,30,0
	.loc 6 50 0 discriminator 1
	la 3,.LC3@l(26)
	ble- 7,.L60
.LVL108:
.L71:
	.loc 6 50 0 is_stmt 0
	lwz 3,4(9)
.L60:
.LBE1969:
.LBE1974:
	.loc 2 695 0 is_stmt 1
	bl atof
	.loc 2 694 0
	cmpwi 7,29,3
	.loc 2 695 0
	frsp 1,1
	stfsx 1,27,28
.LVL109:
	.loc 2 694 0
	beq- 7,.L61
.L72:
	lwz 0,0(30)
.LVL110:
.LBB1975:
.LBB1973:
	.loc 2 673 0
	slwi 28,29,2
.LBE1973:
.LBE1975:
	.loc 2 695 0
	addi 29,29,1
.LVL111:
.LBB1976:
.LBB1970:
	.loc 6 50 0
	la 3,.LC3@l(26)
	cmpw 7,0,29
	.loc 2 673 0
	slwi 0,29,2
	add 9,30,0
	.loc 6 50 0
	bgt- 7,.L71
.LBE1970:
.LBE1976:
	.loc 2 695 0
	bl atof
	.loc 2 694 0
	cmpwi 7,29,3
	.loc 2 695 0
	frsp 1,1
	stfsx 1,27,28
.LVL112:
	.loc 2 694 0
	bne+ 7,.L72
.LVL113:
.L61:
.LBB1977:
.LBB1978:
	.loc 2 697 0
	lis 9,pm_normalviewheight+44@ha
.LBE1978:
.LBE1977:
	.loc 2 699 0
	mr 3,31
.LBB1980:
.LBB1979:
	.file 7 "d:/Data/Nintendo/DoomGX/src/game/gamesys/../../idlib/../framework/CVarSystem.h"
	.loc 7 144 0
	lwz 9,pm_normalviewheight+44@l(9)
.LBE1979:
.LBE1980:
	.loc 2 699 0
	mr 4,27
	addi 5,1,8
.LVL114:
	li 6,0
	.loc 2 697 0
	lfs 13,40(9)
	lis 9,.LC15@ha
	lfs 0,.LC15@l(9)
	fsubs 0,13,0
	lfs 13,28(1)
	fsubs 0,13,0
	stfs 0,28(1)
	.loc 2 699 0
	lwz 9,0(31)
	lwz 0,200(9)
	mtctr 0
	bctrl
.LVL115:
.LBE1984:
	.loc 2 700 0
	lwz 0,68(1)
	lwz 26,40(1)
	mtlr 0
	lwz 27,44(1)
	lwz 28,48(1)
	lwz 29,52(1)
.LVL116:
	lwz 30,56(1)
.LVL117:
	lwz 31,60(1)
.LVL118:
	addi 1,1,64
	.cfi_remember_state
	.cfi_restore 26
	.cfi_restore 27
	.cfi_restore 28
	.cfi_restore 29
	.cfi_restore 30
	.cfi_restore 31
.LCFI54:
	.cfi_def_cfa_offset 0
	blr
.LVL119:
.L70:
.LCFI55:
	.cfi_restore_state
.LBB1985:
.LBB1981:
.LBB1965:
	.loc 5 127 0
	li 0,0
	stw 0,16(1)
	stw 0,12(1)
	stw 0,8(1)
	li 0,4
	b .L65
.LBE1965:
.LBE1981:
.LBE1985:
	.cfi_endproc
.LFE2833:
	.size	_Z16Cmd_SetViewpos_fRK9idCmdArgs, .-_Z16Cmd_SetViewpos_fRK9idCmdArgs
	.align 2
	.type	_ZL16Cmd_TestDamage_fRK9idCmdArgs, @function
_ZL16Cmd_TestDamage_fRK9idCmdArgs:
.LFB2863:
	.loc 2 1471 0
	.cfi_startproc
.LVL120:
	stwu 1,-56(1)
.LCFI56:
	.cfi_def_cfa_offset 56
	mflr 0
	stw 30,40(1)
.LBB1986:
	.loc 2 1475 0
	lis 30,gameLocal@ha
	.cfi_offset 30, -16
	.cfi_register 65, 0
	la 30,gameLocal@l(30)
.LBE1986:
	.loc 2 1471 0
	stw 29,36(1)
	mr 29,3
	.cfi_offset 29, -20
.LBB1998:
	.loc 2 1475 0
	mr 3,30
.LVL121:
.LBE1998:
	.loc 2 1471 0
	stw 31,44(1)
	stw 0,60(1)
	stfd 31,48(1)
.LBB1999:
	.loc 2 1475 0
	.cfi_offset 63, -8
	.cfi_offset 65, 4
	.cfi_offset 31, -12
	bl _ZNK11idGameLocal14GetLocalPlayerEv
.LVL122:
	.loc 2 1476 0
	mr. 31,3
	beq- 0,.L73
	.loc 2 1476 0 is_stmt 0 discriminator 2
	mr 3,30
.LVL123:
	li 4,1
	bl _ZN11idGameLocal8CheatsOkEb
	cmpwi 7,3,0
	beq- 7,.L73
	.loc 2 2405 0 is_stmt 1
	lwz 0,0(29)
	.loc 2 1480 0
	cmpwi 7,0,1
	ble- 7,.L79
	.loc 2 1480 0 is_stmt 0 discriminator 2
	cmpwi 7,0,3
	ble- 7,.L76
.L79:
	.loc 2 1481 0 is_stmt 1 discriminator 4
	lis 4,.LC16@ha
	mr 3,30
	la 4,.LC16@l(4)
	crxor 6,6,6
	bl _ZNK11idGameLocal6PrintfEPKcz
.L73:
.LBE1999:
	.loc 2 1502 0
	lwz 0,60(1)
	lwz 29,36(1)
.LVL124:
	mtlr 0
	lwz 30,40(1)
	lwz 31,44(1)
.LVL125:
	lfd 31,48(1)
	addi 1,1,56
	.cfi_remember_state
.LCFI57:
	.cfi_def_cfa_offset 0
	.cfi_restore 63
	.cfi_restore 31
	.cfi_restore 30
	.cfi_restore 29
	blr
.LVL126:
.L76:
.LCFI58:
	.cfi_restore_state
.LBB2000:
.LBB1987:
.LBB1988:
	.loc 6 50 0
	lwz 7,8(29)
.LBE1988:
.LBE1987:
.LBB1989:
	.loc 2 1488 0
	beq- 7,.L83
.LVL127:
.LBB1990:
.LBB1991:
	.file 8 "d:/Data/Nintendo/DoomGX/src/game/gamesys/../../idlib/../idlib/math/Vector.h"
	.loc 8 416 0
	li 0,0
	stw 0,16(1)
	stw 0,12(1)
	stw 0,8(1)
.LVL128:
.L78:
.LBE1991:
.LBE1990:
.LBE1989:
	.loc 2 1499 0
	lwz 0,4768(31)
	.loc 2 1500 0
	mr 3,31
	lwz 9,0(31)
	addi 6,1,8
	.loc 2 1499 0
	stw 0,188(31)
	.loc 2 1500 0
	li 4,0
	li 5,0
	li 8,-1
	lwz 0,164(9)
	lis 9,.LC17@ha
	lfs 1,.LC17@l(9)
	mtctr 0
	bctrl
	.loc 2 1501 0
	lwz 0,4768(31)
	stw 0,188(31)
.LBE2000:
	.loc 2 1502 0
	lwz 0,60(1)
	lwz 29,36(1)
.LVL129:
	mtlr 0
	lwz 30,40(1)
	lwz 31,44(1)
.LVL130:
	lfd 31,48(1)
	addi 1,1,56
	.cfi_remember_state
	.cfi_restore 29
	.cfi_restore 30
	.cfi_restore 31
	.cfi_restore 63
.LCFI59:
	.cfi_def_cfa_offset 0
	blr
.LVL131:
.L83:
.LCFI60:
	.cfi_restore_state
.LBB2001:
.LBB1997:
.LBB1992:
	.loc 2 1489 0
	lwz 3,12(29)
	stw 7,24(1)
	bl atof
.LVL132:
	.loc 2 1491 0
	lis 9,_ZN6idMath9M_DEG2RADE@ha
	.loc 2 1489 0
	frsp 1,1
.LVL133:
	.loc 2 1491 0
	lfs 0,_ZN6idMath9M_DEG2RADE@l(9)
	fmuls 31,1,0
.LVL134:
.LBB1993:
.LBB1994:
	.file 9 "d:/Data/Nintendo/DoomGX/src/game/gamesys/../../idlib/../idlib/math/Math.h"
	.loc 9 401 0
	fmr 1,31
.LVL135:
	bl sinf
	stfs 1,12(1)
	.loc 9 402 0
	fmr 1,31
	bl cosf
.LBE1994:
.LBE1993:
	.loc 2 1492 0
	li 0,0
.LBB1996:
.LBB1995:
	.loc 9 402 0
	stfs 1,8(1)
.LVL136:
.LBE1995:
.LBE1996:
	.loc 2 1492 0
	stw 0,16(1)
	lwz 7,24(1)
	b .L78
.LBE1992:
.LBE1997:
.LBE2001:
	.cfi_endproc
.LFE2863:
	.size	_ZL16Cmd_TestDamage_fRK9idCmdArgs, .-_ZL16Cmd_TestDamage_fRK9idCmdArgs
	.align 2
	.type	_ZL15Cmd_TestDeath_fRK9idCmdArgs, @function
_ZL15Cmd_TestDeath_fRK9idCmdArgs:
.LFB2865:
	.loc 2 1534 0
	.cfi_startproc
.LVL137:
	stwu 1,-48(1)
.LCFI61:
	.cfi_def_cfa_offset 48
	mflr 0
	stw 29,28(1)
.LBB2002:
	.loc 2 1537 0
	lis 29,gameLocal@ha
	.cfi_offset 29, -20
	.cfi_register 65, 0
	la 29,gameLocal@l(29)
.LBE2002:
	.loc 2 1534 0
	stw 30,32(1)
	mr 30,3
	.cfi_offset 30, -16
.LBB2011:
	.loc 2 1537 0
	mr 3,29
.LVL138:
.LBE2011:
	.loc 2 1534 0
	stw 31,36(1)
	stw 0,52(1)
	stfd 31,40(1)
.LBB2012:
	.loc 2 1537 0
	.cfi_offset 63, -8
	.cfi_offset 65, 4
	.cfi_offset 31, -12
	bl _ZNK11idGameLocal14GetLocalPlayerEv
.LVL139:
	.loc 2 1538 0
	mr. 31,3
	beq- 0,.L84
	.loc 2 1538 0 is_stmt 0 discriminator 2
	mr 3,29
.LVL140:
	li 4,1
	bl _ZN11idGameLocal8CheatsOkEb
	cmpwi 7,3,0
	beq- 7,.L84
	.loc 2 1543 0 is_stmt 1
	lis 9,.LC19@ha
	.loc 2 1547 0
	lis 29,.LC18@ha
	.loc 2 1543 0
	lfs 0,.LC19@l(9)
	lis 9,_ZN6idMath9M_DEG2RADE@ha
	lfs 31,_ZN6idMath9M_DEG2RADE@l(9)
	.loc 2 1547 0
	la 29,.LC18@l(29)
	.loc 2 1543 0
	fmuls 31,31,0
.LVL141:
.LBB2003:
.LBB2004:
	.loc 9 401 0
	fmr 1,31
	bl sinf
	stfs 1,12(1)
	.loc 9 402 0
	fmr 1,31
	bl cosf
.LBE2004:
.LBE2003:
	.loc 2 1544 0
	li 0,0
	.loc 2 1546 0
	lis 9,g_testDeath+44@ha
.LBB2006:
.LBB2005:
	.loc 9 402 0
	stfs 1,8(1)
.LVL142:
.LBE2005:
.LBE2006:
	.loc 2 1546 0
	lwz 9,g_testDeath+44@l(9)
.LBB2007:
.LBB2008:
	.loc 7 147 0
	li 4,1
.LBE2008:
.LBE2007:
	.loc 2 1544 0
	stw 0,16(1)
.LBB2010:
.LBB2009:
	.loc 7 147 0
	mr 3,9
	lwz 9,0(9)
	lwz 0,12(9)
	mtctr 0
	bctrl
.LBE2009:
.LBE2010:
	.loc 2 1547 0
	lwz 9,0(31)
	mr 3,31
	li 4,0
	lwz 0,164(9)
	lis 9,.LC17@ha
	li 5,0
	addi 6,1,8
	mtctr 0
	mr 7,29
	lfs 1,.LC17@l(9)
	li 8,-1
	bctrl
	.loc 2 1548 0
	lwz 0,0(30)
	cmpwi 7,0,1
	ble- 7,.L84
	.loc 2 1549 0
	lwz 9,0(31)
	mr 3,31
	addi 4,1,8
	mr 5,29
	lwz 0,244(9)
	mtctr 0
	bctrl
.LVL143:
.L84:
.LBE2012:
	.loc 2 1552 0
	lwz 0,52(1)
	lwz 29,28(1)
	mtlr 0
	lwz 30,32(1)
.LVL144:
	lwz 31,36(1)
.LVL145:
	lfd 31,40(1)
	addi 1,1,48
.LCFI62:
	.cfi_def_cfa_offset 0
	.cfi_restore 63
	.cfi_restore 31
	.cfi_restore 30
	.cfi_restore 29
	blr
	.cfi_endproc
.LFE2865:
	.size	_ZL15Cmd_TestDeath_fRK9idCmdArgs, .-_ZL15Cmd_TestDeath_fRK9idCmdArgs
	.align 2
	.type	_ZL17Cmd_ReloadAnims_fRK9idCmdArgs, @function
_ZL17Cmd_ReloadAnims_fRK9idCmdArgs:
.LFB2860:
	.loc 2 1384 0
	.cfi_startproc
.LVL146:
	stwu 1,-16(1)
.LCFI63:
	.cfi_def_cfa_offset 16
	mflr 0
	stw 31,12(1)
	.loc 2 1387 0
	lis 31,gameLocal@ha
	.cfi_offset 31, -4
	.cfi_register 65, 0
	la 31,gameLocal@l(31)
	.loc 2 1384 0
	stw 0,20(1)
	.loc 2 1387 0
	mr 3,31
.LVL147:
	.cfi_offset 65, 4
	bl _ZNK11idGameLocal14GetLocalPlayerEv
	cmpwi 7,3,0
	beq- 7,.L90
	.loc 2 1387 0 is_stmt 0 discriminator 1
	mr 3,31
	li 4,0
	bl _ZN11idGameLocal8CheatsOkEb
	cmpwi 7,3,0
	bne- 7,.L90
	.loc 2 1392 0 is_stmt 1
	lwz 0,20(1)
	lwz 31,12(1)
	mtlr 0
	addi 1,1,16
	.cfi_remember_state
.LCFI64:
	.cfi_def_cfa_offset 0
	.cfi_restore 31
	blr
.L90:
.LCFI65:
	.cfi_restore_state
	.loc 2 1391 0
	lis 3,animationLib@ha
	la 3,animationLib@l(3)
	bl _ZN13idAnimManager11ReloadAnimsEv
	.loc 2 1392 0
	lwz 0,20(1)
	lwz 31,12(1)
	mtlr 0
	addi 1,1,16
	.cfi_restore 31
.LCFI66:
	.cfi_def_cfa_offset 0
	blr
	.cfi_endproc
.LFE2860:
	.size	_ZL17Cmd_ReloadAnims_fRK9idCmdArgs, .-_ZL17Cmd_ReloadAnims_fRK9idCmdArgs
	.align 2
	.type	_ZL25Cmd_ListCollisionModels_fRK9idCmdArgs, @function
_ZL25Cmd_ListCollisionModels_fRK9idCmdArgs:
.LFB2853:
	.loc 2 1293 0
	.cfi_startproc
.LVL148:
	mflr 0
	stwu 1,-8(1)
.LCFI67:
	.cfi_def_cfa_offset 8
	.cfi_register 65, 0
	.loc 2 1294 0
	lis 3,gameLocal@ha
.LVL149:
	li 4,1
	la 3,gameLocal@l(3)
	.loc 2 1293 0
	stw 0,12(1)
	.loc 2 1294 0
	.cfi_offset 65, 4
	bl _ZN11idGameLocal8CheatsOkEb
	cmpwi 7,3,0
	beq+ 7,.L92
	.loc 2 1297 0
	lis 3,.LC20@ha
	la 3,.LC20@l(3)
	crxor 6,6,6
	bl _Z10Sys_PrintfPKcz
.L92:
	.loc 2 1299 0
	lwz 0,12(1)
	addi 1,1,8
.LCFI68:
	.cfi_def_cfa_offset 0
	mtlr 0
	blr
	.cfi_endproc
.LFE2853:
	.size	_ZL25Cmd_ListCollisionModels_fRK9idCmdArgs, .-_ZL25Cmd_ListCollisionModels_fRK9idCmdArgs
	.align 2
	.type	_ZL14Cmd_TestSave_fRK9idCmdArgs, @function
_ZL14Cmd_TestSave_fRK9idCmdArgs:
.LFB2877:
	.loc 2 1984 0
	.cfi_startproc
.LVL150:
	stwu 1,-16(1)
.LCFI69:
	.cfi_def_cfa_offset 16
	mflr 0
.LBB2013:
	.loc 2 1987 0
	lis 4,.LC21@ha
	lis 5,.LC22@ha
.LBE2013:
	.loc 2 1984 0
	stw 31,12(1)
.LBB2014:
	.loc 2 1987 0
	lis 31,fileSystem@ha
	.cfi_offset 31, -4
	.cfi_register 65, 0
.LBE2014:
	.loc 2 1984 0
	stw 30,8(1)
.LBB2015:
	.loc 2 1987 0
	la 5,.LC22@l(5)
.LBE2015:
	.loc 2 1984 0
	stw 0,20(1)
.LBB2016:
	.loc 2 1987 0
	la 4,.LC21@l(4)
	lwz 3,fileSystem@l(31)
.LVL151:
	lwz 9,0(3)
	lwz 0,116(9)
	.cfi_offset 65, 4
	.cfi_offset 30, -8
	mtctr 0
	bctrl
	mr 30,3
.LVL152:
	.loc 2 1988 0
	lis 3,gameLocal@ha
.LVL153:
	mr 4,30
	la 3,gameLocal@l(3)
	bl _ZN11idGameLocal8SaveGameEP6idFile
	.loc 2 1989 0
	lwz 3,fileSystem@l(31)
	mr 4,30
	lwz 9,0(3)
	lwz 0,136(9)
	mtctr 0
	bctrl
.LBE2016:
	.loc 2 1990 0
	lwz 0,20(1)
	lwz 30,8(1)
.LVL154:
	mtlr 0
	lwz 31,12(1)
	addi 1,1,16
.LCFI70:
	.cfi_def_cfa_offset 0
	.cfi_restore 31
	.cfi_restore 30
	blr
	.cfi_endproc
.LFE2877:
	.size	_ZL14Cmd_TestSave_fRK9idCmdArgs, .-_ZL14Cmd_TestSave_fRK9idCmdArgs
	.align 2
	.type	_ZL10PrintFloatf, @function
_ZL10PrintFloatf:
.LFB2850:
	.loc 2 1209 0
	.cfi_startproc
.LVL155:
	stwu 1,-136(1)
.LCFI71:
	.cfi_def_cfa_offset 136
	mflr 0
.LBB2017:
	.loc 2 1212 0
	lis 4,.LC23@ha
	addi 3,1,8
	la 4,.LC23@l(4)
.LBE2017:
	.loc 2 1209 0
	stw 0,140(1)
.LBB2018:
	.loc 2 1212 0
	.cfi_offset 65, 4
	creqv 6,6,6
	bl sprintf
.LVL156:
	rlwinm 9,3,0,0xff
.LVL157:
	cmplwi 7,9,6
	bgt- 7,.L96
	.loc 2 1213 0 discriminator 2
	subfic 11,9,6
	li 0,32
	rlwinm 11,11,0,0xff
	addi 11,11,1
	mtctr 11
.LVL158:
.L98:
	add 11,1,9
	.loc 2 1212 0 discriminator 2
	addi 9,9,1
	.loc 2 1213 0 discriminator 2
	stb 0,8(11)
	.loc 2 1212 0 discriminator 2
	rlwinm 9,9,0,0xff
.LVL159:
	bdnz .L98
.LVL160:
.L96:
	.loc 2 1215 0
	add 9,1,9
	li 0,0
	stb 0,8(9)
	.loc 2 1216 0
	lis 3,gameLocal@ha
	addi 4,1,8
	la 3,gameLocal@l(3)
	crxor 6,6,6
	bl _ZNK11idGameLocal6PrintfEPKcz
.LBE2018:
	.loc 2 1217 0
	lwz 0,140(1)
	addi 1,1,136
.LCFI72:
	.cfi_def_cfa_offset 0
	mtlr 0
	blr
	.cfi_endproc
.LFE2850:
	.size	_ZL10PrintFloatf, .-_ZL10PrintFloatf
	.align 2
	.type	_ZL17Cmd_AddChatLine_fRK9idCmdArgs, @function
_ZL17Cmd_AddChatLine_fRK9idCmdArgs:
.LFB2830:
	.loc 2 613 0
	.cfi_startproc
.LVL161:
	mflr 0
	stwu 1,-8(1)
.LCFI73:
	.cfi_def_cfa_offset 8
	.cfi_register 65, 0
	stw 0,12(1)
.LBB2019:
.LBB2020:
	.loc 6 50 0
	lwz 0,0(3)
	.cfi_offset 65, 4
	cmpwi 7,0,1
	ble- 7,.L102
	lwz 4,8(3)
.LBE2020:
.LBE2019:
	.loc 2 614 0
	lis 3,gameLocal+2426248@ha
.LVL162:
	la 3,gameLocal+2426248@l(3)
	crxor 6,6,6
	bl _ZN17idMultiplayerGame11AddChatLineEPKcz
	.loc 2 615 0
	lwz 0,12(1)
	addi 1,1,8
	.cfi_remember_state
.LCFI74:
	.cfi_def_cfa_offset 0
	mtlr 0
	blr
.LVL163:
.L102:
.LCFI75:
	.cfi_restore_state
.LBB2023:
.LBB2021:
	.loc 6 50 0
	lis 4,.LC3@ha
.LBE2021:
.LBE2023:
	.loc 2 614 0
	lis 3,gameLocal+2426248@ha
.LVL164:
.LBB2024:
.LBB2022:
	.loc 6 50 0
	la 4,.LC3@l(4)
.LBE2022:
.LBE2024:
	.loc 2 614 0
	la 3,gameLocal+2426248@l(3)
	crxor 6,6,6
	bl _ZN17idMultiplayerGame11AddChatLineEPKcz
	.loc 2 615 0
	lwz 0,12(1)
	addi 1,1,8
.LCFI76:
	.cfi_def_cfa_offset 0
	mtlr 0
	blr
	.cfi_endproc
.LFE2830:
	.size	_ZL17Cmd_AddChatLine_fRK9idCmdArgs, .-_ZL17Cmd_AddChatLine_fRK9idCmdArgs
	.align 2
	.type	_ZL7Cmd_SaybRK9idCmdArgs, @function
_ZL7Cmd_SaybRK9idCmdArgs:
.LFB2827:
	.loc 2 539 0
	.cfi_startproc
	.cfi_personality 0,__gxx_personality_v0
	.cfi_lsda 0,.LLSDA2827
.LVL165:
	mflr 0
	mfcr 12
.LBB2058:
	.loc 2 542 0
	cmpwi 4,3,0
.LBE2058:
	.loc 2 539 0
	stwu 1,-352(1)
.LCFI77:
	.cfi_def_cfa_offset 352
	.cfi_register 70, 12
	.cfi_register 65, 0
.LVL166:
.LBB2097:
.LBB2059:
.LBB2060:
.LBB2061:
	.file 10 "d:/Data/Nintendo/DoomGX/src/game/gamesys/../../idlib/../idlib/Str.h"
	.loc 10 357 0
	li 9,20
.LBE2061:
.LBE2060:
.LBE2059:
.LBE2097:
	.loc 2 539 0
	stw 0,356(1)
.LBB2098:
.LBB2066:
.LBB2064:
.LBB2062:
	.loc 10 356 0
	li 0,0
	.cfi_offset 65, 4
	.loc 10 357 0
	stw 9,48(1)
	.loc 10 358 0
	addi 9,1,52
.LBE2062:
.LBE2064:
.LBE2066:
.LBE2098:
	.loc 2 539 0
	stw 28,336(1)
.LBB2099:
	.loc 2 542 0
	mr 28,3
	.cfi_offset 28, -16
.LBE2099:
	.loc 2 539 0
	stw 29,340(1)
	stw 30,344(1)
	stw 31,348(1)
	stw 12,332(1)
.LBB2100:
.LBB2067:
.LBB2065:
.LBB2063:
	.loc 10 356 0
	stw 0,40(1)
	.loc 10 358 0
	stw 9,44(1)
	.loc 10 359 0
	stb 0,52(1)
.LBE2063:
.LBE2065:
.LBE2067:
	.loc 2 542 0
	beq- 4,.L121
	.cfi_offset 70, -20
	.cfi_offset 31, -4
	.cfi_offset 30, -8
	.cfi_offset 29, -12
	.loc 2 544 0
	lis 29,gameLocal@ha
	.loc 2 542 0
	lis 5,.LC24@ha
	.loc 2 544 0
	la 29,gameLocal@l(29)
	.loc 2 542 0
	la 5,.LC24@l(5)
.LVL167:
	.loc 2 544 0
	addis 30,29,0x25
	lbz 0,2016(30)
	cmpwi 7,0,0
	beq- 7,.L131
.L105:
	.loc 2 549 0
	lwz 0,0(4)
	cmpwi 7,0,1
	ble- 7,.L132
	.loc 2 554 0
	mr 3,4
.LVL168:
	li 5,-1
.LVL169:
	li 4,1
.LVL170:
	li 6,0
	addi 31,1,40
.LEHB0:
	bl _ZNK9idCmdArgs4ArgsEiib
.LVL171:
	addi 31,1,40
	mr 4,3
	mr 3,31
	bl _ZN5idStraSEPKc
.LEHE0:
	.loc 2 555 0
	lwz 9,40(1)
	cmpwi 7,9,0
	bne- 7,.L133
.LVL172:
.LBB2068:
.LBB2069:
.LBB2070:
	.loc 10 501 0
	mr 3,31
.LEHB1:
	bl _ZN5idStr8FreeDataEv
.LEHE1:
.LBE2070:
.LBE2069:
.LBE2068:
.LBE2100:
	.loc 2 588 0
	lwz 0,356(1)
	lwz 12,332(1)
	mtlr 0
	lwz 28,336(1)
	lwz 29,340(1)
	mtcrf 8,12
	lwz 30,344(1)
	lwz 31,348(1)
	addi 1,1,352
	.cfi_remember_state
.LCFI78:
	.cfi_def_cfa_offset 0
	.cfi_restore 70
	.cfi_restore 31
	.cfi_restore 30
	.cfi_restore 29
	.cfi_restore 28
	blr
.LVL173:
.L121:
.LCFI79:
	.cfi_restore_state
.LBB2101:
	.loc 2 544 0
	lis 29,gameLocal@ha
	.loc 2 542 0
	lis 5,.LC25@ha
	.loc 2 544 0
	la 29,gameLocal@l(29)
	.loc 2 542 0
	la 5,.LC25@l(5)
.LVL174:
	.loc 2 544 0
	addis 30,29,0x25
	lbz 0,2016(30)
	cmpwi 7,0,0
	bne+ 7,.L105
.L131:
	.loc 2 545 0
	lis 4,.LC28@ha
.LVL175:
	mr 3,29
.LVL176:
	la 4,.LC28@l(4)
	addi 31,1,40
.LEHB2:
	crxor 6,6,6
	bl _ZNK11idGameLocal6PrintfEPKcz
.LEHE2:
.LVL177:
	addi 31,1,40
.L136:
.LVL178:
.LBB2077:
.LBB2074:
.LBB2071:
	.loc 10 501 0
	mr 3,31
.LEHB3:
	bl _ZN5idStr8FreeDataEv
.LEHE3:
.LBE2071:
.LBE2074:
.LBE2077:
.LBE2101:
	.loc 2 588 0
	lwz 0,356(1)
	lwz 12,332(1)
	mtlr 0
	lwz 28,336(1)
	lwz 29,340(1)
	mtcrf 8,12
	lwz 30,344(1)
	lwz 31,348(1)
	addi 1,1,352
	.cfi_remember_state
	.cfi_restore 28
	.cfi_restore 29
	.cfi_restore 30
	.cfi_restore 31
	.cfi_restore 70
.LCFI80:
	.cfi_def_cfa_offset 0
	blr
.LVL179:
.L133:
.LCFI81:
	.cfi_restore_state
.LBB2102:
.LBB2078:
.LBB2079:
	.loc 10 527 0
	lwz 11,4(31)
.LBE2079:
.LBE2078:
	.loc 2 559 0
	addi 9,9,-1
.LVL180:
	lbzx 0,11,9
	cmpwi 7,0,10
	beq- 7,.L134
.L108:
.LVL181:
	.loc 2 568 0
	lbz 0,2018(30)
	cmpwi 7,0,0
	beq- 7,.L135
.LVL182:
.L109:
	.loc 2 569 0 discriminator 4
	lwz 9,2020(30)
	cmpwi 7,9,0
	blt- 7,.L124
	.loc 2 569 0 is_stmt 0 discriminator 1
	addi 0,9,132
	slwi 0,0,2
	add 29,29,0
	lwz 3,4(29)
.LVL183:
	.loc 2 570 0 is_stmt 1 discriminator 1
	cmpwi 7,3,0
	beq- 7,.L124
.LEHB4:
	.loc 2 571 0
	bl _ZN8idPlayer11GetUserInfoEv
.LVL184:
.LBB2080:
.LBB2081:
	.file 11 "d:/Data/Nintendo/DoomGX/src/game/gamesys/../../idlib/../idlib/Dict.h"
	.loc 11 241 0
	lis 4,.LC31@ha
	la 4,.LC31@l(4)
	bl _ZNK6idDict7FindKeyEPKc
.LVL185:
	.loc 11 242 0
	cmpwi 0,3,0
	beq- 0,.L124
.LVL186:
.LBB2082:
	.loc 2 2405 0
	lwz 9,4(3)
	lwz 29,4(9)
.LVL187:
.L110:
.LBE2082:
.LBE2081:
.LBE2080:
.LBB2083:
	.loc 2 577 0
	lbz 0,2018(30)
	cmpwi 7,0,0
	beq- 7,.L112
.LBB2084:
	.loc 2 578 0
	addi 3,1,8
	bl _ZN8idBitMsgC1Ev
.LEHE4:
.LVL188:
.LBB2085:
.LBB2086:
	.file 12 "d:/Data/Nintendo/DoomGX/src/game/gamesys/../../idlib/../idlib/BitMsg.h"
	.loc 12 156 0
	addi 0,1,72
	stw 0,8(1)
	.loc 12 157 0
	stw 0,12(1)
	.loc 12 158 0
	li 0,256
	stw 0,16(1)
.LBE2086:
.LBE2085:
	.loc 2 581 0
	beq- 4,.L126
	li 4,5
.L113:
.LVL189:
.LBB2087:
.LBB2088:
	.loc 12 284 0 discriminator 3
	addi 3,1,8
.LVL190:
	li 5,8
.LEHB5:
	bl _ZN8idBitMsg9WriteBitsEii
.LVL191:
.LBE2088:
.LBE2087:
	.loc 2 582 0
	addi 3,1,8
.LVL192:
	mr 4,29
	li 5,-1
	li 6,1
	bl _ZN8idBitMsg11WriteStringEPKcib
.LVL193:
	.loc 2 583 0
	lwz 4,4(31)
	addi 3,1,8
.LVL194:
	li 5,-1
	li 6,0
	bl _ZN8idBitMsg11WriteStringEPKcib
.LVL195:
	.loc 2 584 0
	lis 9,networkSystem@ha
	addi 4,1,8
.LVL196:
	lwz 3,networkSystem@l(9)
	lwz 9,0(3)
	lwz 0,44(9)
	mtctr 0
	bctrl
.LEHE5:
.LVL197:
.LBE2084:
.LBE2083:
.LBB2090:
.LBB2075:
.LBB2072:
	.loc 10 501 0
	mr 3,31
.LEHB6:
	bl _ZN5idStr8FreeDataEv
.LEHE6:
.LBE2072:
.LBE2075:
.LBE2090:
.LBE2102:
	.loc 2 588 0
	lwz 0,356(1)
	lwz 12,332(1)
	mtlr 0
	lwz 28,336(1)
	lwz 29,340(1)
.LVL198:
	mtcrf 8,12
	lwz 30,344(1)
	lwz 31,348(1)
	addi 1,1,352
	.cfi_remember_state
	.cfi_restore 28
	.cfi_restore 29
	.cfi_restore 30
	.cfi_restore 31
	.cfi_restore 70
.LCFI82:
	.cfi_def_cfa_offset 0
	blr
.LVL199:
.L135:
.LCFI83:
	.cfi_restore_state
.LBB2103:
	.loc 2 568 0 discriminator 2
	lis 9,cvarSystem@ha
.LVL200:
	lis 4,.LC30@ha
	lwz 3,cvarSystem@l(9)
	la 4,.LC30@l(4)
	lwz 9,0(3)
	lwz 0,52(9)
	mtctr 0
.LEHB7:
	bctrl
.LVL201:
	cmpwi 7,3,0
	beq- 7,.L109
	.loc 2 574 0
	lis 29,.LC27@ha
	la 29,.LC27@l(29)
	b .L110
.LVL202:
.L134:
	.loc 2 560 0
	li 0,0
	stbx 0,11,9
	b .L108
.LVL203:
.L132:
	.loc 2 550 0
	lis 4,.LC29@ha
.LVL204:
	mr 3,29
.LVL205:
	la 4,.LC29@l(4)
	addi 31,1,40
	crxor 6,6,6
	bl _ZNK11idGameLocal6PrintfEPKcz
.LVL206:
	addi 31,1,40
	b .L136
.LVL207:
.L112:
.LBB2091:
	.loc 2 586 0
	lwz 4,2020(30)
	addi 3,30,1416
	lwz 7,4(31)
	mr 5,28
	mr 6,29
	li 8,0
	bl _ZN17idMultiplayerGame18ProcessChatMessageEibPKcS1_S1_
.LEHE7:
.LVL208:
.LBE2091:
.LBB2092:
.LBB2076:
.LBB2073:
	.loc 10 501 0
	mr 3,31
.LEHB8:
	bl _ZN5idStr8FreeDataEv
.LEHE8:
.LBE2073:
.LBE2076:
.LBE2092:
.LBE2103:
	.loc 2 588 0
	lwz 0,356(1)
	lwz 12,332(1)
	mtlr 0
	lwz 28,336(1)
	lwz 29,340(1)
.LVL209:
	mtcrf 8,12
	lwz 30,344(1)
	lwz 31,348(1)
	addi 1,1,352
	.cfi_remember_state
	.cfi_restore 28
	.cfi_restore 29
	.cfi_restore 30
	.cfi_restore 31
	.cfi_restore 70
.LCFI84:
	.cfi_def_cfa_offset 0
	blr
.LVL210:
.L126:
.LCFI85:
	.cfi_restore_state
.LBB2104:
.LBB2093:
.LBB2089:
	.loc 2 581 0
	li 4,4
	b .L113
.LVL211:
.L124:
.LBE2089:
.LBE2093:
	.loc 2 562 0
	lis 29,.LC26@ha
	la 29,.LC26@l(29)
	b .L110
.LVL212:
.L128:
.L130:
	mr 30,3
.LVL213:
.LBB2094:
.LBB2095:
.LBB2096:
	.loc 10 501 0
	mr 3,31
	bl _ZN5idStr8FreeDataEv
	mr 3,30
.LEHB9:
	bl _Unwind_Resume
.LEHE9:
.LVL214:
.L127:
	b .L130
.LBE2096:
.LBE2095:
.LBE2094:
.LBE2104:
	.cfi_endproc
.LFE2827:
	.globl __gxx_personality_v0
	.section	.gcc_except_table,"a",@progbits
.LLSDA2827:
	.byte	0xff
	.byte	0xff
	.byte	0x1
	.uleb128 .LLSDACSE2827-.LLSDACSB2827
.LLSDACSB2827:
	.uleb128 .LEHB0-.LFB2827
	.uleb128 .LEHE0-.LEHB0
	.uleb128 .L127-.LFB2827
	.uleb128 0
	.uleb128 .LEHB1-.LFB2827
	.uleb128 .LEHE1-.LEHB1
	.uleb128 0
	.uleb128 0
	.uleb128 .LEHB2-.LFB2827
	.uleb128 .LEHE2-.LEHB2
	.uleb128 .L127-.LFB2827
	.uleb128 0
	.uleb128 .LEHB3-.LFB2827
	.uleb128 .LEHE3-.LEHB3
	.uleb128 0
	.uleb128 0
	.uleb128 .LEHB4-.LFB2827
	.uleb128 .LEHE4-.LEHB4
	.uleb128 .L127-.LFB2827
	.uleb128 0
	.uleb128 .LEHB5-.LFB2827
	.uleb128 .LEHE5-.LEHB5
	.uleb128 .L128-.LFB2827
	.uleb128 0
	.uleb128 .LEHB6-.LFB2827
	.uleb128 .LEHE6-.LEHB6
	.uleb128 0
	.uleb128 0
	.uleb128 .LEHB7-.LFB2827
	.uleb128 .LEHE7-.LEHB7
	.uleb128 .L127-.LFB2827
	.uleb128 0
	.uleb128 .LEHB8-.LFB2827
	.uleb128 .LEHE8-.LEHB8
	.uleb128 0
	.uleb128 0
	.uleb128 .LEHB9-.LFB2827
	.uleb128 .LEHE9-.LEHB9
	.uleb128 0
	.uleb128 0
.LLSDACSE2827:
	.section	".text"
	.size	_ZL7Cmd_SaybRK9idCmdArgs, .-_ZL7Cmd_SaybRK9idCmdArgs
	.align 2
	.type	_ZL13Cmd_SayTeam_fRK9idCmdArgs, @function
_ZL13Cmd_SayTeam_fRK9idCmdArgs:
.LFB2829:
	.loc 2 604 0
	.cfi_startproc
.LVL215:
	.loc 2 604 0
	mr 4,3
	.loc 2 605 0
	li 3,1
.LVL216:
	.loc 2 606 0
	.loc 2 605 0
	b _ZL7Cmd_SaybRK9idCmdArgs
.LVL217:
	.cfi_endproc
.LFE2829:
	.size	_ZL13Cmd_SayTeam_fRK9idCmdArgs, .-_ZL13Cmd_SayTeam_fRK9idCmdArgs
	.align 2
	.type	_ZL9Cmd_Say_fRK9idCmdArgs, @function
_ZL9Cmd_Say_fRK9idCmdArgs:
.LFB2828:
	.loc 2 595 0
	.cfi_startproc
.LVL218:
	.loc 2 595 0
	mr 4,3
	.loc 2 596 0
	li 3,0
.LVL219:
	.loc 2 597 0
	.loc 2 596 0
	b _ZL7Cmd_SaybRK9idCmdArgs
.LVL220:
	.cfi_endproc
.LFE2828:
	.size	_ZL9Cmd_Say_fRK9idCmdArgs, .-_ZL9Cmd_Say_fRK9idCmdArgs
	.align 2
	.globl _Z17Cmd_ClearLights_fRK9idCmdArgs
	.type	_Z17Cmd_ClearLights_fRK9idCmdArgs, @function
_Z17Cmd_ClearLights_fRK9idCmdArgs:
.LFB2842:
	.loc 2 1019 0
	.cfi_startproc
.LVL221:
	stwu 1,-32(1)
.LCFI86:
	.cfi_def_cfa_offset 32
	mflr 0
	mfcr 12
	stw 31,28(1)
.LBB2105:
	.loc 2 1024 0
	lis 31,gameLocal@ha
	.cfi_offset 31, -4
	.cfi_register 70, 12
	.cfi_register 65, 0
	la 31,gameLocal@l(31)
.LBE2105:
	.loc 2 1019 0
	stw 30,24(1)
	mr 30,3
	.cfi_offset 30, -8
.LBB2119:
	.loc 2 1024 0
	mr 3,31
.LVL222:
.LBE2119:
	.loc 2 1019 0
	stw 0,36(1)
	stw 28,16(1)
	stw 12,12(1)
	stw 29,20(1)
.LBB2120:
	.loc 2 1024 0
	.cfi_offset 29, -12
	.cfi_offset 70, -20
	.cfi_offset 28, -16
	.cfi_offset 65, 4
	bl _ZN11idGameLocal11GetLevelMapEv
	.loc 2 1028 0
	lis 4,.LC32@ha
	.loc 2 1024 0
	mr 28,3
.LVL223:
	.loc 2 1028 0
	la 4,.LC32@l(4)
	mr 3,31
.LVL224:
	.loc 2 1029 0
	addis 31,31,0x1
	.loc 2 2405 0
	lwz 30,0(30)
.LVL225:
	.loc 2 1028 0
	crxor 6,6,6
	bl _ZNK11idGameLocal6PrintfEPKcz
	.loc 2 1029 0
	lwz 9,-32192(31)
	lwz 0,-32196(31)
.LBB2106:
.LBB2107:
	.file 13 "d:/Data/Nintendo/DoomGX/src/game/gamesys/../../idlib/../idlib/containers/LinkList.h"
	.loc 13 268 0
	cmpwi 7,9,0
	beq- 7,.L139
	cmpw 7,0,9
	beq- 7,.L139
	.loc 13 271 0
	lwz 31,12(9)
.LVL226:
.LBE2107:
.LBE2106:
	.loc 2 1029 0
	cmpwi 7,31,0
	beq- 7,.L139
	lis 29,_ZN7idLight4TypeE@ha
	.loc 2 1038 0
	cmpwi 4,30,1
	la 29,_ZN7idLight4TypeE@l(29)
	b .L144
.LVL227:
.L147:
	.loc 2 1029 0
	mr 31,30
.LVL228:
.L144:
	.loc 2 2405 0
	lwz 9,16(31)
.LBB2108:
.LBB2109:
	.loc 13 269 0
	li 30,0
.LBE2109:
.LBE2108:
	.loc 2 2405 0
	lwz 0,12(31)
.LBB2111:
.LBB2110:
	.loc 13 268 0
	cmpwi 7,9,0
	beq- 7,.L141
	cmpw 7,0,9
	beq- 7,.L141
	.loc 13 271 0
	lwz 30,12(9)
.L141:
.LVL229:
.LBE2110:
.LBE2111:
.LBB2112:
.LBB2113:
	.file 14 "d:/Data/Nintendo/DoomGX/src/game/gamesys/../gamesys/Class.h"
	.loc 14 340 0
	lwz 9,0(31)
	mr 3,31
	lwz 0,0(9)
	mtctr 0
	bctrl
.LVL230:
.LBB2114:
.LBB2115:
	.loc 14 311 0
	lwz 9,56(29)
.LBE2115:
.LBE2114:
.LBE2113:
	.loc 2 2405 0
	lwz 0,56(3)
.LBB2118:
.LBB2117:
.LBB2116:
	.loc 14 311 0
	cmpw 7,0,9
	blt- 7,.L142
	lwz 9,60(29)
	cmpw 7,0,9
	bgt- 7,.L142
.LVL231:
.LBE2116:
.LBE2117:
.LBE2118:
.LBE2112:
	.loc 2 1036 0
	lwz 4,72(31)
	mr 3,28
.LVL232:
	bl _ZN9idMapFile10FindEntityEPKc
	mr 4,3
.LVL233:
	.loc 2 1038 0
	ble- 4,.L143
	.loc 2 1038 0 is_stmt 0 discriminator 1
	cmpwi 7,3,0
	beq- 7,.L143
	.loc 2 1039 0 is_stmt 1
	mr 3,28
.LVL234:
	bl _ZN9idMapFile12RemoveEntityEP11idMapEntity
.LVL235:
.L143:
	.loc 2 1042 0
	lwz 9,0(31)
	mr 3,31
	lwz 0,8(9)
	mtctr 0
	bctrl
.LVL236:
.L142:
	.loc 2 1029 0 discriminator 1
	cmpwi 7,30,0
	bne+ 7,.L147
.LVL237:
.L139:
.LBE2120:
	.loc 2 1044 0
	lwz 0,36(1)
	lwz 12,12(1)
	mtlr 0
	lwz 28,16(1)
.LVL238:
	lwz 29,20(1)
	mtcrf 8,12
	lwz 30,24(1)
	lwz 31,28(1)
	addi 1,1,32
.LCFI87:
	.cfi_def_cfa_offset 0
	.cfi_restore 70
	.cfi_restore 31
	.cfi_restore 30
	.cfi_restore 29
	.cfi_restore 28
	blr
	.cfi_endproc
.LFE2842:
	.size	_Z17Cmd_ClearLights_fRK9idCmdArgs, .-_Z17Cmd_ClearLights_fRK9idCmdArgs
	.align 2
	.globl _Z14Cmd_PopLight_fRK9idCmdArgs
	.type	_Z14Cmd_PopLight_fRK9idCmdArgs, @function
_Z14Cmd_PopLight_fRK9idCmdArgs:
.LFB2841:
	.loc 2 973 0
	.cfi_startproc
.LVL239:
	stwu 1,-40(1)
.LCFI88:
	.cfi_def_cfa_offset 40
	mflr 0
	stw 31,36(1)
.LBB2121:
	.loc 2 976 0
	lis 31,gameLocal@ha
	.cfi_offset 31, -4
	.cfi_register 65, 0
	la 31,gameLocal@l(31)
.LBE2121:
	.loc 2 973 0
	stw 30,32(1)
	mr 30,3
	.cfi_offset 30, -8
.LBB2133:
	.loc 2 976 0
	mr 3,31
.LVL240:
.LBE2133:
	.loc 2 973 0
	stw 0,44(1)
	stw 29,28(1)
	stw 25,12(1)
	stw 26,16(1)
	stw 27,20(1)
	stw 28,24(1)
.LBB2134:
	.loc 2 976 0
	.cfi_offset 28, -16
	.cfi_offset 27, -20
	.cfi_offset 26, -24
	.cfi_offset 25, -28
	.cfi_offset 29, -12
	.cfi_offset 65, 4
	bl _ZN11idGameLocal11GetLevelMapEv
	mr 29,3
.LVL241:
	.loc 2 980 0
	li 4,1
	mr 3,31
.LVL242:
	bl _ZN11idGameLocal8CheatsOkEb
	cmpwi 7,3,0
	beq- 7,.L148
	.loc 2 988 0
	addis 11,31,0x1
	.loc 2 2405 0
	lwz 28,0(30)
.LVL243:
	.loc 2 988 0
	lwz 9,-32192(11)
	lwz 0,-32196(11)
.LBB2122:
.LBB2123:
	.loc 13 268 0
	cmpwi 7,9,0
	beq- 7,.L150
	cmpw 7,0,9
	beq- 7,.L150
	.loc 13 271 0
	lwz 27,12(9)
.LVL244:
.LBE2123:
.LBE2122:
	.loc 2 988 0
	cmpwi 7,27,0
	beq- 7,.L150
	lis 26,_ZN7idLight4TypeE@ha
	li 25,-1
	li 30,0
.LVL245:
	la 26,_ZN7idLight4TypeE@l(26)
.LVL246:
.L153:
.LBB2124:
.LBB2125:
	.loc 14 340 0
	lwz 9,0(27)
	mr 3,27
	lwz 0,0(9)
	mtctr 0
	bctrl
.LVL247:
.LBB2126:
.LBB2127:
	.loc 14 311 0
	lwz 9,56(26)
.LBE2127:
.LBE2126:
.LBE2125:
	.loc 2 2405 0
	lwz 0,56(3)
.LBB2130:
.LBB2129:
.LBB2128:
	.loc 14 311 0
	cmpw 7,0,9
	blt- 7,.L151
.LVL248:
	lwz 9,60(26)
	cmpw 7,0,9
	bgt- 7,.L151
.LBE2128:
.LBE2129:
.LBE2130:
.LBE2124:
	.loc 2 993 0
	lwz 9,4(27)
	addi 9,9,4228
	slwi 9,9,2
	add 9,31,9
	lwz 0,4(9)
	cmpw 7,0,25
	ble- 7,.L151
	mr 30,27
	mr 25,0
.LVL249:
.L151:
	.loc 2 2405 0
	lwz 9,16(27)
	lwz 0,12(27)
.LBB2131:
.LBB2132:
	.loc 13 268 0
	cmpwi 7,9,0
	cmpw 6,0,9
	beq- 7,.L152
	beq- 6,.L152
	.loc 13 271 0
	lwz 27,12(9)
.LVL250:
.LBE2132:
.LBE2131:
	.loc 2 988 0
	cmpwi 7,27,0
	bne+ 7,.L153
.LVL251:
.L152:
	.loc 2 999 0
	cmpwi 7,30,0
	beq- 7,.L150
.LVL252:
	.loc 2 1001 0
	lwz 4,72(30)
	mr 3,29
.LVL253:
	bl _ZN9idMapFile10FindEntityEPKc
	.loc 2 1003 0
	cmpwi 7,28,1
	.loc 2 1001 0
	mr 4,3
.LVL254:
	.loc 2 1003 0
	ble- 7,.L154
	.loc 2 1003 0 is_stmt 0 discriminator 1
	cmpwi 7,3,0
	beq- 7,.L154
	.loc 2 1004 0 is_stmt 1
	mr 3,29
.LVL255:
	bl _ZN9idMapFile12RemoveEntityEP11idMapEntity
.LVL256:
.L154:
	.loc 2 1006 0
	lwz 5,892(30)
	lis 4,.LC33@ha
	mr 3,31
	la 4,.LC33@l(4)
	crxor 6,6,6
	bl _ZNK11idGameLocal6PrintfEPKcz
	.loc 2 1007 0
	lwz 9,0(30)
	mr 3,30
	lwz 0,8(9)
	mtctr 0
	bctrl
.LVL257:
.L148:
.LBE2134:
	.loc 2 1012 0
	lwz 0,44(1)
	lwz 25,12(1)
	mtlr 0
	lwz 26,16(1)
	lwz 27,20(1)
	lwz 28,24(1)
	lwz 29,28(1)
.LVL258:
	lwz 30,32(1)
	lwz 31,36(1)
	addi 1,1,40
	.cfi_remember_state
.LCFI89:
	.cfi_def_cfa_offset 0
	.cfi_restore 31
	.cfi_restore 30
	.cfi_restore 29
	.cfi_restore 28
	.cfi_restore 27
	.cfi_restore 26
	.cfi_restore 25
	blr
.LVL259:
.L150:
.LCFI90:
	.cfi_restore_state
.LBB2135:
	.loc 2 1009 0
	lis 4,.LC34@ha
	mr 3,31
	la 4,.LC34@l(4)
	crxor 6,6,6
	bl _ZNK11idGameLocal6PrintfEPKcz
	b .L148
.LBE2135:
	.cfi_endproc
.LFE2841:
	.size	_Z14Cmd_PopLight_fRK9idCmdArgs, .-_Z14Cmd_PopLight_fRK9idCmdArgs
	.align 2
	.globl _Z13Cmd_Trigger_fRK9idCmdArgs
	.type	_Z13Cmd_Trigger_fRK9idCmdArgs, @function
_Z13Cmd_Trigger_fRK9idCmdArgs:
.LFB2835:
	.loc 2 741 0
	.cfi_startproc
.LVL260:
	stwu 1,-32(1)
.LCFI91:
	.cfi_def_cfa_offset 32
	mflr 0
	stw 29,20(1)
.LBB2136:
	.loc 2 747 0
	lis 29,gameLocal@ha
	.cfi_offset 29, -12
	.cfi_register 65, 0
	la 29,gameLocal@l(29)
.LBE2136:
	.loc 2 741 0
	stw 30,24(1)
	mr 30,3
	.cfi_offset 30, -8
.LBB2137:
	.loc 2 747 0
	mr 3,29
.LVL261:
.LBE2137:
	.loc 2 741 0
	stw 31,28(1)
	stw 0,36(1)
.LBB2138:
	.loc 2 747 0
	.cfi_offset 65, 4
	.cfi_offset 31, -4
	bl _ZNK11idGameLocal14GetLocalPlayerEv
.LVL262:
	.loc 2 748 0
	mr. 31,3
	beq- 0,.L156
	.loc 2 748 0 is_stmt 0 discriminator 2
	mr 3,29
.LVL263:
	li 4,1
	bl _ZN11idGameLocal8CheatsOkEb
	cmpwi 7,3,0
	beq- 7,.L156
	.loc 2 752 0 is_stmt 1
	lwz 0,0(30)
	cmpwi 7,0,2
	bne- 7,.L164
.LVL264:
	.loc 2 757 0
	lwz 4,8(30)
	mr 3,29
	bl _ZNK11idGameLocal10FindEntityEPKc
.LVL265:
	.loc 2 758 0
	mr. 30,3
.LVL266:
	beq- 0,.L165
	.loc 2 763 0
	li 4,2
	bl _ZN8idEntity6SignalE11signalNum_t
.LVL267:
	.loc 2 764 0
	lis 4,EV_Activate@ha
	li 0,101
	mr 3,30
	la 4,EV_Activate@l(4)
	addi 5,1,8
	stw 0,8(1)
	stw 31,12(1)
	bl _ZN7idClass12ProcessEventEPK10idEventDef10idEventArg
	.loc 2 765 0
	mr 3,30
	bl _ZN8idEntity11TriggerGuisEv
.LVL268:
.L156:
.LBE2138:
	.loc 2 766 0
	lwz 0,36(1)
	lwz 29,20(1)
	mtlr 0
	lwz 30,24(1)
	lwz 31,28(1)
.LVL269:
	addi 1,1,32
	.cfi_remember_state
.LCFI92:
	.cfi_def_cfa_offset 0
	.cfi_restore 31
	.cfi_restore 30
	.cfi_restore 29
	blr
.LVL270:
.L164:
.LCFI93:
	.cfi_restore_state
.LBB2139:
	.loc 2 753 0
	lis 4,.LC35@ha
	mr 3,29
	la 4,.LC35@l(4)
	crxor 6,6,6
	bl _ZNK11idGameLocal6PrintfEPKcz
.LBE2139:
	.loc 2 766 0
	lwz 0,36(1)
	lwz 29,20(1)
	mtlr 0
	lwz 30,24(1)
.LVL271:
	lwz 31,28(1)
.LVL272:
	addi 1,1,32
	.cfi_remember_state
	.cfi_restore 29
	.cfi_restore 30
	.cfi_restore 31
.LCFI94:
	.cfi_def_cfa_offset 0
	blr
.LVL273:
.L165:
.LCFI95:
	.cfi_restore_state
.LBB2140:
	.loc 2 759 0
	lis 4,.LC36@ha
	mr 3,29
.LVL274:
	la 4,.LC36@l(4)
	crxor 6,6,6
	bl _ZNK11idGameLocal6PrintfEPKcz
	.loc 2 760 0
	b .L156
.LBE2140:
	.cfi_endproc
.LFE2835:
	.size	_Z13Cmd_Trigger_fRK9idCmdArgs, .-_Z13Cmd_Trigger_fRK9idCmdArgs
	.align 2
	.globl _Z16Cmd_GetViewpos_fRK9idCmdArgs
	.type	_Z16Cmd_GetViewpos_fRK9idCmdArgs, @function
_Z16Cmd_GetViewpos_fRK9idCmdArgs:
.LFB2832:
	.loc 2 649 0
	.cfi_startproc
.LVL275:
	stwu 1,-72(1)
.LCFI96:
	.cfi_def_cfa_offset 72
	mflr 0
	stw 31,68(1)
.LBB2141:
	.loc 2 654 0
	lis 31,gameLocal@ha
	.cfi_offset 31, -4
	.cfi_register 65, 0
	la 31,gameLocal@l(31)
.LBE2141:
	.loc 2 649 0
	stw 30,64(1)
.LBB2142:
	.loc 2 654 0
	mr 3,31
.LVL276:
.LBE2142:
	.loc 2 649 0
	stw 0,76(1)
	stw 29,60(1)
.LBB2143:
	.loc 2 654 0
	.cfi_offset 29, -12
	.cfi_offset 65, 4
	.cfi_offset 30, -8
	bl _ZNK11idGameLocal14GetLocalPlayerEv
.LVL277:
	.loc 2 655 0
	mr. 30,3
	beq- 0,.L166
	.loc 2 659 0
	lwz 9,0(30)
	lwz 0,16(9)
	mtctr 0
	bctrl
.LVL278:
	.loc 2 660 0
	mr. 29,3
	beq- 0,.L168
	.loc 2 661 0
	li 4,2
	addi 3,29,28
.LVL279:
	bl _ZNK6idVec38ToStringEi
	mr 30,3
.LVL280:
	addi 3,29,40
.LVL281:
.L169:
	.loc 2 664 0
	bl _ZNK6idVec35ToYawEv
	lis 4,.LC37@ha
	mr 3,31
	la 4,.LC37@l(4)
	mr 5,30
	creqv 6,6,6
	bl _ZNK11idGameLocal6PrintfEPKcz
.LVL282:
.L166:
.LBE2143:
	.loc 2 666 0
	lwz 0,76(1)
	lwz 29,60(1)
	mtlr 0
	lwz 30,64(1)
	lwz 31,68(1)
	addi 1,1,72
	.cfi_remember_state
.LCFI97:
	.cfi_def_cfa_offset 0
	.cfi_restore 31
	.cfi_restore 30
	.cfi_restore 29
	blr
.LVL283:
.L168:
.LCFI98:
	.cfi_restore_state
.LBB2144:
	.loc 2 663 0
	lwz 9,0(30)
	mr 3,30
.LVL284:
	addi 5,1,20
	addi 4,1,8
	lwz 0,256(9)
	mtctr 0
	bctrl
	.loc 2 664 0
	addi 3,1,8
	li 4,2
	bl _ZNK6idVec38ToStringEi
	mr 30,3
.LVL285:
	addi 3,1,20
.LVL286:
	b .L169
.LBE2144:
	.cfi_endproc
.LFE2832:
	.size	_Z16Cmd_GetViewpos_fRK9idCmdArgs, .-_Z16Cmd_GetViewpos_fRK9idCmdArgs
	.align 2
	.globl _Z14Cmd_Teleport_fRK9idCmdArgs
	.type	_Z14Cmd_Teleport_fRK9idCmdArgs, @function
_Z14Cmd_Teleport_fRK9idCmdArgs:
.LFB2834:
	.loc 2 707 0
	.cfi_startproc
.LVL287:
	stwu 1,-56(1)
.LCFI99:
	.cfi_def_cfa_offset 56
	mflr 0
	stw 30,48(1)
.LBB2145:
	.loc 2 713 0
	lis 30,gameLocal@ha
	.cfi_offset 30, -8
	.cfi_register 65, 0
	la 30,gameLocal@l(30)
.LBE2145:
	.loc 2 707 0
	stw 31,52(1)
	mr 31,3
	.cfi_offset 31, -4
.LBB2156:
	.loc 2 713 0
	mr 3,30
.LVL288:
.LBE2156:
	.loc 2 707 0
	stw 29,44(1)
	stw 0,60(1)
.LBB2157:
	.loc 2 713 0
	.cfi_offset 65, 4
	.cfi_offset 29, -12
	bl _ZNK11idGameLocal14GetLocalPlayerEv
.LVL289:
	.loc 2 714 0
	mr. 29,3
	beq- 0,.L170
	.loc 2 714 0 is_stmt 0 discriminator 2
	mr 3,30
.LVL290:
	li 4,1
	bl _ZN11idGameLocal8CheatsOkEb
	cmpwi 7,3,0
	beq- 7,.L170
	.loc 2 718 0 is_stmt 1
	lwz 0,0(31)
	cmpwi 7,0,2
	bne- 7,.L178
.LVL291:
	.loc 2 723 0
	lwz 4,8(31)
	mr 3,30
	bl _ZNK11idGameLocal10FindEntityEPKc
.LVL292:
	.loc 2 724 0
	mr. 31,3
.LVL293:
	beq- 0,.L179
.LVL294:
.LBB2146:
.LBB2147:
	.loc 5 127 0
	li 0,0
	stw 0,16(1)
	stw 0,12(1)
	stw 0,8(1)
.LBE2147:
.LBE2146:
	.loc 2 730 0
	bl _ZNK8idEntity10GetPhysicsEv
.LVL295:
	lwz 9,0(3)
	li 4,0
	lwz 0,136(9)
	mtctr 0
	bctrl
.LVL296:
	bl _ZNK6idVec35ToYawEv
	.loc 2 731 0
	mr 3,31
	.loc 2 730 0
	stfs 1,12(1)
	.loc 2 731 0
	bl _ZNK8idEntity10GetPhysicsEv
	lwz 9,0(3)
	li 4,0
	lwz 0,132(9)
	mtctr 0
	bctrl
.LVL297:
	.loc 2 733 0
	addi 4,1,20
.LBB2148:
.LBB2149:
	.loc 8 424 0
	lwz 11,0(3)
.LBE2149:
.LBE2148:
	.loc 2 733 0
	addi 5,1,8
.LBB2153:
.LBB2150:
	.loc 8 425 0
	lwz 9,4(3)
.LBE2150:
.LBE2153:
	.loc 2 733 0
	mr 6,31
.LBB2154:
.LBB2151:
	.loc 8 426 0
	lwz 0,8(3)
.LBE2151:
.LBE2154:
	.loc 2 733 0
	mr 3,29
.LVL298:
.LBB2155:
.LBB2152:
	.loc 8 424 0
	stw 11,20(1)
	.loc 8 426 0
	stw 0,28(1)
	.loc 8 425 0
	stw 9,24(1)
.LBE2152:
.LBE2155:
	.loc 2 733 0
	lwz 9,0(29)
	lwz 0,200(9)
	mtctr 0
	bctrl
.LVL299:
.L170:
.LBE2157:
	.loc 2 734 0
	lwz 0,60(1)
	lwz 29,44(1)
.LVL300:
	mtlr 0
	lwz 30,48(1)
	lwz 31,52(1)
	addi 1,1,56
	.cfi_remember_state
.LCFI100:
	.cfi_def_cfa_offset 0
	.cfi_restore 31
	.cfi_restore 30
	.cfi_restore 29
	blr
.LVL301:
.L178:
.LCFI101:
	.cfi_restore_state
.LBB2158:
	.loc 2 719 0
	lis 4,.LC38@ha
	mr 3,30
	la 4,.LC38@l(4)
	crxor 6,6,6
	bl _ZNK11idGameLocal6PrintfEPKcz
.LBE2158:
	.loc 2 734 0
	lwz 0,60(1)
	lwz 29,44(1)
.LVL302:
	mtlr 0
	lwz 30,48(1)
	lwz 31,52(1)
.LVL303:
	addi 1,1,56
	.cfi_remember_state
	.cfi_restore 29
	.cfi_restore 30
	.cfi_restore 31
.LCFI102:
	.cfi_def_cfa_offset 0
	blr
.LVL304:
.L179:
.LCFI103:
	.cfi_restore_state
.LBB2159:
	.loc 2 725 0
	lis 4,.LC36@ha
	mr 3,30
.LVL305:
	la 4,.LC36@l(4)
	crxor 6,6,6
	bl _ZNK11idGameLocal6PrintfEPKcz
	.loc 2 726 0
	b .L170
.LBE2159:
	.cfi_endproc
.LFE2834:
	.size	_Z14Cmd_Teleport_fRK9idCmdArgs, .-_Z14Cmd_Teleport_fRK9idCmdArgs
	.align 2
	.globl _Z17Cmd_PlayerModel_fRK9idCmdArgs
	.type	_Z17Cmd_PlayerModel_fRK9idCmdArgs, @function
_Z17Cmd_PlayerModel_fRK9idCmdArgs:
.LFB2826:
	.loc 2 510 0
	.cfi_startproc
.LVL306:
	stwu 1,-56(1)
.LCFI104:
	.cfi_def_cfa_offset 56
	mflr 0
	stw 30,48(1)
.LBB2160:
	.loc 2 516 0
	lis 30,gameLocal@ha
	.cfi_offset 30, -8
	.cfi_register 65, 0
	la 30,gameLocal@l(30)
.LBE2160:
	.loc 2 510 0
	stw 29,44(1)
	mr 29,3
	.cfi_offset 29, -12
.LBB2175:
	.loc 2 516 0
	mr 3,30
.LVL307:
.LBE2175:
	.loc 2 510 0
	stw 31,52(1)
	stw 0,60(1)
.LBB2176:
	.loc 2 516 0
	.cfi_offset 65, 4
	.cfi_offset 31, -4
	bl _ZNK11idGameLocal14GetLocalPlayerEv
.LVL308:
	.loc 2 517 0
	mr. 31,3
	beq- 0,.L180
	.loc 2 517 0 is_stmt 0 discriminator 2
	mr 3,30
.LVL309:
	li 4,1
	bl _ZN11idGameLocal8CheatsOkEb
	cmpwi 7,3,0
	beq- 7,.L180
	.loc 2 521 0 is_stmt 1
	lwz 0,0(29)
	cmpwi 7,0,1
	ble- 7,.L187
.LVL310:
	.loc 2 527 0
	lwz 5,8(29)
	lis 4,.LC40@ha
	la 4,.LC40@l(4)
	addi 3,31,100
	bl _ZN6idDict3SetEPKcS1_
	.loc 2 529 0
	mr 3,31
	bl _ZNK8idEntity10GetPhysicsEv
	li 4,0
	lwz 9,0(3)
	lwz 0,132(9)
	mtctr 0
	bctrl
.LVL311:
.LBB2161:
.LBB2162:
	.loc 5 146 0
	lwz 11,4644(31)
.LBE2162:
.LBE2161:
.LBB2165:
.LBB2166:
	.loc 8 424 0
	lwz 7,0(3)
.LBE2166:
.LBE2165:
	.loc 2 531 0
	addi 4,1,20
.LBB2170:
.LBB2167:
	.loc 8 425 0
	lwz 8,4(3)
.LBE2167:
.LBE2170:
	.loc 2 531 0
	addi 5,1,8
.LBB2171:
.LBB2168:
	.loc 8 426 0
	lwz 10,8(3)
.LBE2168:
.LBE2171:
	.loc 2 531 0
	mr 3,31
.LVL312:
.LBB2172:
.LBB2163:
	.loc 5 147 0
	lwz 9,4648(31)
	.loc 5 148 0
	lwz 0,4652(31)
.LBE2163:
.LBE2172:
.LBB2173:
.LBB2169:
	.loc 8 424 0
	stw 7,20(1)
	.loc 8 425 0
	stw 8,24(1)
	.loc 8 426 0
	stw 10,28(1)
.LVL313:
.LBE2169:
.LBE2173:
.LBB2174:
.LBB2164:
	.loc 5 146 0
	stw 11,8(1)
	.loc 5 147 0
	stw 9,12(1)
	.loc 5 148 0
	stw 0,16(1)
.LBE2164:
.LBE2174:
	.loc 2 531 0
	bl _ZN8idPlayer12SpawnToPointERK6idVec3RK8idAngles
.LVL314:
.L180:
.LBE2176:
	.loc 2 532 0
	lwz 0,60(1)
	lwz 29,44(1)
.LVL315:
	mtlr 0
	lwz 30,48(1)
	lwz 31,52(1)
.LVL316:
	addi 1,1,56
	.cfi_remember_state
.LCFI105:
	.cfi_def_cfa_offset 0
	.cfi_restore 31
	.cfi_restore 30
	.cfi_restore 29
	blr
.LVL317:
.L187:
.LCFI106:
	.cfi_restore_state
.LBB2177:
	.loc 2 522 0
	lis 4,.LC39@ha
	mr 3,30
	la 4,.LC39@l(4)
	crxor 6,6,6
	bl _ZNK11idGameLocal6PrintfEPKcz
	.loc 2 523 0
	b .L180
.LBE2177:
	.cfi_endproc
.LFE2826:
	.size	_Z17Cmd_PlayerModel_fRK9idCmdArgs, .-_Z17Cmd_PlayerModel_fRK9idCmdArgs
	.align 2
	.globl _Z16Cmd_CenterView_fRK9idCmdArgs
	.type	_Z16Cmd_CenterView_fRK9idCmdArgs, @function
_Z16Cmd_CenterView_fRK9idCmdArgs:
.LFB2821:
	.loc 2 374 0
	.cfi_startproc
.LVL318:
	mflr 0
	stwu 1,-24(1)
.LCFI107:
	.cfi_def_cfa_offset 24
	.cfi_register 65, 0
.LBB2178:
	.loc 2 378 0
	lis 3,gameLocal@ha
.LVL319:
	la 3,gameLocal@l(3)
.LBE2178:
	.loc 2 374 0
	stw 0,28(1)
.LBB2181:
	.loc 2 378 0
	.cfi_offset 65, 4
	bl _ZNK11idGameLocal14GetLocalPlayerEv
.LVL320:
	.loc 2 379 0
	mr. 11,3
	beq- 0,.L188
.LVL321:
	.loc 2 384 0
	li 0,0
	mr 4,1
	stwu 0,8(4)
.LBB2179:
.LBB2180:
	.loc 5 147 0
	lwz 9,4648(11)
	.loc 5 148 0
	lwz 0,4652(11)
	.loc 5 147 0
	stw 9,12(1)
	.loc 5 148 0
	stw 0,16(1)
.LBE2180:
.LBE2179:
	.loc 2 385 0
	bl _ZN8idPlayer13SetViewAnglesERK8idAngles
.LVL322:
.L188:
.LBE2181:
	.loc 2 386 0
	lwz 0,28(1)
	addi 1,1,24
.LCFI108:
	.cfi_def_cfa_offset 0
	mtlr 0
	blr
	.cfi_endproc
.LFE2821:
	.size	_Z16Cmd_CenterView_fRK9idCmdArgs, .-_Z16Cmd_CenterView_fRK9idCmdArgs
	.align 2
	.globl _Z12Cmd_Script_fRK9idCmdArgs
	.type	_Z12Cmd_Script_fRK9idCmdArgs, @function
_Z12Cmd_Script_fRK9idCmdArgs:
.LFB2815:
	.loc 2 157 0
	.cfi_startproc
	.cfi_personality 0,__gxx_personality_v0
	.cfi_lsda 0,.LLSDA2815
.LVL323:
	stwu 1,-96(1)
.LCFI109:
	.cfi_def_cfa_offset 96
.LVL324:
	mflr 0
.LBB2182:
.LBB2183:
.LBB2184:
.LBB2185:
	.loc 10 357 0
	li 9,20
.LBE2185:
.LBE2184:
.LBE2183:
	.loc 2 166 0
	li 4,1
.LBE2182:
	.loc 2 157 0
	stw 31,92(1)
.LBB2230:
	.loc 2 166 0
	lis 31,gameLocal@ha
	.cfi_offset 31, -4
	.cfi_register 65, 0
	la 31,gameLocal@l(31)
.LBE2230:
	.loc 2 157 0
	stw 0,100(1)
	stw 30,88(1)
.LBB2231:
.LBB2192:
.LBB2189:
.LBB2186:
	.loc 10 356 0
	li 0,0
	.cfi_offset 30, -8
	.cfi_offset 65, 4
.LBE2186:
.LBE2189:
.LBE2192:
.LBE2231:
	.loc 2 157 0
	mr 30,3
.LBB2232:
.LBB2193:
.LBB2190:
.LBB2187:
	.loc 10 357 0
	stw 9,48(1)
	.loc 10 358 0
	addi 11,1,52
.LBE2187:
.LBE2190:
.LBE2193:
.LBB2194:
.LBB2195:
.LBB2196:
	.loc 10 357 0
	stw 9,16(1)
.LBE2196:
.LBE2195:
.LBE2194:
	.loc 2 166 0
	mr 3,31
.LVL325:
.LBB2201:
.LBB2199:
.LBB2197:
	.loc 10 358 0
	addi 9,1,20
.LBE2197:
.LBE2199:
.LBE2201:
.LBE2232:
	.loc 2 157 0
	stw 28,80(1)
	addi 28,1,8
	.cfi_offset 28, -16
	stw 29,84(1)
	addi 29,1,40
	.cfi_offset 29, -12
	stw 27,76(1)
.LBB2233:
.LBB2202:
.LBB2191:
.LBB2188:
	.loc 10 356 0
	stw 0,40(1)
	.loc 10 358 0
	stw 11,44(1)
	.loc 10 359 0
	stb 0,52(1)
.LVL326:
.LBE2188:
.LBE2191:
.LBE2202:
.LBB2203:
.LBB2200:
.LBB2198:
	.loc 10 356 0
	stw 0,8(1)
	.loc 10 358 0
	stw 9,12(1)
	.loc 10 359 0
	stb 0,20(1)
.LEHB10:
.LBE2198:
.LBE2200:
.LBE2203:
	.loc 2 166 0
	.cfi_offset 27, -20
	bl _ZN11idGameLocal8CheatsOkEb
	cmpwi 7,3,0
	beq- 7,.L191
	.loc 2 170 0
	lis 9,.LANCHOR0@ha
	addi 28,1,8
	la 9,.LANCHOR0@l(9)
	lis 4,.LC41@ha
	lwz 5,208(9)
	mr 3,28
	la 4,.LC41@l(4)
	addi 29,1,40
	addi 0,5,1
	stw 0,208(9)
	crxor 6,6,6
	bl _Z7sprintfR5idStrPKcz
	.loc 2 172 0
	mr 3,30
	li 4,1
	li 5,-1
	li 6,0
	addi 29,1,40
	bl _ZNK9idCmdArgs4ArgsEiib
	.loc 2 173 0
	addi 29,1,40
	lis 4,.LC42@ha
	lwz 5,12(1)
	.loc 2 172 0
	mr 6,3
.LVL327:
	.loc 2 173 0
	la 4,.LC42@l(4)
	mr 3,29
.LVL328:
	crxor 6,6,6
	bl _Z7sprintfR5idStrPKcz
.LVL329:
	.loc 2 174 0
	lis 30,gameLocal+33476@ha
.LVL330:
	lis 4,.LC43@ha
	la 30,gameLocal+33476@l(30)
	lwz 5,4(29)
	mr 3,30
	la 4,.LC43@l(4)
	li 6,1
	bl _ZN9idProgram11CompileTextEPKcS1_b
	cmpwi 7,3,0
	beq- 7,.L192
.LVL331:
	.loc 2 175 0
	lwz 4,12(1)
	mr 3,30
	bl _ZNK9idProgram12FindFunctionEPKc
.LVL332:
	.loc 2 176 0
	mr. 27,3
	beq- 0,.L192
	.loc 2 178 0
	addis 31,31,0x1
	lwz 9,-32192(31)
	lwz 0,-32196(31)
.LBB2204:
.LBB2205:
	.loc 13 268 0
	cmpwi 7,9,0
	beq- 7,.L193
.LVL333:
.L212:
.LBE2205:
.LBE2204:
.LBB2207:
.LBB2208:
	cmpw 7,0,9
	beq- 7,.L193
.LBE2208:
.LBE2207:
.LBB2210:
.LBB2206:
	.loc 13 271 0
	lwz 31,12(9)
.LVL334:
.LBE2206:
.LBE2210:
	.loc 2 178 0
	cmpwi 7,31,0
	beq- 7,.L193
.LVL335:
	.loc 2 179 0
	lwz 4,72(31)
	mr 3,30
	mr 5,31
	bl _ZN9idProgram9SetEntityEPKcP8idEntity
.LVL336:
	.loc 2 2405 0
	lwz 9,16(31)
	lwz 0,12(31)
.LBB2211:
.LBB2209:
	.loc 13 268 0
	cmpwi 7,9,0
	bne+ 7,.L212
.LVL337:
.L193:
.LBE2209:
.LBE2211:
	.loc 2 182 0
	li 3,7068
	bl _ZN7idClassnwEj
.LEHE10:
	mr 4,27
	mr 31,3
.LEHB11:
	bl _ZN8idThreadC1EPK10function_t
.LEHE11:
.LVL338:
	.loc 2 183 0 discriminator 1
	mr 3,31
.LEHB12:
	bl _ZN8idThread5StartEv
.LEHE12:
.LVL339:
.L192:
.LBB2212:
.LBB2213:
.LBB2214:
	.loc 10 501 0
	mr 3,28
.LEHB13:
	bl _ZN5idStr8FreeDataEv
.LEHE13:
.LVL340:
.LBE2214:
.LBE2213:
.LBE2212:
.LBB2215:
.LBB2216:
.LBB2217:
	mr 3,29
.LEHB14:
	bl _ZN5idStr8FreeDataEv
.LEHE14:
.LBE2217:
.LBE2216:
.LBE2215:
.LBE2233:
	.loc 2 186 0
	lwz 0,100(1)
	lwz 27,76(1)
	mtlr 0
	lwz 28,80(1)
.LVL341:
	lwz 29,84(1)
	lwz 30,88(1)
	lwz 31,92(1)
	addi 1,1,96
	.cfi_remember_state
.LCFI110:
	.cfi_def_cfa_offset 0
	.cfi_restore 31
	.cfi_restore 30
	.cfi_restore 29
	.cfi_restore 28
	.cfi_restore 27
	blr
.LVL342:
.L191:
.LCFI111:
	.cfi_restore_state
.LBB2234:
.LBB2218:
.LBB2219:
.LBB2220:
	.loc 10 501 0
	addi 3,1,8
	addi 29,1,40
.LEHB15:
	bl _ZN5idStr8FreeDataEv
.LEHE15:
.LVL343:
.LBE2220:
.LBE2219:
.LBE2218:
.LBB2221:
.LBB2222:
.LBB2223:
	addi 3,1,40
.LEHB16:
	bl _ZN5idStr8FreeDataEv
.LEHE16:
.LBE2223:
.LBE2222:
.LBE2221:
.LBE2234:
	.loc 2 186 0
	lwz 0,100(1)
	lwz 27,76(1)
	mtlr 0
	lwz 28,80(1)
.LVL344:
	lwz 29,84(1)
	lwz 30,88(1)
.LVL345:
	lwz 31,92(1)
	addi 1,1,96
	.cfi_remember_state
	.cfi_restore 27
	.cfi_restore 28
	.cfi_restore 29
	.cfi_restore 30
	.cfi_restore 31
.LCFI112:
	.cfi_def_cfa_offset 0
	blr
.LVL346:
.L205:
.LCFI113:
	.cfi_restore_state
	mr 30,3
.LBB2235:
	.loc 2 182 0
	mr 3,31
	bl _ZN7idClassdlEPv
	mr 31,30
.LVL347:
.L200:
.LBB2224:
.LBB2225:
.LBB2226:
	.loc 10 501 0
	mr 3,28
	bl _ZN5idStr8FreeDataEv
.LVL348:
.L202:
.LBE2226:
.LBE2225:
.LBE2224:
.LBB2227:
.LBB2228:
.LBB2229:
	mr 3,29
	bl _ZN5idStr8FreeDataEv
	mr 3,31
.LEHB17:
	bl _Unwind_Resume
.LEHE17:
.LVL349:
.L204:
	mr 31,3
	b .L200
.L206:
	mr 31,3
	b .L202
.LBE2229:
.LBE2228:
.LBE2227:
.LBE2235:
	.cfi_endproc
.LFE2815:
	.section	.gcc_except_table
.LLSDA2815:
	.byte	0xff
	.byte	0xff
	.byte	0x1
	.uleb128 .LLSDACSE2815-.LLSDACSB2815
.LLSDACSB2815:
	.uleb128 .LEHB10-.LFB2815
	.uleb128 .LEHE10-.LEHB10
	.uleb128 .L204-.LFB2815
	.uleb128 0
	.uleb128 .LEHB11-.LFB2815
	.uleb128 .LEHE11-.LEHB11
	.uleb128 .L205-.LFB2815
	.uleb128 0
	.uleb128 .LEHB12-.LFB2815
	.uleb128 .LEHE12-.LEHB12
	.uleb128 .L204-.LFB2815
	.uleb128 0
	.uleb128 .LEHB13-.LFB2815
	.uleb128 .LEHE13-.LEHB13
	.uleb128 .L206-.LFB2815
	.uleb128 0
	.uleb128 .LEHB14-.LFB2815
	.uleb128 .LEHE14-.LEHB14
	.uleb128 0
	.uleb128 0
	.uleb128 .LEHB15-.LFB2815
	.uleb128 .LEHE15-.LEHB15
	.uleb128 .L206-.LFB2815
	.uleb128 0
	.uleb128 .LEHB16-.LFB2815
	.uleb128 .LEHE16-.LEHB16
	.uleb128 0
	.uleb128 0
	.uleb128 .LEHB17-.LFB2815
	.uleb128 .LEHE17-.LEHB17
	.uleb128 0
	.uleb128 0
.LLSDACSE2815:
	.section	".text"
	.size	_Z12Cmd_Script_fRK9idCmdArgs, .-_Z12Cmd_Script_fRK9idCmdArgs
	.align 2
	.globl _Z18Cmd_ReloadScript_fRK9idCmdArgs
	.type	_Z18Cmd_ReloadScript_fRK9idCmdArgs, @function
_Z18Cmd_ReloadScript_fRK9idCmdArgs:
.LFB2814:
	.loc 2 141 0
	.cfi_startproc
.LVL350:
	stwu 1,-16(1)
.LCFI114:
	.cfi_def_cfa_offset 16
	mflr 0
	stw 31,12(1)
	.loc 2 143 0
	lis 31,gameLocal@ha
	.cfi_offset 31, -4
	.cfi_register 65, 0
	la 31,gameLocal@l(31)
	.loc 2 141 0
	stw 0,20(1)
	.loc 2 143 0
	mr 3,31
.LVL351:
	.cfi_offset 65, 4
	bl _ZN11idGameLocal11MapShutdownEv
	.loc 2 146 0
	lis 3,gameLocal+33476@ha
	lis 4,.LC44@ha
	la 3,gameLocal+33476@l(3)
	la 4,.LC44@l(4)
	bl _ZN9idProgram7StartupEPKc
	.loc 2 149 0
	lis 4,.LC45@ha
	mr 3,31
	la 4,.LC45@l(4)
	crxor 6,6,6
	bl _ZNK11idGameLocal5ErrorEPKcz
	.loc 2 150 0
	lwz 0,20(1)
	lwz 31,12(1)
	mtlr 0
	addi 1,1,16
.LCFI115:
	.cfi_def_cfa_offset 0
	.cfi_restore 31
	blr
	.cfi_endproc
.LFE2814:
	.size	_Z18Cmd_ReloadScript_fRK9idCmdArgs, .-_Z18Cmd_ReloadScript_fRK9idCmdArgs
	.align 2
	.globl _Z22Cmd_ActiveEntityList_fRK9idCmdArgs
	.type	_Z22Cmd_ActiveEntityList_fRK9idCmdArgs, @function
_Z22Cmd_ActiveEntityList_fRK9idCmdArgs:
.LFB2812:
	.loc 2 98 0
	.cfi_startproc
.LVL352:
	stwu 1,-40(1)
.LCFI116:
	.cfi_def_cfa_offset 40
	mflr 0
.LBB2236:
	.loc 2 104 0
	lis 4,.LC46@ha
	lis 5,.LC47@ha
.LBE2236:
	.loc 2 98 0
	stw 29,28(1)
.LBB2246:
	.loc 2 104 0
	lis 29,gameLocal@ha
	.cfi_offset 29, -12
	.cfi_register 65, 0
	la 29,gameLocal@l(29)
	lis 6,.LC48@ha
	lis 7,.LC49@ha
	lis 8,.LC50@ha
	mr 3,29
.LVL353:
	la 4,.LC46@l(4)
	la 5,.LC47@l(5)
	la 6,.LC48@l(6)
	la 7,.LC49@l(7)
	la 8,.LC50@l(8)
.LBE2246:
	.loc 2 98 0
	stw 0,44(1)
	stw 30,32(1)
.LBB2247:
.LBB2237:
.LBB2238:
.LBB2239:
	.loc 13 268 0
	li 30,0
	.cfi_offset 30, -8
	.cfi_offset 65, 4
.LBE2239:
.LBE2238:
.LBE2237:
.LBE2247:
	.loc 2 98 0
	stw 25,12(1)
	stw 26,16(1)
	stw 27,20(1)
	stw 28,24(1)
	stw 31,36(1)
.LBB2248:
	.loc 2 104 0
	.cfi_offset 31, -4
	.cfi_offset 28, -16
	.cfi_offset 27, -20
	.cfi_offset 26, -24
	.cfi_offset 25, -28
	crxor 6,6,6
	bl _ZNK11idGameLocal6PrintfEPKcz
	.loc 2 105 0
	lis 4,.LC51@ha
	mr 3,29
	la 4,.LC51@l(4)
	crxor 6,6,6
	bl _ZNK11idGameLocal6PrintfEPKcz
	.loc 2 106 0
	addis 11,29,0x1
	lwz 9,-32176(11)
	lwz 0,-32180(11)
.LBB2245:
.LBB2241:
.LBB2240:
	.loc 13 268 0
	cmpwi 7,9,0
	beq- 7,.L215
	cmpw 7,0,9
	beq- 7,.L215
	.loc 13 271 0
	lwz 31,12(9)
.LVL354:
.LBE2240:
.LBE2241:
	.loc 2 106 0
	cmpwi 7,31,0
	beq- 7,.L215
	lis 28,.LC52@ha
	la 28,.LC52@l(28)
.LVL355:
.L217:
.LBB2242:
	.loc 2 107 0
	lwz 26,192(31)
	.loc 2 108 0
	mr 3,31
	lwz 25,4(31)
	bl _ZNK8idEntity16GetEntityDefNameEv
	.loc 2 107 0
	rlwinm 26,26,10,31,31
	.loc 2 108 0
	mr 27,3
	.loc 2 107 0
	addic 26,26,-1
	subfe 26,26,26
	.loc 2 108 0
	mr 3,31
	.loc 2 107 0
	rlwinm 26,26,0,30,27
	.loc 2 108 0
	bl _ZNK7idClass12GetClassnameEv
	.loc 2 107 0
	addi 26,26,45
	.loc 2 108 0
	lwz 9,72(31)
	mr 8,3
	mr 4,28
	mr 3,29
	mr 5,25
	mr 6,26
	mr 7,27
	crxor 6,6,6
	bl _ZNK11idGameLocal6PrintfEPKcz
	.loc 2 2405 0
	lwz 9,32(31)
	lwz 0,28(31)
	.loc 2 109 0
	addi 30,30,1
.LVL356:
.LBE2242:
.LBB2243:
.LBB2244:
	.loc 13 268 0
	cmpwi 7,9,0
	cmpw 6,0,9
	beq- 7,.L215
	beq- 6,.L215
	.loc 13 271 0
	lwz 31,12(9)
.LVL357:
.LBE2244:
.LBE2243:
	.loc 2 106 0
	cmpwi 7,31,0
	bne+ 7,.L217
.LVL358:
.L215:
.LBE2245:
	.loc 2 112 0
	lis 4,.LC53@ha
	mr 3,29
	mr 5,30
	la 4,.LC53@l(4)
	crxor 6,6,6
	bl _ZNK11idGameLocal6PrintfEPKcz
.LBE2248:
	.loc 2 113 0
	lwz 0,44(1)
	lwz 25,12(1)
	mtlr 0
	lwz 26,16(1)
	lwz 27,20(1)
	lwz 28,24(1)
	lwz 29,28(1)
	lwz 30,32(1)
	lwz 31,36(1)
	addi 1,1,40
.LCFI117:
	.cfi_def_cfa_offset 0
	.cfi_restore 31
	.cfi_restore 30
	.cfi_restore 29
	.cfi_restore 28
	.cfi_restore 27
	.cfi_restore 26
	.cfi_restore 25
	blr
	.cfi_endproc
.LFE2812:
	.size	_Z22Cmd_ActiveEntityList_fRK9idCmdArgs, .-_Z22Cmd_ActiveEntityList_fRK9idCmdArgs
	.align 2
	.globl _Z16Cmd_EntityList_fRK9idCmdArgs
	.type	_Z16Cmd_EntityList_fRK9idCmdArgs, @function
_Z16Cmd_EntityList_fRK9idCmdArgs:
.LFB2811:
	.loc 2 53 0
	.cfi_startproc
	.cfi_personality 0,__gxx_personality_v0
	.cfi_lsda 0,.LLSDA2811
.LVL359:
	mflr 0
	stwu 1,-80(1)
.LCFI118:
	.cfi_def_cfa_offset 80
	.cfi_register 65, 0
.LVL360:
	stw 23,44(1)
	stw 0,84(1)
.LBB2249:
.LBB2250:
.LBB2251:
.LBB2252:
	.loc 10 356 0
	li 0,0
	.cfi_offset 65, 4
	.cfi_offset 23, -36
.LBE2252:
.LBE2251:
.LBE2250:
.LBE2249:
	.loc 2 53 0
	stw 24,48(1)
	stw 25,52(1)
	stw 26,56(1)
	stw 27,60(1)
	stw 28,64(1)
	stw 29,68(1)
	stw 30,72(1)
	stw 31,76(1)
.LBB2270:
.LBB2259:
.LBB2256:
.LBB2253:
	.loc 10 356 0
	stw 0,8(1)
.LBE2253:
.LBE2256:
.LBE2259:
	.loc 2 60 0
	lwz 9,0(3)
.LBB2260:
.LBB2257:
.LBB2254:
	.loc 10 359 0
	stb 0,20(1)
.LBE2254:
.LBE2257:
.LBE2260:
	.loc 2 60 0
	cmpwi 7,9,1
.LBB2261:
.LBB2258:
.LBB2255:
	.loc 10 357 0
	li 9,20
	stw 9,16(1)
	.loc 10 358 0
	addi 9,1,20
	stw 9,12(1)
.LBE2255:
.LBE2258:
.LBE2261:
	.loc 2 60 0
	ble- 7,.L224
	.cfi_offset 31, -4
	.cfi_offset 30, -8
	.cfi_offset 29, -12
	.cfi_offset 28, -16
	.cfi_offset 27, -20
	.cfi_offset 26, -24
	.cfi_offset 25, -28
	.cfi_offset 24, -32
	.loc 2 61 0
	li 4,1
	li 5,-1
	li 6,0
	addi 23,1,8
.LEHB18:
	bl _ZNK9idCmdArgs4ArgsEiib
.LVL361:
	addi 23,1,8
	mr 4,3
	mr 3,23
	bl _ZN5idStraSEPKc
	.loc 2 62 0
	lis 4,.LC54@ha
	lis 5,.LC3@ha
	mr 3,23
	la 4,.LC54@l(4)
	la 5,.LC3@l(5)
	bl _ZN5idStr7ReplaceEPKcS1_
.L225:
.LVL362:
	.loc 2 70 0
	lis 25,gameLocal@ha
	lis 4,.LC46@ha
	la 25,gameLocal@l(25)
	lis 5,.LC47@ha
	lis 6,.LC48@ha
	lis 7,.LC49@ha
	lis 8,.LC50@ha
	mr 3,25
	la 4,.LC46@l(4)
	la 5,.LC47@l(5)
	la 6,.LC48@l(6)
	la 7,.LC49@l(7)
	la 8,.LC50@l(8)
	crxor 6,6,6
	bl _ZNK11idGameLocal6PrintfEPKcz
	.loc 2 71 0
	lis 4,.LC51@ha
	mr 3,25
	la 4,.LC51@l(4)
	crxor 6,6,6
	bl _ZNK11idGameLocal6PrintfEPKcz
	lis 29,gameLocal+528@ha
	.loc 2 84 0
	lis 24,.LC55@ha
	.loc 2 71 0
	la 29,gameLocal+528@l(29)
	li 28,0
	li 27,0
	li 30,0
	.loc 2 84 0
	la 24,.LC55@l(24)
	b .L227
.LVL363:
.L226:
	.loc 2 72 0
	cmpwi 7,30,4095
	addi 30,30,1
.LVL364:
	beq- 7,.L233
.LVL365:
.L227:
	.loc 2 73 0
	lwzu 31,4(29)
.LVL366:
	.loc 2 75 0
	cmpwi 7,31,0
	beq- 7,.L226
.LVL367:
.LBB2262:
.LBB2263:
	.loc 10 910 0
	lwz 3,12(1)
	li 5,1
	lwz 4,72(31)
	bl _ZN5idStr6FilterEPKcS1_b
.LVL368:
.LBE2263:
.LBE2262:
	.loc 2 79 0
	cmpwi 7,3,0
	beq+ 7,.L226
	.loc 2 84 0
	mr 3,31
	bl _ZNK8idEntity16GetEntityDefNameEv
	mr 26,3
	mr 3,31
	bl _ZNK7idClass12GetClassnameEv
	.loc 2 84 0 is_stmt 0 discriminator 1
	lwz 8,72(31)
	mr 7,3
	mr 4,24
	mr 3,25
	mr 5,30
	mr 6,26
	crxor 6,6,6
	bl _ZNK11idGameLocal6PrintfEPKcz
.LVL369:
	.loc 2 87 0 is_stmt 1
	addi 3,31,100
	bl _ZNK6idDict9AllocatedEv
	.loc 2 72 0
	cmpwi 7,30,4095
	.loc 2 86 0
	addi 27,27,1
.LVL370:
	.loc 2 87 0
	add 28,28,3
.LVL371:
	.loc 2 72 0
	addi 30,30,1
.LVL372:
	bne+ 7,.L227
.LVL373:
.L233:
	.loc 2 90 0
	lis 4,.LC56@ha
	mr 3,25
	la 4,.LC56@l(4)
	mr 5,27
	mr 6,28
	crxor 6,6,6
	bl _ZNK11idGameLocal6PrintfEPKcz
.LEHE18:
.LVL374:
.LBB2264:
.LBB2265:
.LBB2266:
	.loc 10 501 0
	mr 3,23
.LEHB19:
	bl _ZN5idStr8FreeDataEv
.LEHE19:
.LBE2266:
.LBE2265:
.LBE2264:
.LBE2270:
	.loc 2 91 0
	lwz 0,84(1)
	lwz 23,44(1)
	mtlr 0
	lwz 24,48(1)
	lwz 25,52(1)
	lwz 26,56(1)
	lwz 27,60(1)
.LVL375:
	lwz 28,64(1)
.LVL376:
	lwz 29,68(1)
	lwz 30,72(1)
.LVL377:
	lwz 31,76(1)
.LVL378:
	addi 1,1,80
	.cfi_remember_state
.LCFI119:
	.cfi_def_cfa_offset 0
	.cfi_restore 31
	.cfi_restore 30
	.cfi_restore 29
	.cfi_restore 28
	.cfi_restore 27
	.cfi_restore 26
	.cfi_restore 25
	.cfi_restore 24
	.cfi_restore 23
	blr
.LVL379:
.L224:
.LCFI120:
	.cfi_restore_state
.LBB2271:
	.loc 2 64 0
	addi 23,1,8
	lis 4,.LC3@ha
	mr 3,23
.LVL380:
	la 4,.LC3@l(4)
.LEHB20:
	bl _ZN5idStraSEPKc
.LEHE20:
	b .L225
.L231:
	mr 31,3
.LVL381:
.LBB2267:
.LBB2268:
.LBB2269:
	.loc 10 501 0
	mr 3,23
	bl _ZN5idStr8FreeDataEv
	mr 3,31
.LEHB21:
	bl _Unwind_Resume
.LEHE21:
.LBE2269:
.LBE2268:
.LBE2267:
.LBE2271:
	.cfi_endproc
.LFE2811:
	.section	.gcc_except_table
.LLSDA2811:
	.byte	0xff
	.byte	0xff
	.byte	0x1
	.uleb128 .LLSDACSE2811-.LLSDACSB2811
.LLSDACSB2811:
	.uleb128 .LEHB18-.LFB2811
	.uleb128 .LEHE18-.LEHB18
	.uleb128 .L231-.LFB2811
	.uleb128 0
	.uleb128 .LEHB19-.LFB2811
	.uleb128 .LEHE19-.LEHB19
	.uleb128 0
	.uleb128 0
	.uleb128 .LEHB20-.LFB2811
	.uleb128 .LEHE20-.LEHB20
	.uleb128 .L231-.LFB2811
	.uleb128 0
	.uleb128 .LEHB21-.LFB2811
	.uleb128 .LEHE21-.LEHB21
	.uleb128 0
	.uleb128 0
.LLSDACSE2811:
	.section	".text"
	.size	_Z16Cmd_EntityList_fRK9idCmdArgs, .-_Z16Cmd_EntityList_fRK9idCmdArgs
	.align 2
	.type	_ZL20Cmd_ListDebugLines_fRK9idCmdArgs, @function
_ZL20Cmd_ListDebugLines_fRK9idCmdArgs:
.LFB2851:
	.loc 2 1224 0
	.cfi_startproc
.LVL382:
	stwu 1,-32(1)
.LCFI121:
	.cfi_def_cfa_offset 32
	mflr 0
.LBB2276:
	.loc 2 1227 0
	li 4,1
.LBE2276:
	.loc 2 1224 0
	stw 28,16(1)
.LBB2277:
	.loc 2 1227 0
	lis 28,gameLocal@ha
	.cfi_offset 28, -16
	.cfi_register 65, 0
	la 28,gameLocal@l(28)
.LBE2277:
	.loc 2 1224 0
	stw 0,36(1)
.LBB2278:
	.loc 2 1227 0
	mr 3,28
.LVL383:
.LBE2278:
	.loc 2 1224 0
	stw 26,8(1)
	stw 27,12(1)
	stw 29,20(1)
	stw 30,24(1)
	stw 31,28(1)
.LBB2279:
	.loc 2 1227 0
	.cfi_offset 31, -4
	.cfi_offset 30, -8
	.cfi_offset 29, -12
	.cfi_offset 27, -20
	.cfi_offset 26, -24
	.cfi_offset 65, 4
	bl _ZN11idGameLocal8CheatsOkEb
	cmpwi 7,3,0
	bne- 7,.L239
.L234:
.LBE2279:
	.loc 2 1249 0
	lwz 0,36(1)
	lwz 26,8(1)
	mtlr 0
	lwz 27,12(1)
	lwz 28,16(1)
	lwz 29,20(1)
	lwz 30,24(1)
	lwz 31,28(1)
	addi 1,1,32
	.cfi_remember_state
.LCFI122:
	.cfi_def_cfa_offset 0
	.cfi_restore 31
	.cfi_restore 30
	.cfi_restore 29
	.cfi_restore 28
	.cfi_restore 27
	.cfi_restore 26
	blr
.L239:
.LCFI123:
	.cfi_restore_state
.LVL384:
.LBB2280:
.LBB2281:
.LBB2282:
	.loc 2 1232 0
	lis 4,.LC57@ha
	lis 30,.LANCHOR0@ha
	la 30,.LANCHOR0@l(30)
	mr 3,28
	la 4,.LC57@l(4)
	.loc 2 1235 0
	lis 26,.LC58@ha
	.loc 2 1242 0
	lis 27,.LC59@ha
	.loc 2 1232 0
	addi 31,30,212
	crxor 6,6,6
	bl _ZNK11idGameLocal6PrintfEPKcz
.LVL385:
	.loc 2 1224 0
	addi 30,30,4820
.LBE2282:
.LBE2281:
.LBE2280:
	.loc 2 1231 0
	li 29,0
.LBB2285:
.LBB2284:
.LBB2283:
	.loc 2 1235 0
	la 26,.LC58@l(26)
	.loc 2 1242 0
	la 27,.LC59@l(27)
	b .L237
.LVL386:
.L236:
	.loc 2 1243 0
	addi 31,31,36
	.loc 2 1233 0
	cmpw 7,31,30
	beq- 7,.L240
.LVL387:
.L237:
	.loc 2 1234 0
	lbz 0,0(31)
	cmpwi 7,0,0
	beq+ 7,.L236
	.loc 2 1235 0
	mr 5,29
	mr 3,28
	mr 4,26
	.loc 2 1243 0
	addi 29,29,1
	.loc 2 1235 0
	crxor 6,6,6
	bl _ZNK11idGameLocal6PrintfEPKcz
	.loc 2 1236 0
	lfs 1,4(31)
	bl _ZL10PrintFloatf
	.loc 2 1237 0
	lfs 1,8(31)
	bl _ZL10PrintFloatf
	.loc 2 1238 0
	lfs 1,12(31)
	bl _ZL10PrintFloatf
	.loc 2 1239 0
	lfs 1,16(31)
	bl _ZL10PrintFloatf
	.loc 2 1240 0
	lfs 1,20(31)
	bl _ZL10PrintFloatf
	.loc 2 1241 0
	lfs 1,24(31)
	bl _ZL10PrintFloatf
	.loc 2 1242 0
	lwz 5,28(31)
	lbz 6,32(31)
	mr 3,28
	lbz 7,33(31)
	mr 4,27
	.loc 2 1243 0
	addi 31,31,36
	.loc 2 1242 0
	crxor 6,6,6
	bl _ZNK11idGameLocal6PrintfEPKcz
.LVL388:
	.loc 2 1233 0
	cmpw 7,31,30
	bne+ 7,.L237
.L240:
	.loc 2 1246 0
	cmpwi 7,29,0
	bne+ 7,.L234
	.loc 2 1247 0
	lis 4,.LC60@ha
	mr 3,28
	la 4,.LC60@l(4)
	crxor 6,6,6
	bl _ZNK11idGameLocal6PrintfEPKcz
.LBE2283:
.LBE2284:
.LBE2285:
	.loc 2 1249 0
	lwz 0,36(1)
	lwz 26,8(1)
	mtlr 0
	lwz 27,12(1)
	lwz 28,16(1)
	lwz 29,20(1)
.LVL389:
	lwz 30,24(1)
	lwz 31,28(1)
	addi 1,1,32
	.cfi_restore 26
	.cfi_restore 27
	.cfi_restore 28
	.cfi_restore 29
	.cfi_restore 30
	.cfi_restore 31
.LCFI124:
	.cfi_def_cfa_offset 0
	blr
	.cfi_endproc
.LFE2851:
	.size	_ZL20Cmd_ListDebugLines_fRK9idCmdArgs, .-_ZL20Cmd_ListDebugLines_fRK9idCmdArgs
	.align 2
	.type	_ZL24Cmd_CollisionModelInfo_fRK9idCmdArgs, @function
_ZL24Cmd_CollisionModelInfo_fRK9idCmdArgs:
.LFB2854:
	.loc 2 1306 0
	.cfi_startproc
.LVL390:
	stwu 1,-16(1)
.LCFI125:
	.cfi_def_cfa_offset 16
	mflr 0
.LBB2294:
	.loc 2 1309 0
	li 4,1
.LBE2294:
	.loc 2 1306 0
	stw 31,12(1)
.LBB2295:
	.loc 2 1309 0
	lis 31,gameLocal@ha
	.cfi_offset 31, -4
	.cfi_register 65, 0
	la 31,gameLocal@l(31)
.LBE2295:
	.loc 2 1306 0
	stw 30,8(1)
	mr 30,3
	.cfi_offset 30, -8
.LBB2296:
	.loc 2 1309 0
	mr 3,31
.LVL391:
.LBE2296:
	.loc 2 1306 0
	stw 0,20(1)
.LBB2297:
	.loc 2 1309 0
	.cfi_offset 65, 4
	bl _ZN11idGameLocal8CheatsOkEb
	cmpwi 7,3,0
	beq- 7,.L241
	.loc 2 1313 0
	lwz 0,0(30)
	cmpwi 7,0,1
	ble- 7,.L244
.LVL392:
	.loc 2 1320 0
	lis 4,.LC62@ha
	lwz 3,8(30)
	la 4,.LC62@l(4)
	bl _ZN5idStr4IcmpEPKcS1_
.LVL393:
.L241:
.LBE2297:
	.loc 2 1325 0
	lwz 0,20(1)
	lwz 30,8(1)
.LVL394:
	mtlr 0
	lwz 31,12(1)
	addi 1,1,16
	.cfi_remember_state
.LCFI126:
	.cfi_def_cfa_offset 0
	.cfi_restore 31
	.cfi_restore 30
	blr
.LVL395:
.L244:
.LCFI127:
	.cfi_restore_state
.LBB2298:
.LBB2299:
.LBB2300:
	.loc 2 1315 0
	lis 4,.LC61@ha
	mr 3,31
	la 4,.LC61@l(4)
	crxor 6,6,6
	bl _ZNK11idGameLocal6PrintfEPKcz
	b .L241
.LBE2300:
.LBE2299:
.LBE2298:
	.cfi_endproc
.LFE2854:
	.size	_ZL24Cmd_CollisionModelInfo_fRK9idCmdArgs, .-_ZL24Cmd_CollisionModelInfo_fRK9idCmdArgs
	.align 2
	.type	_ZL16Cmd_TestBoneFx_fRK9idCmdArgs, @function
_ZL16Cmd_TestBoneFx_fRK9idCmdArgs:
.LFB2864:
	.loc 2 1509 0
	.cfi_startproc
.LVL396:
	stwu 1,-24(1)
.LCFI128:
	.cfi_def_cfa_offset 24
	mflr 0
	stw 30,16(1)
.LBB2313:
	.loc 2 1513 0
	lis 30,gameLocal@ha
	.cfi_offset 30, -8
	.cfi_register 65, 0
	la 30,gameLocal@l(30)
.LBE2313:
	.loc 2 1509 0
	stw 29,12(1)
	mr 29,3
	.cfi_offset 29, -12
.LBB2314:
	.loc 2 1513 0
	mr 3,30
.LVL397:
.LBE2314:
	.loc 2 1509 0
	stw 31,20(1)
	stw 0,28(1)
.LBB2315:
	.loc 2 1513 0
	.cfi_offset 65, 4
	.cfi_offset 31, -4
	bl _ZNK11idGameLocal14GetLocalPlayerEv
.LVL398:
	.loc 2 1514 0
	mr. 31,3
	beq- 0,.L245
	.loc 2 1514 0 is_stmt 0 discriminator 2
	mr 3,30
.LVL399:
	li 4,1
	bl _ZN11idGameLocal8CheatsOkEb
	cmpwi 7,3,0
	bne- 7,.L253
.L245:
.LBE2315:
	.loc 2 1527 0 is_stmt 1
	lwz 0,28(1)
	lwz 29,12(1)
.LVL400:
	mtlr 0
	lwz 30,16(1)
	lwz 31,20(1)
.LVL401:
	addi 1,1,24
	.cfi_remember_state
.LCFI129:
	.cfi_def_cfa_offset 0
	.cfi_restore 31
	.cfi_restore 30
	.cfi_restore 29
	blr
.LVL402:
.L253:
.LCFI130:
	.cfi_restore_state
.LBB2316:
	.loc 2 2405 0
	lwz 0,0(29)
	.loc 2 1518 0
	cmpwi 7,0,2
	bgt- 7,.L254
.L249:
.LBE2316:
.LBB2317:
.LBB2318:
.LBB2319:
	.loc 2 1519 0 discriminator 4
	lis 4,.LC63@ha
	mr 3,30
	la 4,.LC63@l(4)
	crxor 6,6,6
	bl _ZNK11idGameLocal6PrintfEPKcz
.LBE2319:
.LBE2318:
.LBE2317:
	.loc 2 1527 0 discriminator 4
	lwz 0,28(1)
	lwz 29,12(1)
.LVL403:
	mtlr 0
	lwz 30,16(1)
	lwz 31,20(1)
.LVL404:
	addi 1,1,24
	.cfi_remember_state
	.cfi_restore 29
	.cfi_restore 30
	.cfi_restore 31
.LCFI131:
	.cfi_def_cfa_offset 0
	blr
.LVL405:
.L254:
.LCFI132:
	.cfi_restore_state
.LBB2320:
	.loc 2 1518 0 discriminator 2
	cmpwi 7,0,4
	bgt- 7,.L249
.LVL406:
	.loc 2 1526 0
	lwz 4,8(29)
	mr 3,31
	lwz 5,12(29)
	bl _ZN8idPlayer13StartFxOnBoneEPKcS1_
.LBE2320:
	.loc 2 1527 0
	lwz 0,28(1)
	lwz 29,12(1)
.LVL407:
	mtlr 0
	lwz 30,16(1)
	lwz 31,20(1)
.LVL408:
	addi 1,1,24
	.cfi_restore 29
	.cfi_restore 30
	.cfi_restore 31
.LCFI133:
	.cfi_def_cfa_offset 0
	blr
	.cfi_endproc
.LFE2864:
	.size	_ZL16Cmd_TestBoneFx_fRK9idCmdArgs, .-_ZL16Cmd_TestBoneFx_fRK9idCmdArgs
	.align 2
	.type	_ZL20Cmd_BlinkDebugLine_fRK9idCmdArgs, @function
_ZL20Cmd_BlinkDebugLine_fRK9idCmdArgs:
.LFB2849:
	.loc 2 1176 0
	.cfi_startproc
.LVL409:
	stwu 1,-16(1)
.LCFI134:
	.cfi_def_cfa_offset 16
	mflr 0
.LBB2331:
	.loc 2 1180 0
	li 4,1
.LBE2331:
	.loc 2 1176 0
	stw 31,12(1)
.LBB2332:
	.loc 2 1180 0
	lis 31,gameLocal@ha
	.cfi_offset 31, -4
	.cfi_register 65, 0
	la 31,gameLocal@l(31)
.LBE2332:
	.loc 2 1176 0
	stw 30,8(1)
	mr 30,3
	.cfi_offset 30, -8
.LBB2333:
	.loc 2 1180 0
	mr 3,31
.LVL410:
.LBE2333:
	.loc 2 1176 0
	stw 0,20(1)
.LBB2334:
	.loc 2 1180 0
	.cfi_offset 65, 4
	bl _ZN11idGameLocal8CheatsOkEb
	cmpwi 7,3,0
	beq- 7,.L255
	.loc 2 1184 0
	lwz 0,0(30)
	cmpwi 7,0,1
	ble- 7,.L264
.LVL411:
	.loc 2 1189 0
	lwz 3,8(30)
	bl atoi
.LVL412:
	lis 10,.LANCHOR0@ha
	la 10,.LANCHOR0@l(10)
	.loc 2 1190 0
	li 0,128
	.loc 2 1189 0
	addi 9,10,212
	.loc 2 1190 0
	mtctr 0
	.loc 2 1191 0
	lbz 0,0(9)
	.loc 2 1190 0
	li 11,0
	addi 9,9,36
	.loc 2 1191 0
	cmpwi 7,0,0
	bne- 7,.L265
.LVL413:
.L258:
	.loc 2 1190 0
	addi 11,11,1
.LVL414:
	bdz .L266
	.loc 2 1191 0
	lbz 0,0(9)
	.loc 2 1190 0
	addi 9,9,36
	.loc 2 1191 0
	cmpwi 7,0,0
	beq- 7,.L258
.LVL415:
.L265:
	.loc 2 1192 0
	addic. 3,3,-1
.LVL416:
	bge+ 0,.L258
	.loc 2 1201 0
	mulli 11,11,36
	add 10,10,11
	lbz 0,244(10)
	xori 0,0,1
	stb 0,244(10)
.LVL417:
.L255:
.LBE2334:
	.loc 2 1202 0
	lwz 0,20(1)
	lwz 30,8(1)
.LVL418:
	mtlr 0
	lwz 31,12(1)
	addi 1,1,16
	.cfi_remember_state
.LCFI135:
	.cfi_def_cfa_offset 0
	.cfi_restore 31
	.cfi_restore 30
	blr
.LVL419:
.L266:
.LCFI136:
	.cfi_restore_state
.LBB2335:
	.loc 2 1198 0
	lis 4,.LC65@ha
	mr 3,31
.LVL420:
	la 4,.LC65@l(4)
	crxor 6,6,6
	bl _ZNK11idGameLocal6PrintfEPKcz
.LVL421:
.LBE2335:
	.loc 2 1202 0
	lwz 0,20(1)
	lwz 30,8(1)
.LVL422:
	mtlr 0
	lwz 31,12(1)
	addi 1,1,16
	.cfi_remember_state
	.cfi_restore 30
	.cfi_restore 31
.LCFI137:
	.cfi_def_cfa_offset 0
	blr
.LVL423:
.L264:
.LCFI138:
	.cfi_restore_state
.LBB2336:
.LBB2337:
.LBB2338:
	.loc 2 1185 0
	lis 4,.LC64@ha
	mr 3,31
	la 4,.LC64@l(4)
	crxor 6,6,6
	bl _ZNK11idGameLocal6PrintfEPKcz
	b .L255
.LBE2338:
.LBE2337:
.LBE2336:
	.cfi_endproc
.LFE2849:
	.size	_ZL20Cmd_BlinkDebugLine_fRK9idCmdArgs, .-_ZL20Cmd_BlinkDebugLine_fRK9idCmdArgs
	.align 2
	.type	_ZL21Cmd_RemoveDebugLine_fRK9idCmdArgs, @function
_ZL21Cmd_RemoveDebugLine_fRK9idCmdArgs:
.LFB2848:
	.loc 2 1143 0
	.cfi_startproc
.LVL424:
	stwu 1,-16(1)
.LCFI139:
	.cfi_def_cfa_offset 16
	mflr 0
.LBB2349:
	.loc 2 1147 0
	li 4,1
.LBE2349:
	.loc 2 1143 0
	stw 31,12(1)
.LBB2350:
	.loc 2 1147 0
	lis 31,gameLocal@ha
	.cfi_offset 31, -4
	.cfi_register 65, 0
	la 31,gameLocal@l(31)
.LBE2350:
	.loc 2 1143 0
	stw 30,8(1)
	mr 30,3
	.cfi_offset 30, -8
.LBB2351:
	.loc 2 1147 0
	mr 3,31
.LVL425:
.LBE2351:
	.loc 2 1143 0
	stw 0,20(1)
.LBB2352:
	.loc 2 1147 0
	.cfi_offset 65, 4
	bl _ZN11idGameLocal8CheatsOkEb
	cmpwi 7,3,0
	beq- 7,.L267
	.loc 2 1151 0
	lwz 0,0(30)
	cmpwi 7,0,1
	ble- 7,.L276
.LVL426:
	.loc 2 1156 0
	lwz 3,8(30)
	bl atoi
.LVL427:
	lis 10,.LANCHOR0@ha
	la 10,.LANCHOR0@l(10)
	.loc 2 1157 0
	li 0,128
	.loc 2 1156 0
	addi 9,10,212
	.loc 2 1157 0
	mtctr 0
	.loc 2 1158 0
	lbz 0,0(9)
	.loc 2 1157 0
	li 11,0
	addi 9,9,36
	.loc 2 1158 0
	cmpwi 7,0,0
	bne- 7,.L277
.LVL428:
.L270:
	.loc 2 1157 0
	addi 11,11,1
.LVL429:
	bdz .L278
	.loc 2 1158 0
	lbz 0,0(9)
	.loc 2 1157 0
	addi 9,9,36
	.loc 2 1158 0
	cmpwi 7,0,0
	beq- 7,.L270
.LVL430:
.L277:
	.loc 2 1159 0
	addic. 3,3,-1
.LVL431:
	bge+ 0,.L270
	.loc 2 1168 0
	mulli 11,11,36
	li 0,0
	add 10,10,11
	stb 0,212(10)
.LVL432:
.L267:
.LBE2352:
	.loc 2 1169 0
	lwz 0,20(1)
	lwz 30,8(1)
.LVL433:
	mtlr 0
	lwz 31,12(1)
	addi 1,1,16
	.cfi_remember_state
.LCFI140:
	.cfi_def_cfa_offset 0
	.cfi_restore 31
	.cfi_restore 30
	blr
.LVL434:
.L278:
.LCFI141:
	.cfi_restore_state
.LBB2353:
	.loc 2 1165 0
	lis 4,.LC65@ha
	mr 3,31
.LVL435:
	la 4,.LC65@l(4)
	crxor 6,6,6
	bl _ZNK11idGameLocal6PrintfEPKcz
.LVL436:
.LBE2353:
	.loc 2 1169 0
	lwz 0,20(1)
	lwz 30,8(1)
.LVL437:
	mtlr 0
	lwz 31,12(1)
	addi 1,1,16
	.cfi_remember_state
	.cfi_restore 30
	.cfi_restore 31
.LCFI142:
	.cfi_def_cfa_offset 0
	blr
.LVL438:
.L276:
.LCFI143:
	.cfi_restore_state
.LBB2354:
.LBB2355:
.LBB2356:
	.loc 2 1152 0
	lis 4,.LC66@ha
	mr 3,31
	la 4,.LC66@l(4)
	crxor 6,6,6
	bl _ZNK11idGameLocal6PrintfEPKcz
	b .L267
.LBE2356:
.LBE2355:
.LBE2354:
	.cfi_endproc
.LFE2848:
	.size	_ZL21Cmd_RemoveDebugLine_fRK9idCmdArgs, .-_ZL21Cmd_RemoveDebugLine_fRK9idCmdArgs
	.align 2
	.globl _Z12Cmd_Remove_fRK9idCmdArgs
	.type	_Z12Cmd_Remove_fRK9idCmdArgs, @function
_Z12Cmd_Remove_fRK9idCmdArgs:
.LFB2838:
	.loc 2 844 0
	.cfi_startproc
.LVL439:
	stwu 1,-16(1)
.LCFI144:
	.cfi_def_cfa_offset 16
	mflr 0
	stw 31,12(1)
.LBB2365:
	.loc 2 845 0
	lis 31,gameLocal@ha
	.cfi_offset 31, -4
	.cfi_register 65, 0
	la 31,gameLocal@l(31)
.LBE2365:
	.loc 2 844 0
	stw 30,8(1)
	mr 30,3
	.cfi_offset 30, -8
.LBB2366:
	.loc 2 845 0
	mr 3,31
.LVL440:
.LBE2366:
	.loc 2 844 0
	stw 0,20(1)
.LBB2367:
	.loc 2 845 0
	.cfi_offset 65, 4
	bl _ZNK11idGameLocal14GetLocalPlayerEv
	cmpwi 7,3,0
	beq- 7,.L279
	.loc 2 845 0 is_stmt 0 discriminator 2
	mr 3,31
	li 4,0
	bl _ZN11idGameLocal8CheatsOkEb
	cmpwi 7,3,0
	beq- 7,.L279
	.loc 2 848 0 is_stmt 1
	lwz 0,0(30)
	cmpwi 7,0,2
	bne- 7,.L287
.LVL441:
	.loc 2 853 0
	lwz 4,8(30)
	mr 3,31
	bl _ZNK11idGameLocal10FindEntityEPKc
.LVL442:
	.loc 2 854 0
	mr. 9,3
	beq- 0,.L288
	.loc 2 859 0 discriminator 1
	lwz 9,0(9)
	lwz 0,8(9)
	mtctr 0
	bctrl
.LVL443:
.L279:
.LBE2367:
	.loc 2 860 0
	lwz 0,20(1)
	lwz 30,8(1)
.LVL444:
	mtlr 0
	lwz 31,12(1)
	addi 1,1,16
	.cfi_remember_state
.LCFI145:
	.cfi_def_cfa_offset 0
	.cfi_restore 31
	.cfi_restore 30
	blr
.LVL445:
.L287:
.LCFI146:
	.cfi_restore_state
.LBB2368:
	.loc 2 849 0
	lis 4,.LC67@ha
	mr 3,31
	la 4,.LC67@l(4)
	crxor 6,6,6
	bl _ZNK11idGameLocal6PrintfEPKcz
.LBE2368:
	.loc 2 860 0
	lwz 0,20(1)
	lwz 30,8(1)
.LVL446:
	mtlr 0
	lwz 31,12(1)
	addi 1,1,16
	.cfi_remember_state
	.cfi_restore 30
	.cfi_restore 31
.LCFI147:
	.cfi_def_cfa_offset 0
	blr
.LVL447:
.L288:
.LCFI148:
	.cfi_restore_state
.LBB2369:
.LBB2370:
.LBB2371:
	.loc 2 855 0
	lis 4,.LC36@ha
	mr 3,31
.LVL448:
	la 4,.LC36@l(4)
	crxor 6,6,6
	bl _ZNK11idGameLocal6PrintfEPKcz
.LVL449:
	b .L279
.LBE2371:
.LBE2370:
.LBE2369:
	.cfi_endproc
.LFE2838:
	.size	_Z12Cmd_Remove_fRK9idCmdArgs, .-_Z12Cmd_Remove_fRK9idCmdArgs
	.align 2
	.globl _Z12Cmd_Damage_fRK9idCmdArgs
	.type	_Z12Cmd_Damage_fRK9idCmdArgs, @function
_Z12Cmd_Damage_fRK9idCmdArgs:
.LFB2837:
	.loc 2 818 0
	.cfi_startproc
.LVL450:
	stwu 1,-48(1)
.LCFI149:
	.cfi_def_cfa_offset 48
	mflr 0
	stw 31,44(1)
.LBB2382:
	.loc 2 819 0
	lis 31,gameLocal@ha
	.cfi_offset 31, -4
	.cfi_register 65, 0
	la 31,gameLocal@l(31)
.LBE2382:
	.loc 2 818 0
	stw 30,40(1)
	mr 30,3
	.cfi_offset 30, -8
.LBB2383:
	.loc 2 819 0
	mr 3,31
.LVL451:
.LBE2383:
	.loc 2 818 0
	stw 0,52(1)
	stw 28,32(1)
	stw 29,36(1)
.LBB2384:
	.loc 2 819 0
	.cfi_offset 29, -12
	.cfi_offset 28, -16
	.cfi_offset 65, 4
	bl _ZNK11idGameLocal14GetLocalPlayerEv
	cmpwi 7,3,0
	beq- 7,.L289
	.loc 2 819 0 is_stmt 0 discriminator 2
	mr 3,31
	li 4,0
	bl _ZN11idGameLocal8CheatsOkEb
	cmpwi 7,3,0
	beq- 7,.L289
	.loc 2 822 0 is_stmt 1
	lwz 0,0(30)
	cmpwi 7,0,3
	bne- 7,.L299
.LVL452:
.LBE2384:
.LBB2385:
.LBB2386:
	.loc 2 827 0
	lwz 4,8(30)
	mr 3,31
	bl _ZNK11idGameLocal10FindEntityEPKc
.LVL453:
	.loc 2 828 0
	mr. 29,3
	beq- 0,.L300
.LBB2387:
.LBB2388:
	.loc 6 50 0
	lwz 0,0(30)
.LBE2388:
.LBE2387:
	.loc 2 833 0
	addis 9,31,0x1
	lwz 28,-32200(9)
.LVL454:
.LBB2392:
.LBB2393:
	.loc 8 398 0
	lis 9,.LC17@ha
.LBE2393:
.LBE2392:
.LBB2397:
.LBB2389:
	.loc 6 50 0
	cmpwi 7,0,2
.LBE2389:
.LBE2397:
.LBB2398:
.LBB2394:
	.loc 8 396 0
	li 0,0
.LBE2394:
.LBE2398:
	.loc 2 833 0
	lwz 11,0(29)
.LBB2399:
.LBB2395:
	.loc 8 396 0
	stw 0,8(1)
	.loc 8 397 0
	stw 0,12(1)
	.loc 8 398 0
	lwz 0,.LC17@l(9)
.LBE2395:
.LBE2399:
	.loc 2 833 0
	lwz 31,164(11)
.LBB2400:
.LBB2396:
	.loc 8 398 0
	stw 0,16(1)
.LVL455:
.LBE2396:
.LBE2400:
.LBB2401:
.LBB2390:
	.loc 6 50 0
	bgt- 7,.L301
	lis 3,.LC3@ha
.LVL456:
	la 3,.LC3@l(3)
.L293:
.LBE2390:
.LBE2401:
	.loc 2 833 0
	bl atoi
	lis 0,0x4330
	xoris 3,3,0x8000
	stw 0,24(1)
	stw 3,28(1)
	lis 9,.LC71@ha
	lfs 0,.LC71@l(9)
	lis 7,.LC69@ha
	lfd 1,24(1)
	mr 4,28
	mr 3,29
	mr 5,28
	fsub 1,1,0
	addi 6,1,8
	la 7,.LC69@l(7)
	li 8,-1
	mtctr 31
	frsp 1,1
	bctrl
.LVL457:
.L289:
.LBE2386:
.LBE2385:
	.loc 2 834 0
	lwz 0,52(1)
	lwz 28,32(1)
	mtlr 0
	lwz 29,36(1)
	lwz 30,40(1)
.LVL458:
	lwz 31,44(1)
	addi 1,1,48
	.cfi_remember_state
.LCFI150:
	.cfi_def_cfa_offset 0
	.cfi_restore 31
	.cfi_restore 30
	.cfi_restore 29
	.cfi_restore 28
	blr
.LVL459:
.L299:
.LCFI151:
	.cfi_restore_state
.LBB2404:
	.loc 2 823 0
	lis 4,.LC68@ha
	mr 3,31
	la 4,.LC68@l(4)
	crxor 6,6,6
	bl _ZNK11idGameLocal6PrintfEPKcz
.LBE2404:
	.loc 2 834 0
	lwz 0,52(1)
	lwz 28,32(1)
	mtlr 0
	lwz 29,36(1)
	lwz 30,40(1)
.LVL460:
	lwz 31,44(1)
	addi 1,1,48
	.cfi_remember_state
	.cfi_restore 28
	.cfi_restore 29
	.cfi_restore 30
	.cfi_restore 31
.LCFI152:
	.cfi_def_cfa_offset 0
	blr
.LVL461:
.L301:
.LCFI153:
	.cfi_restore_state
.LBB2405:
.LBB2403:
.LBB2402:
.LBB2391:
	.loc 6 50 0
	lwz 3,12(30)
.LVL462:
	b .L293
.LVL463:
.L300:
.LBE2391:
.LBE2402:
	.loc 2 829 0
	lis 4,.LC36@ha
	mr 3,31
	la 4,.LC36@l(4)
	crxor 6,6,6
	bl _ZNK11idGameLocal6PrintfEPKcz
	b .L289
.LBE2403:
.LBE2405:
	.cfi_endproc
.LFE2837:
	.size	_Z12Cmd_Damage_fRK9idCmdArgs, .-_Z12Cmd_Damage_fRK9idCmdArgs
	.align 2
	.type	_ZL14Cmd_AASStats_fRK9idCmdArgs, @function
_ZL14Cmd_AASStats_fRK9idCmdArgs:
.LFB2862:
	.loc 2 1450 0
	.cfi_startproc
.LVL464:
	stwu 1,-16(1)
.LCFI154:
	.cfi_def_cfa_offset 16
	mflr 0
.LBB2412:
	.loc 2 1453 0
	li 4,1
.LBE2412:
	.loc 2 1450 0
	stw 31,12(1)
.LBB2413:
	.loc 2 1453 0
	lis 31,gameLocal@ha
	.cfi_offset 31, -4
	.cfi_register 65, 0
	la 31,gameLocal@l(31)
.LBE2413:
	.loc 2 1450 0
	stw 0,20(1)
.LBB2414:
	.loc 2 1453 0
	mr 3,31
.LVL465:
.LBE2414:
	.loc 2 1450 0
	stw 30,8(1)
.LBB2415:
	.loc 2 1453 0
	.cfi_offset 30, -8
	.cfi_offset 65, 4
	bl _ZN11idGameLocal8CheatsOkEb
	cmpwi 7,3,0
	bne- 7,.L305
.L302:
.LBE2415:
	.loc 2 1464 0
	lwz 0,20(1)
	lwz 30,8(1)
	mtlr 0
	lwz 31,12(1)
	addi 1,1,16
	.cfi_remember_state
.LCFI155:
	.cfi_def_cfa_offset 0
	.cfi_restore 31
	.cfi_restore 30
	blr
.L305:
.LCFI156:
	.cfi_restore_state
.LBB2416:
	.loc 2 1457 0
	lis 9,aas_test+44@ha
.LBB2417:
.LBB2418:
	.loc 2 1458 0
	mr 3,31
.LBB2419:
.LBB2420:
	.loc 7 143 0
	lwz 9,aas_test+44@l(9)
	lwz 30,36(9)
.LBE2420:
.LBE2419:
	.loc 2 1458 0
	mr 4,30
	bl _ZNK11idGameLocal6GetAASEi
.LVL466:
	.loc 2 1459 0
	mr. 9,3
	beq- 0,.L306
	.loc 2 1462 0
	lwz 9,0(9)
	lwz 0,12(9)
	mtctr 0
	bctrl
.LVL467:
.LBE2418:
.LBE2417:
.LBE2416:
	.loc 2 1464 0
	lwz 0,20(1)
	lwz 30,8(1)
	mtlr 0
	lwz 31,12(1)
	addi 1,1,16
	.cfi_remember_state
	.cfi_restore 30
	.cfi_restore 31
.LCFI157:
	.cfi_def_cfa_offset 0
	blr
.LVL468:
.L306:
.LCFI158:
	.cfi_restore_state
.LBB2423:
.LBB2422:
.LBB2421:
	.loc 2 1460 0
	lis 4,.LC72@ha
	mr 3,31
.LVL469:
	la 4,.LC72@l(4)
	mr 5,30
	crxor 6,6,6
	bl _ZNK11idGameLocal6PrintfEPKcz
.LVL470:
	b .L302
.LBE2421:
.LBE2422:
.LBE2423:
	.cfi_endproc
.LFE2862:
	.size	_ZL14Cmd_AASStats_fRK9idCmdArgs, .-_ZL14Cmd_AASStats_fRK9idCmdArgs
	.align 2
	.globl _Z19Cmd_ListSpawnArgs_fRK9idCmdArgs
	.type	_Z19Cmd_ListSpawnArgs_fRK9idCmdArgs, @function
_Z19Cmd_ListSpawnArgs_fRK9idCmdArgs:
.LFB2813:
	.loc 2 120 0
	.cfi_startproc
.LVL471:
	mflr 0
	stwu 1,-24(1)
.LCFI159:
	.cfi_def_cfa_offset 24
	.cfi_register 65, 0
	stw 28,8(1)
	stw 0,28(1)
	stw 29,12(1)
	stw 30,16(1)
	stw 31,20(1)
.LBB2446:
.LBB2447:
.LBB2448:
	.loc 6 50 0
	lwz 0,0(3)
	.cfi_offset 31, -4
	.cfi_offset 30, -8
	.cfi_offset 29, -12
	.cfi_offset 65, 4
	.cfi_offset 28, -16
	cmpwi 7,0,1
	ble- 7,.L312
.LVL472:
	lwz 4,8(3)
.LVL473:
.L308:
.LBE2448:
.LBE2447:
	.loc 2 124 0
	lis 29,gameLocal@ha
	la 29,gameLocal@l(29)
	mr 3,29
.LVL474:
	bl _ZNK11idGameLocal10FindEntityEPKc
.LVL475:
	.loc 2 125 0
	mr. 30,3
	beq- 0,.L309
.LVL476:
.LBB2450:
	.loc 2 130 0 discriminator 1
	lwz 0,100(30)
	cmpwi 7,0,0
	ble- 7,.L307
	lis 28,.LC73@ha
	.loc 2 130 0 is_stmt 0
	li 31,0
	la 28,.LC73@l(28)
.LVL477:
.L310:
.LBB2451:
.LBB2452:
.LBB2453:
.LBB2454:
	.file 15 "d:/Data/Nintendo/DoomGX/src/game/gamesys/../../idlib/../idlib/containers/List.h"
	.loc 15 573 0 is_stmt 1 discriminator 2
	lwz 9,112(30)
	.loc 2 120 0 discriminator 2
	slwi 0,31,3
.LBE2454:
.LBE2453:
.LBE2452:
	.loc 2 132 0 discriminator 2
	mr 3,29
	mr 4,28
.LBB2457:
.LBB2456:
.LBB2455:
	.loc 15 573 0 discriminator 2
	add 10,9,0
.LVL478:
.LBE2455:
.LBE2456:
.LBE2457:
	.loc 2 2405 0 discriminator 2
	lwzx 11,9,0
	lwz 9,4(10)
.LBE2451:
	.loc 2 130 0 discriminator 2
	addi 31,31,1
.LVL479:
.LBB2458:
	.loc 2 132 0 discriminator 2
	lwz 5,4(11)
	lwz 6,4(9)
	crxor 6,6,6
	bl _ZNK11idGameLocal6PrintfEPKcz
.LVL480:
.LBE2458:
	.loc 2 130 0 discriminator 2
	lwz 0,100(30)
	cmpw 7,31,0
	blt+ 7,.L310
.LVL481:
.L307:
.LBE2450:
.LBE2446:
	.loc 2 134 0
	lwz 0,28(1)
	lwz 28,8(1)
	mtlr 0
	lwz 29,12(1)
	lwz 30,16(1)
.LVL482:
	lwz 31,20(1)
	addi 1,1,24
	.cfi_remember_state
.LCFI160:
	.cfi_def_cfa_offset 0
	.cfi_restore 31
	.cfi_restore 30
	.cfi_restore 29
	.cfi_restore 28
	blr
.LVL483:
.L312:
.LCFI161:
	.cfi_restore_state
.LBB2460:
.LBB2459:
.LBB2449:
	.loc 6 50 0
	lis 4,.LC3@ha
	la 4,.LC3@l(4)
	b .L308
.LVL484:
.L309:
.LBE2449:
.LBE2459:
.LBE2460:
.LBB2461:
.LBB2462:
.LBB2463:
	.loc 2 126 0
	lis 4,.LC36@ha
	mr 3,29
.LVL485:
	la 4,.LC36@l(4)
	crxor 6,6,6
	bl _ZNK11idGameLocal6PrintfEPKcz
	b .L307
.LBE2463:
.LBE2462:
.LBE2461:
	.cfi_endproc
.LFE2813:
	.size	_Z19Cmd_ListSpawnArgs_fRK9idCmdArgs, .-_Z19Cmd_ListSpawnArgs_fRK9idCmdArgs
	.section	.text._ZN9idWindingD0Ev,"axG",@progbits,_ZN9idWindingD5Ev,comdat
	.align 2
	.weak	_ZN9idWindingD0Ev
	.type	_ZN9idWindingD0Ev, @function
_ZN9idWindingD0Ev:
.LFB1463:
	.loc 1 183 0
	.cfi_startproc
.LVL486:
	mflr 0
	stwu 1,-16(1)
.LCFI162:
	.cfi_def_cfa_offset 16
	.cfi_register 65, 0
.LBB2467:
.LBB2468:
.LBB2469:
	lis 9,_ZTV9idWinding+8@ha
.LBE2469:
.LBE2468:
.LBE2467:
	stw 31,12(1)
	mr 31,3
	.cfi_offset 31, -4
.LVL487:
	stw 0,20(1)
.LBB2474:
.LBB2472:
.LBB2470:
	.loc 1 183 0
	la 0,_ZTV9idWinding+8@l(9)
	.cfi_offset 65, 4
	.loc 1 184 0
	lwz 3,8(3)
.LVL488:
	.loc 1 183 0
	stw 0,0(31)
	.loc 1 184 0
	cmpwi 7,3,0
	beq- 7,.L316
	bl _ZdaPv
.L316:
	.loc 1 185 0
	li 0,0
.LBE2470:
.LBE2472:
.LBE2474:
	.loc 1 186 0
	mr 3,31
.LBB2475:
.LBB2473:
.LBB2471:
	.loc 1 185 0
	stw 0,8(31)
.LBE2471:
.LBE2473:
.LBE2475:
	.loc 1 186 0
	bl _ZdlPv
	lwz 0,20(1)
	lwz 31,12(1)
.LVL489:
	mtlr 0
	addi 1,1,16
.LCFI163:
	.cfi_def_cfa_offset 0
	.cfi_restore 31
	blr
	.cfi_endproc
.LFE1463:
	.size	_ZN9idWindingD0Ev, .-_ZN9idWindingD0Ev
	.section	.text._ZN14idFixedWindingD0Ev,"axG",@progbits,_ZN14idFixedWindingD5Ev,comdat
	.align 2
	.weak	_ZN14idFixedWindingD0Ev
	.type	_ZN14idFixedWindingD0Ev, @function
_ZN14idFixedWindingD0Ev:
.LFB1500:
	.loc 1 380 0
	.cfi_startproc
.LVL490:
	mflr 0
	stwu 1,-8(1)
.LCFI164:
	.cfi_def_cfa_offset 8
	.cfi_register 65, 0
.LBB2482:
.LBB2483:
.LBB2484:
.LBB2485:
.LBB2486:
.LBB2487:
	.loc 1 183 0
	lis 11,_ZTV9idWinding+8@ha
.LBE2487:
.LBE2486:
.LBE2485:
.LBE2484:
.LBE2483:
.LBE2482:
	.loc 1 380 0
	stw 0,12(1)
.LBB2493:
.LBB2492:
.LBB2491:
	.loc 1 381 0
	li 0,0
	.cfi_offset 65, 4
	stw 0,8(3)
.LVL491:
.LBB2490:
.LBB2489:
.LBB2488:
	.loc 1 183 0
	la 0,_ZTV9idWinding+8@l(11)
	stw 0,0(3)
.LBE2488:
.LBE2489:
.LBE2490:
.LBE2491:
.LBE2492:
.LBE2493:
	.loc 1 382 0
	bl _ZdlPv
.LVL492:
	lwz 0,12(1)
	addi 1,1,8
.LCFI165:
	.cfi_def_cfa_offset 0
	mtlr 0
	blr
	.cfi_endproc
.LFE1500:
	.size	_ZN14idFixedWindingD0Ev, .-_ZN14idFixedWindingD0Ev
	.section	.text._ZN14idFixedWindingD2Ev,"axG",@progbits,_ZN14idFixedWindingD5Ev,comdat
	.align 2
	.weak	_ZN14idFixedWindingD2Ev
	.type	_ZN14idFixedWindingD2Ev, @function
_ZN14idFixedWindingD2Ev:
.LFB1498:
	.loc 1 380 0
	.cfi_startproc
.LVL493:
.LBB2498:
	.loc 1 381 0
	li 0,0
.LBB2499:
.LBB2500:
.LBB2501:
	.loc 1 183 0
	lis 9,_ZTV9idWinding+8@ha
.LBE2501:
.LBE2500:
.LBE2499:
	.loc 1 381 0
	stw 0,8(3)
.LVL494:
.LBB2504:
.LBB2503:
.LBB2502:
	.loc 1 183 0
	la 0,_ZTV9idWinding+8@l(9)
	stw 0,0(3)
.LBE2502:
.LBE2503:
.LBE2504:
.LBE2498:
	.loc 1 382 0
	blr
	.cfi_endproc
.LFE1498:
	.size	_ZN14idFixedWindingD2Ev, .-_ZN14idFixedWindingD2Ev
	.section	".text"
	.align 2
	.type	_ZL10Cmd_Kick_fRK9idCmdArgs, @function
_ZL10Cmd_Kick_fRK9idCmdArgs:
.LFB2831:
	.loc 2 622 0
	.cfi_startproc
.LVL495:
	stwu 1,-32(1)
.LCFI166:
	.cfi_def_cfa_offset 32
	mflr 0
	mr 4,3
	stw 28,16(1)
.LBB2513:
	.loc 2 625 0
	lis 28,gameLocal@ha
	.cfi_offset 28, -16
	.cfi_register 65, 0
.LBE2513:
	.loc 2 622 0
	stw 0,36(1)
.LBB2514:
	.loc 2 625 0
	la 28,gameLocal@l(28)
.LBE2514:
	.loc 2 622 0
	stw 27,12(1)
.LBB2515:
	.loc 2 625 0
	addis 9,28,0x25
.LBE2515:
	.loc 2 622 0
	stw 29,20(1)
	stw 30,24(1)
	stw 31,28(1)
.LBB2516:
	.loc 2 625 0
	lbz 0,2016(9)
	.cfi_offset 31, -4
	.cfi_offset 30, -8
	.cfi_offset 29, -12
	.cfi_offset 27, -20
	.cfi_offset 65, 4
	cmpwi 7,0,0
	beq- 7,.L333
	.loc 2 630 0
	lbz 0,2018(9)
	.loc 2 631 0
	mr 3,28
.LVL496:
	.loc 2 630 0
	cmpwi 7,0,0
	bne- 7,.L334
.LVL497:
.LBE2516:
.LBB2517:
.LBB2518:
	.loc 2 635 0
	bl _ZNK11idGameLocal18GetClientByCmdArgsERK9idCmdArgs
.LVL498:
	.loc 2 636 0
	mr. 31,3
	beq- 0,.L335
	.loc 2 640 0
	lwz 27,4(31)
.LVL499:
	lis 30,cmdSystem@ha
	lwz 29,cmdSystem@l(30)
.LBB2519:
.LBB2520:
	.loc 11 241 0
	lis 4,.LC31@ha
.LBE2520:
.LBE2519:
	.loc 2 640 0
	mulli 0,27,44
.LBB2526:
.LBB2522:
	.loc 11 241 0
	la 4,.LC31@l(4)
.LBE2522:
.LBE2526:
	.loc 2 640 0
	lwz 9,0(29)
	add 28,28,0
.LBB2527:
.LBB2523:
	.loc 11 241 0
	addi 3,28,52
.LVL500:
.LBE2523:
.LBE2527:
	.loc 2 640 0
	lwz 28,36(9)
.LBB2528:
.LBB2524:
	.loc 11 241 0
	bl _ZNK6idDict7FindKeyEPKc
.LVL501:
	.loc 11 242 0
	cmpwi 0,3,0
	beq- 0,.L332
.LVL502:
.LBB2521:
	.loc 2 2405 0
	lwz 9,4(3)
	lwz 5,4(9)
.LVL503:
.L331:
.LBE2521:
.LBE2524:
.LBE2528:
	.loc 2 640 0
	lis 3,.LC77@ha
.LVL504:
	mr 4,27
	la 3,.LC77@l(3)
	crxor 6,6,6
	bl _Z2vaPKcz
	mtctr 28
	mr 5,3
	li 4,0
	mr 3,29
	bctrl
	.loc 2 641 0
	lwz 30,cmdSystem@l(30)
	lwz 4,4(31)
	lis 3,.LC78@ha
	lwz 9,0(30)
	la 3,.LC78@l(3)
	lwz 31,36(9)
.LVL505:
	crxor 6,6,6
	bl _Z2vaPKcz
	mr 5,3
	li 4,0
	mr 3,30
	mtctr 31
	bctrl
.LVL506:
.L326:
.LBE2518:
.LBE2517:
	.loc 2 642 0
	lwz 0,36(1)
	lwz 27,12(1)
	mtlr 0
	lwz 28,16(1)
	lwz 29,20(1)
	lwz 30,24(1)
	lwz 31,28(1)
	addi 1,1,32
	.cfi_remember_state
.LCFI167:
	.cfi_def_cfa_offset 0
	.cfi_restore 31
	.cfi_restore 30
	.cfi_restore 29
	.cfi_restore 28
	.cfi_restore 27
	blr
.LVL507:
.L334:
.LCFI168:
	.cfi_restore_state
.LBB2531:
	.loc 2 631 0
	lis 4,.LC75@ha
.LVL508:
	la 4,.LC75@l(4)
	crxor 6,6,6
	bl _ZNK11idGameLocal6PrintfEPKcz
.LBE2531:
	.loc 2 642 0
	lwz 0,36(1)
	lwz 27,12(1)
	mtlr 0
	lwz 28,16(1)
	lwz 29,20(1)
	lwz 30,24(1)
	lwz 31,28(1)
	addi 1,1,32
	.cfi_remember_state
	.cfi_restore 27
	.cfi_restore 28
	.cfi_restore 29
	.cfi_restore 30
	.cfi_restore 31
.LCFI169:
	.cfi_def_cfa_offset 0
	blr
.LVL509:
.L333:
.LCFI170:
	.cfi_restore_state
.LBB2532:
	.loc 2 626 0
	lis 4,.LC74@ha
	mr 3,28
.LVL510:
	la 4,.LC74@l(4)
	crxor 6,6,6
	bl _ZNK11idGameLocal6PrintfEPKcz
.LBE2532:
	.loc 2 642 0
	lwz 0,36(1)
	lwz 27,12(1)
	mtlr 0
	lwz 28,16(1)
	lwz 29,20(1)
	lwz 30,24(1)
	lwz 31,28(1)
	addi 1,1,32
	.cfi_remember_state
	.cfi_restore 27
	.cfi_restore 28
	.cfi_restore 29
	.cfi_restore 30
	.cfi_restore 31
.LCFI171:
	.cfi_def_cfa_offset 0
	blr
.LVL511:
.L335:
.LCFI172:
	.cfi_restore_state
.LBB2533:
.LBB2530:
	.loc 2 637 0
	lis 4,.LC76@ha
	mr 3,28
.LVL512:
	la 4,.LC76@l(4)
	crxor 6,6,6
	bl _ZNK11idGameLocal6PrintfEPKcz
	b .L326
.LVL513:
.L332:
.LBB2529:
.LBB2525:
	.loc 11 245 0
	lis 5,.LC3@ha
	la 5,.LC3@l(5)
	b .L331
.LBE2525:
.LBE2529:
.LBE2530:
.LBE2533:
	.cfi_endproc
.LFE2831:
	.size	_ZL10Cmd_Kick_fRK9idCmdArgs, .-_ZL10Cmd_Kick_fRK9idCmdArgs
	.align 2
	.globl _Z10Cmd_Kill_fRK9idCmdArgs
	.type	_Z10Cmd_Kill_fRK9idCmdArgs, @function
_Z10Cmd_Kill_fRK9idCmdArgs:
.LFB2825:
	.loc 2 477 0
	.cfi_startproc
.LVL514:
	stwu 1,-8248(1)
.LCFI173:
	.cfi_def_cfa_offset 8248
	mflr 0
	mr 4,3
	stw 31,8244(1)
.LBB2560:
.LBB2561:
	.loc 2 480 0
	lis 31,gameLocal@ha
	.cfi_offset 31, -4
	.cfi_register 65, 0
.LBE2561:
.LBE2560:
	.loc 2 477 0
	stw 0,8252(1)
.LBB2586:
.LBB2581:
	.loc 2 480 0
	la 31,gameLocal@l(31)
.LBE2581:
.LBE2586:
	.loc 2 477 0
	stw 29,8236(1)
.LBB2587:
.LBB2582:
	.loc 2 480 0
	addis 9,31,0x25
.LBE2582:
.LBE2587:
	.loc 2 477 0
	stw 30,8240(1)
.LBB2588:
.LBB2583:
	.loc 2 480 0
	lbz 0,2016(9)
	.cfi_offset 30, -8
	.cfi_offset 29, -12
	.cfi_offset 65, 4
	cmpwi 7,0,0
	beq- 7,.L337
.LBB2562:
	.loc 2 481 0
	lbz 0,2018(9)
	cmpwi 7,0,0
	bne- 7,.L344
.LVL515:
.LBE2562:
.LBE2583:
.LBE2588:
.LBB2589:
.LBB2590:
.LBB2591:
	.loc 2 488 0
	mr 3,31
.LVL516:
	bl _ZNK11idGameLocal18GetClientByCmdArgsERK9idCmdArgs
.LVL517:
	.loc 2 489 0
	mr. 30,3
	beq- 0,.L345
	.loc 2 493 0
	li 4,0
	li 5,0
	bl _ZN8idPlayer4KillEbb
.LVL518:
	.loc 2 494 0
	lwz 29,4(30)
.LVL519:
	lis 9,cmdSystem@ha
.LBB2592:
.LBB2593:
	.loc 11 241 0
	lis 4,.LC31@ha
.LBE2593:
.LBE2592:
	.loc 2 494 0
	lwz 30,cmdSystem@l(9)
.LVL520:
	mulli 0,29,44
.LBB2599:
.LBB2595:
	.loc 11 241 0
	la 4,.LC31@l(4)
.LBE2595:
.LBE2599:
	.loc 2 494 0
	add 31,31,0
	lwz 9,0(30)
.LBB2600:
.LBB2596:
	.loc 11 241 0
	addi 3,31,52
.LBE2596:
.LBE2600:
	.loc 2 494 0
	lwz 31,36(9)
.LBB2601:
.LBB2597:
	.loc 11 241 0
	bl _ZNK6idDict7FindKeyEPKc
.LVL521:
	.loc 11 242 0
	cmpwi 0,3,0
	beq- 0,.L343
.LVL522:
.LBB2594:
	.loc 2 2405 0
	lwz 9,4(3)
	lwz 5,4(9)
.LVL523:
.L341:
.LBE2594:
.LBE2597:
.LBE2601:
	.loc 2 494 0
	lis 3,.LC80@ha
.LVL524:
	mr 4,29
	la 3,.LC80@l(3)
	crxor 6,6,6
	bl _Z2vaPKcz
	li 4,0
	mr 5,3
	mtctr 31
	mr 3,30
	bctrl
.LVL525:
.L336:
.LBE2591:
.LBE2590:
.LBE2589:
	.loc 2 503 0
	lwz 0,8252(1)
	lwz 29,8236(1)
	mtlr 0
	lwz 30,8240(1)
	lwz 31,8244(1)
	addi 1,1,8248
	.cfi_remember_state
.LCFI174:
	.cfi_def_cfa_offset 0
	.cfi_restore 31
	.cfi_restore 30
	.cfi_restore 29
	blr
.LVL526:
.L344:
.LCFI175:
	.cfi_restore_state
.LBB2605:
.LBB2584:
.LBB2580:
.LBB2563:
	.loc 2 482 0
	addi 3,1,8
.LVL527:
	bl _ZN8idBitMsgC1Ev
.LVL528:
.LBB2564:
.LBB2565:
	.loc 12 156 0
	addi 0,1,40
.LBE2565:
.LBE2564:
.LBB2569:
.LBB2570:
	.loc 12 284 0
	addi 3,1,8
.LVL529:
.LBE2570:
.LBE2569:
.LBB2574:
.LBB2566:
	.loc 12 156 0
	stw 0,8(1)
	.loc 12 157 0
	stw 0,12(1)
.LBE2566:
.LBE2574:
.LBB2575:
.LBB2571:
	.loc 12 284 0
	li 4,9
.LBE2571:
.LBE2575:
.LBB2576:
.LBB2567:
	.loc 12 158 0
	li 0,8192
.LBE2567:
.LBE2576:
.LBB2577:
.LBB2572:
	.loc 12 284 0
	li 5,8
.LBE2572:
.LBE2577:
.LBB2578:
.LBB2568:
	.loc 12 158 0
	stw 0,16(1)
.LVL530:
.LBE2568:
.LBE2578:
.LBB2579:
.LBB2573:
	.loc 12 284 0
	bl _ZN8idBitMsg9WriteBitsEii
.LVL531:
.LBE2573:
.LBE2579:
	.loc 2 486 0
	lis 9,networkSystem@ha
	addi 4,1,8
.LVL532:
	lwz 3,networkSystem@l(9)
	lwz 9,0(3)
	lwz 0,44(9)
	mtctr 0
	bctrl
.LVL533:
.LBE2563:
.LBE2580:
.LBE2584:
.LBE2605:
	.loc 2 503 0
	lwz 0,8252(1)
	lwz 29,8236(1)
	mtlr 0
	lwz 30,8240(1)
	lwz 31,8244(1)
	addi 1,1,8248
	.cfi_remember_state
	.cfi_restore 29
	.cfi_restore 30
	.cfi_restore 31
.LCFI176:
	.cfi_def_cfa_offset 0
	blr
.LVL534:
.L337:
.LCFI177:
	.cfi_restore_state
.LBB2606:
.LBB2585:
	.loc 2 497 0
	mr 3,31
.LVL535:
	bl _ZNK11idGameLocal14GetLocalPlayerEv
.LVL536:
	.loc 2 498 0
	cmpwi 7,3,0
	beq- 7,.L336
	.loc 2 501 0
	li 4,0
	li 5,0
	bl _ZN8idPlayer4KillEbb
.LVL537:
.LBE2585:
.LBE2606:
	.loc 2 503 0
	lwz 0,8252(1)
	lwz 29,8236(1)
	mtlr 0
	lwz 30,8240(1)
	lwz 31,8244(1)
	addi 1,1,8248
	.cfi_remember_state
	.cfi_restore 29
	.cfi_restore 30
	.cfi_restore 31
.LCFI178:
	.cfi_def_cfa_offset 0
	blr
.LVL538:
.L345:
.LCFI179:
	.cfi_restore_state
.LBB2607:
.LBB2604:
.LBB2603:
	.loc 2 490 0
	lis 9,common@ha
	lis 4,.LC79@ha
	lwz 3,common@l(9)
.LVL539:
	la 4,.LC79@l(4)
	lwz 9,0(3)
	lwz 0,68(9)
	mtctr 0
	crxor 6,6,6
	bctrl
	b .L336
.LVL540:
.L343:
.LBB2602:
.LBB2598:
	.loc 11 245 0
	lis 5,.LC3@ha
	la 5,.LC3@l(5)
	b .L341
.LBE2598:
.LBE2602:
.LBE2603:
.LBE2604:
.LBE2607:
	.cfi_endproc
.LFE2825:
	.size	_Z10Cmd_Kill_fRK9idCmdArgs, .-_Z10Cmd_Kill_fRK9idCmdArgs
	.align 2
	.type	_ZL15Cmd_ListAnims_fRK9idCmdArgs, @function
_ZL15Cmd_ListAnims_fRK9idCmdArgs:
.LFB2861:
	.loc 2 1399 0
	.cfi_startproc
	.cfi_personality 0,__gxx_personality_v0
	.cfi_lsda 0,.LLSDA2861
.LVL541:
	mflr 0
	stwu 1,-1016(1)
.LCFI180:
	.cfi_def_cfa_offset 1016
	.cfi_register 65, 0
	stw 31,1012(1)
	mr 31,3
	.cfi_offset 31, -4
	stw 0,1020(1)
	stw 28,1000(1)
	stw 29,1004(1)
	stw 30,1008(1)
.LBB2621:
.LBB2622:
	.loc 2 1409 0
	lwz 0,0(3)
	.cfi_offset 30, -8
	.cfi_offset 29, -12
	.cfi_offset 28, -16
	.cfi_offset 65, 4
	cmpwi 7,0,1
	ble- 7,.L347
.LBB2623:
	.loc 2 1410 0
	addi 3,1,8
.LVL542:
.LEHB22:
	bl _ZN10idAnimatorC1Ev
.LEHE22:
.LVL543:
.LBB2624:
.LBB2625:
	.loc 6 50 0
	lwz 0,0(31)
	cmpwi 7,0,1
	ble- 7,.L359
	lwz 31,8(31)
.LVL544:
.L348:
.LBE2625:
.LBE2624:
	.loc 2 1414 0
	lis 30,gameLocal@ha
	mr 4,31
	la 30,gameLocal@l(30)
	li 5,0
	mr 3,30
.LEHB23:
	bl _ZNK11idGameLocal17FindEntityDefDictEPKcb
.LVL545:
	.loc 2 1415 0
	cmpwi 7,3,0
	beq- 7,.L370
.LVL546:
.LBB2627:
.LBB2628:
	.loc 11 241 0
	lis 4,.LC40@ha
	la 4,.LC40@l(4)
	bl _ZNK6idDict7FindKeyEPKc
.LVL547:
	.loc 11 242 0
	cmpwi 0,3,0
	beq- 0,.L360
.LVL548:
.LBB2629:
	.loc 2 2405 0
	lwz 9,4(3)
	lwz 4,4(9)
.LVL549:
.L351:
.LBE2629:
.LBE2628:
.LBE2627:
	.loc 2 1419 0
	addi 3,1,8
.LVL550:
	bl _ZN10idAnimator8SetModelEPKc
	.loc 2 1421 0
	lis 4,.LC82@ha
	mr 3,30
	la 4,.LC82@l(4)
	crxor 6,6,6
	bl _ZNK11idGameLocal6PrintfEPKcz
	.loc 2 1422 0
	addi 3,1,8
	bl _ZNK10idAnimator8NumAnimsEv
.LVL551:
	.loc 2 1423 0
	mr. 29,3
	ble- 0,.L352
	.loc 2 1424 0
	lis 28,.LC83@ha
	.loc 2 1423 0
	li 31,0
	.loc 2 1424 0
	la 28,.LC83@l(28)
.LVL552:
.L353:
	addi 3,1,8
	mr 4,31
	bl _ZNK10idAnimator12AnimFullNameEi
	mr 5,3
	mr 4,28
	mr 3,30
	crxor 6,6,6
	bl _ZNK11idGameLocal6PrintfEPKcz
	.loc 2 1423 0
	addi 31,31,1
.LVL553:
	cmpw 7,31,29
	bne+ 7,.L353
.LVL554:
.L352:
	.loc 2 1426 0
	lis 4,.LC84@ha
	mr 3,30
	la 4,.LC84@l(4)
	mr 5,29
	crxor 6,6,6
	bl _ZNK11idGameLocal6PrintfEPKcz
.LEHE23:
.LVL555:
.L367:
	addi 3,1,8
.LEHB24:
	bl _ZN10idAnimatorD1Ev
.LBE2623:
.LBE2622:
.LBE2621:
	.loc 2 1443 0
	lwz 0,1020(1)
	lwz 28,1000(1)
	mtlr 0
	lwz 29,1004(1)
	lwz 30,1008(1)
	lwz 31,1012(1)
	addi 1,1,1016
	.cfi_remember_state
.LCFI181:
	.cfi_def_cfa_offset 0
	.cfi_restore 31
	.cfi_restore 30
	.cfi_restore 29
	.cfi_restore 28
	blr
.LVL556:
.L347:
.LCFI182:
	.cfi_restore_state
.LBB2646:
.LBB2644:
	.loc 2 1428 0
	lis 3,animationLib@ha
.LVL557:
	.loc 2 1432 0
	lis 30,gameLocal@ha
	.loc 2 1428 0
	la 3,animationLib@l(3)
	.loc 2 1432 0
	la 30,gameLocal@l(30)
	.loc 2 1428 0
	bl _ZNK13idAnimManager9ListAnimsEv
.LVL558:
	.loc 2 1432 0
	addis 11,30,0x1
	lwz 9,-32192(11)
.LBB2633:
.LBB2634:
	.loc 13 268 0
	li 29,0
.LBE2634:
.LBE2633:
	.loc 2 1432 0
	lwz 0,-32196(11)
.LBB2637:
.LBB2635:
	.loc 13 268 0
	li 31,0
.LVL559:
	cmpwi 7,9,0
	beq- 7,.L355
.LVL560:
.L369:
.LBE2635:
.LBE2637:
.LBB2638:
.LBB2639:
	cmpw 7,0,9
	beq- 7,.L355
.LBE2639:
.LBE2638:
.LBB2641:
.LBB2636:
	.loc 13 271 0
	lwz 28,12(9)
.LVL561:
.LBE2636:
.LBE2641:
	.loc 2 1432 0
	cmpwi 7,28,0
	beq- 7,.L355
	.loc 2 1433 0
	lwz 9,0(28)
.LVL562:
	mr 3,28
	lwz 0,92(9)
	mtctr 0
	bctrl
.LVL563:
	.loc 2 1434 0
	cmpwi 7,3,0
	beq- 7,.L356
	.loc 2 1435 0
	bl _ZNK10idAnimator9AllocatedEv
.LVL564:
	.loc 2 1437 0
	addi 31,31,1
	.loc 2 1436 0
	add 29,29,3
.LVL565:
.L356:
	.loc 2 2405 0
	lwz 9,16(28)
	lwz 0,12(28)
.LBB2642:
.LBB2640:
	.loc 13 268 0
	cmpwi 7,9,0
	bne+ 7,.L369
.LVL566:
.L355:
.LBE2640:
.LBE2642:
	.loc 2 1441 0
	lis 4,.LC85@ha
	mr 3,30
	mr 5,29
	mr 6,31
	la 4,.LC85@l(4)
	crxor 6,6,6
	bl _ZNK11idGameLocal6PrintfEPKcz
.LEHE24:
.LBE2644:
.LBE2646:
	.loc 2 1443 0
	lwz 0,1020(1)
	lwz 28,1000(1)
	mtlr 0
	lwz 29,1004(1)
	lwz 30,1008(1)
	lwz 31,1012(1)
	addi 1,1,1016
	.cfi_remember_state
	.cfi_restore 28
	.cfi_restore 29
	.cfi_restore 30
	.cfi_restore 31
.LCFI183:
	.cfi_def_cfa_offset 0
	blr
.LVL567:
.L359:
.LCFI184:
	.cfi_restore_state
.LBB2647:
.LBB2645:
.LBB2643:
.LBB2631:
.LBB2626:
	.loc 6 50 0
	lis 31,.LC3@ha
.LVL568:
	la 31,.LC3@l(31)
	b .L348
.LVL569:
.L370:
.LBE2626:
.LBE2631:
	.loc 2 1416 0
	lis 4,.LC81@ha
	mr 3,30
.LVL570:
	la 4,.LC81@l(4)
	mr 5,31
.LEHB25:
	crxor 6,6,6
	bl _ZNK11idGameLocal6PrintfEPKcz
.LEHE25:
	b .L367
.LVL571:
.L360:
.LBB2632:
.LBB2630:
	.loc 11 245 0
	lis 4,.LC3@ha
	la 4,.LC3@l(4)
	b .L351
.LVL572:
.L364:
	mr 31,3
.LBE2630:
.LBE2632:
	.loc 2 1426 0
	addi 3,1,8
	bl _ZN10idAnimatorD1Ev
	mr 3,31
.LEHB26:
	bl _Unwind_Resume
.LEHE26:
.LBE2643:
.LBE2645:
.LBE2647:
	.cfi_endproc
.LFE2861:
	.section	.gcc_except_table
.LLSDA2861:
	.byte	0xff
	.byte	0xff
	.byte	0x1
	.uleb128 .LLSDACSE2861-.LLSDACSB2861
.LLSDACSB2861:
	.uleb128 .LEHB22-.LFB2861
	.uleb128 .LEHE22-.LEHB22
	.uleb128 0
	.uleb128 0
	.uleb128 .LEHB23-.LFB2861
	.uleb128 .LEHE23-.LEHB23
	.uleb128 .L364-.LFB2861
	.uleb128 0
	.uleb128 .LEHB24-.LFB2861
	.uleb128 .LEHE24-.LEHB24
	.uleb128 0
	.uleb128 0
	.uleb128 .LEHB25-.LFB2861
	.uleb128 .LEHE25-.LEHB25
	.uleb128 .L364-.LFB2861
	.uleb128 0
	.uleb128 .LEHB26-.LFB2861
	.uleb128 .LEHE26-.LEHB26
	.uleb128 0
	.uleb128 0
.LLSDACSE2861:
	.section	".text"
	.size	_ZL15Cmd_ListAnims_fRK9idCmdArgs, .-_ZL15Cmd_ListAnims_fRK9idCmdArgs
	.align 2
	.globl _Z10Cmd_Give_fRK9idCmdArgs
	.type	_Z10Cmd_Give_fRK9idCmdArgs, @function
_Z10Cmd_Give_fRK9idCmdArgs:
.LFB2820:
	.loc 2 275 0
	.cfi_startproc
.LVL573:
	stwu 1,-80(1)
.LCFI185:
	.cfi_def_cfa_offset 80
	mflr 0
	mfcr 12
	stw 29,68(1)
.LBB2677:
	.loc 2 281 0
	lis 29,gameLocal@ha
	.cfi_offset 29, -12
	.cfi_register 70, 12
	.cfi_register 65, 0
	la 29,gameLocal@l(29)
.LBE2677:
	.loc 2 275 0
	stw 22,40(1)
	mr 22,3
	.cfi_offset 22, -40
.LBB2734:
	.loc 2 281 0
	mr 3,29
.LVL574:
.LBE2734:
	.loc 2 275 0
	stw 27,60(1)
	stw 0,84(1)
	stw 19,28(1)
	stw 20,32(1)
	stw 21,36(1)
	stw 23,44(1)
	stw 24,48(1)
	stw 25,52(1)
	stw 26,56(1)
	stw 28,64(1)
	stw 30,72(1)
	stw 31,76(1)
	stw 12,24(1)
.LBB2735:
	.loc 2 281 0
	.cfi_offset 70, -56
	.cfi_offset 31, -4
	.cfi_offset 30, -8
	.cfi_offset 28, -16
	.cfi_offset 26, -24
	.cfi_offset 25, -28
	.cfi_offset 24, -32
	.cfi_offset 23, -36
	.cfi_offset 21, -44
	.cfi_offset 20, -48
	.cfi_offset 19, -52
	.cfi_offset 65, 4
	.cfi_offset 27, -20
	bl _ZNK11idGameLocal14GetLocalPlayerEv
.LVL575:
	.loc 2 282 0
	mr. 27,3
	beq- 0,.L371
	.loc 2 282 0 is_stmt 0 discriminator 2
	mr 3,29
.LVL576:
	li 4,1
	bl _ZN11idGameLocal8CheatsOkEb
	cmpwi 7,3,0
	beq- 7,.L371
.LVL577:
.LBB2678:
.LBB2679:
	.loc 6 50 0 is_stmt 1
	lwz 0,0(22)
	cmpwi 7,0,1
	ble- 7,.L411
	lwz 23,8(22)
.L396:
.LBE2679:
.LBE2678:
	.loc 2 288 0
	lis 4,.LC62@ha
	mr 3,23
	la 4,.LC62@l(4)
	bl _ZN5idStr4IcmpEPKcS1_
	cmpwi 7,3,0
	bne- 7,.L374
	.loc 2 289 0
	li 21,1
.L397:
.LVL578:
	.loc 2 295 0 discriminator 4
	addis 30,29,0x1
.LBB2681:
.LBB2682:
.LBB2683:
.LBB2684:
	.loc 11 241 0 discriminator 4
	lis 31,.LC87@ha
.LBE2684:
.LBE2683:
.LBE2682:
.LBE2681:
	.loc 2 295 0 discriminator 4
	lwz 3,-32200(30)
.LBB2692:
.LBB2690:
.LBB2688:
.LBB2686:
	.loc 11 241 0 discriminator 4
	la 31,.LC87@l(31)
	mr 4,31
	addi 3,3,100
	bl _ZNK6idDict7FindKeyEPKc
.LVL579:
	.loc 11 242 0 discriminator 4
	cmpwi 0,3,0
	beq- 0,.L400
.LVL580:
.LBB2685:
	.loc 2 2405 0
	lwz 9,4(3)
	lwz 3,4(9)
.LVL581:
.L375:
.LBE2685:
.LBE2686:
.LBE2688:
	.loc 11 257 0
	bl atoi
.LBE2690:
.LBE2692:
	.loc 2 295 0
	cmpwi 7,3,0
	beq+ 7,.L376
	.loc 2 296 0
	lwz 30,-32200(30)
.LBB2693:
.LBB2694:
	.loc 11 197 0
	lis 3,.LC88@ha
	li 4,0
	la 3,.LC88@l(3)
	crxor 6,6,6
	bl _Z2vaPKcz
.LBE2694:
.LBE2693:
	.loc 2 296 0
	addi 30,30,100
.LVL582:
.LBB2696:
.LBB2695:
	.loc 11 197 0
	mr 5,3
	mr 4,31
	mr 3,30
	bl _ZN6idDict3SetEPKcS1_
.LVL583:
.LBE2695:
.LBE2696:
	.loc 2 297 0
	lwz 0,48(29)
	cmpwi 7,0,0
	ble- 7,.L376
.LBB2697:
.LBB2698:
	.loc 11 241 0
	lis 28,.LC89@ha
.LBE2698:
.LBE2697:
	.loc 2 299 0
	lis 25,EV_Player_SelectWeapon@ha
	.loc 2 297 0
	addi 30,29,528
.LVL584:
	li 31,0
.LBB2705:
.LBB2700:
	.loc 11 241 0
	la 28,.LC89@l(28)
.LBE2700:
.LBE2705:
.LBB2706:
.LBB2707:
	.loc 14 67 0
	li 24,115
.LBE2707:
.LBE2706:
	.loc 2 299 0
	la 25,EV_Player_SelectWeapon@l(25)
	lis 26,.LC90@ha
.LBB2708:
.LBB2701:
	.loc 11 245 0
	lis 20,.LC3@ha
	b .L379
.LVL585:
.L412:
.LBB2699:
	.loc 2 2405 0
	lwz 9,4(3)
	lwz 0,4(9)
.LVL586:
.L378:
.LBE2699:
.LBE2701:
.LBE2708:
	.loc 2 299 0
	lfs 1,.LC90@l(26)
	mr 3,19
.LVL587:
	mr 4,25
	addi 5,1,8
	stw 24,8(1)
	stw 0,12(1)
	bl _ZN7idClass12PostEventSecEPK10idEventDeff10idEventArg
.LVL588:
.L377:
	.loc 2 297 0
	lwz 0,48(29)
	addi 31,31,1
.LVL589:
	cmpw 7,0,31
	ble- 7,.L376
.LVL590:
.L379:
	.loc 2 298 0
	lwzu 19,4(30)
.LBB2709:
.LBB2702:
	.loc 11 241 0
	mr 4,28
.LBE2702:
.LBE2709:
	.loc 2 298 0
	cmpwi 7,19,0
.LBB2710:
.LBB2703:
	.loc 11 241 0
	addi 3,19,100
.LBE2703:
.LBE2710:
	.loc 2 298 0
	beq- 7,.L377
.LVL591:
.LBB2711:
.LBB2704:
	.loc 11 241 0
	bl _ZNK6idDict7FindKeyEPKc
.LVL592:
	.loc 11 242 0
	cmpwi 0,3,0
	bne+ 0,.L412
	.loc 11 245 0
	la 0,.LC3@l(20)
	b .L378
.LVL593:
.L415:
.LBE2704:
.LBE2711:
	.loc 2 305 0 discriminator 2
	lis 4,.LC92@ha
	mr 3,23
	la 4,.LC92@l(4)
	li 5,5
	bl _ZN5idStr4CmpnEPKcS1_i
	cmpwi 7,3,0
	beq+ 7,.L380
	.loc 2 305 0 is_stmt 0 discriminator 3
	lis 4,.LC93@ha
	mr 3,23
	la 4,.LC93@l(4)
	li 5,5
	bl _ZN5idStr4CmpnEPKcS1_i
	cmpwi 7,3,0
	beq- 7,.L380
	.loc 2 310 0 is_stmt 1
	cmpwi 4,21,0
	beq- 4,.L398
	.loc 2 311 0
	lwz 0,4768(27)
	.loc 2 319 0
	mr 3,27
	.loc 2 311 0
	stw 0,188(27)
	.loc 2 318 0
	li 0,0
	ori 0,0,65535
	stw 0,4772(27)
	.loc 2 319 0
	bl _ZN8idPlayer12CacheWeaponsEv
.L399:
.LVL594:
	.loc 2 275 0 discriminator 4
	addi 30,27,4784
	li 31,0
	addi 28,27,4768
.LVL595:
.L385:
	.loc 2 328 0 discriminator 2
	mr 3,31
	bl _ZN8idWeapon17GetAmmoNameForNumEi
	mr 4,27
	mr 5,3
	mr 3,28
	bl _ZNK11idInventory19MaxAmmoForAmmoClassEP8idPlayerPKc
.LVL596:
	.loc 2 327 0 discriminator 2
	cmpwi 7,31,15
	.loc 2 328 0 discriminator 2
	stwu 3,4(30)
	.loc 2 327 0 discriminator 2
	addi 31,31,1
.LVL597:
	bne+ 7,.L385
	.loc 2 330 0
	beq- 4,.L371
	.loc 2 336 0
	lwz 0,4784(27)
	stw 0,4780(27)
.LVL598:
.L387:
	.loc 2 342 0
	lis 4,.LC98@ha
	mr 3,23
	la 4,.LC98@l(4)
	bl _ZN5idStr4IcmpEPKcS1_
	cmpwi 7,3,0
	beq- 7,.L413
	.loc 2 347 0
	lis 4,.LC100@ha
	mr 3,23
	la 4,.LC100@l(4)
	bl _ZN5idStr4IcmpEPKcS1_
	cmpwi 7,3,0
	beq- 7,.L414
	.loc 2 352 0
	lis 4,.LC101@ha
	mr 3,23
	la 4,.LC101@l(4)
	bl _ZN5idStr4IcmpEPKcS1_
	cmpwi 7,3,0
	bne- 7,.L390
.LVL599:
.LBB2712:
.LBB2713:
	.loc 6 50 0
	lwz 0,0(22)
	cmpwi 7,0,2
	ble- 7,.L402
	lwz 4,12(22)
.L391:
.LBE2713:
.LBE2712:
	.loc 2 353 0
	mr 3,27
	li 5,0
	bl _ZN8idPlayer7GivePDAEPKcP6idDict
.LVL600:
.L371:
.LBE2735:
	.loc 2 365 0
	lwz 0,84(1)
	lwz 12,24(1)
	mtlr 0
	lwz 19,28(1)
	lwz 20,32(1)
	mtcrf 8,12
	lwz 21,36(1)
	lwz 22,40(1)
.LVL601:
	lwz 23,44(1)
	lwz 24,48(1)
	lwz 25,52(1)
	lwz 26,56(1)
	lwz 27,60(1)
.LVL602:
	lwz 28,64(1)
	lwz 29,68(1)
	lwz 30,72(1)
	lwz 31,76(1)
	addi 1,1,80
	.cfi_remember_state
.LCFI186:
	.cfi_def_cfa_offset 0
	.cfi_restore 70
	.cfi_restore 31
	.cfi_restore 30
	.cfi_restore 29
	.cfi_restore 28
	.cfi_restore 27
	.cfi_restore 26
	.cfi_restore 25
	.cfi_restore 24
	.cfi_restore 23
	.cfi_restore 22
	.cfi_restore 21
	.cfi_restore 20
	.cfi_restore 19
	blr
.LVL603:
.L374:
.LCFI187:
	.cfi_restore_state
.LBB2736:
	.loc 2 294 0
	lis 4,.LC104@ha
	mr 3,23
	la 4,.LC104@l(4)
	li 5,6
	bl _ZN5idStr4CmpnEPKcS1_i
	.loc 2 291 0
	li 21,0
	.loc 2 294 0
	cmpwi 7,3,0
	beq- 7,.L397
.LVL604:
.L376:
	.loc 2 305 0
	lis 4,.LC91@ha
	mr 3,23
	la 4,.LC91@l(4)
	li 5,7
	bl _ZN5idStr4CmpnEPKcS1_i
	cmpwi 7,3,0
	bne- 7,.L415
.L380:
	.loc 2 306 0 discriminator 5
	mr 3,27
	mr 4,23
	bl _ZN8idPlayer8GiveItemEPKc
	.loc 2 307 0 discriminator 5
	b .L371
.L411:
.LBB2715:
.LBB2680:
	.loc 6 50 0
	lis 23,.LC3@ha
	la 23,.LC3@l(23)
	b .L396
.LVL605:
.L400:
.LBE2680:
.LBE2715:
.LBB2716:
.LBB2691:
.LBB2689:
.LBB2687:
	.loc 11 245 0
	lis 3,.LC86@ha
.LVL606:
	la 3,.LC86@l(3)
	b .L375
.LVL607:
.L398:
.LBE2687:
.LBE2689:
.LBE2691:
.LBE2716:
	.loc 2 310 0 discriminator 2
	lis 4,.LC94@ha
	mr 3,23
	la 4,.LC94@l(4)
	bl _ZN5idStr4IcmpEPKcS1_
	cmpwi 7,3,0
	bne- 7,.L382
	.loc 2 311 0 discriminator 4
	lwz 0,4768(27)
	stw 0,188(27)
	b .L371
.L382:
	.loc 2 317 0 discriminator 2
	lis 4,.LC95@ha
	mr 3,23
	la 4,.LC95@l(4)
	bl _ZN5idStr4IcmpEPKcS1_
	cmpwi 7,3,0
	bne- 7,.L416
	.loc 2 318 0
	li 0,0
	.loc 2 319 0
	mr 3,27
	.loc 2 318 0
	ori 0,0,65535
	stw 0,4772(27)
	.loc 2 319 0
	bl _ZN8idPlayer12CacheWeaponsEv
	b .L371
.L416:
	.loc 2 326 0 discriminator 2
	lis 4,.LC96@ha
	mr 3,23
	la 4,.LC96@l(4)
	bl _ZN5idStr4IcmpEPKcS1_
	cmpwi 7,3,0
	beq- 7,.L399
	.loc 2 335 0 discriminator 2
	lis 4,.LC97@ha
	mr 3,23
	la 4,.LC97@l(4)
	bl _ZN5idStr4IcmpEPKcS1_
	cmpwi 7,3,0
	bne- 7,.L387
	.loc 2 336 0 discriminator 4
	lwz 0,4784(27)
	stw 0,4780(27)
	b .L371
.L413:
.LVL608:
	.loc 2 343 0
	lis 9,.LC99@ha
	mr 3,27
	lfs 0,.LC99@l(9)
	lis 9,_ZN6idMath8M_SEC2MSE@ha
	lfs 13,_ZN6idMath8M_SEC2MSE@l(9)
	addi 9,1,20
	li 4,0
	fmuls 0,13,0
	fctiwz 0,0
	stfiwx 0,0,9
	lwz 5,20(1)
	bl _ZN8idPlayer11GivePowerUpEii
	.loc 2 344 0
	b .L371
.LVL609:
.L414:
	.loc 2 348 0
	lis 9,.LC99@ha
	mr 3,27
	lfs 0,.LC99@l(9)
	lis 9,_ZN6idMath8M_SEC2MSE@ha
	lfs 13,_ZN6idMath8M_SEC2MSE@l(9)
	addi 9,1,16
	li 4,1
	fmuls 0,13,0
	fctiwz 0,0
	stfiwx 0,0,9
	lwz 5,16(1)
	bl _ZN8idPlayer11GivePowerUpEii
	.loc 2 349 0
	b .L371
.LVL610:
.L390:
	.loc 2 357 0
	lis 4,.LC102@ha
	mr 3,23
	la 4,.LC102@l(4)
	bl _ZN5idStr4IcmpEPKcS1_
	cmpwi 7,3,0
	bne- 7,.L392
.LVL611:
.LBB2717:
.LBB2718:
	.loc 6 50 0
	lwz 0,0(22)
	cmpwi 7,0,2
	ble- 7,.L403
	lwz 4,12(22)
.L393:
.LBE2718:
.LBE2717:
	.loc 2 358 0
	mr 3,27
	li 5,0
	bl _ZN8idPlayer9GiveVideoEPKcP6idDict
	.loc 2 359 0
	b .L371
.LVL612:
.L402:
.LBB2720:
.LBB2714:
	.loc 6 50 0
	lis 4,.LC3@ha
	la 4,.LC3@l(4)
	b .L391
.LVL613:
.L392:
.LBE2714:
.LBE2720:
	.loc 2 362 0
	bne- 4,.L371
.LVL614:
.LBB2721:
.LBB2722:
	.loc 6 50 0
	lwz 0,0(22)
	cmpwi 7,0,1
	ble- 7,.L404
.LBE2722:
.LBE2721:
.LBB2725:
.LBB2726:
	cmpwi 7,0,2
.LBE2726:
.LBE2725:
.LBB2729:
.LBB2723:
	lwz 4,8(22)
.LVL615:
.LBE2723:
.LBE2729:
.LBB2730:
.LBB2727:
	beq- 7,.L405
	lwz 5,12(22)
.LVL616:
.L394:
.LBE2727:
.LBE2730:
	.loc 2 362 0
	mr 3,27
	bl _ZN8idPlayer4GiveEPKcS1_
	cmpwi 7,3,0
	bne- 7,.L371
	.loc 2 363 0 discriminator 4
	lis 4,.LC103@ha
	mr 3,29
	la 4,.LC103@l(4)
	crxor 6,6,6
	bl _ZNK11idGameLocal6PrintfEPKcz
	b .L371
.LVL617:
.L403:
.LBB2731:
.LBB2719:
	.loc 6 50 0
	lis 4,.LC3@ha
	la 4,.LC3@l(4)
	b .L393
.LVL618:
.L405:
.LBE2719:
.LBE2731:
.LBB2732:
.LBB2728:
	lis 5,.LC3@ha
	la 5,.LC3@l(5)
	b .L394
.LVL619:
.L404:
.LBE2728:
.LBE2732:
.LBB2733:
.LBB2724:
	lis 4,.LC3@ha
	la 4,.LC3@l(4)
	mr 5,4
	b .L394
.LBE2724:
.LBE2733:
.LBE2736:
	.cfi_endproc
.LFE2820:
	.size	_Z10Cmd_Give_fRK9idCmdArgs, .-_Z10Cmd_Give_fRK9idCmdArgs
	.align 2
	.type	_ZL19Cmd_ShowViewNotes_fRK9idCmdArgs, @function
_ZL19Cmd_ShowViewNotes_fRK9idCmdArgs:
.LFB2880:
	.loc 2 2057 0
	.cfi_startproc
	.cfi_personality 0,__gxx_personality_v0
	.cfi_lsda 0,.LLSDA2880
.LVL620:
	stwu 1,-216(1)
.LCFI188:
	.cfi_def_cfa_offset 216
	mflr 0
	stw 28,200(1)
.LBB2803:
	.loc 2 2058 0
	lis 28,.LANCHOR0@ha
	.cfi_offset 28, -16
	.cfi_register 65, 0
.LBE2803:
	.loc 2 2057 0
	stw 29,204(1)
.LBB2931:
	.loc 2 2058 0
	la 29,.LANCHOR0@l(28)
	.cfi_offset 29, -12
.LBE2931:
	.loc 2 2057 0
	stw 31,212(1)
.LBB2932:
	.loc 2 2058 0
	addi 31,29,4824
	.cfi_offset 31, -4
.LBE2932:
	.loc 2 2057 0
	stw 30,208(1)
	mr 30,3
	.cfi_offset 30, -8
.LBB2933:
	.loc 2 2058 0
	mr 3,31
.LVL621:
.LBE2933:
	.loc 2 2057 0
	stw 0,220(1)
	stw 25,188(1)
	stw 26,192(1)
	stw 27,196(1)
.LBB2934:
	.loc 2 2058 0
	.cfi_offset 27, -20
	.cfi_offset 26, -24
	.cfi_offset 25, -28
	.cfi_offset 65, 4
	bl __cxa_guard_acquire
	cmpwi 7,3,0
	beq- 7,.L418
	.loc 2 2058 0 is_stmt 0 discriminator 1
	mr 3,29
	li 4,156
.LEHB27:
	bl _ZN7idLexerC1Ei
.LEHE27:
	.loc 2 2058 0 discriminator 2
	mr 3,31
	bl __cxa_guard_release
	lis 3,__tcf_0@ha
	la 3,__tcf_0@l(3)
	bl atexit
.L418:
.LVL622:
	.loc 2 2064 0 is_stmt 1
	lis 27,gameLocal@ha
.LBB2804:
.LBB2805:
.LBB2806:
.LBB2807:
	.loc 10 357 0
	li 9,20
.LBE2807:
.LBE2806:
.LBE2805:
.LBE2804:
	.loc 2 2064 0
	la 27,gameLocal@l(27)
.LBB2814:
.LBB2812:
.LBB2810:
.LBB2808:
	.loc 10 356 0
	li 0,0
	.loc 10 357 0
	stw 9,112(1)
.LBE2808:
.LBE2810:
.LBE2812:
.LBE2814:
	.loc 2 2064 0
	mr 3,27
.LBB2815:
.LBB2813:
.LBB2811:
.LBB2809:
	.loc 10 358 0
	addi 9,1,116
	.loc 10 356 0
	stw 0,104(1)
	.loc 10 358 0
	stw 9,108(1)
	addi 31,1,104
	.loc 10 359 0
	stb 0,116(1)
.LEHB28:
.LBE2809:
.LBE2811:
.LBE2813:
.LBE2815:
	.loc 2 2064 0
	bl _ZNK11idGameLocal14GetLocalPlayerEv
.LEHE28:
.LVL623:
	.loc 2 2066 0
	mr. 26,3
	beq- 0,.L467
.LBB2816:
	.loc 2 2070 0
	lwz 0,.LANCHOR0@l(28)
	cmpwi 7,0,0
	bne- 7,.L420
.LVL624:
.LBB2817:
.LBB2818:
.LBB2819:
.LBB2820:
.LBB2821:
	.loc 10 415 0
	lis 11,.LC105@ha
.LBE2821:
.LBE2820:
	.loc 10 416 0
	mr 28,1
.LBB2826:
.LBB2822:
	.loc 10 415 0
	la 9,.LC105@l(11)
	lwz 8,.LC105@l(11)
	lbz 0,10(9)
	.loc 10 357 0
	li 7,20
	.loc 10 415 0
	lwz 10,4(9)
.LBE2822:
.LBE2826:
.LBE2819:
.LBE2818:
	.loc 2 2072 0
	mr 3,27
.LVL625:
.LBB2831:
.LBB2830:
.LBB2827:
.LBB2823:
	.loc 10 415 0
	lhz 11,8(9)
	.loc 10 358 0
	addi 9,1,44
	.loc 10 415 0
	stb 0,10(9)
.LBE2823:
.LBE2827:
	.loc 10 416 0
	li 0,10
.LBB2828:
.LBB2824:
	.loc 10 415 0
	stw 10,4(9)
	sth 11,8(9)
.LBE2824:
.LBE2828:
	.loc 10 416 0
	stwu 0,32(28)
.LBB2829:
.LBB2825:
	.loc 10 357 0
	stw 7,40(1)
	.loc 10 358 0
	stw 9,36(1)
.LVL626:
	.loc 10 415 0
	stw 8,44(1)
.LEHB29:
.LBE2825:
.LBE2829:
.LBE2830:
.LBE2831:
	.loc 2 2072 0
	bl _ZNK11idGameLocal10GetMapNameEv
.LVL627:
.LBB2832:
.LBB2833:
.LBB2834:
	.loc 10 774 0
	mr. 31,3
	addi 28,1,32
	beq- 0,.L421
	.loc 10 775 0
	bl strlen
.LVL628:
	lwz 25,32(1)
.LBB2835:
.LBB2836:
	.loc 10 350 0
	lwz 0,40(1)
	addi 28,1,32
.LBE2836:
.LBE2835:
	.loc 10 775 0
	add 25,3,25
.LVL629:
	.loc 10 776 0
	addi 4,25,1
.LVL630:
.LBB2839:
.LBB2837:
	.loc 10 350 0
	cmpw 7,4,0
	bgt- 7,.L468
.LVL631:
.L422:
.LBE2837:
.LBE2839:
	.loc 10 777 0
	lbz 0,0(31)
	cmpwi 7,0,0
	beq- 7,.L423
	li 9,0
.LVL632:
.L424:
	.loc 10 778 0
	lwz 11,32(1)
	lwz 10,36(1)
	add 11,10,11
	stbx 0,11,9
	.loc 10 777 0
	addi 9,9,1
.LVL633:
	lbzx 0,31,9
	cmpwi 7,0,0
	bne+ 7,.L424
.LVL634:
.L423:
	.loc 10 781 0
	lwz 9,36(1)
	li 0,0
	.loc 10 780 0
	stw 25,32(1)
	.loc 10 781 0
	stbx 0,9,25
.LVL635:
.L421:
.LBE2834:
.LBE2833:
.LBE2832:
	.loc 2 2073 0
	mr 3,28
	bl _ZN5idStr18StripFileExtensionEv
.LVL636:
.LBB2843:
.LBB2844:
.LBB2845:
	.loc 10 775 0
	lwz 11,32(1)
.LBB2846:
.LBB2847:
	.loc 10 350 0
	lwz 0,40(1)
.LBE2847:
.LBE2846:
	.loc 10 775 0
	addi 31,11,1
.LVL637:
	.loc 10 776 0
	addi 4,31,1
.LVL638:
.LBB2850:
.LBB2848:
	.loc 10 350 0
	cmpw 7,4,0
	bgt- 7,.L469
.LBE2848:
.LBE2850:
	.loc 10 778 0
	lwz 9,36(1)
	li 0,47
	stbx 0,9,11
.LVL639:
	.loc 10 781 0
	li 0,0
	.loc 10 780 0
	stw 31,32(1)
	.loc 10 781 0
	lwz 9,36(1)
	stbx 0,9,31
.LBE2845:
.LBE2844:
.LBE2843:
	.loc 2 2075 0
	lwz 0,0(30)
	cmpwi 7,0,1
	ble- 7,.L426
.LVL640:
.L472:
.LBB2854:
.LBB2855:
	.loc 6 50 0
	lwz 31,8(30)
.LVL641:
.LBE2855:
.LBE2854:
.LBB2856:
.LBB2857:
.LBB2858:
	.loc 10 774 0
	cmpwi 7,31,0
	beq- 7,.L427
	.loc 10 775 0
	mr 3,31
	bl strlen
.LVL642:
	lwz 30,32(1)
.LVL643:
.LBB2859:
.LBB2860:
	.loc 10 350 0
	lwz 0,40(1)
.LBE2860:
.LBE2859:
	.loc 10 775 0
	add 30,3,30
.LVL644:
	.loc 10 776 0
	addi 4,30,1
.LVL645:
.LBB2863:
.LBB2861:
	.loc 10 350 0
	cmpw 7,4,0
	bgt- 7,.L470
.LVL646:
.L428:
.LBE2861:
.LBE2863:
	.loc 10 777 0
	lbz 0,0(31)
	cmpwi 7,0,0
	beq- 7,.L429
	li 9,0
.LVL647:
.L430:
	.loc 10 778 0
	lwz 11,32(1)
	lwz 10,36(1)
	add 11,10,11
	stbx 0,11,9
	.loc 10 777 0
	addi 9,9,1
.LVL648:
	lbzx 0,31,9
	cmpwi 7,0,0
	bne+ 7,.L430
.LVL649:
.L429:
	.loc 10 781 0
	lwz 9,36(1)
	li 0,0
	.loc 10 780 0
	stw 30,32(1)
	.loc 10 781 0
	stbx 0,9,30
.LVL650:
.L427:
.LBE2858:
.LBE2857:
.LBE2856:
	.loc 2 2080 0
	lis 4,.LC107@ha
	mr 3,28
	la 4,.LC107@l(4)
	bl _ZN5idStr16SetFileExtensionEPKc
.LVL651:
	.loc 2 2081 0
	lwz 4,4(28)
	mr 3,29
	li 5,0
	bl _ZN7idLexer8LoadFileEPKcb
	cmpwi 7,3,0
	bne- 7,.L435
	.loc 2 2082 0
	mr 3,27
	bl _ZNK11idGameLocal10GetMapNameEv
	lis 4,.LC108@ha
	mr 5,3
	la 4,.LC108@l(4)
	mr 3,27
	crxor 6,6,6
	bl _ZNK11idGameLocal6PrintfEPKcz
.LEHE29:
.LVL652:
.LBB2871:
.LBB2872:
.LBB2873:
	.loc 10 501 0
	mr 3,28
	addi 31,1,104
.LEHB30:
	bl _ZN5idStr8FreeDataEv
.LEHE30:
.LVL653:
.L467:
	addi 31,1,104
.LVL654:
.LBE2873:
.LBE2872:
.LBE2871:
.LBE2817:
.LBE2816:
.LBB2908:
.LBB2909:
.LBB2910:
.LBB2911:
.LBB2912:
	mr 3,31
.LEHB31:
	bl _ZN5idStr8FreeDataEv
.LEHE31:
.LBE2912:
.LBE2911:
.LBE2910:
.LBE2909:
.LBE2908:
.LBE2934:
	.loc 2 2097 0
	lwz 0,220(1)
	lwz 25,188(1)
	mtlr 0
	lwz 26,192(1)
.LVL655:
	lwz 27,196(1)
	lwz 28,200(1)
	lwz 29,204(1)
	lwz 30,208(1)
	lwz 31,212(1)
	addi 1,1,216
	.cfi_remember_state
	.cfi_restore 25
	.cfi_restore 26
	.cfi_restore 27
	.cfi_restore 28
	.cfi_restore 29
	.cfi_restore 30
	.cfi_restore 31
.LCFI189:
	.cfi_def_cfa_offset 0
	blr
.LVL656:
.L435:
.LCFI190:
	.cfi_restore_state
.LBB2935:
.LBB2921:
.LBB2905:
.LBB2874:
.LBB2875:
.LBB2876:
	.loc 10 501 0
	mr 3,28
	addi 31,1,104
.LEHB32:
	bl _ZN5idStr8FreeDataEv
.LVL657:
.L420:
.LBE2876:
.LBE2875:
.LBE2874:
.LBE2905:
.LBE2921:
	.loc 2 2087 0
	lis 4,.LC109@ha
	mr 3,29
	la 4,.LC109@l(4)
	addi 31,1,104
	bl _ZN7idLexer17ExpectTokenStringEPKc
	cmpwi 7,3,0
	addi 31,1,104
	bne- 7,.L471
.L437:
	.loc 2 2093 0
	mr 3,29
	bl _ZN7idLexer10FreeSourceEv
	.loc 2 2094 0
	lwz 3,5140(26)
	lis 4,.LC4@ha
	la 4,.LC4@l(4)
	lwz 9,0(3)
	lwz 0,36(9)
	mtctr 0
	bctrl
.LEHE32:
.LVL658:
.LBB2922:
.LBB2919:
.LBB2917:
.LBB2915:
.LBB2913:
	.loc 10 501 0
	mr 3,31
.LEHB33:
	bl _ZN5idStr8FreeDataEv
.LEHE33:
.LBE2913:
.LBE2915:
.LBE2917:
.LBE2919:
.LBE2922:
.LBE2935:
	.loc 2 2097 0
	lwz 0,220(1)
	lwz 25,188(1)
	mtlr 0
	lwz 26,192(1)
.LVL659:
	lwz 27,196(1)
	lwz 28,200(1)
	lwz 29,204(1)
	lwz 30,208(1)
	lwz 31,212(1)
	addi 1,1,216
	.cfi_remember_state
.LCFI191:
	.cfi_def_cfa_offset 0
	.cfi_restore 31
	.cfi_restore 30
	.cfi_restore 29
	.cfi_restore 28
	.cfi_restore 27
	.cfi_restore 26
	.cfi_restore 25
	blr
.LVL660:
.L471:
.LCFI192:
	.cfi_restore_state
.LBB2936:
	.loc 2 2087 0
	mr 3,29
	li 4,3
	addi 5,1,20
.LEHB34:
	bl _ZN7idLexer13Parse1DMatrixEiPf
	cmpwi 7,3,0
	addi 31,1,104
	beq+ 7,.L437
.LVL661:
	.loc 2 2088 0
	mr 3,29
	li 4,9
	addi 5,1,64
	bl _ZN7idLexer13Parse1DMatrixEiPf
	.loc 2 2087 0
	cmpwi 7,3,0
	addi 31,1,104
	beq+ 7,.L437
	.loc 2 2088 0
	lis 4,.LC106@ha
	mr 3,29
	la 4,.LC106@l(4)
	bl _ZN7idLexer17ExpectTokenStringEPKc
	.loc 2 2087 0
	cmpwi 7,3,0
	addi 31,1,104
	beq+ 7,.L437
	.loc 2 2088 0
	mr 3,29
	mr 4,31
	bl _ZN7idLexer9ReadTokenEP7idToken
	.loc 2 2087 0
	cmpwi 7,3,0
	beq- 7,.L437
	.loc 2 2089 0 discriminator 4
	lwz 3,5140(26)
.LVL662:
	lis 4,.LC2@ha
	la 4,.LC2@l(4)
	lwz 5,4(31)
	lwz 9,0(3)
	lwz 0,56(9)
	mtctr 0
	bctrl
	.loc 2 2090 0
	lwz 3,5140(26)
	lis 4,.LC110@ha
	la 4,.LC110@l(4)
	lwz 9,0(3)
	lwz 0,36(9)
	mtctr 0
	bctrl
	.loc 2 2091 0
	lwz 9,0(26)
	addi 3,1,8
	addi 4,1,64
	lwz 30,200(9)
	bl _ZNK6idMat38ToAnglesEv
	.loc 2 2091 0 is_stmt 0 discriminator 1
	mr 3,26
	addi 4,1,20
	addi 5,1,8
	li 6,0
	mtctr 30
	bctrl
.LEHE34:
.LVL663:
.LBB2923:
.LBB2920:
.LBB2918:
.LBB2916:
.LBB2914:
	.loc 10 501 0 is_stmt 1
	mr 3,31
.LEHB35:
	bl _ZN5idStr8FreeDataEv
.LEHE35:
.LBE2914:
.LBE2916:
.LBE2918:
.LBE2920:
.LBE2923:
.LBE2936:
	.loc 2 2097 0
	lwz 0,220(1)
	lwz 25,188(1)
	mtlr 0
	lwz 26,192(1)
.LVL664:
	lwz 27,196(1)
	lwz 28,200(1)
	lwz 29,204(1)
	lwz 30,208(1)
	lwz 31,212(1)
	addi 1,1,216
	.cfi_remember_state
	.cfi_restore 25
	.cfi_restore 26
	.cfi_restore 27
	.cfi_restore 28
	.cfi_restore 29
	.cfi_restore 30
	.cfi_restore 31
.LCFI193:
	.cfi_def_cfa_offset 0
	blr
.LVL665:
.L469:
.LCFI194:
	.cfi_restore_state
.LBB2937:
.LBB2924:
.LBB2906:
.LBB2877:
.LBB2853:
.LBB2852:
.LBB2851:
.LBB2849:
	.loc 10 351 0
	mr 3,28
	li 5,1
.LEHB36:
	bl _ZN5idStr10ReAllocateEib
.LVL666:
	lwz 11,32(1)
.LBE2849:
.LBE2851:
	.loc 10 778 0
	li 0,47
	lwz 9,36(1)
	stbx 0,9,11
.LVL667:
	.loc 10 781 0
	li 0,0
	.loc 10 780 0
	stw 31,32(1)
	.loc 10 781 0
	lwz 9,36(1)
	stbx 0,9,31
.LBE2852:
.LBE2853:
.LBE2877:
	.loc 2 2075 0
	lwz 0,0(30)
	cmpwi 7,0,1
	bgt+ 7,.L472
.L426:
.LVL668:
.LBB2878:
.LBB2879:
.LBB2880:
	.loc 10 775 0
	lwz 11,32(1)
.LBB2881:
.LBB2882:
	.loc 10 350 0
	lwz 0,40(1)
.LBE2882:
.LBE2881:
	.loc 10 776 0
	addi 4,11,9
	.loc 10 775 0
	addi 31,11,8
.LVL669:
.LBB2886:
.LBB2883:
	.loc 10 350 0
	cmpw 7,4,0
	bgt- 7,.L431
.LVL670:
.L433:
	lis 10,.LC106@ha
.LBE2883:
.LBE2886:
.LBE2880:
.LBE2879:
.LBE2878:
.LBB2895:
.LBB2868:
.LBB2865:
	.loc 10 777 0
	li 0,99
.LBE2865:
.LBE2868:
.LBE2895:
.LBB2896:
.LBB2892:
.LBB2889:
.LBB2887:
.LBB2884:
	.loc 10 350 0
	la 10,.LC106@l(10)
.LBE2884:
.LBE2887:
.LBE2889:
.LBE2892:
.LBE2896:
.LBB2897:
.LBB2869:
.LBB2866:
	.loc 10 777 0
	li 9,0
	b .L432
.LVL671:
.L473:
.LBE2866:
.LBE2869:
.LBE2897:
.LBB2898:
.LBB2893:
.LBB2890:
	lwz 11,32(1)
.LVL672:
.L432:
	.loc 10 778 0
	lwz 8,36(1)
	add 8,8,9
	.loc 10 777 0
	addi 9,9,1
.LVL673:
	.loc 10 778 0
	stbx 0,8,11
	.loc 10 777 0
	lbzu 0,1(10)
	cmpwi 7,0,0
	bne+ 7,.L473
	.loc 10 781 0
	lwz 9,36(1)
.LVL674:
	.loc 10 780 0
	stw 31,32(1)
	.loc 10 781 0
	stbx 0,9,31
	b .L427
.LVL675:
.L468:
.LBE2890:
.LBE2893:
.LBE2898:
.LBB2899:
.LBB2842:
.LBB2841:
.LBB2840:
.LBB2838:
	.loc 10 351 0
	mr 3,28
	li 5,1
	bl _ZN5idStr10ReAllocateEib
.LVL676:
	b .L422
.LVL677:
.L470:
.LBE2838:
.LBE2840:
.LBE2841:
.LBE2842:
.LBE2899:
.LBB2900:
.LBB2870:
.LBB2867:
.LBB2864:
.LBB2862:
	mr 3,28
	li 5,1
	bl _ZN5idStr10ReAllocateEib
.LVL678:
	b .L428
.LVL679:
.L431:
.LBE2862:
.LBE2864:
.LBE2867:
.LBE2870:
.LBE2900:
.LBB2901:
.LBB2894:
.LBB2891:
.LBB2888:
.LBB2885:
	mr 3,28
	li 5,1
	bl _ZN5idStr10ReAllocateEib
.LEHE36:
.LVL680:
	lwz 11,32(1)
	b .L433
.LVL681:
.L450:
	mr 30,3
.LVL682:
.LBE2885:
.LBE2888:
.LBE2891:
.LBE2894:
.LBE2901:
.LBE2906:
.LBE2924:
	.loc 2 2058 0
	mr 3,31
	bl __cxa_guard_abort
	mr 3,30
.LEHB37:
	bl _Unwind_Resume
.LEHE37:
.LVL683:
.L451:
	mr 30,3
.L446:
.LVL684:
.LBB2925:
.LBB2926:
.LBB2927:
.LBB2928:
.LBB2929:
	.loc 10 501 0
	mr 3,31
	bl _ZN5idStr8FreeDataEv
	mr 3,30
.LEHB38:
	bl _Unwind_Resume
.LEHE38:
.LVL685:
.L452:
	mr 30,3
.LVL686:
.LBE2929:
.LBE2928:
.LBE2927:
.LBE2926:
.LBE2925:
.LBB2930:
.LBB2907:
.LBB2902:
.LBB2903:
.LBB2904:
	mr 3,28
	bl _ZN5idStr8FreeDataEv
	addi 31,1,104
	b .L446
.LBE2904:
.LBE2903:
.LBE2902:
.LBE2907:
.LBE2930:
.LBE2937:
	.cfi_endproc
.LFE2880:
	.section	.gcc_except_table
.LLSDA2880:
	.byte	0xff
	.byte	0xff
	.byte	0x1
	.uleb128 .LLSDACSE2880-.LLSDACSB2880
.LLSDACSB2880:
	.uleb128 .LEHB27-.LFB2880
	.uleb128 .LEHE27-.LEHB27
	.uleb128 .L450-.LFB2880
	.uleb128 0
	.uleb128 .LEHB28-.LFB2880
	.uleb128 .LEHE28-.LEHB28
	.uleb128 .L451-.LFB2880
	.uleb128 0
	.uleb128 .LEHB29-.LFB2880
	.uleb128 .LEHE29-.LEHB29
	.uleb128 .L452-.LFB2880
	.uleb128 0
	.uleb128 .LEHB30-.LFB2880
	.uleb128 .LEHE30-.LEHB30
	.uleb128 .L451-.LFB2880
	.uleb128 0
	.uleb128 .LEHB31-.LFB2880
	.uleb128 .LEHE31-.LEHB31
	.uleb128 0
	.uleb128 0
	.uleb128 .LEHB32-.LFB2880
	.uleb128 .LEHE32-.LEHB32
	.uleb128 .L451-.LFB2880
	.uleb128 0
	.uleb128 .LEHB33-.LFB2880
	.uleb128 .LEHE33-.LEHB33
	.uleb128 0
	.uleb128 0
	.uleb128 .LEHB34-.LFB2880
	.uleb128 .LEHE34-.LEHB34
	.uleb128 .L451-.LFB2880
	.uleb128 0
	.uleb128 .LEHB35-.LFB2880
	.uleb128 .LEHE35-.LEHB35
	.uleb128 0
	.uleb128 0
	.uleb128 .LEHB36-.LFB2880
	.uleb128 .LEHE36-.LEHB36
	.uleb128 .L452-.LFB2880
	.uleb128 0
	.uleb128 .LEHB37-.LFB2880
	.uleb128 .LEHE37-.LEHB37
	.uleb128 0
	.uleb128 0
	.uleb128 .LEHB38-.LFB2880
	.uleb128 .LEHE38-.LEHB38
	.uleb128 0
	.uleb128 0
.LLSDACSE2880:
	.section	".text"
	.size	_ZL19Cmd_ShowViewNotes_fRK9idCmdArgs, .-_ZL19Cmd_ShowViewNotes_fRK9idCmdArgs
	.align 2
	.type	_ZL21Cmd_RecordViewNotes_fRK9idCmdArgs, @function
_ZL21Cmd_RecordViewNotes_fRK9idCmdArgs:
.LFB2878:
	.loc 2 1997 0
	.cfi_startproc
	.cfi_personality 0,__gxx_personality_v0
	.cfi_lsda 0,.LLSDA2878
.LVL687:
	mflr 0
	stwu 1,-152(1)
.LCFI195:
	.cfi_def_cfa_offset 152
	.cfi_register 65, 0
	stw 30,144(1)
	mr 30,3
	.cfi_offset 30, -8
	stw 0,156(1)
	stw 25,124(1)
	stw 26,128(1)
	stw 27,132(1)
	stw 28,136(1)
	stw 29,140(1)
	stw 31,148(1)
.LBB3001:
	.loc 2 2002 0
	lwz 0,0(3)
	.cfi_offset 31, -4
	.cfi_offset 29, -12
	.cfi_offset 28, -16
	.cfi_offset 27, -20
	.cfi_offset 26, -24
	.cfi_offset 25, -28
	.cfi_offset 65, 4
	cmpwi 7,0,3
	bgt- 7,.L510
.LVL688:
.L474:
.LBE3001:
	.loc 2 2034 0
	lwz 0,156(1)
	lwz 25,124(1)
	mtlr 0
	lwz 26,128(1)
	lwz 27,132(1)
	lwz 28,136(1)
	lwz 29,140(1)
	lwz 30,144(1)
.LVL689:
	lwz 31,148(1)
	addi 1,1,152
	.cfi_remember_state
.LCFI196:
	.cfi_def_cfa_offset 0
	.cfi_restore 31
	.cfi_restore 30
	.cfi_restore 29
	.cfi_restore 28
	.cfi_restore 27
	.cfi_restore 26
	.cfi_restore 25
	blr
.LVL690:
.L510:
.LCFI197:
	.cfi_restore_state
.LBB3149:
	.loc 2 2006 0
	lis 3,gameLocal@ha
.LVL691:
	la 3,gameLocal@l(3)
.LEHB39:
	bl _ZNK11idGameLocal14GetLocalPlayerEv
.LVL692:
	.loc 2 2007 0
	mr. 28,3
	beq- 0,.L474
	.loc 2 2011 0
	lwz 9,0(28)
	addi 4,1,8
	addi 5,1,84
	lwz 0,256(9)
	mtctr 0
	bctrl
.LVL693:
.LBB3002:
.LBB3003:
	.loc 6 50 0
	lwz 0,0(30)
	cmpwi 7,0,1
	ble- 7,.L476
	lwz 31,8(30)
.LVL694:
.LBE3003:
.LBE3002:
.LBB3004:
.LBB3005:
.LBB3006:
.LBB3007:
	.loc 10 357 0
	li 9,20
	.loc 10 356 0
	li 0,0
	.loc 10 357 0
	stw 9,60(1)
.LBE3007:
.LBE3006:
	.loc 10 412 0
	cmpwi 7,31,0
.LBB3010:
.LBB3008:
	.loc 10 358 0
	addi 9,1,64
	.loc 10 356 0
	stw 0,52(1)
	.loc 10 358 0
	addi 27,1,52
	stw 9,56(1)
	.loc 10 359 0
	stb 0,64(1)
.LBE3008:
.LBE3010:
	.loc 10 412 0
	beq- 7,.L477
	.loc 2 1997 0
	mr 3,31
	bl strlen
.LVL695:
	addi 4,3,1
	mr 29,3
.LVL696:
.LBB3011:
.LBB3012:
	.loc 10 350 0
	cmpwi 7,4,20
	ble+ 7,.L478
	.loc 10 351 0
	mr 3,27
.LVL697:
	li 5,1
	bl _ZN5idStr10ReAllocateEib
.LEHE39:
.LVL698:
.L478:
.LBE3012:
.LBE3011:
	.loc 10 415 0
	lwz 3,56(1)
	mr 4,31
	bl strcpy
	.loc 10 416 0
	stw 29,52(1)
.LVL699:
.L477:
.LBE3005:
.LBE3004:
	.loc 2 2018 0
	lis 4,.LC107@ha
	mr 3,27
	la 4,.LC107@l(4)
.LEHB40:
	bl _ZN5idStr16SetFileExtensionEPKc
	.loc 2 2019 0
	lis 29,fileSystem@ha
	lis 6,.LC111@ha
	lwz 3,fileSystem@l(29)
.LVL700:
	li 5,0
	lwz 4,4(27)
	la 6,.LC111@l(6)
	lwz 9,0(3)
	lwz 0,120(9)
	mtctr 0
	bctrl
.LVL701:
	.loc 2 2020 0
	mr. 31,3
	beq- 0,.L479
	.loc 2 2021 0
	lwz 9,0(31)
	addi 3,1,8
.LVL702:
	li 4,2
	lwz 26,64(9)
	bl _ZNK6idVec38ToStringEi
	mr 25,3
	li 4,2
	addi 3,1,84
	bl _ZNK6idMat38ToStringEi
	.loc 2 2021 0 is_stmt 0 discriminator 1
	lis 4,.LC112@ha
	mr 6,3
	la 4,.LC112@l(4)
	mr 3,31
	mr 5,25
	mtctr 26
	crxor 6,6,6
	bctrl
.LBB3015:
.LBB3016:
	.loc 6 50 0 is_stmt 1
	lwz 9,0(30)
.LBE3016:
.LBE3015:
	.loc 2 2022 0
	lwz 11,0(31)
.LBB3020:
.LBB3017:
	.loc 6 50 0
	cmpwi 7,9,2
.LBE3017:
.LBE3020:
	.loc 2 2022 0
	lwz 0,64(11)
.LVL703:
.LBB3021:
.LBB3018:
	.loc 6 50 0
	bgt- 7,.L511
	lis 5,.LC3@ha
	la 5,.LC3@l(5)
	mr 6,5
.L480:
.LBE3018:
.LBE3021:
	.loc 2 2022 0
	lis 4,.LC113@ha
	mr 3,31
	la 4,.LC113@l(4)
	mtctr 0
	crxor 6,6,6
	bctrl
	.loc 2 2023 0
	lwz 3,fileSystem@l(29)
	mr 4,31
	lwz 9,0(3)
	lwz 0,136(9)
	mtctr 0
	bctrl
.LEHE40:
.LVL704:
.L479:
.LBB3022:
.LBB3023:
	.loc 6 50 0
	lwz 0,0(30)
	cmpwi 7,0,1
	ble- 7,.L481
	lwz 31,8(30)
.LVL705:
.LBE3023:
.LBE3022:
.LBB3024:
.LBB3025:
.LBB3026:
.LBB3027:
	.loc 10 357 0
	li 9,20
	.loc 10 356 0
	li 0,0
	.loc 10 357 0
	stw 9,28(1)
.LBE3027:
.LBE3026:
	.loc 10 412 0
	cmpwi 7,31,0
.LBB3032:
.LBB3028:
	.loc 10 358 0
	addi 9,1,32
	.loc 10 356 0
	stw 0,20(1)
	.loc 10 358 0
	addi 29,1,20
	stw 9,24(1)
	.loc 10 359 0
	stb 0,32(1)
.LBE3028:
.LBE3032:
	.loc 10 412 0
	beq- 7,.L482
	.loc 2 1997 0
	mr 3,31
	bl strlen
.LVL706:
	addi 4,3,1
	mr 26,3
.LVL707:
.LBB3033:
.LBB3034:
	.loc 10 350 0
	cmpwi 7,4,20
	bgt- 7,.L512
.LVL708:
.L483:
.LBE3034:
.LBE3033:
	.loc 10 415 0
	lwz 3,24(1)
	mr 4,31
	bl strcpy
	.loc 10 416 0
	stw 26,20(1)
.LVL709:
.L482:
.LBE3025:
.LBE3024:
	.loc 2 2027 0
	lis 4,.LC105@ha
	mr 3,29
	la 4,.LC105@l(4)
.LEHB41:
	bl _ZN5idStr12StripLeadingEPKc
.LVL710:
.LBB3044:
.LBB3045:
.LBB3046:
	.loc 10 775 0
	lwz 11,20(1)
.LBB3047:
.LBB3048:
	.loc 10 350 0
	lwz 0,28(1)
.LBE3048:
.LBE3047:
	.loc 10 776 0
	addi 4,11,10
	.loc 10 775 0
	addi 31,11,9
.LVL711:
.LBB3052:
.LBB3049:
	.loc 10 350 0
	cmpw 7,4,0
	bgt- 7,.L484
.LVL712:
.L486:
	lis 10,.LC114@ha
.LBE3049:
.LBE3052:
.LBE3046:
.LBE3045:
.LBE3044:
.LBB3065:
.LBB3040:
.LBB3036:
.LBB3029:
	.loc 6 50 0
	li 0,32
.LBE3029:
.LBE3036:
.LBE3040:
.LBE3065:
.LBB3066:
.LBB3060:
.LBB3055:
.LBB3053:
.LBB3050:
	.loc 10 350 0
	la 10,.LC114@l(10)
.LBE3050:
.LBE3053:
.LBE3055:
.LBE3060:
.LBE3066:
.LBB3067:
.LBB3041:
.LBB3037:
.LBB3030:
	.loc 6 50 0
	li 9,0
	b .L485
.LVL713:
.L513:
.LBE3030:
.LBE3037:
.LBE3041:
.LBE3067:
.LBB3068:
.LBB3061:
.LBB3056:
	.loc 10 777 0
	lwz 11,20(1)
.LVL714:
.L485:
	.loc 10 778 0
	lwz 8,24(1)
	add 11,8,11
	stbx 0,11,9
	.loc 10 777 0
	addi 9,9,1
.LVL715:
	lbzu 0,1(10)
	cmpwi 7,0,0
	bne+ 7,.L513
	.loc 10 781 0
	lwz 9,24(1)
.LVL716:
.LBE3056:
.LBE3061:
.LBE3068:
	.loc 2 2029 0
	addi 3,1,8
.LBB3069:
.LBB3062:
.LBB3057:
	.loc 10 780 0
	stw 31,20(1)
.LBE3057:
.LBE3062:
.LBE3069:
	.loc 2 2029 0
	li 4,2
.LBB3070:
.LBB3063:
.LBB3058:
	.loc 10 781 0
	stbx 0,9,31
.LBE3058:
.LBE3063:
.LBE3070:
	.loc 2 2029 0
	bl _ZNK6idVec38ToStringEi
.LVL717:
.LBB3071:
.LBB3072:
.LBB3073:
	.loc 10 774 0
	mr. 31,3
.LVL718:
	beq- 0,.L488
	.loc 10 775 0
	bl strlen
.LVL719:
	lwz 26,20(1)
.LBB3074:
.LBB3075:
	.loc 10 350 0
	lwz 0,28(1)
.LBE3075:
.LBE3074:
	.loc 10 775 0
	add 26,3,26
.LVL720:
	.loc 10 776 0
	addi 4,26,1
.LVL721:
.LBB3078:
.LBB3076:
	.loc 10 350 0
	cmpw 7,4,0
	bgt- 7,.L514
.LVL722:
.L489:
.LBE3076:
.LBE3078:
	.loc 10 777 0
	lbz 0,0(31)
	cmpwi 7,0,0
	beq- 7,.L490
	li 9,0
.LVL723:
.L491:
	.loc 10 778 0
	lwz 11,20(1)
	lwz 10,24(1)
	add 11,10,11
	stbx 0,11,9
	.loc 10 777 0
	addi 9,9,1
.LVL724:
	lbzx 0,31,9
	cmpwi 7,0,0
	bne+ 7,.L491
.LVL725:
.L490:
	.loc 10 781 0
	lwz 9,24(1)
	li 0,0
	.loc 10 780 0
	stw 26,20(1)
	.loc 10 781 0
	stbx 0,9,26
.LVL726:
.L488:
.LBE3073:
.LBE3072:
.LBE3071:
.LBB3082:
.LBB3083:
.LBB3084:
	.loc 10 775 0
	lwz 11,20(1)
.LBB3085:
.LBB3086:
	.loc 10 350 0
	lwz 0,28(1)
.LBE3086:
.LBE3085:
	.loc 10 775 0
	addi 31,11,1
.LVL727:
	.loc 10 776 0
	addi 4,31,1
.LVL728:
.LBB3089:
.LBB3087:
	.loc 10 350 0
	cmpw 7,4,0
	bgt- 7,.L515
.LVL729:
.L492:
.LBE3087:
.LBE3089:
	.loc 10 778 0
	lwz 9,24(1)
	li 0,10
	stbx 0,9,11
.LVL730:
	.loc 10 781 0
	li 0,0
	.loc 10 780 0
	stw 31,20(1)
	.loc 10 781 0
	lwz 9,24(1)
	stbx 0,9,31
.LVL731:
.LBE3084:
.LBE3083:
.LBE3082:
.LBB3093:
.LBB3094:
	.loc 6 50 0
	lwz 0,0(30)
	cmpwi 7,0,3
	ble- 7,.L505
	lwz 31,16(30)
.LVL732:
.LBE3094:
.LBE3093:
.LBB3098:
.LBB3099:
.LBB3100:
	.loc 10 774 0
	cmpwi 7,31,0
	beq- 7,.L494
	.loc 2 1997 0
	mr 3,31
	bl strlen
.LVL733:
	.loc 10 775 0
	lwz 30,20(1)
.LVL734:
.LBB3101:
.LBB3102:
	.loc 10 350 0
	lwz 0,28(1)
.LBE3102:
.LBE3101:
	.loc 10 775 0
	add 30,3,30
.LVL735:
	.loc 10 776 0
	addi 4,30,1
.LVL736:
.LBB3106:
.LBB3103:
	.loc 10 350 0
	cmpw 7,4,0
	bgt- 7,.L516
.LVL737:
.L495:
.LBE3103:
.LBE3106:
	.loc 10 777 0
	lbz 0,0(31)
	cmpwi 7,0,0
	beq- 7,.L496
	li 9,0
.LVL738:
.L497:
	.loc 10 778 0
	lwz 11,20(1)
	lwz 10,24(1)
	add 11,10,11
	stbx 0,11,9
	.loc 10 777 0
	addi 9,9,1
.LVL739:
	lbzx 0,31,9
	cmpwi 7,0,0
	bne+ 7,.L497
.LVL740:
.L496:
	.loc 10 781 0
	lwz 9,24(1)
	li 0,0
	.loc 10 780 0
	stw 30,20(1)
	.loc 10 781 0
	stbx 0,9,30
.LVL741:
.L494:
.LBE3100:
.LBE3099:
.LBE3098:
	.loc 2 2032 0
	lwz 3,5140(28)
.LVL742:
	lis 4,.LC2@ha
	la 4,.LC2@l(4)
	lwz 5,4(29)
	lwz 9,0(3)
	lwz 0,56(9)
	mtctr 0
	bctrl
	.loc 2 2033 0
	lwz 3,5140(28)
	lis 4,.LC110@ha
	la 4,.LC110@l(4)
	lwz 9,0(3)
	lwz 0,36(9)
	mtctr 0
	bctrl
.LEHE41:
.LVL743:
.LBB3117:
.LBB3118:
.LBB3119:
	.loc 10 501 0
	mr 3,29
.LEHB42:
	bl _ZN5idStr8FreeDataEv
.LEHE42:
.LVL744:
.LBE3119:
.LBE3118:
.LBE3117:
.LBB3120:
.LBB3121:
.LBB3122:
	mr 3,27
.LEHB43:
	bl _ZN5idStr8FreeDataEv
.LEHE43:
.LBE3122:
.LBE3121:
.LBE3120:
.LBE3149:
	.loc 2 2034 0
	lwz 0,156(1)
	lwz 25,124(1)
	mtlr 0
	lwz 26,128(1)
	lwz 27,132(1)
.LVL745:
	lwz 28,136(1)
.LVL746:
	lwz 29,140(1)
.LVL747:
	lwz 30,144(1)
	lwz 31,148(1)
	addi 1,1,152
	.cfi_remember_state
	.cfi_restore 25
	.cfi_restore 26
	.cfi_restore 27
	.cfi_restore 28
	.cfi_restore 29
	.cfi_restore 30
	.cfi_restore 31
.LCFI198:
	.cfi_def_cfa_offset 0
	blr
.LVL748:
.L505:
.LCFI199:
	.cfi_restore_state
.LBB3150:
.LBB3123:
.LBB3113:
.LBB3109:
	.loc 10 775 0
	lwz 30,20(1)
.LVL749:
.LBE3109:
.LBE3113:
.LBE3123:
.LBB3124:
.LBB3095:
	.loc 6 50 0
	li 3,0
.LBE3095:
.LBE3124:
.LBB3125:
.LBB3114:
.LBB3110:
.LBB3107:
.LBB3104:
	.loc 10 350 0
	lwz 0,28(1)
.LBE3104:
.LBE3107:
.LBE3110:
.LBE3114:
.LBE3125:
.LBB3126:
.LBB3096:
	.loc 6 50 0
	lis 31,.LC3@ha
.LVL750:
.LBE3096:
.LBE3126:
.LBB3127:
.LBB3115:
.LBB3111:
	.loc 10 775 0
	add 30,3,30
.LVL751:
.LBE3111:
.LBE3115:
.LBE3127:
.LBB3128:
.LBB3097:
	.loc 6 50 0
	la 31,.LC3@l(31)
.LBE3097:
.LBE3128:
.LBB3129:
.LBB3116:
.LBB3112:
	.loc 10 776 0
	addi 4,30,1
.LVL752:
.LBB3108:
.LBB3105:
	.loc 10 350 0
	cmpw 7,4,0
	ble+ 7,.L495
.LVL753:
.L516:
	.loc 10 351 0
	mr 3,29
	li 5,1
.LEHB44:
	bl _ZN5idStr10ReAllocateEib
.LVL754:
	b .L495
.LVL755:
.L511:
.LBE3105:
.LBE3108:
.LBE3112:
.LBE3116:
.LBE3129:
.LBB3130:
.LBB3131:
	.loc 6 50 0
	cmpwi 7,9,3
.LBE3131:
.LBE3130:
.LBB3134:
.LBB3019:
	lwz 5,12(30)
.LVL756:
.LBE3019:
.LBE3134:
.LBB3135:
.LBB3132:
	beq- 7,.L504
	lwz 6,16(30)
	b .L480
.LVL757:
.L514:
.LBE3132:
.LBE3135:
.LBB3136:
.LBB3081:
.LBB3080:
.LBB3079:
.LBB3077:
	.loc 10 351 0
	mr 3,29
	li 5,1
	bl _ZN5idStr10ReAllocateEib
.LVL758:
	b .L489
.LVL759:
.L515:
.LBE3077:
.LBE3079:
.LBE3080:
.LBE3081:
.LBE3136:
.LBB3137:
.LBB3092:
.LBB3091:
.LBB3090:
.LBB3088:
	mr 3,29
	li 5,1
	bl _ZN5idStr10ReAllocateEib
.LVL760:
	lwz 11,20(1)
	b .L492
.LVL761:
.L484:
.LBE3088:
.LBE3090:
.LBE3091:
.LBE3092:
.LBE3137:
.LBB3138:
.LBB3064:
.LBB3059:
.LBB3054:
.LBB3051:
	mr 3,29
	li 5,1
	bl _ZN5idStr10ReAllocateEib
.LEHE44:
.LVL762:
	lwz 11,20(1)
	b .L486
.LVL763:
.L481:
.LBE3051:
.LBE3054:
.LBE3059:
.LBE3064:
.LBE3138:
.LBB3139:
.LBB3042:
.LBB3038:
.LBB3031:
	.loc 10 357 0
	li 9,20
	.loc 10 356 0
	li 0,0
	.loc 10 357 0
	stw 9,28(1)
	.loc 6 50 0
	lis 31,.LC3@ha
.LVL764:
	.loc 10 358 0
	addi 9,1,32
	.loc 10 356 0
	stw 0,20(1)
	.loc 10 358 0
	stw 9,24(1)
	.loc 10 359 0
	li 26,0
	stb 0,32(1)
.LVL765:
	.loc 6 50 0
	la 31,.LC3@l(31)
	addi 29,1,20
.LVL766:
	b .L483
.LVL767:
.L476:
.LBE3031:
.LBE3038:
.LBE3042:
.LBE3139:
.LBB3140:
.LBB3014:
.LBB3013:
.LBB3009:
	.loc 10 357 0
	li 9,20
	.loc 10 356 0
	li 0,0
	.loc 10 357 0
	stw 9,60(1)
	.loc 6 50 0
	lis 31,.LC3@ha
	.loc 10 358 0
	addi 9,1,64
	.loc 10 356 0
	stw 0,52(1)
	.loc 10 358 0
	stw 9,56(1)
	.loc 10 359 0
	li 29,0
	stb 0,64(1)
.LVL768:
	.loc 6 50 0
	la 31,.LC3@l(31)
	addi 27,1,52
.LVL769:
	b .L478
.LVL770:
.L512:
.LBE3009:
.LBE3013:
.LBE3014:
.LBE3140:
.LBB3141:
.LBB3043:
.LBB3039:
.LBB3035:
	.loc 10 351 0
	mr 3,29
.LVL771:
	li 5,1
.LEHB45:
	bl _ZN5idStr10ReAllocateEib
.LEHE45:
.LVL772:
	b .L483
.LVL773:
.L504:
.LBE3035:
.LBE3039:
.LBE3043:
.LBE3141:
.LBB3142:
.LBB3133:
	.loc 6 50 0
	lis 6,.LC3@ha
	la 6,.LC3@l(6)
	b .L480
.LVL774:
.L506:
	mr 31,3
.L501:
.LVL775:
.LBE3133:
.LBE3142:
.LBB3143:
.LBB3144:
.LBB3145:
	.loc 10 501 0
	mr 3,27
	bl _ZN5idStr8FreeDataEv
	mr 3,31
.LEHB46:
	bl _Unwind_Resume
.LEHE46:
.LVL776:
.L507:
	mr 31,3
.LVL777:
.LBE3145:
.LBE3144:
.LBE3143:
.LBB3146:
.LBB3147:
.LBB3148:
	mr 3,29
	bl _ZN5idStr8FreeDataEv
	b .L501
.LBE3148:
.LBE3147:
.LBE3146:
.LBE3150:
	.cfi_endproc
.LFE2878:
	.section	.gcc_except_table
.LLSDA2878:
	.byte	0xff
	.byte	0xff
	.byte	0x1
	.uleb128 .LLSDACSE2878-.LLSDACSB2878
.LLSDACSB2878:
	.uleb128 .LEHB39-.LFB2878
	.uleb128 .LEHE39-.LEHB39
	.uleb128 0
	.uleb128 0
	.uleb128 .LEHB40-.LFB2878
	.uleb128 .LEHE40-.LEHB40
	.uleb128 .L506-.LFB2878
	.uleb128 0
	.uleb128 .LEHB41-.LFB2878
	.uleb128 .LEHE41-.LEHB41
	.uleb128 .L507-.LFB2878
	.uleb128 0
	.uleb128 .LEHB42-.LFB2878
	.uleb128 .LEHE42-.LEHB42
	.uleb128 .L506-.LFB2878
	.uleb128 0
	.uleb128 .LEHB43-.LFB2878
	.uleb128 .LEHE43-.LEHB43
	.uleb128 0
	.uleb128 0
	.uleb128 .LEHB44-.LFB2878
	.uleb128 .LEHE44-.LEHB44
	.uleb128 .L507-.LFB2878
	.uleb128 0
	.uleb128 .LEHB45-.LFB2878
	.uleb128 .LEHE45-.LEHB45
	.uleb128 .L506-.LFB2878
	.uleb128 0
	.uleb128 .LEHB46-.LFB2878
	.uleb128 .LEHE46-.LEHB46
	.uleb128 0
	.uleb128 0
.LLSDACSE2878:
	.section	".text"
	.size	_ZL21Cmd_RecordViewNotes_fRK9idCmdArgs, .-_ZL21Cmd_RecordViewNotes_fRK9idCmdArgs
	.align 2
	.globl _Z12Cmd_TestId_fRK9idCmdArgs
	.type	_Z12Cmd_TestId_fRK9idCmdArgs, @function
_Z12Cmd_TestId_fRK9idCmdArgs:
.LFB2885:
	.loc 2 2269 0
	.cfi_startproc
	.cfi_personality 0,__gxx_personality_v0
	.cfi_lsda 0,.LLSDA2885
.LVL778:
	mflr 0
	stwu 1,-96(1)
.LCFI200:
	.cfi_def_cfa_offset 96
	.cfi_register 65, 0
.LVL779:
.LBB3204:
.LBB3205:
.LBB3206:
.LBB3207:
	.loc 10 356 0
	li 9,0
	.loc 10 357 0
	li 10,20
.LBE3207:
.LBE3206:
.LBE3205:
.LBE3204:
	.loc 2 2269 0
	stw 28,80(1)
.LBB3314:
.LBB3214:
.LBB3211:
.LBB3208:
	.loc 10 358 0
	addi 11,1,52
.LBE3208:
.LBE3211:
.LBE3214:
.LBE3314:
	.loc 2 2269 0
	stw 0,100(1)
	mr 28,3
	.cfi_offset 65, 4
	.cfi_offset 28, -16
	stw 26,72(1)
	stw 27,76(1)
	stw 29,84(1)
	stw 30,88(1)
	stw 31,92(1)
.LBB3315:
.LBB3215:
.LBB3212:
.LBB3209:
	.loc 10 356 0
	stw 9,40(1)
	.loc 2 2405 0
	lwz 0,0(3)
	.loc 10 357 0
	stw 10,48(1)
.LBE3209:
.LBE3212:
.LBE3215:
	.loc 2 2272 0
	cmpwi 7,0,1
.LBB3216:
.LBB3213:
.LBB3210:
	.loc 10 358 0
	stw 11,44(1)
	.loc 10 359 0
	stb 9,52(1)
.LBE3210:
.LBE3213:
.LBE3216:
	.loc 2 2272 0
	beq- 7,.L518
	.cfi_offset 31, -4
	.cfi_offset 30, -8
	.cfi_offset 29, -12
	.cfi_offset 27, -20
	.cfi_offset 26, -24
.LVL780:
	.loc 2 2277 0 discriminator 1
	ble- 7,.L549
	.loc 2 2277 0 is_stmt 0
	li 30,1
	addi 26,1,40
.LBB3217:
.LBB3218:
.LBB3219:
	.loc 10 781 0 is_stmt 1
	li 27,0
.LVL781:
.L519:
.LBE3219:
.LBE3218:
.LBE3217:
.LBB3230:
.LBB3231:
	.loc 2 2269 0
	slwi 9,30,2
	add 9,28,9
	.loc 6 50 0
	lwz 31,4(9)
.LVL782:
.LBE3231:
.LBE3230:
.LBB3232:
.LBB3228:
.LBB3226:
	.loc 10 774 0
	cmpwi 7,31,0
	beq- 7,.L522
	.loc 2 2269 0
	mr 3,31
	bl strlen
.LVL783:
	.loc 10 775 0
	lwz 29,40(1)
.LBB3220:
.LBB3221:
	.loc 10 350 0
	lwz 0,48(1)
.LBE3221:
.LBE3220:
	.loc 10 775 0
	add 29,3,29
.LVL784:
	.loc 10 776 0
	addi 4,29,1
.LVL785:
.LBB3224:
.LBB3222:
	.loc 10 350 0
	cmpw 7,4,0
	bgt- 7,.L550
.LVL786:
.L523:
.LBE3222:
.LBE3224:
	.loc 10 777 0
	lbz 0,0(31)
	cmpwi 7,0,0
	beq- 7,.L524
	li 9,0
.LVL787:
.L525:
	.loc 10 778 0
	lwz 11,40(1)
	lwz 10,44(1)
	add 11,10,11
	stbx 0,11,9
	.loc 10 777 0
	addi 9,9,1
.LVL788:
	lbzx 0,31,9
	cmpwi 7,0,0
	bne+ 7,.L525
.LVL789:
.L524:
	.loc 10 781 0
	lwz 9,44(1)
	.loc 10 780 0
	stw 29,40(1)
	.loc 10 781 0
	stbx 27,9,29
	lwz 0,0(28)
.LVL790:
.L522:
.LBE3226:
.LBE3228:
.LBE3232:
	.loc 2 2277 0
	addi 30,30,1
.LVL791:
	cmpw 7,0,30
	bgt+ 7,.L519
	lwz 3,4(26)
.LVL792:
.L520:
	.loc 2 2280 0
	lis 30,.LC116@ha
	li 5,5
	la 31,.LC116@l(30)
	mr 4,31
.LEHB47:
	bl _ZN5idStr4CmpnEPKcS1_i
	cmpwi 7,3,0
	bne- 7,.L551
.L526:
	.loc 2 2283 0
	lis 9,common@ha
	lwz 3,common@l(9)
	lwz 9,0(3)
	lwz 0,104(9)
	mtctr 0
	bctrl
.LVL793:
	lwz 4,4(26)
	bl _ZNK10idLangDict9GetStringEPKc
	.loc 2 2283 0 is_stmt 0 discriminator 1
	lis 5,.LC117@ha
	mr 4,3
	la 5,.LC117@l(5)
	lis 3,gameLocal+2426248@ha
	la 3,gameLocal+2426248@l(3)
	mr 6,5
	mr 7,5
	crxor 6,6,6
	bl _ZN17idMultiplayerGame11AddChatLineEPKcz
.LEHE47:
.LVL794:
.LBB3233:
.LBB3234:
.LBB3235:
	.loc 10 501 0 is_stmt 1
	mr 3,26
.LEHB48:
	bl _ZN5idStr8FreeDataEv
.LEHE48:
.LBE3235:
.LBE3234:
.LBE3233:
.LBE3315:
	.loc 2 2284 0
	lwz 0,100(1)
	lwz 26,72(1)
	mtlr 0
	lwz 27,76(1)
	lwz 28,80(1)
.LVL795:
	lwz 29,84(1)
	lwz 30,88(1)
	lwz 31,92(1)
	addi 1,1,96
	.cfi_remember_state
.LCFI201:
	.cfi_def_cfa_offset 0
	.cfi_restore 31
	.cfi_restore 30
	.cfi_restore 29
	.cfi_restore 28
	.cfi_restore 27
	.cfi_restore 26
	blr
.LVL796:
.L550:
.LCFI202:
	.cfi_restore_state
.LBB3316:
.LBB3236:
.LBB3229:
.LBB3227:
.LBB3225:
.LBB3223:
	.loc 10 351 0
	mr 3,26
	li 5,1
.LEHB49:
	bl _ZN5idStr10ReAllocateEib
.LVL797:
	b .L523
.LVL798:
.L551:
.LBE3223:
.LBE3225:
.LBE3227:
.LBE3229:
.LBE3236:
.LBB3237:
.LBB3238:
.LBB3239:
	.loc 2 2405 0
	lwz 29,40(1)
.LBE3239:
.LBB3257:
.LBB3258:
.LBB3259:
.LBB3260:
	.loc 10 358 0
	addi 9,1,20
	.loc 10 415 0
	lhz 0,4(31)
	.loc 10 357 0
	li 10,20
.LBE3260:
.LBE3259:
.LBE3258:
.LBE3257:
.LBB3272:
.LBB3240:
	.loc 10 762 0
	addi 4,29,6
.LBE3240:
.LBE3272:
.LBB3273:
.LBB3269:
.LBB3265:
.LBB3261:
	.loc 10 415 0
	lwz 11,.LC116@l(30)
.LBE3261:
.LBE3265:
.LBE3269:
.LBE3273:
.LBB3274:
.LBB3253:
.LBB3241:
.LBB3242:
	.loc 10 350 0
	cmpwi 7,4,20
.LBE3242:
.LBE3241:
.LBE3253:
.LBE3274:
.LBB3275:
.LBB3270:
.LBB3266:
.LBB3262:
	.loc 10 415 0
	sth 0,4(9)
.LBE3262:
.LBE3266:
	.loc 10 416 0
	li 0,5
.LBB3267:
.LBB3263:
	.loc 10 357 0
	stw 10,16(1)
.LBE3263:
.LBE3267:
	.loc 10 416 0
	stw 0,8(1)
.LBE3270:
.LBE3275:
.LBB3276:
.LBB3254:
.LBB3246:
.LBB3243:
	.loc 10 350 0
	mr 0,29
.LBE3243:
.LBE3246:
.LBE3254:
.LBE3276:
.LBB3277:
.LBB3271:
.LBB3268:
.LBB3264:
	.loc 10 358 0
	stw 9,12(1)
.LVL799:
	.loc 10 415 0
	stw 11,20(1)
.LBE3264:
.LBE3268:
.LBE3271:
.LBE3277:
.LBB3278:
.LBB3255:
.LBB3247:
.LBB3244:
	.loc 10 350 0
	bgt- 7,.L552
.LVL800:
.L527:
.LBE3244:
.LBE3247:
	.loc 10 763 0
	cmpwi 7,0,0
	ble- 7,.L528
	li 9,0
.LVL801:
.L529:
.LBB3248:
.LBB3249:
	.loc 10 522 0
	lwz 11,4(26)
.LBE3249:
.LBE3248:
	.loc 10 764 0
	lwz 10,12(1)
.LBB3251:
.LBB3250:
	.loc 10 522 0
	lbzx 0,11,9
.LBE3250:
.LBE3251:
	.loc 10 764 0
	lwz 11,8(1)
	add 11,10,11
	stbx 0,11,9
	.loc 10 763 0
	addi 9,9,1
.LVL802:
	lwz 0,40(1)
	cmpw 7,9,0
	blt+ 7,.L529
.LVL803:
.L528:
	.loc 10 767 0
	lwz 9,12(1)
	.loc 10 761 0
	addi 29,29,5
.LVL804:
	.loc 10 767 0
	li 0,0
	.loc 10 766 0
	stw 29,8(1)
	.loc 10 767 0
	stbx 0,9,29
.LVL805:
.LBE3255:
.LBE3278:
.LBE3238:
.LBE3237:
.LBB3285:
	.loc 2 2405 0
	lwz 31,8(1)
.LBB3286:
.LBB3287:
.LBB3288:
	.loc 10 350 0
	lwz 0,48(1)
.LBE3288:
.LBE3287:
	.loc 10 534 0
	addi 4,31,1
.LVL806:
.LBB3291:
.LBB3289:
	.loc 10 350 0
	cmpw 7,4,0
	bgt- 7,.L553
.LVL807:
.L531:
.LBE3289:
.LBE3291:
	.loc 10 535 0
	lwz 3,44(1)
	mr 5,31
	lwz 4,12(1)
	bl memcpy
	.loc 10 536 0
	lwz 9,44(1)
	li 0,0
.LBE3286:
.LBE3285:
.LBB3295:
.LBB3296:
.LBB3297:
	.loc 10 501 0
	addi 3,1,8
.LBE3297:
.LBE3296:
.LBE3295:
.LBB3300:
.LBB3293:
	.loc 10 536 0
	stbx 0,9,31
	.loc 10 537 0
	stw 31,40(1)
.LVL808:
.LBE3293:
.LBE3300:
.LBB3301:
.LBB3299:
.LBB3298:
	.loc 10 501 0
	bl _ZN5idStr8FreeDataEv
.LEHE49:
	b .L526
.LVL809:
.L553:
.LBE3298:
.LBE3299:
.LBE3301:
.LBB3302:
.LBB3294:
.LBB3292:
.LBB3290:
	.loc 10 351 0
	mr 3,26
	li 5,0
.LEHB50:
	bl _ZN5idStr10ReAllocateEib
.LEHE50:
.LVL810:
	b .L531
.LVL811:
.L552:
.LBE3290:
.LBE3292:
.LBE3294:
.LBE3302:
.LBB3303:
.LBB3283:
.LBB3279:
.LBB3256:
.LBB3252:
.LBB3245:
	addi 3,1,8
	li 5,1
.LEHB51:
	bl _ZN5idStr10ReAllocateEib
.LEHE51:
.LVL812:
	lwz 0,40(1)
	b .L527
.LVL813:
.L518:
.LBE3245:
.LBE3252:
.LBE3256:
.LBE3279:
.LBE3283:
.LBE3303:
	.loc 2 2273 0
	lis 9,common@ha
	lis 4,.LC115@ha
	lwz 3,common@l(9)
	la 4,.LC115@l(4)
	addi 26,1,40
	lwz 9,0(3)
	lwz 0,68(9)
	mtctr 0
.LEHB52:
	crxor 6,6,6
	bctrl
.LEHE52:
.LVL814:
.LBB3304:
.LBB3305:
.LBB3306:
	.loc 10 501 0
	addi 3,1,40
.LEHB53:
	bl _ZN5idStr8FreeDataEv
.LEHE53:
.LBE3306:
.LBE3305:
.LBE3304:
.LBE3316:
	.loc 2 2284 0
	lwz 0,100(1)
	lwz 26,72(1)
	mtlr 0
	lwz 27,76(1)
	lwz 28,80(1)
.LVL815:
	lwz 29,84(1)
	lwz 30,88(1)
	lwz 31,92(1)
	addi 1,1,96
	.cfi_remember_state
	.cfi_restore 26
	.cfi_restore 27
	.cfi_restore 28
	.cfi_restore 29
	.cfi_restore 30
	.cfi_restore 31
.LCFI203:
	.cfi_def_cfa_offset 0
	blr
.LVL816:
.L549:
.LCFI204:
	.cfi_restore_state
.LBB3317:
	.loc 10 358 0
	mr 3,11
.LVL817:
	addi 26,1,40
	b .L520
.LVL818:
.L543:
	mr 31,3
.LVL819:
.LBB3307:
.LBB3308:
.LBB3309:
	.loc 10 501 0
	addi 3,1,8
	bl _ZN5idStr8FreeDataEv
.LVL820:
.L534:
.LBE3309:
.LBE3308:
.LBE3307:
.LBB3310:
.LBB3311:
.LBB3312:
	mr 3,26
	bl _ZN5idStr8FreeDataEv
	mr 3,31
.LEHB54:
	bl _Unwind_Resume
.LEHE54:
.LVL821:
.L542:
	mr 31,3
	b .L534
.LVL822:
.L544:
	mr 31,3
.LVL823:
.LBE3312:
.LBE3311:
.LBE3310:
.LBB3313:
.LBB3284:
.LBB3280:
.LBB3281:
.LBB3282:
	addi 3,1,8
	bl _ZN5idStr8FreeDataEv
	b .L534
.LBE3282:
.LBE3281:
.LBE3280:
.LBE3284:
.LBE3313:
.LBE3317:
	.cfi_endproc
.LFE2885:
	.section	.gcc_except_table
.LLSDA2885:
	.byte	0xff
	.byte	0xff
	.byte	0x1
	.uleb128 .LLSDACSE2885-.LLSDACSB2885
.LLSDACSB2885:
	.uleb128 .LEHB47-.LFB2885
	.uleb128 .LEHE47-.LEHB47
	.uleb128 .L542-.LFB2885
	.uleb128 0
	.uleb128 .LEHB48-.LFB2885
	.uleb128 .LEHE48-.LEHB48
	.uleb128 0
	.uleb128 0
	.uleb128 .LEHB49-.LFB2885
	.uleb128 .LEHE49-.LEHB49
	.uleb128 .L542-.LFB2885
	.uleb128 0
	.uleb128 .LEHB50-.LFB2885
	.uleb128 .LEHE50-.LEHB50
	.uleb128 .L543-.LFB2885
	.uleb128 0
	.uleb128 .LEHB51-.LFB2885
	.uleb128 .LEHE51-.LEHB51
	.uleb128 .L544-.LFB2885
	.uleb128 0
	.uleb128 .LEHB52-.LFB2885
	.uleb128 .LEHE52-.LEHB52
	.uleb128 .L542-.LFB2885
	.uleb128 0
	.uleb128 .LEHB53-.LFB2885
	.uleb128 .LEHE53-.LEHB53
	.uleb128 0
	.uleb128 0
	.uleb128 .LEHB54-.LFB2885
	.uleb128 .LEHE54-.LEHB54
	.uleb128 0
	.uleb128 0
.LLSDACSE2885:
	.section	".text"
	.size	_Z12Cmd_TestId_fRK9idCmdArgs, .-_Z12Cmd_TestId_fRK9idCmdArgs
	.align 2
	.globl _Z15Cmd_GetFloatArgRK9idCmdArgsRi
	.type	_Z15Cmd_GetFloatArgRK9idCmdArgsRi, @function
_Z15Cmd_GetFloatArgRK9idCmdArgsRi:
.LFB2810:
	.loc 2 41 0
	.cfi_startproc
.LVL824:
.LBB3318:
	.loc 2 44 0
	lwz 9,0(4)
.LBE3318:
	.loc 2 41 0
	mflr 0
	stwu 1,-8(1)
.LCFI205:
	.cfi_def_cfa_offset 8
	.cfi_register 65, 0
.LBB3325:
.LBB3319:
.LBB3320:
	.loc 6 50 0
	cmpwi 7,9,0
.LBE3320:
.LBE3319:
.LBE3325:
	.loc 2 41 0
	stw 0,12(1)
.LBB3326:
	.loc 2 44 0
	addi 0,9,1
	.cfi_offset 65, 4
	stw 0,0(4)
.LVL825:
.LBB3323:
.LBB3321:
	.loc 6 50 0
	blt- 7,.L557
	lwz 0,0(3)
	cmpw 7,9,0
	bge- 7,.L557
	slwi 9,9,2
	add 3,3,9
.LVL826:
	lwz 3,4(3)
.LBE3321:
.LBE3323:
	.loc 2 45 0
	bl atof
.LVL827:
.LBE3326:
	.loc 2 46 0
	lwz 0,12(1)
	frsp 1,1
	mtlr 0
	addi 1,1,8
	.cfi_remember_state
.LCFI206:
	.cfi_def_cfa_offset 0
	blr
.LVL828:
.L557:
.LCFI207:
	.cfi_restore_state
.LBB3327:
.LBB3324:
.LBB3322:
	.loc 6 50 0
	lis 3,.LC3@ha
.LVL829:
	la 3,.LC3@l(3)
.LBE3322:
.LBE3324:
	.loc 2 45 0
	bl atof
.LVL830:
.LBE3327:
	.loc 2 46 0
	lwz 0,12(1)
	frsp 1,1
	mtlr 0
	addi 1,1,8
.LCFI208:
	.cfi_def_cfa_offset 0
	blr
	.cfi_endproc
.LFE2810:
	.size	_Z15Cmd_GetFloatArgRK9idCmdArgsRi, .-_Z15Cmd_GetFloatArgRK9idCmdArgsRi
	.align 2
	.type	_ZL18Cmd_AddDebugLine_fRK9idCmdArgs, @function
_ZL18Cmd_AddDebugLine_fRK9idCmdArgs:
.LFB2847:
	.loc 2 1099 0
	.cfi_startproc
.LVL831:
	stwu 1,-48(1)
.LCFI209:
	.cfi_def_cfa_offset 48
	mflr 0
.LBB3334:
	.loc 2 1103 0
	li 4,1
.LBE3334:
	.loc 2 1099 0
	stw 28,32(1)
.LBB3335:
	.loc 2 1103 0
	lis 28,gameLocal@ha
	.cfi_offset 28, -16
	.cfi_register 65, 0
	la 28,gameLocal@l(28)
.LBE3335:
	.loc 2 1099 0
	stw 29,36(1)
	mr 29,3
	.cfi_offset 29, -12
.LBB3336:
	.loc 2 1103 0
	mr 3,28
.LVL832:
.LBE3336:
	.loc 2 1099 0
	stw 0,52(1)
	stw 27,28(1)
	stw 30,40(1)
	stw 31,44(1)
.LBB3337:
	.loc 2 1103 0
	.cfi_offset 31, -4
	.cfi_offset 30, -8
	.cfi_offset 27, -20
	.cfi_offset 65, 4
	bl _ZN11idGameLocal8CheatsOkEb
	cmpwi 7,3,0
	beq- 7,.L558
	.loc 2 1107 0
	lwz 0,0(29)
	cmpwi 7,0,6
	ble- 7,.L560
	lis 27,.LANCHOR0@ha
	li 0,128
	la 27,.LANCHOR0@l(27)
	li 30,0
	addi 9,27,212
	mtctr 0
	b .L562
.L567:
.LBE3337:
.LBB3338:
.LBB3339:
	.loc 2 1111 0
	addi 30,30,1
.LVL833:
	bdz .L566
.LVL834:
.L562:
	.loc 2 1112 0
	lbz 31,0(9)
	.loc 2 1111 0
	addi 9,9,36
	.loc 2 1112 0
	cmpwi 7,31,0
	bne+ 7,.L567
.LVL835:
	.loc 2 1121 0
	lwz 3,4(29)
	lis 4,.LC118@ha
	la 4,.LC118@l(4)
	.loc 2 1128 0
	mr 28,1
	.loc 2 1121 0
	bl _ZN5idStr4IcmpEPKcS1_
	mulli 30,30,36
	.loc 2 1128 0
	li 0,1
	stwu 0,8(28)
.LVL836:
	.loc 2 1099 0
	cntlzw 0,3
	.loc 2 1121 0
	add 30,27,30
	.loc 2 1099 0
	srwi 0,0,5
	stb 0,245(30)
	.loc 2 1126 0
	li 0,1
	stb 0,212(30)
	.loc 2 1129 0
	mr 3,29
	.loc 2 1127 0
	stb 31,244(30)
	.loc 2 1129 0
	mr 4,28
	bl _Z15Cmd_GetFloatArgRK9idCmdArgsRi
	.loc 2 1130 0
	mr 3,29
	.loc 2 1129 0
	stfs 1,216(30)
	.loc 2 1130 0
	mr 4,28
	bl _Z15Cmd_GetFloatArgRK9idCmdArgsRi
	.loc 2 1131 0
	mr 3,29
	.loc 2 1130 0
	stfs 1,220(30)
	.loc 2 1131 0
	mr 4,28
	bl _Z15Cmd_GetFloatArgRK9idCmdArgsRi
	.loc 2 1132 0
	mr 3,29
	.loc 2 1131 0
	stfs 1,224(30)
	.loc 2 1132 0
	mr 4,28
	bl _Z15Cmd_GetFloatArgRK9idCmdArgsRi
	.loc 2 1133 0
	mr 3,29
	.loc 2 1132 0
	stfs 1,228(30)
	.loc 2 1133 0
	mr 4,28
	bl _Z15Cmd_GetFloatArgRK9idCmdArgsRi
	.loc 2 1134 0
	mr 3,29
	.loc 2 1133 0
	stfs 1,232(30)
	.loc 2 1134 0
	mr 4,28
	bl _Z15Cmd_GetFloatArgRK9idCmdArgsRi
	.loc 2 1135 0
	mr 3,29
	.loc 2 1134 0
	stfs 1,236(30)
	.loc 2 1135 0
	mr 4,28
	addi 30,30,240
	bl _Z15Cmd_GetFloatArgRK9idCmdArgsRi
	fctiwz 1,1
	stfiwx 1,0,30
.LVL837:
.L558:
.LBE3339:
.LBE3338:
	.loc 2 1136 0
	lwz 0,52(1)
	lwz 27,28(1)
	mtlr 0
	lwz 28,32(1)
	lwz 29,36(1)
.LVL838:
	lwz 30,40(1)
	lwz 31,44(1)
	addi 1,1,48
	.cfi_remember_state
.LCFI210:
	.cfi_def_cfa_offset 0
	.cfi_restore 31
	.cfi_restore 30
	.cfi_restore 29
	.cfi_restore 28
	.cfi_restore 27
	blr
.LVL839:
.L560:
.LCFI211:
	.cfi_restore_state
.LBB3341:
	.loc 2 1108 0
	lis 4,.LC119@ha
	mr 3,28
	la 4,.LC119@l(4)
	crxor 6,6,6
	bl _ZNK11idGameLocal6PrintfEPKcz
.LBE3341:
	.loc 2 1136 0
	lwz 0,52(1)
	lwz 27,28(1)
	mtlr 0
	lwz 28,32(1)
	lwz 29,36(1)
.LVL840:
	lwz 30,40(1)
	lwz 31,44(1)
	addi 1,1,48
	.cfi_remember_state
	.cfi_restore 27
	.cfi_restore 28
	.cfi_restore 29
	.cfi_restore 30
	.cfi_restore 31
.LCFI212:
	.cfi_def_cfa_offset 0
	blr
.LVL841:
.L566:
.LCFI213:
	.cfi_restore_state
.LBB3342:
.LBB3340:
	.loc 2 1117 0
	lis 4,.LC120@ha
	mr 3,28
	la 4,.LC120@l(4)
	crxor 6,6,6
	bl _ZNK11idGameLocal6PrintfEPKcz
	b .L558
.LBE3340:
.LBE3342:
	.cfi_endproc
.LFE2847:
	.size	_ZL18Cmd_AddDebugLine_fRK9idCmdArgs, .-_ZL18Cmd_AddDebugLine_fRK9idCmdArgs
	.align 2
	.globl _Z12KillEntitiesRK9idCmdArgsRK10idTypeInfo
	.type	_Z12KillEntitiesRK9idCmdArgsRK10idTypeInfo, @function
_Z12KillEntitiesRK9idCmdArgsRK10idTypeInfo:
.LFB2816:
	.loc 2 195 0
	.cfi_startproc
	.cfi_personality 0,__gxx_personality_v0
	.cfi_lsda 0,.LLSDA2816
.LVL842:
	stwu 1,-120(1)
.LCFI214:
	.cfi_def_cfa_offset 120
	mflr 0
	mfcr 12
	stw 15,52(1)
.LBB3449:
	.loc 2 201 0
	lis 15,gameLocal@ha
	.cfi_offset 15, -68
	.cfi_register 70, 12
	.cfi_register 65, 0
	la 15,gameLocal@l(15)
.LBE3449:
	.loc 2 195 0
	stw 20,72(1)
	mr 20,3
	.cfi_offset 20, -48
.LBB3629:
	.loc 2 201 0
	mr 3,15
.LVL843:
.LBE3629:
	.loc 2 195 0
	stw 19,68(1)
	mr 19,4
	.cfi_offset 19, -52
	stw 0,124(1)
	stw 14,48(1)
	stw 16,56(1)
	stw 17,60(1)
	stw 18,64(1)
	stw 21,76(1)
	stw 22,80(1)
	stw 23,84(1)
	stw 24,88(1)
	stw 25,92(1)
	stw 26,96(1)
	stw 27,100(1)
	stw 28,104(1)
	stw 29,108(1)
	stw 30,112(1)
	stw 31,116(1)
	stw 12,44(1)
.LEHB55:
.LBB3630:
	.loc 2 201 0
	.cfi_offset 70, -76
	.cfi_offset 31, -4
	.cfi_offset 30, -8
	.cfi_offset 29, -12
	.cfi_offset 28, -16
	.cfi_offset 27, -20
	.cfi_offset 26, -24
	.cfi_offset 25, -28
	.cfi_offset 24, -32
	.cfi_offset 23, -36
	.cfi_offset 22, -40
	.cfi_offset 21, -44
	.cfi_offset 18, -56
	.cfi_offset 17, -60
	.cfi_offset 16, -64
	.cfi_offset 14, -72
	.cfi_offset 65, 4
	bl _ZNK11idGameLocal14GetLocalPlayerEv
.LVL844:
	cmpwi 7,3,0
	beq- 7,.L568
	.loc 2 201 0 is_stmt 0 discriminator 2
	mr 3,15
	li 4,0
	bl _ZN11idGameLocal8CheatsOkEb
.LEHE55:
	cmpwi 7,3,0
	beq- 7,.L568
.LVL845:
	.loc 2 205 0 is_stmt 1 discriminator 1
	lwz 0,0(20)
	cmpwi 7,0,1
	ble- 7,.L627
	.loc 2 205 0 is_stmt 0
	li 27,0
	li 29,0
	li 28,0
	li 22,1
	addi 17,1,20
.LBB3450:
.LBB3451:
.LBB3452:
.LBB3453:
	.loc 10 356 0 is_stmt 1
	li 25,0
	.loc 10 357 0
	li 23,20
.LBE3453:
.LBE3452:
.LBE3451:
.LBE3450:
.LBB3470:
.LBB3471:
.LBB3472:
.LBB3473:
.LBB3474:
.LBB3475:
.LBB3476:
.LBB3477:
	.loc 10 536 0
	li 24,0
.LBE3477:
.LBE3476:
.LBE3475:
.LBE3474:
.LBE3473:
.LBE3472:
.LBB3514:
.LBB3515:
	.loc 15 392 0
	li 14,16
.LVL846:
.L608:
.LBE3515:
.LBE3514:
.LBE3471:
.LBE3470:
.LBB3577:
.LBB3578:
	.loc 2 195 0
	slwi 9,22,2
.LBE3578:
.LBE3577:
.LBB3581:
.LBB3466:
.LBB3458:
.LBB3454:
	.loc 10 356 0
	stw 25,8(1)
.LBE3454:
.LBE3458:
.LBE3466:
.LBE3581:
.LBB3582:
.LBB3579:
	.loc 2 195 0
	add 9,20,9
.LBE3579:
.LBE3582:
.LBB3583:
.LBB3467:
.LBB3459:
.LBB3455:
	.loc 10 357 0
	stw 23,16(1)
.LBE3455:
.LBE3459:
.LBE3467:
.LBE3583:
.LBB3584:
.LBB3580:
	.loc 6 50 0
	lwz 31,4(9)
.LVL847:
.LBE3580:
.LBE3584:
.LBB3585:
.LBB3468:
.LBB3460:
.LBB3456:
	.loc 10 358 0
	stw 17,12(1)
.LBE3456:
.LBE3460:
	.loc 10 412 0
	cmpwi 7,31,0
.LBB3461:
.LBB3457:
	.loc 10 359 0
	stb 25,20(1)
.LBE3457:
.LBE3461:
	.loc 10 412 0
	beq- 7,.L571
	.loc 2 195 0
	mr 3,31
	bl strlen
.LVL848:
	addi 4,3,1
	mr 30,3
.LVL849:
.LBB3462:
.LBB3463:
	.loc 10 350 0
	cmpwi 7,4,20
	bgt- 7,.L655
.LVL850:
.L572:
.LBE3463:
.LBE3462:
	.loc 10 415 0
	lwz 3,12(1)
	mr 4,31
	bl strcpy
	.loc 10 416 0
	stw 30,8(1)
.LVL851:
.L571:
.LBE3468:
.LBE3585:
.LBB3586:
.LBB3570:
	.loc 15 655 0
	cmpwi 7,28,0
	beq- 7,.L656
.LVL852:
.L573:
.LBB3544:
	.loc 15 659 0
	cmpw 7,27,29
	bne- 7,.L579
.LBB3512:
	.loc 15 665 0
	addi 21,27,16
.LVL853:
	.loc 15 666 0
	srawi 21,21,4
	addze 21,21
.LVL854:
.LBB3510:
.LBB3508:
	.loc 15 375 0
	slwi 21,21,4
.LVL855:
	cmpwi 4,21,0
	ble- 4,.L657
	.loc 15 380 0
	cmpw 7,21,27
	slwi 31,27,5
	add 31,28,31
	beq- 7,.L584
.LVL856:
	.loc 15 392 0
	slwi 3,21,5
	addi 3,3,4
.LEHB56:
	bl _Znaj
.LEHE56:
	stw 21,0(3)
	addi 18,3,4
	beq- 4,.L595
.LBB3488:
.LBB3489:
.LBB3490:
	.loc 10 357 0
	mtctr 21
.LBE3490:
.LBE3489:
.LBE3488:
	.loc 15 392 0
	mr 9,18
.L596:
.LVL857:
.LBB3493:
.LBB3492:
.LBB3491:
	.loc 10 358 0
	addi 0,9,12
	.loc 10 356 0
	stw 25,0(9)
	.loc 10 357 0
	stw 23,8(9)
	.loc 10 358 0
	stw 0,4(9)
	.loc 10 359 0
	stb 25,12(9)
	addi 9,9,32
.LVL858:
.LBE3491:
.LBE3492:
.LBE3493:
	.loc 15 392 0
	bdnz .L596
.LVL859:
.L595:
	cmpw 7,29,21
	ble- 7,.L597
	mr 29,21
.LVL860:
.L597:
	.loc 15 393 0
	cmpwi 7,29,0
	.loc 15 392 0
	mr 16,18
.LVL861:
	.loc 15 393 0
	ble- 7,.L598
	mr 27,28
	mr 31,18
	li 26,0
	b .L600
.LVL862:
.L599:
.LBB3494:
.LBB3482:
	.loc 10 535 0
	lwz 3,4(31)
	mr 5,30
	lwz 4,4(27)
.LVL863:
.LBE3482:
.LBE3494:
	.loc 15 393 0
	addi 26,26,1
	addi 27,27,32
.LBB3495:
.LBB3483:
	.loc 10 535 0
	bl memcpy
.LVL864:
.LBE3483:
.LBE3495:
	.loc 15 393 0
	cmpw 7,26,29
.LBB3496:
.LBB3484:
	.loc 10 536 0
	lwz 9,4(31)
	stbx 24,9,30
	.loc 10 537 0
	stw 30,0(31)
.LBE3484:
.LBE3496:
	.loc 15 393 0
	addi 31,31,32
.LVL865:
	beq- 7,.L598
.LVL866:
.L600:
.LBB3497:
	.loc 2 2405 0
	lwz 30,0(27)
.LBB3485:
.LBB3478:
.LBB3479:
	.loc 10 350 0
	lwz 0,8(31)
.LBE3479:
.LBE3478:
	.loc 10 534 0
	addi 4,30,1
.LVL867:
.LBB3481:
.LBB3480:
	.loc 10 350 0
	cmpw 7,4,0
	ble+ 7,.L599
	.loc 10 351 0
	mr 3,31
	li 5,0
.LEHB57:
	bl _ZN5idStr10ReAllocateEib
.LVL868:
.LBE3480:
.LBE3481:
	.loc 10 535 0
	lwz 3,4(31)
	mr 5,30
	lwz 4,4(27)
.LBE3485:
.LBE3497:
	.loc 15 393 0
	addi 26,26,1
	addi 27,27,32
.LBB3498:
.LBB3486:
	.loc 10 535 0
	bl memcpy
.LVL869:
.LBE3486:
.LBE3498:
	.loc 15 393 0
	cmpw 7,26,29
.LBB3499:
.LBB3487:
	.loc 10 536 0
	lwz 9,4(31)
	stbx 24,9,30
	.loc 10 537 0
	stw 30,0(31)
.LBE3487:
.LBE3499:
	.loc 15 393 0
	addi 31,31,32
.LVL870:
	bne+ 7,.L600
.LVL871:
.L598:
	.loc 15 398 0
	cmpwi 7,28,0
	beq- 7,.L652
	.loc 15 399 0
	lwz 31,-4(28)
	slwi 31,31,5
	add 31,28,31
	cmpw 7,31,28
	beq- 7,.L602
.L648:
	addi 31,31,-32
.LVL872:
.LBB3500:
.LBB3501:
.LBB3502:
	.loc 10 501 0
	mr 3,31
	bl _ZN5idStr8FreeDataEv
.LEHE57:
.LBE3502:
.LBE3501:
.LBE3500:
	.loc 15 399 0
	cmpw 7,31,28
	bne+ 7,.L648
.LVL873:
.L602:
	addi 3,28,-4
	bl _ZdaPv
.L652:
	slwi 31,29,5
	mr 27,21
	add 31,18,31
	.loc 15 392 0
	mr 28,18
.LVL874:
.L584:
.LBE3508:
.LBE3510:
.LBE3512:
.LBE3544:
.LBB3545:
	.loc 2 2405 0
	lwz 30,8(1)
.LBB3546:
.LBB3547:
.LBB3548:
	.loc 10 350 0
	lwz 0,8(31)
.LBE3548:
.LBE3547:
	.loc 10 534 0
	addi 4,30,1
.LVL875:
.LBB3553:
.LBB3549:
	.loc 10 350 0
	cmpw 7,4,0
	bgt- 7,.L658
.LVL876:
.L606:
.LBE3549:
.LBE3553:
	.loc 10 535 0
	lwz 3,4(31)
	mr 5,30
	lwz 4,12(1)
	bl memcpy
	.loc 10 536 0
	lwz 9,4(31)
.LBE3546:
.LBE3545:
.LBE3570:
.LBE3586:
.LBB3587:
.LBB3588:
.LBB3589:
	.loc 10 501 0
	addi 3,1,8
.LBE3589:
.LBE3588:
.LBE3587:
.LBB3592:
.LBB3571:
.LBB3560:
.LBB3557:
	.loc 10 536 0
	stbx 24,9,30
	.loc 10 537 0
	stw 30,0(31)
.LVL877:
.LEHB58:
.LBE3557:
.LBE3560:
.LBE3571:
.LBE3592:
.LBB3593:
.LBB3591:
.LBB3590:
	.loc 10 501 0
	bl _ZN5idStr8FreeDataEv
.LBE3590:
.LBE3591:
.LBE3593:
	.loc 2 205 0
	lwz 0,0(20)
	addi 22,22,1
.LVL878:
.LBB3594:
.LBB3572:
	.loc 15 670 0
	addi 29,29,1
.LVL879:
.LBE3572:
.LBE3594:
	.loc 2 205 0
	cmpw 7,0,22
	bgt+ 7,.L608
.LVL880:
.L570:
	.loc 2 210 0
	addis 15,15,0x1
	lwz 9,-32192(15)
	lwz 0,-32196(15)
.LBB3595:
.LBB3596:
	.loc 13 268 0
	cmpwi 7,9,0
	beq- 7,.L609
	cmpw 7,0,9
	beq- 7,.L609
	.loc 13 271 0
	lwz 30,12(9)
.LVL881:
.LBE3596:
.LBE3595:
	.loc 2 210 0
	cmpwi 7,30,0
	beq- 7,.L609
	.loc 2 219 0
	lis 27,EV_Remove@ha
	.loc 2 212 0
	cmpwi 4,29,0
	.loc 2 219 0
	la 27,EV_Remove@l(27)
.LVL882:
.L637:
.LBB3597:
.LBB3598:
	.loc 14 340 0
	lwz 9,0(30)
	mr 3,30
	lwz 0,0(9)
	mtctr 0
	bctrl
.LVL883:
.LBE3598:
	.loc 2 2405 0
	lwz 0,56(3)
.LBB3601:
.LBB3599:
.LBB3600:
	.loc 14 311 0
	lwz 9,56(19)
	cmpw 7,0,9
	blt- 7,.L610
	lwz 9,60(19)
	cmpw 7,0,9
	bgt- 7,.L610
.LVL884:
.LBE3600:
.LBE3599:
.LBE3601:
.LBE3597:
	.loc 2 212 0 discriminator 1
	ble- 4,.L611
	.loc 2 212 0 is_stmt 0
	li 31,0
	b .L612
.LVL885:
.L659:
	addi 31,31,1
.LVL886:
	cmpw 7,31,29
	beq- 7,.L611
.LVL887:
.L612:
.LBB3602:
.LBB3603:
	.loc 2 2405 0 is_stmt 1
	slwi 9,31,5
	.loc 10 648 0
	lwz 4,72(30)
	.loc 2 2405 0
	add 9,28,9
	.loc 10 648 0
	lwz 3,4(9)
	bl _ZN5idStr3CmpEPKcS1_
.LEHE58:
.LBE3603:
.LBE3602:
	.loc 2 213 0
	cmpwi 7,3,0
	bne+ 7,.L659
.LVL888:
.L610:
	.loc 2 2405 0
	lwz 9,16(30)
	lwz 0,12(30)
.LBB3604:
.LBB3605:
	.loc 13 268 0
	cmpwi 7,9,0
	beq- 7,.L609
	cmpw 7,0,9
	beq- 7,.L609
	.loc 13 271 0
	lwz 30,12(9)
.LVL889:
.LBE3605:
.LBE3604:
	.loc 2 210 0
	cmpwi 7,30,0
	bne+ 7,.L637
.LVL890:
.L609:
.LBB3606:
.LBB3607:
.LBB3608:
.LBB3609:
	.loc 15 193 0
	cmpwi 7,28,0
	beq- 7,.L568
	.loc 15 194 0
	lwz 31,-4(28)
	slwi 31,31,5
	add 31,28,31
	cmpw 7,31,28
	beq- 7,.L614
.L650:
	addi 31,31,-32
.LVL891:
.LBB3610:
.LBB3611:
.LBB3612:
	.loc 10 501 0
	mr 3,31
.LEHB59:
	bl _ZN5idStr8FreeDataEv
.LEHE59:
.LBE3612:
.LBE3611:
.LBE3610:
	.loc 15 194 0
	cmpw 7,31,28
	bne+ 7,.L650
.LVL892:
.L614:
	addi 3,28,-4
	bl _ZdaPv
.LVL893:
.L568:
.LBE3609:
.LBE3608:
.LBE3607:
.LBE3606:
.LBE3630:
	.loc 2 223 0
	lwz 0,124(1)
	lwz 12,44(1)
	mtlr 0
	lwz 14,48(1)
	lwz 15,52(1)
	mtcrf 8,12
	lwz 16,56(1)
	lwz 17,60(1)
	lwz 18,64(1)
	lwz 19,68(1)
.LVL894:
	lwz 20,72(1)
.LVL895:
	lwz 21,76(1)
	lwz 22,80(1)
	lwz 23,84(1)
	lwz 24,88(1)
	lwz 25,92(1)
	lwz 26,96(1)
	lwz 27,100(1)
	lwz 28,104(1)
	lwz 29,108(1)
	lwz 30,112(1)
	lwz 31,116(1)
	addi 1,1,120
	.cfi_remember_state
.LCFI215:
	.cfi_def_cfa_offset 0
	.cfi_restore 70
	.cfi_restore 31
	.cfi_restore 30
	.cfi_restore 29
	.cfi_restore 28
	.cfi_restore 27
	.cfi_restore 26
	.cfi_restore 25
	.cfi_restore 24
	.cfi_restore 23
	.cfi_restore 22
	.cfi_restore 21
	.cfi_restore 20
	.cfi_restore 19
	.cfi_restore 18
	.cfi_restore 17
	.cfi_restore 16
	.cfi_restore 15
	.cfi_restore 14
	blr
.LVL896:
.L628:
.LCFI216:
	.cfi_restore_state
.LBB3631:
.LBB3613:
.LBB3573:
.LBB3561:
.LBB3541:
	.loc 15 386 0
	li 27,16
.LVL897:
.L579:
.LBE3541:
.LBE3561:
.LBB3562:
	.loc 15 659 0
	slwi 31,29,5
.LBE3562:
.LBB3563:
	.loc 2 2405 0
	lwz 30,8(1)
.LBE3563:
.LBB3564:
	.loc 15 659 0
	add 31,28,31
.LVL898:
.LBE3564:
.LBB3565:
.LBB3558:
.LBB3554:
.LBB3550:
	.loc 10 350 0
	lwz 0,8(31)
.LBE3550:
.LBE3554:
	.loc 10 534 0
	addi 4,30,1
.LVL899:
.LBB3555:
.LBB3551:
	.loc 10 350 0
	cmpw 7,4,0
	ble+ 7,.L606
.L658:
	.loc 10 351 0
	mr 3,31
	li 5,0
.LEHB60:
	bl _ZN5idStr10ReAllocateEib
.LEHE60:
.LVL900:
	b .L606
.LVL901:
.L655:
.LBE3551:
.LBE3555:
.LBE3558:
.LBE3565:
.LBE3573:
.LBE3613:
.LBB3614:
.LBB3469:
.LBB3465:
.LBB3464:
	addi 3,1,8
.LVL902:
	li 5,1
.LEHB61:
	bl _ZN5idStr10ReAllocateEib
.LVL903:
	b .L572
.LVL904:
.L611:
.LBE3464:
.LBE3465:
.LBE3469:
.LBE3614:
	.loc 2 219 0
	mr 3,30
	mr 4,27
	li 5,0
	bl _ZN7idClass11PostEventMSEPK10idEventDefi
.LEHE61:
	b .L610
.LVL905:
.L656:
.LBB3615:
.LBB3574:
.LBB3566:
.LBB3542:
	.loc 15 380 0
	cmpwi 7,27,16
	beq- 7,.L573
.LVL906:
	.loc 15 392 0
	li 3,516
.LEHB62:
	bl _Znaj
.LEHE62:
.LBB3516:
.LBB3517:
.LBB3518:
	.loc 10 357 0
	li 0,16
.LBE3518:
.LBE3517:
.LBE3516:
	.loc 15 392 0
	addi 16,3,4
	stw 14,0(3)
.LBB3523:
.LBB3521:
.LBB3519:
	.loc 10 357 0
	mtctr 0
.LBE3519:
.LBE3521:
.LBE3523:
	.loc 15 392 0
	mr 9,16
.L577:
.LVL907:
.LBB3524:
.LBB3522:
.LBB3520:
	.loc 10 358 0
	addi 0,9,12
	.loc 10 356 0
	stw 25,0(9)
	.loc 10 357 0
	stw 23,8(9)
	.loc 10 358 0
	stw 0,4(9)
	.loc 10 359 0
	stb 25,12(9)
	addi 9,9,32
.LVL908:
.LBE3520:
.LBE3522:
.LBE3524:
	.loc 15 392 0
	bdnz .L577
	cmpwi 7,29,16
	ble- 7,.L578
	li 29,16
.LVL909:
.L578:
	.loc 15 393 0
	cmpwi 7,29,0
	.loc 15 392 0
	mr 28,16
.LVL910:
	.loc 15 393 0
	ble- 7,.L628
	mr 31,16
.LVL911:
	li 27,0
	li 26,0
	b .L582
.LVL912:
.L580:
.LBB3525:
.LBB3526:
	.loc 10 535 0
	lwz 3,4(31)
	mr 5,30
	lwz 4,4(27)
.LVL913:
.LBE3526:
.LBE3525:
	.loc 15 393 0
	addi 26,26,1
.LVL914:
	addi 27,27,32
.LBB3536:
.LBB3531:
	.loc 10 535 0
	bl memcpy
.LVL915:
.LBE3531:
.LBE3536:
	.loc 15 393 0
	cmpw 7,26,29
.LBB3537:
.LBB3532:
	.loc 10 536 0
	lwz 9,4(31)
	stbx 24,9,30
	.loc 10 537 0
	stw 30,0(31)
.LBE3532:
.LBE3537:
	.loc 15 393 0
	addi 31,31,32
.LVL916:
	beq- 7,.L660
.LVL917:
.L582:
.LBB3538:
	.loc 2 2405 0
	lwz 30,0(27)
.LBB3533:
.LBB3527:
.LBB3528:
	.loc 10 350 0
	lwz 0,8(31)
.LBE3528:
.LBE3527:
	.loc 10 534 0
	addi 4,30,1
.LVL918:
.LBB3530:
.LBB3529:
	.loc 10 350 0
	cmpw 7,4,0
	ble+ 7,.L580
	.loc 10 351 0
	mr 3,31
	li 5,0
.LEHB63:
	bl _ZN5idStr10ReAllocateEib
.LEHE63:
.LVL919:
.LBE3529:
.LBE3530:
	.loc 10 535 0
	lwz 3,4(31)
	mr 5,30
	lwz 4,4(27)
.LBE3533:
.LBE3538:
	.loc 15 393 0
	addi 26,26,1
.LVL920:
	addi 27,27,32
.LBB3539:
.LBB3534:
	.loc 10 535 0
	bl memcpy
.LVL921:
.LBE3534:
.LBE3539:
	.loc 15 393 0
	cmpw 7,26,29
.LBB3540:
.LBB3535:
	.loc 10 536 0
	lwz 9,4(31)
	stbx 24,9,30
	.loc 10 537 0
	stw 30,0(31)
.LBE3535:
.LBE3540:
	.loc 15 393 0
	addi 31,31,32
.LVL922:
	bne+ 7,.L582
.LVL923:
.L660:
	.loc 15 386 0
	li 27,16
	b .L573
.LVL924:
.L657:
.LBE3542:
.LBE3566:
.LBB3567:
.LBB3513:
.LBB3511:
.LBB3509:
.LBB3503:
.LBB3504:
	.loc 15 193 0
	cmpwi 7,28,0
	beq- 7,.L586
	.loc 15 194 0
	lwz 31,-4(28)
	slwi 31,31,5
	add 31,28,31
	cmpw 7,31,28
	beq- 7,.L587
.L645:
	addi 31,31,-32
.LVL925:
.LBB3505:
.LBB3506:
.LBB3507:
	.loc 10 501 0
	mr 3,31
.LEHB64:
	bl _ZN5idStr8FreeDataEv
.LEHE64:
.LBE3507:
.LBE3506:
.LBE3505:
	.loc 15 194 0
	cmpw 7,31,28
	bne+ 7,.L645
.LVL926:
.L587:
	addi 3,28,-4
	bl _ZdaPv
.L586:
.LVL927:
.LBE3504:
.LBE3503:
	.loc 15 380 0
	li 31,0
	.loc 15 199 0
	li 27,0
	.loc 15 198 0
	li 29,0
	.loc 15 197 0
	li 28,0
	b .L584
.LVL928:
.L627:
.LBE3509:
.LBE3511:
.LBE3513:
.LBE3567:
.LBE3574:
.LBE3615:
	.loc 15 198 0
	li 29,0
	.loc 15 197 0
	li 28,0
	b .L570
.LVL929:
.L632:
.L653:
	mr 31,3
.LBB3616:
.LBB3575:
.LBB3568:
.LBB3559:
.LBB3556:
.LBB3552:
	.loc 10 351 0
	mr 16,28
.LVL930:
.L576:
.LBE3552:
.LBE3556:
.LBE3559:
.LBE3568:
.LBE3575:
.LBE3616:
.LBB3617:
.LBB3618:
.LBB3619:
	.loc 10 501 0
	addi 3,1,8
.LBE3619:
	mr 28,16
.LBB3620:
	bl _ZN5idStr8FreeDataEv
.LVL931:
.L621:
.LBE3620:
.LBE3618:
.LBE3617:
.LBB3621:
.LBB3622:
.LBB3623:
.LBB3624:
	.loc 15 193 0
	cmpwi 7,28,0
	beq- 7,.L622
	.loc 15 194 0
	lwz 30,-4(28)
	slwi 30,30,5
	add 30,28,30
	cmpw 7,30,28
	beq- 7,.L623
.L651:
	addi 30,30,-32
.LVL932:
.LBB3625:
.LBB3626:
.LBB3627:
	.loc 10 501 0
	mr 3,30
	bl _ZN5idStr8FreeDataEv
.LBE3627:
.LBE3626:
.LBE3625:
	.loc 15 194 0
	cmpw 7,30,28
	bne+ 7,.L651
.LVL933:
.L623:
	addi 3,28,-4
	bl _ZdaPv
.L622:
	mr 3,31
.LEHB65:
	bl _Unwind_Resume
.LEHE65:
.LVL934:
.L633:
	mr 31,3
.LVL935:
.LBE3624:
.LBE3623:
.LBE3622:
.LBE3621:
.LBB3628:
.LBB3576:
.LBB3569:
.LBB3543:
	.loc 15 392 0
	li 16,0
	b .L576
.LVL936:
.L631:
	b .L653
.LVL937:
.L629:
	mr 31,3
	b .L621
.LVL938:
.L630:
.L654:
	mr 31,3
	b .L576
.LVL939:
.L635:
	b .L653
.LVL940:
.L634:
	b .L654
.LBE3543:
.LBE3569:
.LBE3576:
.LBE3628:
.LBE3631:
	.cfi_endproc
.LFE2816:
	.section	.gcc_except_table
.LLSDA2816:
	.byte	0xff
	.byte	0xff
	.byte	0x1
	.uleb128 .LLSDACSE2816-.LLSDACSB2816
.LLSDACSB2816:
	.uleb128 .LEHB55-.LFB2816
	.uleb128 .LEHE55-.LEHB55
	.uleb128 0
	.uleb128 0
	.uleb128 .LEHB56-.LFB2816
	.uleb128 .LEHE56-.LEHB56
	.uleb128 .L632-.LFB2816
	.uleb128 0
	.uleb128 .LEHB57-.LFB2816
	.uleb128 .LEHE57-.LEHB57
	.uleb128 .L630-.LFB2816
	.uleb128 0
	.uleb128 .LEHB58-.LFB2816
	.uleb128 .LEHE58-.LEHB58
	.uleb128 .L629-.LFB2816
	.uleb128 0
	.uleb128 .LEHB59-.LFB2816
	.uleb128 .LEHE59-.LEHB59
	.uleb128 0
	.uleb128 0
	.uleb128 .LEHB60-.LFB2816
	.uleb128 .LEHE60-.LEHB60
	.uleb128 .L631-.LFB2816
	.uleb128 0
	.uleb128 .LEHB61-.LFB2816
	.uleb128 .LEHE61-.LEHB61
	.uleb128 .L629-.LFB2816
	.uleb128 0
	.uleb128 .LEHB62-.LFB2816
	.uleb128 .LEHE62-.LEHB62
	.uleb128 .L633-.LFB2816
	.uleb128 0
	.uleb128 .LEHB63-.LFB2816
	.uleb128 .LEHE63-.LEHB63
	.uleb128 .L634-.LFB2816
	.uleb128 0
	.uleb128 .LEHB64-.LFB2816
	.uleb128 .LEHE64-.LEHB64
	.uleb128 .L635-.LFB2816
	.uleb128 0
	.uleb128 .LEHB65-.LFB2816
	.uleb128 .LEHE65-.LEHB65
	.uleb128 0
	.uleb128 0
.LLSDACSE2816:
	.section	".text"
	.size	_Z12KillEntitiesRK9idCmdArgsRK10idTypeInfo, .-_Z12KillEntitiesRK9idCmdArgsRK10idTypeInfo
	.align 2
	.globl _Z18Cmd_KillRagdolls_fRK9idCmdArgs
	.type	_Z18Cmd_KillRagdolls_fRK9idCmdArgs, @function
_Z18Cmd_KillRagdolls_fRK9idCmdArgs:
.LFB2819:
	.loc 2 260 0
	.cfi_startproc
.LVL941:
	stwu 1,-16(1)
.LCFI217:
	.cfi_def_cfa_offset 16
	mflr 0
	stw 30,8(1)
	.loc 2 261 0
	lis 30,gameLocal@ha
	.cfi_offset 30, -8
	.cfi_register 65, 0
	la 30,gameLocal@l(30)
	.loc 2 260 0
	stw 31,12(1)
	mr 31,3
	.cfi_offset 31, -4
	.loc 2 261 0
	mr 3,30
.LVL942:
	.loc 2 260 0
	stw 0,20(1)
	.loc 2 261 0
	.cfi_offset 65, 4
	bl _ZNK11idGameLocal14GetLocalPlayerEv
	cmpwi 7,3,0
	beq- 7,.L661
	.loc 2 261 0 is_stmt 0 discriminator 2
	mr 3,30
	li 4,0
	bl _ZN11idGameLocal8CheatsOkEb
	cmpwi 7,3,0
	bne- 7,.L664
.L661:
	.loc 2 266 0 is_stmt 1
	lwz 0,20(1)
	lwz 30,8(1)
	mtlr 0
	lwz 31,12(1)
.LVL943:
	addi 1,1,16
	.cfi_remember_state
.LCFI218:
	.cfi_def_cfa_offset 0
	.cfi_restore 31
	.cfi_restore 30
	blr
.LVL944:
.L664:
.LCFI219:
	.cfi_restore_state
.LBB3634:
.LBB3635:
	.loc 2 264 0
	lis 4,_ZN18idAFEntity_Generic4TypeE@ha
	mr 3,31
	la 4,_ZN18idAFEntity_Generic4TypeE@l(4)
	bl _Z12KillEntitiesRK9idCmdArgsRK10idTypeInfo
.LBE3635:
.LBE3634:
	.loc 2 266 0
	lwz 0,20(1)
	lwz 30,8(1)
.LBB3639:
.LBB3636:
	.loc 2 265 0
	mr 3,31
	lis 4,_ZN27idAFEntity_WithAttachedHead4TypeE@ha
.LBE3636:
.LBE3639:
	.loc 2 266 0
	lwz 31,12(1)
.LVL945:
	mtlr 0
.LBB3640:
.LBB3637:
	.loc 2 265 0
	la 4,_ZN27idAFEntity_WithAttachedHead4TypeE@l(4)
.LBE3637:
.LBE3640:
	.loc 2 266 0
	addi 1,1,16
.LCFI220:
	.cfi_def_cfa_offset 0
	.cfi_restore 31
	.cfi_restore 30
.LBB3641:
.LBB3638:
	.loc 2 265 0
	b _Z12KillEntitiesRK9idCmdArgsRK10idTypeInfo
.LVL946:
.LVL947:
.LBE3638:
.LBE3641:
	.cfi_endproc
.LFE2819:
	.size	_Z18Cmd_KillRagdolls_fRK9idCmdArgs, .-_Z18Cmd_KillRagdolls_fRK9idCmdArgs
	.align 2
	.globl _Z18Cmd_KillMovables_fRK9idCmdArgs
	.type	_Z18Cmd_KillMovables_fRK9idCmdArgs, @function
_Z18Cmd_KillMovables_fRK9idCmdArgs:
.LFB2818:
	.loc 2 246 0
	.cfi_startproc
.LVL948:
	stwu 1,-16(1)
.LCFI221:
	.cfi_def_cfa_offset 16
	mflr 0
	stw 30,8(1)
	.loc 2 247 0
	lis 30,gameLocal@ha
	.cfi_offset 30, -8
	.cfi_register 65, 0
	la 30,gameLocal@l(30)
	.loc 2 246 0
	stw 31,12(1)
	mr 31,3
	.cfi_offset 31, -4
	.loc 2 247 0
	mr 3,30
.LVL949:
	.loc 2 246 0
	stw 0,20(1)
	.loc 2 247 0
	.cfi_offset 65, 4
	bl _ZNK11idGameLocal14GetLocalPlayerEv
	cmpwi 7,3,0
	beq- 7,.L665
	.loc 2 247 0 is_stmt 0 discriminator 2
	mr 3,30
	li 4,0
	bl _ZN11idGameLocal8CheatsOkEb
	cmpwi 7,3,0
	bne- 7,.L668
.L665:
	.loc 2 251 0 is_stmt 1
	lwz 0,20(1)
	lwz 30,8(1)
	mtlr 0
	lwz 31,12(1)
.LVL950:
	addi 1,1,16
	.cfi_remember_state
.LCFI222:
	.cfi_def_cfa_offset 0
	.cfi_restore 31
	.cfi_restore 30
	blr
.LVL951:
.L668:
.LCFI223:
	.cfi_restore_state
	lwz 0,20(1)
	.loc 2 250 0
	mr 3,31
	.loc 2 251 0
	lwz 30,8(1)
	.loc 2 250 0
	lis 4,_ZN10idMoveable4TypeE@ha
	.loc 2 251 0
	lwz 31,12(1)
.LVL952:
	mtlr 0
	.loc 2 250 0
	la 4,_ZN10idMoveable4TypeE@l(4)
	.loc 2 251 0
	addi 1,1,16
.LCFI224:
	.cfi_def_cfa_offset 0
	.cfi_restore 31
	.cfi_restore 30
	.loc 2 250 0
	b _Z12KillEntitiesRK9idCmdArgsRK10idTypeInfo
.LVL953:
	.cfi_endproc
.LFE2818:
	.size	_Z18Cmd_KillMovables_fRK9idCmdArgs, .-_Z18Cmd_KillMovables_fRK9idCmdArgs
	.align 2
	.globl _Z18Cmd_KillMonsters_fRK9idCmdArgs
	.type	_Z18Cmd_KillMonsters_fRK9idCmdArgs, @function
_Z18Cmd_KillMonsters_fRK9idCmdArgs:
.LFB2817:
	.loc 2 232 0
	.cfi_startproc
.LVL954:
	mflr 0
	stwu 1,-16(1)
.LCFI225:
	.cfi_def_cfa_offset 16
	.cfi_register 65, 0
	.loc 2 233 0
	lis 4,_ZN4idAI4TypeE@ha
	la 4,_ZN4idAI4TypeE@l(4)
	.loc 2 232 0
	stw 31,12(1)
	stw 0,20(1)
	.loc 2 232 0
	mr 31,3
	.cfi_offset 65, 4
	.cfi_offset 31, -4
	.loc 2 233 0
	bl _Z12KillEntitiesRK9idCmdArgsRK10idTypeInfo
.LVL955:
	.loc 2 237 0
	lwz 0,20(1)
	.loc 2 236 0
	mr 3,31
	lis 4,_ZN12idProjectile4TypeE@ha
	.loc 2 237 0
	lwz 31,12(1)
.LVL956:
	mtlr 0
	.loc 2 236 0
	la 4,_ZN12idProjectile4TypeE@l(4)
	.loc 2 237 0
	addi 1,1,16
.LCFI226:
	.cfi_def_cfa_offset 0
	.cfi_restore 31
	.loc 2 236 0
	b _Z12KillEntitiesRK9idCmdArgsRK10idTypeInfo
.LVL957:
	.cfi_endproc
.LFE2817:
	.size	_Z18Cmd_KillMonsters_fRK9idCmdArgs, .-_Z18Cmd_KillMonsters_fRK9idCmdArgs
	.align 2
	.globl _Z16D_DrawDebugLinesv
	.type	_Z16D_DrawDebugLinesv, @function
_Z16D_DrawDebugLinesv:
.LFB2852:
	.loc 2 1256 0
	.cfi_startproc
.LVL958:
	stwu 1,-168(1)
.LCFI227:
	.cfi_def_cfa_offset 168
	mflr 0
.LBB3677:
.LBB3678:
.LBB3679:
	.loc 8 731 0
	lis 9,.LC126@ha
.LBE3679:
.LBE3678:
.LBE3677:
	.loc 2 1256 0
	stw 21,116(1)
.LBB3748:
	.loc 2 1275 0
	lis 21,.LANCHOR0@ha
	.cfi_offset 21, -52
	.cfi_register 65, 0
.LBE3748:
	.loc 2 1256 0
	stw 22,120(1)
.LBB3749:
	.loc 2 1264 0
	lis 22,gameLocal@ha
	.cfi_offset 22, -48
.LBE3749:
	.loc 2 1256 0
	stw 18,104(1)
.LBB3750:
	.loc 2 1275 0
	la 21,.LANCHOR0@l(21)
.LBB3688:
.LBB3689:
.LBB3690:
.LBB3691:
	.loc 9 276 0
	lis 18,_ZN6idMath5iSqrtE@ha
	.cfi_offset 18, -64
.LBE3691:
.LBE3690:
.LBE3689:
.LBE3688:
	.loc 2 1264 0
	la 22,gameLocal@l(22)
.LBE3750:
	.loc 2 1256 0
	stfd 31,160(1)
.LBB3751:
.LBB3713:
.LBB3706:
.LBB3699:
.LBB3692:
	.loc 9 276 0
	la 18,_ZN6idMath5iSqrtE@l(18)
.LBE3692:
.LBE3699:
.LBE3706:
.LBE3713:
.LBE3751:
	.loc 2 1256 0
	stw 14,88(1)
.LBB3752:
	.loc 2 1264 0
	addis 22,22,0x25
.LBE3752:
	.loc 2 1256 0
	stw 15,92(1)
.LBB3753:
	.loc 2 1274 0
	lis 14,.LC121@ha
	.cfi_offset 15, -76
	.cfi_offset 14, -80
	.cfi_offset 63, -8
.LBE3753:
	.loc 2 1256 0
	stw 16,96(1)
.LBB3754:
	.loc 2 1271 0
	lis 15,.LC124@ha
.LBE3754:
	.loc 2 1256 0
	stw 17,100(1)
.LBB3755:
.LBB3714:
.LBB3707:
.LBB3700:
.LBB3693:
	.loc 9 275 0
	lis 16,.LC90@ha
	.cfi_offset 17, -68
	.cfi_offset 16, -72
.LBE3693:
.LBE3700:
.LBE3707:
.LBE3714:
.LBE3755:
	.loc 2 1256 0
	stw 19,108(1)
.LBB3756:
.LBB3715:
.LBB3708:
.LBB3701:
.LBB3694:
	.loc 9 278 0
	lis 17,.LC123@ha
.LBE3694:
.LBE3701:
.LBE3708:
.LBE3715:
.LBE3756:
	.loc 2 1256 0
	stw 20,112(1)
.LBB3757:
	.loc 2 1265 0
	lis 19,.LC71@ha
	.cfi_offset 20, -56
	.cfi_offset 19, -60
.LBE3757:
	.loc 2 1256 0
	stw 26,136(1)
.LBB3758:
	.loc 2 1265 0
	lis 20,.LC17@ha
.LBE3758:
	.loc 2 1256 0
	stw 30,152(1)
.LBB3759:
	.loc 2 1266 0
	lis 26,gameRenderWorld@ha
	.cfi_offset 30, -16
	.cfi_offset 26, -32
.LBE3759:
	.loc 2 1256 0
	stw 31,156(1)
	.loc 2 1262 0
	li 30,0
	.loc 2 1256 0
	stw 0,172(1)
.LBB3760:
	.loc 2 1275 0
	addi 31,21,245
	.cfi_offset 65, 4
	.cfi_offset 31, -12
.LBE3760:
	.loc 2 1256 0
	stw 23,124(1)
	stw 24,128(1)
	stw 25,132(1)
	stw 27,140(1)
	stw 28,144(1)
	stw 29,148(1)
.LBB3761:
.LBB3716:
.LBB3684:
	.loc 8 731 0
	lfs 31,.LC126@l(9)
	b .L675
	.cfi_offset 29, -20
	.cfi_offset 28, -24
	.cfi_offset 27, -28
	.cfi_offset 25, -36
	.cfi_offset 24, -40
	.cfi_offset 23, -44
.LVL959:
.L680:
.LBB3680:
.LBB3681:
	.loc 9 270 0
	lwz 0,80(1)
.LVL960:
	.loc 9 275 0
	fmuls 1,10,1
.LBE3681:
.LBE3680:
	.loc 8 737 0
	fneg 6,12
.LBB3683:
.LBB3682:
	.loc 9 276 0
	rlwinm 9,0,19,21,29
	rlwinm 11,0,9,24,31
.LVL961:
	subfic 0,11,380
	lwzx 9,18,9
	rlwinm 0,0,22,0,8
	.loc 2 1256 0
	fneg 1,1
.LVL962:
	.loc 9 276 0
	or 0,0,9
	.loc 9 277 0
	stw 0,84(1)
	lfs 10,84(1)
.LVL963:
	fmr 9,10
.LVL964:
	.loc 9 278 0
	fmul 10,9,9
.LVL965:
	fmadd 10,1,10,5
	fmul 10,9,10
.LVL966:
	.loc 9 279 0
	fmul 7,10,10
	fmadd 7,1,7,5
.LVL967:
	fmul 7,10,7
.LVL968:
	.loc 9 280 0
	frsp 7,7
.LVL969:
.LBE3682:
.LBE3683:
	.loc 8 737 0
	fmuls 6,6,7
.LVL970:
	.loc 8 738 0
	fmuls 7,11,7
.LVL971:
.L673:
.LBE3684:
.LBE3716:
	.loc 2 1274 0
	lfs 5,.LC121@l(14)
	fcmpu 7,0,5
	bng- 7,.L674
.LVL972:
	.loc 2 1275 0
	fmr 0,5
.LVL973:
.L674:
	.loc 2 1277 0
	lis 9,.LC125@ha
	.loc 2 1256 0
	fneg 9,0
	.loc 2 1277 0
	lfs 10,.LC125@l(9)
	.loc 2 1279 0
	addi 4,1,32
	lwz 3,gameRenderWorld@l(26)
	mr 5,29
	.loc 2 1277 0
	fmuls 0,0,10
.LVL974:
	.loc 2 1279 0
	addi 6,1,20
	.loc 8 431 0
	fmadds 11,9,11,2
.LVL975:
	.loc 2 1279 0
	li 7,0
	.loc 8 431 0
	fmadds 12,9,12,3
.LVL976:
	.loc 2 1279 0
	li 8,0
.LBB3717:
.LBB3718:
	.loc 2 1256 0
	fneg 10,0
.LBE3718:
.LBE3717:
	.loc 8 431 0
	fmadds 9,9,13,4
.LVL977:
.LBB3723:
.LBB3724:
	.loc 8 452 0
	fmadds 8,0,6,11
.LVL978:
	fmadds 13,0,7,12
.LVL979:
.LBE3724:
.LBE3723:
.LBB3728:
.LBB3719:
	.loc 8 431 0
	fmadds 11,10,6,11
.LVL980:
.LBE3719:
.LBE3728:
.LBB3729:
.LBB3725:
	.loc 8 452 0
	fmadds 0,0,31,9
.LVL981:
	.loc 8 424 0
	stfs 8,20(1)
.LBE3725:
.LBE3729:
.LBB3730:
.LBB3720:
	.loc 8 431 0
	fmadds 12,10,7,12
.LVL982:
.LBE3720:
.LBE3730:
.LBB3731:
.LBB3726:
	.loc 8 425 0
	stfs 13,24(1)
.LBE3726:
.LBE3731:
.LBB3732:
.LBB3721:
	.loc 8 431 0
	fmadds 9,10,31,9
.LVL983:
	.loc 8 424 0
	stfs 11,8(1)
.LBE3721:
.LBE3732:
.LBB3733:
.LBB3727:
	.loc 8 426 0
	stfs 0,28(1)
.LVL984:
.LBE3727:
.LBE3733:
.LBB3734:
.LBB3722:
	.loc 8 425 0
	stfs 12,12(1)
	.loc 8 426 0
	stfs 9,16(1)
.LBE3722:
.LBE3734:
	.loc 2 1279 0
	lwz 9,0(3)
	lwz 0,156(9)
	mtctr 0
	bctrl
.LVL985:
	.loc 2 1280 0
	lwz 3,gameRenderWorld@l(26)
	addi 4,1,32
	mr 5,29
	lwz 9,0(3)
	addi 6,1,8
	li 7,0
	li 8,0
	lwz 0,156(9)
	mtctr 0
	bctrl
	.loc 2 1281 0
	lwz 3,gameRenderWorld@l(26)
	addi 4,1,32
	addi 5,1,20
.LVL986:
	lwz 9,0(3)
	addi 6,1,8
	li 7,0
	li 8,0
	lwz 0,156(9)
	mtctr 0
	bctrl
.LVL987:
.L671:
	.loc 2 1262 0
	cmpwi 7,30,127
	addi 31,31,36
	addi 30,30,1
.LVL988:
	beq- 7,.L679
.LVL989:
.L675:
	.loc 2 1263 0
	lbz 0,-33(31)
	cmpwi 7,0,0
	beq- 7,.L671
	.loc 2 1264 0
	lbz 0,-1(31)
	cmpwi 7,0,0
	beq- 7,.L672
	.loc 2 1264 0 is_stmt 0 discriminator 1
	lwz 0,2004(22)
	andi. 9,0,512
	beq- 0,.L671
.L672:
	.loc 2 1265 0 is_stmt 1
	lwz 9,-5(31)
.LVL990:
	lis 0,0x4330
	stw 0,56(1)
	.loc 2 1266 0
	mulli 24,30,36
	.loc 2 1265 0
	rlwinm 10,9,0,31,31
	rlwinm 11,9,31,31,31
	rlwinm 9,9,30,31,31
	xoris 10,10,0x8000
	xoris 11,11,0x8000
	xoris 9,9,0x8000
	stw 10,60(1)
	.loc 2 1266 0
	addi 28,21,212
	.loc 2 1265 0
	stw 11,68(1)
	.loc 2 1266 0
	add 25,28,24
	.loc 2 1265 0
	stw 0,64(1)
	.loc 2 1266 0
	addi 24,24,16
	.loc 2 1265 0
	stw 9,76(1)
	.loc 2 1266 0
	addi 27,25,4
	.loc 2 1265 0
	stw 0,72(1)
	.loc 2 1266 0
	add 29,28,24
	.loc 2 1265 0
	lfs 0,.LC71@l(19)
	.loc 2 1266 0
	addi 4,1,32
	.loc 2 1265 0
	lfd 12,56(1)
	.loc 2 1266 0
	mr 5,27
	.loc 2 1265 0
	lfd 13,64(1)
	.loc 2 1266 0
	mr 6,29
	.loc 2 1265 0
	lfd 11,72(1)
	fsub 12,12,0
	fsub 13,13,0
	lwz 23,.LC17@l(20)
	fsub 0,11,0
	.loc 2 1266 0
	lwz 3,gameRenderWorld@l(26)
	.loc 2 1265 0
	frsp 12,12
	stw 23,44(1)
	frsp 13,13
	.loc 2 1266 0
	li 7,0
	.loc 2 1265 0
	frsp 0,0
	.loc 2 1266 0
	li 8,0
	.loc 2 1265 0
	stfs 12,32(1)
	stfs 13,36(1)
	stfs 0,40(1)
	.loc 2 1266 0
	lwz 9,0(3)
	lwz 0,156(9)
	mtctr 0
	bctrl
.LVL991:
	.loc 2 1268 0
	lbz 0,0(31)
	cmpwi 7,0,0
	beq- 7,.L671
.LVL992:
.LBB3735:
.LBB3736:
	.loc 8 431 0
	lfs 3,4(29)
	lfs 12,8(25)
	lfsx 2,28,24
	fsubs 12,3,12
	lfs 11,4(25)
	lfs 4,8(29)
	fsubs 11,2,11
	lfs 8,12(25)
.LBE3736:
.LBE3735:
.LBB3739:
.LBB3709:
	.loc 8 649 0
	fmuls 13,12,12
.LBB3702:
.LBB3695:
	.loc 9 275 0
	lfs 1,.LC90@l(16)
.LBE3695:
.LBE3702:
.LBE3709:
.LBE3739:
.LBB3740:
.LBB3737:
	.loc 8 431 0
	fsubs 8,4,8
.LVL993:
.LBE3737:
.LBE3740:
.LBB3741:
.LBB3710:
.LBB3703:
.LBB3696:
	.loc 9 278 0
	lfs 5,.LC123@l(17)
.LBE3696:
.LBE3703:
.LBE3710:
.LBE3741:
	.loc 2 1271 0
	lfs 0,.LC124@l(15)
.LBB3742:
.LBB3738:
	.loc 8 649 0
	fmadds 13,11,11,13
	fmadds 13,8,8,13
	stfs 13,80(1)
.LVL994:
.LBE3738:
.LBE3742:
.LBB3743:
.LBB3711:
.LBB3704:
.LBB3697:
	.loc 9 275 0
	fmuls 10,13,1
	.loc 9 270 0
	lwz 0,80(1)
.LVL995:
	.loc 2 1256 0
	fneg 10,10
	.loc 9 276 0
	rlwinm 9,0,19,21,29
	rlwinm 11,0,9,24,31
	subfic 0,11,380
	lwzx 9,18,9
	rlwinm 0,0,22,0,8
	or 0,0,9
	.loc 9 277 0
	stw 0,84(1)
	lfs 13,84(1)
.LVL996:
	fmr 6,13
.LVL997:
	.loc 9 278 0
	fmul 7,6,6
	fmadd 7,10,7,5
	fmul 7,6,7
.LVL998:
	.loc 9 279 0
	fmul 13,7,7
	fmadd 13,10,13,5
.LVL999:
.LBE3697:
.LBE3704:
	.loc 8 654 0
	lfs 10,80(1)
.LBB3705:
.LBB3698:
	.loc 9 279 0
	fmul 13,7,13
.LVL1000:
	.loc 9 280 0
	frsp 13,13
.LVL1001:
.LBE3698:
.LBE3705:
	.loc 8 652 0
	fmuls 12,12,13
.LVL1002:
	.loc 8 654 0
	fmuls 9,10,13
	.loc 8 651 0
	fmuls 11,11,13
.LVL1003:
.LBE3711:
.LBE3743:
.LBB3744:
.LBB3685:
	.loc 8 730 0
	fmuls 10,12,12
.LBE3685:
.LBE3744:
.LBB3745:
.LBB3712:
	.loc 8 653 0
	fmuls 13,8,13
.LVL1004:
.LBE3712:
.LBE3745:
	.loc 2 1271 0
	fmuls 0,9,0
.LVL1005:
	.loc 8 730 0
	fmadds 10,11,11,10
.LBB3746:
.LBB3686:
	.loc 8 731 0
	fcmpu 7,10,31
.LBE3686:
.LBE3746:
	.loc 8 730 0
	stfs 10,80(1)
.LVL1006:
.LBB3747:
.LBB3687:
	.loc 8 731 0
	bne- 7,.L680
	.loc 8 732 0
	stw 23,84(1)
	.loc 8 733 0
	lis 9,.LC126@ha
	lfs 7,.LC126@l(9)
	.loc 8 732 0
	lfs 6,84(1)
	b .L673
.LVL1007:
.L679:
.LBE3687:
.LBE3747:
.LBE3761:
	.loc 2 1286 0
	lwz 0,172(1)
	lwz 14,88(1)
	mtlr 0
	lwz 15,92(1)
	lwz 16,96(1)
	lwz 17,100(1)
	lwz 18,104(1)
	lwz 19,108(1)
	lwz 20,112(1)
	lwz 21,116(1)
	lwz 22,120(1)
	lwz 23,124(1)
	lwz 24,128(1)
	lwz 25,132(1)
	lwz 26,136(1)
	lwz 27,140(1)
	lwz 28,144(1)
	lwz 29,148(1)
	lwz 30,152(1)
.LVL1008:
	lwz 31,156(1)
	lfd 31,160(1)
	addi 1,1,168
.LCFI228:
	.cfi_def_cfa_offset 0
	.cfi_restore 63
	.cfi_restore 31
	.cfi_restore 30
	.cfi_restore 29
	.cfi_restore 28
	.cfi_restore 27
	.cfi_restore 26
	.cfi_restore 25
	.cfi_restore 24
	.cfi_restore 23
	.cfi_restore 22
	.cfi_restore 21
	.cfi_restore 20
	.cfi_restore 19
	.cfi_restore 18
	.cfi_restore 17
	.cfi_restore 16
	.cfi_restore 15
	.cfi_restore 14
	blr
	.cfi_endproc
.LFE2852:
	.size	_Z16D_DrawDebugLinesv, .-_Z16D_DrawDebugLinesv
	.section	.text._ZN13idModelExportD2Ev,"axG",@progbits,_ZN13idModelExportD5Ev,comdat
	.align 2
	.weak	_ZN13idModelExportD2Ev
	.type	_ZN13idModelExportD2Ev, @function
_ZN13idModelExportD2Ev:
.LFB2857:
	.file 16 "d:/Data/Nintendo/DoomGX/src/game/gamesys/../anim/Anim.h"
	.loc 16 184 0
	.cfi_startproc
	.cfi_personality 0,__gxx_personality_v0
	.cfi_lsda 0,.LLSDA2857
.LVL1009:
	stwu 1,-16(1)
.LCFI229:
	.cfi_def_cfa_offset 16
	mflr 0
	stw 31,12(1)
	mr 31,3
	.cfi_offset 31, -4
	.cfi_register 65, 0
.LVL1010:
.LBB3778:
.LBB3779:
.LBB3780:
.LBB3781:
	.loc 10 501 0
	addi 3,3,64
.LVL1011:
.LBE3781:
.LBE3780:
.LBE3779:
.LBE3778:
	.loc 16 184 0
	stw 0,20(1)
	stw 30,8(1)
.LEHB66:
.LBB3797:
.LBB3784:
.LBB3783:
.LBB3782:
	.loc 10 501 0
	.cfi_offset 30, -8
	.cfi_offset 65, 4
	bl _ZN5idStr8FreeDataEv
.LEHE66:
.LVL1012:
.LBE3782:
.LBE3783:
.LBE3784:
.LBB3785:
.LBB3786:
.LBB3787:
	.loc 10 501 0 is_stmt 0 discriminator 1
	addi 3,31,32
.LEHB67:
	bl _ZN5idStr8FreeDataEv
.LEHE67:
.LVL1013:
.LBE3787:
.LBE3786:
.LBE3785:
.LBB3788:
.LBB3789:
.LBB3790:
	.loc 10 501 0 discriminator 2
	mr 3,31
.LEHB68:
	bl _ZN5idStr8FreeDataEv
.LEHE68:
.LBE3790:
.LBE3789:
.LBE3788:
.LBE3797:
	.loc 16 184 0 is_stmt 1 discriminator 2
	lwz 0,20(1)
	lwz 30,8(1)
	mtlr 0
	lwz 31,12(1)
.LVL1014:
	addi 1,1,16
	.cfi_remember_state
.LCFI230:
	.cfi_def_cfa_offset 0
	.cfi_restore 31
	.cfi_restore 30
	blr
.LVL1015:
.L690:
.LCFI231:
	.cfi_restore_state
	mr 30,3
.LVL1016:
.LBB3798:
.LBB3791:
.LBB3792:
.LBB3793:
	.loc 10 501 0
	addi 3,31,32
	bl _ZN5idStr8FreeDataEv
.LVL1017:
.L688:
.LBE3793:
.LBE3792:
.LBE3791:
.LBB3794:
.LBB3795:
.LBB3796:
	mr 3,31
	bl _ZN5idStr8FreeDataEv
	mr 3,30
.LEHB69:
	bl _Unwind_Resume
.LEHE69:
.LVL1018:
.L691:
	mr 30,3
	b .L688
.LBE3796:
.LBE3795:
.LBE3794:
.LBE3798:
	.cfi_endproc
.LFE2857:
	.section	.gcc_except_table
.LLSDA2857:
	.byte	0xff
	.byte	0xff
	.byte	0x1
	.uleb128 .LLSDACSE2857-.LLSDACSB2857
.LLSDACSB2857:
	.uleb128 .LEHB66-.LFB2857
	.uleb128 .LEHE66-.LEHB66
	.uleb128 .L690-.LFB2857
	.uleb128 0
	.uleb128 .LEHB67-.LFB2857
	.uleb128 .LEHE67-.LEHB67
	.uleb128 .L691-.LFB2857
	.uleb128 0
	.uleb128 .LEHB68-.LFB2857
	.uleb128 .LEHE68-.LEHB68
	.uleb128 0
	.uleb128 0
	.uleb128 .LEHB69-.LFB2857
	.uleb128 .LEHE69-.LEHB69
	.uleb128 0
	.uleb128 0
.LLSDACSE2857:
	.section	.text._ZN13idModelExportD2Ev,"axG",@progbits,_ZN13idModelExportD5Ev,comdat
	.size	_ZN13idModelExportD2Ev, .-_ZN13idModelExportD2Ev
	.section	".text"
	.align 2
	.type	_ZL18Cmd_ExportModels_fRK9idCmdArgs, @function
_ZL18Cmd_ExportModels_fRK9idCmdArgs:
.LFB2855:
	.loc 2 1332 0
	.cfi_startproc
	.cfi_personality 0,__gxx_personality_v0
	.cfi_lsda 0,.LLSDA2855
.LVL1019:
	stwu 1,-200(1)
.LCFI232:
	.cfi_def_cfa_offset 200
	mflr 0
	stw 29,188(1)
	mr 29,3
	.cfi_offset 29, -12
	.cfi_register 65, 0
	stw 30,192(1)
.LBB3881:
	.loc 2 1333 0
	addi 3,1,72
.LVL1020:
	.loc 2 1338 0
	lis 30,gameLocal@ha
	.cfi_offset 30, -8
.LBE3881:
	.loc 2 1332 0
	stw 0,204(1)
	stw 31,196(1)
.LBB4008:
	.loc 2 1338 0
	la 30,gameLocal@l(30)
.LEHB70:
	.loc 2 1333 0
	.cfi_offset 31, -4
	.cfi_offset 65, 4
	bl _ZN13idModelExportC1Ev
.LEHE70:
.LVL1021:
.LBB3882:
.LBB3883:
.LBB3884:
	.loc 10 357 0
	li 9,20
	.loc 10 356 0
	li 0,0
	.loc 10 357 0
	stw 9,48(1)
.LBE3884:
.LBE3883:
.LBE3882:
	.loc 2 1338 0
	mr 3,30
.LBB3887:
.LBB3886:
.LBB3885:
	.loc 10 358 0
	addi 9,1,52
	.loc 10 356 0
	stw 0,40(1)
	addi 31,1,40
	.loc 10 358 0
	stw 9,44(1)
	.loc 10 359 0
	stb 0,52(1)
.LEHB71:
.LBE3885:
.LBE3886:
.LBE3887:
	.loc 2 1338 0
	bl _ZNK11idGameLocal14GetLocalPlayerEv
	cmpwi 7,3,0
	beq- 7,.L693
	.loc 2 1338 0 is_stmt 0 discriminator 1
	mr 3,30
	li 4,0
	addi 31,1,40
	bl _ZN11idGameLocal8CheatsOkEb
.LEHE71:
	cmpwi 7,3,0
	bne- 7,.L693
.LVL1022:
.LBB3888:
.LBB3889:
.LBB3890:
	.loc 10 501 0 is_stmt 1 discriminator 4
	addi 3,1,40
.LEHB72:
	bl _ZN5idStr8FreeDataEv
.LEHE72:
.LVL1023:
.LBE3890:
.LBE3889:
.LBE3888:
.LBB3891:
.LBB3892:
.LBB3893:
.LBB3894:
.LBB3895:
	.loc 10 501 0 is_stmt 0
	addi 3,1,136
.LEHB73:
	bl _ZN5idStr8FreeDataEv
.LEHE73:
.LVL1024:
.LBE3895:
.LBE3894:
.LBE3893:
.LBB3896:
.LBB3897:
.LBB3898:
	addi 3,1,104
.LEHB74:
	bl _ZN5idStr8FreeDataEv
.LEHE74:
.LVL1025:
.LBE3898:
.LBE3897:
.LBE3896:
.LBB3899:
.LBB3900:
.LBB3901:
	addi 3,1,72
.LVL1026:
.LEHB75:
	bl _ZN5idStr8FreeDataEv
.LEHE75:
.LVL1027:
.LBE3901:
.LBE3900:
.LBE3899:
.LBE3892:
.LBE3891:
.LBE4008:
	.loc 2 1350 0 is_stmt 1
	lwz 0,204(1)
	lwz 29,188(1)
.LVL1028:
	mtlr 0
	lwz 30,192(1)
	lwz 31,196(1)
	addi 1,1,200
	.cfi_remember_state
	.cfi_restore 29
	.cfi_restore 30
	.cfi_restore 31
.LCFI233:
	.cfi_def_cfa_offset 0
	blr
.LVL1029:
.L693:
.LCFI234:
	.cfi_restore_state
.LBB4009:
	.loc 2 1342 0
	lwz 0,0(29)
	cmpwi 7,0,1
	ble- 7,.L741
.LVL1030:
	.loc 2 1345 0
	addi 31,1,40
	lwz 4,8(29)
	mr 3,31
.LEHB76:
	bl _ZN5idStraSEPKc
.LVL1031:
.LBB3913:
.LBB3914:
.LBB3915:
	.loc 2 2405 0
	lwz 30,40(1)
.LBE3915:
.LBB3933:
.LBB3934:
.LBB3935:
.LBB3936:
	.loc 10 415 0
	lis 9,.LC0@ha
	la 10,.LC0@l(9)
	lwz 11,.LC0@l(9)
.LBE3936:
.LBE3935:
.LBE3934:
.LBE3933:
.LBB3948:
.LBB3916:
	.loc 10 762 0
	addi 4,30,5
.LBE3916:
.LBE3948:
.LBB3949:
.LBB3945:
.LBB3941:
.LBB3937:
	.loc 10 415 0
	lbz 0,4(10)
.LBE3937:
.LBE3941:
.LBE3945:
.LBE3949:
.LBB3950:
.LBB3929:
.LBB3917:
.LBB3918:
	.loc 10 350 0
	cmpwi 7,4,20
.LBE3918:
.LBE3917:
.LBE3929:
.LBE3950:
.LBB3951:
.LBB3946:
.LBB3942:
.LBB3938:
	.loc 10 358 0
	addi 9,1,20
	.loc 10 357 0
	li 10,20
	.loc 10 415 0
	stb 0,4(9)
.LBE3938:
.LBE3942:
	.loc 10 416 0
	li 0,4
.LBB3943:
.LBB3939:
	.loc 10 357 0
	stw 10,16(1)
.LBE3939:
.LBE3943:
	.loc 10 416 0
	stw 0,8(1)
.LBE3946:
.LBE3951:
.LBB3952:
.LBB3930:
.LBB3922:
.LBB3919:
	.loc 10 350 0
	mr 0,30
.LBE3919:
.LBE3922:
.LBE3930:
.LBE3952:
.LBB3953:
.LBB3947:
.LBB3944:
.LBB3940:
	.loc 10 358 0
	stw 9,12(1)
.LVL1032:
	.loc 10 415 0
	stw 11,20(1)
.LBE3940:
.LBE3944:
.LBE3947:
.LBE3953:
.LBB3954:
.LBB3931:
.LBB3923:
.LBB3920:
	.loc 10 350 0
	bgt- 7,.L742
.LVL1033:
.L696:
.LBE3920:
.LBE3923:
	.loc 10 763 0
	cmpwi 7,0,0
	ble- 7,.L697
	li 9,0
.LVL1034:
.L698:
.LBB3924:
.LBB3925:
	.loc 10 522 0
	lwz 11,4(31)
.LBE3925:
.LBE3924:
	.loc 10 764 0
	lwz 10,12(1)
.LBB3927:
.LBB3926:
	.loc 10 522 0
	lbzx 0,11,9
.LBE3926:
.LBE3927:
	.loc 10 764 0
	lwz 11,8(1)
	add 11,10,11
	stbx 0,11,9
	.loc 10 763 0
	addi 9,9,1
.LVL1035:
	lwz 0,40(1)
	cmpw 7,9,0
	blt+ 7,.L698
.LVL1036:
.L697:
	.loc 10 767 0
	lwz 9,12(1)
	.loc 10 761 0
	addi 30,30,4
.LVL1037:
	.loc 10 767 0
	li 0,0
	.loc 10 766 0
	stw 30,8(1)
	.loc 10 767 0
	stbx 0,9,30
.LVL1038:
.LBE3931:
.LBE3954:
.LBE3914:
.LBE3913:
.LBB3961:
	.loc 2 2405 0
	lwz 30,8(1)
.LVL1039:
.LBB3962:
.LBB3963:
.LBB3964:
	.loc 10 350 0
	lwz 0,48(1)
.LBE3964:
.LBE3963:
	.loc 10 534 0
	addi 4,30,1
.LVL1040:
.LBB3967:
.LBB3965:
	.loc 10 350 0
	cmpw 7,4,0
	bgt- 7,.L743
.LVL1041:
.L700:
.LBE3965:
.LBE3967:
	.loc 10 535 0
	lwz 3,44(1)
	mr 5,30
	lwz 4,12(1)
	bl memcpy
	.loc 10 536 0
	lwz 9,44(1)
	li 0,0
.LBE3962:
.LBE3961:
.LBB3971:
.LBB3972:
.LBB3973:
	.loc 10 501 0
	addi 3,1,8
.LBE3973:
.LBE3972:
.LBE3971:
.LBB3976:
.LBB3969:
	.loc 10 536 0
	stbx 0,9,30
	.loc 10 537 0
	stw 30,40(1)
.LVL1042:
.LBE3969:
.LBE3976:
.LBB3977:
.LBB3975:
.LBB3974:
	.loc 10 501 0
	bl _ZN5idStr8FreeDataEv
.LBE3974:
.LBE3975:
.LBE3977:
	.loc 2 1347 0
	lis 4,.LC1@ha
	mr 3,31
	la 4,.LC1@l(4)
	bl _ZN5idStr20DefaultFileExtensionEPKc
.LVL1043:
	.loc 2 1348 0
	lwz 4,4(31)
	addi 3,1,72
	bl _ZN13idModelExport13ExportDefFileEPKc
.LEHE76:
.LVL1044:
.L695:
.LBB3978:
.LBB3979:
.LBB3980:
	.loc 10 501 0
	mr 3,31
.LEHB77:
	bl _ZN5idStr8FreeDataEv
.LEHE77:
.LVL1045:
.LBE3980:
.LBE3979:
.LBE3978:
.LBB3981:
.LBB3982:
.LBB3983:
.LBB3984:
.LBB3985:
	addi 3,1,136
.LVL1046:
.LEHB78:
	bl _ZN5idStr8FreeDataEv
.LEHE78:
.LVL1047:
.LBE3985:
.LBE3984:
.LBE3983:
.LBB3986:
.LBB3987:
.LBB3988:
	addi 3,1,104
.LVL1048:
.LEHB79:
	bl _ZN5idStr8FreeDataEv
.LEHE79:
.LVL1049:
.LBE3988:
.LBE3987:
.LBE3986:
.LBE3982:
.LBE3981:
.LBB3996:
.LBB3911:
.LBB3904:
.LBB3903:
.LBB3902:
	addi 3,1,72
.LVL1050:
.LEHB80:
	bl _ZN5idStr8FreeDataEv
.LEHE80:
.LVL1051:
.LBE3902:
.LBE3903:
.LBE3904:
.LBE3911:
.LBE3996:
.LBE4009:
	.loc 2 1350 0
	lwz 0,204(1)
	lwz 29,188(1)
.LVL1052:
	mtlr 0
	lwz 30,192(1)
	lwz 31,196(1)
	addi 1,1,200
	.cfi_remember_state
.LCFI235:
	.cfi_def_cfa_offset 0
	.cfi_restore 31
	.cfi_restore 30
	.cfi_restore 29
	blr
.LVL1053:
.L743:
.LCFI236:
	.cfi_restore_state
.LBB4010:
.LBB3997:
.LBB3970:
.LBB3968:
.LBB3966:
	.loc 10 351 0
	mr 3,31
	li 5,0
.LEHB81:
	bl _ZN5idStr10ReAllocateEib
.LEHE81:
.LVL1054:
	b .L700
.LVL1055:
.L742:
.LBE3966:
.LBE3968:
.LBE3970:
.LBE3997:
.LBB3998:
.LBB3959:
.LBB3955:
.LBB3932:
.LBB3928:
.LBB3921:
	addi 3,1,8
	li 5,1
.LEHB82:
	bl _ZN5idStr10ReAllocateEib
.LEHE82:
.LVL1056:
	lwz 0,40(1)
	b .L696
.LVL1057:
.L741:
.LBE3921:
.LBE3928:
.LBE3932:
.LBE3955:
.LBE3959:
.LBE3998:
	.loc 2 1343 0
	lis 4,.LC127@ha
	lis 5,.LC1@ha
	addi 3,1,72
	la 4,.LC127@l(4)
	la 5,.LC1@l(5)
	addi 31,1,40
.LEHB83:
	bl _ZN13idModelExport12ExportModelsEPKcS1_
.LEHE83:
	addi 31,1,40
	b .L695
.LVL1058:
.L732:
	mr 30,3
.LVL1059:
.LBB3999:
.LBB3960:
.LBB3956:
.LBB3957:
.LBB3958:
	.loc 10 501 0
	addi 3,1,8
	bl _ZN5idStr8FreeDataEv
.LVL1060:
.L703:
.LBE3958:
.LBE3957:
.LBE3956:
.LBE3960:
.LBE3999:
.LBB4000:
.LBB4001:
.LBB4002:
	mr 3,31
	bl _ZN5idStr8FreeDataEv
.LVL1061:
.L725:
.LBE4002:
.LBE4001:
.LBE4000:
	.loc 2 1349 0
	addi 3,1,72
	bl _ZN13idModelExportD1Ev
	mr 3,30
.LEHB84:
	bl _Unwind_Resume
.LEHE84:
.L731:
	mr 30,3
	b .L725
.LVL1062:
.L736:
	mr 31,3
.LVL1063:
.LBB4003:
.LBB3912:
.LBB3905:
.LBB3906:
.LBB3907:
	.loc 10 501 0
	addi 3,1,104
.LVL1064:
	bl _ZN5idStr8FreeDataEv
.LVL1065:
.L717:
.LBE3907:
.LBE3906:
.LBE3905:
.LBB3908:
.LBB3909:
.LBB3910:
	addi 3,1,72
.LVL1066:
	bl _ZN5idStr8FreeDataEv
.LVL1067:
	mr 3,31
.LEHB85:
	bl _Unwind_Resume
.LEHE85:
.LVL1068:
.L735:
	mr 31,3
	b .L717
.LVL1069:
.L730:
	mr 30,3
.LVL1070:
.LBE3910:
.LBE3909:
.LBE3908:
.LBE3912:
.LBE4003:
.LBB4004:
.LBB4005:
.LBB4006:
	addi 3,1,8
	bl _ZN5idStr8FreeDataEv
	b .L703
.LVL1071:
.L734:
	mr 31,3
.LVL1072:
.LBE4006:
.LBE4005:
.LBE4004:
.LBB4007:
.LBB3995:
.LBB3989:
.LBB3990:
.LBB3991:
	addi 3,1,104
.LVL1073:
	bl _ZN5idStr8FreeDataEv
.LVL1074:
.L711:
.LBE3991:
.LBE3990:
.LBE3989:
.LBB3992:
.LBB3993:
.LBB3994:
	addi 3,1,72
.LVL1075:
	bl _ZN5idStr8FreeDataEv
.LVL1076:
	mr 3,31
.LEHB86:
	bl _Unwind_Resume
.LEHE86:
.LVL1077:
.L729:
	mr 30,3
	b .L703
.LVL1078:
.L733:
	mr 31,3
	b .L711
.LBE3994:
.LBE3993:
.LBE3992:
.LBE3995:
.LBE4007:
.LBE4010:
	.cfi_endproc
.LFE2855:
	.section	.gcc_except_table
.LLSDA2855:
	.byte	0xff
	.byte	0xff
	.byte	0x1
	.uleb128 .LLSDACSE2855-.LLSDACSB2855
.LLSDACSB2855:
	.uleb128 .LEHB70-.LFB2855
	.uleb128 .LEHE70-.LEHB70
	.uleb128 0
	.uleb128 0
	.uleb128 .LEHB71-.LFB2855
	.uleb128 .LEHE71-.LEHB71
	.uleb128 .L729-.LFB2855
	.uleb128 0
	.uleb128 .LEHB72-.LFB2855
	.uleb128 .LEHE72-.LEHB72
	.uleb128 .L731-.LFB2855
	.uleb128 0
	.uleb128 .LEHB73-.LFB2855
	.uleb128 .LEHE73-.LEHB73
	.uleb128 .L736-.LFB2855
	.uleb128 0
	.uleb128 .LEHB74-.LFB2855
	.uleb128 .LEHE74-.LEHB74
	.uleb128 .L735-.LFB2855
	.uleb128 0
	.uleb128 .LEHB75-.LFB2855
	.uleb128 .LEHE75-.LEHB75
	.uleb128 0
	.uleb128 0
	.uleb128 .LEHB76-.LFB2855
	.uleb128 .LEHE76-.LEHB76
	.uleb128 .L729-.LFB2855
	.uleb128 0
	.uleb128 .LEHB77-.LFB2855
	.uleb128 .LEHE77-.LEHB77
	.uleb128 .L731-.LFB2855
	.uleb128 0
	.uleb128 .LEHB78-.LFB2855
	.uleb128 .LEHE78-.LEHB78
	.uleb128 .L734-.LFB2855
	.uleb128 0
	.uleb128 .LEHB79-.LFB2855
	.uleb128 .LEHE79-.LEHB79
	.uleb128 .L733-.LFB2855
	.uleb128 0
	.uleb128 .LEHB80-.LFB2855
	.uleb128 .LEHE80-.LEHB80
	.uleb128 0
	.uleb128 0
	.uleb128 .LEHB81-.LFB2855
	.uleb128 .LEHE81-.LEHB81
	.uleb128 .L730-.LFB2855
	.uleb128 0
	.uleb128 .LEHB82-.LFB2855
	.uleb128 .LEHE82-.LEHB82
	.uleb128 .L732-.LFB2855
	.uleb128 0
	.uleb128 .LEHB83-.LFB2855
	.uleb128 .LEHE83-.LEHB83
	.uleb128 .L729-.LFB2855
	.uleb128 0
	.uleb128 .LEHB84-.LFB2855
	.uleb128 .LEHE84-.LEHB84
	.uleb128 0
	.uleb128 0
	.uleb128 .LEHB85-.LFB2855
	.uleb128 .LEHE85-.LEHB85
	.uleb128 0
	.uleb128 0
	.uleb128 .LEHB86-.LFB2855
	.uleb128 .LEHE86-.LEHB86
	.uleb128 0
	.uleb128 0
.LLSDACSE2855:
	.section	".text"
	.size	_ZL18Cmd_ExportModels_fRK9idCmdArgs, .-_ZL18Cmd_ExportModels_fRK9idCmdArgs
	.align 2
	.type	_ZL20Cmd_ReexportModels_fRK9idCmdArgs, @function
_ZL20Cmd_ReexportModels_fRK9idCmdArgs:
.LFB2859:
	.loc 2 1357 0
	.cfi_startproc
	.cfi_personality 0,__gxx_personality_v0
	.cfi_lsda 0,.LLSDA2859
.LVL1079:
	stwu 1,-200(1)
.LCFI237:
	.cfi_def_cfa_offset 200
	mflr 0
	stw 29,188(1)
	mr 29,3
	.cfi_offset 29, -12
	.cfi_register 65, 0
	stw 30,192(1)
.LBB4093:
	.loc 2 1358 0
	addi 3,1,72
.LVL1080:
	.loc 2 1363 0
	lis 30,gameLocal@ha
	.cfi_offset 30, -8
.LBE4093:
	.loc 2 1357 0
	stw 0,204(1)
	stw 31,196(1)
.LBB4223:
	.loc 2 1363 0
	la 30,gameLocal@l(30)
.LBE4223:
	.loc 2 1357 0
	stw 28,184(1)
.LEHB87:
.LBB4224:
	.loc 2 1358 0
	.cfi_offset 28, -16
	.cfi_offset 31, -4
	.cfi_offset 65, 4
	bl _ZN13idModelExportC1Ev
.LEHE87:
.LVL1081:
.LBB4094:
.LBB4095:
.LBB4096:
	.loc 10 357 0
	li 9,20
	.loc 10 356 0
	li 0,0
	.loc 10 357 0
	stw 9,48(1)
.LBE4096:
.LBE4095:
.LBE4094:
	.loc 2 1363 0
	mr 3,30
.LBB4099:
.LBB4098:
.LBB4097:
	.loc 10 358 0
	addi 9,1,52
	.loc 10 356 0
	stw 0,40(1)
	.loc 10 358 0
	stw 9,44(1)
	addi 31,1,40
	.loc 10 359 0
	stb 0,52(1)
.LEHB88:
.LBE4097:
.LBE4098:
.LBE4099:
	.loc 2 1363 0
	bl _ZNK11idGameLocal14GetLocalPlayerEv
	cmpwi 7,3,0
	beq- 7,.L745
	.loc 2 1363 0 is_stmt 0 discriminator 1
	mr 3,30
	li 4,0
	addi 31,1,40
	bl _ZN11idGameLocal8CheatsOkEb
.LEHE88:
	cmpwi 7,3,0
	bne- 7,.L745
.LVL1082:
.LBB4100:
.LBB4101:
.LBB4102:
	.loc 10 501 0 is_stmt 1 discriminator 4
	addi 3,1,40
.LEHB89:
	bl _ZN5idStr8FreeDataEv
.LEHE89:
.LVL1083:
.LBE4102:
.LBE4101:
.LBE4100:
.LBB4103:
.LBB4104:
.LBB4105:
.LBB4106:
.LBB4107:
	.loc 10 501 0 is_stmt 0
	addi 3,1,136
.LEHB90:
	bl _ZN5idStr8FreeDataEv
.LEHE90:
.LVL1084:
.LBE4107:
.LBE4106:
.LBE4105:
.LBB4108:
.LBB4109:
.LBB4110:
	addi 3,1,104
.LEHB91:
	bl _ZN5idStr8FreeDataEv
.LEHE91:
.LVL1085:
.LBE4110:
.LBE4109:
.LBE4108:
.LBB4111:
.LBB4112:
.LBB4113:
	addi 3,1,72
.LVL1086:
.LEHB92:
	bl _ZN5idStr8FreeDataEv
.LEHE92:
.LVL1087:
.LBE4113:
.LBE4112:
.LBE4111:
.LBE4104:
.LBE4103:
.LBE4224:
	.loc 2 1377 0 is_stmt 1
	lwz 0,204(1)
	lwz 28,184(1)
	mtlr 0
	lwz 29,188(1)
.LVL1088:
	lwz 30,192(1)
	lwz 31,196(1)
	addi 1,1,200
	.cfi_remember_state
	.cfi_restore 28
	.cfi_restore 29
	.cfi_restore 30
	.cfi_restore 31
.LCFI238:
	.cfi_def_cfa_offset 0
	blr
.LVL1089:
.L745:
.LCFI239:
	.cfi_restore_state
.LBB4225:
	.loc 2 1367 0
	li 0,1
	lis 28,_ZN13idAnimManager11forceExportE@ha
	stb 0,_ZN13idAnimManager11forceExportE@l(28)
	.loc 2 1368 0
	lwz 0,0(29)
	cmpwi 7,0,1
	ble- 7,.L793
.LVL1090:
	.loc 2 1371 0
	addi 31,1,40
	lwz 4,8(29)
	mr 3,31
.LEHB93:
	bl _ZN5idStraSEPKc
.LVL1091:
.LBB4125:
.LBB4126:
.LBB4127:
	.loc 2 2405 0
	lwz 30,40(1)
.LBE4127:
.LBB4145:
.LBB4146:
.LBB4147:
.LBB4148:
	.loc 10 415 0
	lis 9,.LC0@ha
	la 10,.LC0@l(9)
	lwz 11,.LC0@l(9)
.LBE4148:
.LBE4147:
.LBE4146:
.LBE4145:
.LBB4160:
.LBB4128:
	.loc 10 762 0
	addi 4,30,5
.LBE4128:
.LBE4160:
.LBB4161:
.LBB4157:
.LBB4153:
.LBB4149:
	.loc 10 415 0
	lbz 0,4(10)
.LBE4149:
.LBE4153:
.LBE4157:
.LBE4161:
.LBB4162:
.LBB4141:
.LBB4129:
.LBB4130:
	.loc 10 350 0
	cmpwi 7,4,20
.LBE4130:
.LBE4129:
.LBE4141:
.LBE4162:
.LBB4163:
.LBB4158:
.LBB4154:
.LBB4150:
	.loc 10 358 0
	addi 9,1,20
	.loc 10 357 0
	li 10,20
	.loc 10 415 0
	stb 0,4(9)
.LBE4150:
.LBE4154:
	.loc 10 416 0
	li 0,4
.LBB4155:
.LBB4151:
	.loc 10 357 0
	stw 10,16(1)
.LBE4151:
.LBE4155:
	.loc 10 416 0
	stw 0,8(1)
.LBE4158:
.LBE4163:
.LBB4164:
.LBB4142:
.LBB4134:
.LBB4131:
	.loc 10 350 0
	mr 0,30
.LBE4131:
.LBE4134:
.LBE4142:
.LBE4164:
.LBB4165:
.LBB4159:
.LBB4156:
.LBB4152:
	.loc 10 358 0
	stw 9,12(1)
.LVL1092:
	.loc 10 415 0
	stw 11,20(1)
.LBE4152:
.LBE4156:
.LBE4159:
.LBE4165:
.LBB4166:
.LBB4143:
.LBB4135:
.LBB4132:
	.loc 10 350 0
	bgt- 7,.L794
.LVL1093:
.L748:
.LBE4132:
.LBE4135:
	.loc 10 763 0
	cmpwi 7,0,0
	ble- 7,.L749
	li 9,0
.LVL1094:
.L750:
.LBB4136:
.LBB4137:
	.loc 10 522 0
	lwz 11,4(31)
.LBE4137:
.LBE4136:
	.loc 10 764 0
	lwz 10,12(1)
.LBB4139:
.LBB4138:
	.loc 10 522 0
	lbzx 0,11,9
.LBE4138:
.LBE4139:
	.loc 10 764 0
	lwz 11,8(1)
	add 11,10,11
	stbx 0,11,9
	.loc 10 763 0
	addi 9,9,1
.LVL1095:
	lwz 0,40(1)
	cmpw 7,9,0
	blt+ 7,.L750
.LVL1096:
.L749:
	.loc 10 767 0
	lwz 9,12(1)
	.loc 10 761 0
	addi 30,30,4
.LVL1097:
	.loc 10 767 0
	li 0,0
	.loc 10 766 0
	stw 30,8(1)
	.loc 10 767 0
	stbx 0,9,30
.LVL1098:
.LBE4143:
.LBE4166:
.LBE4126:
.LBE4125:
.LBB4173:
	.loc 2 2405 0
	lwz 30,8(1)
.LVL1099:
.LBB4174:
.LBB4175:
.LBB4176:
	.loc 10 350 0
	lwz 0,48(1)
.LBE4176:
.LBE4175:
	.loc 10 534 0
	addi 4,30,1
.LVL1100:
.LBB4179:
.LBB4177:
	.loc 10 350 0
	cmpw 7,4,0
	bgt- 7,.L795
.LVL1101:
.L752:
.LBE4177:
.LBE4179:
	.loc 10 535 0
	lwz 3,44(1)
	mr 5,30
	lwz 4,12(1)
	bl memcpy
	.loc 10 536 0
	lwz 9,44(1)
	li 0,0
.LBE4174:
.LBE4173:
.LBB4183:
.LBB4184:
.LBB4185:
	.loc 10 501 0
	addi 3,1,8
.LBE4185:
.LBE4184:
.LBE4183:
.LBB4188:
.LBB4181:
	.loc 10 536 0
	stbx 0,9,30
	.loc 10 537 0
	stw 30,40(1)
.LVL1102:
.LBE4181:
.LBE4188:
.LBB4189:
.LBB4187:
.LBB4186:
	.loc 10 501 0
	bl _ZN5idStr8FreeDataEv
.LBE4186:
.LBE4187:
.LBE4189:
	.loc 2 1373 0
	lis 4,.LC1@ha
	mr 3,31
	la 4,.LC1@l(4)
	bl _ZN5idStr20DefaultFileExtensionEPKc
.LVL1103:
	.loc 2 1374 0
	lwz 4,4(31)
	addi 3,1,72
	bl _ZN13idModelExport13ExportDefFileEPKc
.LEHE93:
.LVL1104:
.L747:
	.loc 2 1376 0
	li 0,0
.LBB4190:
.LBB4191:
.LBB4192:
	.loc 10 501 0
	mr 3,31
.LBE4192:
.LBE4191:
.LBE4190:
	.loc 2 1376 0
	stb 0,_ZN13idAnimManager11forceExportE@l(28)
.LVL1105:
.LEHB94:
.LBB4195:
.LBB4194:
.LBB4193:
	.loc 10 501 0
	bl _ZN5idStr8FreeDataEv
.LEHE94:
.LVL1106:
.LBE4193:
.LBE4194:
.LBE4195:
.LBB4196:
.LBB4197:
.LBB4198:
.LBB4199:
.LBB4200:
	addi 3,1,136
.LVL1107:
.LEHB95:
	bl _ZN5idStr8FreeDataEv
.LEHE95:
.LVL1108:
.LBE4200:
.LBE4199:
.LBE4198:
.LBB4201:
.LBB4202:
.LBB4203:
	addi 3,1,104
.LVL1109:
.LEHB96:
	bl _ZN5idStr8FreeDataEv
.LEHE96:
.LVL1110:
.LBE4203:
.LBE4202:
.LBE4201:
.LBE4197:
.LBE4196:
.LBB4211:
.LBB4123:
.LBB4116:
.LBB4115:
.LBB4114:
	addi 3,1,72
.LVL1111:
.LEHB97:
	bl _ZN5idStr8FreeDataEv
.LEHE97:
.LVL1112:
.LBE4114:
.LBE4115:
.LBE4116:
.LBE4123:
.LBE4211:
.LBE4225:
	.loc 2 1377 0
	lwz 0,204(1)
	lwz 28,184(1)
	mtlr 0
	lwz 29,188(1)
.LVL1113:
	lwz 30,192(1)
	lwz 31,196(1)
	addi 1,1,200
	.cfi_remember_state
.LCFI240:
	.cfi_def_cfa_offset 0
	.cfi_restore 31
	.cfi_restore 30
	.cfi_restore 29
	.cfi_restore 28
	blr
.LVL1114:
.L795:
.LCFI241:
	.cfi_restore_state
.LBB4226:
.LBB4212:
.LBB4182:
.LBB4180:
.LBB4178:
	.loc 10 351 0
	mr 3,31
	li 5,0
.LEHB98:
	bl _ZN5idStr10ReAllocateEib
.LEHE98:
.LVL1115:
	b .L752
.LVL1116:
.L794:
.LBE4178:
.LBE4180:
.LBE4182:
.LBE4212:
.LBB4213:
.LBB4171:
.LBB4167:
.LBB4144:
.LBB4140:
.LBB4133:
	addi 3,1,8
	li 5,1
.LEHB99:
	bl _ZN5idStr10ReAllocateEib
.LEHE99:
.LVL1117:
	lwz 0,40(1)
	b .L748
.LVL1118:
.L793:
.LBE4133:
.LBE4140:
.LBE4144:
.LBE4167:
.LBE4171:
.LBE4213:
	.loc 2 1369 0
	lis 4,.LC127@ha
	lis 5,.LC1@ha
	addi 3,1,72
	la 4,.LC127@l(4)
	la 5,.LC1@l(5)
	addi 31,1,40
.LEHB100:
	bl _ZN13idModelExport12ExportModelsEPKcS1_
.LEHE100:
	addi 31,1,40
	b .L747
.LVL1119:
.L784:
	mr 30,3
.LVL1120:
.LBB4214:
.LBB4172:
.LBB4168:
.LBB4169:
.LBB4170:
	.loc 10 501 0
	addi 3,1,8
	bl _ZN5idStr8FreeDataEv
.LVL1121:
.L755:
.LBE4170:
.LBE4169:
.LBE4168:
.LBE4172:
.LBE4214:
.LBB4215:
.LBB4216:
.LBB4217:
	mr 3,31
	bl _ZN5idStr8FreeDataEv
.LVL1122:
.L777:
.LBE4217:
.LBE4216:
.LBE4215:
	.loc 2 1376 0
	addi 3,1,72
	bl _ZN13idModelExportD1Ev
	mr 3,30
.LEHB101:
	bl _Unwind_Resume
.LEHE101:
.L783:
	mr 30,3
	b .L777
.LVL1123:
.L788:
	mr 31,3
.LVL1124:
.LBB4218:
.LBB4124:
.LBB4117:
.LBB4118:
.LBB4119:
	.loc 10 501 0
	addi 3,1,104
.LVL1125:
	bl _ZN5idStr8FreeDataEv
.LVL1126:
.L769:
.LBE4119:
.LBE4118:
.LBE4117:
.LBB4120:
.LBB4121:
.LBB4122:
	addi 3,1,72
.LVL1127:
	bl _ZN5idStr8FreeDataEv
.LVL1128:
	mr 3,31
.LEHB102:
	bl _Unwind_Resume
.LEHE102:
.LVL1129:
.L787:
	mr 31,3
	b .L769
.LVL1130:
.L782:
	mr 30,3
.LVL1131:
.LBE4122:
.LBE4121:
.LBE4120:
.LBE4124:
.LBE4218:
.LBB4219:
.LBB4220:
.LBB4221:
	addi 3,1,8
	bl _ZN5idStr8FreeDataEv
	b .L755
.LVL1132:
.L786:
	mr 31,3
.LVL1133:
.LBE4221:
.LBE4220:
.LBE4219:
.LBB4222:
.LBB4210:
.LBB4204:
.LBB4205:
.LBB4206:
	addi 3,1,104
.LVL1134:
	bl _ZN5idStr8FreeDataEv
.LVL1135:
.L763:
.LBE4206:
.LBE4205:
.LBE4204:
.LBB4207:
.LBB4208:
.LBB4209:
	addi 3,1,72
.LVL1136:
	bl _ZN5idStr8FreeDataEv
.LVL1137:
	mr 3,31
.LEHB103:
	bl _Unwind_Resume
.LEHE103:
.LVL1138:
.L781:
	mr 30,3
	b .L755
.LVL1139:
.L785:
	mr 31,3
	b .L763
.LBE4209:
.LBE4208:
.LBE4207:
.LBE4210:
.LBE4222:
.LBE4226:
	.cfi_endproc
.LFE2859:
	.section	.gcc_except_table
.LLSDA2859:
	.byte	0xff
	.byte	0xff
	.byte	0x1
	.uleb128 .LLSDACSE2859-.LLSDACSB2859
.LLSDACSB2859:
	.uleb128 .LEHB87-.LFB2859
	.uleb128 .LEHE87-.LEHB87
	.uleb128 0
	.uleb128 0
	.uleb128 .LEHB88-.LFB2859
	.uleb128 .LEHE88-.LEHB88
	.uleb128 .L781-.LFB2859
	.uleb128 0
	.uleb128 .LEHB89-.LFB2859
	.uleb128 .LEHE89-.LEHB89
	.uleb128 .L783-.LFB2859
	.uleb128 0
	.uleb128 .LEHB90-.LFB2859
	.uleb128 .LEHE90-.LEHB90
	.uleb128 .L788-.LFB2859
	.uleb128 0
	.uleb128 .LEHB91-.LFB2859
	.uleb128 .LEHE91-.LEHB91
	.uleb128 .L787-.LFB2859
	.uleb128 0
	.uleb128 .LEHB92-.LFB2859
	.uleb128 .LEHE92-.LEHB92
	.uleb128 0
	.uleb128 0
	.uleb128 .LEHB93-.LFB2859
	.uleb128 .LEHE93-.LEHB93
	.uleb128 .L781-.LFB2859
	.uleb128 0
	.uleb128 .LEHB94-.LFB2859
	.uleb128 .LEHE94-.LEHB94
	.uleb128 .L783-.LFB2859
	.uleb128 0
	.uleb128 .LEHB95-.LFB2859
	.uleb128 .LEHE95-.LEHB95
	.uleb128 .L786-.LFB2859
	.uleb128 0
	.uleb128 .LEHB96-.LFB2859
	.uleb128 .LEHE96-.LEHB96
	.uleb128 .L785-.LFB2859
	.uleb128 0
	.uleb128 .LEHB97-.LFB2859
	.uleb128 .LEHE97-.LEHB97
	.uleb128 0
	.uleb128 0
	.uleb128 .LEHB98-.LFB2859
	.uleb128 .LEHE98-.LEHB98
	.uleb128 .L782-.LFB2859
	.uleb128 0
	.uleb128 .LEHB99-.LFB2859
	.uleb128 .LEHE99-.LEHB99
	.uleb128 .L784-.LFB2859
	.uleb128 0
	.uleb128 .LEHB100-.LFB2859
	.uleb128 .LEHE100-.LEHB100
	.uleb128 .L781-.LFB2859
	.uleb128 0
	.uleb128 .LEHB101-.LFB2859
	.uleb128 .LEHE101-.LEHB101
	.uleb128 0
	.uleb128 0
	.uleb128 .LEHB102-.LFB2859
	.uleb128 .LEHE102-.LEHB102
	.uleb128 0
	.uleb128 0
	.uleb128 .LEHB103-.LFB2859
	.uleb128 .LEHE103-.LEHB103
	.uleb128 0
	.uleb128 0
.LLSDACSE2859:
	.section	".text"
	.size	_ZL20Cmd_ReexportModels_fRK9idCmdArgs, .-_ZL20Cmd_ReexportModels_fRK9idCmdArgs
	.align 2
	.globl _Z14FindEntityGUIsP8idEntityPPK14modelSurface_siRi
	.type	_Z14FindEntityGUIsP8idEntityPPK14modelSurface_siRi, @function
_Z14FindEntityGUIsP8idEntityPPK14modelSurface_siRi:
.LFB2882:
	.loc 2 2107 0
	.cfi_startproc
.LVL1140:
	stwu 1,-24(1)
.LCFI242:
	.cfi_def_cfa_offset 24
	mflr 0
.LBB4227:
	.loc 2 2117 0
	slwi 5,5,2
.LVL1141:
.LBE4227:
	.loc 2 2107 0
	stw 31,20(1)
	mr 31,4
	.cfi_offset 31, -4
	.cfi_register 65, 0
	stw 30,16(1)
.LBB4228:
	.loc 2 2117 0
	li 4,0
.LVL1142:
.LBE4228:
	.loc 2 2107 0
	mr 30,3
	.cfi_offset 30, -8
.LBB4229:
	.loc 2 2117 0
	mr 3,31
.LVL1143:
.LBE4229:
	.loc 2 2107 0
	stw 0,28(1)
	stw 28,8(1)
.LBB4230:
	.loc 2 2122 0
	li 28,0
	.cfi_offset 28, -16
	.cfi_offset 65, 4
.LBE4230:
	.loc 2 2107 0
	stw 29,12(1)
	.loc 2 2107 0
	mr 29,6
	.cfi_offset 29, -12
.LBB4231:
	.loc 2 2117 0
	bl memset
.LVL1144:
	.loc 2 2118 0
	li 0,0
	stw 0,0(29)
	.loc 2 2120 0
	mr 3,30
	lwz 9,0(30)
	lwz 0,36(9)
	mtctr 0
	bctrl
.LVL1145:
	.loc 2 2121 0
	lwz 30,0(3)
.LVL1146:
	.loc 2 2123 0
	li 3,0
.LVL1147:
	.loc 2 2122 0
	cmpwi 7,30,0
	beq- 7,.L797
.L798:
.LVL1148:
	.loc 2 2126 0 discriminator 1
	lwz 9,0(30)
	mr 3,30
	lwz 0,88(9)
	mtctr 0
	bctrl
	.loc 2 2127 0 discriminator 1
	mr 4,28
	.loc 2 2126 0 discriminator 1
	cmpw 7,28,3
	.loc 2 2127 0 discriminator 1
	mr 3,30
	.loc 2 2126 0 discriminator 1
	addi 28,28,1
.LVL1149:
	bge- 7,.L802
.L800:
	.loc 2 2127 0
	lwz 9,0(30)
	lwz 0,96(9)
	mtctr 0
	bctrl
.LVL1150:
	.loc 2 2128 0
	cmpwi 0,3,0
	beq- 0,.L798
	.loc 2 2131 0
	lwz 9,4(3)
.LVL1151:
	.loc 2 2132 0
	cmpwi 7,9,0
	beq- 7,.L798
	.loc 2 2135 0
	lwz 0,76(9)
	cmpwi 7,0,0
	ble- 7,.L798
	.loc 2 2136 0
	lwz 9,0(29)
	slwi 0,9,2
	addi 9,9,1
	stwx 3,31,0
	.loc 2 2126 0
	mr 3,30
.LVL1152:
	.loc 2 2136 0
	stw 9,0(29)
.LVL1153:
	.loc 2 2126 0
	lwz 9,0(30)
	lwz 0,88(9)
.LVL1154:
	mtctr 0
	bctrl
	.loc 2 2127 0
	mr 4,28
	.loc 2 2126 0
	cmpw 7,28,3
	.loc 2 2127 0
	mr 3,30
	.loc 2 2126 0
	addi 28,28,1
.LVL1155:
	blt+ 7,.L800
.L802:
	.loc 2 2140 0
	lwz 3,0(29)
	cntlzw 3,3
	srwi 3,3,5
	xori 3,3,1
.LVL1156:
.L797:
.LBE4231:
	.loc 2 2141 0
	lwz 0,28(1)
	lwz 28,8(1)
	mtlr 0
	lwz 29,12(1)
.LVL1157:
	lwz 30,16(1)
.LVL1158:
	lwz 31,20(1)
.LVL1159:
	addi 1,1,24
.LCFI243:
	.cfi_def_cfa_offset 0
	.cfi_restore 31
	.cfi_restore 30
	.cfi_restore 29
	.cfi_restore 28
	blr
	.cfi_endproc
.LFE2882:
	.size	_Z14FindEntityGUIsP8idEntityPPK14modelSurface_siRi, .-_Z14FindEntityGUIsP8idEntityPPK14modelSurface_siRi
	.align 2
	.globl _Z13Cmd_NextGUI_fRK9idCmdArgs
	.type	_Z13Cmd_NextGUI_fRK9idCmdArgs, @function
_Z13Cmd_NextGUI_fRK9idCmdArgs:
.LFB2883:
	.loc 2 2148 0
	.cfi_startproc
.LVL1160:
	stwu 1,-168(1)
.LCFI244:
	.cfi_def_cfa_offset 168
	mflr 0
	mfcr 12
	stw 30,104(1)
.LBB4319:
	.loc 2 2163 0
	lis 30,gameLocal@ha
	.cfi_offset 30, -64
	.cfi_register 70, 12
	.cfi_register 65, 0
	la 30,gameLocal@l(30)
.LBE4319:
	.loc 2 2148 0
	stw 31,108(1)
	mr 31,3
	.cfi_offset 31, -60
.LBB4492:
	.loc 2 2163 0
	mr 3,30
.LVL1161:
.LBE4492:
	.loc 2 2148 0
	stw 28,96(1)
	stw 0,172(1)
	stfd 25,112(1)
	stfd 26,120(1)
	stfd 27,128(1)
	stfd 28,136(1)
	stfd 29,144(1)
	stfd 30,152(1)
	stfd 31,160(1)
	stw 24,80(1)
	stw 25,84(1)
	stw 26,88(1)
	stw 27,92(1)
	stw 29,100(1)
	stw 12,76(1)
.LBB4493:
	.loc 2 2163 0
	.cfi_offset 70, -92
	.cfi_offset 29, -68
	.cfi_offset 27, -76
	.cfi_offset 26, -80
	.cfi_offset 25, -84
	.cfi_offset 24, -88
	.cfi_offset 63, -8
	.cfi_offset 62, -16
	.cfi_offset 61, -24
	.cfi_offset 60, -32
	.cfi_offset 59, -40
	.cfi_offset 58, -48
	.cfi_offset 57, -56
	.cfi_offset 65, 4
	.cfi_offset 28, -72
	bl _ZNK11idGameLocal14GetLocalPlayerEv
.LVL1162:
	.loc 2 2164 0
	mr. 28,3
	beq- 0,.L803
	.loc 2 2164 0 is_stmt 0 discriminator 2
	mr 3,30
.LVL1163:
	li 4,1
	bl _ZN11idGameLocal8CheatsOkEb
	cmpwi 7,3,0
	beq- 7,.L803
	.loc 2 2168 0 is_stmt 1
	lwz 0,0(31)
	cmpwi 7,0,1
	bne- 7,.L837
.LVL1164:
.LBB4320:
.LBB4321:
	.loc 4 634 0
	addis 29,30,0x25
	lwz 0,2056(29)
	rlwinm 9,0,0,20,31
.LVL1165:
	.loc 4 635 0
	srawi 0,0,12
	addi 11,9,4228
	slwi 11,11,2
	add 11,30,11
	lwz 11,4(11)
	cmpw 7,11,0
	beq- 7,.L838
.LBE4321:
.LBE4320:
	.loc 2 2177 0
	li 0,0
	stw 0,8(1)
.LVL1166:
.L807:
	.loc 2 2193 0
	addis 11,30,0x1
	lwz 9,-32192(11)
	lwz 0,-32196(11)
.LBB4325:
.LBB4326:
	.loc 13 268 0
	cmpwi 7,9,0
	beq- 7,.L827
.LBE4326:
.LBE4325:
.LBB4327:
.LBB4328:
	cmpw 7,0,9
	beq- 7,.L827
.L839:
	.loc 13 271 0
	lwz 31,12(9)
.LVL1167:
.LBE4328:
.LBE4327:
	.loc 2 2198 0
	cmpwi 4,31,0
	beq- 4,.L827
	lis 25,.LC129@ha
.LBB4330:
.LBB4331:
	.loc 11 241 0
	lis 26,.LC130@ha
.LBE4331:
.LBE4330:
.LBB4339:
.LBB4340:
	lis 24,.LC131@ha
	la 25,.LC129@l(25)
.LBE4340:
.LBE4339:
.LBB4346:
.LBB4333:
	la 26,.LC130@l(26)
.LBE4333:
.LBE4346:
.LBB4347:
.LBB4342:
	la 24,.LC131@l(24)
.LVL1168:
.L817:
.LBE4342:
.LBE4347:
	.loc 2 2199 0
	addi 27,31,100
.LVL1169:
.LBB4348:
.LBB4349:
	.loc 11 241 0
	mr 4,25
	mr 3,27
	bl _ZNK6idDict7FindKeyEPKc
.LVL1170:
.LBE4349:
.LBE4348:
.LBB4353:
.LBB4334:
	mr 4,26
.LBE4334:
.LBE4353:
.LBB4354:
.LBB4351:
	.loc 11 242 0
	mr. 9,3
.LBE4351:
.LBE4354:
.LBB4355:
.LBB4335:
	.loc 11 241 0
	mr 3,27
.LVL1171:
.LBE4335:
.LBE4355:
.LBB4356:
.LBB4352:
	.loc 11 242 0
	beq- 0,.L813
.LVL1172:
.LBB4350:
	.loc 2 2405 0
	lwz 9,4(9)
.LVL1173:
.LBE4350:
.LBE4352:
.LBE4356:
	.loc 2 2199 0
	lwz 0,4(9)
	cmpwi 7,0,0
	bne- 7,.L814
.LVL1174:
.L813:
.LBB4357:
.LBB4336:
	.loc 11 241 0
	bl _ZNK6idDict7FindKeyEPKc
.LVL1175:
.LBE4336:
.LBE4357:
.LBB4358:
.LBB4343:
	mr 4,24
.LBE4343:
.LBE4358:
.LBB4359:
.LBB4337:
	.loc 11 242 0
	mr. 9,3
.LBE4337:
.LBE4359:
.LBB4360:
.LBB4344:
	.loc 11 241 0
	mr 3,27
.LVL1176:
.LBE4344:
.LBE4360:
.LBB4361:
.LBB4338:
	.loc 11 242 0
	beq- 0,.L815
.LVL1177:
.LBB4332:
	.loc 2 2405 0
	lwz 9,4(9)
.LVL1178:
.LBE4332:
.LBE4338:
.LBE4361:
	.loc 2 2203 0
	lwz 0,4(9)
	cmpwi 7,0,0
	bne- 7,.L814
.LVL1179:
.L815:
.LBB4362:
.LBB4345:
	.loc 11 241 0
	bl _ZNK6idDict7FindKeyEPKc
.LVL1180:
	.loc 11 242 0
	cmpwi 0,3,0
	beq- 0,.L816
.LVL1181:
.LBB4341:
	.loc 2 2405 0
	lwz 9,4(3)
.LBE4341:
.LBE4345:
.LBE4362:
	.loc 2 2207 0
	lwz 0,4(9)
	cmpwi 7,0,0
	bne- 7,.L814
.LVL1182:
.L816:
.LBB4363:
.LBB4364:
	.loc 4 608 0
	lwz 9,4(31)
	addi 11,9,4228
	slwi 11,11,2
	add 11,30,11
	lwz 0,4(11)
	slwi 0,0,12
	or 9,0,9
	stw 9,2056(29)
	.loc 2 2405 0
	lwz 9,16(31)
	lwz 0,12(31)
.LBE4364:
.LBE4363:
.LBB4365:
.LBB4366:
	.loc 13 268 0
	cmpwi 6,9,0
	cmpw 7,0,9
	beq- 6,.L827
	beq- 7,.L827
	.loc 13 271 0
	lwz 31,12(9)
.LVL1183:
.LBE4366:
.LBE4365:
	.loc 2 2198 0
	cmpwi 4,31,0
	bne+ 4,.L817
.LVL1184:
.L827:
.LBB4367:
.LBB4368:
	.loc 4 606 0
	li 0,0
.LBE4368:
.LBE4367:
	.loc 2 2219 0
	lis 4,.LC132@ha
.LBB4372:
.LBB4369:
	.loc 4 606 0
	stw 0,2056(29)
.LBE4369:
.LBE4372:
	.loc 2 2219 0
	mr 3,30
	.loc 2 2216 0
	stw 0,2060(29)
	.loc 2 2219 0
	la 4,.LC132@l(4)
	crxor 6,6,6
	bl _ZNK11idGameLocal6PrintfEPKcz
.LVL1185:
.L803:
.LBE4493:
	.loc 2 2257 0
	lwz 0,172(1)
	lwz 12,76(1)
	mtlr 0
	lwz 24,80(1)
	lwz 25,84(1)
	mtcrf 8,12
	lwz 26,88(1)
	lwz 27,92(1)
	lwz 28,96(1)
.LVL1186:
	lwz 29,100(1)
	lwz 30,104(1)
	lwz 31,108(1)
	lfd 25,112(1)
	lfd 26,120(1)
	lfd 27,128(1)
	lfd 28,136(1)
	lfd 29,144(1)
	lfd 30,152(1)
	lfd 31,160(1)
	addi 1,1,168
	.cfi_remember_state
.LCFI245:
	.cfi_def_cfa_offset 0
	.cfi_restore 70
	.cfi_restore 63
	.cfi_restore 62
	.cfi_restore 61
	.cfi_restore 60
	.cfi_restore 59
	.cfi_restore 58
	.cfi_restore 57
	.cfi_restore 31
	.cfi_restore 30
	.cfi_restore 29
	.cfi_restore 28
	.cfi_restore 27
	.cfi_restore 26
	.cfi_restore 25
	.cfi_restore 24
	blr
.LVL1187:
.L837:
.LCFI246:
	.cfi_restore_state
.LBB4494:
	.loc 2 2169 0
	lis 4,.LC128@ha
	mr 3,30
	la 4,.LC128@l(4)
	crxor 6,6,6
	bl _ZNK11idGameLocal6PrintfEPKcz
	.loc 2 2170 0
	b .L803
.LVL1188:
.L838:
.LBB4373:
.LBB4322:
	.loc 4 636 0
	addi 9,9,132
.LVL1189:
.LBE4322:
.LBE4373:
	.loc 2 2177 0
	li 0,0
.LBB4374:
.LBB4323:
	.loc 4 636 0
	slwi 9,9,2
.LVL1190:
.LBE4323:
.LBE4374:
	.loc 2 2177 0
	stw 0,8(1)
.LVL1191:
.LBB4375:
.LBB4324:
	.loc 4 636 0
	add 9,30,9
	lwz 31,4(9)
.LVL1192:
.LBE4324:
.LBE4375:
	.loc 2 2179 0
	cmpwi 7,31,0
	beq- 7,.L807
	.loc 2 2181 0
	addi 26,1,24
	addi 27,1,8
	mr 3,31
	mr 4,26
	li 5,3
	mr 6,27
	bl _Z14FindEntityGUIsP8idEntityPPK14modelSurface_siRi
	cmpwi 7,3,0
	beq- 7,.L808
	.loc 2 2182 0
	lwz 9,2060(29)
	lwz 0,8(1)
	cmpw 7,9,0
	blt- 7,.L809
.L808:
.LVL1193:
	.loc 2 2405 0
	lwz 9,16(31)
	lwz 0,12(31)
.LBB4376:
.LBB4329:
	.loc 13 268 0
	cmpwi 7,9,0
	beq- 7,.L827
	cmpw 7,0,9
	bne+ 7,.L839
	b .L827
.LVL1194:
.L814:
.LBE4329:
.LBE4376:
.LBB4377:
.LBB4370:
	.loc 4 605 0
	beq- 4,.L827
	.loc 4 608 0
	lwz 9,4(31)
	addi 26,1,24
	addi 27,1,8
.LVL1195:
	addi 11,9,4228
	slwi 11,11,2
	add 11,30,11
	lwz 0,4(11)
.LBE4370:
.LBE4377:
	.loc 2 2216 0
	li 11,0
	stw 11,2060(29)
.LBB4378:
.LBB4371:
	.loc 4 608 0
	slwi 0,0,12
	or 9,0,9
	stw 9,2056(29)
.LVL1196:
.L809:
.LBE4371:
.LBE4378:
	.loc 2 2224 0
	mr 3,31
	mr 4,26
	li 5,3
	mr 6,27
	bl _Z14FindEntityGUIsP8idEntityPPK14modelSurface_siRi
	cmpwi 7,3,0
	beq- 7,.L840
.L819:
	.loc 2 2228 0
	lwz 0,8(1)
	.loc 2 2229 0
	lwz 5,72(31)
	.loc 2 2228 0
	cmpwi 7,0,0
	beq- 7,.L841
	.loc 2 2233 0
	lwz 6,2060(29)
	lis 4,.LC135@ha
	mr 3,30
	la 4,.LC135@l(4)
	crxor 6,6,6
	bl _ZNK11idGameLocal6PrintfEPKcz
	.loc 2 2235 0
	lwz 9,0(31)
	mr 3,31
	lwz 0,36(9)
	mtctr 0
	bctrl
.LVL1197:
	.loc 2 2236 0
	lwz 6,2060(29)
.LVL1198:
	.loc 2 2237 0
	slwi 9,6,2
	.loc 2 2236 0
	addi 0,6,1
	.loc 2 2237 0
	add 27,27,9
	.loc 2 2236 0
	stw 0,2060(29)
	.loc 2 2237 0
	lwz 9,16(27)
	lwz 9,8(9)
.LVL1199:
	.loc 2 2238 0
	cmpwi 7,9,0
	beq- 7,.L842
.LVL1200:
	.loc 2 2246 0
	lwz 11,80(9)
.LBB4379:
.LBB4380:
.LBB4381:
	.loc 8 402 0
	lfs 29,88(3)
.LBE4381:
.LBE4380:
.LBE4379:
.LBB4404:
.LBB4405:
.LBB4406:
	.file 17 "d:/Data/Nintendo/DoomGX/src/game/gamesys/../../idlib/../idlib/math/Matrix.h"
	.loc 17 454 0
	lfs 0,4(11)
.LBE4406:
.LBE4405:
.LBE4404:
.LBB4417:
.LBB4382:
.LBB4383:
	.loc 8 402 0
	lfs 30,92(3)
.LBE4383:
.LBE4382:
.LBE4417:
.LBB4418:
.LBB4412:
.LBB4407:
	.loc 17 454 0
	fmuls 9,29,0
	lfs 12,0(11)
	fmuls 7,30,0
.LBE4407:
.LBE4412:
.LBE4418:
.LBB4419:
.LBB4384:
.LBB4385:
	.loc 8 402 0
	lfs 28,84(3)
.LBE4385:
.LBE4384:
.LBB4386:
.LBB4387:
	lfs 1,76(3)
.LBE4387:
.LBE4386:
.LBB4388:
.LBB4389:
	lfs 2,80(3)
.LBE4389:
.LBE4388:
.LBE4419:
.LBB4420:
.LBB4413:
.LBB4408:
	.loc 17 454 0
	fmuls 8,28,0
	fmadds 9,1,12,9
	lfs 0,8(11)
	fmadds 7,2,12,7
.LBE4408:
.LBE4413:
.LBE4420:
.LBB4421:
.LBB4390:
.LBB4391:
	.loc 8 402 0
	lfs 31,72(3)
.LVL1201:
.LBE4391:
.LBE4390:
.LBB4392:
.LBB4393:
	lfs 4,100(3)
.LBE4393:
.LBE4392:
.LBE4421:
.LBB4422:
.LBB4423:
	.file 18 "d:/Data/Nintendo/DoomGX/src/game/gamesys/../../idlib/../idlib/bv/Bounds.h"
	.loc 18 212 0
	lis 11,.LC90@ha
.LBE4423:
.LBE4422:
.LBB4429:
.LBB4394:
.LBB4395:
	.loc 8 402 0
	lfs 5,104(3)
.LBE4395:
.LBE4394:
.LBE4429:
.LBB4430:
.LBB4414:
.LBB4409:
	.loc 17 454 0
	fmadds 12,31,12,8
	fmadds 9,4,0,9
.LBE4409:
.LBE4414:
.LBE4430:
.LBB4431:
.LBB4396:
.LBB4397:
	.loc 8 402 0
	lfs 3,96(3)
.LVL1202:
.LBE4397:
.LBE4396:
.LBE4431:
.LBB4432:
.LBB4415:
.LBB4410:
	.loc 17 454 0
	fmadds 7,5,0,7
.LBE4410:
.LBE4415:
.LBE4432:
.LBB4433:
.LBB4424:
	.loc 18 212 0
	lfs 10,16(9)
.LBE4424:
.LBE4433:
.LBB4434:
.LBB4416:
.LBB4411:
	.loc 17 454 0
	fmadds 8,3,0,12
.LBE4411:
.LBE4416:
.LBE4434:
.LBB4435:
.LBB4425:
	.loc 18 212 0
	lfs 11,12(9)
.LBE4425:
.LBE4435:
.LBB4436:
.LBB4437:
	.loc 8 425 0
	stfs 9,40(1)
	.loc 8 426 0
	stfs 7,44(1)
	.loc 8 424 0
	stfs 8,36(1)
.LBE4437:
.LBE4436:
.LBB4438:
.LBB4426:
	.loc 18 212 0
	lfs 0,4(9)
	lfs 12,.LC90@l(11)
	fadds 10,10,0
	lfs 0,0(9)
	lfs 13,8(9)
	fadds 11,11,0
	lfs 6,20(9)
	fmuls 10,10,12
.LBE4426:
.LBE4438:
.LBB4439:
.LBB4440:
.LBB4441:
	.loc 17 904 0
	lis 9,.LC126@ha
	lfs 0,.LC126@l(9)
.LBE4441:
.LBE4440:
.LBE4439:
.LBB4462:
.LBB4427:
	.loc 18 212 0
	fadds 6,6,13
	fmuls 11,11,12
.LBE4427:
.LBE4462:
.LBB4463:
.LBB4455:
.LBB4448:
	.loc 17 904 0
	lis 9,.LC17@ha
	fmuls 13,10,0
.LBE4448:
.LBE4455:
.LBE4463:
.LBB4464:
.LBB4398:
.LBB4399:
	.loc 8 402 0
	lfs 25,60(3)
.LVL1203:
.LBE4399:
.LBE4398:
.LBE4464:
.LBB4465:
.LBB4428:
	.loc 18 212 0
	fmuls 12,6,12
.LBE4428:
.LBE4465:
.LBB4466:
.LBB4456:
.LBB4449:
	.loc 17 904 0
	lfs 6,.LC17@l(9)
.LBE4449:
.LBE4456:
.LBE4466:
.LBB4467:
.LBB4400:
.LBB4401:
	.loc 8 402 0
	lfs 26,64(3)
.LVL1204:
.LBE4401:
.LBE4400:
.LBE4467:
.LBB4468:
.LBB4457:
.LBB4450:
	.loc 17 904 0
	fmadds 13,11,0,13
.LBE4450:
.LBE4457:
.LBE4468:
.LBB4469:
.LBB4402:
.LBB4403:
	.loc 8 402 0
	lfs 27,68(3)
.LVL1205:
.LBE4403:
.LBE4402:
.LBE4469:
.LBB4470:
.LBB4458:
.LBB4451:
	.loc 17 904 0
	fmadds 13,12,0,13
	fadds 13,13,6
.LVL1206:
	.loc 17 905 0
	fcmpu 7,13,0
	beq- 7,.L831
.LBB4442:
	.loc 17 908 0
	fcmpu 7,13,6
	bne- 7,.L823
	.loc 17 912 0
	fmuls 28,28,10
	fmuls 29,29,10
	fmuls 0,30,10
	fmadds 31,31,11,28
	fmadds 1,1,11,29
	fmadds 0,2,11,0
	fmadds 3,3,12,31
	fmadds 4,4,12,1
	fmadds 0,5,12,0
	fadds 3,25,3
	fadds 4,26,4
	fadds 0,27,0
.LVL1207:
.L822:
.LBB4443:
	.loc 8 452 0
	lis 9,.LC137@ha
.LBE4443:
.LBE4442:
.LBE4451:
.LBE4458:
.LBE4470:
	.loc 2 2250 0
	mr 3,28
.LVL1208:
.LBB4471:
.LBB4459:
.LBB4452:
.LBB4446:
.LBB4444:
	.loc 8 452 0
	lfs 13,.LC137@l(9)
.LVL1209:
	fmadds 31,7,13,0
.LVL1210:
.LBE4444:
.LBE4446:
.LBE4452:
.LBE4459:
.LBE4471:
.LBB4472:
.LBB4473:
	fmadds 8,8,13,3
.LVL1211:
	fmadds 13,9,13,4
	.loc 8 426 0
	stfs 31,68(1)
	.loc 8 424 0
	stfs 8,60(1)
	.loc 8 425 0
	stfs 13,64(1)
.LBE4473:
.LBE4472:
	.loc 2 2250 0
	bl _ZNK7idActor9EyeHeightEv
.LVL1212:
.LBB4474:
.LBB4475:
	.loc 8 489 0
	lfs 12,36(1)
.LBE4475:
.LBE4474:
	.loc 2 2250 0
	fsubs 1,31,1
.LBB4480:
.LBB4476:
	.loc 8 490 0
	lfs 13,40(1)
.LBE4476:
.LBE4480:
	.loc 2 2252 0
	addi 3,1,12
.LBB4481:
.LBB4477:
	.loc 8 491 0
	lfs 0,44(1)
	.loc 8 489 0
	fneg 12,12
	.loc 8 490 0
	fneg 13,13
.LBE4477:
.LBE4481:
	.loc 2 2252 0
	addi 4,1,36
.LBB4482:
.LBB4478:
	.loc 8 491 0
	fneg 0,0
.LBE4478:
.LBE4482:
	.loc 2 2250 0
	stfs 1,68(1)
.LVL1213:
.LBB4483:
.LBB4479:
	.loc 8 489 0
	stfs 12,36(1)
	.loc 8 490 0
	stfs 13,40(1)
	.loc 8 491 0
	stfs 0,44(1)
.LBE4479:
.LBE4483:
	.loc 2 2252 0
	bl _ZNK6idVec38ToAnglesEv
.LVL1214:
.LBB4484:
.LBB4485:
	.loc 5 146 0
	lwz 0,12(1)
.LBE4485:
.LBE4484:
	.loc 2 2256 0
	mr 3,28
	addi 4,1,60
	addi 5,1,48
.LBB4488:
.LBB4486:
	.loc 5 146 0
	stw 0,48(1)
.LBE4486:
.LBE4488:
	.loc 2 2256 0
	li 6,0
.LBB4489:
.LBB4487:
	.loc 5 147 0
	lwz 0,16(1)
	stw 0,52(1)
	.loc 5 148 0
	lwz 0,20(1)
	stw 0,56(1)
.LBE4487:
.LBE4489:
	.loc 2 2255 0
	li 0,1
	stb 0,4628(28)
	.loc 2 2256 0
	lwz 9,0(28)
	lwz 0,200(9)
	mtctr 0
	bctrl
	b .L803
.LVL1215:
.L841:
	.loc 2 2229 0
	lis 4,.LC134@ha
	mr 3,30
	la 4,.LC134@l(4)
	crxor 6,6,6
	bl _ZNK11idGameLocal6PrintfEPKcz
	.loc 2 2230 0
	b .L803
.LVL1216:
.L831:
.LBB4490:
.LBB4460:
.LBB4453:
	.loc 8 397 0
	fmr 4,0
.LVL1217:
	.loc 8 396 0
	fmr 3,0
.LVL1218:
	b .L822
.LVL1219:
.L840:
.LBE4453:
.LBE4460:
.LBE4490:
	.loc 2 2225 0
	lwz 5,72(31)
	lis 4,.LC133@ha
	mr 3,30
	la 4,.LC133@l(4)
	crxor 6,6,6
	bl _ZNK11idGameLocal6PrintfEPKcz
	b .L819
.LVL1220:
.L823:
.LBB4491:
.LBB4461:
.LBB4454:
.LBB4447:
.LBB4445:
	.loc 17 915 0
	fdivs 6,6,13
.LVL1221:
	.loc 17 919 0
	fmuls 28,28,10
.LVL1222:
	fmuls 29,29,10
.LVL1223:
	fmuls 0,30,10
	fmadds 31,31,11,28
.LVL1224:
	fmadds 1,1,11,29
.LVL1225:
	fmadds 0,2,11,0
	fmadds 3,3,12,31
.LVL1226:
	fmadds 4,4,12,1
.LVL1227:
	fmadds 0,5,12,0
	fadds 3,25,3
	fadds 4,26,4
	fadds 0,27,0
	fmuls 3,6,3
	fmuls 4,6,4
	fmuls 0,6,0
.LVL1228:
	b .L822
.LVL1229:
.L842:
.LBE4445:
.LBE4447:
.LBE4454:
.LBE4461:
.LBE4491:
	.loc 2 2239 0
	lwz 5,72(31)
	lis 4,.LC136@ha
	mr 3,30
.LVL1230:
	la 4,.LC136@l(4)
	crxor 6,6,6
	bl _ZNK11idGameLocal6PrintfEPKcz
.LVL1231:
	.loc 2 2240 0
	b .L803
.LBE4494:
	.cfi_endproc
.LFE2883:
	.size	_Z13Cmd_NextGUI_fRK9idCmdArgs, .-_Z13Cmd_NextGUI_fRK9idCmdArgs
	.align 2
	.globl _ZN11idGameLocal19InitConsoleCommandsEv
	.type	_ZN11idGameLocal19InitConsoleCommandsEv, @function
_ZN11idGameLocal19InitConsoleCommandsEv:
.LFB2886:
	.loc 2 2294 0
	.cfi_startproc
.LVL1232:
	stwu 1,-24(1)
.LCFI247:
	.cfi_def_cfa_offset 24
	mflr 0
	.loc 2 2295 0
	lis 4,.LC138@ha
	lis 5,_Z14ListTypeInfo_fRK9idCmdArgs@ha
	.loc 2 2294 0
	stw 31,20(1)
	.loc 2 2295 0
	lis 31,cmdSystem@ha
	.cfi_offset 31, -4
	.cfi_register 65, 0
	.loc 2 2294 0
	stw 28,8(1)
	.loc 2 2295 0
	lis 7,.LC139@ha
	.loc 2 2294 0
	stw 29,12(1)
	.loc 2 2295 0
	la 4,.LC138@l(4)
	.loc 2 2294 0
	stw 30,16(1)
	.loc 2 2295 0
	la 5,_Z14ListTypeInfo_fRK9idCmdArgs@l(5)
	.loc 2 2294 0
	stw 0,28(1)
	.loc 2 2295 0
	li 6,16
	lwz 3,cmdSystem@l(31)
.LVL1233:
	la 7,.LC139@l(7)
	li 8,0
	.loc 2 2304 0
	lis 30,_ZN11idGameLocal24ArgCompletion_EntityNameERK9idCmdArgsPFvPKcE@ha
	.cfi_offset 65, 4
	.cfi_offset 30, -8
	.cfi_offset 29, -12
	.cfi_offset 28, -16
	.loc 2 2295 0
	lwz 9,0(3)
	.loc 2 2304 0
	la 30,_ZN11idGameLocal24ArgCompletion_EntityNameERK9idCmdArgsPFvPKcE@l(30)
	.loc 2 2315 0
	lis 28,_Z16Cmd_GetViewpos_fRK9idCmdArgs@ha
	lis 29,.LC177@ha
	.loc 2 2295 0
	lwz 0,16(9)
	.loc 2 2315 0
	la 28,_Z16Cmd_GetViewpos_fRK9idCmdArgs@l(28)
	la 29,.LC177@l(29)
	.loc 2 2295 0
	mtctr 0
	bctrl
	.loc 2 2296 0
	lwz 3,cmdSystem@l(31)
	lis 4,.LC140@ha
	lis 5,_Z16WriteGameState_fRK9idCmdArgs@ha
	lwz 9,0(3)
	lis 7,.LC141@ha
	la 4,.LC140@l(4)
	la 5,_Z16WriteGameState_fRK9idCmdArgs@l(5)
	lwz 0,16(9)
	li 6,16
	la 7,.LC141@l(7)
	li 8,0
	mtctr 0
	bctrl
	.loc 2 2297 0
	lwz 3,cmdSystem@l(31)
	lis 4,.LC142@ha
	lis 5,_Z14TestSaveGame_fRK9idCmdArgs@ha
	lwz 9,0(3)
	lis 7,.LC143@ha
	la 4,.LC142@l(4)
	la 5,_Z14TestSaveGame_fRK9idCmdArgs@l(5)
	lwz 0,16(9)
	li 6,17
	la 7,.LC143@l(7)
	li 8,0
	mtctr 0
	bctrl
	.loc 2 2298 0
	lwz 3,cmdSystem@l(31)
	lis 4,.LC144@ha
	lis 5,_ZN7idClass13DisplayInfo_fERK9idCmdArgs@ha
	lwz 9,0(3)
	lis 7,.LC145@ha
	la 4,.LC144@l(4)
	la 5,_ZN7idClass13DisplayInfo_fERK9idCmdArgs@l(5)
	lwz 0,16(9)
	li 6,16
	la 7,.LC145@l(7)
	li 8,0
	mtctr 0
	bctrl
	.loc 2 2299 0
	lwz 3,cmdSystem@l(31)
	lis 4,.LC146@ha
	lis 5,_ZN7idClass13ListClasses_fERK9idCmdArgs@ha
	lwz 9,0(3)
	lis 7,.LC147@ha
	la 4,.LC146@l(4)
	la 5,_ZN7idClass13ListClasses_fERK9idCmdArgs@l(5)
	lwz 0,16(9)
	li 6,16
	la 7,.LC147@l(7)
	li 8,0
	mtctr 0
	bctrl
	.loc 2 2300 0
	lwz 3,cmdSystem@l(31)
	lis 4,.LC148@ha
	lis 5,_ZN8idThread13ListThreads_fERK9idCmdArgs@ha
	lwz 9,0(3)
	lis 7,.LC149@ha
	la 4,.LC148@l(4)
	la 5,_ZN8idThread13ListThreads_fERK9idCmdArgs@l(5)
	lwz 0,16(9)
	li 6,17
	la 7,.LC149@l(7)
	li 8,0
	mtctr 0
	bctrl
	.loc 2 2301 0
	lwz 3,cmdSystem@l(31)
	lis 4,.LC150@ha
	lis 5,_Z16Cmd_EntityList_fRK9idCmdArgs@ha
	lwz 9,0(3)
	lis 7,.LC151@ha
	la 4,.LC150@l(4)
	la 5,_Z16Cmd_EntityList_fRK9idCmdArgs@l(5)
	lwz 0,16(9)
	li 6,17
	la 7,.LC151@l(7)
	li 8,0
	mtctr 0
	bctrl
	.loc 2 2302 0
	lwz 3,cmdSystem@l(31)
	lis 4,.LC152@ha
	lis 5,_Z22Cmd_ActiveEntityList_fRK9idCmdArgs@ha
	lwz 9,0(3)
	lis 7,.LC153@ha
	la 4,.LC152@l(4)
	la 5,_Z22Cmd_ActiveEntityList_fRK9idCmdArgs@l(5)
	lwz 0,16(9)
	li 6,17
	la 7,.LC153@l(7)
	li 8,0
	mtctr 0
	bctrl
	.loc 2 2303 0
	lwz 3,cmdSystem@l(31)
	lis 4,.LC154@ha
	lis 5,_ZN4idAI6List_fERK9idCmdArgs@ha
	lwz 9,0(3)
	lis 7,.LC155@ha
	la 4,.LC154@l(4)
	la 5,_ZN4idAI6List_fERK9idCmdArgs@l(5)
	lwz 0,16(9)
	li 6,17
	la 7,.LC155@l(7)
	li 8,0
	mtctr 0
	bctrl
	.loc 2 2304 0
	lwz 3,cmdSystem@l(31)
	lis 4,.LC156@ha
	lis 5,_Z19Cmd_ListSpawnArgs_fRK9idCmdArgs@ha
	lwz 9,0(3)
	lis 7,.LC157@ha
	mr 8,30
	la 4,.LC156@l(4)
	lwz 0,16(9)
	la 5,_Z19Cmd_ListSpawnArgs_fRK9idCmdArgs@l(5)
	li 6,17
	la 7,.LC157@l(7)
	mtctr 0
	bctrl
	.loc 2 2305 0
	lwz 3,cmdSystem@l(31)
	lis 4,.LC25@ha
	lis 5,_ZL9Cmd_Say_fRK9idCmdArgs@ha
	lwz 9,0(3)
	lis 7,.LC158@ha
	la 4,.LC25@l(4)
	la 5,_ZL9Cmd_Say_fRK9idCmdArgs@l(5)
	lwz 0,16(9)
	li 6,16
	la 7,.LC158@l(7)
	li 8,0
	mtctr 0
	bctrl
	.loc 2 2306 0
	lwz 3,cmdSystem@l(31)
	lis 4,.LC24@ha
	lis 5,_ZL13Cmd_SayTeam_fRK9idCmdArgs@ha
	lwz 9,0(3)
	lis 7,.LC159@ha
	la 4,.LC24@l(4)
	la 5,_ZL13Cmd_SayTeam_fRK9idCmdArgs@l(5)
	lwz 0,16(9)
	li 6,16
	la 7,.LC159@l(7)
	li 8,0
	mtctr 0
	bctrl
	.loc 2 2307 0
	lwz 3,cmdSystem@l(31)
	lis 4,.LC160@ha
	lis 5,_ZL17Cmd_AddChatLine_fRK9idCmdArgs@ha
	lwz 9,0(3)
	lis 7,.LC161@ha
	la 4,.LC160@l(4)
	la 5,_ZL17Cmd_AddChatLine_fRK9idCmdArgs@l(5)
	lwz 0,16(9)
	li 6,16
	la 7,.LC161@l(7)
	li 8,0
	mtctr 0
	bctrl
	.loc 2 2308 0
	lwz 3,cmdSystem@l(31)
	lis 4,.LC162@ha
	lis 5,_ZL10Cmd_Kick_fRK9idCmdArgs@ha
	lwz 9,0(3)
	lis 7,.LC163@ha
	la 4,.LC162@l(4)
	la 5,_ZL10Cmd_Kick_fRK9idCmdArgs@l(5)
	lwz 0,16(9)
	li 6,16
	la 7,.LC163@l(7)
	li 8,0
	mtctr 0
	bctrl
	.loc 2 2309 0
	lwz 3,cmdSystem@l(31)
	lis 4,.LC164@ha
	lis 5,_Z10Cmd_Give_fRK9idCmdArgs@ha
	lwz 9,0(3)
	lis 7,.LC165@ha
	la 4,.LC164@l(4)
	la 5,_Z10Cmd_Give_fRK9idCmdArgs@l(5)
	lwz 0,16(9)
	li 6,17
	la 7,.LC165@l(7)
	li 8,0
	mtctr 0
	bctrl
	.loc 2 2310 0
	lwz 3,cmdSystem@l(31)
	lis 4,.LC166@ha
	lis 5,_Z16Cmd_CenterView_fRK9idCmdArgs@ha
	lwz 9,0(3)
	lis 7,.LC167@ha
	la 4,.LC166@l(4)
	la 5,_Z16Cmd_CenterView_fRK9idCmdArgs@l(5)
	lwz 0,16(9)
	li 6,16
	la 7,.LC167@l(7)
	li 8,0
	mtctr 0
	bctrl
	.loc 2 2311 0
	lwz 3,cmdSystem@l(31)
	lis 4,.LC168@ha
	lis 5,_Z9Cmd_God_fRK9idCmdArgs@ha
	lwz 9,0(3)
	lis 7,.LC169@ha
	la 4,.LC168@l(4)
	la 5,_Z9Cmd_God_fRK9idCmdArgs@l(5)
	lwz 0,16(9)
	li 6,17
	la 7,.LC169@l(7)
	li 8,0
	mtctr 0
	bctrl
	.loc 2 2312 0
	lwz 3,cmdSystem@l(31)
	lis 4,.LC170@ha
	lis 5,_Z14Cmd_Notarget_fRK9idCmdArgs@ha
	lwz 9,0(3)
	lis 7,.LC171@ha
	la 4,.LC170@l(4)
	la 5,_Z14Cmd_Notarget_fRK9idCmdArgs@l(5)
	lwz 0,16(9)
	li 6,17
	la 7,.LC171@l(7)
	li 8,0
	mtctr 0
	bctrl
	.loc 2 2313 0
	lwz 3,cmdSystem@l(31)
	lis 4,.LC172@ha
	lis 5,_Z12Cmd_Noclip_fRK9idCmdArgs@ha
	lwz 9,0(3)
	lis 7,.LC173@ha
	la 4,.LC172@l(4)
	la 5,_Z12Cmd_Noclip_fRK9idCmdArgs@l(5)
	lwz 0,16(9)
	li 6,17
	la 7,.LC173@l(7)
	li 8,0
	mtctr 0
	bctrl
	.loc 2 2314 0
	lwz 3,cmdSystem@l(31)
	lis 4,.LC174@ha
	lis 5,_Z10Cmd_Kill_fRK9idCmdArgs@ha
	lwz 9,0(3)
	lis 7,.LC175@ha
	la 4,.LC174@l(4)
	la 5,_Z10Cmd_Kill_fRK9idCmdArgs@l(5)
	lwz 0,16(9)
	li 6,16
	la 7,.LC175@l(7)
	li 8,0
	mtctr 0
	bctrl
	.loc 2 2315 0
	lwz 3,cmdSystem@l(31)
	lis 4,.LC176@ha
	mr 5,28
	lwz 9,0(3)
	mr 7,29
	la 4,.LC176@l(4)
	li 6,17
	lwz 0,16(9)
	li 8,0
	mtctr 0
	bctrl
	.loc 2 2316 0
	lwz 3,cmdSystem@l(31)
	lis 4,.LC178@ha
	mr 5,28
	lwz 9,0(3)
	mr 7,29
	la 4,.LC178@l(4)
	li 6,17
	lwz 0,16(9)
	li 8,0
	.loc 2 2366 0
	lis 29,.LC277@ha
	.loc 2 2316 0
	mtctr 0
	.loc 2 2366 0
	la 29,.LC277@l(29)
	.loc 2 2316 0
	bctrl
	.loc 2 2317 0
	lwz 3,cmdSystem@l(31)
	lis 4,.LC179@ha
	lis 5,_Z16Cmd_SetViewpos_fRK9idCmdArgs@ha
	lwz 9,0(3)
	lis 7,.LC180@ha
	la 4,.LC179@l(4)
	la 5,_Z16Cmd_SetViewpos_fRK9idCmdArgs@l(5)
	lwz 0,16(9)
	li 6,17
	la 7,.LC180@l(7)
	li 8,0
	mtctr 0
	bctrl
	.loc 2 2318 0
	lwz 3,cmdSystem@l(31)
	lis 4,.LC181@ha
	lis 5,_Z14Cmd_Teleport_fRK9idCmdArgs@ha
	lwz 9,0(3)
	lis 7,.LC182@ha
	mr 8,30
	la 4,.LC181@l(4)
	lwz 0,16(9)
	la 5,_Z14Cmd_Teleport_fRK9idCmdArgs@l(5)
	li 6,17
	la 7,.LC182@l(7)
	mtctr 0
	bctrl
	.loc 2 2319 0
	lwz 3,cmdSystem@l(31)
	lis 4,.LC183@ha
	lis 5,_Z13Cmd_Trigger_fRK9idCmdArgs@ha
	lwz 9,0(3)
	lis 7,.LC184@ha
	mr 8,30
	la 4,.LC183@l(4)
	lwz 0,16(9)
	la 5,_Z13Cmd_Trigger_fRK9idCmdArgs@l(5)
	li 6,17
	la 7,.LC184@l(7)
	mtctr 0
	bctrl
	.loc 2 2320 0
	lwz 3,cmdSystem@l(31)
	lis 4,.LC185@ha
	lis 5,_Z11Cmd_Spawn_fRK9idCmdArgs@ha
	lwz 9,0(3)
	lis 7,.LC186@ha
	lis 8,_ZN11idCmdSystem18ArgCompletion_DeclILi4EEEvRK9idCmdArgsPFvPKcE@ha
	la 4,.LC185@l(4)
	lwz 0,16(9)
	la 5,_Z11Cmd_Spawn_fRK9idCmdArgs@l(5)
	li 6,17
	la 7,.LC186@l(7)
	mtctr 0
	la 8,_ZN11idCmdSystem18ArgCompletion_DeclILi4EEEvRK9idCmdArgsPFvPKcE@l(8)
	bctrl
	.loc 2 2321 0
	lwz 3,cmdSystem@l(31)
	lis 4,.LC187@ha
	lis 5,_Z12Cmd_Damage_fRK9idCmdArgs@ha
	lwz 9,0(3)
	lis 7,.LC188@ha
	mr 8,30
	la 4,.LC187@l(4)
	lwz 0,16(9)
	la 5,_Z12Cmd_Damage_fRK9idCmdArgs@l(5)
	li 6,17
	la 7,.LC188@l(7)
	mtctr 0
	bctrl
	.loc 2 2322 0
	lwz 3,cmdSystem@l(31)
	lis 4,.LC189@ha
	lis 5,_Z12Cmd_Remove_fRK9idCmdArgs@ha
	lwz 9,0(3)
	lis 7,.LC190@ha
	mr 8,30
	la 4,.LC189@l(4)
	lwz 0,16(9)
	la 5,_Z12Cmd_Remove_fRK9idCmdArgs@l(5)
	li 6,17
	la 7,.LC190@l(7)
	mtctr 0
	.loc 2 2326 0
	lis 30,_ZL18Cmd_AddDebugLine_fRK9idCmdArgs@ha
	la 30,_ZL18Cmd_AddDebugLine_fRK9idCmdArgs@l(30)
	.loc 2 2322 0
	bctrl
	.loc 2 2323 0
	lwz 3,cmdSystem@l(31)
	lis 4,.LC191@ha
	lis 5,_Z18Cmd_KillMonsters_fRK9idCmdArgs@ha
	lwz 9,0(3)
	lis 7,.LC192@ha
	la 4,.LC191@l(4)
	la 5,_Z18Cmd_KillMonsters_fRK9idCmdArgs@l(5)
	lwz 0,16(9)
	li 6,17
	la 7,.LC192@l(7)
	li 8,0
	mtctr 0
	bctrl
	.loc 2 2324 0
	lwz 3,cmdSystem@l(31)
	lis 4,.LC193@ha
	lis 5,_Z18Cmd_KillMovables_fRK9idCmdArgs@ha
	lwz 9,0(3)
	lis 7,.LC194@ha
	la 4,.LC193@l(4)
	la 5,_Z18Cmd_KillMovables_fRK9idCmdArgs@l(5)
	lwz 0,16(9)
	li 6,17
	la 7,.LC194@l(7)
	li 8,0
	mtctr 0
	bctrl
	.loc 2 2325 0
	lwz 3,cmdSystem@l(31)
	lis 4,.LC195@ha
	lis 5,_Z18Cmd_KillRagdolls_fRK9idCmdArgs@ha
	lwz 9,0(3)
	lis 7,.LC196@ha
	la 4,.LC195@l(4)
	la 5,_Z18Cmd_KillRagdolls_fRK9idCmdArgs@l(5)
	lwz 0,16(9)
	li 6,17
	la 7,.LC196@l(7)
	li 8,0
	mtctr 0
	bctrl
	.loc 2 2326 0
	lwz 3,cmdSystem@l(31)
	lis 4,.LC197@ha
	lis 7,.LC198@ha
	lwz 9,0(3)
	mr 5,30
	la 4,.LC197@l(4)
	li 6,17
	lwz 0,16(9)
	la 7,.LC198@l(7)
	li 8,0
	mtctr 0
	bctrl
	.loc 2 2327 0
	lwz 3,cmdSystem@l(31)
	lis 4,.LC118@ha
	lis 7,.LC199@ha
	lwz 9,0(3)
	mr 5,30
	la 4,.LC118@l(4)
	li 6,17
	lwz 0,16(9)
	la 7,.LC199@l(7)
	li 8,0
	.loc 2 2332 0
	lis 30,_ZN11idCmdSystem18ArgCompletion_DeclILi6EEEvRK9idCmdArgsPFvPKcE@ha
	.loc 2 2327 0
	mtctr 0
	.loc 2 2332 0
	la 30,_ZN11idCmdSystem18ArgCompletion_DeclILi6EEEvRK9idCmdArgsPFvPKcE@l(30)
	.loc 2 2327 0
	bctrl
	.loc 2 2328 0
	lwz 3,cmdSystem@l(31)
	lis 4,.LC200@ha
	lis 5,_ZL21Cmd_RemoveDebugLine_fRK9idCmdArgs@ha
	lwz 9,0(3)
	lis 7,.LC201@ha
	la 4,.LC200@l(4)
	la 5,_ZL21Cmd_RemoveDebugLine_fRK9idCmdArgs@l(5)
	lwz 0,16(9)
	li 6,17
	la 7,.LC201@l(7)
	li 8,0
	mtctr 0
	bctrl
	.loc 2 2329 0
	lwz 3,cmdSystem@l(31)
	lis 4,.LC202@ha
	lis 5,_ZL20Cmd_BlinkDebugLine_fRK9idCmdArgs@ha
	lwz 9,0(3)
	lis 7,.LC203@ha
	la 4,.LC202@l(4)
	la 5,_ZL20Cmd_BlinkDebugLine_fRK9idCmdArgs@l(5)
	lwz 0,16(9)
	li 6,17
	la 7,.LC203@l(7)
	li 8,0
	mtctr 0
	bctrl
	.loc 2 2330 0
	lwz 3,cmdSystem@l(31)
	lis 4,.LC204@ha
	lis 5,_ZL20Cmd_ListDebugLines_fRK9idCmdArgs@ha
	lwz 9,0(3)
	lis 7,.LC205@ha
	la 4,.LC204@l(4)
	la 5,_ZL20Cmd_ListDebugLines_fRK9idCmdArgs@l(5)
	lwz 0,16(9)
	li 6,17
	la 7,.LC205@l(7)
	li 8,0
	mtctr 0
	bctrl
	.loc 2 2331 0
	lwz 3,cmdSystem@l(31)
	lis 4,.LC206@ha
	lis 5,_Z17Cmd_PlayerModel_fRK9idCmdArgs@ha
	lwz 9,0(3)
	lis 7,.LC207@ha
	lis 8,_ZN11idCmdSystem18ArgCompletion_DeclILi5EEEvRK9idCmdArgsPFvPKcE@ha
	la 4,.LC206@l(4)
	lwz 0,16(9)
	la 5,_Z17Cmd_PlayerModel_fRK9idCmdArgs@l(5)
	li 6,17
	la 7,.LC207@l(7)
	mtctr 0
	la 8,_ZN11idCmdSystem18ArgCompletion_DeclILi5EEEvRK9idCmdArgsPFvPKcE@l(8)
	bctrl
	.loc 2 2332 0
	lwz 3,cmdSystem@l(31)
	lis 4,.LC208@ha
	lis 5,_Z12Cmd_TestFx_fRK9idCmdArgs@ha
	lwz 9,0(3)
	lis 7,.LC209@ha
	mr 8,30
	la 4,.LC208@l(4)
	lwz 0,16(9)
	la 5,_Z12Cmd_TestFx_fRK9idCmdArgs@l(5)
	li 6,17
	la 7,.LC209@l(7)
	mtctr 0
	bctrl
	.loc 2 2333 0
	lwz 3,cmdSystem@l(31)
	lis 4,.LC210@ha
	lis 5,_ZL16Cmd_TestBoneFx_fRK9idCmdArgs@ha
	lwz 9,0(3)
	lis 7,.LC211@ha
	mr 8,30
	la 4,.LC210@l(4)
	lwz 0,16(9)
	la 5,_ZL16Cmd_TestBoneFx_fRK9idCmdArgs@l(5)
	li 6,17
	la 7,.LC211@l(7)
	mtctr 0
	.loc 2 2354 0
	lis 30,_ZL21ArgCompletion_DefFileRK9idCmdArgsPFvPKcE@ha
	la 30,_ZL21ArgCompletion_DefFileRK9idCmdArgsPFvPKcE@l(30)
	.loc 2 2333 0
	bctrl
	.loc 2 2334 0
	lwz 3,cmdSystem@l(31)
	lis 4,.LC212@ha
	lis 5,_Z15Cmd_TestLight_fRK9idCmdArgs@ha
	lwz 9,0(3)
	lis 7,.LC213@ha
	la 4,.LC212@l(4)
	la 5,_Z15Cmd_TestLight_fRK9idCmdArgs@l(5)
	lwz 0,16(9)
	li 6,17
	la 7,.LC213@l(7)
	li 8,0
	mtctr 0
	bctrl
	.loc 2 2335 0
	lwz 3,cmdSystem@l(31)
	lis 4,.LC214@ha
	lis 5,_Z20Cmd_TestPointLight_fRK9idCmdArgs@ha
	lwz 9,0(3)
	lis 7,.LC215@ha
	la 4,.LC214@l(4)
	la 5,_Z20Cmd_TestPointLight_fRK9idCmdArgs@l(5)
	lwz 0,16(9)
	li 6,17
	la 7,.LC215@l(7)
	li 8,0
	mtctr 0
	bctrl
	.loc 2 2336 0
	lwz 3,cmdSystem@l(31)
	lis 4,.LC216@ha
	lis 5,_Z14Cmd_PopLight_fRK9idCmdArgs@ha
	lwz 9,0(3)
	lis 7,.LC217@ha
	la 4,.LC216@l(4)
	la 5,_Z14Cmd_PopLight_fRK9idCmdArgs@l(5)
	lwz 0,16(9)
	li 6,17
	la 7,.LC217@l(7)
	li 8,0
	mtctr 0
	bctrl
	.loc 2 2337 0
	lwz 3,cmdSystem@l(31)
	lis 4,.LC218@ha
	lis 5,_ZL15Cmd_TestDeath_fRK9idCmdArgs@ha
	lwz 9,0(3)
	lis 7,.LC219@ha
	la 4,.LC218@l(4)
	la 5,_ZL15Cmd_TestDeath_fRK9idCmdArgs@l(5)
	lwz 0,16(9)
	li 6,17
	la 7,.LC219@l(7)
	li 8,0
	mtctr 0
	bctrl
	.loc 2 2338 0
	lwz 3,cmdSystem@l(31)
	lis 4,.LC220@ha
	lis 5,_ZL14Cmd_TestSave_fRK9idCmdArgs@ha
	lwz 9,0(3)
	lis 7,.LC221@ha
	la 4,.LC220@l(4)
	la 5,_ZL14Cmd_TestSave_fRK9idCmdArgs@l(5)
	lwz 0,16(9)
	li 6,17
	la 7,.LC221@l(7)
	li 8,0
	mtctr 0
	bctrl
	.loc 2 2339 0
	lwz 3,cmdSystem@l(31)
	lis 4,.LC222@ha
	lis 5,_ZN11idTestModel11TestModel_fERK9idCmdArgs@ha
	lwz 9,0(3)
	lis 7,.LC223@ha
	lis 8,_ZN11idTestModel23ArgCompletion_TestModelERK9idCmdArgsPFvPKcE@ha
	la 4,.LC222@l(4)
	lwz 0,16(9)
	la 5,_ZN11idTestModel11TestModel_fERK9idCmdArgs@l(5)
	li 6,17
	la 7,.LC223@l(7)
	mtctr 0
	la 8,_ZN11idTestModel23ArgCompletion_TestModelERK9idCmdArgsPFvPKcE@l(8)
	bctrl
	.loc 2 2340 0
	lwz 3,cmdSystem@l(31)
	lis 4,.LC224@ha
	lis 5,_ZN11idTestModel10TestSkin_fERK9idCmdArgs@ha
	lwz 9,0(3)
	lis 7,.LC225@ha
	lis 8,_ZN11idCmdSystem18ArgCompletion_DeclILi2EEEvRK9idCmdArgsPFvPKcE@ha
	la 4,.LC224@l(4)
	lwz 0,16(9)
	la 5,_ZN11idTestModel10TestSkin_fERK9idCmdArgs@l(5)
	li 6,17
	la 7,.LC225@l(7)
	mtctr 0
	la 8,_ZN11idCmdSystem18ArgCompletion_DeclILi2EEEvRK9idCmdArgsPFvPKcE@l(8)
	bctrl
	.loc 2 2341 0
	lwz 3,cmdSystem@l(31)
	lis 4,.LC226@ha
	lis 5,_ZN11idTestModel16TestShaderParm_fERK9idCmdArgs@ha
	lwz 9,0(3)
	lis 7,.LC227@ha
	la 4,.LC226@l(4)
	la 5,_ZN11idTestModel16TestShaderParm_fERK9idCmdArgs@l(5)
	lwz 0,16(9)
	li 6,17
	la 7,.LC227@l(7)
	li 8,0
	mtctr 0
	bctrl
	.loc 2 2342 0
	lwz 3,cmdSystem@l(31)
	lis 4,.LC228@ha
	lis 5,_ZN11idTestModel15KeepTestModel_fERK9idCmdArgs@ha
	lwz 9,0(3)
	lis 7,.LC229@ha
	la 4,.LC228@l(4)
	la 5,_ZN11idTestModel15KeepTestModel_fERK9idCmdArgs@l(5)
	lwz 0,16(9)
	li 6,17
	la 7,.LC229@l(7)
	li 8,0
	mtctr 0
	bctrl
	.loc 2 2343 0
	lwz 3,cmdSystem@l(31)
	lis 4,.LC230@ha
	lis 5,_ZN11idTestModel10TestAnim_fERK9idCmdArgs@ha
	lwz 9,0(3)
	lis 7,.LC231@ha
	lis 8,_ZN11idTestModel22ArgCompletion_TestAnimERK9idCmdArgsPFvPKcE@ha
	la 4,.LC230@l(4)
	lwz 0,16(9)
	la 5,_ZN11idTestModel10TestAnim_fERK9idCmdArgs@l(5)
	li 6,17
	la 7,.LC231@l(7)
	mtctr 0
	la 8,_ZN11idTestModel22ArgCompletion_TestAnimERK9idCmdArgsPFvPKcE@l(8)
	bctrl
	.loc 2 2344 0
	lwz 3,cmdSystem@l(31)
	lis 4,.LC232@ha
	lis 5,_ZN11idTestModel22TestParticleStopTime_fERK9idCmdArgs@ha
	lwz 9,0(3)
	lis 7,.LC233@ha
	la 4,.LC232@l(4)
	la 5,_ZN11idTestModel22TestParticleStopTime_fERK9idCmdArgs@l(5)
	lwz 0,16(9)
	li 6,17
	la 7,.LC233@l(7)
	li 8,0
	mtctr 0
	bctrl
	.loc 2 2345 0
	lwz 3,cmdSystem@l(31)
	lis 4,.LC234@ha
	lis 5,_ZN11idTestModel19TestModelNextAnim_fERK9idCmdArgs@ha
	lwz 9,0(3)
	lis 7,.LC235@ha
	la 4,.LC234@l(4)
	la 5,_ZN11idTestModel19TestModelNextAnim_fERK9idCmdArgs@l(5)
	lwz 0,16(9)
	li 6,17
	la 7,.LC235@l(7)
	li 8,0
	mtctr 0
	bctrl
	.loc 2 2346 0
	lwz 3,cmdSystem@l(31)
	lis 4,.LC236@ha
	lis 5,_ZN11idTestModel19TestModelPrevAnim_fERK9idCmdArgs@ha
	lwz 9,0(3)
	lis 7,.LC237@ha
	la 4,.LC236@l(4)
	la 5,_ZN11idTestModel19TestModelPrevAnim_fERK9idCmdArgs@l(5)
	lwz 0,16(9)
	li 6,17
	la 7,.LC237@l(7)
	li 8,0
	mtctr 0
	bctrl
	.loc 2 2347 0
	lwz 3,cmdSystem@l(31)
	lis 4,.LC238@ha
	lis 5,_ZN11idTestModel20TestModelNextFrame_fERK9idCmdArgs@ha
	lwz 9,0(3)
	lis 7,.LC239@ha
	la 4,.LC238@l(4)
	la 5,_ZN11idTestModel20TestModelNextFrame_fERK9idCmdArgs@l(5)
	lwz 0,16(9)
	li 6,17
	la 7,.LC239@l(7)
	li 8,0
	mtctr 0
	bctrl
	.loc 2 2348 0
	lwz 3,cmdSystem@l(31)
	lis 4,.LC240@ha
	lis 5,_ZN11idTestModel20TestModelPrevFrame_fERK9idCmdArgs@ha
	lwz 9,0(3)
	lis 7,.LC241@ha
	la 4,.LC240@l(4)
	la 5,_ZN11idTestModel20TestModelPrevFrame_fERK9idCmdArgs@l(5)
	lwz 0,16(9)
	li 6,17
	la 7,.LC241@l(7)
	li 8,0
	mtctr 0
	bctrl
	.loc 2 2349 0
	lwz 3,cmdSystem@l(31)
	lis 4,.LC242@ha
	lis 5,_ZN11idTestModel11TestBlend_fERK9idCmdArgs@ha
	lwz 9,0(3)
	lis 7,.LC243@ha
	la 4,.LC242@l(4)
	la 5,_ZN11idTestModel11TestBlend_fERK9idCmdArgs@l(5)
	lwz 0,16(9)
	li 6,17
	la 7,.LC243@l(7)
	li 8,0
	mtctr 0
	bctrl
	.loc 2 2350 0
	lwz 3,cmdSystem@l(31)
	lis 4,.LC244@ha
	lis 5,_Z18Cmd_ReloadScript_fRK9idCmdArgs@ha
	lwz 9,0(3)
	lis 7,.LC245@ha
	la 4,.LC244@l(4)
	la 5,_Z18Cmd_ReloadScript_fRK9idCmdArgs@l(5)
	lwz 0,16(9)
	li 6,17
	la 7,.LC245@l(7)
	li 8,0
	mtctr 0
	bctrl
	.loc 2 2351 0
	lwz 3,cmdSystem@l(31)
	lis 4,.LC246@ha
	lis 5,_Z12Cmd_Script_fRK9idCmdArgs@ha
	lwz 9,0(3)
	lis 7,.LC247@ha
	la 4,.LC246@l(4)
	la 5,_Z12Cmd_Script_fRK9idCmdArgs@l(5)
	lwz 0,16(9)
	li 6,17
	la 7,.LC247@l(7)
	li 8,0
	mtctr 0
	bctrl
	.loc 2 2352 0
	lwz 3,cmdSystem@l(31)
	lis 4,.LC248@ha
	lis 5,_ZL25Cmd_ListCollisionModels_fRK9idCmdArgs@ha
	lwz 9,0(3)
	lis 7,.LC249@ha
	la 4,.LC248@l(4)
	la 5,_ZL25Cmd_ListCollisionModels_fRK9idCmdArgs@l(5)
	lwz 0,16(9)
	li 6,16
	la 7,.LC249@l(7)
	li 8,0
	mtctr 0
	bctrl
	.loc 2 2353 0
	lwz 3,cmdSystem@l(31)
	lis 4,.LC250@ha
	lis 5,_ZL24Cmd_CollisionModelInfo_fRK9idCmdArgs@ha
	lwz 9,0(3)
	lis 7,.LC251@ha
	la 4,.LC250@l(4)
	la 5,_ZL24Cmd_CollisionModelInfo_fRK9idCmdArgs@l(5)
	lwz 0,16(9)
	li 6,16
	la 7,.LC251@l(7)
	li 8,0
	mtctr 0
	bctrl
	.loc 2 2354 0
	lwz 3,cmdSystem@l(31)
	lis 4,.LC252@ha
	lis 5,_ZL20Cmd_ReexportModels_fRK9idCmdArgs@ha
	lwz 9,0(3)
	lis 7,.LC253@ha
	mr 8,30
	la 4,.LC252@l(4)
	lwz 0,16(9)
	la 5,_ZL20Cmd_ReexportModels_fRK9idCmdArgs@l(5)
	li 6,17
	la 7,.LC253@l(7)
	mtctr 0
	bctrl
	.loc 2 2355 0
	lwz 3,cmdSystem@l(31)
	lis 4,.LC254@ha
	lis 5,_ZL17Cmd_ReloadAnims_fRK9idCmdArgs@ha
	lwz 9,0(3)
	lis 7,.LC255@ha
	la 4,.LC254@l(4)
	la 5,_ZL17Cmd_ReloadAnims_fRK9idCmdArgs@l(5)
	lwz 0,16(9)
	li 6,17
	la 7,.LC255@l(7)
	li 8,0
	mtctr 0
	bctrl
	.loc 2 2356 0
	lwz 3,cmdSystem@l(31)
	lis 4,.LC256@ha
	lis 5,_ZL15Cmd_ListAnims_fRK9idCmdArgs@ha
	lwz 9,0(3)
	lis 7,.LC257@ha
	la 4,.LC256@l(4)
	la 5,_ZL15Cmd_ListAnims_fRK9idCmdArgs@l(5)
	lwz 0,16(9)
	li 6,16
	la 7,.LC257@l(7)
	li 8,0
	mtctr 0
	bctrl
	.loc 2 2357 0
	lwz 3,cmdSystem@l(31)
	lis 4,.LC258@ha
	lis 5,_ZL14Cmd_AASStats_fRK9idCmdArgs@ha
	lwz 9,0(3)
	lis 7,.LC259@ha
	la 4,.LC258@l(4)
	la 5,_ZL14Cmd_AASStats_fRK9idCmdArgs@l(5)
	lwz 0,16(9)
	li 6,16
	la 7,.LC259@l(7)
	li 8,0
	mtctr 0
	bctrl
	.loc 2 2358 0
	lwz 3,cmdSystem@l(31)
	lis 4,.LC260@ha
	lis 5,_ZL16Cmd_TestDamage_fRK9idCmdArgs@ha
	lwz 9,0(3)
	lis 7,.LC261@ha
	lis 8,_ZN11idCmdSystem18ArgCompletion_DeclILi4EEEvRK9idCmdArgsPFvPKcE@ha
	la 4,.LC260@l(4)
	lwz 0,16(9)
	la 5,_ZL16Cmd_TestDamage_fRK9idCmdArgs@l(5)
	li 6,17
	la 7,.LC261@l(7)
	mtctr 0
	la 8,_ZN11idCmdSystem18ArgCompletion_DeclILi4EEEvRK9idCmdArgsPFvPKcE@l(8)
	bctrl
	.loc 2 2359 0
	lwz 3,cmdSystem@l(31)
	lis 4,.LC262@ha
	lis 5,_ZL17Cmd_WeaponSplat_fRK9idCmdArgs@ha
	lwz 9,0(3)
	lis 7,.LC263@ha
	la 4,.LC262@l(4)
	la 5,_ZL17Cmd_WeaponSplat_fRK9idCmdArgs@l(5)
	lwz 0,16(9)
	li 6,17
	la 7,.LC263@l(7)
	li 8,0
	mtctr 0
	bctrl
	.loc 2 2360 0
	lwz 3,cmdSystem@l(31)
	lis 4,.LC264@ha
	lis 5,_ZL18Cmd_SaveSelected_fRK9idCmdArgs@ha
	lwz 9,0(3)
	lis 7,.LC265@ha
	la 4,.LC264@l(4)
	la 5,_ZL18Cmd_SaveSelected_fRK9idCmdArgs@l(5)
	lwz 0,16(9)
	li 6,17
	la 7,.LC265@l(7)
	li 8,0
	mtctr 0
	bctrl
	.loc 2 2361 0
	lwz 3,cmdSystem@l(31)
	lis 4,.LC266@ha
	lis 5,_ZL20Cmd_DeleteSelected_fRK9idCmdArgs@ha
	lwz 9,0(3)
	lis 7,.LC267@ha
	la 4,.LC266@l(4)
	la 5,_ZL20Cmd_DeleteSelected_fRK9idCmdArgs@l(5)
	lwz 0,16(9)
	li 6,17
	la 7,.LC267@l(7)
	li 8,0
	mtctr 0
	bctrl
	.loc 2 2362 0
	lwz 3,cmdSystem@l(31)
	lis 4,.LC268@ha
	lis 5,_ZL19Cmd_SaveMoveables_fRK9idCmdArgs@ha
	lwz 9,0(3)
	lis 7,.LC269@ha
	la 4,.LC268@l(4)
	la 5,_ZL19Cmd_SaveMoveables_fRK9idCmdArgs@l(5)
	lwz 0,16(9)
	li 6,17
	la 7,.LC269@l(7)
	li 8,0
	mtctr 0
	bctrl
	.loc 2 2363 0
	lwz 3,cmdSystem@l(31)
	lis 4,.LC270@ha
	lis 5,_ZL18Cmd_SaveRagdolls_fRK9idCmdArgs@ha
	lwz 9,0(3)
	lis 7,.LC271@ha
	la 4,.LC270@l(4)
	la 5,_ZL18Cmd_SaveRagdolls_fRK9idCmdArgs@l(5)
	lwz 0,16(9)
	li 6,17
	la 7,.LC271@l(7)
	li 8,0
	mtctr 0
	bctrl
	.loc 2 2364 0
	lwz 3,cmdSystem@l(31)
	lis 4,.LC272@ha
	lis 5,_ZL17Cmd_BindRagdoll_fRK9idCmdArgs@ha
	lwz 9,0(3)
	lis 7,.LC273@ha
	la 4,.LC272@l(4)
	la 5,_ZL17Cmd_BindRagdoll_fRK9idCmdArgs@l(5)
	lwz 0,16(9)
	li 6,17
	la 7,.LC273@l(7)
	li 8,0
	mtctr 0
	bctrl
	.loc 2 2365 0
	lwz 3,cmdSystem@l(31)
	lis 4,.LC274@ha
	lis 5,_ZL19Cmd_UnbindRagdoll_fRK9idCmdArgs@ha
	lwz 9,0(3)
	lis 7,.LC275@ha
	la 4,.LC274@l(4)
	la 5,_ZL19Cmd_UnbindRagdoll_fRK9idCmdArgs@l(5)
	lwz 0,16(9)
	li 6,17
	la 7,.LC275@l(7)
	li 8,0
	mtctr 0
	bctrl
	.loc 2 2366 0
	lwz 3,cmdSystem@l(31)
	lis 4,.LC276@ha
	lis 5,_ZL16Cmd_SaveLights_fRK9idCmdArgs@ha
	lwz 9,0(3)
	mr 7,29
	la 4,.LC276@l(4)
	la 5,_ZL16Cmd_SaveLights_fRK9idCmdArgs@l(5)
	lwz 0,16(9)
	li 6,17
	li 8,0
	mtctr 0
	bctrl
	.loc 2 2367 0
	lwz 3,cmdSystem@l(31)
	lis 4,.LC278@ha
	lis 5,_ZL19Cmd_SaveParticles_fRK9idCmdArgs@ha
	lwz 9,0(3)
	mr 7,29
	la 4,.LC278@l(4)
	la 5,_ZL19Cmd_SaveParticles_fRK9idCmdArgs@l(5)
	lwz 0,16(9)
	li 6,17
	li 8,0
	mtctr 0
	bctrl
	.loc 2 2368 0
	lwz 3,cmdSystem@l(31)
	lis 4,.LC279@ha
	lis 5,_Z17Cmd_ClearLights_fRK9idCmdArgs@ha
	lwz 9,0(3)
	lis 7,.LC280@ha
	la 4,.LC279@l(4)
	la 5,_Z17Cmd_ClearLights_fRK9idCmdArgs@l(5)
	lwz 0,16(9)
	li 6,17
	la 7,.LC280@l(7)
	li 8,0
	mtctr 0
	bctrl
	.loc 2 2369 0
	lwz 3,cmdSystem@l(31)
	lis 4,.LC281@ha
	lis 5,_ZL15Cmd_GameError_fRK9idCmdArgs@ha
	lwz 9,0(3)
	lis 7,.LC282@ha
	la 4,.LC281@l(4)
	la 5,_ZL15Cmd_GameError_fRK9idCmdArgs@l(5)
	lwz 0,16(9)
	li 6,17
	la 7,.LC282@l(7)
	li 8,0
	mtctr 0
	bctrl
	.loc 2 2372 0
	lwz 3,cmdSystem@l(31)
	lis 4,.LC283@ha
	lis 5,_ZL18Cmd_DisasmScript_fRK9idCmdArgs@ha
	lwz 9,0(3)
	lis 7,.LC284@ha
	la 4,.LC283@l(4)
	la 5,_ZL18Cmd_DisasmScript_fRK9idCmdArgs@l(5)
	lwz 0,16(9)
	li 6,17
	la 7,.LC284@l(7)
	li 8,0
	mtctr 0
	bctrl
	.loc 2 2373 0
	lwz 3,cmdSystem@l(31)
	lis 4,.LC285@ha
	lis 5,_ZL21Cmd_RecordViewNotes_fRK9idCmdArgs@ha
	lwz 9,0(3)
	lis 7,.LC286@ha
	la 4,.LC285@l(4)
	la 5,_ZL21Cmd_RecordViewNotes_fRK9idCmdArgs@l(5)
	lwz 0,16(9)
	li 6,17
	la 7,.LC286@l(7)
	li 8,0
	mtctr 0
	bctrl
	.loc 2 2374 0
	lwz 3,cmdSystem@l(31)
	lis 4,.LC287@ha
	lis 5,_ZL19Cmd_ShowViewNotes_fRK9idCmdArgs@ha
	lwz 9,0(3)
	lis 7,.LC288@ha
	la 4,.LC287@l(4)
	la 5,_ZL19Cmd_ShowViewNotes_fRK9idCmdArgs@l(5)
	lwz 0,16(9)
	li 6,17
	la 7,.LC288@l(7)
	li 8,0
	mtctr 0
	bctrl
	.loc 2 2375 0
	lwz 3,cmdSystem@l(31)
	lis 4,.LC289@ha
	lis 5,_ZL20Cmd_CloseViewNotes_fRK9idCmdArgs@ha
	lwz 9,0(3)
	lis 7,.LC290@ha
	la 4,.LC289@l(4)
	la 5,_ZL20Cmd_CloseViewNotes_fRK9idCmdArgs@l(5)
	lwz 0,16(9)
	li 6,17
	la 7,.LC290@l(7)
	li 8,0
	mtctr 0
	bctrl
	.loc 2 2376 0
	lwz 3,cmdSystem@l(31)
	lis 4,.LC291@ha
	lis 5,_ZL18Cmd_ExportModels_fRK9idCmdArgs@ha
	lwz 9,0(3)
	lis 7,.LC292@ha
	mr 8,30
	la 4,.LC291@l(4)
	lwz 0,16(9)
	la 5,_ZL18Cmd_ExportModels_fRK9idCmdArgs@l(5)
	li 6,17
	la 7,.LC292@l(7)
	mtctr 0
	bctrl
	.loc 2 2379 0
	lwz 3,cmdSystem@l(31)
	lis 4,.LC293@ha
	lis 5,_ZN17idMultiplayerGame12DropWeapon_fERK9idCmdArgs@ha
	lwz 9,0(3)
	lis 7,.LC294@ha
	la 4,.LC293@l(4)
	la 5,_ZN17idMultiplayerGame12DropWeapon_fERK9idCmdArgs@l(5)
	lwz 0,16(9)
	li 6,16
	la 7,.LC294@l(7)
	li 8,0
	mtctr 0
	bctrl
	.loc 2 2380 0
	lwz 3,cmdSystem@l(31)
	lis 4,.LC295@ha
	lis 5,_ZN17idMultiplayerGame13MessageMode_fERK9idCmdArgs@ha
	lwz 9,0(3)
	lis 7,.LC296@ha
	la 4,.LC295@l(4)
	la 5,_ZN17idMultiplayerGame13MessageMode_fERK9idCmdArgs@l(5)
	lwz 0,16(9)
	li 6,16
	la 7,.LC296@l(7)
	li 8,0
	mtctr 0
	bctrl
	.loc 2 2384 0
	lwz 3,cmdSystem@l(31)
	lis 4,.LC297@ha
	lis 5,_ZN17idMultiplayerGame11VoiceChat_fERK9idCmdArgs@ha
	lwz 9,0(3)
	lis 7,.LC298@ha
	la 4,.LC297@l(4)
	la 5,_ZN17idMultiplayerGame11VoiceChat_fERK9idCmdArgs@l(5)
	lwz 0,16(9)
	li 6,16
	la 7,.LC298@l(7)
	li 8,0
	mtctr 0
	bctrl
	.loc 2 2385 0
	lwz 3,cmdSystem@l(31)
	lis 4,.LC299@ha
	lis 5,_ZN17idMultiplayerGame15VoiceChatTeam_fERK9idCmdArgs@ha
	lwz 9,0(3)
	lis 7,.LC300@ha
	la 4,.LC299@l(4)
	la 5,_ZN17idMultiplayerGame15VoiceChatTeam_fERK9idCmdArgs@l(5)
	lwz 0,16(9)
	li 6,16
	la 7,.LC300@l(7)
	li 8,0
	mtctr 0
	bctrl
	.loc 2 2388 0
	lwz 3,cmdSystem@l(31)
	lis 4,.LC301@ha
	lis 5,_ZN11idGameLocal12MapRestart_fERK9idCmdArgs@ha
	lwz 9,0(3)
	lis 7,.LC302@ha
	la 4,.LC301@l(4)
	la 5,_ZN11idGameLocal12MapRestart_fERK9idCmdArgs@l(5)
	lwz 0,16(9)
	li 6,16
	la 7,.LC302@l(7)
	li 8,0
	mtctr 0
	bctrl
	.loc 2 2389 0
	lwz 3,cmdSystem@l(31)
	lis 4,.LC303@ha
	lis 5,_ZN17idMultiplayerGame12ForceReady_fERK9idCmdArgs@ha
	lwz 9,0(3)
	lis 7,.LC304@ha
	la 4,.LC303@l(4)
	la 5,_ZN17idMultiplayerGame12ForceReady_fERK9idCmdArgs@l(5)
	lwz 0,16(9)
	li 6,16
	la 7,.LC304@l(7)
	li 8,0
	mtctr 0
	bctrl
	.loc 2 2390 0
	lwz 3,cmdSystem@l(31)
	lis 4,.LC305@ha
	lis 5,_ZN11idGameLocal9NextMap_fERK9idCmdArgs@ha
	lwz 9,0(3)
	lis 7,.LC306@ha
	la 4,.LC305@l(4)
	la 5,_ZN11idGameLocal9NextMap_fERK9idCmdArgs@l(5)
	lwz 0,16(9)
	li 6,16
	la 7,.LC306@l(7)
	li 8,0
	mtctr 0
	bctrl
	.loc 2 2394 0
	lwz 3,cmdSystem@l(31)
	lis 4,.LC307@ha
	lis 5,_Z13Cmd_NextGUI_fRK9idCmdArgs@ha
	lwz 9,0(3)
	lis 7,.LC308@ha
	la 4,.LC307@l(4)
	la 5,_Z13Cmd_NextGUI_fRK9idCmdArgs@l(5)
	lwz 0,16(9)
	li 6,17
	la 7,.LC308@l(7)
	li 8,0
	mtctr 0
	bctrl
	.loc 2 2395 0
	lwz 3,cmdSystem@l(31)
	lis 4,.LC309@ha
	lis 5,_Z12Cmd_TestId_fRK9idCmdArgs@ha
	lwz 9,0(3)
	lis 7,.LC310@ha
	la 4,.LC309@l(4)
	la 5,_Z12Cmd_TestId_fRK9idCmdArgs@l(5)
	lwz 0,16(9)
	li 6,17
	la 7,.LC310@l(7)
	li 8,0
	mtctr 0
	bctrl
	.loc 2 2396 0
	lwz 0,28(1)
	lwz 28,8(1)
	mtlr 0
	lwz 29,12(1)
	lwz 30,16(1)
	lwz 31,20(1)
	addi 1,1,24
.LCFI248:
	.cfi_def_cfa_offset 0
	.cfi_restore 31
	.cfi_restore 30
	.cfi_restore 29
	.cfi_restore 28
	blr
	.cfi_endproc
.LFE2886:
	.size	_ZN11idGameLocal19InitConsoleCommandsEv, .-_ZN11idGameLocal19InitConsoleCommandsEv
	.align 2
	.globl _ZN11idGameLocal23ShutdownConsoleCommandsEv
	.type	_ZN11idGameLocal23ShutdownConsoleCommandsEv, @function
_ZN11idGameLocal23ShutdownConsoleCommandsEv:
.LFB2887:
	.loc 2 2403 0
	.cfi_startproc
.LVL1234:
	mflr 0
	stwu 1,-8(1)
.LCFI249:
	.cfi_def_cfa_offset 8
	.cfi_register 65, 0
	.loc 2 2404 0
	lis 9,cmdSystem@ha
	li 4,16
	lwz 3,cmdSystem@l(9)
.LVL1235:
	.loc 2 2403 0
	stw 0,12(1)
	.loc 2 2404 0
	lwz 9,0(3)
	lwz 0,24(9)
	.cfi_offset 65, 4
	mtctr 0
	bctrl
	.loc 2 2405 0
	lwz 0,12(1)
	addi 1,1,8
.LCFI250:
	.cfi_def_cfa_offset 0
	mtlr 0
	blr
	.cfi_endproc
.LFE2887:
	.size	_ZN11idGameLocal23ShutdownConsoleCommandsEv, .-_ZN11idGameLocal23ShutdownConsoleCommandsEv
	.section	.text._ZN6idListI10idKeyValueE5ClearEv,"axG",@progbits,_ZN6idListI10idKeyValueE5ClearEv,comdat
	.align 2
	.weak	_ZN6idListI10idKeyValueE5ClearEv
	.type	_ZN6idListI10idKeyValueE5ClearEv, @function
_ZN6idListI10idKeyValueE5ClearEv:
.LFB3124:
	.loc 15 192 0
	.cfi_startproc
.LVL1236:
	mflr 0
	stwu 1,-16(1)
.LCFI251:
	.cfi_def_cfa_offset 16
	.cfi_register 65, 0
	stw 31,12(1)
	mr 31,3
	.cfi_offset 31, -4
	stw 0,20(1)
	.loc 15 193 0
	lwz 3,12(3)
.LVL1237:
	cmpwi 7,3,0
	beq- 7,.L846
	.cfi_offset 65, 4
	.loc 15 194 0 discriminator 1
	bl _ZdaPv
.L846:
	.loc 15 197 0
	li 0,0
	stw 0,12(31)
	.loc 15 198 0
	stw 0,0(31)
	.loc 15 199 0
	stw 0,4(31)
	.loc 15 200 0
	lwz 0,20(1)
	lwz 31,12(1)
.LVL1238:
	mtlr 0
	addi 1,1,16
.LCFI252:
