	.file	"SysCvar.cpp"
	.section	".text"
.Ltext0:
	.section	.text._ZN14idFixedWinding5ClearEv,"axG",@progbits,_ZN14idFixedWinding5ClearEv,comdat
	.align 2
	.weak	_ZN14idFixedWinding5ClearEv
	.type	_ZN14idFixedWinding5ClearEv, @function
_ZN14idFixedWinding5ClearEv:
.LFB1502:
	.file 1 "d:/Data/Nintendo/DoomGX/src/game/gamesys/../../idlib/../idlib/geometry/Winding.h"
	.loc 1 398 0
	.cfi_startproc
.LVL0:
	.loc 1 399 0
	li 0,0
	.loc 1 400 0
	.loc 1 399 0
	stw 0,4(3)
	.loc 1 400 0
	blr
	.cfi_endproc
.LFE1502:
	.size	_ZN14idFixedWinding5ClearEv, .-_ZN14idFixedWinding5ClearEv
	.section	.text._ZN11idCmdSystem21ArgCompletion_MapNameERK9idCmdArgsPFvPKcE,"axG",@progbits,_ZN11idCmdSystem21ArgCompletion_MapNameERK9idCmdArgsPFvPKcE,comdat
	.align 2
	.weak	_ZN11idCmdSystem21ArgCompletion_MapNameERK9idCmdArgsPFvPKcE
	.type	_ZN11idCmdSystem21ArgCompletion_MapNameERK9idCmdArgsPFvPKcE, @function
_ZN11idCmdSystem21ArgCompletion_MapNameERK9idCmdArgsPFvPKcE:
.LFB2163:
	.file 2 "d:/Data/Nintendo/DoomGX/src/game/gamesys/../../idlib/../framework/CmdSystem.h"
	.loc 2 156 0
	.cfi_startproc
.LVL1:
	mflr 0
	stwu 1,-8(1)
.LCFI0:
	.cfi_def_cfa_offset 8
	.cfi_register 65, 0
	.loc 2 157 0
	lis 9,cmdSystem@ha
	.loc 2 156 0
	mr 11,3
	.loc 2 157 0
	lwz 9,cmdSystem@l(9)
	lis 6,.LC0@ha
	.loc 2 156 0
	stw 0,12(1)
	.loc 2 157 0
	lis 8,.LC1@ha
	.loc 2 156 0
	mr 5,4
	.loc 2 157 0
	mr 3,9
.LVL2:
	lwz 10,0(9)
	mr 4,11
.LVL3:
	la 6,.LC0@l(6)
	li 7,1
	lwz 0,44(10)
	.cfi_offset 65, 4
	la 8,.LC1@l(8)
	li 9,0
	mtctr 0
	crxor 6,6,6
	bctrl
.LVL4:
	.loc 2 158 0
	lwz 0,12(1)
	addi 1,1,8
.LCFI1:
	.cfi_def_cfa_offset 0
	mtlr 0
	blr
	.cfi_endproc
.LFE2163:
	.size	_ZN11idCmdSystem21ArgCompletion_MapNameERK9idCmdArgsPFvPKcE, .-_ZN11idCmdSystem21ArgCompletion_MapNameERK9idCmdArgsPFvPKcE
	.section	.text._ZN6idCVarD2Ev,"axG",@progbits,_ZN6idCVarD5Ev,comdat
	.align 2
	.weak	_ZN6idCVarD2Ev
	.type	_ZN6idCVarD2Ev, @function
_ZN6idCVarD2Ev:
.LFB2175:
	.file 3 "d:/Data/Nintendo/DoomGX/src/game/gamesys/../../idlib/../framework/CVarSystem.h"
	.loc 3 127 0
	.cfi_startproc
.LVL5:
.LBB1768:
	.loc 3 127 0
	lis 9,_ZTV6idCVar+8@ha
.LBE1768:
.LBB1769:
	la 0,_ZTV6idCVar+8@l(9)
	stw 0,0(3)
.LBE1769:
	blr
	.cfi_endproc
.LFE2175:
	.size	_ZN6idCVarD2Ev, .-_ZN6idCVarD2Ev
	.section	.text._ZN6idCVar17InternalSetStringEPKc,"axG",@progbits,_ZN6idCVar17InternalSetStringEPKc,comdat
	.align 2
	.weak	_ZN6idCVar17InternalSetStringEPKc
	.type	_ZN6idCVar17InternalSetStringEPKc, @function
_ZN6idCVar17InternalSetStringEPKc:
.LFB2197:
	.loc 3 173 0
	.cfi_startproc
.LVL6:
	.loc 3 173 0
	blr
	.cfi_endproc
.LFE2197:
	.size	_ZN6idCVar17InternalSetStringEPKc, .-_ZN6idCVar17InternalSetStringEPKc
	.section	.text._ZN6idCVar15InternalSetBoolEb,"axG",@progbits,_ZN6idCVar15InternalSetBoolEb,comdat
	.align 2
	.weak	_ZN6idCVar15InternalSetBoolEb
	.type	_ZN6idCVar15InternalSetBoolEb, @function
_ZN6idCVar15InternalSetBoolEb:
.LFB2198:
	.loc 3 174 0
	.cfi_startproc
.LVL7:
	.loc 3 174 0
	blr
	.cfi_endproc
.LFE2198:
	.size	_ZN6idCVar15InternalSetBoolEb, .-_ZN6idCVar15InternalSetBoolEb
	.section	.text._ZN6idCVar18InternalSetIntegerEi,"axG",@progbits,_ZN6idCVar18InternalSetIntegerEi,comdat
	.align 2
	.weak	_ZN6idCVar18InternalSetIntegerEi
	.type	_ZN6idCVar18InternalSetIntegerEi, @function
_ZN6idCVar18InternalSetIntegerEi:
.LFB2199:
	.loc 3 175 0
	.cfi_startproc
.LVL8:
	.loc 3 175 0
	blr
	.cfi_endproc
.LFE2199:
	.size	_ZN6idCVar18InternalSetIntegerEi, .-_ZN6idCVar18InternalSetIntegerEi
	.section	.text._ZN6idCVar16InternalSetFloatEf,"axG",@progbits,_ZN6idCVar16InternalSetFloatEf,comdat
	.align 2
	.weak	_ZN6idCVar16InternalSetFloatEf
	.type	_ZN6idCVar16InternalSetFloatEf, @function
_ZN6idCVar16InternalSetFloatEf:
.LFB2200:
	.loc 3 176 0
	.cfi_startproc
.LVL9:
	.loc 3 176 0
	blr
	.cfi_endproc
.LFE2200:
	.size	_ZN6idCVar16InternalSetFloatEf, .-_ZN6idCVar16InternalSetFloatEf
	.section	.text._ZN9idWinding5ClearEv,"axG",@progbits,_ZN9idWinding5ClearEv,comdat
	.align 2
	.weak	_ZN9idWinding5ClearEv
	.type	_ZN9idWinding5ClearEv, @function
_ZN9idWinding5ClearEv:
.LFB1473:
	.loc 1 249 0
	.cfi_startproc
.LVL10:
	mflr 0
	stwu 1,-16(1)
.LCFI2:
	.cfi_def_cfa_offset 16
	.cfi_register 65, 0
	stw 31,12(1)
	mr 31,3
	.cfi_offset 31, -4
	stw 0,20(1)
	.loc 1 250 0
	li 0,0
	.cfi_offset 65, 4
	.loc 1 251 0
	lwz 3,8(3)
.LVL11:
	.loc 1 250 0
	stw 0,4(31)
	.loc 1 251 0
	cmpwi 7,3,0
	beq- 7,.L10
	.loc 1 251 0 is_stmt 0 discriminator 1
	bl _ZdaPv
.L10:
	.loc 1 252 0 is_stmt 1
	li 0,0
	stw 0,8(31)
	.loc 1 253 0
	lwz 0,20(1)
	lwz 31,12(1)
.LVL12:
	mtlr 0
	addi 1,1,16
.LCFI3:
	.cfi_def_cfa_offset 0
	.cfi_restore 31
	blr
	.cfi_endproc
.LFE1473:
	.size	_ZN9idWinding5ClearEv, .-_ZN9idWinding5ClearEv
	.section	.text._ZN9idWindingD2Ev,"axG",@progbits,_ZN9idWindingD5Ev,comdat
	.align 2
	.weak	_ZN9idWindingD2Ev
	.type	_ZN9idWindingD2Ev, @function
_ZN9idWindingD2Ev:
.LFB1461:
	.loc 1 183 0
	.cfi_startproc
.LVL13:
	mflr 0
	stwu 1,-16(1)
.LCFI4:
	.cfi_def_cfa_offset 16
	.cfi_register 65, 0
.LBB1771:
	lis 9,_ZTV9idWinding+8@ha
.LBE1771:
	stw 31,12(1)
	mr 31,3
	.cfi_offset 31, -4
	stw 0,20(1)
.LBB1772:
	.loc 1 183 0
	la 0,_ZTV9idWinding+8@l(9)
	.cfi_offset 65, 4
	.loc 1 184 0
	lwz 3,8(3)
.LVL14:
	.loc 1 183 0
	stw 0,0(31)
	.loc 1 184 0
	cmpwi 7,3,0
	beq- 7,.L13
	.loc 1 184 0 is_stmt 0 discriminator 1
	bl _ZdaPv
.L13:
	.loc 1 185 0 is_stmt 1
	li 0,0
	stw 0,8(31)
.LBE1772:
	.loc 1 186 0
	lwz 0,20(1)
	lwz 31,12(1)
.LVL15:
	mtlr 0
	addi 1,1,16
.LCFI5:
	.cfi_def_cfa_offset 0
	.cfi_restore 31
	blr
	.cfi_endproc
.LFE1461:
	.size	_ZN9idWindingD2Ev, .-_ZN9idWindingD2Ev
	.section	.text._ZN6idCVarD0Ev,"axG",@progbits,_ZN6idCVarD5Ev,comdat
	.align 2
	.weak	_ZN6idCVarD0Ev
	.type	_ZN6idCVarD0Ev, @function
_ZN6idCVarD0Ev:
.LFB2177:
	.loc 3 127 0
	.cfi_startproc
.LVL16:
	mflr 0
	stwu 1,-8(1)
.LCFI6:
	.cfi_def_cfa_offset 8
	.cfi_register 65, 0
.LBB1773:
.LBB1774:
.LBB1775:
	lis 9,_ZTV6idCVar+8@ha
.LBE1775:
.LBE1774:
.LBE1773:
	stw 0,12(1)
.LBB1778:
.LBB1777:
.LBB1776:
	.loc 3 127 0
	la 0,_ZTV6idCVar+8@l(9)
	.cfi_offset 65, 4
	stw 0,0(3)
.LBE1776:
.LBE1777:
.LBE1778:
	bl _ZdlPv
.LVL17:
	lwz 0,12(1)
	addi 1,1,8
.LCFI7:
	.cfi_def_cfa_offset 0
	mtlr 0
	blr
	.cfi_endproc
.LFE2177:
	.size	_ZN6idCVarD0Ev, .-_ZN6idCVarD0Ev
	.section	.text._ZN11idCmdSystem21ArgCompletion_BooleanERK9idCmdArgsPFvPKcE,"axG",@progbits,_ZN11idCmdSystem21ArgCompletion_BooleanERK9idCmdArgsPFvPKcE,comdat
	.align 2
	.weak	_ZN11idCmdSystem21ArgCompletion_BooleanERK9idCmdArgsPFvPKcE
	.type	_ZN11idCmdSystem21ArgCompletion_BooleanERK9idCmdArgsPFvPKcE, @function
_ZN11idCmdSystem21ArgCompletion_BooleanERK9idCmdArgsPFvPKcE:
.LFB2158:
	.loc 2 131 0
	.cfi_startproc
.LVL18:
	mflr 0
	stwu 1,-24(1)
.LCFI8:
	.cfi_def_cfa_offset 24
	.cfi_register 65, 0
	stw 31,20(1)
	mr 31,3
	.cfi_offset 31, -4
.LVL19:
	stw 0,28(1)
	.loc 2 131 0
	stw 4,8(1)
.LBB1779:
.LBB1780:
	.file 4 "d:/Data/Nintendo/DoomGX/src/game/gamesys/../../idlib/../idlib/CmdArgs.h"
	.loc 4 50 0
	lwz 0,0(3)
	.cfi_offset 65, 4
	cmpwi 7,0,0
	ble- 7,.L21
.LVL20:
	lwz 4,4(3)
.LVL21:
.LBE1780:
.LBE1779:
	.loc 2 132 0
	lis 3,.LC3@ha
.LVL22:
	la 3,.LC3@l(3)
	crxor 6,6,6
	bl _Z2vaPKcz
	lwz 0,8(1)
	mtctr 0
	bctrl
.LVL23:
.LBB1783:
.LBB1784:
	.loc 4 50 0
	lwz 0,0(31)
	cmpwi 7,0,0
	ble- 7,.L22
.L23:
	lwz 4,4(31)
.LBE1784:
.LBE1783:
	.loc 2 133 0
	lis 3,.LC4@ha
	la 3,.LC4@l(3)
	crxor 6,6,6
	bl _Z2vaPKcz
	lwz 0,8(1)
	mtctr 0
	bctrl
	.loc 2 134 0
	lwz 0,28(1)
	lwz 31,20(1)
.LVL24:
	mtlr 0
	addi 1,1,24
	.cfi_remember_state
.LCFI9:
	.cfi_def_cfa_offset 0
	.cfi_restore 31
	blr
.LVL25:
.L21:
.LCFI10:
	.cfi_restore_state
.LBB1787:
.LBB1781:
	.loc 4 50 0
	lis 4,.LC2@ha
.LBE1781:
.LBE1787:
	.loc 2 132 0
	lis 3,.LC3@ha
.LVL26:
.LBB1788:
.LBB1782:
	.loc 4 50 0
	la 4,.LC2@l(4)
.LBE1782:
.LBE1788:
	.loc 2 132 0
	la 3,.LC3@l(3)
	crxor 6,6,6
	bl _Z2vaPKcz
	lwz 0,8(1)
	mtctr 0
	bctrl
.LVL27:
.LBB1789:
.LBB1785:
	.loc 4 50 0
	lwz 0,0(31)
	cmpwi 7,0,0
	bgt+ 7,.L23
.L22:
	lis 4,.LC2@ha
.LBE1785:
.LBE1789:
	.loc 2 133 0
	lis 3,.LC4@ha
.LBB1790:
.LBB1786:
	.loc 4 50 0
	la 4,.LC2@l(4)
.LBE1786:
.LBE1790:
	.loc 2 133 0
	la 3,.LC4@l(3)
	crxor 6,6,6
	bl _Z2vaPKcz
	lwz 0,8(1)
	mtctr 0
	bctrl
	.loc 2 134 0
	lwz 0,28(1)
	lwz 31,20(1)
.LVL28:
	mtlr 0
	addi 1,1,24
	.cfi_restore 31
.LCFI11:
	.cfi_def_cfa_offset 0
	blr
	.cfi_endproc
.LFE2158:
	.size	_ZN11idCmdSystem21ArgCompletion_BooleanERK9idCmdArgsPFvPKcE, .-_ZN11idCmdSystem21ArgCompletion_BooleanERK9idCmdArgsPFvPKcE
	.section	.text._ZN11idCmdSystem21ArgCompletion_IntegerILi0ELi4EEEvRK9idCmdArgsPFvPKcE,"axG",@progbits,_ZN11idCmdSystem21ArgCompletion_IntegerILi0ELi4EEEvRK9idCmdArgsPFvPKcE,comdat
	.align 2
	.weak	_ZN11idCmdSystem21ArgCompletion_IntegerILi0ELi4EEEvRK9idCmdArgsPFvPKcE
	.type	_ZN11idCmdSystem21ArgCompletion_IntegerILi0ELi4EEEvRK9idCmdArgsPFvPKcE, @function
_ZN11idCmdSystem21ArgCompletion_IntegerILi0ELi4EEEvRK9idCmdArgsPFvPKcE:
.LFB3026:
	.loc 2 136 0
	.cfi_startproc
.LVL29:
	mflr 0
	stwu 1,-32(1)
.LCFI12:
	.cfi_def_cfa_offset 32
	.cfi_register 65, 0
	stw 29,20(1)
	lis 29,.LC5@ha
	.cfi_offset 29, -12
	stw 0,36(1)
	la 29,.LC5@l(29)
	stw 4,8(1)
	stw 28,16(1)
.LBB1791:
.LBB1792:
.LBB1793:
	.loc 4 50 0
	lis 28,.LC2@ha
	.cfi_offset 28, -16
	.cfi_offset 65, 4
.LBE1793:
.LBE1792:
.LBE1791:
	.loc 2 136 0
	stw 30,24(1)
	mr 30,3
	.cfi_offset 30, -8
	stw 31,28(1)
	.loc 2 137 0
	li 31,0
	.cfi_offset 31, -4
.LVL30:
.L26:
.LBB1798:
.LBB1796:
.LBB1794:
	.loc 4 50 0
	lwz 0,0(30)
	cmpwi 7,0,0
	ble- 7,.L27
	lwz 4,4(30)
.L25:
.LBE1794:
.LBE1796:
	.loc 2 138 0
	mr 5,31
	mr 3,29
	crxor 6,6,6
	bl _Z2vaPKcz
	lwz 0,8(1)
	mtctr 0
	bctrl
.LVL31:
	.loc 2 137 0
	cmpwi 7,31,4
	addi 31,31,1
.LVL32:
	bne+ 7,.L26
.LBE1798:
	.loc 2 140 0
	lwz 0,36(1)
	lwz 28,16(1)
	mtlr 0
	lwz 29,20(1)
	lwz 30,24(1)
.LVL33:
	lwz 31,28(1)
.LVL34:
	addi 1,1,32
	.cfi_remember_state
.LCFI13:
	.cfi_def_cfa_offset 0
	.cfi_restore 31
	.cfi_restore 30
	.cfi_restore 29
	.cfi_restore 28
	blr
.LVL35:
.L27:
.LCFI14:
	.cfi_restore_state
.LBB1799:
.LBB1797:
.LBB1795:
	.loc 4 50 0
	la 4,.LC2@l(28)
	b .L25
.LBE1795:
.LBE1797:
.LBE1799:
	.cfi_endproc
.LFE3026:
	.size	_ZN11idCmdSystem21ArgCompletion_IntegerILi0ELi4EEEvRK9idCmdArgsPFvPKcE, .-_ZN11idCmdSystem21ArgCompletion_IntegerILi0ELi4EEEvRK9idCmdArgsPFvPKcE
	.section	.text._ZN11idCmdSystem21ArgCompletion_IntegerILi0ELi7EEEvRK9idCmdArgsPFvPKcE,"axG",@progbits,_ZN11idCmdSystem21ArgCompletion_IntegerILi0ELi7EEEvRK9idCmdArgsPFvPKcE,comdat
	.align 2
	.weak	_ZN11idCmdSystem21ArgCompletion_IntegerILi0ELi7EEEvRK9idCmdArgsPFvPKcE
	.type	_ZN11idCmdSystem21ArgCompletion_IntegerILi0ELi7EEEvRK9idCmdArgsPFvPKcE, @function
_ZN11idCmdSystem21ArgCompletion_IntegerILi0ELi7EEEvRK9idCmdArgsPFvPKcE:
.LFB3025:
	.loc 2 136 0
	.cfi_startproc
.LVL36:
	stwu 1,-32(1)
.LCFI15:
	.cfi_def_cfa_offset 32
	mflr 0
	stw 29,20(1)
	lis 29,.LC5@ha
	.cfi_offset 29, -12
	.cfi_register 65, 0
	stw 28,16(1)
	la 29,.LC5@l(29)
	stw 30,24(1)
.LBB1800:
.LBB1801:
.LBB1802:
	.loc 4 50 0
	lis 28,.LC2@ha
	.cfi_offset 30, -8
	.cfi_offset 28, -16
.LBE1802:
.LBE1801:
.LBE1800:
	.loc 2 136 0
	stw 31,28(1)
	mr 30,3
	stw 0,36(1)
	.loc 2 137 0
	li 31,0
	.cfi_offset 65, 4
	.cfi_offset 31, -4
	.loc 2 136 0
	stw 4,8(1)
	b .L31
.LVL37:
.L35:
.LBB1809:
.LBB1806:
.LBB1803:
	.loc 4 50 0
	lwz 4,4(30)
.LBE1803:
.LBE1806:
	.loc 2 138 0
	mr 5,31
	mr 3,29
	crxor 6,6,6
	bl _Z2vaPKcz
	lwz 0,8(1)
	mtctr 0
	bctrl
.LVL38:
	.loc 2 137 0
	cmpwi 7,31,7
	addi 31,31,1
.LVL39:
	beq- 7,.L34
.LVL40:
.L31:
.LBB1807:
.LBB1804:
	.loc 4 50 0
	lwz 0,0(30)
	cmpwi 7,0,0
	bgt+ 7,.L35
.LBE1804:
.LBE1807:
	.loc 2 138 0
	mr 5,31
.LBB1808:
.LBB1805:
	.loc 4 50 0
	la 4,.LC2@l(28)
.LBE1805:
.LBE1808:
	.loc 2 138 0
	mr 3,29
	crxor 6,6,6
	bl _Z2vaPKcz
	lwz 0,8(1)
	mtctr 0
	bctrl
.LVL41:
	.loc 2 137 0
	cmpwi 7,31,7
	addi 31,31,1
.LVL42:
	bne+ 7,.L31
.L34:
.LBE1809:
	.loc 2 140 0
	lwz 0,36(1)
	lwz 28,16(1)
	mtlr 0
	lwz 29,20(1)
	lwz 30,24(1)
.LVL43:
	lwz 31,28(1)
.LVL44:
	addi 1,1,32
.LCFI16:
	.cfi_def_cfa_offset 0
	.cfi_restore 31
	.cfi_restore 30
	.cfi_restore 29
	.cfi_restore 28
	blr
	.cfi_endproc
.LFE3025:
	.size	_ZN11idCmdSystem21ArgCompletion_IntegerILi0ELi7EEEvRK9idCmdArgsPFvPKcE, .-_ZN11idCmdSystem21ArgCompletion_IntegerILi0ELi7EEEvRK9idCmdArgsPFvPKcE
	.section	.text._ZN11idCmdSystem21ArgCompletion_IntegerILi0ELi2EEEvRK9idCmdArgsPFvPKcE,"axG",@progbits,_ZN11idCmdSystem21ArgCompletion_IntegerILi0ELi2EEEvRK9idCmdArgsPFvPKcE,comdat
	.align 2
	.weak	_ZN11idCmdSystem21ArgCompletion_IntegerILi0ELi2EEEvRK9idCmdArgsPFvPKcE
	.type	_ZN11idCmdSystem21ArgCompletion_IntegerILi0ELi2EEEvRK9idCmdArgsPFvPKcE, @function
_ZN11idCmdSystem21ArgCompletion_IntegerILi0ELi2EEEvRK9idCmdArgsPFvPKcE:
.LFB3024:
	.loc 2 136 0
	.cfi_startproc
.LVL45:
	mflr 0
	stwu 1,-32(1)
.LCFI17:
	.cfi_def_cfa_offset 32
	.cfi_register 65, 0
	stw 29,20(1)
	lis 29,.LC5@ha
	.cfi_offset 29, -12
	stw 0,36(1)
	la 29,.LC5@l(29)
	stw 4,8(1)
	stw 28,16(1)
.LBB1810:
.LBB1811:
.LBB1812:
	.loc 4 50 0
	lis 28,.LC2@ha
	.cfi_offset 28, -16
	.cfi_offset 65, 4
.LBE1812:
.LBE1811:
.LBE1810:
	.loc 2 136 0
	stw 30,24(1)
	mr 30,3
	.cfi_offset 30, -8
	stw 31,28(1)
	.loc 2 137 0
	li 31,0
	.cfi_offset 31, -4
.LVL46:
.L38:
.LBB1817:
.LBB1815:
.LBB1813:
	.loc 4 50 0
	lwz 0,0(30)
	cmpwi 7,0,0
	ble- 7,.L39
	lwz 4,4(30)
.L37:
.LBE1813:
.LBE1815:
	.loc 2 138 0
	mr 5,31
	mr 3,29
	crxor 6,6,6
	bl _Z2vaPKcz
	lwz 0,8(1)
	mtctr 0
	bctrl
.LVL47:
	.loc 2 137 0
	cmpwi 7,31,2
	addi 31,31,1
.LVL48:
	bne+ 7,.L38
.LBE1817:
	.loc 2 140 0
	lwz 0,36(1)
	lwz 28,16(1)
	mtlr 0
	lwz 29,20(1)
	lwz 30,24(1)
.LVL49:
	lwz 31,28(1)
.LVL50:
	addi 1,1,32
	.cfi_remember_state
.LCFI18:
	.cfi_def_cfa_offset 0
	.cfi_restore 31
	.cfi_restore 30
	.cfi_restore 29
	.cfi_restore 28
	blr
.LVL51:
.L39:
.LCFI19:
	.cfi_restore_state
.LBB1818:
.LBB1816:
.LBB1814:
	.loc 4 50 0
	la 4,.LC2@l(28)
	b .L37
.LBE1814:
.LBE1816:
.LBE1818:
	.cfi_endproc
.LFE3024:
	.size	_ZN11idCmdSystem21ArgCompletion_IntegerILi0ELi2EEEvRK9idCmdArgsPFvPKcE, .-_ZN11idCmdSystem21ArgCompletion_IntegerILi0ELi2EEEvRK9idCmdArgsPFvPKcE
	.section	.text._ZN11idCmdSystem20ArgCompletion_StringIXadL_Z15si_spectateArgsEEEEvRK9idCmdArgsPFvPKcE,"axG",@progbits,_ZN11idCmdSystem20ArgCompletion_StringIXadL_Z15si_spectateArgsEEEEvRK9idCmdArgsPFvPKcE,comdat
	.align 2
	.weak	_ZN11idCmdSystem20ArgCompletion_StringIXadL_Z15si_spectateArgsEEEEvRK9idCmdArgsPFvPKcE
	.type	_ZN11idCmdSystem20ArgCompletion_StringIXadL_Z15si_spectateArgsEEEEvRK9idCmdArgsPFvPKcE, @function
_ZN11idCmdSystem20ArgCompletion_StringIXadL_Z15si_spectateArgsEEEEvRK9idCmdArgsPFvPKcE:
.LFB3023:
	.loc 2 142 0
	.cfi_startproc
.LVL52:
	stwu 1,-32(1)
.LCFI20:
	.cfi_def_cfa_offset 32
	mflr 0
	stw 31,28(1)
.LBB1819:
	.loc 2 143 0
	lis 31,.LANCHOR0@ha
	.cfi_offset 31, -4
	.cfi_register 65, 0
	lwz 5,.LANCHOR0@l(31)
	la 31,.LANCHOR0@l(31)
.LBE1819:
	.loc 2 142 0
	stw 30,24(1)
	mr 30,3
	.cfi_offset 30, -8
.LBB1824:
	.loc 2 143 0
	cmpwi 7,5,0
.LBE1824:
	.loc 2 142 0
	stw 0,36(1)
	stw 28,16(1)
	stw 29,20(1)
	.loc 2 142 0
	stw 4,8(1)
.LBB1825:
	.loc 2 143 0
	beq- 7,.L41
	.cfi_offset 29, -12
	.cfi_offset 28, -16
	.cfi_offset 65, 4
	lis 29,.LC6@ha
.LBB1820:
.LBB1821:
	.loc 4 50 0
	lis 28,.LC2@ha
	la 29,.LC6@l(29)
.LVL53:
.L44:
	lwz 0,0(30)
	cmpwi 7,0,0
	ble- 7,.L45
	lwz 4,4(30)
.L43:
.LBE1821:
.LBE1820:
	.loc 2 144 0
	mr 3,29
	crxor 6,6,6
	bl _Z2vaPKcz
	lwz 0,8(1)
	mtctr 0
	bctrl
	.loc 2 143 0
	lwzu 5,4(31)
	cmpwi 7,5,0
	bne+ 7,.L44
.LVL54:
.L41:
.LBE1825:
	.loc 2 146 0
	lwz 0,36(1)
	lwz 28,16(1)
	mtlr 0
	lwz 29,20(1)
	lwz 30,24(1)
.LVL55:
	lwz 31,28(1)
	addi 1,1,32
	.cfi_remember_state
.LCFI21:
	.cfi_def_cfa_offset 0
	.cfi_restore 31
	.cfi_restore 30
	.cfi_restore 29
	.cfi_restore 28
	blr
.LVL56:
.L45:
.LCFI22:
	.cfi_restore_state
.LBB1826:
.LBB1823:
.LBB1822:
	.loc 4 50 0
	la 4,.LC2@l(28)
	b .L43
.LBE1822:
.LBE1823:
.LBE1826:
	.cfi_endproc
.LFE3023:
	.size	_ZN11idCmdSystem20ArgCompletion_StringIXadL_Z15si_spectateArgsEEEEvRK9idCmdArgsPFvPKcE, .-_ZN11idCmdSystem20ArgCompletion_StringIXadL_Z15si_spectateArgsEEEEvRK9idCmdArgsPFvPKcE
	.section	.text._ZN11idCmdSystem20ArgCompletion_StringIXadL_Z12si_readyArgsEEEEvRK9idCmdArgsPFvPKcE,"axG",@progbits,_ZN11idCmdSystem20ArgCompletion_StringIXadL_Z12si_readyArgsEEEEvRK9idCmdArgsPFvPKcE,comdat
	.align 2
	.weak	_ZN11idCmdSystem20ArgCompletion_StringIXadL_Z12si_readyArgsEEEEvRK9idCmdArgsPFvPKcE
	.type	_ZN11idCmdSystem20ArgCompletion_StringIXadL_Z12si_readyArgsEEEEvRK9idCmdArgsPFvPKcE, @function
_ZN11idCmdSystem20ArgCompletion_StringIXadL_Z12si_readyArgsEEEEvRK9idCmdArgsPFvPKcE:
.LFB3022:
	.loc 2 142 0
	.cfi_startproc
.LVL57:
	mflr 0
	stwu 1,-32(1)
.LCFI23:
	.cfi_def_cfa_offset 32
	.cfi_register 65, 0
	stw 30,24(1)
	mr 30,3
	.cfi_offset 30, -8
	stw 31,28(1)
.LBB1827:
	.loc 2 143 0
	lis 31,.LANCHOR0@ha
	.cfi_offset 31, -4
.LBE1827:
	.loc 2 142 0
	stw 0,36(1)
.LBB1832:
	.loc 2 143 0
	la 31,.LANCHOR0@l(31)
.LBE1832:
	.loc 2 142 0
	stw 28,16(1)
	stw 29,20(1)
	.loc 2 142 0
	stw 4,8(1)
.LBB1833:
	.loc 2 143 0
	lwz 5,12(31)
	cmpwi 7,5,0
	beq- 7,.L47
	.cfi_offset 29, -12
	.cfi_offset 28, -16
	.cfi_offset 65, 4
	lis 29,.LC6@ha
	addi 31,31,12
	la 29,.LC6@l(29)
.LBB1828:
.LBB1829:
	.loc 4 50 0
	lis 28,.LC2@ha
.LVL58:
.L50:
	lwz 0,0(30)
	cmpwi 7,0,0
	ble- 7,.L51
	lwz 4,4(30)
.L49:
.LBE1829:
.LBE1828:
	.loc 2 144 0
	mr 3,29
	crxor 6,6,6
	bl _Z2vaPKcz
	lwz 0,8(1)
	mtctr 0
	bctrl
	.loc 2 143 0
	lwzu 5,4(31)
	cmpwi 7,5,0
	bne+ 7,.L50
.LVL59:
.L47:
.LBE1833:
	.loc 2 146 0
	lwz 0,36(1)
	lwz 28,16(1)
	mtlr 0
	lwz 29,20(1)
	lwz 30,24(1)
.LVL60:
	lwz 31,28(1)
	addi 1,1,32
	.cfi_remember_state
.LCFI24:
	.cfi_def_cfa_offset 0
	.cfi_restore 31
	.cfi_restore 30
	.cfi_restore 29
	.cfi_restore 28
	blr
.LVL61:
.L51:
.LCFI25:
	.cfi_restore_state
.LBB1834:
.LBB1831:
.LBB1830:
	.loc 4 50 0
	la 4,.LC2@l(28)
	b .L49
.LBE1830:
.LBE1831:
.LBE1834:
	.cfi_endproc
.LFE3022:
	.size	_ZN11idCmdSystem20ArgCompletion_StringIXadL_Z12si_readyArgsEEEEvRK9idCmdArgsPFvPKcE, .-_ZN11idCmdSystem20ArgCompletion_StringIXadL_Z12si_readyArgsEEEEvRK9idCmdArgsPFvPKcE
	.section	.text._ZN11idCmdSystem20ArgCompletion_StringIXadL_Z11ui_teamArgsEEEEvRK9idCmdArgsPFvPKcE,"axG",@progbits,_ZN11idCmdSystem20ArgCompletion_StringIXadL_Z11ui_teamArgsEEEEvRK9idCmdArgsPFvPKcE,comdat
	.align 2
	.weak	_ZN11idCmdSystem20ArgCompletion_StringIXadL_Z11ui_teamArgsEEEEvRK9idCmdArgsPFvPKcE
	.type	_ZN11idCmdSystem20ArgCompletion_StringIXadL_Z11ui_teamArgsEEEEvRK9idCmdArgsPFvPKcE, @function
_ZN11idCmdSystem20ArgCompletion_StringIXadL_Z11ui_teamArgsEEEEvRK9idCmdArgsPFvPKcE:
.LFB3021:
	.loc 2 142 0
	.cfi_startproc
.LVL62:
	mflr 0
	stwu 1,-32(1)
.LCFI26:
	.cfi_def_cfa_offset 32
	.cfi_register 65, 0
	stw 30,24(1)
	mr 30,3
	.cfi_offset 30, -8
	stw 31,28(1)
.LBB1835:
	.loc 2 143 0
	lis 31,.LANCHOR0@ha
	.cfi_offset 31, -4
.LBE1835:
	.loc 2 142 0
	stw 0,36(1)
.LBB1840:
	.loc 2 143 0
	la 31,.LANCHOR0@l(31)
.LBE1840:
	.loc 2 142 0
	stw 28,16(1)
	stw 29,20(1)
	.loc 2 142 0
	stw 4,8(1)
.LBB1841:
	.loc 2 143 0
	lwz 5,24(31)
	cmpwi 7,5,0
	beq- 7,.L53
	.cfi_offset 29, -12
	.cfi_offset 28, -16
	.cfi_offset 65, 4
	lis 29,.LC6@ha
	addi 31,31,24
	la 29,.LC6@l(29)
.LBB1836:
.LBB1837:
	.loc 4 50 0
	lis 28,.LC2@ha
.LVL63:
.L56:
	lwz 0,0(30)
	cmpwi 7,0,0
	ble- 7,.L57
	lwz 4,4(30)
.L55:
.LBE1837:
.LBE1836:
	.loc 2 144 0
	mr 3,29
	crxor 6,6,6
	bl _Z2vaPKcz
	lwz 0,8(1)
	mtctr 0
	bctrl
	.loc 2 143 0
	lwzu 5,4(31)
	cmpwi 7,5,0
	bne+ 7,.L56
.LVL64:
.L53:
.LBE1841:
	.loc 2 146 0
	lwz 0,36(1)
	lwz 28,16(1)
	mtlr 0
	lwz 29,20(1)
	lwz 30,24(1)
.LVL65:
	lwz 31,28(1)
	addi 1,1,32
	.cfi_remember_state
.LCFI27:
	.cfi_def_cfa_offset 0
	.cfi_restore 31
	.cfi_restore 30
	.cfi_restore 29
	.cfi_restore 28
	blr
.LVL66:
.L57:
.LCFI28:
	.cfi_restore_state
.LBB1842:
.LBB1839:
.LBB1838:
	.loc 4 50 0
	la 4,.LC2@l(28)
	b .L55
.LBE1838:
.LBE1839:
.LBE1842:
	.cfi_endproc
.LFE3021:
	.size	_ZN11idCmdSystem20ArgCompletion_StringIXadL_Z11ui_teamArgsEEEEvRK9idCmdArgsPFvPKcE, .-_ZN11idCmdSystem20ArgCompletion_StringIXadL_Z11ui_teamArgsEEEEvRK9idCmdArgsPFvPKcE
	.section	.text._ZN11idCmdSystem20ArgCompletion_StringIXadL_Z11ui_skinArgsEEEEvRK9idCmdArgsPFvPKcE,"axG",@progbits,_ZN11idCmdSystem20ArgCompletion_StringIXadL_Z11ui_skinArgsEEEEvRK9idCmdArgsPFvPKcE,comdat
	.align 2
	.weak	_ZN11idCmdSystem20ArgCompletion_StringIXadL_Z11ui_skinArgsEEEEvRK9idCmdArgsPFvPKcE
	.type	_ZN11idCmdSystem20ArgCompletion_StringIXadL_Z11ui_skinArgsEEEEvRK9idCmdArgsPFvPKcE, @function
_ZN11idCmdSystem20ArgCompletion_StringIXadL_Z11ui_skinArgsEEEEvRK9idCmdArgsPFvPKcE:
.LFB3020:
	.loc 2 142 0
	.cfi_startproc
.LVL67:
	mflr 0
	stwu 1,-32(1)
.LCFI29:
	.cfi_def_cfa_offset 32
	.cfi_register 65, 0
	stw 30,24(1)
	mr 30,3
	.cfi_offset 30, -8
	stw 31,28(1)
.LBB1843:
	.loc 2 143 0
	lis 31,.LANCHOR0@ha
	.cfi_offset 31, -4
.LBE1843:
	.loc 2 142 0
	stw 0,36(1)
.LBB1848:
	.loc 2 143 0
	la 31,.LANCHOR0@l(31)
.LBE1848:
	.loc 2 142 0
	stw 28,16(1)
	stw 29,20(1)
	.loc 2 142 0
	stw 4,8(1)
.LBB1849:
	.loc 2 143 0
	lwz 5,36(31)
	cmpwi 7,5,0
	beq- 7,.L59
	.cfi_offset 29, -12
	.cfi_offset 28, -16
	.cfi_offset 65, 4
	lis 29,.LC6@ha
	.loc 2 142 0
	addi 31,31,36
	la 29,.LC6@l(29)
.LBB1844:
.LBB1845:
	.loc 4 50 0
	lis 28,.LC2@ha
	b .L62
.LVL68:
.L65:
	lwz 4,4(30)
.LBE1845:
.LBE1844:
	.loc 2 144 0
	mr 3,29
	crxor 6,6,6
	bl _Z2vaPKcz
	lwz 0,8(1)
	mtctr 0
	bctrl
	.loc 2 143 0
	lwzu 5,4(31)
	cmpwi 7,5,0
	beq- 7,.L59
.LVL69:
.L62:
.LBB1847:
.LBB1846:
	.loc 4 50 0
	lwz 0,0(30)
	cmpwi 7,0,0
	bgt+ 7,.L65
	la 4,.LC2@l(28)
.LBE1846:
.LBE1847:
	.loc 2 144 0
	mr 3,29
	crxor 6,6,6
	bl _Z2vaPKcz
	lwz 0,8(1)
	mtctr 0
	bctrl
	.loc 2 143 0
	lwzu 5,4(31)
	cmpwi 7,5,0
	bne+ 7,.L62
.LVL70:
.L59:
.LBE1849:
	.loc 2 146 0
	lwz 0,36(1)
	lwz 28,16(1)
	mtlr 0
	lwz 29,20(1)
	lwz 30,24(1)
.LVL71:
	lwz 31,28(1)
	addi 1,1,32
.LCFI30:
	.cfi_def_cfa_offset 0
	.cfi_restore 31
	.cfi_restore 30
	.cfi_restore 29
	.cfi_restore 28
	blr
	.cfi_endproc
.LFE3020:
	.size	_ZN11idCmdSystem20ArgCompletion_StringIXadL_Z11ui_skinArgsEEEEvRK9idCmdArgsPFvPKcE, .-_ZN11idCmdSystem20ArgCompletion_StringIXadL_Z11ui_skinArgsEEEEvRK9idCmdArgsPFvPKcE
	.section	.text._ZN11idCmdSystem20ArgCompletion_StringIXadL_Z15si_gameTypeArgsEEEEvRK9idCmdArgsPFvPKcE,"axG",@progbits,_ZN11idCmdSystem20ArgCompletion_StringIXadL_Z15si_gameTypeArgsEEEEvRK9idCmdArgsPFvPKcE,comdat
	.align 2
	.weak	_ZN11idCmdSystem20ArgCompletion_StringIXadL_Z15si_gameTypeArgsEEEEvRK9idCmdArgsPFvPKcE
	.type	_ZN11idCmdSystem20ArgCompletion_StringIXadL_Z15si_gameTypeArgsEEEEvRK9idCmdArgsPFvPKcE, @function
_ZN11idCmdSystem20ArgCompletion_StringIXadL_Z15si_gameTypeArgsEEEEvRK9idCmdArgsPFvPKcE:
.LFB3019:
	.loc 2 142 0
	.cfi_startproc
.LVL72:
	mflr 0
	stwu 1,-32(1)
.LCFI31:
	.cfi_def_cfa_offset 32
	.cfi_register 65, 0
	stw 30,24(1)
	mr 30,3
	.cfi_offset 30, -8
	stw 31,28(1)
.LBB1850:
	.loc 2 143 0
	lis 31,.LANCHOR0@ha
	.cfi_offset 31, -4
.LBE1850:
	.loc 2 142 0
	stw 0,36(1)
.LBB1855:
	.loc 2 143 0
	la 31,.LANCHOR0@l(31)
.LBE1855:
	.loc 2 142 0
	stw 28,16(1)
	stw 29,20(1)
	.loc 2 142 0
	stw 4,8(1)
.LBB1856:
	.loc 2 143 0
	lwz 5,60(31)
	cmpwi 7,5,0
	beq- 7,.L66
	.cfi_offset 29, -12
	.cfi_offset 28, -16
	.cfi_offset 65, 4
	lis 29,.LC6@ha
	.loc 2 142 0
	addi 31,31,60
	la 29,.LC6@l(29)
.LBB1851:
.LBB1852:
	.loc 4 50 0
	lis 28,.LC2@ha
	b .L69
.LVL73:
.L72:
	lwz 4,4(30)
.LBE1852:
.LBE1851:
	.loc 2 144 0
	mr 3,29
	crxor 6,6,6
	bl _Z2vaPKcz
	lwz 0,8(1)
	mtctr 0
	bctrl
	.loc 2 143 0
	lwzu 5,4(31)
	cmpwi 7,5,0
	beq- 7,.L66
.LVL74:
.L69:
.LBB1854:
.LBB1853:
	.loc 4 50 0
	lwz 0,0(30)
	cmpwi 7,0,0
	bgt+ 7,.L72
	la 4,.LC2@l(28)
.LBE1853:
.LBE1854:
	.loc 2 144 0
	mr 3,29
	crxor 6,6,6
	bl _Z2vaPKcz
	lwz 0,8(1)
	mtctr 0
	bctrl
	.loc 2 143 0
	lwzu 5,4(31)
	cmpwi 7,5,0
	bne+ 7,.L69
.LVL75:
.L66:
.LBE1856:
	.loc 2 146 0
	lwz 0,36(1)
	lwz 28,16(1)
	mtlr 0
	lwz 29,20(1)
	lwz 30,24(1)
.LVL76:
	lwz 31,28(1)
	addi 1,1,32
.LCFI32:
	.cfi_def_cfa_offset 0
	.cfi_restore 31
	.cfi_restore 30
	.cfi_restore 29
	.cfi_restore 28
	blr
	.cfi_endproc
.LFE3019:
	.size	_ZN11idCmdSystem20ArgCompletion_StringIXadL_Z15si_gameTypeArgsEEEEvRK9idCmdArgsPFvPKcE, .-_ZN11idCmdSystem20ArgCompletion_StringIXadL_Z15si_gameTypeArgsEEEEvRK9idCmdArgsPFvPKcE
	.section	.text._ZN14idFixedWindingD0Ev,"axG",@progbits,_ZN14idFixedWindingD5Ev,comdat
	.align 2
	.weak	_ZN14idFixedWindingD0Ev
	.type	_ZN14idFixedWindingD0Ev, @function
_ZN14idFixedWindingD0Ev:
.LFB1500:
	.loc 1 380 0
	.cfi_startproc
.LVL77:
	mflr 0
	stwu 1,-8(1)
.LCFI33:
	.cfi_def_cfa_offset 8
	.cfi_register 65, 0
.LBB1863:
.LBB1864:
.LBB1865:
.LBB1866:
.LBB1867:
.LBB1868:
	.loc 1 183 0
	lis 11,_ZTV9idWinding+8@ha
.LBE1868:
.LBE1867:
.LBE1866:
.LBE1865:
.LBE1864:
.LBE1863:
	.loc 1 380 0
	stw 0,12(1)
.LBB1874:
.LBB1873:
.LBB1872:
	.loc 1 381 0
	li 0,0
	.cfi_offset 65, 4
	stw 0,8(3)
.LVL78:
.LBB1871:
.LBB1870:
.LBB1869:
	.loc 1 183 0
	la 0,_ZTV9idWinding+8@l(11)
	stw 0,0(3)
.LBE1869:
.LBE1870:
.LBE1871:
.LBE1872:
.LBE1873:
.LBE1874:
	.loc 1 382 0
	bl _ZdlPv
.LVL79:
	lwz 0,12(1)
	addi 1,1,8
.LCFI34:
	.cfi_def_cfa_offset 0
	mtlr 0
	blr
	.cfi_endproc
.LFE1500:
	.size	_ZN14idFixedWindingD0Ev, .-_ZN14idFixedWindingD0Ev
	.section	.text._ZN9idWindingD0Ev,"axG",@progbits,_ZN9idWindingD5Ev,comdat
	.align 2
	.weak	_ZN9idWindingD0Ev
	.type	_ZN9idWindingD0Ev, @function
_ZN9idWindingD0Ev:
.LFB1463:
	.loc 1 183 0
	.cfi_startproc
.LVL80:
	mflr 0
	stwu 1,-16(1)
.LCFI35:
	.cfi_def_cfa_offset 16
	.cfi_register 65, 0
.LBB1878:
.LBB1879:
.LBB1880:
	lis 9,_ZTV9idWinding+8@ha
.LBE1880:
.LBE1879:
.LBE1878:
	stw 31,12(1)
	mr 31,3
	.cfi_offset 31, -4
.LVL81:
	stw 0,20(1)
.LBB1885:
.LBB1883:
.LBB1881:
	.loc 1 183 0
	la 0,_ZTV9idWinding+8@l(9)
	.cfi_offset 65, 4
	.loc 1 184 0
	lwz 3,8(3)
.LVL82:
	.loc 1 183 0
	stw 0,0(31)
	.loc 1 184 0
	cmpwi 7,3,0
	beq- 7,.L78
	bl _ZdaPv
.L78:
	.loc 1 185 0
	li 0,0
.LBE1881:
.LBE1883:
.LBE1885:
	.loc 1 186 0
	mr 3,31
.LBB1886:
.LBB1884:
.LBB1882:
	.loc 1 185 0
	stw 0,8(31)
.LBE1882:
.LBE1884:
.LBE1886:
	.loc 1 186 0
	bl _ZdlPv
	lwz 0,20(1)
	lwz 31,12(1)
.LVL83:
	mtlr 0
	addi 1,1,16
.LCFI36:
	.cfi_def_cfa_offset 0
	.cfi_restore 31
	blr
	.cfi_endproc
.LFE1463:
	.size	_ZN9idWindingD0Ev, .-_ZN9idWindingD0Ev
	.section	.text._ZN14idFixedWindingD2Ev,"axG",@progbits,_ZN14idFixedWindingD5Ev,comdat
	.align 2
	.weak	_ZN14idFixedWindingD2Ev
	.type	_ZN14idFixedWindingD2Ev, @function
_ZN14idFixedWindingD2Ev:
.LFB1498:
	.loc 1 380 0
	.cfi_startproc
.LVL84:
.LBB1891:
	.loc 1 381 0
	li 0,0
.LBB1892:
.LBB1893:
.LBB1894:
	.loc 1 183 0
	lis 9,_ZTV9idWinding+8@ha
.LBE1894:
.LBE1893:
.LBE1892:
	.loc 1 381 0
	stw 0,8(3)
.LVL85:
.LBB1897:
.LBB1896:
.LBB1895:
	.loc 1 183 0
	la 0,_ZTV9idWinding+8@l(9)
	stw 0,0(3)
.LBE1895:
.LBE1896:
.LBE1897:
.LBE1891:
	.loc 1 382 0
	blr
	.cfi_endproc
.LFE1498:
	.size	_ZN14idFixedWindingD2Ev, .-_ZN14idFixedWindingD2Ev
	.section	.text._ZN6idCVarC2EPKcS1_iS1_PFvRK9idCmdArgsPFvS1_EE,"axG",@progbits,_ZN6idCVarC5EPKcS1_iS1_PFvRK9idCmdArgsPFvS1_EE,comdat
	.align 2
	.weak	_ZN6idCVarC2EPKcS1_iS1_PFvRK9idCmdArgsPFvS1_EE
	.type	_ZN6idCVarC2EPKcS1_iS1_PFvRK9idCmdArgsPFvS1_EE, @function
_ZN6idCVarC2EPKcS1_iS1_PFvRK9idCmdArgsPFvS1_EE:
.LFB2202:
	.loc 3 181 0
	.cfi_startproc
.LVL86:
	mflr 0
.LBB1908:
	.loc 3 183 0
	cmpwi 0,8,0
.LBE1908:
	.loc 3 181 0
	stwu 1,-8(1)
.LCFI37:
	.cfi_def_cfa_offset 8
	.cfi_register 65, 0
.LBB1911:
	.loc 3 182 0
	lis 9,_ZTV6idCVar+8@ha
.LBE1911:
	.loc 3 181 0
	stw 0,12(1)
.LBB1912:
	.loc 3 182 0
	la 0,_ZTV6idCVar+8@l(9)
	.cfi_offset 65, 4
	stw 0,0(3)
	.loc 3 183 0
	beq- 0,.L88
.LVL87:
.L85:
.LBB1909:
.LBB1910:
	.loc 3 292 0
	lis 9,_ZN6idCVar10staticVarsE@ha
	.loc 3 285 0
	lis 10,.LC7@ha
	.loc 3 292 0
	lwz 11,_ZN6idCVar10staticVarsE@l(9)
	.loc 3 287 0
	li 0,0
	.loc 3 285 0
	lwz 10,.LC7@l(10)
	.loc 3 284 0
	ori 6,6,4096
.LVL88:
	.loc 3 292 0
	cmpwi 7,11,-1
	.loc 3 287 0
	stw 0,28(3)
	.loc 3 285 0
	stw 10,20(3)
	.loc 3 286 0
	lis 10,.LC8@ha
	lwz 10,.LC8@l(10)
	.loc 3 289 0
	stw 0,36(3)
	.loc 3 290 0
	li 0,0
	.loc 3 280 0
	stw 4,4(3)
	.loc 3 281 0
	stw 5,8(3)
	.loc 3 283 0
	stw 7,12(3)
	.loc 3 284 0
	stw 6,16(3)
	.loc 3 286 0
	stw 10,24(3)
	.loc 3 288 0
	stw 8,32(3)
	.loc 3 290 0
	stw 0,40(3)
	.loc 3 291 0
	stw 3,44(3)
	.loc 3 292 0
	beq- 7,.L86
.LVL89:
	.loc 3 293 0
	stw 11,48(3)
	.loc 3 294 0
	stw 3,_ZN6idCVar10staticVarsE@l(9)
.LBE1910:
.LBE1909:
.LBE1912:
	.loc 3 187 0
	lwz 0,12(1)
	addi 1,1,8
	.cfi_remember_state
.LCFI38:
	.cfi_def_cfa_offset 0
	mtlr 0
	blr
.LVL90:
.L88:
.LCFI39:
	.cfi_restore_state
.LBB1913:
	.loc 3 183 0 discriminator 1
	andi. 0,6,1
	beq- 0,.L85
	.loc 3 184 0
	lis 8,_ZN11idCmdSystem21ArgCompletion_BooleanERK9idCmdArgsPFvPKcE@ha
.LVL91:
	la 8,_ZN11idCmdSystem21ArgCompletion_BooleanERK9idCmdArgsPFvPKcE@l(8)
	b .L85
.LVL92:
.L86:
.LBE1913:
.LBB1914:
.LBB1915:
.LBB1916:
.LBB1917:
.LBB1918:
	.loc 3 296 0
	lis 9,cvarSystem@ha
	mr 4,3
.LVL93:
	lwz 11,cvarSystem@l(9)
	lwz 9,0(11)
	mr 3,11
.LVL94:
	lwz 0,20(9)
	mtctr 0
	bctrl
.LVL95:
.LBE1918:
.LBE1917:
.LBE1916:
.LBE1915:
.LBE1914:
	.loc 3 187 0
	lwz 0,12(1)
	addi 1,1,8
.LCFI40:
	.cfi_def_cfa_offset 0
	mtlr 0
	blr
	.cfi_endproc
.LFE2202:
	.size	_ZN6idCVarC2EPKcS1_iS1_PFvRK9idCmdArgsPFvS1_EE, .-_ZN6idCVarC2EPKcS1_iS1_PFvRK9idCmdArgsPFvS1_EE
	.section	.text._ZN6idCVarC2EPKcS1_iS1_ffPFvRK9idCmdArgsPFvS1_EE,"axG",@progbits,_ZN6idCVarC5EPKcS1_iS1_ffPFvRK9idCmdArgsPFvS1_EE,comdat
	.align 2
	.weak	_ZN6idCVarC2EPKcS1_iS1_ffPFvRK9idCmdArgsPFvS1_EE
	.type	_ZN6idCVarC2EPKcS1_iS1_ffPFvRK9idCmdArgsPFvS1_EE, @function
_ZN6idCVarC2EPKcS1_iS1_ffPFvRK9idCmdArgsPFvS1_EE:
.LFB2205:
	.loc 3 189 0
	.cfi_startproc
.LVL96:
	mflr 0
	stwu 1,-8(1)
.LCFI41:
	.cfi_def_cfa_offset 8
	.cfi_register 65, 0
.LBB1929:
	.loc 3 190 0
	lis 9,_ZTV6idCVar+8@ha
.LBB1930:
.LBB1931:
	.loc 3 284 0
	ori 6,6,4096
.LVL97:
.LBE1931:
.LBE1930:
.LBE1929:
	.loc 3 189 0
	stw 0,12(1)
.LBB1934:
	.loc 3 190 0
	la 0,_ZTV6idCVar+8@l(9)
	.cfi_offset 65, 4
	stw 0,0(3)
.LVL98:
.LBB1933:
.LBB1932:
	.loc 3 292 0
	lis 9,_ZN6idCVar10staticVarsE@ha
	.loc 3 287 0
	li 0,0
	.loc 3 280 0
	stw 4,4(3)
	.loc 3 292 0
	lwz 11,_ZN6idCVar10staticVarsE@l(9)
	.loc 3 287 0
	stw 0,28(3)
	.loc 3 292 0
	cmpwi 7,11,-1
	.loc 3 289 0
	stw 0,36(3)
	.loc 3 290 0
	li 0,0
	.loc 3 281 0
	stw 5,8(3)
	.loc 3 283 0
	stw 7,12(3)
	.loc 3 284 0
	stw 6,16(3)
	.loc 3 285 0
	stfs 1,20(3)
	.loc 3 286 0
	stfs 2,24(3)
	.loc 3 288 0
	stw 8,32(3)
	.loc 3 290 0
	stw 0,40(3)
	.loc 3 291 0
	stw 3,44(3)
	.loc 3 292 0
	beq- 7,.L90
.LVL99:
	.loc 3 293 0
	stw 11,48(3)
	.loc 3 294 0
	stw 3,_ZN6idCVar10staticVarsE@l(9)
.LBE1932:
.LBE1933:
.LBE1934:
	.loc 3 192 0
	lwz 0,12(1)
	addi 1,1,8
	.cfi_remember_state
.LCFI42:
	.cfi_def_cfa_offset 0
	mtlr 0
	blr
.LVL100:
.L90:
.LCFI43:
	.cfi_restore_state
.LBB1935:
.LBB1936:
.LBB1937:
.LBB1938:
.LBB1939:
	.loc 3 296 0
	lis 9,cvarSystem@ha
	mr 4,3
.LVL101:
	lwz 11,cvarSystem@l(9)
	lwz 9,0(11)
	mr 3,11
.LVL102:
	lwz 0,20(9)
	mtctr 0
	bctrl
.LVL103:
.LBE1939:
.LBE1938:
.LBE1937:
.LBE1936:
.LBE1935:
	.loc 3 192 0
	lwz 0,12(1)
	addi 1,1,8
.LCFI44:
	.cfi_def_cfa_offset 0
	mtlr 0
	blr
	.cfi_endproc
.LFE2205:
	.size	_ZN6idCVarC2EPKcS1_iS1_ffPFvRK9idCmdArgsPFvS1_EE, .-_ZN6idCVarC2EPKcS1_iS1_ffPFvRK9idCmdArgsPFvS1_EE
	.section	.text._ZN6idCVarC2EPKcS1_iS1_PS1_PFvRK9idCmdArgsPFvS1_EE,"axG",@progbits,_ZN6idCVarC5EPKcS1_iS1_PS1_PFvRK9idCmdArgsPFvS1_EE,comdat
	.align 2
	.weak	_ZN6idCVarC2EPKcS1_iS1_PS1_PFvRK9idCmdArgsPFvS1_EE
	.type	_ZN6idCVarC2EPKcS1_iS1_PS1_PFvRK9idCmdArgsPFvS1_EE, @function
_ZN6idCVarC2EPKcS1_iS1_PS1_PFvRK9idCmdArgsPFvS1_EE:
.LFB2208:
	.loc 3 194 0
	.cfi_startproc
.LVL104:
	mflr 0
	stwu 1,-8(1)
.LCFI45:
	.cfi_def_cfa_offset 8
	.cfi_register 65, 0
.LBB1950:
	.loc 3 195 0
	lis 11,_ZTV6idCVar+8@ha
.LBB1951:
.LBB1952:
	.loc 3 285 0
	lis 10,.LC7@ha
	lwz 10,.LC7@l(10)
	.loc 3 284 0
	ori 6,6,4096
.LVL105:
.LBE1952:
.LBE1951:
.LBE1950:
	.loc 3 194 0
	stw 0,12(1)
.LBB1955:
	.loc 3 195 0
	la 0,_ZTV6idCVar+8@l(11)
	.cfi_offset 65, 4
	stw 0,0(3)
.LVL106:
.LBB1954:
.LBB1953:
	.loc 3 292 0
	lis 11,_ZN6idCVar10staticVarsE@ha
	.loc 3 285 0
	stw 10,20(3)
	.loc 3 286 0
	lis 10,.LC8@ha
	.loc 3 292 0
	lwz 0,_ZN6idCVar10staticVarsE@l(11)
	.loc 3 286 0
	lwz 10,.LC8@l(10)
	.loc 3 292 0
	cmpwi 7,0,-1
	.loc 3 288 0
	stw 9,32(3)
	.loc 3 289 0
	li 9,0
.LVL107:
	.loc 3 280 0
	stw 4,4(3)
	.loc 3 289 0
	stw 9,36(3)
	.loc 3 290 0
	li 9,0
	.loc 3 281 0
	stw 5,8(3)
	.loc 3 283 0
	stw 7,12(3)
	.loc 3 284 0
	stw 6,16(3)
	.loc 3 286 0
	stw 10,24(3)
	.loc 3 287 0
	stw 8,28(3)
	.loc 3 290 0
	stw 9,40(3)
	.loc 3 291 0
	stw 3,44(3)
	.loc 3 292 0
	beq- 7,.L93
.LVL108:
	.loc 3 293 0
	stw 0,48(3)
	.loc 3 294 0
	stw 3,_ZN6idCVar10staticVarsE@l(11)
.LBE1953:
.LBE1954:
.LBE1955:
	.loc 3 197 0
	lwz 0,12(1)
	addi 1,1,8
	.cfi_remember_state
.LCFI46:
	.cfi_def_cfa_offset 0
	mtlr 0
	blr
.LVL109:
.L93:
.LCFI47:
	.cfi_restore_state
.LBB1956:
.LBB1957:
.LBB1958:
.LBB1959:
.LBB1960:
	.loc 3 296 0
	lis 9,cvarSystem@ha
	mr 4,3
.LVL110:
	lwz 11,cvarSystem@l(9)
	lwz 9,0(11)
	mr 3,11
.LVL111:
	lwz 0,20(9)
	mtctr 0
	bctrl
.LVL112:
.LBE1960:
.LBE1959:
.LBE1958:
.LBE1957:
.LBE1956:
	.loc 3 197 0
	lwz 0,12(1)
	addi 1,1,8
.LCFI48:
	.cfi_def_cfa_offset 0
	mtlr 0
	blr
	.cfi_endproc
.LFE2208:
	.size	_ZN6idCVarC2EPKcS1_iS1_PS1_PFvRK9idCmdArgsPFvS1_EE, .-_ZN6idCVarC2EPKcS1_iS1_PS1_PFvRK9idCmdArgsPFvS1_EE
	.section	".text"
	.align 2
	.type	_Z41__static_initialization_and_destruction_0ii.constprop.14, @function
_Z41__static_initialization_and_destruction_0ii.constprop.14:
.LFB3119:
	.file 5 "d:/Data/Nintendo/DoomGX/src/game/gamesys/SysCvar.cpp"
	.loc 5 333 0
	.cfi_startproc
.LVL113:
	cmpwi 7,3,1
	mflr 0
	stwu 1,-96(1)
.LCFI49:
	.cfi_def_cfa_offset 96
	.cfi_register 65, 0
	stw 0,100(1)
	stfd 28,64(1)
	stfd 29,72(1)
	stfd 30,80(1)
	stfd 31,88(1)
	stw 19,12(1)
	stw 20,16(1)
	stw 21,20(1)
	stw 22,24(1)
	stw 23,28(1)
	stw 24,32(1)
	stw 25,36(1)
	stw 26,40(1)
	stw 27,44(1)
	stw 28,48(1)
	stw 29,52(1)
	stw 30,56(1)
	stw 31,60(1)
	.loc 5 333 0
	beq- 7,.L318
	.cfi_offset 31, -36
	.cfi_offset 30, -40
	.cfi_offset 29, -44
	.cfi_offset 28, -48
	.cfi_offset 27, -52
	.cfi_offset 26, -56
	.cfi_offset 25, -60
	.cfi_offset 24, -64
	.cfi_offset 23, -68
	.cfi_offset 22, -72
	.cfi_offset 21, -76
	.cfi_offset 20, -80
	.cfi_offset 19, -84
	.cfi_offset 63, -8
	.cfi_offset 62, -16
	.cfi_offset 61, -24
	.cfi_offset 60, -32
	.cfi_offset 65, 4
	cmpwi 7,3,0
	bne- 7,.L95
.LVL114:
.LBB1961:
.LBB1962:
.LBB1963:
	.loc 3 127 0
	lis 9,.LANCHOR1@ha
	lis 11,_ZTV6idCVar+8@ha
	la 9,.LANCHOR1@l(9)
	la 0,_ZTV6idCVar+8@l(11)
	stw 0,11720(9)
.LVL115:
.LBE1963:
.LBE1962:
.LBE1961:
.LBB1964:
.LBB1965:
.LBB1966:
	stw 0,11668(9)
.LVL116:
.LBE1966:
.LBE1965:
.LBE1964:
.LBB1967:
.LBB1968:
.LBB1969:
	stw 0,11616(9)
.LVL117:
.LBE1969:
.LBE1968:
.LBE1967:
.LBB1970:
.LBB1971:
.LBB1972:
	stw 0,11564(9)
.LVL118:
.LBE1972:
.LBE1971:
.LBE1970:
.LBB1973:
.LBB1974:
.LBB1975:
	stw 0,11512(9)
.LVL119:
.LBE1975:
.LBE1974:
.LBE1973:
.LBB1976:
.LBB1977:
.LBB1978:
	stw 0,11460(9)
.LVL120:
.LBE1978:
.LBE1977:
.LBE1976:
.LBB1979:
.LBB1980:
.LBB1981:
	stw 0,11408(9)
.LVL121:
.LBE1981:
.LBE1980:
.LBE1979:
.LBB1982:
.LBB1983:
.LBB1984:
	stw 0,11356(9)
.LVL122:
.LBE1984:
.LBE1983:
.LBE1982:
.LBB1985:
.LBB1986:
.LBB1987:
	stw 0,11304(9)
.LVL123:
.LBE1987:
.LBE1986:
.LBE1985:
.LBB1988:
.LBB1989:
.LBB1990:
	stw 0,11252(9)
.LVL124:
.LBE1990:
.LBE1989:
.LBE1988:
.LBB1991:
.LBB1992:
.LBB1993:
	stw 0,11200(9)
.LVL125:
.LBE1993:
.LBE1992:
.LBE1991:
.LBB1994:
.LBB1995:
.LBB1996:
	stw 0,11148(9)
.LVL126:
.LBE1996:
.LBE1995:
.LBE1994:
.LBB1997:
.LBB1998:
.LBB1999:
	stw 0,11096(9)
.LVL127:
.LBE1999:
.LBE1998:
.LBE1997:
.LBB2000:
.LBB2001:
.LBB2002:
	stw 0,11044(9)
.LVL128:
.LBE2002:
.LBE2001:
.LBE2000:
.LBB2003:
.LBB2004:
.LBB2005:
	stw 0,10992(9)
.LVL129:
.LBE2005:
.LBE2004:
.LBE2003:
.LBB2006:
.LBB2007:
.LBB2008:
	stw 0,10940(9)
.LVL130:
.LBE2008:
.LBE2007:
.LBE2006:
.LBB2009:
.LBB2010:
.LBB2011:
	stw 0,10888(9)
.LVL131:
.LBE2011:
.LBE2010:
.LBE2009:
.LBB2012:
.LBB2013:
.LBB2014:
	stw 0,10836(9)
.LVL132:
.LBE2014:
.LBE2013:
.LBE2012:
.LBB2015:
.LBB2016:
.LBB2017:
	stw 0,10784(9)
.LVL133:
.LBE2017:
.LBE2016:
.LBE2015:
.LBB2018:
.LBB2019:
.LBB2020:
	stw 0,10732(9)
.LVL134:
.LBE2020:
.LBE2019:
.LBE2018:
.LBB2021:
.LBB2022:
.LBB2023:
	stw 0,10680(9)
.LVL135:
.LBE2023:
.LBE2022:
.LBE2021:
.LBB2024:
.LBB2025:
.LBB2026:
	stw 0,10628(9)
.LVL136:
.LBE2026:
.LBE2025:
.LBE2024:
.LBB2027:
.LBB2028:
.LBB2029:
	stw 0,10576(9)
.LVL137:
.LBE2029:
.LBE2028:
.LBE2027:
.LBB2030:
.LBB2031:
.LBB2032:
	stw 0,10524(9)
.LVL138:
.LBE2032:
.LBE2031:
.LBE2030:
.LBB2033:
.LBB2034:
.LBB2035:
	stw 0,10472(9)
.LVL139:
.LBE2035:
.LBE2034:
.LBE2033:
.LBB2036:
.LBB2037:
.LBB2038:
	stw 0,10420(9)
.LVL140:
.LBE2038:
.LBE2037:
.LBE2036:
.LBB2039:
.LBB2040:
.LBB2041:
	stw 0,10368(9)
.LVL141:
.LBE2041:
.LBE2040:
.LBE2039:
.LBB2042:
.LBB2043:
.LBB2044:
	stw 0,10316(9)
.LVL142:
.LBE2044:
.LBE2043:
.LBE2042:
.LBB2045:
.LBB2046:
.LBB2047:
	stw 0,10264(9)
.LVL143:
.LBE2047:
.LBE2046:
.LBE2045:
.LBB2048:
.LBB2049:
.LBB2050:
	stw 0,10212(9)
.LVL144:
.LBE2050:
.LBE2049:
.LBE2048:
.LBB2051:
.LBB2052:
.LBB2053:
	stw 0,10160(9)
.LVL145:
.LBE2053:
.LBE2052:
.LBE2051:
.LBB2054:
.LBB2055:
.LBB2056:
	stw 0,10108(9)
.LVL146:
.LBE2056:
.LBE2055:
.LBE2054:
.LBB2057:
.LBB2058:
.LBB2059:
	stw 0,10056(9)
.LVL147:
.LBE2059:
.LBE2058:
.LBE2057:
.LBB2060:
.LBB2061:
.LBB2062:
	stw 0,10004(9)
.LVL148:
.LBE2062:
.LBE2061:
.LBE2060:
.LBB2063:
.LBB2064:
.LBB2065:
	stw 0,9952(9)
.LVL149:
.LBE2065:
.LBE2064:
.LBE2063:
.LBB2066:
.LBB2067:
.LBB2068:
	stw 0,9900(9)
.LVL150:
.LBE2068:
.LBE2067:
.LBE2066:
.LBB2069:
.LBB2070:
.LBB2071:
	stw 0,9848(9)
.LVL151:
.LBE2071:
.LBE2070:
.LBE2069:
.LBB2072:
.LBB2073:
.LBB2074:
	stw 0,9796(9)
.LVL152:
.LBE2074:
.LBE2073:
.LBE2072:
.LBB2075:
.LBB2076:
.LBB2077:
	stw 0,9744(9)
.LVL153:
.LBE2077:
.LBE2076:
.LBE2075:
.LBB2078:
.LBB2079:
.LBB2080:
	stw 0,9692(9)
.LVL154:
.LBE2080:
.LBE2079:
.LBE2078:
.LBB2081:
.LBB2082:
.LBB2083:
	stw 0,9640(9)
.LVL155:
.LBE2083:
.LBE2082:
.LBE2081:
.LBB2084:
.LBB2085:
.LBB2086:
	stw 0,9588(9)
.LVL156:
.LBE2086:
.LBE2085:
.LBE2084:
.LBB2087:
.LBB2088:
.LBB2089:
	stw 0,9536(9)
.LVL157:
.LBE2089:
.LBE2088:
.LBE2087:
.LBB2090:
.LBB2091:
.LBB2092:
	stw 0,9484(9)
.LVL158:
.LBE2092:
.LBE2091:
.LBE2090:
.LBB2093:
.LBB2094:
.LBB2095:
	stw 0,9432(9)
.LVL159:
.LBE2095:
.LBE2094:
.LBE2093:
.LBB2096:
.LBB2097:
.LBB2098:
	stw 0,9380(9)
.LVL160:
.LBE2098:
.LBE2097:
.LBE2096:
.LBB2099:
.LBB2100:
.LBB2101:
	stw 0,9328(9)
.LVL161:
.LBE2101:
.LBE2100:
.LBE2099:
.LBB2102:
.LBB2103:
.LBB2104:
	stw 0,9276(9)
.LVL162:
.LBE2104:
.LBE2103:
.LBE2102:
.LBB2105:
.LBB2106:
.LBB2107:
	stw 0,9224(9)
.LVL163:
.LBE2107:
.LBE2106:
.LBE2105:
.LBB2108:
.LBB2109:
.LBB2110:
	stw 0,9172(9)
.LVL164:
.LBE2110:
.LBE2109:
.LBE2108:
.LBB2111:
.LBB2112:
.LBB2113:
	stw 0,9120(9)
.LVL165:
.LBE2113:
.LBE2112:
.LBE2111:
.LBB2114:
.LBB2115:
.LBB2116:
	stw 0,9068(9)
.LVL166:
.LBE2116:
.LBE2115:
.LBE2114:
.LBB2117:
.LBB2118:
.LBB2119:
	stw 0,9016(9)
.LVL167:
.LBE2119:
.LBE2118:
.LBE2117:
.LBB2120:
.LBB2121:
.LBB2122:
	stw 0,8964(9)
.LVL168:
.LBE2122:
.LBE2121:
.LBE2120:
.LBB2123:
.LBB2124:
.LBB2125:
	stw 0,8912(9)
.LVL169:
.LBE2125:
.LBE2124:
.LBE2123:
.LBB2126:
.LBB2127:
.LBB2128:
	stw 0,8860(9)
.LVL170:
.LBE2128:
.LBE2127:
.LBE2126:
.LBB2129:
.LBB2130:
.LBB2131:
	stw 0,8808(9)
.LVL171:
.LBE2131:
.LBE2130:
.LBE2129:
.LBB2132:
.LBB2133:
.LBB2134:
	stw 0,8756(9)
.LVL172:
.LBE2134:
.LBE2133:
.LBE2132:
.LBB2135:
.LBB2136:
.LBB2137:
	stw 0,8704(9)
.LVL173:
.LBE2137:
.LBE2136:
.LBE2135:
.LBB2138:
.LBB2139:
.LBB2140:
	stw 0,8652(9)
.LVL174:
.LBE2140:
.LBE2139:
.LBE2138:
.LBB2141:
.LBB2142:
.LBB2143:
	stw 0,8600(9)
.LVL175:
.LBE2143:
.LBE2142:
.LBE2141:
.LBB2144:
.LBB2145:
.LBB2146:
	stw 0,8548(9)
.LVL176:
.LBE2146:
.LBE2145:
.LBE2144:
.LBB2147:
.LBB2148:
.LBB2149:
	stw 0,8496(9)
.LVL177:
.LBE2149:
.LBE2148:
.LBE2147:
.LBB2150:
.LBB2151:
.LBB2152:
	stw 0,8444(9)
.LVL178:
.LBE2152:
.LBE2151:
.LBE2150:
.LBB2153:
.LBB2154:
.LBB2155:
	stw 0,8392(9)
.LVL179:
.LBE2155:
.LBE2154:
.LBE2153:
.LBB2156:
.LBB2157:
.LBB2158:
	stw 0,8340(9)
.LVL180:
.LBE2158:
.LBE2157:
.LBE2156:
.LBB2159:
.LBB2160:
.LBB2161:
	stw 0,8288(9)
.LVL181:
.LBE2161:
.LBE2160:
.LBE2159:
.LBB2162:
.LBB2163:
.LBB2164:
	stw 0,8236(9)
.LVL182:
.LBE2164:
.LBE2163:
.LBE2162:
.LBB2165:
.LBB2166:
.LBB2167:
	stw 0,8184(9)
.LVL183:
.LBE2167:
.LBE2166:
.LBE2165:
.LBB2168:
.LBB2169:
.LBB2170:
	stw 0,8132(9)
.LVL184:
.LBE2170:
.LBE2169:
.LBE2168:
.LBB2171:
.LBB2172:
.LBB2173:
	stw 0,8080(9)
.LVL185:
.LBE2173:
.LBE2172:
.LBE2171:
.LBB2174:
.LBB2175:
.LBB2176:
	stw 0,8028(9)
.LVL186:
.LBE2176:
.LBE2175:
.LBE2174:
.LBB2177:
.LBB2178:
.LBB2179:
	stw 0,7976(9)
.LVL187:
.LBE2179:
.LBE2178:
.LBE2177:
.LBB2180:
.LBB2181:
.LBB2182:
	stw 0,7924(9)
.LVL188:
.LBE2182:
.LBE2181:
.LBE2180:
.LBB2183:
.LBB2184:
.LBB2185:
	stw 0,7872(9)
.LVL189:
.LBE2185:
.LBE2184:
.LBE2183:
.LBB2186:
.LBB2187:
.LBB2188:
	stw 0,7820(9)
.LVL190:
.LBE2188:
.LBE2187:
.LBE2186:
.LBB2189:
.LBB2190:
.LBB2191:
	stw 0,7768(9)
.LVL191:
.LBE2191:
.LBE2190:
.LBE2189:
.LBB2192:
.LBB2193:
.LBB2194:
	stw 0,7716(9)
.LVL192:
.LBE2194:
.LBE2193:
.LBE2192:
.LBB2195:
.LBB2196:
.LBB2197:
	stw 0,7664(9)
.LVL193:
.LBE2197:
.LBE2196:
.LBE2195:
.LBB2198:
.LBB2199:
.LBB2200:
	stw 0,7612(9)
.LVL194:
.LBE2200:
.LBE2199:
.LBE2198:
.LBB2201:
.LBB2202:
.LBB2203:
	stw 0,7560(9)
.LVL195:
.LBE2203:
.LBE2202:
.LBE2201:
.LBB2204:
.LBB2205:
.LBB2206:
	stw 0,7508(9)
.LVL196:
.LBE2206:
.LBE2205:
.LBE2204:
.LBB2207:
.LBB2208:
.LBB2209:
	stw 0,7456(9)
.LVL197:
.LBE2209:
.LBE2208:
.LBE2207:
.LBB2210:
.LBB2211:
.LBB2212:
	stw 0,7404(9)
.LVL198:
.LBE2212:
.LBE2211:
.LBE2210:
.LBB2213:
.LBB2214:
.LBB2215:
	stw 0,7352(9)
.LVL199:
.LBE2215:
.LBE2214:
.LBE2213:
.LBB2216:
.LBB2217:
.LBB2218:
	stw 0,7300(9)
.LVL200:
.LBE2218:
.LBE2217:
.LBE2216:
.LBB2219:
.LBB2220:
.LBB2221:
	stw 0,7248(9)
.LVL201:
.LBE2221:
.LBE2220:
.LBE2219:
.LBB2222:
.LBB2223:
.LBB2224:
	stw 0,7196(9)
.LVL202:
.LBE2224:
.LBE2223:
.LBE2222:
.LBB2225:
.LBB2226:
.LBB2227:
	stw 0,7144(9)
.LVL203:
.LBE2227:
.LBE2226:
.LBE2225:
.LBB2228:
.LBB2229:
.LBB2230:
	stw 0,7092(9)
.LVL204:
.LBE2230:
.LBE2229:
.LBE2228:
.LBB2231:
.LBB2232:
.LBB2233:
	stw 0,7040(9)
.LVL205:
.LBE2233:
.LBE2232:
.LBE2231:
.LBB2234:
.LBB2235:
.LBB2236:
	stw 0,6988(9)
.LVL206:
.LBE2236:
.LBE2235:
.LBE2234:
.LBB2237:
.LBB2238:
.LBB2239:
	stw 0,6936(9)
.LVL207:
.LBE2239:
.LBE2238:
.LBE2237:
.LBB2240:
.LBB2241:
.LBB2242:
	stw 0,6884(9)
.LVL208:
.LBE2242:
.LBE2241:
.LBE2240:
.LBB2243:
.LBB2244:
.LBB2245:
	stw 0,6832(9)
.LVL209:
.LBE2245:
.LBE2244:
.LBE2243:
.LBB2246:
.LBB2247:
.LBB2248:
	stw 0,6780(9)
.LVL210:
.LBE2248:
.LBE2247:
.LBE2246:
.LBB2249:
.LBB2250:
.LBB2251:
	stw 0,6728(9)
.LVL211:
.LBE2251:
.LBE2250:
.LBE2249:
.LBB2252:
.LBB2253:
.LBB2254:
	stw 0,6676(9)
.LVL212:
.LBE2254:
.LBE2253:
.LBE2252:
.LBB2255:
.LBB2256:
.LBB2257:
	stw 0,6624(9)
.LVL213:
.LBE2257:
.LBE2256:
.LBE2255:
.LBB2258:
.LBB2259:
.LBB2260:
	stw 0,6572(9)
.LVL214:
.LBE2260:
.LBE2259:
.LBE2258:
.LBB2261:
.LBB2262:
.LBB2263:
	stw 0,6520(9)
.LVL215:
.LBE2263:
.LBE2262:
.LBE2261:
.LBB2264:
.LBB2265:
.LBB2266:
	stw 0,6468(9)
.LVL216:
.LBE2266:
.LBE2265:
.LBE2264:
.LBB2267:
.LBB2268:
.LBB2269:
	stw 0,6416(9)
.LVL217:
.LBE2269:
.LBE2268:
.LBE2267:
.LBB2270:
.LBB2271:
.LBB2272:
	stw 0,6364(9)
.LVL218:
.LBE2272:
.LBE2271:
.LBE2270:
.LBB2273:
.LBB2274:
.LBB2275:
	stw 0,6312(9)
.LVL219:
.LBE2275:
.LBE2274:
.LBE2273:
.LBB2276:
.LBB2277:
.LBB2278:
	stw 0,6260(9)
.LVL220:
.LBE2278:
.LBE2277:
.LBE2276:
.LBB2279:
.LBB2280:
.LBB2281:
	stw 0,6208(9)
.LVL221:
.LBE2281:
.LBE2280:
.LBE2279:
.LBB2282:
.LBB2283:
.LBB2284:
	stw 0,6156(9)
.LVL222:
.LBE2284:
.LBE2283:
.LBE2282:
.LBB2285:
.LBB2286:
.LBB2287:
	stw 0,6104(9)
.LVL223:
.LBE2287:
.LBE2286:
.LBE2285:
.LBB2288:
.LBB2289:
.LBB2290:
	stw 0,6052(9)
.LVL224:
.LBE2290:
.LBE2289:
.LBE2288:
.LBB2291:
.LBB2292:
.LBB2293:
	stw 0,6000(9)
.LVL225:
.LBE2293:
.LBE2292:
.LBE2291:
.LBB2294:
.LBB2295:
.LBB2296:
	stw 0,5948(9)
.LVL226:
.LBE2296:
.LBE2295:
.LBE2294:
.LBB2297:
.LBB2298:
.LBB2299:
	stw 0,5896(9)
.LVL227:
.LBE2299:
.LBE2298:
.LBE2297:
.LBB2300:
.LBB2301:
.LBB2302:
	stw 0,5844(9)
.LVL228:
.LBE2302:
.LBE2301:
.LBE2300:
.LBB2303:
.LBB2304:
.LBB2305:
	stw 0,5792(9)
.LVL229:
.LBE2305:
.LBE2304:
.LBE2303:
.LBB2306:
.LBB2307:
.LBB2308:
	stw 0,5740(9)
.LVL230:
.LBE2308:
.LBE2307:
.LBE2306:
.LBB2309:
.LBB2310:
.LBB2311:
	stw 0,5688(9)
.LVL231:
.LBE2311:
.LBE2310:
.LBE2309:
.LBB2312:
.LBB2313:
.LBB2314:
	stw 0,5636(9)
.LVL232:
.LBE2314:
.LBE2313:
.LBE2312:
.LBB2315:
.LBB2316:
.LBB2317:
	stw 0,5584(9)
.LVL233:
.LBE2317:
.LBE2316:
.LBE2315:
.LBB2318:
.LBB2319:
.LBB2320:
	stw 0,5532(9)
.LVL234:
.LBE2320:
.LBE2319:
.LBE2318:
.LBB2321:
.LBB2322:
.LBB2323:
	stw 0,5480(9)
.LVL235:
.LBE2323:
.LBE2322:
.LBE2321:
.LBB2324:
.LBB2325:
.LBB2326:
	stw 0,5428(9)
.LVL236:
.LBE2326:
.LBE2325:
.LBE2324:
.LBB2327:
.LBB2328:
.LBB2329:
	stw 0,5376(9)
.LVL237:
.LBE2329:
.LBE2328:
.LBE2327:
.LBB2330:
.LBB2331:
.LBB2332:
	stw 0,5324(9)
.LVL238:
.LBE2332:
.LBE2331:
.LBE2330:
.LBB2333:
.LBB2334:
.LBB2335:
	stw 0,5272(9)
.LVL239:
.LBE2335:
.LBE2334:
.LBE2333:
.LBB2336:
.LBB2337:
.LBB2338:
	stw 0,5220(9)
.LVL240:
.LBE2338:
.LBE2337:
.LBE2336:
.LBB2339:
.LBB2340:
.LBB2341:
	stw 0,5168(9)
.LVL241:
.LBE2341:
.LBE2340:
.LBE2339:
.LBB2342:
.LBB2343:
.LBB2344:
	stw 0,5116(9)
.LVL242:
.LBE2344:
.LBE2343:
.LBE2342:
.LBB2345:
.LBB2346:
.LBB2347:
	stw 0,5064(9)
.LVL243:
.LBE2347:
.LBE2346:
.LBE2345:
.LBB2348:
.LBB2349:
.LBB2350:
	stw 0,5012(9)
.LVL244:
.LBE2350:
.LBE2349:
.LBE2348:
.LBB2351:
.LBB2352:
.LBB2353:
	stw 0,4960(9)
.LVL245:
.LBE2353:
.LBE2352:
.LBE2351:
.LBB2354:
.LBB2355:
.LBB2356:
	stw 0,4908(9)
.LVL246:
.LBE2356:
.LBE2355:
.LBE2354:
.LBB2357:
.LBB2358:
.LBB2359:
	stw 0,4856(9)
.LVL247:
.LBE2359:
.LBE2358:
.LBE2357:
.LBB2360:
.LBB2361:
.LBB2362:
	stw 0,4804(9)
.LVL248:
.LBE2362:
.LBE2361:
.LBE2360:
.LBB2363:
.LBB2364:
.LBB2365:
	stw 0,4752(9)
.LVL249:
.LBE2365:
.LBE2364:
.LBE2363:
.LBB2366:
.LBB2367:
.LBB2368:
	stw 0,4700(9)
.LVL250:
.LBE2368:
.LBE2367:
.LBE2366:
.LBB2369:
.LBB2370:
.LBB2371:
	stw 0,4648(9)
.LVL251:
.LBE2371:
.LBE2370:
.LBE2369:
.LBB2372:
.LBB2373:
.LBB2374:
	stw 0,4596(9)
.LVL252:
.LBE2374:
.LBE2373:
.LBE2372:
.LBB2375:
.LBB2376:
.LBB2377:
	stw 0,4544(9)
.LVL253:
.LBE2377:
.LBE2376:
.LBE2375:
.LBB2378:
.LBB2379:
.LBB2380:
	stw 0,4492(9)
.LVL254:
.LBE2380:
.LBE2379:
.LBE2378:
.LBB2381:
.LBB2382:
.LBB2383:
	stw 0,4440(9)
.LVL255:
.LBE2383:
.LBE2382:
.LBE2381:
.LBB2384:
.LBB2385:
.LBB2386:
	stw 0,4388(9)
.LVL256:
.LBE2386:
.LBE2385:
.LBE2384:
.LBB2387:
.LBB2388:
.LBB2389:
	stw 0,4336(9)
.LVL257:
.LBE2389:
.LBE2388:
.LBE2387:
.LBB2390:
.LBB2391:
.LBB2392:
	stw 0,4284(9)
.LVL258:
.LBE2392:
.LBE2391:
.LBE2390:
.LBB2393:
.LBB2394:
.LBB2395:
	stw 0,4232(9)
.LVL259:
.LBE2395:
.LBE2394:
.LBE2393:
.LBB2396:
.LBB2397:
.LBB2398:
	stw 0,4180(9)
.LVL260:
.LBE2398:
.LBE2397:
.LBE2396:
.LBB2399:
.LBB2400:
.LBB2401:
	stw 0,4128(9)
.LVL261:
.LBE2401:
.LBE2400:
.LBE2399:
.LBB2402:
.LBB2403:
.LBB2404:
	stw 0,4076(9)
.LVL262:
.LBE2404:
.LBE2403:
.LBE2402:
.LBB2405:
.LBB2406:
.LBB2407:
	stw 0,4024(9)
.LVL263:
.LBE2407:
.LBE2406:
.LBE2405:
.LBB2408:
.LBB2409:
.LBB2410:
	stw 0,3972(9)
.LVL264:
.LBE2410:
.LBE2409:
.LBE2408:
.LBB2411:
.LBB2412:
.LBB2413:
	stw 0,3920(9)
.LVL265:
.LBE2413:
.LBE2412:
.LBE2411:
.LBB2414:
.LBB2415:
.LBB2416:
	stw 0,3868(9)
.LVL266:
.LBE2416:
.LBE2415:
.LBE2414:
.LBB2417:
.LBB2418:
.LBB2419:
	stw 0,3816(9)
.LVL267:
.LBE2419:
.LBE2418:
.LBE2417:
.LBB2420:
.LBB2421:
.LBB2422:
	stw 0,3764(9)
.LVL268:
.LBE2422:
.LBE2421:
.LBE2420:
.LBB2423:
.LBB2424:
.LBB2425:
	stw 0,3712(9)
.LVL269:
.LBE2425:
.LBE2424:
.LBE2423:
.LBB2426:
.LBB2427:
.LBB2428:
	stw 0,3660(9)
.LVL270:
.LBE2428:
.LBE2427:
.LBE2426:
.LBB2429:
.LBB2430:
.LBB2431:
	stw 0,3608(9)
.LVL271:
.LBE2431:
.LBE2430:
.LBE2429:
.LBB2432:
.LBB2433:
.LBB2434:
	stw 0,3556(9)
.LVL272:
.LBE2434:
.LBE2433:
.LBE2432:
.LBB2435:
.LBB2436:
.LBB2437:
	stw 0,3504(9)
.LVL273:
.LBE2437:
.LBE2436:
.LBE2435:
.LBB2438:
.LBB2439:
.LBB2440:
	stw 0,3452(9)
.LVL274:
.LBE2440:
.LBE2439:
.LBE2438:
.LBB2441:
.LBB2442:
.LBB2443:
	stw 0,3400(9)
.LVL275:
.LBE2443:
.LBE2442:
.LBE2441:
.LBB2444:
.LBB2445:
.LBB2446:
	stw 0,3348(9)
.LVL276:
.LBE2446:
.LBE2445:
.LBE2444:
.LBB2447:
.LBB2448:
.LBB2449:
	stw 0,3296(9)
.LVL277:
.LBE2449:
.LBE2448:
.LBE2447:
.LBB2450:
.LBB2451:
.LBB2452:
	stw 0,3244(9)
.LVL278:
.LBE2452:
.LBE2451:
.LBE2450:
.LBB2453:
.LBB2454:
.LBB2455:
	stw 0,3192(9)
.LVL279:
.LBE2455:
.LBE2454:
.LBE2453:
.LBB2456:
.LBB2457:
.LBB2458:
	stw 0,3140(9)
.LVL280:
.LBE2458:
.LBE2457:
.LBE2456:
.LBB2459:
.LBB2460:
.LBB2461:
	stw 0,3088(9)
.LVL281:
.LBE2461:
.LBE2460:
.LBE2459:
.LBB2462:
.LBB2463:
.LBB2464:
	stw 0,3036(9)
.LVL282:
.LBE2464:
.LBE2463:
.LBE2462:
.LBB2465:
.LBB2466:
.LBB2467:
	stw 0,2984(9)
.LVL283:
.LBE2467:
.LBE2466:
.LBE2465:
.LBB2468:
.LBB2469:
.LBB2470:
	stw 0,2932(9)
.LVL284:
.LBE2470:
.LBE2469:
.LBE2468:
.LBB2471:
.LBB2472:
.LBB2473:
	stw 0,2880(9)
.LVL285:
.LBE2473:
.LBE2472:
.LBE2471:
.LBB2474:
.LBB2475:
.LBB2476:
	stw 0,2828(9)
.LVL286:
.LBE2476:
.LBE2475:
.LBE2474:
.LBB2477:
.LBB2478:
.LBB2479:
	stw 0,2776(9)
.LVL287:
.LBE2479:
.LBE2478:
.LBE2477:
.LBB2480:
.LBB2481:
.LBB2482:
	stw 0,2724(9)
.LVL288:
.LBE2482:
.LBE2481:
.LBE2480:
.LBB2483:
.LBB2484:
.LBB2485:
	stw 0,2672(9)
.LVL289:
.LBE2485:
.LBE2484:
.LBE2483:
.LBB2486:
.LBB2487:
.LBB2488:
	stw 0,2620(9)
.LVL290:
.LBE2488:
.LBE2487:
.LBE2486:
.LBB2489:
.LBB2490:
.LBB2491:
	stw 0,2568(9)
.LVL291:
.LBE2491:
.LBE2490:
.LBE2489:
.LBB2492:
.LBB2493:
.LBB2494:
	stw 0,2516(9)
.LVL292:
.LBE2494:
.LBE2493:
.LBE2492:
.LBB2495:
.LBB2496:
.LBB2497:
	stw 0,2464(9)
.LVL293:
.LBE2497:
.LBE2496:
.LBE2495:
.LBB2498:
.LBB2499:
.LBB2500:
	stw 0,2412(9)
.LVL294:
.LBE2500:
.LBE2499:
.LBE2498:
.LBB2501:
.LBB2502:
.LBB2503:
	stw 0,2360(9)
.LVL295:
.LBE2503:
.LBE2502:
.LBE2501:
.LBB2504:
.LBB2505:
.LBB2506:
	stw 0,2308(9)
.LVL296:
.LBE2506:
.LBE2505:
.LBE2504:
.LBB2507:
.LBB2508:
.LBB2509:
	stw 0,2256(9)
.LVL297:
.LBE2509:
.LBE2508:
.LBE2507:
.LBB2510:
.LBB2511:
.LBB2512:
	stw 0,2204(9)
.LVL298:
.LBE2512:
.LBE2511:
.LBE2510:
.LBB2513:
.LBB2514:
.LBB2515:
	stw 0,2152(9)
.LVL299:
.LBE2515:
.LBE2514:
.LBE2513:
.LBB2516:
.LBB2517:
.LBB2518:
	stw 0,2100(9)
.LVL300:
.LBE2518:
.LBE2517:
.LBE2516:
.LBB2519:
.LBB2520:
.LBB2521:
	stw 0,2048(9)
.LVL301:
.LBE2521:
.LBE2520:
.LBE2519:
.LBB2522:
.LBB2523:
.LBB2524:
	stw 0,1996(9)
.LVL302:
.LBE2524:
.LBE2523:
.LBE2522:
.LBB2525:
.LBB2526:
.LBB2527:
	stw 0,1944(9)
.LVL303:
.LBE2527:
.LBE2526:
.LBE2525:
.LBB2528:
.LBB2529:
.LBB2530:
	stw 0,1892(9)
.LVL304:
.LBE2530:
.LBE2529:
.LBE2528:
.LBB2531:
.LBB2532:
.LBB2533:
	stw 0,1840(9)
.LVL305:
.LBE2533:
.LBE2532:
.LBE2531:
.LBB2534:
.LBB2535:
.LBB2536:
	stw 0,1788(9)
.LVL306:
.LBE2536:
.LBE2535:
.LBE2534:
.LBB2537:
.LBB2538:
.LBB2539:
	stw 0,1736(9)
.LVL307:
.LBE2539:
.LBE2538:
.LBE2537:
.LBB2540:
.LBB2541:
.LBB2542:
	stw 0,1684(9)
.LVL308:
.LBE2542:
.LBE2541:
.LBE2540:
.LBB2543:
.LBB2544:
.LBB2545:
	stw 0,1632(9)
.LVL309:
.LBE2545:
.LBE2544:
.LBE2543:
.LBB2546:
.LBB2547:
.LBB2548:
	stw 0,1580(9)
.LVL310:
.LBE2548:
.LBE2547:
.LBE2546:
.LBB2549:
.LBB2550:
.LBB2551:
	stw 0,1528(9)
.LVL311:
.LBE2551:
.LBE2550:
.LBE2549:
.LBB2552:
.LBB2553:
.LBB2554:
	stw 0,1476(9)
.LVL312:
.LBE2554:
.LBE2553:
.LBE2552:
.LBB2555:
.LBB2556:
.LBB2557:
	stw 0,1424(9)
.LVL313:
.LBE2557:
.LBE2556:
.LBE2555:
.LBB2558:
.LBB2559:
.LBB2560:
	stw 0,1372(9)
.LVL314:
.LBE2560:
.LBE2559:
.LBE2558:
.LBB2561:
.LBB2562:
.LBB2563:
	stw 0,1320(9)
.LVL315:
.LBE2563:
.LBE2562:
.LBE2561:
.LBB2564:
.LBB2565:
.LBB2566:
	stw 0,1268(9)
.LVL316:
.LBE2566:
.LBE2565:
.LBE2564:
.LBB2567:
.LBB2568:
.LBB2569:
	stw 0,1216(9)
.LVL317:
.LBE2569:
.LBE2568:
.LBE2567:
.LBB2570:
.LBB2571:
.LBB2572:
	stw 0,1164(9)
.LVL318:
.LBE2572:
.LBE2571:
.LBE2570:
.LBB2573:
.LBB2574:
.LBB2575:
	stw 0,1112(9)
.LVL319:
.LBE2575:
.LBE2574:
.LBE2573:
.LBB2576:
.LBB2577:
.LBB2578:
	stw 0,1060(9)
.LVL320:
.LBE2578:
.LBE2577:
.LBE2576:
.LBB2579:
.LBB2580:
.LBB2581:
	stw 0,1008(9)
.LVL321:
.LBE2581:
.LBE2580:
.LBE2579:
.LBB2582:
.LBB2583:
.LBB2584:
	stw 0,956(9)
.LVL322:
.LBE2584:
.LBE2583:
.LBE2582:
.LBB2585:
.LBB2586:
.LBB2587:
	stw 0,904(9)
.LVL323:
.LBE2587:
.LBE2586:
.LBE2585:
.LBB2588:
.LBB2589:
.LBB2590:
	stw 0,852(9)
.LVL324:
.LBE2590:
.LBE2589:
.LBE2588:
.LBB2591:
.LBB2592:
.LBB2593:
	stw 0,800(9)
.LVL325:
.LBE2593:
.LBE2592:
.LBE2591:
.LBB2594:
.LBB2595:
.LBB2596:
	stw 0,748(9)
.LVL326:
.LBE2596:
.LBE2595:
.LBE2594:
.LBB2597:
.LBB2598:
.LBB2599:
	stw 0,696(9)
.LVL327:
.LBE2599:
.LBE2598:
.LBE2597:
.LBB2600:
.LBB2601:
.LBB2602:
	stw 0,644(9)
.LVL328:
.LBE2602:
.LBE2601:
.LBE2600:
.LBB2603:
.LBB2604:
.LBB2605:
	stw 0,592(9)
.LVL329:
.LBE2605:
.LBE2604:
.LBE2603:
.LBB2606:
.LBB2607:
.LBB2608:
	stw 0,540(9)
.LVL330:
.LBE2608:
.LBE2607:
.LBE2606:
.LBB2609:
.LBB2610:
.LBB2611:
	stw 0,488(9)
.LVL331:
.LBE2611:
.LBE2610:
.LBE2609:
.LBB2612:
.LBB2613:
.LBB2614:
	stw 0,436(9)
.LVL332:
.LBE2614:
.LBE2613:
.LBE2612:
.LBB2615:
.LBB2616:
.LBB2617:
	stw 0,384(9)
.LVL333:
.LBE2617:
.LBE2616:
.LBE2615:
.LBB2618:
.LBB2619:
.LBB2620:
	stw 0,332(9)
.LVL334:
.LBE2620:
.LBE2619:
.LBE2618:
.LBB2621:
.LBB2622:
.LBB2623:
	stw 0,280(9)
.LVL335:
.L95:
.LBE2623:
.LBE2622:
.LBE2621:
	.loc 5 333 0
	lwz 0,100(1)
	lwz 19,12(1)
	mtlr 0
	lwz 20,16(1)
	lwz 21,20(1)
	lwz 22,24(1)
	lwz 23,28(1)
	lwz 24,32(1)
	lwz 25,36(1)
	lwz 26,40(1)
	lwz 27,44(1)
	lwz 28,48(1)
	lwz 29,52(1)
	lwz 30,56(1)
	lwz 31,60(1)
	lfd 28,64(1)
	lfd 29,72(1)
	lfd 30,80(1)
	lfd 31,88(1)
	addi 1,1,96
	.cfi_remember_state
.LCFI50:
	.cfi_def_cfa_offset 0
	.cfi_restore 63
	.cfi_restore 62
	.cfi_restore 61
	.cfi_restore 60
	.cfi_restore 31
	.cfi_restore 30
	.cfi_restore 29
	.cfi_restore 28
	.cfi_restore 27
	.cfi_restore 26
	.cfi_restore 25
	.cfi_restore 24
	.cfi_restore 23
	.cfi_restore 22
	.cfi_restore 21
	.cfi_restore 20
	.cfi_restore 19
	blr
.LVL336:
.L318:
.LCFI51:
	.cfi_restore_state
	.file 6 "d:/Data/Nintendo/DoomGX/src/game/gamesys/../Game_local.h"
	.loc 6 694 0
	lis 9,_ZN6idMath8M_SEC2MSE@ha
	.loc 6 121 0
	lis 11,.LANCHOR1@ha
	.loc 6 694 0
	lfs 0,_ZN6idMath8M_SEC2MSE@l(9)
	.loc 6 121 0
	li 0,3
	la 31,.LANCHOR1@l(11)
	stw 0,.LANCHOR1@l(11)
.LVL337:
	.loc 6 694 0
	fadds 0,0,0
.LBB2624:
.LBB2625:
	.file 7 "d:/Data/Nintendo/DoomGX/src/game/gamesys/../../idlib/../idlib/math/Vector.h"
	.loc 7 398 0
	lis 11,.LC9@ha
	lwz 0,.LC9@l(11)
	.loc 7 396 0
	lis 9,.LC446@ha
	lfs 31,.LC446@l(9)
.LBE2625:
.LBE2624:
.LBB2629:
.LBB2630:
	.file 8 "d:/Data/Nintendo/DoomGX/src/game/gamesys/../../idlib/../idlib/math/Math.h"
	.loc 8 825 0
	addi 12,31,16
	fctiwz 0,0
.LBE2630:
.LBE2629:
.LBB2632:
.LBB2626:
	.loc 7 398 0
	stw 0,12(31)
.LVL338:
.LBE2626:
.LBE2632:
.LBB2633:
.LBB2634:
	.loc 5 54 0
	lis 30,.LC14@ha
.LBE2634:
.LBE2633:
	.file 9 "d:/Data/Nintendo/DoomGX/src/game/gamesys/../Player.h"
	.loc 9 69 0
	li 0,10
	stw 0,20(31)
.LBB2640:
.LBB2635:
	.loc 5 54 0
	addi 29,31,24
.LBE2635:
.LBE2640:
.LBB2641:
.LBB2631:
	.loc 8 825 0
	stfiwx 0,0,12
.LVL339:
.LBE2631:
.LBE2641:
.LBB2642:
.LBB2636:
	.loc 5 54 0
	la 30,.LC14@l(30)
.LBE2636:
.LBE2642:
.LBB2643:
.LBB2627:
	.loc 7 396 0
	stfs 31,4(31)
.LBE2627:
.LBE2643:
.LBB2644:
.LBB2637:
	.loc 5 54 0
	lis 10,.LC15@ha
.LBE2637:
.LBE2644:
.LBB2645:
.LBB2628:
	.loc 7 397 0
	stfs 31,8(31)
.LBE2628:
.LBE2645:
.LBB2646:
.LBB2638:
	.loc 5 54 0
	lis 4,.LC10@ha
	lis 5,.LC11@ha
	lis 7,.LC12@ha
	lis 8,.LC13@ha
	la 10,.LC15@l(10)
	mr 9,30
	la 4,.LC10@l(4)
	la 5,.LC11@l(5)
	la 7,.LC12@l(7)
	la 8,.LC13@l(8)
	mr 3,29
.LVL340:
	li 6,1304
.LBE2638:
.LBE2646:
	.loc 5 66 0
	lis 25,.LANCHOR0@ha
.LBB2647:
.LBB2639:
	.loc 5 54 0
	crxor 6,6,6
	bl sprintf
.LBE2639:
.LBE2647:
	.loc 5 58 0
	lis 4,.LC16@ha
	lis 6,0x1
	lis 7,.LC17@ha
	addi 3,31,280
	mr 5,29
	la 4,.LC16@l(4)
	ori 6,6,128
	la 7,.LC17@l(7)
	li 8,0
	.loc 5 61 0
	lis 29,.LC2@ha
	.loc 5 58 0
	bl _ZN6idCVarC1EPKcS1_iS1_PFvRK9idCmdArgsPFvS1_EE
	.loc 5 61 0
	la 29,.LC2@l(29)
	lis 4,.LC18@ha
	lis 5,.LC19@ha
	lis 6,0x1
	addi 3,31,332
	mr 7,29
	la 4,.LC18@l(4)
	la 5,.LC19@l(5)
	ori 6,6,1152
	li 8,0
	bl _ZN6idCVarC1EPKcS1_iS1_PFvRK9idCmdArgsPFvS1_EE
	.loc 5 62 0
	lis 4,.LC20@ha
	lis 6,0x1
	addi 3,31,384
	mr 5,30
	mr 7,29
	la 4,.LC20@l(4)
	ori 6,6,128
	li 8,0
	.loc 5 66 0
	la 26,.LANCHOR0@l(25)
	.loc 5 62 0
	bl _ZN6idCVarC1EPKcS1_iS1_PFvRK9idCmdArgsPFvS1_EE
	.loc 5 65 0
	lis 4,.LC21@ha
	lis 5,.LC22@ha
	lis 6,0x2
	lis 7,.LC23@ha
	addi 3,31,436
	la 4,.LC21@l(4)
	la 5,.LC22@l(5)
	ori 6,6,1152
	la 7,.LC23@l(7)
	li 8,0
	.loc 5 69 0
	lis 27,.LC34@ha
	.loc 5 65 0
	bl _ZN6idCVarC1EPKcS1_iS1_PFvRK9idCmdArgsPFvS1_EE
	.loc 5 66 0
	mr 8,26
	lwzu 5,60(8)
	lis 9,_ZN11idCmdSystem20ArgCompletion_StringIXadL_Z15si_gameTypeArgsEEEEvRK9idCmdArgsPFvPKcE@ha
	lis 4,.LC24@ha
	lis 6,0x2
	lis 7,.LC25@ha
	la 9,_ZN11idCmdSystem20ArgCompletion_StringIXadL_Z15si_gameTypeArgsEEEEvRK9idCmdArgsPFvPKcE@l(9)
	addi 3,31,488
	la 4,.LC24@l(4)
	ori 6,6,1152
	la 7,.LC25@l(7)
	bl _ZN6idCVarC1EPKcS1_iS1_PS1_PFvRK9idCmdArgsPFvS1_EE
	.loc 5 67 0
	lis 4,.LC26@ha
	lis 5,.LC27@ha
	lis 6,0x2
	lis 7,.LC28@ha
	lis 8,_ZN11idCmdSystem21ArgCompletion_MapNameERK9idCmdArgsPFvPKcE@ha
	addi 3,31,540
	la 4,.LC26@l(4)
	la 5,.LC27@l(5)
	ori 6,6,1152
	la 7,.LC28@l(7)
	la 8,_ZN11idCmdSystem21ArgCompletion_MapNameERK9idCmdArgsPFvPKcE@l(8)
	bl _ZN6idCVarC1EPKcS1_iS1_PFvRK9idCmdArgsPFvS1_EE
	.loc 5 68 0
	lis 9,.LC32@ha
	lfs 28,.LC32@l(9)
	lis 9,.LC7@ha
	lfs 30,.LC7@l(9)
	lis 4,.LC29@ha
	fmr 2,28
	lis 5,.LC30@ha
	fmr 1,30
	lis 6,0x2
	lis 7,.LC31@ha
	addi 3,31,592
	la 4,.LC29@l(4)
	la 5,.LC30@l(5)
	ori 6,6,1154
	la 7,.LC31@l(7)
	li 8,0
	.loc 5 69 0
	la 27,.LC34@l(27)
	.loc 5 68 0
	bl _ZN6idCVarC1EPKcS1_iS1_ffPFvRK9idCmdArgsPFvS1_EE
	.loc 5 69 0
	fmr 1,30
	lis 9,.LC36@ha
	lis 4,.LC33@ha
	lfs 2,.LC36@l(9)
	lis 6,0x2
	lis 7,.LC35@ha
	addi 3,31,644
	mr 5,27
	la 4,.LC33@l(4)
	ori 6,6,1154
	la 7,.LC35@l(7)
	li 8,0
	.loc 5 71 0
	lis 30,.LC41@ha
	.loc 5 69 0
	bl _ZN6idCVarC1EPKcS1_iS1_ffPFvRK9idCmdArgsPFvS1_EE
	.loc 5 70 0
	fmr 1,31
	lis 9,.LC39@ha
	lis 4,.LC37@ha
	lfs 2,.LC39@l(9)
	lis 6,0x2
	lis 7,.LC38@ha
	addi 3,31,696
	mr 5,27
	la 4,.LC37@l(4)
	ori 6,6,1154
	la 7,.LC38@l(7)
	li 8,0
	.loc 5 71 0
	la 30,.LC41@l(30)
	.loc 5 70 0
	bl _ZN6idCVarC1EPKcS1_iS1_ffPFvRK9idCmdArgsPFvS1_EE
	.loc 5 71 0
	lis 4,.LC40@ha
	lis 6,0x2
	lis 7,.LC42@ha
	addi 3,31,748
	mr 5,30
	la 4,.LC40@l(4)
	ori 6,6,1153
	la 7,.LC42@l(7)
	li 8,0
	bl _ZN6idCVarC1EPKcS1_iS1_PFvRK9idCmdArgsPFvS1_EE
	.loc 5 72 0
	lis 4,.LC43@ha
	lis 6,0x2
	lis 7,.LC44@ha
	addi 3,31,800
	mr 5,30
	la 4,.LC43@l(4)
	ori 6,6,1153
	la 7,.LC44@l(7)
	li 8,0
	bl _ZN6idCVarC1EPKcS1_iS1_PFvRK9idCmdArgsPFvS1_EE
	.loc 5 73 0
	lis 4,.LC45@ha
	lis 6,0x2
	lis 7,.LC46@ha
	addi 3,31,852
	mr 5,30
	la 4,.LC45@l(4)
	ori 6,6,1153
	la 7,.LC46@l(7)
	li 8,0
	.loc 5 74 0
	lis 28,.LC48@ha
	.loc 5 73 0
	bl _ZN6idCVarC1EPKcS1_iS1_PFvRK9idCmdArgsPFvS1_EE
	.loc 5 74 0
	la 28,.LC48@l(28)
	lis 4,.LC47@ha
	lis 7,.LC49@ha
	addi 3,31,904
	mr 5,28
	la 4,.LC47@l(4)
	la 7,.LC49@l(7)
	li 6,1153
	li 8,0
	.loc 5 112 0
	lis 24,.LC108@ha
	.loc 5 74 0
	bl _ZN6idCVarC1EPKcS1_iS1_PFvRK9idCmdArgsPFvS1_EE
	.loc 5 75 0
	lis 4,.LC50@ha
	lis 6,0x2
	lis 7,.LC51@ha
	addi 3,31,956
	mr 5,28
	la 4,.LC50@l(4)
	ori 6,6,1153
	la 7,.LC51@l(7)
	li 8,0
	bl _ZN6idCVarC1EPKcS1_iS1_PFvRK9idCmdArgsPFvS1_EE
	.loc 5 76 0
	lis 4,.LC52@ha
	lis 6,0x2
	lis 7,.LC53@ha
	addi 3,31,1008
	mr 5,29
	la 4,.LC52@l(4)
	ori 6,6,1152
	la 7,.LC53@l(7)
	li 8,0
	bl _ZN6idCVarC1EPKcS1_iS1_PFvRK9idCmdArgsPFvS1_EE
	.loc 5 79 0
	lis 4,.LC54@ha
	lis 5,.LC55@ha
	lis 6,0x2
	lis 7,.LC56@ha
	addi 3,31,1060
	la 4,.LC54@l(4)
	la 5,.LC55@l(5)
	ori 6,6,640
	la 7,.LC56@l(7)
	li 8,0
	.loc 5 112 0
	la 24,.LC108@l(24)
	.loc 5 79 0
	bl _ZN6idCVarC1EPKcS1_iS1_PFvRK9idCmdArgsPFvS1_EE
	.loc 5 80 0
	mr 8,26
	lwzu 5,36(8)
	lis 4,.LC57@ha
	lis 6,0x2
	lis 7,.LC58@ha
	lis 9,_ZN11idCmdSystem20ArgCompletion_StringIXadL_Z11ui_skinArgsEEEEvRK9idCmdArgsPFvPKcE@ha
	addi 3,31,1112
	la 4,.LC57@l(4)
	ori 6,6,640
	la 7,.LC58@l(7)
	la 9,_ZN11idCmdSystem20ArgCompletion_StringIXadL_Z11ui_skinArgsEEEEvRK9idCmdArgsPFvPKcE@l(9)
	bl _ZN6idCVarC1EPKcS1_iS1_PS1_PFvRK9idCmdArgsPFvS1_EE
	.loc 5 81 0
	mr 8,26
	lwzu 5,24(8)
	lis 9,_ZN11idCmdSystem20ArgCompletion_StringIXadL_Z11ui_teamArgsEEEEvRK9idCmdArgsPFvPKcE@ha
	lis 4,.LC59@ha
	lis 6,0x2
	lis 7,.LC60@ha
	la 9,_ZN11idCmdSystem20ArgCompletion_StringIXadL_Z11ui_teamArgsEEEEvRK9idCmdArgsPFvPKcE@l(9)
	addi 3,31,1164
	la 4,.LC59@l(4)
	ori 6,6,640
	la 7,.LC60@l(7)
	bl _ZN6idCVarC1EPKcS1_iS1_PS1_PFvRK9idCmdArgsPFvS1_EE
	.loc 5 82 0
	lis 4,.LC61@ha
	lis 6,0x2
	lis 7,.LC62@ha
	addi 3,31,1216
	mr 5,28
	la 4,.LC61@l(4)
	ori 6,6,641
	la 7,.LC62@l(7)
	li 8,0
	bl _ZN6idCVarC1EPKcS1_iS1_PFvRK9idCmdArgsPFvS1_EE
	.loc 5 83 0
	lis 4,.LC63@ha
	lis 6,0x2
	lis 7,.LC64@ha
	addi 3,31,1268
	mr 5,28
	la 4,.LC63@l(4)
	ori 6,6,641
	la 7,.LC64@l(7)
	li 8,0
	bl _ZN6idCVarC1EPKcS1_iS1_PFvRK9idCmdArgsPFvS1_EE
	.loc 5 84 0
	lis 4,.LC65@ha
	lis 6,0x2
	lis 7,.LC66@ha
	addi 3,31,1320
	mr 5,28
	la 4,.LC65@l(4)
	ori 6,6,641
	la 7,.LC66@l(7)
	li 8,0
	bl _ZN6idCVarC1EPKcS1_iS1_PFvRK9idCmdArgsPFvS1_EE
	.loc 5 85 0
	lwz 5,12(26)
	lis 4,.LC67@ha
	lis 7,.LC68@ha
	lis 8,_ZN11idCmdSystem20ArgCompletion_StringIXadL_Z12si_readyArgsEEEEvRK9idCmdArgsPFvPKcE@ha
	addi 3,31,1372
	la 4,.LC67@l(4)
	la 7,.LC68@l(7)
	la 8,_ZN11idCmdSystem20ArgCompletion_StringIXadL_Z12si_readyArgsEEEEvRK9idCmdArgsPFvPKcE@l(8)
	li 6,640
	bl _ZN6idCVarC1EPKcS1_iS1_PFvRK9idCmdArgsPFvS1_EE
	.loc 5 86 0
	lwz 5,.LANCHOR0@l(25)
	lis 4,.LC69@ha
	lis 7,.LC70@ha
	lis 8,_ZN11idCmdSystem20ArgCompletion_StringIXadL_Z15si_spectateArgsEEEEvRK9idCmdArgsPFvPKcE@ha
	addi 3,31,1424
	la 4,.LC69@l(4)
	la 7,.LC70@l(7)
	la 8,_ZN11idCmdSystem20ArgCompletion_StringIXadL_Z15si_spectateArgsEEEEvRK9idCmdArgsPFvPKcE@l(8)
	li 6,640
	bl _ZN6idCVarC1EPKcS1_iS1_PFvRK9idCmdArgsPFvS1_EE
	.loc 5 87 0
	lis 4,.LC71@ha
	lis 6,0x1
	lis 7,.LC72@ha
	addi 3,31,1476
	mr 5,30
	la 4,.LC71@l(4)
	ori 6,6,8833
	la 7,.LC72@l(7)
	li 8,0
	bl _ZN6idCVarC1EPKcS1_iS1_PFvRK9idCmdArgsPFvS1_EE
	.loc 5 90 0
	lis 4,.LC73@ha
	addi 3,31,1528
	mr 5,30
	mr 7,29
	la 4,.LC73@l(4)
	li 6,129
	li 8,0
	bl _ZN6idCVarC1EPKcS1_iS1_PFvRK9idCmdArgsPFvS1_EE
	.loc 5 92 0
	lis 9,.LC76@ha
	lfs 30,.LC76@l(9)
	fmr 1,31
	lis 4,.LC74@ha
	lis 6,0x2
	fmr 2,30
	lis 7,.LC75@ha
	addi 3,31,1580
	mr 5,30
	la 4,.LC74@l(4)
	ori 6,6,18
	la 7,.LC75@l(7)
	li 8,0
	bl _ZN6idCVarC1EPKcS1_iS1_ffPFvRK9idCmdArgsPFvS1_EE
	.loc 5 94 0
	lis 4,.LC77@ha
	lis 7,.LC78@ha
	addi 3,31,1632
	mr 5,28
	la 4,.LC77@l(4)
	la 7,.LC78@l(7)
	li 6,129
	li 8,0
	.loc 5 103 0
	lis 26,.LC95@ha
	.loc 5 94 0
	bl _ZN6idCVarC1EPKcS1_iS1_PFvRK9idCmdArgsPFvS1_EE
	.loc 5 95 0
	lis 9,.LC82@ha
	lfs 29,.LC82@l(9)
	fmr 1,31
	lis 4,.LC79@ha
	lis 5,.LC80@ha
	fmr 2,29
	lis 7,.LC81@ha
	addi 3,31,1684
	la 4,.LC79@l(4)
	la 5,.LC80@l(5)
	la 7,.LC81@l(7)
	li 6,132
	li 8,0
	bl _ZN6idCVarC1EPKcS1_iS1_ffPFvRK9idCmdArgsPFvS1_EE
	.loc 5 97 0
	lis 4,.LC83@ha
	lis 6,0x2
	lis 7,.LC84@ha
	addi 3,31,1736
	mr 5,28
	la 4,.LC83@l(4)
	ori 6,6,129
	la 7,.LC84@l(7)
	li 8,0
	bl _ZN6idCVarC1EPKcS1_iS1_PFvRK9idCmdArgsPFvS1_EE
	.loc 5 98 0
	lis 4,.LC85@ha
	lis 6,0x2
	lis 7,.LC86@ha
	addi 3,31,1788
	mr 5,28
	la 4,.LC85@l(4)
	ori 6,6,129
	la 7,.LC86@l(7)
	li 8,0
	bl _ZN6idCVarC1EPKcS1_iS1_PFvRK9idCmdArgsPFvS1_EE
	.loc 5 99 0
	lis 4,.LC87@ha
	lis 6,0x2
	lis 7,.LC88@ha
	addi 3,31,1840
	mr 5,28
	la 4,.LC87@l(4)
	ori 6,6,129
	la 7,.LC88@l(7)
	li 8,0
	bl _ZN6idCVarC1EPKcS1_iS1_PFvRK9idCmdArgsPFvS1_EE
	.loc 5 100 0
	lis 4,.LC89@ha
	lis 6,0x2
	lis 7,.LC90@ha
	addi 3,31,1892
	mr 5,28
	la 4,.LC89@l(4)
	ori 6,6,129
	la 7,.LC90@l(7)
	li 8,0
	bl _ZN6idCVarC1EPKcS1_iS1_PFvRK9idCmdArgsPFvS1_EE
	.loc 5 101 0
	lis 4,.LC91@ha
	addi 3,31,1944
	mr 5,28
	mr 7,29
	la 4,.LC91@l(4)
	li 6,129
	li 8,0
	bl _ZN6idCVarC1EPKcS1_iS1_PFvRK9idCmdArgsPFvS1_EE
	.loc 5 102 0
	lis 4,.LC92@ha
	lis 6,0x2
	lis 7,.LC93@ha
	addi 3,31,1996
	mr 5,28
	la 4,.LC92@l(4)
	ori 6,6,129
	la 7,.LC93@l(7)
	li 8,0
	bl _ZN6idCVarC1EPKcS1_iS1_PFvRK9idCmdArgsPFvS1_EE
	.loc 5 103 0
	la 26,.LC95@l(26)
	lis 4,.LC94@ha
	addi 3,31,2048
	mr 5,26
	mr 7,29
	la 4,.LC94@l(4)
	li 6,130
	li 8,0
	.loc 5 122 0
	lis 22,.LC121@ha
	.loc 5 103 0
	bl _ZN6idCVarC1EPKcS1_iS1_PFvRK9idCmdArgsPFvS1_EE
	.loc 5 104 0
	lis 4,.LC96@ha
	addi 3,31,2100
	mr 5,28
	mr 7,29
	la 4,.LC96@l(4)
	li 6,130
	li 8,0
	bl _ZN6idCVarC1EPKcS1_iS1_PFvRK9idCmdArgsPFvS1_EE
	.loc 5 105 0
	lis 4,.LC97@ha
	lis 6,0x2
	lis 7,.LC98@ha
	addi 3,31,2152
	mr 5,30
	la 4,.LC97@l(4)
	ori 6,6,129
	la 7,.LC98@l(7)
	li 8,0
	bl _ZN6idCVarC1EPKcS1_iS1_PFvRK9idCmdArgsPFvS1_EE
	.loc 5 106 0
	lis 4,.LC99@ha
	lis 5,.LC100@ha
	addi 3,31,2204
	mr 7,29
	la 4,.LC99@l(4)
	la 5,.LC100@l(5)
	li 6,132
	li 8,0
	.loc 5 122 0
	la 22,.LC121@l(22)
	.loc 5 106 0
	bl _ZN6idCVarC1EPKcS1_iS1_PFvRK9idCmdArgsPFvS1_EE
	.loc 5 107 0
	lis 4,.LC101@ha
	addi 3,31,2256
	mr 5,30
	mr 7,29
	la 4,.LC101@l(4)
	li 6,129
	li 8,0
	bl _ZN6idCVarC1EPKcS1_iS1_PFvRK9idCmdArgsPFvS1_EE
	.loc 5 108 0
	lis 4,.LC102@ha
	addi 3,31,2308
	mr 5,30
	mr 7,29
	la 4,.LC102@l(4)
	li 6,129
	li 8,0
	bl _ZN6idCVarC1EPKcS1_iS1_PFvRK9idCmdArgsPFvS1_EE
	.loc 5 110 0
	lis 4,.LC103@ha
	lis 7,.LC104@ha
	addi 3,31,2360
	mr 5,30
	la 4,.LC103@l(4)
	la 7,.LC104@l(7)
	li 6,129
	li 8,0
	.loc 5 125 0
	lis 25,.LC129@ha
	.loc 5 110 0
	bl _ZN6idCVarC1EPKcS1_iS1_PFvRK9idCmdArgsPFvS1_EE
	.loc 5 111 0
	lis 4,.LC105@ha
	lis 7,.LC106@ha
	addi 3,31,2412
	mr 5,30
	la 4,.LC105@l(4)
	la 7,.LC106@l(7)
	li 6,129
	li 8,0
	.loc 5 125 0
	la 25,.LC129@l(25)
	.loc 5 111 0
	bl _ZN6idCVarC1EPKcS1_iS1_PFvRK9idCmdArgsPFvS1_EE
	.loc 5 112 0
	lis 4,.LC107@ha
	lis 7,.LC109@ha
	addi 3,31,2464
	mr 5,24
	la 4,.LC107@l(4)
	la 7,.LC109@l(7)
	li 6,130
	li 8,0
	.loc 5 137 0
	lis 19,.LC145@ha
	.loc 5 112 0
	bl _ZN6idCVarC1EPKcS1_iS1_PFvRK9idCmdArgsPFvS1_EE
	.loc 5 113 0
	lis 4,.LC110@ha
	addi 3,31,2516
	mr 5,30
	mr 7,29
	la 4,.LC110@l(4)
	li 6,129
	li 8,0
	bl _ZN6idCVarC1EPKcS1_iS1_PFvRK9idCmdArgsPFvS1_EE
	.loc 5 114 0
	lis 4,.LC111@ha
	addi 3,31,2568
	mr 5,30
	mr 7,29
	la 4,.LC111@l(4)
	li 6,129
	li 8,0
	bl _ZN6idCVarC1EPKcS1_iS1_PFvRK9idCmdArgsPFvS1_EE
	.loc 5 115 0
	lis 4,.LC112@ha
	addi 3,31,2620
	mr 5,30
	mr 7,29
	la 4,.LC112@l(4)
	li 6,129
	li 8,0
	bl _ZN6idCVarC1EPKcS1_iS1_PFvRK9idCmdArgsPFvS1_EE
	.loc 5 116 0
	lis 4,.LC113@ha
	addi 3,31,2672
	mr 5,30
	mr 7,29
	la 4,.LC113@l(4)
	li 6,129
	li 8,0
	bl _ZN6idCVarC1EPKcS1_iS1_PFvRK9idCmdArgsPFvS1_EE
	.loc 5 117 0
	lis 4,.LC114@ha
	addi 3,31,2724
	mr 5,30
	mr 7,29
	la 4,.LC114@l(4)
	li 6,129
	li 8,0
	bl _ZN6idCVarC1EPKcS1_iS1_PFvRK9idCmdArgsPFvS1_EE
	.loc 5 118 0
	lis 4,.LC115@ha
	addi 3,31,2776
	mr 5,30
	mr 7,29
	la 4,.LC115@l(4)
	li 6,129
	li 8,0
	bl _ZN6idCVarC1EPKcS1_iS1_PFvRK9idCmdArgsPFvS1_EE
	.loc 5 119 0
	lis 4,.LC116@ha
	addi 3,31,2828
	mr 5,30
	mr 7,29
	la 4,.LC116@l(4)
	li 6,129
	li 8,0
	bl _ZN6idCVarC1EPKcS1_iS1_PFvRK9idCmdArgsPFvS1_EE
	.loc 5 120 0
	lis 4,.LC117@ha
	addi 3,31,2880
	mr 5,30
	mr 7,29
	la 4,.LC117@l(4)
	li 6,129
	li 8,0
	bl _ZN6idCVarC1EPKcS1_iS1_PFvRK9idCmdArgsPFvS1_EE
	.loc 5 121 0
	lis 4,.LC118@ha
	lis 6,0x2
	lis 7,.LC119@ha
	addi 3,31,2932
	mr 5,28
	la 4,.LC118@l(4)
	ori 6,6,132
	la 7,.LC119@l(7)
	li 8,0
	bl _ZN6idCVarC1EPKcS1_iS1_PFvRK9idCmdArgsPFvS1_EE
	.loc 5 122 0
	lis 4,.LC120@ha
	lis 6,0x2
	lis 7,.LC122@ha
	addi 3,31,2984
	mr 5,22
	la 4,.LC120@l(4)
	ori 6,6,132
	la 7,.LC122@l(7)
	li 8,0
	bl _ZN6idCVarC1EPKcS1_iS1_PFvRK9idCmdArgsPFvS1_EE
	.loc 5 123 0
	lis 4,.LC123@ha
	lis 5,.LC124@ha
	lis 6,0x2
	lis 7,.LC125@ha
	addi 3,31,3036
	la 4,.LC123@l(4)
	la 5,.LC124@l(5)
	ori 6,6,132
	la 7,.LC125@l(7)
	li 8,0
	.loc 5 137 0
	la 19,.LC145@l(19)
	.loc 5 123 0
	bl _ZN6idCVarC1EPKcS1_iS1_PFvRK9idCmdArgsPFvS1_EE
	.loc 5 124 0
	lis 4,.LC126@ha
	lis 6,0x2
	lis 7,.LC127@ha
	addi 3,31,3088
	mr 5,28
	la 4,.LC126@l(4)
	ori 6,6,129
	la 7,.LC127@l(7)
	li 8,0
	bl _ZN6idCVarC1EPKcS1_iS1_PFvRK9idCmdArgsPFvS1_EE
	.loc 5 125 0
	lis 4,.LC128@ha
	lis 6,0x2
	lis 7,.LC130@ha
	addi 3,31,3140
	mr 5,25
	la 4,.LC128@l(4)
	ori 6,6,130
	la 7,.LC130@l(7)
	li 8,0
	bl _ZN6idCVarC1EPKcS1_iS1_PFvRK9idCmdArgsPFvS1_EE
	.loc 5 126 0
	lis 4,.LC131@ha
	lis 6,0x2
	lis 7,.LC132@ha
	addi 3,31,3192
	mr 5,25
	la 4,.LC131@l(4)
	ori 6,6,130
	la 7,.LC132@l(7)
	li 8,0
	bl _ZN6idCVarC1EPKcS1_iS1_PFvRK9idCmdArgsPFvS1_EE
	.loc 5 127 0
	lis 4,.LC133@ha
	lis 5,.LC134@ha
	lis 6,0x2
	lis 7,.LC135@ha
	addi 3,31,3244
	la 4,.LC133@l(4)
	la 5,.LC134@l(5)
	ori 6,6,130
	la 7,.LC135@l(7)
	li 8,0
	.loc 5 154 0
	lis 23,_ZN11idCmdSystem21ArgCompletion_IntegerILi0ELi2EEEvRK9idCmdArgsPFvPKcE@ha
	.loc 5 127 0
	bl _ZN6idCVarC1EPKcS1_iS1_PFvRK9idCmdArgsPFvS1_EE
	.loc 5 131 0
	fmr 1,31
	fmr 2,30
	lis 4,.LC136@ha
	addi 3,31,3296
	mr 5,30
	mr 7,29
	la 4,.LC136@l(4)
	li 6,130
	li 8,0
	bl _ZN6idCVarC1EPKcS1_iS1_ffPFvRK9idCmdArgsPFvS1_EE
	.loc 5 132 0
	lis 4,.LC137@ha
	lis 7,.LC138@ha
	addi 3,31,3348
	mr 5,30
	la 4,.LC137@l(4)
	la 7,.LC138@l(7)
	li 6,129
	li 8,0
	.loc 5 154 0
	la 23,_ZN11idCmdSystem21ArgCompletion_IntegerILi0ELi2EEEvRK9idCmdArgsPFvPKcE@l(23)
	.loc 5 132 0
	bl _ZN6idCVarC1EPKcS1_iS1_PFvRK9idCmdArgsPFvS1_EE
	.loc 5 133 0
	lis 4,.LC139@ha
	lis 7,.LC140@ha
	addi 3,31,3400
	mr 5,30
	la 4,.LC139@l(4)
	la 7,.LC140@l(7)
	li 6,129
	li 8,0
	.loc 5 159 0
	lis 25,.LC179@ha
	.loc 5 133 0
	bl _ZN6idCVarC1EPKcS1_iS1_PFvRK9idCmdArgsPFvS1_EE
	.loc 5 134 0
	lis 4,.LC141@ha
	addi 3,31,3452
	mr 5,30
	mr 7,29
	la 4,.LC141@l(4)
	li 6,129
	li 8,0
	bl _ZN6idCVarC1EPKcS1_iS1_PFvRK9idCmdArgsPFvS1_EE
	.loc 5 135 0
	lis 4,.LC142@ha
	addi 3,31,3504
	mr 5,30
	mr 7,29
	la 4,.LC142@l(4)
	li 6,129
	li 8,0
	bl _ZN6idCVarC1EPKcS1_iS1_PFvRK9idCmdArgsPFvS1_EE
	.loc 5 136 0
	lis 4,.LC143@ha
	addi 3,31,3556
	mr 5,30
	mr 7,29
	la 4,.LC143@l(4)
	li 6,129
	li 8,0
	bl _ZN6idCVarC1EPKcS1_iS1_PFvRK9idCmdArgsPFvS1_EE
	.loc 5 137 0
	lis 4,.LC144@ha
	addi 3,31,3608
	mr 5,19
	mr 7,29
	la 4,.LC144@l(4)
	li 6,132
	li 8,0
	bl _ZN6idCVarC1EPKcS1_iS1_PFvRK9idCmdArgsPFvS1_EE
	.loc 5 138 0
	lis 4,.LC146@ha
	addi 3,31,3660
	mr 5,30
	mr 7,29
	la 4,.LC146@l(4)
	li 6,129
	li 8,0
	bl _ZN6idCVarC1EPKcS1_iS1_PFvRK9idCmdArgsPFvS1_EE
	.loc 5 139 0
	lis 4,.LC147@ha
	addi 3,31,3712
	mr 5,30
	mr 7,29
	la 4,.LC147@l(4)
	li 6,129
	li 8,0
	bl _ZN6idCVarC1EPKcS1_iS1_PFvRK9idCmdArgsPFvS1_EE
	.loc 5 140 0
	lis 4,.LC148@ha
	lis 6,0x2
	lis 7,.LC149@ha
	addi 3,31,3764
	mr 5,30
	la 4,.LC148@l(4)
	ori 6,6,128
	la 7,.LC149@l(7)
	li 8,0
	bl _ZN6idCVarC1EPKcS1_iS1_PFvRK9idCmdArgsPFvS1_EE
	.loc 5 141 0
	lis 4,.LC150@ha
	lis 7,.LC151@ha
	addi 3,31,3816
	mr 5,30
	la 4,.LC150@l(4)
	la 7,.LC151@l(7)
	li 6,129
	li 8,0
	.loc 5 159 0
	la 25,.LC179@l(25)
	.loc 5 141 0
	bl _ZN6idCVarC1EPKcS1_iS1_PFvRK9idCmdArgsPFvS1_EE
	.loc 5 142 0
	lis 4,.LC152@ha
	lis 7,.LC153@ha
	addi 3,31,3868
	mr 5,30
	la 4,.LC152@l(4)
	la 7,.LC153@l(7)
	li 6,129
	li 8,0
	.loc 5 183 0
	lis 21,.LC200@ha
	.loc 5 142 0
	bl _ZN6idCVarC1EPKcS1_iS1_PFvRK9idCmdArgsPFvS1_EE
	.loc 5 143 0
	lis 4,.LC154@ha
	lis 7,.LC155@ha
	addi 3,31,3920
	mr 5,30
	la 4,.LC154@l(4)
	la 7,.LC155@l(7)
	li 6,129
	li 8,0
	.loc 5 183 0
	la 21,.LC200@l(21)
	.loc 5 143 0
	bl _ZN6idCVarC1EPKcS1_iS1_PFvRK9idCmdArgsPFvS1_EE
	.loc 5 145 0
	lis 4,.LC156@ha
	lis 7,.LC157@ha
	addi 3,31,3972
	mr 5,30
	la 4,.LC156@l(4)
	la 7,.LC157@l(7)
	li 6,129
	li 8,0
	.loc 5 184 0
	lis 20,.LC202@ha
	.loc 5 145 0
	bl _ZN6idCVarC1EPKcS1_iS1_PFvRK9idCmdArgsPFvS1_EE
	.loc 5 146 0
	lis 4,.LC158@ha
	lis 7,.LC159@ha
	addi 3,31,4024
	mr 5,30
	la 4,.LC158@l(4)
	la 7,.LC159@l(7)
	li 6,132
	li 8,0
	.loc 5 184 0
	la 20,.LC202@l(20)
	.loc 5 146 0
	bl _ZN6idCVarC1EPKcS1_iS1_PFvRK9idCmdArgsPFvS1_EE
	.loc 5 148 0
	lis 4,.LC160@ha
	lis 7,.LC161@ha
	addi 3,31,4076
	mr 5,24
	la 4,.LC160@l(4)
	la 7,.LC161@l(7)
	li 6,130
	li 8,0
	bl _ZN6idCVarC1EPKcS1_iS1_PFvRK9idCmdArgsPFvS1_EE
	.loc 5 149 0
	lis 4,.LC162@ha
	lis 7,.LC163@ha
	addi 3,31,4128
	mr 5,30
	la 4,.LC162@l(4)
	la 7,.LC163@l(7)
	li 6,129
	li 8,0
	bl _ZN6idCVarC1EPKcS1_iS1_PFvRK9idCmdArgsPFvS1_EE
	.loc 5 150 0
	lis 4,.LC164@ha
	lis 7,.LC165@ha
	addi 3,31,4180
	mr 5,30
	la 4,.LC164@l(4)
	la 7,.LC165@l(7)
	li 6,129
	li 8,0
	bl _ZN6idCVarC1EPKcS1_iS1_PFvRK9idCmdArgsPFvS1_EE
	.loc 5 151 0
	lis 4,.LC166@ha
	addi 3,31,4232
	mr 5,30
	mr 7,29
	la 4,.LC166@l(4)
	li 6,129
	li 8,0
	bl _ZN6idCVarC1EPKcS1_iS1_PFvRK9idCmdArgsPFvS1_EE
	.loc 5 152 0
	lis 4,.LC167@ha
	lis 7,.LC168@ha
	addi 3,31,4284
	mr 5,30
	la 4,.LC167@l(4)
	la 7,.LC168@l(7)
	li 6,129
	li 8,0
	bl _ZN6idCVarC1EPKcS1_iS1_PFvRK9idCmdArgsPFvS1_EE
	.loc 5 153 0
	lis 4,.LC169@ha
	lis 7,.LC170@ha
	addi 3,31,4336
	mr 5,30
	la 4,.LC169@l(4)
	la 7,.LC170@l(7)
	li 6,129
	li 8,0
	bl _ZN6idCVarC1EPKcS1_iS1_PFvRK9idCmdArgsPFvS1_EE
	.loc 5 154 0
	fmr 2,30
	lis 9,.LC446@ha
	lis 4,.LC171@ha
	lfs 1,.LC446@l(9)
	lis 7,.LC172@ha
	addi 3,31,4388
	mr 5,30
	mr 8,23
	la 4,.LC171@l(4)
	la 7,.LC172@l(7)
	li 6,130
	bl _ZN6idCVarC1EPKcS1_iS1_ffPFvRK9idCmdArgsPFvS1_EE
	.loc 5 155 0
	lis 4,.LC173@ha
	lis 7,.LC174@ha
	addi 3,31,4440
	mr 5,28
	la 4,.LC173@l(4)
	la 7,.LC174@l(7)
	li 6,129
	li 8,0
	bl _ZN6idCVarC1EPKcS1_iS1_PFvRK9idCmdArgsPFvS1_EE
	.loc 5 157 0
	lis 4,.LC175@ha
	addi 3,31,4492
	mr 5,28
	mr 7,29
	la 4,.LC175@l(4)
	li 6,132
	li 8,0
	bl _ZN6idCVarC1EPKcS1_iS1_PFvRK9idCmdArgsPFvS1_EE
	.loc 5 158 0
	lis 4,.LC176@ha
	lis 5,.LC177@ha
	addi 3,31,4544
	mr 7,29
	la 4,.LC176@l(4)
	la 5,.LC177@l(5)
	li 6,132
	li 8,0
	bl _ZN6idCVarC1EPKcS1_iS1_PFvRK9idCmdArgsPFvS1_EE
	.loc 5 159 0
	lis 4,.LC178@ha
	addi 3,31,4596
	mr 5,25
	mr 7,29
	la 4,.LC178@l(4)
	li 6,132
	li 8,0
	bl _ZN6idCVarC1EPKcS1_iS1_PFvRK9idCmdArgsPFvS1_EE
	.loc 5 161 0
	lis 4,.LC180@ha
	addi 3,31,4648
	mr 5,28
	mr 7,29
	la 4,.LC180@l(4)
	li 6,132
	li 8,0
	bl _ZN6idCVarC1EPKcS1_iS1_PFvRK9idCmdArgsPFvS1_EE
	.loc 5 162 0
	lis 4,.LC181@ha
	lis 5,.LC182@ha
	addi 3,31,4700
	mr 7,29
	la 4,.LC181@l(4)
	la 5,.LC182@l(5)
	li 6,132
	li 8,0
	bl _ZN6idCVarC1EPKcS1_iS1_PFvRK9idCmdArgsPFvS1_EE
	.loc 5 163 0
	lis 4,.LC183@ha
	addi 3,31,4752
	mr 5,28
	mr 7,29
	la 4,.LC183@l(4)
	li 6,132
	li 8,0
	bl _ZN6idCVarC1EPKcS1_iS1_PFvRK9idCmdArgsPFvS1_EE
	.loc 5 164 0
	lis 4,.LC184@ha
	addi 3,31,4804
	mr 5,28
	mr 7,29
	la 4,.LC184@l(4)
	li 6,132
	li 8,0
	bl _ZN6idCVarC1EPKcS1_iS1_PFvRK9idCmdArgsPFvS1_EE
	.loc 5 166 0
	lis 4,.LC185@ha
	addi 3,31,4856
	mr 5,30
	mr 7,29
	la 4,.LC185@l(4)
	li 6,132
	li 8,0
	bl _ZN6idCVarC1EPKcS1_iS1_PFvRK9idCmdArgsPFvS1_EE
	.loc 5 167 0
	lis 9,.LC188@ha
	lfs 2,.LC188@l(9)
	lis 9,.LC446@ha
	lfs 1,.LC446@l(9)
	lis 4,.LC186@ha
	lis 7,.LC187@ha
	lis 8,_ZN11idCmdSystem21ArgCompletion_IntegerILi0ELi7EEEvRK9idCmdArgsPFvPKcE@ha
	addi 3,31,4908
	mr 5,30
	la 4,.LC186@l(4)
	la 7,.LC187@l(7)
	la 8,_ZN11idCmdSystem21ArgCompletion_IntegerILi0ELi7EEEvRK9idCmdArgsPFvPKcE@l(8)
	li 6,130
	bl _ZN6idCVarC1EPKcS1_iS1_ffPFvRK9idCmdArgsPFvS1_EE
	.loc 5 175 0
	lis 4,.LC189@ha
	lis 7,.LC190@ha
	addi 3,31,4960
	mr 5,30
	la 4,.LC189@l(4)
	la 7,.LC190@l(7)
	li 6,129
	li 8,0
	bl _ZN6idCVarC1EPKcS1_iS1_PFvRK9idCmdArgsPFvS1_EE
	.loc 5 176 0
	lis 4,.LC191@ha
	addi 3,31,5012
	mr 5,25
	mr 7,29
	la 4,.LC191@l(4)
	li 6,132
	li 8,0
	bl _ZN6idCVarC1EPKcS1_iS1_PFvRK9idCmdArgsPFvS1_EE
	.loc 5 177 0
	lis 4,.LC192@ha
	addi 3,31,5064
	mr 5,30
	mr 7,29
	la 4,.LC192@l(4)
	li 6,129
	li 8,0
	bl _ZN6idCVarC1EPKcS1_iS1_PFvRK9idCmdArgsPFvS1_EE
	.loc 5 178 0
	lis 4,.LC193@ha
	addi 3,31,5116
	mr 5,29
	mr 7,29
	la 4,.LC193@l(4)
	li 6,128
	li 8,0
	bl _ZN6idCVarC1EPKcS1_iS1_PFvRK9idCmdArgsPFvS1_EE
	.loc 5 180 0
	lis 4,.LC194@ha
	addi 3,31,5168
	mr 5,26
	mr 7,29
	la 4,.LC194@l(4)
	li 6,132
	li 8,0
	bl _ZN6idCVarC1EPKcS1_iS1_PFvRK9idCmdArgsPFvS1_EE
	.loc 5 181 0
	lis 4,.LC195@ha
	lis 5,.LC196@ha
	addi 3,31,5220
	mr 7,29
	la 4,.LC195@l(4)
	la 5,.LC196@l(5)
	li 6,132
	li 8,0
	.loc 5 182 0
	lis 26,.LC198@ha
	.loc 5 181 0
	bl _ZN6idCVarC1EPKcS1_iS1_PFvRK9idCmdArgsPFvS1_EE
	.loc 5 182 0
	la 26,.LC198@l(26)
	lis 4,.LC197@ha
	addi 3,31,5272
	mr 5,26
	mr 7,29
	la 4,.LC197@l(4)
	li 6,132
	li 8,0
	bl _ZN6idCVarC1EPKcS1_iS1_PFvRK9idCmdArgsPFvS1_EE
	.loc 5 183 0
	lis 4,.LC199@ha
	addi 3,31,5324
	mr 5,21
	mr 7,29
	la 4,.LC199@l(4)
	li 6,132
	li 8,0
	bl _ZN6idCVarC1EPKcS1_iS1_PFvRK9idCmdArgsPFvS1_EE
	.loc 5 184 0
	lis 4,.LC201@ha
	addi 3,31,5376
	mr 5,20
	mr 7,29
	la 4,.LC201@l(4)
	li 6,132
	li 8,0
	bl _ZN6idCVarC1EPKcS1_iS1_PFvRK9idCmdArgsPFvS1_EE
	.loc 5 185 0
	lis 4,.LC203@ha
	lis 5,.LC204@ha
	addi 3,31,5428
	mr 7,29
	la 4,.LC203@l(4)
	la 5,.LC204@l(5)
	li 6,132
	li 8,0
	bl _ZN6idCVarC1EPKcS1_iS1_PFvRK9idCmdArgsPFvS1_EE
	.loc 5 186 0
	lis 4,.LC205@ha
	lis 5,.LC206@ha
	addi 3,31,5480
	mr 7,29
	la 4,.LC205@l(4)
	la 5,.LC206@l(5)
	li 6,132
	li 8,0
	bl _ZN6idCVarC1EPKcS1_iS1_PFvRK9idCmdArgsPFvS1_EE
	.loc 5 188 0
	lis 4,.LC207@ha
	lis 7,.LC208@ha
	addi 3,31,5532
	mr 5,28
	la 4,.LC207@l(4)
	la 7,.LC208@l(7)
	li 6,129
	li 8,0
	bl _ZN6idCVarC1EPKcS1_iS1_PFvRK9idCmdArgsPFvS1_EE
	.loc 5 189 0
	lis 4,.LC209@ha
	lis 7,.LC210@ha
	addi 3,31,5584
	mr 5,30
	la 4,.LC209@l(4)
	la 7,.LC210@l(7)
	li 6,129
	li 8,0
	bl _ZN6idCVarC1EPKcS1_iS1_PFvRK9idCmdArgsPFvS1_EE
	.loc 5 191 0
	lis 4,.LC211@ha
	lis 7,.LC212@ha
	addi 3,31,5636
	mr 5,28
	la 4,.LC211@l(4)
	la 7,.LC212@l(7)
	li 6,129
	li 8,0
	bl _ZN6idCVarC1EPKcS1_iS1_PFvRK9idCmdArgsPFvS1_EE
	.loc 5 192 0
	lis 4,.LC213@ha
	lis 7,.LC214@ha
	addi 3,31,5688
	mr 5,30
	la 4,.LC213@l(4)
	la 7,.LC214@l(7)
	li 6,129
	li 8,0
	bl _ZN6idCVarC1EPKcS1_iS1_PFvRK9idCmdArgsPFvS1_EE
	.loc 5 193 0
	lis 4,.LC215@ha
	lis 7,.LC216@ha
	addi 3,31,5740
	mr 5,30
	la 4,.LC215@l(4)
	la 7,.LC216@l(7)
	li 6,129
	li 8,0
	bl _ZN6idCVarC1EPKcS1_iS1_PFvRK9idCmdArgsPFvS1_EE
	.loc 5 194 0
	lis 4,.LC217@ha
	lis 7,.LC218@ha
	addi 3,31,5792
	mr 5,28
	la 4,.LC217@l(4)
	la 7,.LC218@l(7)
	li 6,129
	li 8,0
	bl _ZN6idCVarC1EPKcS1_iS1_PFvRK9idCmdArgsPFvS1_EE
	.loc 5 195 0
	lis 4,.LC219@ha
	lis 7,.LC220@ha
	addi 3,31,5844
	mr 5,30
	la 4,.LC219@l(4)
	la 7,.LC220@l(7)
	li 6,129
	li 8,0
	bl _ZN6idCVarC1EPKcS1_iS1_PFvRK9idCmdArgsPFvS1_EE
	.loc 5 196 0
	lis 4,.LC221@ha
	lis 7,.LC222@ha
	addi 3,31,5896
	mr 5,30
	la 4,.LC221@l(4)
	la 7,.LC222@l(7)
	li 6,129
	li 8,0
	bl _ZN6idCVarC1EPKcS1_iS1_PFvRK9idCmdArgsPFvS1_EE
	.loc 5 197 0
	lis 4,.LC223@ha
	lis 7,.LC224@ha
	addi 3,31,5948
	mr 5,30
	la 4,.LC223@l(4)
	la 7,.LC224@l(7)
	li 6,129
	li 8,0
	bl _ZN6idCVarC1EPKcS1_iS1_PFvRK9idCmdArgsPFvS1_EE
	.loc 5 198 0
	lis 4,.LC225@ha
	lis 7,.LC226@ha
	addi 3,31,6000
	mr 5,24
	la 4,.LC225@l(4)
	la 7,.LC226@l(7)
	li 6,132
	li 8,0
	.loc 5 232 0
	lis 24,.LC291@ha
	.loc 5 198 0
	bl _ZN6idCVarC1EPKcS1_iS1_PFvRK9idCmdArgsPFvS1_EE
	.loc 5 199 0
	lis 4,.LC227@ha
	lis 7,.LC228@ha
	addi 3,31,6052
	mr 5,19
	la 4,.LC227@l(4)
	la 7,.LC228@l(7)
	li 6,132
	li 8,0
	.loc 5 232 0
	la 24,.LC291@l(24)
	.loc 5 199 0
	bl _ZN6idCVarC1EPKcS1_iS1_PFvRK9idCmdArgsPFvS1_EE
	.loc 5 200 0
	lis 4,.LC229@ha
	lis 5,.LC230@ha
	lis 7,.LC231@ha
	addi 3,31,6104
	la 4,.LC229@l(4)
	la 5,.LC230@l(5)
	la 7,.LC231@l(7)
	li 6,132
	li 8,0
	bl _ZN6idCVarC1EPKcS1_iS1_PFvRK9idCmdArgsPFvS1_EE
	.loc 5 201 0
	lis 4,.LC232@ha
	lis 7,.LC233@ha
	addi 3,31,6156
	mr 5,28
	la 4,.LC232@l(4)
	la 7,.LC233@l(7)
	li 6,132
	li 8,0
	bl _ZN6idCVarC1EPKcS1_iS1_PFvRK9idCmdArgsPFvS1_EE
	.loc 5 202 0
	lis 4,.LC234@ha
	lis 7,.LC235@ha
	addi 3,31,6208
	mr 5,30
	la 4,.LC234@l(4)
	la 7,.LC235@l(7)
	li 6,132
	li 8,0
	bl _ZN6idCVarC1EPKcS1_iS1_PFvRK9idCmdArgsPFvS1_EE
	.loc 5 203 0
	lis 4,.LC236@ha
	lis 7,.LC237@ha
	addi 3,31,6260
	mr 5,30
	la 4,.LC236@l(4)
	la 7,.LC237@l(7)
	li 6,132
	li 8,0
	bl _ZN6idCVarC1EPKcS1_iS1_PFvRK9idCmdArgsPFvS1_EE
	.loc 5 204 0
	lis 4,.LC238@ha
	lis 7,.LC239@ha
	addi 3,31,6312
	mr 5,29
	la 4,.LC238@l(4)
	la 7,.LC239@l(7)
	li 6,128
	li 8,0
	bl _ZN6idCVarC1EPKcS1_iS1_PFvRK9idCmdArgsPFvS1_EE
	.loc 5 205 0
	lis 4,.LC240@ha
	lis 7,.LC241@ha
	addi 3,31,6364
	mr 5,29
	la 4,.LC240@l(4)
	la 7,.LC241@l(7)
	li 6,128
	li 8,0
	bl _ZN6idCVarC1EPKcS1_iS1_PFvRK9idCmdArgsPFvS1_EE
	.loc 5 206 0
	lis 4,.LC242@ha
	lis 7,.LC243@ha
	addi 3,31,6416
	mr 5,30
	la 4,.LC242@l(4)
	la 7,.LC243@l(7)
	li 6,129
	li 8,0
	bl _ZN6idCVarC1EPKcS1_iS1_PFvRK9idCmdArgsPFvS1_EE
	.loc 5 207 0
	lis 4,.LC244@ha
	lis 7,.LC245@ha
	addi 3,31,6468
	mr 5,30
	la 4,.LC244@l(4)
	la 7,.LC245@l(7)
	li 6,129
	li 8,0
	bl _ZN6idCVarC1EPKcS1_iS1_PFvRK9idCmdArgsPFvS1_EE
	.loc 5 208 0
	lis 4,.LC246@ha
	lis 7,.LC247@ha
	addi 3,31,6520
	mr 5,30
	la 4,.LC246@l(4)
	la 7,.LC247@l(7)
	li 6,129
	li 8,0
	bl _ZN6idCVarC1EPKcS1_iS1_PFvRK9idCmdArgsPFvS1_EE
	.loc 5 209 0
	lis 4,.LC248@ha
	lis 7,.LC249@ha
	addi 3,31,6572
	mr 5,30
	la 4,.LC248@l(4)
	la 7,.LC249@l(7)
	li 6,129
	li 8,0
	bl _ZN6idCVarC1EPKcS1_iS1_PFvRK9idCmdArgsPFvS1_EE
	.loc 5 210 0
	lis 4,.LC250@ha
	lis 7,.LC251@ha
	addi 3,31,6624
	mr 5,30
	la 4,.LC250@l(4)
	la 7,.LC251@l(7)
	li 6,129
	li 8,0
	bl _ZN6idCVarC1EPKcS1_iS1_PFvRK9idCmdArgsPFvS1_EE
	.loc 5 211 0
	lis 4,.LC252@ha
	lis 7,.LC253@ha
	addi 3,31,6676
	mr 5,30
	la 4,.LC252@l(4)
	la 7,.LC253@l(7)
	li 6,129
	li 8,0
	bl _ZN6idCVarC1EPKcS1_iS1_PFvRK9idCmdArgsPFvS1_EE
	.loc 5 212 0
	lis 4,.LC254@ha
	lis 7,.LC255@ha
	addi 3,31,6728
	mr 5,30
	la 4,.LC254@l(4)
	la 7,.LC255@l(7)
	li 6,129
	li 8,0
	bl _ZN6idCVarC1EPKcS1_iS1_PFvRK9idCmdArgsPFvS1_EE
	.loc 5 213 0
	lis 4,.LC256@ha
	lis 7,.LC257@ha
	addi 3,31,6780
	mr 5,30
	la 4,.LC256@l(4)
	la 7,.LC257@l(7)
	li 6,129
	li 8,0
	bl _ZN6idCVarC1EPKcS1_iS1_PFvRK9idCmdArgsPFvS1_EE
	.loc 5 214 0
	lis 4,.LC258@ha
	lis 7,.LC259@ha
	addi 3,31,6832
	mr 5,30
	la 4,.LC258@l(4)
	la 7,.LC259@l(7)
	li 6,129
	li 8,0
	bl _ZN6idCVarC1EPKcS1_iS1_PFvRK9idCmdArgsPFvS1_EE
	.loc 5 215 0
	lis 4,.LC260@ha
	lis 7,.LC261@ha
	addi 3,31,6884
	mr 5,30
	la 4,.LC260@l(4)
	la 7,.LC261@l(7)
	li 6,129
	li 8,0
	bl _ZN6idCVarC1EPKcS1_iS1_PFvRK9idCmdArgsPFvS1_EE
	.loc 5 216 0
	lis 4,.LC262@ha
	lis 7,.LC263@ha
	addi 3,31,6936
	mr 5,30
	la 4,.LC262@l(4)
	la 7,.LC263@l(7)
	li 6,129
	li 8,0
	bl _ZN6idCVarC1EPKcS1_iS1_PFvRK9idCmdArgsPFvS1_EE
	.loc 5 217 0
	lis 4,.LC264@ha
	lis 7,.LC265@ha
	addi 3,31,6988
	mr 5,30
	la 4,.LC264@l(4)
	la 7,.LC265@l(7)
	li 6,129
	li 8,0
	bl _ZN6idCVarC1EPKcS1_iS1_PFvRK9idCmdArgsPFvS1_EE
	.loc 5 218 0
	lis 4,.LC266@ha
	lis 7,.LC267@ha
	addi 3,31,7040
	mr 5,30
	la 4,.LC266@l(4)
	la 7,.LC267@l(7)
	li 6,129
	li 8,0
	bl _ZN6idCVarC1EPKcS1_iS1_PFvRK9idCmdArgsPFvS1_EE
	.loc 5 219 0
	lis 4,.LC268@ha
	lis 7,.LC269@ha
	addi 3,31,7092
	mr 5,30
	la 4,.LC268@l(4)
	la 7,.LC269@l(7)
	li 6,129
	li 8,0
	bl _ZN6idCVarC1EPKcS1_iS1_PFvRK9idCmdArgsPFvS1_EE
	.loc 5 220 0
	lis 4,.LC270@ha
	lis 7,.LC271@ha
	addi 3,31,7144
	mr 5,28
	la 4,.LC270@l(4)
	la 7,.LC271@l(7)
	li 6,129
	li 8,0
	bl _ZN6idCVarC1EPKcS1_iS1_PFvRK9idCmdArgsPFvS1_EE
	.loc 5 222 0
	lis 4,.LC272@ha
	lis 7,.LC273@ha
	addi 3,31,7196
	mr 5,30
	la 4,.LC272@l(4)
	la 7,.LC273@l(7)
	li 6,129
	li 8,0
	bl _ZN6idCVarC1EPKcS1_iS1_PFvRK9idCmdArgsPFvS1_EE
	.loc 5 223 0
	lis 4,.LC274@ha
	lis 7,.LC275@ha
	addi 3,31,7248
	mr 5,30
	la 4,.LC274@l(4)
	la 7,.LC275@l(7)
	li 6,129
	li 8,0
	bl _ZN6idCVarC1EPKcS1_iS1_PFvRK9idCmdArgsPFvS1_EE
	.loc 5 224 0
	lis 4,.LC276@ha
	lis 7,.LC277@ha
	addi 3,31,7300
	mr 5,30
	la 4,.LC276@l(4)
	la 7,.LC277@l(7)
	li 6,129
	li 8,0
	bl _ZN6idCVarC1EPKcS1_iS1_PFvRK9idCmdArgsPFvS1_EE
	.loc 5 225 0
	lis 4,.LC278@ha
	lis 7,.LC279@ha
	addi 3,31,7352
	mr 5,30
	la 4,.LC278@l(4)
	la 7,.LC279@l(7)
	li 6,129
	li 8,0
	bl _ZN6idCVarC1EPKcS1_iS1_PFvRK9idCmdArgsPFvS1_EE
	.loc 5 226 0
	lis 4,.LC280@ha
	lis 7,.LC281@ha
	addi 3,31,7404
	mr 5,30
	la 4,.LC280@l(4)
	la 7,.LC281@l(7)
	li 6,129
	li 8,0
	bl _ZN6idCVarC1EPKcS1_iS1_PFvRK9idCmdArgsPFvS1_EE
	.loc 5 227 0
	lis 4,.LC282@ha
	lis 7,.LC283@ha
	addi 3,31,7456
	mr 5,30
	la 4,.LC282@l(4)
	la 7,.LC283@l(7)
	li 6,129
	li 8,0
	bl _ZN6idCVarC1EPKcS1_iS1_PFvRK9idCmdArgsPFvS1_EE
	.loc 5 230 0
	lis 4,.LC284@ha
	lis 5,.LC285@ha
	lis 7,.LC286@ha
	addi 3,31,7508
	la 4,.LC284@l(4)
	la 5,.LC285@l(5)
	la 7,.LC286@l(7)
	li 6,2180
	li 8,0
	bl _ZN6idCVarC1EPKcS1_iS1_PFvRK9idCmdArgsPFvS1_EE
	.loc 5 231 0
	lis 4,.LC287@ha
	lis 5,.LC288@ha
	lis 7,.LC289@ha
	addi 3,31,7560
	la 4,.LC287@l(4)
	la 5,.LC288@l(5)
	la 7,.LC289@l(7)
	li 6,2180
	li 8,0
	bl _ZN6idCVarC1EPKcS1_iS1_PFvRK9idCmdArgsPFvS1_EE
	.loc 5 232 0
	lis 4,.LC290@ha
	lis 7,.LC292@ha
	addi 3,31,7612
	mr 5,24
	la 4,.LC290@l(4)
	la 7,.LC292@l(7)
	li 6,2180
	li 8,0
	bl _ZN6idCVarC1EPKcS1_iS1_PFvRK9idCmdArgsPFvS1_EE
	.loc 5 233 0
	lis 4,.LC293@ha
	lis 5,.LC294@ha
	lis 7,.LC295@ha
	addi 3,31,7664
	la 4,.LC293@l(4)
	la 5,.LC294@l(5)
	la 7,.LC295@l(7)
	li 6,2180
	li 8,0
	bl _ZN6idCVarC1EPKcS1_iS1_PFvRK9idCmdArgsPFvS1_EE
	.loc 5 234 0
	lis 4,.LC296@ha
	lis 5,.LC297@ha
	lis 7,.LC298@ha
	addi 3,31,7716
	la 4,.LC296@l(4)
	la 5,.LC297@l(5)
	la 7,.LC298@l(7)
	li 6,2180
	li 8,0
	bl _ZN6idCVarC1EPKcS1_iS1_PFvRK9idCmdArgsPFvS1_EE
	.loc 5 235 0
	lis 4,.LC299@ha
	lis 7,.LC300@ha
	addi 3,31,7768
	mr 5,20
	la 4,.LC299@l(4)
	la 7,.LC300@l(7)
	li 6,2180
	li 8,0
	bl _ZN6idCVarC1EPKcS1_iS1_PFvRK9idCmdArgsPFvS1_EE
	.loc 5 236 0
	lis 4,.LC301@ha
	lis 5,.LC302@ha
	lis 7,.LC303@ha
	addi 3,31,7820
	la 4,.LC301@l(4)
	la 5,.LC302@l(5)
	la 7,.LC303@l(7)
	li 6,2180
	li 8,0
	bl _ZN6idCVarC1EPKcS1_iS1_PFvRK9idCmdArgsPFvS1_EE
	.loc 5 237 0
	lis 4,.LC304@ha
	lis 7,.LC305@ha
	addi 3,31,7872
	mr 5,26
	la 4,.LC304@l(4)
	la 7,.LC305@l(7)
	li 6,2180
	li 8,0
	bl _ZN6idCVarC1EPKcS1_iS1_PFvRK9idCmdArgsPFvS1_EE
	.loc 5 238 0
	lis 4,.LC306@ha
	lis 7,.LC307@ha
	addi 3,31,7924
	mr 5,30
	la 4,.LC306@l(4)
	la 7,.LC307@l(7)
	li 6,2177
	li 8,0
	bl _ZN6idCVarC1EPKcS1_iS1_PFvRK9idCmdArgsPFvS1_EE
	.loc 5 239 0
	lis 4,.LC308@ha
	lis 5,.LC309@ha
	lis 7,.LC310@ha
	addi 3,31,7976
	la 4,.LC308@l(4)
	la 5,.LC309@l(5)
	la 7,.LC310@l(7)
	li 6,2180
	li 8,0
	bl _ZN6idCVarC1EPKcS1_iS1_PFvRK9idCmdArgsPFvS1_EE
	.loc 5 240 0
	lis 4,.LC311@ha
	lis 5,.LC312@ha
	lis 7,.LC313@ha
	addi 3,31,8028
	la 4,.LC311@l(4)
	la 5,.LC312@l(5)
	la 7,.LC313@l(7)
	li 6,2180
	li 8,0
	bl _ZN6idCVarC1EPKcS1_iS1_PFvRK9idCmdArgsPFvS1_EE
	.loc 5 241 0
	lis 4,.LC314@ha
	lis 5,.LC315@ha
	lis 7,.LC316@ha
	addi 3,31,8080
	la 4,.LC314@l(4)
	la 5,.LC315@l(5)
	la 7,.LC316@l(7)
	li 6,2180
	li 8,0
	bl _ZN6idCVarC1EPKcS1_iS1_PFvRK9idCmdArgsPFvS1_EE
	.loc 5 242 0
	lis 4,.LC317@ha
	lis 5,.LC318@ha
	lis 7,.LC319@ha
	addi 3,31,8132
	la 4,.LC317@l(4)
	la 5,.LC318@l(5)
	la 7,.LC319@l(7)
	li 6,2180
	li 8,0
	bl _ZN6idCVarC1EPKcS1_iS1_PFvRK9idCmdArgsPFvS1_EE
	.loc 5 243 0
	lis 4,.LC320@ha
	lis 5,.LC321@ha
	lis 7,.LC322@ha
	addi 3,31,8184
	la 4,.LC320@l(4)
	la 5,.LC321@l(5)
	la 7,.LC322@l(7)
	li 6,2180
	li 8,0
	bl _ZN6idCVarC1EPKcS1_iS1_PFvRK9idCmdArgsPFvS1_EE
	.loc 5 244 0
	lis 4,.LC323@ha
	lis 5,.LC324@ha
	lis 7,.LC325@ha
	addi 3,31,8236
	la 4,.LC323@l(4)
	la 5,.LC324@l(5)
	la 7,.LC325@l(7)
	li 6,2180
	li 8,0
	bl _ZN6idCVarC1EPKcS1_iS1_PFvRK9idCmdArgsPFvS1_EE
	.loc 5 245 0
	lis 4,.LC326@ha
	lis 7,.LC327@ha
	addi 3,31,8288
	mr 5,26
	la 4,.LC326@l(4)
	la 7,.LC327@l(7)
	li 6,2180
	li 8,0
	bl _ZN6idCVarC1EPKcS1_iS1_PFvRK9idCmdArgsPFvS1_EE
	.loc 5 246 0
	lis 4,.LC328@ha
	lis 5,.LC329@ha
	lis 7,.LC330@ha
	addi 3,31,8340
	la 4,.LC328@l(4)
	la 5,.LC329@l(5)
	la 7,.LC330@l(7)
	li 6,2180
	li 8,0
	bl _ZN6idCVarC1EPKcS1_iS1_PFvRK9idCmdArgsPFvS1_EE
	.loc 5 247 0
	lis 4,.LC331@ha
	lis 5,.LC332@ha
	lis 7,.LC333@ha
	addi 3,31,8392
	la 4,.LC331@l(4)
	la 5,.LC332@l(5)
	la 7,.LC333@l(7)
	li 6,2180
	li 8,0
	bl _ZN6idCVarC1EPKcS1_iS1_PFvRK9idCmdArgsPFvS1_EE
	.loc 5 248 0
	lis 4,.LC334@ha
	lis 7,.LC335@ha
	addi 3,31,8444
	mr 5,21
	la 4,.LC334@l(4)
	la 7,.LC335@l(7)
	li 6,2180
	li 8,0
	bl _ZN6idCVarC1EPKcS1_iS1_PFvRK9idCmdArgsPFvS1_EE
	.loc 5 249 0
	lis 4,.LC336@ha
	lis 7,.LC337@ha
	addi 3,31,8496
	mr 5,27
	la 4,.LC336@l(4)
	la 7,.LC337@l(7)
	li 6,2180
	li 8,0
	bl _ZN6idCVarC1EPKcS1_iS1_PFvRK9idCmdArgsPFvS1_EE
	.loc 5 250 0
	lis 4,.LC338@ha
	lis 5,.LC339@ha
	lis 7,.LC340@ha
	addi 3,31,8548
	la 4,.LC338@l(4)
	la 5,.LC339@l(5)
	la 7,.LC340@l(7)
	li 6,2180
	li 8,0
	bl _ZN6idCVarC1EPKcS1_iS1_PFvRK9idCmdArgsPFvS1_EE
	.loc 5 251 0
	lis 4,.LC341@ha
	lis 7,.LC342@ha
	addi 3,31,8600
	mr 5,26
	la 4,.LC341@l(4)
	la 7,.LC342@l(7)
	li 6,2180
	li 8,0
	.loc 5 255 0
	lis 26,.LC351@ha
	.loc 5 251 0
	bl _ZN6idCVarC1EPKcS1_iS1_PFvRK9idCmdArgsPFvS1_EE
	.loc 5 252 0
	lis 4,.LC343@ha
	lis 7,.LC344@ha
	addi 3,31,8652
	mr 5,25
	la 4,.LC343@l(4)
	la 7,.LC344@l(7)
	li 6,2180
	li 8,0
	.loc 5 255 0
	la 26,.LC351@l(26)
	.loc 5 252 0
	bl _ZN6idCVarC1EPKcS1_iS1_PFvRK9idCmdArgsPFvS1_EE
	.loc 5 253 0
	lis 4,.LC345@ha
	lis 7,.LC346@ha
	addi 3,31,8704
	mr 5,22
	la 4,.LC345@l(4)
	la 7,.LC346@l(7)
	li 6,2180
	li 8,0
	.loc 5 256 0
	lis 25,.LC353@ha
	.loc 5 253 0
	bl _ZN6idCVarC1EPKcS1_iS1_PFvRK9idCmdArgsPFvS1_EE
	.loc 5 254 0
	lis 4,.LC347@ha
	lis 5,.LC348@ha
	lis 7,.LC349@ha
	addi 3,31,8756
	la 4,.LC347@l(4)
	la 5,.LC348@l(5)
	la 7,.LC349@l(7)
	li 6,2180
	li 8,0
	bl _ZN6idCVarC1EPKcS1_iS1_PFvRK9idCmdArgsPFvS1_EE
	.loc 5 255 0
	lis 4,.LC350@ha
	addi 3,31,8808
	mr 5,26
	mr 7,29
	la 4,.LC350@l(4)
	li 6,2180
	li 8,0
	bl _ZN6idCVarC1EPKcS1_iS1_PFvRK9idCmdArgsPFvS1_EE
	.loc 5 256 0
	la 25,.LC353@l(25)
	lis 4,.LC352@ha
	addi 3,31,8860
	mr 5,25
	mr 7,29
	la 4,.LC352@l(4)
	li 6,2180
	li 8,0
	bl _ZN6idCVarC1EPKcS1_iS1_PFvRK9idCmdArgsPFvS1_EE
	.loc 5 257 0
	lis 4,.LC354@ha
	addi 3,31,8912
	mr 5,25
	mr 7,29
	la 4,.LC354@l(4)
	li 6,2180
	li 8,0
	bl _ZN6idCVarC1EPKcS1_iS1_PFvRK9idCmdArgsPFvS1_EE
	.loc 5 258 0
	lis 4,.LC355@ha
	addi 3,31,8964
	mr 5,26
	mr 7,29
	la 4,.LC355@l(4)
	li 6,2180
	li 8,0
	bl _ZN6idCVarC1EPKcS1_iS1_PFvRK9idCmdArgsPFvS1_EE
	.loc 5 259 0
	lis 4,.LC356@ha
	addi 3,31,9016
	mr 5,26
	mr 7,29
	la 4,.LC356@l(4)
	li 6,2180
	li 8,0
	bl _ZN6idCVarC1EPKcS1_iS1_PFvRK9idCmdArgsPFvS1_EE
	.loc 5 260 0
	lis 4,.LC357@ha
	lis 7,.LC358@ha
	addi 3,31,9068
	mr 5,24
	la 4,.LC357@l(4)
	la 7,.LC358@l(7)
	li 6,2180
	li 8,0
	bl _ZN6idCVarC1EPKcS1_iS1_PFvRK9idCmdArgsPFvS1_EE
	.loc 5 261 0
	lis 4,.LC359@ha
	lis 7,.LC360@ha
	addi 3,31,9120
	mr 5,30
	la 4,.LC359@l(4)
	la 7,.LC360@l(7)
	li 6,2180
	li 8,0
	bl _ZN6idCVarC1EPKcS1_iS1_PFvRK9idCmdArgsPFvS1_EE
	.loc 5 262 0
	lis 4,.LC361@ha
	lis 7,.LC362@ha
	addi 3,31,9172
	mr 5,30
	la 4,.LC361@l(4)
	la 7,.LC362@l(7)
	li 6,2180
	li 8,0
	bl _ZN6idCVarC1EPKcS1_iS1_PFvRK9idCmdArgsPFvS1_EE
	.loc 5 263 0
	lis 4,.LC363@ha
	lis 7,.LC364@ha
	addi 3,31,9224
	mr 5,28
	la 4,.LC363@l(4)
	la 7,.LC364@l(7)
	li 6,2177
	li 8,0
	bl _ZN6idCVarC1EPKcS1_iS1_PFvRK9idCmdArgsPFvS1_EE
	.loc 5 264 0
	lis 4,.LC365@ha
	lis 7,.LC366@ha
	addi 3,31,9276
	mr 5,30
	la 4,.LC365@l(4)
	la 7,.LC366@l(7)
	li 6,2177
	li 8,0
	bl _ZN6idCVarC1EPKcS1_iS1_PFvRK9idCmdArgsPFvS1_EE
	.loc 5 265 0
	lis 4,.LC367@ha
	lis 7,.LC368@ha
	addi 3,31,9328
	mr 5,30
	la 4,.LC367@l(4)
	la 7,.LC368@l(7)
	li 6,2177
	li 8,0
	bl _ZN6idCVarC1EPKcS1_iS1_PFvRK9idCmdArgsPFvS1_EE
	.loc 5 266 0
	fmr 2,30
	lis 9,.LC446@ha
	lis 4,.LC369@ha
	lfs 1,.LC446@l(9)
	lis 7,.LC370@ha
	addi 3,31,9380
	mr 5,30
	mr 8,23
	la 4,.LC369@l(4)
	la 7,.LC370@l(7)
	li 6,2178
	bl _ZN6idCVarC1EPKcS1_iS1_ffPFvRK9idCmdArgsPFvS1_EE
	.loc 5 267 0
	lis 4,.LC371@ha
	lis 5,.LC372@ha
	lis 7,.LC373@ha
	addi 3,31,9432
	la 4,.LC371@l(4)
	la 5,.LC372@l(5)
	la 7,.LC373@l(7)
	li 6,2178
	li 8,0
	bl _ZN6idCVarC1EPKcS1_iS1_PFvRK9idCmdArgsPFvS1_EE
	.loc 5 269 0
	lis 4,.LC374@ha
	lis 6,0x2
	lis 7,.LC375@ha
	addi 3,31,9484
	mr 5,30
	la 4,.LC374@l(4)
	ori 6,6,129
	la 7,.LC375@l(7)
	li 8,0
	bl _ZN6idCVarC1EPKcS1_iS1_PFvRK9idCmdArgsPFvS1_EE
	.loc 5 270 0
	lis 4,.LC376@ha
	lis 6,0x2
	addi 3,31,9536
	mr 5,28
	mr 7,29
	la 4,.LC376@l(4)
	ori 6,6,129
	li 8,0
	bl _ZN6idCVarC1EPKcS1_iS1_PFvRK9idCmdArgsPFvS1_EE
	.loc 5 271 0
	lis 4,.LC377@ha
	lis 6,0x2
	lis 7,.LC378@ha
	addi 3,31,9588
	mr 5,30
	la 4,.LC377@l(4)
	ori 6,6,129
	la 7,.LC378@l(7)
	li 8,0
	bl _ZN6idCVarC1EPKcS1_iS1_PFvRK9idCmdArgsPFvS1_EE
	.loc 5 272 0
	lis 4,.LC379@ha
	lis 6,0x2
	lis 7,.LC380@ha
	addi 3,31,9640
	mr 5,28
	la 4,.LC379@l(4)
	ori 6,6,129
	la 7,.LC380@l(7)
	li 8,0
	bl _ZN6idCVarC1EPKcS1_iS1_PFvRK9idCmdArgsPFvS1_EE
	.loc 5 273 0
	lis 4,.LC381@ha
	addi 3,31,9692
	mr 5,30
	mr 7,29
	la 4,.LC381@l(4)
	li 6,132
	li 8,0
	bl _ZN6idCVarC1EPKcS1_iS1_PFvRK9idCmdArgsPFvS1_EE
	.loc 5 274 0
	lis 4,.LC382@ha
	addi 3,31,9744
	mr 5,30
	mr 7,29
	la 4,.LC382@l(4)
	li 6,132
	li 8,0
	bl _ZN6idCVarC1EPKcS1_iS1_PFvRK9idCmdArgsPFvS1_EE
	.loc 5 275 0
	lis 4,.LC383@ha
	addi 3,31,9796
	mr 5,30
	mr 7,29
	la 4,.LC383@l(4)
	li 6,132
	li 8,0
	bl _ZN6idCVarC1EPKcS1_iS1_PFvRK9idCmdArgsPFvS1_EE
	.loc 5 276 0
	lis 4,.LC384@ha
	addi 3,31,9848
	mr 5,30
	mr 7,29
	la 4,.LC384@l(4)
	li 6,132
	li 8,0
	bl _ZN6idCVarC1EPKcS1_iS1_PFvRK9idCmdArgsPFvS1_EE
	.loc 5 277 0
	lis 4,.LC385@ha
	addi 3,31,9900
	mr 5,30
	mr 7,29
	la 4,.LC385@l(4)
	li 6,132
	li 8,0
	bl _ZN6idCVarC1EPKcS1_iS1_PFvRK9idCmdArgsPFvS1_EE
	.loc 5 278 0
	lis 4,.LC386@ha
	lis 5,.LC387@ha
	addi 3,31,9952
	mr 7,29
	la 4,.LC386@l(4)
	la 5,.LC387@l(5)
	li 6,16514
	li 8,0
	bl _ZN6idCVarC1EPKcS1_iS1_PFvRK9idCmdArgsPFvS1_EE
	.loc 5 279 0
	lis 4,.LC388@ha
	lis 7,.LC389@ha
	addi 3,31,10004
	mr 5,30
	la 4,.LC388@l(4)
	la 7,.LC389@l(7)
	li 6,129
	li 8,0
	bl _ZN6idCVarC1EPKcS1_iS1_PFvRK9idCmdArgsPFvS1_EE
	.loc 5 280 0
	lis 4,.LC390@ha
	lis 7,.LC391@ha
	addi 3,31,10056
	mr 5,30
	la 4,.LC390@l(4)
	la 7,.LC391@l(7)
	li 6,132
	li 8,0
	bl _ZN6idCVarC1EPKcS1_iS1_PFvRK9idCmdArgsPFvS1_EE
	.loc 5 282 0
	lis 4,.LC392@ha
	lis 7,.LC393@ha
	addi 3,31,10108
	mr 5,30
	la 4,.LC392@l(4)
	la 7,.LC393@l(7)
	li 6,130
	li 8,0
	bl _ZN6idCVarC1EPKcS1_iS1_PFvRK9idCmdArgsPFvS1_EE
	.loc 5 283 0
	lis 4,.LC394@ha
	lis 7,.LC395@ha
	addi 3,31,10160
	mr 5,29
	la 4,.LC394@l(4)
	la 7,.LC395@l(7)
	li 6,128
	li 8,0
	bl _ZN6idCVarC1EPKcS1_iS1_PFvRK9idCmdArgsPFvS1_EE
	.loc 5 284 0
	lis 4,.LC396@ha
	lis 7,.LC397@ha
	addi 3,31,10212
	mr 5,30
	la 4,.LC396@l(4)
	la 7,.LC397@l(7)
	li 6,128
	li 8,0
	bl _ZN6idCVarC1EPKcS1_iS1_PFvRK9idCmdArgsPFvS1_EE
	.loc 5 285 0
	lis 4,.LC398@ha
	lis 7,.LC399@ha
	addi 3,31,10264
	mr 5,29
	la 4,.LC398@l(4)
	la 7,.LC399@l(7)
	li 6,128
	li 8,0
	bl _ZN6idCVarC1EPKcS1_iS1_PFvRK9idCmdArgsPFvS1_EE
	.loc 5 286 0
	lis 9,.LC446@ha
	fmr 2,28
	lfs 1,.LC446@l(9)
	lis 4,.LC400@ha
	lis 7,.LC401@ha
	lis 8,_ZN11idCmdSystem21ArgCompletion_IntegerILi0ELi4EEEvRK9idCmdArgsPFvPKcE@ha
	addi 3,31,10316
	mr 5,30
	la 4,.LC400@l(4)
	la 7,.LC401@l(7)
	la 8,_ZN11idCmdSystem21ArgCompletion_IntegerILi0ELi4EEEvRK9idCmdArgsPFvPKcE@l(8)
	li 6,130
	bl _ZN6idCVarC1EPKcS1_iS1_ffPFvRK9idCmdArgsPFvS1_EE
	.loc 5 292 0
	lis 4,.LC402@ha
	lis 7,.LC403@ha
	addi 3,31,10368
	mr 5,30
	la 4,.LC402@l(4)
	la 7,.LC403@l(7)
	li 6,130
	li 8,0
	bl _ZN6idCVarC1EPKcS1_iS1_PFvRK9idCmdArgsPFvS1_EE
	.loc 5 293 0
	lis 4,.LC404@ha
	addi 3,31,10420
	mr 5,30
	mr 7,29
	la 4,.LC404@l(4)
	li 6,129
	li 8,0
	bl _ZN6idCVarC1EPKcS1_iS1_PFvRK9idCmdArgsPFvS1_EE
	.loc 5 294 0
	lis 4,.LC405@ha
	addi 3,31,10472
	mr 5,29
	mr 7,29
	la 4,.LC405@l(4)
	li 6,128
	li 8,0
	bl _ZN6idCVarC1EPKcS1_iS1_PFvRK9idCmdArgsPFvS1_EE
	.loc 5 295 0
	lis 4,.LC406@ha
	lis 7,.LC407@ha
	addi 3,31,10524
	mr 5,30
	la 4,.LC406@l(4)
	la 7,.LC407@l(7)
	li 6,129
	li 8,0
	bl _ZN6idCVarC1EPKcS1_iS1_PFvRK9idCmdArgsPFvS1_EE
	.loc 5 297 0
	lis 4,.LC408@ha
	addi 3,31,10576
	mr 5,30
	mr 7,29
	la 4,.LC408@l(4)
	li 6,130
	li 8,0
	bl _ZN6idCVarC1EPKcS1_iS1_PFvRK9idCmdArgsPFvS1_EE
	.loc 5 298 0
	lis 4,.LC409@ha
	addi 3,31,10628
	mr 5,30
	mr 7,29
	la 4,.LC409@l(4)
	li 6,129
	li 8,0
	bl _ZN6idCVarC1EPKcS1_iS1_PFvRK9idCmdArgsPFvS1_EE
	.loc 5 299 0
	lis 4,.LC410@ha
	addi 3,31,10680
	mr 5,30
	mr 7,29
	la 4,.LC410@l(4)
	li 6,130
	li 8,0
	bl _ZN6idCVarC1EPKcS1_iS1_PFvRK9idCmdArgsPFvS1_EE
	.loc 5 300 0
	lis 4,.LC411@ha
	addi 3,31,10732
	mr 5,30
	mr 7,29
	la 4,.LC411@l(4)
	li 6,130
	li 8,0
	bl _ZN6idCVarC1EPKcS1_iS1_PFvRK9idCmdArgsPFvS1_EE
	.loc 5 301 0
	lis 4,.LC412@ha
	addi 3,31,10784
	mr 5,30
	mr 7,29
	la 4,.LC412@l(4)
	li 6,129
	li 8,0
	bl _ZN6idCVarC1EPKcS1_iS1_PFvRK9idCmdArgsPFvS1_EE
	.loc 5 302 0
	lis 4,.LC413@ha
	addi 3,31,10836
	mr 5,30
	mr 7,29
	la 4,.LC413@l(4)
	li 6,130
	li 8,0
	bl _ZN6idCVarC1EPKcS1_iS1_PFvRK9idCmdArgsPFvS1_EE
	.loc 5 303 0
	lis 4,.LC414@ha
	addi 3,31,10888
	mr 5,30
	mr 7,29
	la 4,.LC414@l(4)
	li 6,130
	li 8,0
	bl _ZN6idCVarC1EPKcS1_iS1_PFvRK9idCmdArgsPFvS1_EE
	.loc 5 304 0
	lis 4,.LC415@ha
	addi 3,31,10940
	mr 5,30
	mr 7,29
	la 4,.LC415@l(4)
	li 6,129
	li 8,0
	bl _ZN6idCVarC1EPKcS1_iS1_PFvRK9idCmdArgsPFvS1_EE
	.loc 5 305 0
	lis 4,.LC416@ha
	addi 3,31,10992
	mr 5,30
	mr 7,29
	la 4,.LC416@l(4)
	li 6,130
	li 8,0
	bl _ZN6idCVarC1EPKcS1_iS1_PFvRK9idCmdArgsPFvS1_EE
	.loc 5 306 0
	lis 4,.LC417@ha
	addi 3,31,11044
	mr 5,30
	mr 7,29
	la 4,.LC417@l(4)
	li 6,129
	li 8,0
	bl _ZN6idCVarC1EPKcS1_iS1_PFvRK9idCmdArgsPFvS1_EE
	.loc 5 308 0
	lis 4,.LC418@ha
	lis 6,0x2
	lis 7,.LC419@ha
	addi 3,31,11096
	mr 5,29
	la 4,.LC418@l(4)
	ori 6,6,128
	la 7,.LC419@l(7)
	li 8,0
	bl _ZN6idCVarC1EPKcS1_iS1_PFvRK9idCmdArgsPFvS1_EE
	.loc 5 309 0
	lis 4,.LC420@ha
	lis 7,.LC421@ha
	addi 3,31,11148
	mr 5,29
	la 4,.LC420@l(4)
	la 7,.LC421@l(7)
	li 6,16512
	li 8,0
	bl _ZN6idCVarC1EPKcS1_iS1_PFvRK9idCmdArgsPFvS1_EE
	.loc 5 311 0
	fmr 1,28
	fmr 2,29
	lis 4,.LC422@ha
	lis 6,0x2
	lis 7,.LC423@ha
	addi 3,31,11200
	mr 5,27
	la 4,.LC422@l(4)
	ori 6,6,130
	la 7,.LC423@l(7)
	li 8,0
	bl _ZN6idCVarC1EPKcS1_iS1_ffPFvRK9idCmdArgsPFvS1_EE
	.loc 5 312 0
	fmr 1,30
	fmr 2,29
	lis 4,.LC424@ha
	lis 6,0x2
	lis 7,.LC425@ha
	addi 3,31,11252
	mr 5,27
	la 4,.LC424@l(4)
	ori 6,6,2178
	la 7,.LC425@l(7)
	li 8,0
	bl _ZN6idCVarC1EPKcS1_iS1_ffPFvRK9idCmdArgsPFvS1_EE
	.loc 5 313 0
	lis 4,.LC426@ha
	lis 7,.LC427@ha
	addi 3,31,11304
	mr 5,28
	la 4,.LC426@l(4)
	la 7,.LC427@l(7)
	li 6,2177
	li 8,0
	bl _ZN6idCVarC1EPKcS1_iS1_PFvRK9idCmdArgsPFvS1_EE
	.loc 5 314 0
	lis 4,.LC428@ha
	lis 7,.LC429@ha
	addi 3,31,11356
	mr 5,28
	la 4,.LC428@l(4)
	la 7,.LC429@l(7)
	li 6,129
	li 8,0
	bl _ZN6idCVarC1EPKcS1_iS1_PFvRK9idCmdArgsPFvS1_EE
	.loc 5 316 0
	lis 4,.LC430@ha
	lis 7,.LC431@ha
	addi 3,31,11408
	mr 5,28
	la 4,.LC430@l(4)
	la 7,.LC431@l(7)
	li 6,129
	li 8,0
	bl _ZN6idCVarC1EPKcS1_iS1_PFvRK9idCmdArgsPFvS1_EE
	.loc 5 318 0
	lis 4,.LC432@ha
	lis 6,0x2
	lis 7,.LC433@ha
	addi 3,31,11460
	mr 5,30
	la 4,.LC432@l(4)
	ori 6,6,2178
	la 7,.LC433@l(7)
	li 8,0
	bl _ZN6idCVarC1EPKcS1_iS1_PFvRK9idCmdArgsPFvS1_EE
	.loc 5 327 0
	lis 4,.LC434@ha
	lis 5,.LC435@ha
	lis 6,0x2
	lis 7,.LC436@ha
	addi 3,31,11512
	la 4,.LC434@l(4)
	la 5,.LC435@l(5)
	ori 6,6,128
	la 7,.LC436@l(7)
	li 8,0
	bl _ZN6idCVarC1EPKcS1_iS1_PFvRK9idCmdArgsPFvS1_EE
	.loc 5 329 0
	lis 4,.LC437@ha
	lis 5,.LC438@ha
	lis 6,0x2
	lis 7,.LC439@ha
	addi 3,31,11564
	la 4,.LC437@l(4)
	la 5,.LC438@l(5)
	ori 6,6,128
	la 7,.LC439@l(7)
	li 8,0
	bl _ZN6idCVarC1EPKcS1_iS1_PFvRK9idCmdArgsPFvS1_EE
	.loc 5 331 0
	lis 4,.LC440@ha
	lis 6,0x2
	lis 7,.LC441@ha
	addi 3,31,11616
	mr 5,30
	la 4,.LC440@l(4)
	ori 6,6,130
	la 7,.LC441@l(7)
	li 8,0
	bl _ZN6idCVarC1EPKcS1_iS1_PFvRK9idCmdArgsPFvS1_EE
	.loc 5 332 0
	lis 4,.LC442@ha
	lis 6,0x2
	lis 7,.LC443@ha
	addi 3,31,11668
	mr 5,29
	la 4,.LC442@l(4)
	ori 6,6,128
	la 7,.LC443@l(7)
	li 8,0
	bl _ZN6idCVarC1EPKcS1_iS1_PFvRK9idCmdArgsPFvS1_EE
	.loc 5 333 0
	lis 4,.LC444@ha
	lis 6,0x2
	lis 7,.LC445@ha
	addi 3,31,11720
	la 4,.LC444@l(4)
	mr 5,29
	ori 6,6,128
	la 7,.LC445@l(7)
	li 8,0
	bl _ZN6idCVarC1EPKcS1_iS1_PFvRK9idCmdArgsPFvS1_EE
	b .L95
	.cfi_endproc
.LFE3119:
	.size	_Z41__static_initialization_and_destruction_0ii.constprop.14, .-_Z41__static_initialization_and_destruction_0ii.constprop.14
	.section	.text.startup,"ax",@progbits
	.align 2
	.type	_GLOBAL__sub_I_si_gameTypeArgs, @function
_GLOBAL__sub_I_si_gameTypeArgs:
.LFB3103:
	.loc 5 333 0
	.cfi_startproc
	.loc 5 333 0
	li 3,1
	b _Z41__static_initialization_and_destruction_0ii.constprop.14
	.cfi_endproc
.LFE3103:
	.size	_GLOBAL__sub_I_si_gameTypeArgs, .-_GLOBAL__sub_I_si_gameTypeArgs
	.section	.ctors,"aw",@progbits
	.align 2
	.long	_GLOBAL__sub_I_si_gameTypeArgs
	.section	.text.exit,"ax",@progbits
	.align 2
	.type	_GLOBAL__sub_D_si_gameTypeArgs, @function
_GLOBAL__sub_D_si_gameTypeArgs:
.LFB3104:
	.loc 5 333 0
	.cfi_startproc
	.loc 5 333 0
	li 3,0
	b _Z41__static_initialization_and_destruction_0ii.constprop.14
	.cfi_endproc
.LFE3104:
	.size	_GLOBAL__sub_D_si_gameTypeArgs, .-_GLOBAL__sub_D_si_gameTypeArgs
	.section	.dtors,"aw",@progbits
	.align 2
	.long	_GLOBAL__sub_D_si_gameTypeArgs
	.weak	_ZTS9idWinding
	.section	.rodata._ZTS9idWinding,"aG",@progbits,_ZTS9idWinding,comdat
	.align 2
	.type	_ZTS9idWinding, @object
	.size	_ZTS9idWinding, 11
_ZTS9idWinding:
	.string	"9idWinding"
	.weak	_ZTI9idWinding
	.section	.sdata._ZTI9idWinding,"awG",@progbits,_ZTI9idWinding,comdat
	.align 2
	.type	_ZTI9idWinding, @object
	.size	_ZTI9idWinding, 8
_ZTI9idWinding:
	.long	_ZTVN10__cxxabiv117__class_type_infoE+8
	.long	_ZTS9idWinding
	.weak	_ZTS14idFixedWinding
	.section	.rodata._ZTS14idFixedWinding,"aG",@progbits,_ZTS14idFixedWinding,comdat
	.align 2
	.type	_ZTS14idFixedWinding, @object
	.size	_ZTS14idFixedWinding, 17
_ZTS14idFixedWinding:
	.string	"14idFixedWinding"
	.weak	_ZTI14idFixedWinding
	.section	.rodata._ZTI14idFixedWinding,"aG",@progbits,_ZTI14idFixedWinding,comdat
	.align 2
	.type	_ZTI14idFixedWinding, @object
	.size	_ZTI14idFixedWinding, 12
_ZTI14idFixedWinding:
	.long	_ZTVN10__cxxabiv120__si_class_type_infoE+8
	.long	_ZTS14idFixedWinding
	.long	_ZTI9idWinding
	.weak	_ZTV9idWinding
	.section	.rodata._ZTV9idWinding,"aG",@progbits,_ZTV9idWinding,comdat
	.align 3
	.type	_ZTV9idWinding, @object
	.size	_ZTV9idWinding, 24
_ZTV9idWinding:
	.long	0
	.long	_ZTI9idWinding
	.long	_ZN9idWindingD1Ev
	.long	_ZN9idWindingD0Ev
	.long	_ZN9idWinding5ClearEv
	.long	_ZN9idWinding10ReAllocateEib
	.weak	_ZTV14idFixedWinding
	.section	.rodata._ZTV14idFixedWinding,"aG",@progbits,_ZTV14idFixedWinding,comdat
	.align 3
	.type	_ZTV14idFixedWinding, @object
	.size	_ZTV14idFixedWinding, 24
_ZTV14idFixedWinding:
	.long	0
	.long	_ZTI14idFixedWinding
	.long	_ZN14idFixedWindingD1Ev
	.long	_ZN14idFixedWindingD0Ev
	.long	_ZN14idFixedWinding5ClearEv
	.long	_ZN14idFixedWinding10ReAllocateEib
	.globl net_serverDlTable
	.globl net_serverDlBaseURL
	.globl net_serverDownload
	.globl mod_validSkins
	.globl g_mapCycle
	.globl g_voteFlags
	.globl net_clientPredictGUI
	.globl g_balanceTDM
	.globl g_TDMArrows
	.globl g_gameReviewPause
	.globl g_countDown
	.globl password
	.globl g_password
	.globl aas_showPushIntoArea
	.globl aas_goalArea
	.globl aas_randomPullPlayer
	.globl aas_pullPlayer
	.globl aas_showHideArea
	.globl aas_showWallEdges
	.globl aas_showFlyPath
	.globl aas_showPath
	.globl aas_showAreas
	.globl aas_test
	.globl g_flushSave
	.globl g_exportMask
	.globl g_testDeath
	.globl g_testModelBlend
	.globl g_testModelAnimate
	.globl g_testPostProcess
	.globl g_testModelRotate
	.globl g_testParticleName
	.globl g_testParticle
	.globl g_mpWeaponAngleScale
	.globl g_skipViewEffects
	.globl g_fov
	.globl g_viewNodalZ
	.globl g_viewNodalX
	.globl g_gun_z
	.globl g_gun_y
	.globl g_gun_x
	.globl g_showBrass
	.globl g_showProjectilePct
	.globl g_showHud
	.globl g_showPlayerShadow
	.globl pm_airTics
	.globl pm_modelView
	.globl pm_thirdPersonDeath
	.globl pm_thirdPerson
	.globl pm_thirdPersonClip
	.globl pm_thirdPersonAngle
	.globl pm_thirdPersonHeight
	.globl pm_thirdPersonRange
	.globl pm_bobroll
	.globl pm_bobpitch
	.globl pm_bobup
	.globl pm_runroll
	.globl pm_runpitch
	.globl pm_runbob
	.globl pm_walkbob
	.globl pm_crouchbob
	.globl pm_bboxwidth
	.globl pm_crouchrate
	.globl pm_deadviewheight
	.globl pm_deadheight
	.globl pm_normalviewheight
	.globl pm_normalheight
	.globl pm_crouchviewheight
	.globl pm_crouchheight
	.globl pm_staminarate
	.globl pm_staminathreshold
	.globl pm_stamina
	.globl pm_maxviewpitch
	.globl pm_minviewpitch
	.globl pm_usecylinder
	.globl pm_spectatebbox
	.globl pm_spectatespeed
	.globl pm_noclipspeed
	.globl pm_runspeed
	.globl pm_walkspeed
	.globl pm_crouchspeed
	.globl pm_stepsize
	.globl pm_jumpheight
	.globl rb_showActive
	.globl rb_showVelocity
	.globl rb_showInertia
	.globl rb_showMass
	.globl rb_showBodies
	.globl rb_showTimings
	.globl af_testSolid
	.globl af_showActive
	.globl af_showVelocity
	.globl af_showInertia
	.globl af_showTotalMass
	.globl af_showMass
	.globl af_showBodyNames
	.globl af_showBodies
	.globl af_showLimits
	.globl af_showTrees
	.globl af_showPrimaryOnly
	.globl af_showConstrainedBodies
	.globl af_showConstraintNames
	.globl af_showConstraints
	.globl af_showTimings
	.globl af_highlightConstraint
	.globl af_highlightBody
	.globl af_contactFrictionScale
	.globl af_jointFrictionScale
	.globl af_timeScale
	.globl af_maxAngularVelocity
	.globl af_maxLinearVelocity
	.globl af_forceFriction
	.globl af_skipFriction
	.globl af_skipLimits
	.globl af_skipSelfCollision
	.globl af_useSymmetry
	.globl af_useJointImpulseFriction
	.globl af_useImpulseFriction
	.globl af_useLinearTime
	.globl ik_debug
	.globl ik_enable
	.globl g_vehicleTireFriction
	.globl g_vehicleSuspensionDamping
	.globl g_vehicleSuspensionKCompress
	.globl g_vehicleSuspensionDown
	.globl g_vehicleSuspensionUp
	.globl g_vehicleForce
	.globl g_vehicleVelocity
	.globl g_dropItemRotation
	.globl g_dragShowSelection
	.globl g_dragDamping
	.globl g_dragEntity
	.globl g_editEntityMode
	.globl g_testHealthVision
	.globl g_blobSize
	.globl g_blobTime
	.globl g_kickAmplitude
	.globl g_kickTime
	.globl g_dvFrequency
	.globl g_dvAmplitude
	.globl g_dvTime
	.globl ai_blockedFailSafe
	.globl ai_showObstacleAvoidance
	.globl ai_showPaths
	.globl ai_showCombatNodes
	.globl ai_testPredictPath
	.globl ai_debugTrajectory
	.globl ai_debugMove
	.globl ai_debugScript
	.globl g_timeentities
	.globl g_frametime
	.globl g_showEnemies
	.globl g_showActiveEntities
	.globl g_showTestModelFrame
	.globl g_showcamerainfo
	.globl g_showviewpos
	.globl g_showEntityInfo
	.globl g_maxShowDistance
	.globl g_showCollisionTraces
	.globl g_showCollisionModels
	.globl g_showCollisionWorld
	.globl g_showTriggers
	.globl g_showTargets
	.globl g_showPVS
	.globl g_healthTakeLimit
	.globl g_healthTakeAmt
	.globl g_healthTakeTime
	.globl g_useDynamicProtection
	.globl g_armorProtectionMP
	.globl g_armorProtection
	.globl g_damageScale
	.globl g_stopTime
	.globl g_debugCinematic
	.globl g_debugTriggers
	.globl g_debugMover
	.globl g_debugScript
	.globl g_debugWeapon
	.globl g_debugDamage
	.globl g_debugMove
	.globl g_debugAnim
	.globl g_debugBounds
	.globl g_disasm
	.globl g_skipParticles
	.globl g_skipFX
	.globl g_gravity
	.globl g_nightmare
	.globl g_skill
	.globl g_knockback
	.globl g_decals
	.globl g_monsters
	.globl g_doubleVision
	.globl g_bloodEffects
	.globl g_projectileLights
	.globl g_muzzleFlash
	.globl g_cinematicMaxSkipTime
	.globl g_cinematic
	.globl r_aspectRatio
	.globl developer
	.globl ui_chat
	.globl ui_spectate
	.globl ui_ready
	.globl ui_showGun
	.globl ui_autoReload
	.globl ui_autoSwitch
	.globl ui_team
	.globl ui_skin
	.globl ui_name
	.globl si_serverURL
	.globl si_spectators
	.globl si_pure
	.globl si_usePass
	.globl si_warmup
	.globl si_teamDamage
	.globl si_timeLimit
	.globl si_fragLimit
	.globl si_maxPlayers
	.globl si_map
	.globl si_gameType
	.globl si_name
	.globl gamedate
	.globl gamename
	.globl g_version
	.globl gameVersion
	.globl ui_teamArgs
	.globl ui_skinArgs
	.globl si_spectateArgs
	.globl si_readyArgs
	.globl si_gameTypeArgs
	.weak	_ZTV6idCVar
	.section	.rodata._ZTV6idCVar,"aG",@progbits,_ZTV6idCVar,comdat
	.align 3
	.type	_ZTV6idCVar, @object
	.size	_ZTV6idCVar, 32
_ZTV6idCVar:
	.long	0
	.long	_ZTI6idCVar
	.long	_ZN6idCVarD1Ev
	.long	_ZN6idCVarD0Ev
	.long	_ZN6idCVar17InternalSetStringEPKc
	.long	_ZN6idCVar15InternalSetBoolEb
	.long	_ZN6idCVar18InternalSetIntegerEi
	.long	_ZN6idCVar16InternalSetFloatEf
	.weak	_ZTI6idCVar
	.section	.sdata._ZTI6idCVar,"awG",@progbits,_ZTI6idCVar,comdat
	.align 2
	.type	_ZTI6idCVar, @object
	.size	_ZTI6idCVar, 8
_ZTI6idCVar:
	.long	_ZTVN10__cxxabiv117__class_type_infoE+8
	.long	_ZTS6idCVar
	.weak	_ZTS6idCVar
	.section	.sdata._ZTS6idCVar,"awG",@progbits,_ZTS6idCVar,comdat
	.align 2
	.type	_ZTS6idCVar, @object
	.size	_ZTS6idCVar, 8
_ZTS6idCVar:
	.string	"6idCVar"
	.weak	_ZN6idCVarD1Ev
	.set	_ZN6idCVarD1Ev,_ZN6idCVarD2Ev
	.weak	_ZN9idWindingD1Ev
	.set	_ZN9idWindingD1Ev,_ZN9idWindingD2Ev
	.weak	_ZN14idFixedWindingD1Ev
	.set	_ZN14idFixedWindingD1Ev,_ZN14idFixedWindingD2Ev
	.weak	_ZN6idCVarC1EPKcS1_iS1_PFvRK9idCmdArgsPFvS1_EE
	.set	_ZN6idCVarC1EPKcS1_iS1_PFvRK9idCmdArgsPFvS1_EE,_ZN6idCVarC2EPKcS1_iS1_PFvRK9idCmdArgsPFvS1_EE
	.weak	_ZN6idCVarC1EPKcS1_iS1_ffPFvRK9idCmdArgsPFvS1_EE
	.set	_ZN6idCVarC1EPKcS1_iS1_ffPFvRK9idCmdArgsPFvS1_EE,_ZN6idCVarC2EPKcS1_iS1_ffPFvRK9idCmdArgsPFvS1_EE
	.weak	_ZN6idCVarC1EPKcS1_iS1_PS1_PFvRK9idCmdArgsPFvS1_EE
	.set	_ZN6idCVarC1EPKcS1_iS1_PS1_PFvRK9idCmdArgsPFvS1_EE,_ZN6idCVarC2EPKcS1_iS1_PS1_PFvRK9idCmdArgsPFvS1_EE
	.section	.rodata.cst4,"aM",@progbits,4
	.align 2
.LC7:
	.4byte	1065353216
.LC8:
	.4byte	-1082130432
.LC9:
	.4byte	-997900288
.LC32:
	.4byte	1082130432
.LC36:
	.4byte	1120403456
.LC39:
	.4byte	1114636288
.LC76:
	.4byte	1073741824
.LC82:
	.4byte	1163984896
.LC188:
	.4byte	1088421888
.LC446:
	.4byte	0
	.section	".data"
	.align 2
	.set	.LANCHOR0,. + 0
	.type	si_spectateArgs, @object
	.size	si_spectateArgs, 12
si_spectateArgs:
	.long	.LC454
	.long	.LC455
	.long	0
	.type	si_readyArgs, @object
	.size	si_readyArgs, 12
si_readyArgs:
	.long	.LC456
	.long	.LC457
	.long	0
	.type	ui_teamArgs, @object
	.size	ui_teamArgs, 12
ui_teamArgs:
	.long	.LC447
	.long	.LC448
	.long	0
	.type	ui_skinArgs, @object
	.size	ui_skinArgs, 24
ui_skinArgs:
	.long	.LC449
	.long	.LC450
	.long	.LC451
	.long	.LC452
	.long	.LC453
	.long	0
	.type	si_gameTypeArgs, @object
	.size	si_gameTypeArgs, 24
si_gameTypeArgs:
	.long	.LC458
	.long	.LC459
	.long	.LC460
	.long	.LC461
	.long	.LC462
	.long	0
	.section	.rodata.str1.4,"aMS",@progbits,1
	.align 2
.LC0:
	.string	"maps/"
	.zero	2
.LC1:
	.string	".map"
	.zero	3
.LC2:
	.string	""
	.zero	3
.LC3:
	.string	"%s 0"
	.zero	3
.LC4:
	.string	"%s 1"
	.zero	3
.LC5:
	.string	"%s %d"
	.zero	2
.LC6:
	.string	"%s %s"
	.zero	2
.LC10:
	.string	"%s.%d%s %s %s"
	.zero	2
.LC11:
	.string	"DOOM 1.3.1"
	.zero	1
.LC12:
	.string	"-release"
	.zero	3
.LC13:
	.string	"ogc-ppc"
.LC14:
	.string	"Dec 11 2012"
.LC15:
	.string	"23:10:34"
	.zero	3
.LC16:
	.string	"g_version"
	.zero	2
.LC17:
	.string	"game version"
	.zero	3
.LC18:
	.string	"gamename"
	.zero	3
.LC19:
	.string	"baseDOOM-1"
	.zero	1
.LC20:
	.string	"gamedate"
	.zero	3
.LC21:
	.string	"si_name"
.LC22:
	.string	"DOOM Server"
.LC23:
	.string	"name of the server"
	.zero	1
.LC24:
	.string	"si_gameType"
.LC25:
	.string	"game type - singleplayer, deathmatch, Tourney, Team DM or Last Man"
	.zero	1
.LC26:
	.string	"si_map"
	.zero	1
.LC27:
	.string	"game/mp/d3dm1"
	.zero	2
.LC28:
	.string	"map to be played next on server"
.LC29:
	.string	"si_maxPlayers"
	.zero	2
.LC30:
	.string	"4"
	.zero	2
.LC31:
	.string	"max number of players allowed on the server"
.LC33:
	.string	"si_fragLimit"
	.zero	3
.LC34:
	.string	"10"
	.zero	1
.LC35:
	.string	"frag limit"
	.zero	1
.LC37:
	.string	"si_timeLimit"
	.zero	3
.LC38:
	.string	"time limit in minutes"
	.zero	2
.LC40:
	.string	"si_teamDamage"
	.zero	2
.LC41:
	.string	"0"
	.zero	2
.LC42:
	.string	"enable team damage"
	.zero	1
.LC43:
	.string	"si_warmup"
	.zero	2
.LC44:
	.string	"do pre-game warmup"
	.zero	1
.LC45:
	.string	"si_usePass"
	.zero	1
.LC46:
	.string	"enable client password checking"
.LC47:
	.string	"si_pure"
.LC48:
	.string	"1"
	.zero	2
.LC49:
	.string	"server is pure and does not allow modified data"
.LC50:
	.string	"si_spectators"
	.zero	2
.LC51:
	.string	"allow spectators or require all clients to play"
.LC52:
	.string	"si_serverURL"
	.zero	3
.LC53:
	.string	"where to reach the server admins and get information about the server"
	.zero	2
.LC54:
	.string	"ui_name"
.LC55:
	.string	"Player"
	.zero	1
.LC56:
	.string	"player name"
.LC57:
	.string	"ui_skin"
.LC58:
	.string	"player skin"
.LC59:
	.string	"ui_team"
.LC60:
	.string	"player team"
.LC61:
	.string	"ui_autoSwitch"
	.zero	2
.LC62:
	.string	"auto switch weapon"
	.zero	1
.LC63:
	.string	"ui_autoReload"
	.zero	2
.LC64:
	.string	"auto reload weapon"
	.zero	1
.LC65:
	.string	"ui_showGun"
	.zero	1
.LC66:
	.string	"show gun"
	.zero	3
.LC67:
	.string	"ui_ready"
	.zero	3
.LC68:
	.string	"player is ready to start playing"
	.zero	3
.LC69:
	.string	"ui_spectate"
.LC70:
	.string	"play or spectate"
	.zero	3
.LC71:
	.string	"ui_chat"
.LC72:
	.string	"player is chatting"
	.zero	1
.LC73:
	.string	"developer"
	.zero	2
.LC74:
	.string	"r_aspectRatio"
	.zero	2
.LC75:
	.string	"aspect ratio of view:\n0 = 4:3\n1 = 16:9\n2 = 16:10"
	.zero	3
.LC77:
	.string	"g_cinematic"
.LC78:
	.string	"skips updating entities that aren't marked 'cinematic' '1' during cinematics"
	.zero	3
.LC79:
	.string	"g_cinematicMaxSkipTime"
	.zero	1
.LC80:
	.string	"600"
.LC81:
	.string	"# of seconds to allow game to run when skipping cinematic.  prevents lock-up when cinematic doesn't end."
	.zero	3
.LC83:
	.string	"g_muzzleFlash"
	.zero	2
.LC84:
	.string	"show muzzle flashes"
.LC85:
	.string	"g_projectileLights"
	.zero	1
.LC86:
	.string	"show dynamic lights on projectiles"
	.zero	1
.LC87:
	.string	"g_bloodEffects"
	.zero	1
.LC88:
	.string	"show blood splats, sprays and gibs"
	.zero	1
.LC89:
	.string	"g_doubleVision"
	.zero	1
.LC90:
	.string	"show double vision when taking damage"
	.zero	2
.LC91:
	.string	"g_monsters"
	.zero	1
.LC92:
	.string	"g_decals"
	.zero	3
.LC93:
	.string	"show decals such as bullet holes"
	.zero	3
.LC94:
	.string	"g_knockback"
.LC95:
	.string	"1000"
	.zero	3
.LC96:
	.string	"g_skill"
.LC97:
	.string	"g_nightmare"
.LC98:
	.string	"if nightmare mode is allowed"
	.zero	3
.LC99:
	.string	"g_gravity"
	.zero	2
.LC100:
	.string	"1066"
	.zero	3
.LC101:
	.string	"g_skipFX"
	.zero	3
.LC102:
	.string	"g_skipParticles"
.LC103:
	.string	"g_disasm"
	.zero	3
.LC104:
	.string	"disassemble script into base/script/disasm.txt on the local drive when script is compiled"
	.zero	2
.LC105:
	.string	"g_debugBounds"
	.zero	2
.LC106:
	.string	"checks for models with bounds > 2048"
	.zero	3
.LC107:
	.string	"g_debugAnim"
.LC108:
	.string	"-1"
	.zero	1
.LC109:
	.string	"displays information on which animations are playing on the specified entity number.  set to -1 to disable."
.LC110:
	.string	"g_debugMove"
.LC111:
	.string	"g_debugDamage"
	.zero	2
.LC112:
	.string	"g_debugWeapon"
	.zero	2
.LC113:
	.string	"g_debugScript"
	.zero	2
.LC114:
	.string	"g_debugMover"
	.zero	3
.LC115:
	.string	"g_debugTriggers"
.LC116:
	.string	"g_debugCinematic"
	.zero	3
.LC117:
	.string	"g_stopTime"
	.zero	1
.LC118:
	.string	"g_damageScale"
	.zero	2
.LC119:
	.string	"scale final damage on player by this factor"
.LC120:
	.string	"g_armorProtection"
	.zero	2
.LC121:
	.string	"0.3"
.LC122:
	.string	"armor takes this percentage of damage"
	.zero	2
.LC123:
	.string	"g_armorProtectionMP"
.LC124:
	.string	"0.6"
.LC125:
	.string	"armor takes this percentage of damage in mp"
.LC126:
	.string	"g_useDynamicProtection"
	.zero	1
.LC127:
	.string	"scale damage and armor dynamically to keep the player alive more often"
	.zero	1
.LC128:
	.string	"g_healthTakeTime"
	.zero	3
.LC129:
	.string	"5"
	.zero	2
.LC130:
	.string	"how often to take health in nightmare mode"
	.zero	1
.LC131:
	.string	"g_healthTakeAmt"
.LC132:
	.string	"how much health to take in nightmare mode"
	.zero	2
.LC133:
	.string	"g_healthTakeLimit"
	.zero	2
.LC134:
	.string	"25"
	.zero	1
.LC135:
	.string	"how low can health get taken in nightmare mode"
	.zero	1
.LC136:
	.string	"g_showPVS"
	.zero	2
.LC137:
	.string	"g_showTargets"
	.zero	2
.LC138:
	.string	"draws entities and thier targets.  hidden entities are drawn grey."
	.zero	1
.LC139:
	.string	"g_showTriggers"
	.zero	1
.LC140:
	.string	"draws trigger entities (orange) and thier targets (green).  disabled triggers are drawn grey."
	.zero	2
.LC141:
	.string	"g_showCollisionWorld"
	.zero	3
.LC142:
	.string	"g_showCollisionModels"
	.zero	2
.LC143:
	.string	"g_showCollisionTraces"
	.zero	2
.LC144:
	.string	"g_maxShowDistance"
	.zero	2
.LC145:
	.string	"128"
.LC146:
	.string	"g_showEntityInfo"
	.zero	3
.LC147:
	.string	"g_showviewpos"
	.zero	2
.LC148:
	.string	"g_showcamerainfo"
	.zero	3
.LC149:
	.string	"displays the current frame # for the camera when playing cinematics"
.LC150:
	.string	"g_showTestModelFrame"
	.zero	3
.LC151:
	.string	"displays the current animation and frame # for testmodels"
	.zero	2
.LC152:
	.string	"g_showActiveEntities"
	.zero	3
.LC153:
	.string	"draws boxes around thinking entities.  dormant entities (outside of pvs) are drawn yellow.  non-dormant are green."
	.zero	1
.LC154:
	.string	"g_showEnemies"
	.zero	2
.LC155:
	.string	"draws boxes around monsters that have targeted the the player"
	.zero	2
.LC156:
	.string	"g_frametime"
.LC157:
	.string	"displays timing information for each game frame"
.LC158:
	.string	"g_timeEntities"
	.zero	1
.LC159:
	.string	"when non-zero, shows entities whose think functions exceeded the # of milliseconds specified"
	.zero	3
.LC160:
	.string	"ai_debugScript"
	.zero	1
.LC161:
	.string	"displays script calls for the specified monster entity number"
	.zero	2
.LC162:
	.string	"ai_debugMove"
	.zero	3
.LC163:
	.string	"draws movement information for monsters"
.LC164:
	.string	"ai_debugTrajectory"
	.zero	1
.LC165:
	.string	"draws trajectory tests for monsters"
.LC166:
	.string	"ai_testPredictPath"
	.zero	1
.LC167:
	.string	"ai_showCombatNodes"
	.zero	1
.LC168:
	.string	"draws attack cones for monsters"
.LC169:
	.string	"ai_showPaths"
	.zero	3
.LC170:
	.string	"draws path_* entities"
	.zero	2
.LC171:
	.string	"ai_showObstacleAvoidance"
	.zero	3
.LC172:
	.string	"draws obstacle avoidance information for monsters.  if 2, draws obstacles for player, as well"
	.zero	2
.LC173:
	.string	"ai_blockedFailSafe"
	.zero	1
.LC174:
	.string	"enable blocked fail safe handling"
	.zero	2
.LC175:
	.string	"g_dvTime"
	.zero	3
.LC176:
	.string	"g_dvAmplitude"
	.zero	2
.LC177:
	.string	"0.001"
	.zero	2
.LC178:
	.string	"g_dvFrequency"
	.zero	2
.LC179:
	.string	"0.5"
.LC180:
	.string	"g_kickTime"
	.zero	1
.LC181:
	.string	"g_kickAmplitude"
.LC182:
	.string	"0.0001"
	.zero	1
.LC183:
	.string	"g_blobTime"
	.zero	1
.LC184:
	.string	"g_blobSize"
	.zero	1
.LC185:
	.string	"g_testHealthVision"
	.zero	1
.LC186:
	.string	"g_editEntityMode"
	.zero	3
.LC187:
	.string	"0 = off\n1 = lights\n2 = sounds\n3 = articulated figures\n4 = particle systems\n5 = monsters\n6 = entity names\n7 = entity models"
	.zero	1
.LC189:
	.string	"g_dragEntity"
	.zero	3
.LC190:
	.string	"allows dragging physics objects around by placing the crosshair over them and holding the fire button"
	.zero	2
.LC191:
	.string	"g_dragDamping"
	.zero	2
.LC192:
	.string	"g_dragShowSelection"
.LC193:
	.string	"g_dropItemRotation"
	.zero	1
.LC194:
	.string	"g_vehicleVelocity"
	.zero	2
.LC195:
	.string	"g_vehicleForce"
	.zero	1
.LC196:
	.string	"50000"
	.zero	2
.LC197:
	.string	"g_vehicleSuspensionUp"
	.zero	2
.LC198:
	.string	"32"
	.zero	1
.LC199:
	.string	"g_vehicleSuspensionDown"
.LC200:
	.string	"20"
	.zero	1
.LC201:
	.string	"g_vehicleSuspensionKCompress"
	.zero	3
.LC202:
	.string	"200"
.LC203:
	.string	"g_vehicleSuspensionDamping"
	.zero	1
.LC204:
	.string	"400"
.LC205:
	.string	"g_vehicleTireFriction"
	.zero	2
.LC206:
	.string	"0.8"
.LC207:
	.string	"ik_enable"
	.zero	2
.LC208:
	.string	"enable IK"
	.zero	2
.LC209:
	.string	"ik_debug"
	.zero	3
.LC210:
	.string	"show IK debug lines"
.LC211:
	.string	"af_useLinearTime"
	.zero	3
.LC212:
	.string	"use linear time algorithm for tree-like structures"
	.zero	1
.LC213:
	.string	"af_useImpulseFriction"
	.zero	2
.LC214:
	.string	"use impulse based contact friction"
	.zero	1
.LC215:
	.string	"af_useJointImpulseFriction"
	.zero	1
.LC216:
	.string	"use impulse based joint friction"
	.zero	3
.LC217:
	.string	"af_useSymmetry"
	.zero	1
.LC218:
	.string	"use constraint matrix symmetry"
	.zero	1
.LC219:
	.string	"af_skipSelfCollision"
	.zero	3
.LC220:
	.string	"skip self collision detection"
	.zero	2
.LC221:
	.string	"af_skipLimits"
	.zero	2
.LC222:
	.string	"skip joint limits"
	.zero	2
.LC223:
	.string	"af_skipFriction"
.LC224:
	.string	"skip friction"
	.zero	2
.LC225:
	.string	"af_forceFriction"
	.zero	3
.LC226:
	.string	"force the given friction value"
	.zero	1
.LC227:
	.string	"af_maxLinearVelocity"
	.zero	3
.LC228:
	.string	"maximum linear velocity"
.LC229:
	.string	"af_maxAngularVelocity"
	.zero	2
.LC230:
	.string	"1.57"
	.zero	3
.LC231:
	.string	"maximum angular velocity"
	.zero	3
.LC232:
	.string	"af_timeScale"
	.zero	3
.LC233:
	.string	"scales the time"
.LC234:
	.string	"af_jointFrictionScale"
	.zero	2
.LC235:
	.string	"scales the joint friction"
	.zero	2
.LC236:
	.string	"af_contactFrictionScale"
.LC237:
	.string	"scales the contact friction"
.LC238:
	.string	"af_highlightBody"
	.zero	3
.LC239:
	.string	"name of the body to highlight"
	.zero	2
.LC240:
	.string	"af_highlightConstraint"
	.zero	1
.LC241:
	.string	"name of the constraint to highlight"
.LC242:
	.string	"af_showTimings"
	.zero	1
.LC243:
	.string	"show articulated figure cpu usage"
	.zero	2
.LC244:
	.string	"af_showConstraints"
	.zero	1
.LC245:
	.string	"show constraints"
	.zero	3
.LC246:
	.string	"af_showConstraintNames"
	.zero	1
.LC247:
	.string	"show constraint names"
	.zero	2
.LC248:
	.string	"af_showConstrainedBodies"
	.zero	3
.LC249:
	.string	"show the two bodies contrained by the highlighted constraint"
	.zero	3
.LC250:
	.string	"af_showPrimaryOnly"
	.zero	1
.LC251:
	.string	"show primary constraints only"
	.zero	2
.LC252:
	.string	"af_showTrees"
	.zero	3
.LC253:
	.string	"show tree-like structures"
	.zero	2
.LC254:
	.string	"af_showLimits"
	.zero	2
.LC255:
	.string	"show joint limits"
	.zero	2
.LC256:
	.string	"af_showBodies"
	.zero	2
.LC257:
	.string	"show bodies"
.LC258:
	.string	"af_showBodyNames"
	.zero	3
.LC259:
	.string	"show body names"
.LC260:
	.string	"af_showMass"
.LC261:
	.string	"show the mass of each body"
	.zero	1
.LC262:
	.string	"af_showTotalMass"
	.zero	3
.LC263:
	.string	"show the total mass of each articulated figure"
	.zero	1
.LC264:
	.string	"af_showInertia"
	.zero	1
.LC265:
	.string	"show the inertia tensor of each body"
	.zero	3
.LC266:
	.string	"af_showVelocity"
.LC267:
	.string	"show the velocity of each body"
	.zero	1
.LC268:
	.string	"af_showActive"
	.zero	2
.LC269:
	.string	"show tree-like structures of articulated figures not at rest"
	.zero	3
.LC270:
	.string	"af_testSolid"
	.zero	3
.LC271:
	.string	"test for bodies initially stuck in solid"
	.zero	3
.LC272:
	.string	"rb_showTimings"
	.zero	1
.LC273:
	.string	"show rigid body cpu usage"
	.zero	2
.LC274:
	.string	"rb_showBodies"
	.zero	2
.LC275:
	.string	"show rigid bodies"
	.zero	2
.LC276:
	.string	"rb_showMass"
.LC277:
	.string	"show the mass of each rigid body"
	.zero	3
.LC278:
	.string	"rb_showInertia"
	.zero	1
.LC279:
	.string	"show the inertia tensor of each rigid body"
	.zero	1
.LC280:
	.string	"rb_showVelocity"
.LC281:
	.string	"show the velocity of each rigid body"
	.zero	3
.LC282:
	.string	"rb_showActive"
	.zero	2
.LC283:
	.string	"show rigid bodies that are not at rest"
	.zero	1
.LC284:
	.string	"pm_jumpheight"
	.zero	2
.LC285:
	.string	"48"
	.zero	1
.LC286:
	.string	"approximate hieght the player can jump"
	.zero	1
.LC287:
	.string	"pm_stepsize"
.LC288:
	.string	"16"
	.zero	1
.LC289:
	.string	"maximum height the player can step up without jumping"
	.zero	2
.LC290:
	.string	"pm_crouchspeed"
	.zero	1
.LC291:
	.string	"80"
	.zero	1
.LC292:
	.string	"speed the player can move while crouched"
	.zero	3
.LC293:
	.string	"pm_walkspeed"
	.zero	3
.LC294:
	.string	"140"
.LC295:
	.string	"speed the player can move while walking"
.LC296:
	.string	"pm_runspeed"
.LC297:
	.string	"220"
.LC298:
	.string	"speed the player can move while running"
.LC299:
	.string	"pm_noclipspeed"
	.zero	1
.LC300:
	.string	"speed the player can move while in noclip"
	.zero	2
.LC301:
	.string	"pm_spectatespeed"
	.zero	3
.LC302:
	.string	"450"
.LC303:
	.string	"speed the player can move while spectating"
	.zero	1
.LC304:
	.string	"pm_spectatebbox"
.LC305:
	.string	"size of the spectator bounding box"
	.zero	1
.LC306:
	.string	"pm_usecylinder"
	.zero	1
.LC307:
	.string	"use a cylinder approximation instead of a bounding box for player collision detection"
	.zero	2
.LC308:
	.string	"pm_minviewpitch"
.LC309:
	.string	"-89"
.LC310:
	.string	"amount player's view can look up (negative values are up)"
	.zero	2
.LC311:
	.string	"pm_maxviewpitch"
.LC312:
	.string	"89"
	.zero	1
.LC313:
	.string	"amount player's view can look down"
	.zero	1
.LC314:
	.string	"pm_stamina"
	.zero	1
.LC315:
	.string	"24"
	.zero	1
.LC316:
	.string	"length of time player can run"
	.zero	2
.LC317:
	.string	"pm_staminathreshold"
.LC318:
	.string	"45"
	.zero	1
.LC319:
	.string	"when stamina drops below this value, player gradually slows to a walk"
	.zero	2
.LC320:
	.string	"pm_staminarate"
	.zero	1
.LC321:
	.string	"0.75"
	.zero	3
.LC322:
	.string	"rate that player regains stamina. divide pm_stamina by this value to determine how long it takes to fully recharge."
.LC323:
	.string	"pm_crouchheight"
.LC324:
	.string	"38"
	.zero	1
.LC325:
	.string	"height of player's bounding box while crouched"
	.zero	1
.LC326:
	.string	"pm_crouchviewheight"
.LC327:
	.string	"height of player's view while crouched"
	.zero	1
.LC328:
	.string	"pm_normalheight"
.LC329:
	.string	"74"
	.zero	1
.LC330:
	.string	"height of player's bounding box while standing"
	.zero	1
.LC331:
	.string	"pm_normalviewheight"
.LC332:
	.string	"68"
	.zero	1
.LC333:
	.string	"height of player's view while standing"
	.zero	1
.LC334:
	.string	"pm_deadheight"
	.zero	2
.LC335:
	.string	"height of player's bounding box while dead"
	.zero	1
.LC336:
	.string	"pm_deadviewheight"
	.zero	2
.LC337:
	.string	"height of player's view while dead"
	.zero	1
.LC338:
	.string	"pm_crouchrate"
	.zero	2
.LC339:
	.string	"0.87"
	.zero	3
.LC340:
	.string	"time it takes for player's view to change from standing to crouching"
	.zero	3
.LC341:
	.string	"pm_bboxwidth"
	.zero	3
.LC342:
	.string	"x/y size of player's bounding box"
	.zero	2
.LC343:
	.string	"pm_crouchbob"
	.zero	3
.LC344:
	.string	"bob much faster when crouched"
	.zero	2
.LC345:
	.string	"pm_walkbob"
	.zero	1
.LC346:
	.string	"bob slowly when walking"
.LC347:
	.string	"pm_runbob"
	.zero	2
.LC348:
	.string	"0.4"
.LC349:
	.string	"bob faster when running"
.LC350:
	.string	"pm_runpitch"
.LC351:
	.string	"0.002"
	.zero	2
.LC352:
	.string	"pm_runroll"
	.zero	1
.LC353:
	.string	"0.005"
	.zero	2
.LC354:
	.string	"pm_bobup"
	.zero	3
.LC355:
	.string	"pm_bobpitch"
.LC356:
	.string	"pm_bobroll"
	.zero	1
.LC357:
	.string	"pm_thirdPersonRange"
.LC358:
	.string	"camera distance from player in 3rd person"
	.zero	2
.LC359:
	.string	"pm_thirdPersonHeight"
	.zero	3
.LC360:
	.string	"height of camera from normal view height in 3rd person"
	.zero	1
.LC361:
	.string	"pm_thirdPersonAngle"
.LC362:
	.string	"direction of camera from player in 3rd person in degrees (0 = behind player, 180 = in front)"
	.zero	3
.LC363:
	.string	"pm_thirdPersonClip"
	.zero	1
.LC364:
	.string	"clip third person view into world space"
.LC365:
	.string	"pm_thirdPerson"
	.zero	1
.LC366:
	.string	"enables third person view"
	.zero	2
.LC367:
	.string	"pm_thirdPersonDeath"
.LC368:
	.string	"enables third person view when player dies"
	.zero	1
.LC369:
	.string	"pm_modelView"
	.zero	3
.LC370:
	.string	"draws camera from POV of player model (1 = always, 2 = when dead)"
	.zero	2
.LC371:
	.string	"pm_air"
	.zero	1
.LC372:
	.string	"1800"
	.zero	3
.LC373:
	.string	"how long in milliseconds the player can go without air before he starts taking damage"
	.zero	2
.LC374:
	.string	"g_showPlayerShadow"
	.zero	1
.LC375:
	.string	"enables shadow of player model"
	.zero	1
.LC376:
	.string	"g_showHud"
	.zero	2
.LC377:
	.string	"g_showProjectilePct"
.LC378:
	.string	"enables display of player hit percentage"
	.zero	3
.LC379:
	.string	"g_showBrass"
.LC380:
	.string	"enables ejected shells from weapon"
	.zero	1
.LC381:
	.string	"g_gunX"
	.zero	1
.LC382:
	.string	"g_gunY"
	.zero	1
.LC383:
	.string	"g_gunZ"
	.zero	1
.LC384:
	.string	"g_viewNodalX"
	.zero	3
.LC385:
	.string	"g_viewNodalZ"
	.zero	3
.LC386:
	.string	"g_fov"
	.zero	2
.LC387:
	.string	"90"
	.zero	1
.LC388:
	.string	"g_skipViewEffects"
	.zero	2
.LC389:
	.string	"skip damage and other view effects"
	.zero	1
.LC390:
	.string	"g_mpWeaponAngleScale"
	.zero	3
.LC391:
	.string	"Control the weapon sway in MP"
	.zero	2
.LC392:
	.string	"g_testParticle"
	.zero	1
.LC393:
	.string	"test particle visualation, set by the particle editor"
	.zero	2
.LC394:
	.string	"g_testParticleName"
	.zero	1
.LC395:
	.string	"name of the particle being tested by the particle editor"
	.zero	3
.LC396:
	.string	"g_testModelRotate"
	.zero	2
.LC397:
	.string	"test model rotation speed"
	.zero	2
.LC398:
	.string	"g_testPostProcess"
	.zero	2
.LC399:
	.string	"name of material to draw over screen"
	.zero	3
.LC400:
	.string	"g_testModelAnimate"
	.zero	1
.LC401:
	.string	"test model animation,\n0 = cycle anim with origin reset\n1 = cycle anim with fixed origin\n2 = cycle anim with continuous origin\n3 = frame by frame with continuous origin\n4 = play anim once"
	.zero	1
.LC402:
	.string	"g_testModelBlend"
	.zero	3
.LC403:
	.string	"number of frames to blend"
	.zero	2
.LC404:
	.string	"g_testDeath"
.LC405:
	.string	"g_exportMask"
	.zero	3
.LC406:
	.string	"g_flushSave"
.LC407:
	.string	"1 = don't buffer file writing for save games."
	.zero	2
.LC408:
	.string	"aas_test"
	.zero	3
.LC409:
	.string	"aas_showAreas"
	.zero	2
.LC410:
	.string	"aas_showPath"
	.zero	3
.LC411:
	.string	"aas_showFlyPath"
.LC412:
	.string	"aas_showWallEdges"
	.zero	2
.LC413:
	.string	"aas_showHideArea"
	.zero	3
.LC414:
	.string	"aas_pullPlayer"
	.zero	1
.LC415:
	.string	"aas_randomPullPlayer"
	.zero	3
.LC416:
	.string	"aas_goalArea"
	.zero	3
.LC417:
	.string	"aas_showPushIntoArea"
	.zero	3
.LC418:
	.string	"g_password"
	.zero	1
.LC419:
	.string	"game password"
	.zero	2
.LC420:
	.string	"password"
	.zero	3
.LC421:
	.string	"client password used when connecting"
	.zero	3
.LC422:
	.string	"g_countDown"
.LC423:
	.string	"pregame countdown in seconds"
	.zero	3
.LC424:
	.string	"g_gameReviewPause"
	.zero	2
.LC425:
	.string	"scores review time in seconds (at end game)"
.LC426:
	.string	"g_TDMArrows"
.LC427:
	.string	"draw arrows over teammates in team deathmatch"
	.zero	2
.LC428:
	.string	"g_balanceTDM"
	.zero	3
.LC429:
	.string	"maintain even teams"
.LC430:
	.string	"net_clientPredictGUI"
	.zero	3
.LC431:
	.string	"test guis in networking without prediction"
	.zero	1
.LC432:
	.string	"g_voteFlags"
.LC433:
	.string	"vote flags. bit mask of votes not allowed on this server\nbit 0 (+1)   restart now\nbit 1 (+2)   time limit\nbit 2 (+4)   frag limit\nbit 3 (+8)   game type\nbit 4 (+16)  kick player\nbit 5 (+32)  change map\nbit 6 (+64)  spectators\nbit 7 (+128) next map"
.LC434:
	.string	"g_mapCycle"
	.zero	1
.LC435:
	.string	"mapcycle"
	.zero	3
.LC436:
	.string	"map cycling script for multiplayer games - see mapcycle.scriptcfg"
	.zero	2
.LC437:
	.string	"mod_validSkins"
	.zero	1
.LC438:
	.string	"skins/characters/player/marine_mp;skins/characters/player/marine_mp_green;skins/characters/player/marine_mp_blue;skins/characters/player/marine_mp_red;skins/characters/player/marine_mp_yellow"
.LC439:
	.string	"valid skins for the game"
	.zero	3
.LC440:
	.string	"net_serverDownload"
	.zero	1
.LC441:
	.string	"enable server download redirects. 0: off 1: redirect to si_serverURL 2: use builtin download. see net_serverDl cvars for configuration"
	.zero	1
.LC442:
	.string	"net_serverDlBaseURL"
.LC443:
	.string	"base URL for the download redirection"
	.zero	2
.LC444:
	.string	"net_serverDlTable"
	.zero	2
.LC445:
	.string	"pak names for which download is provided, seperated by ;"
	.zero	3
.LC447:
	.string	"Red"
.LC448:
	.string	"Blue"
	.zero	3
.LC449:
	.string	"skins/characters/player/marine_mp"
	.zero	2
.LC450:
	.string	"skins/characters/player/marine_mp_red"
	.zero	2
.LC451:
	.string	"skins/characters/player/marine_mp_blue"
	.zero	1
.LC452:
	.string	"skins/characters/player/marine_mp_green"
.LC453:
	.string	"skins/characters/player/marine_mp_yellow"
	.zero	3
.LC454:
	.string	"Play"
	.zero	3
.LC455:
	.string	"Spectate"
	.zero	3
.LC456:
	.string	"Not Ready"
	.zero	2
.LC457:
	.string	"Ready"
	.zero	2
.LC458:
	.string	"singleplayer"
	.zero	3
.LC459:
	.string	"deathmatch"
	.zero	1
.LC460:
	.string	"Tourney"
.LC461:
	.string	"Team DM"
.LC462:
	.string	"Last Man"
	.section	".bss"
	.align 2
	.set	.LANCHOR1,. + 0
	.type	_ZL22NUM_RENDER_PORTAL_BITS, @object
	.size	_ZL22NUM_RENDER_PORTAL_BITS, 4
_ZL22NUM_RENDER_PORTAL_BITS:
	.zero	4
	.type	_ZL20DEFAULT_GRAVITY_VEC3, @object
	.size	_ZL20DEFAULT_GRAVITY_VEC3, 12
_ZL20DEFAULT_GRAVITY_VEC3:
	.zero	12
	.type	_ZL20CINEMATIC_SKIP_DELAY, @object
	.size	_ZL20CINEMATIC_SKIP_DELAY, 4
_ZL20CINEMATIC_SKIP_DELAY:
	.zero	4
	.type	_ZL26ASYNC_PLAYER_INV_AMMO_BITS, @object
	.size	_ZL26ASYNC_PLAYER_INV_AMMO_BITS, 4
_ZL26ASYNC_PLAYER_INV_AMMO_BITS:
	.zero	4
	.type	gameVersion, @object
	.size	gameVersion, 256
gameVersion:
	.zero	256
	.type	g_version, @object
	.size	g_version, 52
g_version:
	.zero	52
	.type	gamename, @object
	.size	gamename, 52
gamename:
	.zero	52
	.type	gamedate, @object
	.size	gamedate, 52
gamedate:
	.zero	52
	.type	si_name, @object
	.size	si_name, 52
si_name:
	.zero	52
	.type	si_gameType, @object
	.size	si_gameType, 52
si_gameType:
	.zero	52
	.type	si_map, @object
	.size	si_map, 52
si_map:
	.zero	52
	.type	si_maxPlayers, @object
	.size	si_maxPlayers, 52
si_maxPlayers:
	.zero	52
	.type	si_fragLimit, @object
	.size	si_fragLimit, 52
si_fragLimit:
	.zero	52
	.type	si_timeLimit, @object
	.size	si_timeLimit, 52
si_timeLimit:
	.zero	52
	.type	si_teamDamage, @object
	.size	si_teamDamage, 52
si_teamDamage:
	.zero	52
	.type	si_warmup, @object
	.size	si_warmup, 52
si_warmup:
	.zero	52
	.type	si_usePass, @object
	.size	si_usePass, 52
si_usePass:
	.zero	52
	.type	si_pure, @object
	.size	si_pure, 52
si_pure:
	.zero	52
	.type	si_spectators, @object
	.size	si_spectators, 52
si_spectators:
	.zero	52
	.type	si_serverURL, @object
	.size	si_serverURL, 52
si_serverURL:
	.zero	52
	.type	ui_name, @object
	.size	ui_name, 52
ui_name:
	.zero	52
	.type	ui_skin, @object
	.size	ui_skin, 52
ui_skin:
	.zero	52
	.type	ui_team, @object
	.size	ui_team, 52
ui_team:
	.zero	52
	.type	ui_autoSwitch, @object
	.size	ui_autoSwitch, 52
ui_autoSwitch:
	.zero	52
	.type	ui_autoReload, @object
	.size	ui_autoReload, 52
ui_autoReload:
	.zero	52
	.type	ui_showGun, @object
	.size	ui_showGun, 52
ui_showGun:
	.zero	52
	.type	ui_ready, @object
	.size	ui_ready, 52
ui_ready:
	.zero	52
	.type	ui_spectate, @object
	.size	ui_spectate, 52
ui_spectate:
	.zero	52
	.type	ui_chat, @object
	.size	ui_chat, 52
ui_chat:
	.zero	52
	.type	developer, @object
	.size	developer, 52
developer:
	.zero	52
	.type	r_aspectRatio, @object
	.size	r_aspectRatio, 52
r_aspectRatio:
	.zero	52
	.type	g_cinematic, @object
	.size	g_cinematic, 52
g_cinematic:
	.zero	52
	.type	g_cinematicMaxSkipTime, @object
	.size	g_cinematicMaxSkipTime, 52
g_cinematicMaxSkipTime:
	.zero	52
	.type	g_muzzleFlash, @object
	.size	g_muzzleFlash, 52
g_muzzleFlash:
	.zero	52
	.type	g_projectileLights, @object
	.size	g_projectileLights, 52
g_projectileLights:
	.zero	52
	.type	g_bloodEffects, @object
	.size	g_bloodEffects, 52
g_bloodEffects:
	.zero	52
	.type	g_doubleVision, @object
	.size	g_doubleVision, 52
g_doubleVision:
	.zero	52
	.type	g_monsters, @object
	.size	g_monsters, 52
g_monsters:
	.zero	52
	.type	g_decals, @object
	.size	g_decals, 52
g_decals:
	.zero	52
	.type	g_knockback, @object
	.size	g_knockback, 52
g_knockback:
	.zero	52
	.type	g_skill, @object
	.size	g_skill, 52
g_skill:
	.zero	52
	.type	g_nightmare, @object
	.size	g_nightmare, 52
g_nightmare:
	.zero	52
	.type	g_gravity, @object
	.size	g_gravity, 52
g_gravity:
	.zero	52
	.type	g_skipFX, @object
	.size	g_skipFX, 52
g_skipFX:
	.zero	52
	.type	g_skipParticles, @object
	.size	g_skipParticles, 52
g_skipParticles:
	.zero	52
	.type	g_disasm, @object
	.size	g_disasm, 52
g_disasm:
	.zero	52
	.type	g_debugBounds, @object
	.size	g_debugBounds, 52
g_debugBounds:
	.zero	52
	.type	g_debugAnim, @object
	.size	g_debugAnim, 52
g_debugAnim:
	.zero	52
	.type	g_debugMove, @object
	.size	g_debugMove, 52
g_debugMove:
	.zero	52
	.type	g_debugDamage, @object
	.size	g_debugDamage, 52
g_debugDamage:
	.zero	52
	.type	g_debugWeapon, @object
	.size	g_debugWeapon, 52
g_debugWeapon:
	.zero	52
	.type	g_debugScript, @object
	.size	g_debugScript, 52
g_debugScript:
	.zero	52
	.type	g_debugMover, @object
	.size	g_debugMover, 52
g_debugMover:
	.zero	52
	.type	g_debugTriggers, @object
	.size	g_debugTriggers, 52
g_debugTriggers:
	.zero	52
	.type	g_debugCinematic, @object
	.size	g_debugCinematic, 52
g_debugCinematic:
	.zero	52
	.type	g_stopTime, @object
	.size	g_stopTime, 52
g_stopTime:
	.zero	52
	.type	g_damageScale, @object
	.size	g_damageScale, 52
g_damageScale:
	.zero	52
	.type	g_armorProtection, @object
	.size	g_armorProtection, 52
g_armorProtection:
	.zero	52
	.type	g_armorProtectionMP, @object
	.size	g_armorProtectionMP, 52
g_armorProtectionMP:
	.zero	52
	.type	g_useDynamicProtection, @object
	.size	g_useDynamicProtection, 52
g_useDynamicProtection:
	.zero	52
	.type	g_healthTakeTime, @object
	.size	g_healthTakeTime, 52
g_healthTakeTime:
	.zero	52
	.type	g_healthTakeAmt, @object
	.size	g_healthTakeAmt, 52
g_healthTakeAmt:
	.zero	52
	.type	g_healthTakeLimit, @object
	.size	g_healthTakeLimit, 52
g_healthTakeLimit:
	.zero	52
	.type	g_showPVS, @object
	.size	g_showPVS, 52
g_showPVS:
	.zero	52
	.type	g_showTargets, @object
	.size	g_showTargets, 52
g_showTargets:
	.zero	52
	.type	g_showTriggers, @object
	.size	g_showTriggers, 52
g_showTriggers:
	.zero	52
	.type	g_showCollisionWorld, @object
	.size	g_showCollisionWorld, 52
g_showCollisionWorld:
	.zero	52
	.type	g_showCollisionModels, @object
	.size	g_showCollisionModels, 52
g_showCollisionModels:
	.zero	52
	.type	g_showCollisionTraces, @object
	.size	g_showCollisionTraces, 52
g_showCollisionTraces:
	.zero	52
	.type	g_maxShowDistance, @object
	.size	g_maxShowDistance, 52
g_maxShowDistance:
	.zero	52
	.type	g_showEntityInfo, @object
	.size	g_showEntityInfo, 52
g_showEntityInfo:
	.zero	52
	.type	g_showviewpos, @object
	.size	g_showviewpos, 52
g_showviewpos:
	.zero	52
	.type	g_showcamerainfo, @object
	.size	g_showcamerainfo, 52
g_showcamerainfo:
	.zero	52
	.type	g_showTestModelFrame, @object
	.size	g_showTestModelFrame, 52
g_showTestModelFrame:
	.zero	52
	.type	g_showActiveEntities, @object
	.size	g_showActiveEntities, 52
g_showActiveEntities:
	.zero	52
	.type	g_showEnemies, @object
	.size	g_showEnemies, 52
g_showEnemies:
	.zero	52
	.type	g_frametime, @object
	.size	g_frametime, 52
g_frametime:
	.zero	52
	.type	g_timeentities, @object
	.size	g_timeentities, 52
g_timeentities:
	.zero	52
	.type	ai_debugScript, @object
	.size	ai_debugScript, 52
ai_debugScript:
	.zero	52
	.type	ai_debugMove, @object
	.size	ai_debugMove, 52
ai_debugMove:
	.zero	52
	.type	ai_debugTrajectory, @object
	.size	ai_debugTrajectory, 52
ai_debugTrajectory:
	.zero	52
	.type	ai_testPredictPath, @object
	.size	ai_testPredictPath, 52
ai_testPredictPath:
	.zero	52
	.type	ai_showCombatNodes, @object
	.size	ai_showCombatNodes, 52
ai_showCombatNodes:
	.zero	52
	.type	ai_showPaths, @object
	.size	ai_showPaths, 52
ai_showPaths:
	.zero	52
	.type	ai_showObstacleAvoidance, @object
	.size	ai_showObstacleAvoidance, 52
ai_showObstacleAvoidance:
	.zero	52
	.type	ai_blockedFailSafe, @object
	.size	ai_blockedFailSafe, 52
ai_blockedFailSafe:
	.zero	52
	.type	g_dvTime, @object
	.size	g_dvTime, 52
g_dvTime:
	.zero	52
	.type	g_dvAmplitude, @object
	.size	g_dvAmplitude, 52
g_dvAmplitude:
	.zero	52
	.type	g_dvFrequency, @object
	.size	g_dvFrequency, 52
g_dvFrequency:
	.zero	52
	.type	g_kickTime, @object
	.size	g_kickTime, 52
g_kickTime:
	.zero	52
	.type	g_kickAmplitude, @object
	.size	g_kickAmplitude, 52
g_kickAmplitude:
	.zero	52
	.type	g_blobTime, @object
	.size	g_blobTime, 52
g_blobTime:
	.zero	52
	.type	g_blobSize, @object
	.size	g_blobSize, 52
g_blobSize:
	.zero	52
	.type	g_testHealthVision, @object
	.size	g_testHealthVision, 52
g_testHealthVision:
	.zero	52
	.type	g_editEntityMode, @object
	.size	g_editEntityMode, 52
g_editEntityMode:
	.zero	52
	.type	g_dragEntity, @object
	.size	g_dragEntity, 52
g_dragEntity:
	.zero	52
	.type	g_dragDamping, @object
	.size	g_dragDamping, 52
g_dragDamping:
	.zero	52
	.type	g_dragShowSelection, @object
	.size	g_dragShowSelection, 52
g_dragShowSelection:
	.zero	52
	.type	g_dropItemRotation, @object
	.size	g_dropItemRotation, 52
g_dropItemRotation:
	.zero	52
	.type	g_vehicleVelocity, @object
	.size	g_vehicleVelocity, 52
g_vehicleVelocity:
	.zero	52
	.type	g_vehicleForce, @object
	.size	g_vehicleForce, 52
g_vehicleForce:
	.zero	52
	.type	g_vehicleSuspensionUp, @object
	.size	g_vehicleSuspensionUp, 52
g_vehicleSuspensionUp:
	.zero	52
	.type	g_vehicleSuspensionDown, @object
	.size	g_vehicleSuspensionDown, 52
g_vehicleSuspensionDown:
	.zero	52
	.type	g_vehicleSuspensionKCompress, @object
	.size	g_vehicleSuspensionKCompress, 52
g_vehicleSuspensionKCompress:
	.zero	52
	.type	g_vehicleSuspensionDamping, @object
	.size	g_vehicleSuspensionDamping, 52
g_vehicleSuspensionDamping:
	.zero	52
	.type	g_vehicleTireFriction, @object
	.size	g_vehicleTireFriction, 52
g_vehicleTireFriction:
	.zero	52
	.type	ik_enable, @object
	.size	ik_enable, 52
ik_enable:
	.zero	52
	.type	ik_debug, @object
	.size	ik_debug, 52
ik_debug:
	.zero	52
	.type	af_useLinearTime, @object
	.size	af_useLinearTime, 52
af_useLinearTime:
	.zero	52
	.type	af_useImpulseFriction, @object
	.size	af_useImpulseFriction, 52
af_useImpulseFriction:
	.zero	52
	.type	af_useJointImpulseFriction, @object
	.size	af_useJointImpulseFriction, 52
af_useJointImpulseFriction:
	.zero	52
	.type	af_useSymmetry, @object
	.size	af_useSymmetry, 52
af_useSymmetry:
	.zero	52
	.type	af_skipSelfCollision, @object
	.size	af_skipSelfCollision, 52
af_skipSelfCollision:
	.zero	52
	.type	af_skipLimits, @object
	.size	af_skipLimits, 52
af_skipLimits:
	.zero	52
	.type	af_skipFriction, @object
	.size	af_skipFriction, 52
af_skipFriction:
	.zero	52
	.type	af_forceFriction, @object
	.size	af_forceFriction, 52
af_forceFriction:
	.zero	52
	.type	af_maxLinearVelocity, @object
	.size	af_maxLinearVelocity, 52
af_maxLinearVelocity:
	.zero	52
	.type	af_maxAngularVelocity, @object
	.size	af_maxAngularVelocity, 52
af_maxAngularVelocity:
	.zero	52
	.type	af_timeScale, @object
	.size	af_timeScale, 52
af_timeScale:
	.zero	52
	.type	af_jointFrictionScale, @object
	.size	af_jointFrictionScale, 52
af_jointFrictionScale:
	.zero	52
	.type	af_contactFrictionScale, @object
	.size	af_contactFrictionScale, 52
af_contactFrictionScale:
	.zero	52
	.type	af_highlightBody, @object
	.size	af_highlightBody, 52
af_highlightBody:
	.zero	52
	.type	af_highlightConstraint, @object
	.size	af_highlightConstraint, 52
af_highlightConstraint:
	.zero	52
	.type	af_showTimings, @object
	.size	af_showTimings, 52
af_showTimings:
	.zero	52
	.type	af_showConstraints, @object
	.size	af_showConstraints, 52
af_showConstraints:
	.zero	52
	.type	af_showConstraintNames, @object
	.size	af_showConstraintNames, 52
af_showConstraintNames:
	.zero	52
	.type	af_showConstrainedBodies, @object
	.size	af_showConstrainedBodies, 52
af_showConstrainedBodies:
	.zero	52
	.type	af_showPrimaryOnly, @object
	.size	af_showPrimaryOnly, 52
af_showPrimaryOnly:
	.zero	52
	.type	af_showTrees, @object
	.size	af_showTrees, 52
af_showTrees:
	.zero	52
	.type	af_showLimits, @object
	.size	af_showLimits, 52
af_showLimits:
	.zero	52
	.type	af_showBodies, @object
	.size	af_showBodies, 52
af_showBodies:
	.zero	52
	.type	af_showBodyNames, @object
	.size	af_showBodyNames, 52
af_showBodyNames:
	.zero	52
	.type	af_showMass, @object
	.size	af_showMass, 52
af_showMass:
	.zero	52
	.type	af_showTotalMass, @object
	.size	af_showTotalMass, 52
af_showTotalMass:
	.zero	52
	.type	af_showInertia, @object
	.size	af_showInertia, 52
af_showInertia:
	.zero	52
	.type	af_showVelocity, @object
	.size	af_showVelocity, 52
af_showVelocity:
	.zero	52
	.type	af_showActive, @object
	.size	af_showActive, 52
af_showActive:
	.zero	52
	.type	af_testSolid, @object
	.size	af_testSolid, 52
af_testSolid:
	.zero	52
	.type	rb_showTimings, @object
	.size	rb_showTimings, 52
rb_showTimings:
	.zero	52
	.type	rb_showBodies, @object
	.size	rb_showBodies, 52
rb_showBodies:
	.zero	52
	.type	rb_showMass, @object
	.size	rb_showMass, 52
rb_showMass:
	.zero	52
	.type	rb_showInertia, @object
	.size	rb_showInertia, 52
rb_showInertia:
	.zero	52
	.type	rb_showVelocity, @object
	.size	rb_showVelocity, 52
rb_showVelocity:
	.zero	52
	.type	rb_showActive, @object
	.size	rb_showActive, 52
rb_showActive:
	.zero	52
	.type	pm_jumpheight, @object
	.size	pm_jumpheight, 52
pm_jumpheight:
	.zero	52
	.type	pm_stepsize, @object
	.size	pm_stepsize, 52
pm_stepsize:
	.zero	52
	.type	pm_crouchspeed, @object
	.size	pm_crouchspeed, 52
pm_crouchspeed:
	.zero	52
	.type	pm_walkspeed, @object
	.size	pm_walkspeed, 52
pm_walkspeed:
	.zero	52
	.type	pm_runspeed, @object
	.size	pm_runspeed, 52
pm_runspeed:
	.zero	52
	.type	pm_noclipspeed, @object
	.size	pm_noclipspeed, 52
pm_noclipspeed:
	.zero	52
	.type	pm_spectatespeed, @object
	.size	pm_spectatespeed, 52
pm_spectatespeed:
	.zero	52
	.type	pm_spectatebbox, @object
	.size	pm_spectatebbox, 52
pm_spectatebbox:
	.zero	52
	.type	pm_usecylinder, @object
	.size	pm_usecylinder, 52
pm_usecylinder:
	.zero	52
	.type	pm_minviewpitch, @object
	.size	pm_minviewpitch, 52
pm_minviewpitch:
	.zero	52
	.type	pm_maxviewpitch, @object
	.size	pm_maxviewpitch, 52
pm_maxviewpitch:
	.zero	52
	.type	pm_stamina, @object
	.size	pm_stamina, 52
pm_stamina:
	.zero	52
	.type	pm_staminathreshold, @object
	.size	pm_staminathreshold, 52
pm_staminathreshold:
	.zero	52
	.type	pm_staminarate, @object
	.size	pm_staminarate, 52
pm_staminarate:
	.zero	52
	.type	pm_crouchheight, @object
	.size	pm_crouchheight, 52
pm_crouchheight:
	.zero	52
	.type	pm_crouchviewheight, @object
	.size	pm_crouchviewheight, 52
pm_crouchviewheight:
	.zero	52
	.type	pm_normalheight, @object
	.size	pm_normalheight, 52
pm_normalheight:
	.zero	52
	.type	pm_normalviewheight, @object
	.size	pm_normalviewheight, 52
pm_normalviewheight:
	.zero	52
	.type	pm_deadheight, @object
	.size	pm_deadheight, 52
pm_deadheight:
	.zero	52
	.type	pm_deadviewheight, @object
	.size	pm_deadviewheight, 52
pm_deadviewheight:
	.zero	52
	.type	pm_crouchrate, @object
	.size	pm_crouchrate, 52
pm_crouchrate:
	.zero	52
	.type	pm_bboxwidth, @object
	.size	pm_bboxwidth, 52
pm_bboxwidth:
	.zero	52
	.type	pm_crouchbob, @object
	.size	pm_crouchbob, 52
pm_crouchbob:
	.zero	52
	.type	pm_walkbob, @object
	.size	pm_walkbob, 52
pm_walkbob:
	.zero	52
	.type	pm_runbob, @object
	.size	pm_runbob, 52
pm_runbob:
	.zero	52
	.type	pm_runpitch, @object
	.size	pm_runpitch, 52
pm_runpitch:
	.zero	52
	.type	pm_runroll, @object
	.size	pm_runroll, 52
pm_runroll:
	.zero	52
	.type	pm_bobup, @object
	.size	pm_bobup, 52
pm_bobup:
	.zero	52
	.type	pm_bobpitch, @object
	.size	pm_bobpitch, 52
pm_bobpitch:
	.zero	52
	.type	pm_bobroll, @object
	.size	pm_bobroll, 52
pm_bobroll:
	.zero	52
	.type	pm_thirdPersonRange, @object
	.size	pm_thirdPersonRange, 52
pm_thirdPersonRange:
	.zero	52
	.type	pm_thirdPersonHeight, @object
	.size	pm_thirdPersonHeight, 52
pm_thirdPersonHeight:
	.zero	52
	.type	pm_thirdPersonAngle, @object
	.size	pm_thirdPersonAngle, 52
pm_thirdPersonAngle:
	.zero	52
	.type	pm_thirdPersonClip, @object
	.size	pm_thirdPersonClip, 52
pm_thirdPersonClip:
	.zero	52
	.type	pm_thirdPerson, @object
	.size	pm_thirdPerson, 52
pm_thirdPerson:
	.zero	52
	.type	pm_thirdPersonDeath, @object
	.size	pm_thirdPersonDeath, 52
pm_thirdPersonDeath:
	.zero	52
	.type	pm_modelView, @object
	.size	pm_modelView, 52
pm_modelView:
	.zero	52
	.type	pm_airTics, @object
	.size	pm_airTics, 52
pm_airTics:
	.zero	52
	.type	g_showPlayerShadow, @object
	.size	g_showPlayerShadow, 52
g_showPlayerShadow:
	.zero	52
	.type	g_showHud, @object
	.size	g_showHud, 52
g_showHud:
	.zero	52
	.type	g_showProjectilePct, @object
	.size	g_showProjectilePct, 52
g_showProjectilePct:
	.zero	52
	.type	g_showBrass, @object
	.size	g_showBrass, 52
g_showBrass:
	.zero	52
	.type	g_gun_x, @object
	.size	g_gun_x, 52
g_gun_x:
	.zero	52
	.type	g_gun_y, @object
	.size	g_gun_y, 52
g_gun_y:
	.zero	52
	.type	g_gun_z, @object
	.size	g_gun_z, 52
g_gun_z:
	.zero	52
	.type	g_viewNodalX, @object
	.size	g_viewNodalX, 52
g_viewNodalX:
	.zero	52
	.type	g_viewNodalZ, @object
	.size	g_viewNodalZ, 52
g_viewNodalZ:
	.zero	52
	.type	g_fov, @object
	.size	g_fov, 52
g_fov:
	.zero	52
	.type	g_skipViewEffects, @object
	.size	g_skipViewEffects, 52
g_skipViewEffects:
	.zero	52
	.type	g_mpWeaponAngleScale, @object
	.size	g_mpWeaponAngleScale, 52
g_mpWeaponAngleScale:
	.zero	52
	.type	g_testParticle, @object
	.size	g_testParticle, 52
g_testParticle:
	.zero	52
	.type	g_testParticleName, @object
	.size	g_testParticleName, 52
g_testParticleName:
	.zero	52
	.type	g_testModelRotate, @object
	.size	g_testModelRotate, 52
g_testModelRotate:
	.zero	52
	.type	g_testPostProcess, @object
	.size	g_testPostProcess, 52
g_testPostProcess:
	.zero	52
	.type	g_testModelAnimate, @object
	.size	g_testModelAnimate, 52
g_testModelAnimate:
	.zero	52
	.type	g_testModelBlend, @object
	.size	g_testModelBlend, 52
g_testModelBlend:
	.zero	52
	.type	g_testDeath, @object
	.size	g_testDeath, 52
g_testDeath:
	.zero	52
	.type	g_exportMask, @object
	.size	g_exportMask, 52
g_exportMask:
	.zero	52
	.type	g_flushSave, @object
	.size	g_flushSave, 52
g_flushSave:
	.zero	52
	.type	aas_test, @object
	.size	aas_test, 52
aas_test:
	.zero	52
	.type	aas_showAreas, @object
	.size	aas_showAreas, 52
aas_showAreas:
	.zero	52
	.type	aas_showPath, @object
	.size	aas_showPath, 52
aas_showPath:
	.zero	52
	.type	aas_showFlyPath, @object
	.size	aas_showFlyPath, 52
aas_showFlyPath:
	.zero	52
	.type	aas_showWallEdges, @object
	.size	aas_showWallEdges, 52
aas_showWallEdges:
	.zero	52
	.type	aas_showHideArea, @object
	.size	aas_showHideArea, 52
aas_showHideArea:
	.zero	52
	.type	aas_pullPlayer, @object
	.size	aas_pullPlayer, 52
aas_pullPlayer:
	.zero	52
	.type	aas_randomPullPlayer, @object
	.size	aas_randomPullPlayer, 52
aas_randomPullPlayer:
	.zero	52
	.type	aas_goalArea, @object
	.size	aas_goalArea, 52
aas_goalArea:
	.zero	52
	.type	aas_showPushIntoArea, @object
	.size	aas_showPushIntoArea, 52
aas_showPushIntoArea:
	.zero	52
	.type	g_password, @object
	.size	g_password, 52
g_password:
	.zero	52
	.type	password, @object
	.size	password, 52
password:
	.zero	52
	.type	g_countDown, @object
	.size	g_countDown, 52
g_countDown:
	.zero	52
	.type	g_gameReviewPause, @object
	.size	g_gameReviewPause, 52
g_gameReviewPause:
	.zero	52
	.type	g_TDMArrows, @object
	.size	g_TDMArrows, 52
g_TDMArrows:
	.zero	52
	.type	g_balanceTDM, @object
	.size	g_balanceTDM, 52
g_balanceTDM:
	.zero	52
	.type	net_clientPredictGUI, @object
	.size	net_clientPredictGUI, 52
net_clientPredictGUI:
	.zero	52
	.type	g_voteFlags, @object
	.size	g_voteFlags, 52
g_voteFlags:
	.zero	52
	.type	g_mapCycle, @object
	.size	g_mapCycle, 52
g_mapCycle:
	.zero	52
	.type	mod_validSkins, @object
	.size	mod_validSkins, 52
mod_validSkins:
	.zero	52
	.type	net_serverDownload, @object
	.size	net_serverDownload, 52
net_serverDownload:
	.zero	52
	.type	net_serverDlBaseURL, @object
	.size	net_serverDlBaseURL, 52
net_serverDlBaseURL:
	.zero	52
	.type	net_serverDlTable, @object
	.size	net_serverDlTable, 52
net_serverDlTable:
	.zero	52
	.section	".text"
.Letext0:
	.file 10 "<built-in>"
	.file 11 "c:\\utils\\devkitpro\\devkitppc\\bin\\../lib/gcc/powerpc-eabi/4.6.3/include/stddef.h"
	.file 12 "c:\\utils\\devkitpro\\devkitppc\\bin\\../lib/gcc/powerpc-eabi/4.6.3/../../../../powerpc-eabi/include/sys/types.h"
	.file 13 "d:/Data/Nintendo/DoomGX/src/game/gamesys/../../idlib/../sys/sys_public.h"
	.file 14 "d:/Data/Nintendo/DoomGX/src/game/gamesys/../../idlib/../framework/Common.h"
	.file 15 "d:/Data/Nintendo/DoomGX/src/game/gamesys/../../idlib/../framework/FileSystem.h"
	.file 16 "d:/Data/Nintendo/DoomGX/src/game/gamesys/../../idlib/../idlib/Lib.h"
	.file 17 "d:/Data/Nintendo/DoomGX/src/game/gamesys/../../idlib/../idlib/math/Random.h"
	.file 18 "d:/Data/Nintendo/DoomGX/src/game/gamesys/../../idlib/../idlib/math/Angles.h"
	.file 19 "d:/Data/Nintendo/DoomGX/src/game/gamesys/../../idlib/../idlib/math/Matrix.h"
	.file 20 "d:/Data/Nintendo/DoomGX/src/game/gamesys/../../idlib/../idlib/math/Quat.h"
	.file 21 "d:/Data/Nintendo/DoomGX/src/game/gamesys/../../idlib/../idlib/math/Rotation.h"
	.file 22 "d:/Data/Nintendo/DoomGX/src/game/gamesys/../../idlib/../idlib/math/Plane.h"
	.file 23 "d:/Data/Nintendo/DoomGX/src/game/gamesys/../../idlib/../idlib/containers/List.h"
	.file 24 "d:/Data/Nintendo/DoomGX/src/game/gamesys/../../idlib/../idlib/math/Ode.h"
	.file 25 "d:/Data/Nintendo/DoomGX/src/game/gamesys/../../idlib/../idlib/bv/Sphere.h"
	.file 26 "d:/Data/Nintendo/DoomGX/src/game/gamesys/../../idlib/../idlib/bv/Bounds.h"
	.file 27 "d:/Data/Nintendo/DoomGX/src/game/gamesys/../../idlib/../idlib/bv/Box.h"
	.file 28 "d:/Data/Nintendo/DoomGX/src/game/gamesys/../../idlib/../idlib/bv/Frustum.h"
	.file 29 "d:/Data/Nintendo/DoomGX/src/game/gamesys/../../idlib/../idlib/geometry/DrawVert.h"
	.file 30 "d:/Data/Nintendo/DoomGX/src/game/gamesys/../../idlib/../idlib/geometry/JointTransform.h"
	.file 31 "d:/Data/Nintendo/DoomGX/src/game/gamesys/../../idlib/../idlib/geometry/Surface.h"
	.file 32 "d:/Data/Nintendo/DoomGX/src/game/gamesys/../../idlib/../idlib/geometry/TraceModel.h"
	.file 33 "d:/Data/Nintendo/DoomGX/src/game/gamesys/../../idlib/../idlib/Str.h"
	.file 34 "d:/Data/Nintendo/DoomGX/src/game/gamesys/../../idlib/../idlib/Token.h"
	.file 35 "d:/Data/Nintendo/DoomGX/src/game/gamesys/../../idlib/../idlib/Lexer.h"
	.file 36 "d:/Data/Nintendo/DoomGX/src/game/gamesys/../../idlib/../framework/File.h"
	.file 37 "d:/Data/Nintendo/DoomGX/src/game/gamesys/../../idlib/../idlib/Parser.h"
	.file 38 "d:/Data/Nintendo/DoomGX/src/game/gamesys/../../idlib/../idlib/containers/HashIndex.h"
	.file 39 "d:/Data/Nintendo/DoomGX/src/game/gamesys/../../idlib/../idlib/containers/StrList.h"
	.file 40 "d:/Data/Nintendo/DoomGX/src/game/gamesys/../../idlib/../idlib/containers/StrPool.h"
	.file 41 "d:/Data/Nintendo/DoomGX/src/game/gamesys/../../idlib/../idlib/containers/PlaneSet.h"
	.file 42 "d:/Data/Nintendo/DoomGX/src/game/gamesys/../../idlib/../idlib/Dict.h"
	.file 43 "d:/Data/Nintendo/DoomGX/src/game/gamesys/../../idlib/../idlib/LangDict.h"
	.file 44 "d:/Data/Nintendo/DoomGX/src/game/gamesys/../../idlib/../idlib/BitMsg.h"
	.file 45 "d:/Data/Nintendo/DoomGX/src/game/gamesys/../../idlib/../idlib/MapFile.h"
	.file 46 "d:/Data/Nintendo/DoomGX/src/game/gamesys/../../idlib/../framework/UsercmdGen.h"
	.file 47 "d:/Data/Nintendo/DoomGX/src/game/gamesys/../../idlib/../framework/DeclManager.h"
	.file 48 "d:/Data/Nintendo/DoomGX/src/game/gamesys/../../idlib/../framework/DeclParticle.h"
	.file 49 "d:/Data/Nintendo/DoomGX/src/game/gamesys/../../idlib/../renderer/RenderWorld.h"
	.file 50 "d:/Data/Nintendo/DoomGX/src/game/gamesys/../../idlib/../renderer/Cinematic.h"
	.file 51 "d:/Data/Nintendo/DoomGX/src/game/gamesys/../../idlib/../renderer/Model.h"
	.file 52 "d:/Data/Nintendo/DoomGX/src/game/gamesys/../../idlib/../renderer/RenderSystem.h"
	.file 53 "d:/Data/Nintendo/DoomGX/src/game/gamesys/../../idlib/../sound/sound.h"
	.file 54 "d:/Data/Nintendo/DoomGX/src/game/gamesys/../../idlib/../ui/UserInterface.h"
	.file 55 "d:/Data/Nintendo/DoomGX/src/game/gamesys/../../idlib/../cm/CollisionModel.h"
	.file 56 "d:/Data/Nintendo/DoomGX/src/game/gamesys/../../idlib/../tools/compilers/aas/AASFile.h"
	.file 57 "d:/Data/Nintendo/DoomGX/src/game/gamesys/../../idlib/../game/Game.h"
	.file 58 "d:/Data/Nintendo/DoomGX/src/game/gamesys/../../idlib/../framework/async/NetworkSystem.h"
	.file 59 "d:/Data/Nintendo/DoomGX/src/game/gamesys/../../idlib/../renderer/ModelManager.h"
	.file 60 "d:/Data/Nintendo/DoomGX/src/game/gamesys/../../idlib/../tools/compilers/aas/AASFileManager.h"
	.file 61 "d:/Data/Nintendo/DoomGX/src/game/gamesys/../../idlib/../framework/Session.h"
	.file 62 "d:/Data/Nintendo/DoomGX/src/game/gamesys/../../idlib/../ui/ListGUI.h"
	.file 63 "d:/Data/Nintendo/DoomGX/src/game/gamesys/../gamesys/Event.h"
	.file 64 "d:/Data/Nintendo/DoomGX/src/game/gamesys/../ai/AAS.h"
	.file 65 "d:/Data/Nintendo/DoomGX/src/game/gamesys/../../idlib/../framework/Console.h"
	.file 66 "d:/Data/Nintendo/DoomGX/src/game/gamesys/../../idlib/../idlib/math/Curve.h"
	.file 67 "d:/Data/Nintendo/DoomGX/src/game/gamesys/../../idlib/../idlib/math/Simd.h"
	.file 68 "d:/Data/Nintendo/DoomGX/src/game/gamesys/../../idlib/../framework/BuildVersion.h"
	.file 69 "d:/Data/Nintendo/DoomGX/src/game/gamesys/../../idlib/precompiled.h"
	.file 70 "d:/Data/Nintendo/DoomGX/src/game/gamesys/../../idlib/../renderer/Material.h"
	.file 71 "d:/Data/Nintendo/DoomGX/src/game/gamesys/../../idlib/../framework/EventLoop.h"
	.file 72 "d:/Data/Nintendo/DoomGX/src/game/gamesys/../../idlib/../framework/EditField.h"
	.file 73 "d:/Data/Nintendo/DoomGX/src/game/gamesys/../../idlib/../framework/async/AsyncNetwork.h"
	.file 74 "d:/Data/Nintendo/DoomGX/src/game/gamesys/../../idlib/../framework/async/AsyncServer.h"
	.file 75 "d:/Data/Nintendo/DoomGX/src/game/gamesys/../gamesys/SaveGame.h"
	.file 76 "d:/Data/Nintendo/DoomGX/src/game/gamesys/../anim/Anim.h"
	.file 77 "d:/Data/Nintendo/DoomGX/src/game/gamesys/../MultiplayerGame.h"
	.file 78 "d:/Data/Nintendo/DoomGX/src/game/gamesys/../Entity.h"
	.file 79 "d:/Data/Nintendo/DoomGX/src/game/gamesys/../AFEntity.h"
	.file 80 "d:/Data/Nintendo/DoomGX/src/game/gamesys/../Weapon.h"
	.file 81 "d:/Data/Nintendo/DoomGX/src/game/gamesys/../ai/AI.h"
	.file 82 "d:/Data/Nintendo/DoomGX/src/game/gamesys/../script/Script_Compiler.h"
	.file 83 "d:/Data/Nintendo/DoomGX/src/game/gamesys/../script/Script_Thread.h"