	.file	"tr_subview.cpp"
	.section	".text"
.Ltext0:
	.section	.text._ZN14idFixedWinding5ClearEv,"axG",@progbits,_ZN14idFixedWinding5ClearEv,comdat
	.align 2
	.weak	_ZN14idFixedWinding5ClearEv
	.type	_ZN14idFixedWinding5ClearEv, @function
_ZN14idFixedWinding5ClearEv:
.LFB1502:
	.file 1 "d:/Data/Nintendo/DoomGX/src/renderer/../idlib/../idlib/geometry/Winding.h"
	.loc 1 398 0
	.cfi_startproc
.LVL0:
	.loc 1 399 0
	li 0,0
	.loc 1 400 0
	.loc 1 399 0
	stw 0,4(3)
	.loc 1 400 0
	blr
	.cfi_endproc
.LFE1502:
	.size	_ZN14idFixedWinding5ClearEv, .-_ZN14idFixedWinding5ClearEv
	.section	.text._ZN9idWinding5ClearEv,"axG",@progbits,_ZN9idWinding5ClearEv,comdat
	.align 2
	.weak	_ZN9idWinding5ClearEv
	.type	_ZN9idWinding5ClearEv, @function
_ZN9idWinding5ClearEv:
.LFB1473:
	.loc 1 249 0
	.cfi_startproc
.LVL1:
	mflr 0
	stwu 1,-16(1)
.LCFI0:
	.cfi_def_cfa_offset 16
	.cfi_register 65, 0
	stw 31,12(1)
	mr 31,3
	.cfi_offset 31, -4
	stw 0,20(1)
	.loc 1 250 0
	li 0,0
	.cfi_offset 65, 4
	.loc 1 251 0
	lwz 3,8(3)
.LVL2:
	.loc 1 250 0
	stw 0,4(31)
	.loc 1 251 0
	cmpwi 7,3,0
	beq- 7,.L3
	.loc 1 251 0 is_stmt 0 discriminator 1
	bl _ZdaPv
.L3:
	.loc 1 252 0 is_stmt 1
	li 0,0
	stw 0,8(31)
	.loc 1 253 0
	lwz 0,20(1)
	lwz 31,12(1)
.LVL3:
	mtlr 0
	addi 1,1,16
.LCFI1:
	.cfi_def_cfa_offset 0
	.cfi_restore 31
	blr
	.cfi_endproc
.LFE1473:
	.size	_ZN9idWinding5ClearEv, .-_ZN9idWinding5ClearEv
	.section	.text._ZN9idWindingD2Ev,"axG",@progbits,_ZN9idWindingD5Ev,comdat
	.align 2
	.weak	_ZN9idWindingD2Ev
	.type	_ZN9idWindingD2Ev, @function
_ZN9idWindingD2Ev:
.LFB1461:
	.loc 1 183 0
	.cfi_startproc
.LVL4:
	mflr 0
	stwu 1,-16(1)
.LCFI2:
	.cfi_def_cfa_offset 16
	.cfi_register 65, 0
.LBB1105:
	lis 9,_ZTV9idWinding+8@ha
.LBE1105:
	stw 31,12(1)
	mr 31,3
	.cfi_offset 31, -4
	stw 0,20(1)
.LBB1106:
	.loc 1 183 0
	la 0,_ZTV9idWinding+8@l(9)
	.cfi_offset 65, 4
	.loc 1 184 0
	lwz 3,8(3)
.LVL5:
	.loc 1 183 0
	stw 0,0(31)
	.loc 1 184 0
	cmpwi 7,3,0
	beq- 7,.L6
	.loc 1 184 0 is_stmt 0 discriminator 1
	bl _ZdaPv
.L6:
	.loc 1 185 0 is_stmt 1
	li 0,0
	stw 0,8(31)
.LBE1106:
	.loc 1 186 0
	lwz 0,20(1)
	lwz 31,12(1)
.LVL6:
	mtlr 0
	addi 1,1,16
.LCFI3:
	.cfi_def_cfa_offset 0
	.cfi_restore 31
	blr
	.cfi_endproc
.LFE1461:
	.size	_ZN9idWindingD2Ev, .-_ZN9idWindingD2Ev
	.section	".text"
	.align 2
	.type	_ZL14R_MirrorVector6idVec3P13orientation_tS1_RS_.constprop.28, @function
_ZL14R_MirrorVector6idVec3P13orientation_tS1_RS_.constprop.28:
.LFB2840:
	.file 2 "d:/Data/Nintendo/DoomGX/src/renderer/tr_subview.cpp"
	.loc 2 68 0
	.cfi_startproc
.LVL7:
.LBB1107:
.LBB1108:
.LBB1109:
	.file 3 "d:/Data/Nintendo/DoomGX/src/renderer/../idlib/../idlib/math/Vector.h"
	.loc 3 424 0
	lis 9,vec3_origin@ha
	.loc 3 426 0
	lfs 5,0(3)
	.loc 3 424 0
	lfs 11,vec3_origin@l(9)
.LVL8:
	la 9,vec3_origin@l(9)
	.loc 3 426 0
	lfs 6,4(3)
	addi 4,4,12
.LVL9:
	.loc 3 424 0
	stfs 11,0(6)
	addi 5,5,12
.LVL10:
	.loc 3 426 0
	lfs 7,8(3)
	.loc 3 425 0
	lfs 12,4(9)
	stfs 12,4(6)
	.loc 3 426 0
	lfs 13,8(9)
	.loc 2 73 0
	li 9,0
	.loc 3 426 0
	stfs 13,8(6)
.LVL11:
.L9:
	.loc 2 74 0
	mulli 0,9,12
.LBE1109:
.LBE1108:
	.loc 2 73 0
	cmpwi 7,9,2
	addi 9,9,1
.LVL12:
.LBB1114:
.LBB1110:
	.loc 2 74 0
	add 11,4,0
.LVL13:
	.loc 3 435 0
	lfsx 10,4,0
.LBE1110:
.LBE1114:
.LBB1115:
.LBB1116:
	lfs 0,4(11)
.LBE1116:
.LBE1115:
.LBB1118:
.LBB1111:
	lfs 8,8(11)
	add 11,5,0
.LVL14:
.LBE1111:
.LBE1118:
.LBB1119:
.LBB1117:
	fmuls 0,6,0
.LBE1117:
.LBE1119:
.LBB1120:
.LBB1112:
	lfs 9,4(11)
	fmadds 0,5,10,0
	lfs 10,8(11)
	fmadds 0,8,7,0
.LVL15:
	.loc 3 456 0
	lfsx 8,5,0
.LBE1112:
.LBE1120:
.LBB1121:
.LBB1122:
	.loc 3 457 0
	fmadds 12,0,9,12
.LBE1122:
.LBE1121:
.LBB1124:
.LBB1113:
	.loc 3 456 0
	fmadds 11,0,8,11
.LBE1113:
.LBE1124:
.LBB1125:
.LBB1123:
	.loc 3 458 0
	fmadds 13,0,10,13
	.loc 3 457 0
	stfs 12,4(6)
	.loc 3 456 0
	stfs 11,0(6)
	.loc 3 458 0
	stfs 13,8(6)
.LBE1123:
.LBE1125:
	.loc 2 73 0
	bne+ 7,.L9
.LBE1107:
	.loc 2 77 0
	blr
	.cfi_endproc
.LFE2840:
	.size	_ZL14R_MirrorVector6idVec3P13orientation_tS1_RS_.constprop.28, .-_ZL14R_MirrorVector6idVec3P13orientation_tS1_RS_.constprop.28
	.section	.text._ZN14idFixedWindingD0Ev,"axG",@progbits,_ZN14idFixedWindingD5Ev,comdat
	.align 2
	.weak	_ZN14idFixedWindingD0Ev
	.type	_ZN14idFixedWindingD0Ev, @function
_ZN14idFixedWindingD0Ev:
.LFB1500:
	.loc 1 380 0
	.cfi_startproc
.LVL16:
	mflr 0
	stwu 1,-8(1)
.LCFI4:
	.cfi_def_cfa_offset 8
	.cfi_register 65, 0
.LBB1132:
.LBB1133:
.LBB1134:
.LBB1135:
.LBB1136:
.LBB1137:
	.loc 1 183 0
	lis 11,_ZTV9idWinding+8@ha
.LBE1137:
.LBE1136:
.LBE1135:
.LBE1134:
.LBE1133:
.LBE1132:
	.loc 1 380 0
	stw 0,12(1)
.LBB1143:
.LBB1142:
.LBB1141:
	.loc 1 381 0
	li 0,0
	.cfi_offset 65, 4
	stw 0,8(3)
.LVL17:
.LBB1140:
.LBB1139:
.LBB1138:
	.loc 1 183 0
	la 0,_ZTV9idWinding+8@l(11)
	stw 0,0(3)
.LBE1138:
.LBE1139:
.LBE1140:
.LBE1141:
.LBE1142:
.LBE1143:
	.loc 1 382 0
	bl _ZdlPv
.LVL18:
	lwz 0,12(1)
	addi 1,1,8
.LCFI5:
	.cfi_def_cfa_offset 0
	mtlr 0
	blr
	.cfi_endproc
.LFE1500:
	.size	_ZN14idFixedWindingD0Ev, .-_ZN14idFixedWindingD0Ev
	.section	.text._ZN14idFixedWindingD2Ev,"axG",@progbits,_ZN14idFixedWindingD5Ev,comdat
	.align 2
	.weak	_ZN14idFixedWindingD2Ev
	.type	_ZN14idFixedWindingD2Ev, @function
_ZN14idFixedWindingD2Ev:
.LFB1498:
	.loc 1 380 0
	.cfi_startproc
.LVL19:
.LBB1149:
	.loc 1 381 0
	li 0,0
.LBB1150:
.LBB1151:
.LBB1152:
	.loc 1 183 0
	lis 9,_ZTV9idWinding+8@ha
.LBE1152:
.LBE1151:
.LBE1150:
	.loc 1 381 0
	stw 0,8(3)
.LVL20:
.LBB1155:
.LBB1154:
.LBB1153:
	.loc 1 183 0
	la 0,_ZTV9idWinding+8@l(9)
	stw 0,0(3)
.LBE1153:
.LBE1154:
.LBE1155:
.LBE1149:
	.loc 1 382 0
	blr
	.cfi_endproc
.LFE1498:
	.size	_ZN14idFixedWindingD2Ev, .-_ZN14idFixedWindingD2Ev
	.section	.text._ZN9idWindingD0Ev,"axG",@progbits,_ZN9idWindingD5Ev,comdat
	.align 2
	.weak	_ZN9idWindingD0Ev
	.type	_ZN9idWindingD0Ev, @function
_ZN9idWindingD0Ev:
.LFB1463:
	.loc 1 183 0
	.cfi_startproc
.LVL21:
	mflr 0
	stwu 1,-16(1)
.LCFI6:
	.cfi_def_cfa_offset 16
	.cfi_register 65, 0
.LBB1159:
.LBB1160:
.LBB1161:
	lis 9,_ZTV9idWinding+8@ha
.LBE1161:
.LBE1160:
.LBE1159:
	stw 31,12(1)
	mr 31,3
	.cfi_offset 31, -4
.LVL22:
	stw 0,20(1)
.LBB1166:
.LBB1164:
.LBB1162:
	.loc 1 183 0
	la 0,_ZTV9idWinding+8@l(9)
	.cfi_offset 65, 4
	.loc 1 184 0
	lwz 3,8(3)
.LVL23:
	.loc 1 183 0
	stw 0,0(31)
	.loc 1 184 0
	cmpwi 7,3,0
	beq- 7,.L19
	bl _ZdaPv
.L19:
	.loc 1 185 0
	li 0,0
.LBE1162:
.LBE1164:
.LBE1166:
	.loc 1 186 0
	mr 3,31
.LBB1167:
.LBB1165:
.LBB1163:
	.loc 1 185 0
	stw 0,8(31)
.LBE1163:
.LBE1165:
.LBE1167:
	.loc 1 186 0
	bl _ZdlPv
	lwz 0,20(1)
	lwz 31,12(1)
.LVL24:
	mtlr 0
	addi 1,1,16
.LCFI7:
	.cfi_def_cfa_offset 0
	.cfi_restore 31
	blr
	.cfi_endproc
.LFE1463:
	.size	_ZN9idWindingD0Ev, .-_ZN9idWindingD0Ev
	.section	".text"
	.align 2
	.type	_ZL21R_MirrorViewBySurfaceP10drawSurf_s.isra.16, @function
_ZL21R_MirrorViewBySurfaceP10drawSurf_s.isra.16:
.LFB2830:
	.loc 2 217 0
	.cfi_startproc
	stwu 1,-248(1)
.LCFI8:
	.cfi_def_cfa_offset 248
	mflr 0
	stw 30,240(1)
.LBB1282:
	.loc 2 224 0
	lis 30,tr@ha
	.cfi_offset 30, -8
	.cfi_register 65, 0
.LBE1282:
	.loc 2 217 0
	stw 27,228(1)
.LBB1635:
	.loc 2 224 0
	la 30,tr@l(30)
.LBE1635:
	.loc 2 217 0
	mr 27,3
	.cfi_offset 27, -20
.LBB1636:
	.loc 2 223 0
	li 3,624
.LBE1636:
	.loc 2 217 0
	stw 0,252(1)
	stw 25,220(1)
	stw 26,224(1)
	stw 28,232(1)
	mr 28,4
	.cfi_offset 28, -16
	.cfi_offset 26, -24
	.cfi_offset 25, -28
	.cfi_offset 65, 4
	stw 31,244(1)
	stw 23,212(1)
	stw 24,216(1)
	stw 29,236(1)
.LBB1637:
	.loc 2 223 0
	.cfi_offset 29, -12
	.cfi_offset 24, -32
	.cfi_offset 23, -36
	.cfi_offset 31, -4
	bl _Z12R_FrameAlloci
	.loc 2 224 0
	lwz 26,252(30)
	.loc 2 223 0
	mr 31,3
.LVL25:
.LBB1283:
.LBB1284:
.LBB1285:
.LBB1286:
.LBB1287:
.LBB1288:
	.file 4 "d:/Data/Nintendo/DoomGX/src/renderer/../idlib/../idlib/math/Matrix.h"
	.loc 4 333 0
	addi 25,3,40
	li 10,0
.LBE1288:
.LBE1287:
	.file 5 "d:/Data/Nintendo/DoomGX/src/renderer/../idlib/../renderer/RenderWorld.h"
	.loc 5 206 0
	lwz 0,0(26)
.LBB1297:
.LBB1295:
	.loc 4 333 0
	addi 8,26,40
.LBE1295:
.LBE1297:
	.loc 5 206 0
	stw 0,0(3)
	lwz 0,4(26)
	stw 0,4(3)
	lwz 0,8(26)
	stw 0,8(3)
	lwz 0,12(26)
	stw 0,12(3)
	lwz 0,16(26)
	stw 0,16(3)
	lwz 0,20(26)
	stw 0,20(3)
	lwz 0,24(26)
	stw 0,24(3)
.LVL26:
.LBB1298:
.LBB1299:
	.loc 3 424 0
	lwz 0,28(26)
	stw 0,28(3)
	.loc 3 425 0
	lwz 0,32(26)
	stw 0,32(3)
	.loc 3 426 0
	lwz 0,36(26)
	stw 0,36(3)
.LVL27:
.L23:
.LBE1299:
.LBE1298:
.LBB1300:
.LBB1296:
.LBB1289:
.LBB1290:
	.loc 3 424 0
	mr 11,8
	mr 9,25
	lwzux 0,11,10
.LBE1290:
.LBE1289:
	.loc 4 333 0
	cmpwi 7,10,24
.LBB1293:
.LBB1291:
	.loc 3 424 0
	stwux 0,9,10
.LBE1291:
.LBE1293:
	.loc 4 333 0
	addi 10,10,12
.LBB1294:
.LBB1292:
	.loc 3 425 0
	lwz 0,4(11)
	stw 0,4(9)
	.loc 3 426 0
	lwz 0,8(11)
	stw 0,8(9)
.LBE1292:
.LBE1294:
	.loc 4 333 0
	bne+ 7,.L23
.LBE1296:
.LBE1300:
	.loc 5 206 0
	lbz 0,76(26)
	addi 4,26,84
	li 5,48
	addi 3,31,84
.LVL28:
	stb 0,76(31)
	lbz 0,77(26)
	stb 0,77(31)
	lwz 0,80(26)
	stw 0,80(31)
	bl memcpy
.LVL29:
	lwz 0,132(26)
.LBE1286:
.LBE1285:
	.file 6 "d:/Data/Nintendo/DoomGX/src/renderer/tr_local.h"
	.loc 6 384 0
	addi 4,26,136
	li 5,64
.LBB1302:
.LBB1301:
	.loc 5 206 0
	stw 0,132(31)
.LBE1301:
.LBE1302:
	.loc 6 384 0
	addi 3,31,136
	bl memcpy
	lbz 0,200(26)
	addi 4,26,204
	li 5,160
	stb 0,200(31)
	addi 3,31,204
	bl memcpy
	lwz 0,364(26)
	addi 3,31,468
	addi 4,26,468
	stw 0,364(31)
	li 5,80
	lwz 0,368(26)
	stw 0,368(31)
.LVL30:
.LBB1303:
.LBB1304:
	.loc 3 424 0
	lwz 0,372(26)
	stw 0,372(31)
	.loc 3 425 0
	lwz 0,376(26)
	stw 0,376(31)
	.loc 3 426 0
	lwz 0,380(26)
	stw 0,380(31)
.LBE1304:
.LBE1303:
	.loc 6 384 0
	lbz 0,384(26)
	stb 0,384(31)
	lbz 0,385(26)
	stb 0,385(31)
	lbz 0,386(26)
	stb 0,386(31)
	lbz 0,387(26)
	stb 0,387(31)
	lwz 0,388(26)
	stw 0,388(31)
	lwz 10,392(26)
	lwz 11,396(26)
	lwz 9,400(26)
	lwz 0,404(26)
	stw 10,392(31)
	stw 11,396(31)
	stw 9,400(31)
	stw 0,404(31)
	lwz 9,416(26)
	lwz 0,420(26)
	lwz 10,408(26)
	lwz 11,412(26)
	stw 10,408(31)
	stw 11,412(31)
	stw 9,416(31)
	stw 0,420(31)
	lwz 10,424(26)
	lwz 0,436(26)
	lwz 11,428(26)
	lwz 9,432(26)
	stw 10,424(31)
	stw 11,428(31)
	stw 9,432(31)
	stw 0,436(31)
	lwz 0,440(26)
	stw 0,440(31)
	lwz 0,444(26)
	stw 0,444(31)
	lwz 0,448(26)
	stw 0,448(31)
	lwz 0,452(26)
	stw 0,452(31)
	lwz 0,456(26)
	stw 0,456(31)
	lwz 0,460(26)
	stw 0,460(31)
	lwz 0,464(26)
	stw 0,464(31)
	bl memcpy
.LVL31:
.LBB1305:
.LBB1306:
.LBB1307:
.LBB1308:
	.loc 3 424 0
	lwz 0,548(26)
.LBE1308:
.LBE1307:
.LBB1311:
.LBB1312:
	.loc 4 333 0
	addi 7,31,560
	addi 8,26,560
.LBE1312:
.LBE1311:
.LBB1321:
.LBB1309:
	.loc 3 424 0
	stw 0,548(31)
.LBE1309:
.LBE1321:
.LBB1322:
.LBB1319:
	.loc 4 333 0
	li 10,0
.LBE1319:
.LBE1322:
.LBB1323:
.LBB1310:
	.loc 3 425 0
	lwz 0,552(26)
	stw 0,552(31)
	.loc 3 426 0
	lwz 0,556(26)
	stw 0,556(31)
.LVL32:
.L24:
.LBE1310:
.LBE1323:
.LBB1324:
.LBB1320:
.LBB1313:
.LBB1314:
	.loc 3 424 0
	mr 11,8
	mr 9,7
	lwzux 0,11,10
.LBE1314:
.LBE1313:
	.loc 4 333 0
	cmpwi 7,10,24
.LBB1317:
.LBB1315:
	.loc 3 424 0
	stwux 0,9,10
.LBE1315:
.LBE1317:
	.loc 4 333 0
	addi 10,10,12
.LBB1318:
.LBB1316:
	.loc 3 425 0
	lwz 0,4(11)
	stw 0,4(9)
	.loc 3 426 0
	lwz 0,8(11)
	stw 0,8(9)
.LBE1316:
.LBE1318:
	.loc 4 333 0
	bne+ 7,.L24
.LBE1320:
.LBE1324:
	.file 7 "d:/Data/Nintendo/DoomGX/src/renderer/../idlib/../idlib/bv/Frustum.h"
	.loc 7 40 0
	lwz 9,596(26)
.LBE1306:
.LBE1305:
.LBE1284:
.LBE1283:
	.loc 2 227 0
	li 0,1
	.loc 2 225 0
	li 11,0
.LBB1338:
.LBB1339:
.LBB1340:
.LBB1341:
.LBB1342:
.LBB1343:
.LBB1344:
.LBB1345:
.LBB1346:
	.loc 3 536 0
	lis 8,.LC6@ha
.LBE1346:
.LBE1345:
.LBE1344:
.LBE1343:
.LBE1342:
.LBE1341:
.LBE1340:
.LBE1339:
.LBE1338:
.LBB1464:
.LBB1333:
.LBB1329:
.LBB1325:
	.loc 7 40 0
	stw 9,596(31)
.LBE1325:
.LBE1329:
.LBE1333:
.LBE1464:
.LBB1465:
.LBB1458:
.LBB1451:
.LBB1444:
.LBB1401:
.LBB1394:
.LBB1365:
.LBB1366:
.LBB1367:
.LBB1368:
	.file 8 "d:/Data/Nintendo/DoomGX/src/renderer/../idlib/../idlib/math/Math.h"
	.loc 8 275 0
	lis 29,.LC1@ha
.LBE1368:
.LBE1367:
.LBE1366:
.LBE1365:
.LBB1383:
.LBB1360:
.LBB1355:
	.loc 3 536 0
	lfs 8,.LC6@l(8)
.LBE1355:
.LBE1360:
.LBE1383:
.LBB1384:
.LBB1377:
.LBB1373:
.LBB1369:
	.loc 8 278 0
	lis 24,.LC3@ha
.LBE1369:
.LBE1373:
.LBE1377:
.LBE1384:
.LBE1394:
.LBE1401:
.LBE1444:
.LBE1451:
.LBE1458:
.LBE1465:
.LBB1466:
.LBB1334:
.LBB1330:
.LBB1326:
	.loc 7 40 0
	lwz 9,600(26)
.LBE1326:
.LBE1330:
.LBE1334:
.LBE1466:
.LBB1467:
.LBB1459:
.LBB1452:
.LBB1445:
.LBB1402:
.LBB1395:
.LBB1385:
.LBB1378:
.LBB1374:
.LBB1370:
	.loc 8 276 0
	lis 23,_ZN6idMath5iSqrtE@ha
	.loc 8 278 0
	lfs 7,.LC3@l(24)
	.loc 8 276 0
	la 23,_ZN6idMath5iSqrtE@l(23)
.LBE1370:
.LBE1374:
.LBE1378:
.LBE1385:
.LBE1395:
.LBE1402:
.LBE1445:
.LBE1452:
.LBE1459:
.LBE1467:
.LBB1468:
.LBB1335:
.LBB1331:
.LBB1327:
	.loc 7 40 0
	stw 9,600(31)
.LBE1327:
.LBE1331:
.LBE1335:
.LBE1468:
.LBB1469:
.LBB1460:
.LBB1453:
.LBB1446:
.LBB1403:
.LBB1396:
.LBB1386:
.LBB1379:
.LBB1375:
.LBB1371:
	.loc 8 275 0
	lfs 6,.LC1@l(29)
.LBE1371:
.LBE1375:
.LBE1379:
.LBE1386:
.LBE1396:
.LBE1403:
.LBE1446:
.LBE1453:
.LBE1460:
.LBE1469:
.LBB1470:
.LBB1336:
.LBB1332:
.LBB1328:
	.loc 7 40 0
	lwz 9,604(26)
	stw 9,604(31)
	lwz 9,608(26)
	stw 9,608(31)
	lwz 9,612(26)
	stw 9,612(31)
.LBE1328:
.LBE1332:
	.loc 6 384 0
	lwz 9,616(26)
	stw 9,616(31)
	lwz 9,620(26)
.LBE1336:
.LBE1470:
	.loc 2 225 0
	stw 11,0(31)
.LBB1471:
.LBB1337:
	.loc 6 384 0
	stw 9,620(31)
.LBE1337:
.LBE1471:
	.loc 2 227 0
	stb 0,384(31)
	.loc 2 228 0
	stb 0,385(31)
	.loc 2 231 0
	lwz 9,0(27)
	.loc 2 579 0
	lwz 11,48(9)
.LVL33:
	lwz 9,40(9)
.LBB1472:
.LBB1461:
	.loc 2 91 0
	lwz 0,4(11)
	.loc 2 92 0
	lwz 7,8(11)
	.loc 2 90 0
	lwz 10,0(11)
	.loc 2 91 0
	mulli 0,0,60
	.loc 2 92 0
	mulli 7,7,60
	.loc 2 90 0
	mulli 10,10,60
	.loc 2 91 0
	add 11,9,0
	.loc 2 92 0
	add 8,9,7
.LBB1454:
.LBB1447:
.LBB1404:
.LBB1405:
	.loc 3 431 0
	lfsx 9,9,0
	lfs 12,8(11)
	lfsx 10,9,10
.LBE1405:
.LBE1404:
.LBE1447:
.LBE1454:
	.loc 2 90 0
	add 10,9,10
.LVL34:
.LBB1455:
.LBB1448:
.LBB1411:
.LBB1412:
	.loc 3 431 0
	lfs 11,8(8)
.LBE1412:
.LBE1411:
.LBB1419:
.LBB1406:
	fsubs 10,10,9
	lfs 5,4(11)
.LBE1406:
.LBE1419:
.LBB1420:
.LBB1413:
	fsubs 11,11,12
.LBE1413:
.LBE1420:
.LBB1421:
.LBB1407:
	lfs 4,8(10)
.LBE1407:
.LBE1421:
.LBB1422:
.LBB1414:
	lfsx 13,9,7
	lfs 0,4(8)
.LBE1414:
.LBE1422:
.LBB1423:
.LBB1408:
	fsubs 12,4,12
.LVL35:
.LBE1408:
.LBE1423:
.LBB1424:
.LBB1415:
	fsubs 9,13,9
.LBE1415:
.LBE1424:
.LBB1425:
.LBB1409:
	lfs 13,4(10)
.LBE1409:
.LBE1425:
.LBB1426:
.LBB1416:
	fsubs 0,0,5
.LBE1416:
.LBE1426:
.LBB1427:
.LBB1428:
	.loc 3 620 0
	fmuls 3,10,11
.LBE1428:
.LBE1427:
.LBB1431:
.LBB1410:
	.loc 3 431 0
	fsubs 13,13,5
.LVL36:
.LBE1410:
.LBE1431:
.LBB1432:
.LBB1429:
	.loc 3 620 0
	fmuls 4,12,0
.LBE1429:
.LBE1432:
.LBB1433:
.LBB1417:
	fmsubs 12,12,9,3
.LVL37:
	fmsubs 11,13,11,4
.LVL38:
.LBE1417:
.LBE1433:
.LBB1434:
.LBB1397:
.LBB1387:
.LBB1380:
	.loc 3 649 0
	fmuls 5,12,12
.LBE1380:
.LBE1387:
.LBE1397:
.LBE1434:
.LBB1435:
.LBB1430:
	.loc 3 620 0
	fmuls 13,13,9
.LBE1430:
.LBE1435:
.LBB1436:
.LBB1418:
	fmsubs 13,10,0,13
.LVL39:
	.loc 3 649 0
	fmadds 0,11,11,5
.LVL40:
	fmadds 0,13,13,0
	stfs 0,176(1)
.LVL41:
.LBE1418:
.LBE1436:
.LBB1437:
.LBB1398:
.LBB1388:
.LBB1381:
.LBB1376:
.LBB1372:
	.loc 8 275 0
	fmuls 6,0,6
	.loc 8 270 0
	lwz 10,176(1)
.LVL42:
	.loc 8 276 0
	rlwinm 7,10,9,24,31
.LVL43:
	rlwinm 10,10,19,21,29
	lwzx 8,23,10
.LVL44:
	subfic 10,7,380
	rlwinm 10,10,22,0,8
	.loc 2 217 0
	fneg 6,6
.LVL45:
	.loc 8 276 0
	or 10,10,8
	.loc 8 277 0
	stw 10,192(1)
	lfs 0,192(1)
.LVL46:
	fmr 9,0
.LVL47:
	.loc 8 278 0
	fmul 10,9,9
	fmadd 10,6,10,7
	fmul 10,9,10
.LVL48:
	.loc 8 279 0
	fmul 0,10,10
	fmadd 0,6,0,7
.LVL49:
	fmul 0,10,0
.LVL50:
	.loc 8 280 0
	frsp 0,0
.LVL51:
.LBE1372:
.LBE1376:
	.loc 3 651 0
	fmuls 11,11,0
.LVL52:
	.loc 3 652 0
	fmuls 12,12,0
.LVL53:
	.loc 3 653 0
	fmuls 13,13,0
.LVL54:
	.loc 3 651 0
	stfs 11,180(1)
.LBE1381:
.LBE1388:
.LBB1389:
.LBB1361:
.LBB1356:
	.loc 3 536 0
	fcmpu 7,11,8
.LBE1356:
.LBE1361:
.LBE1389:
.LBB1390:
.LBB1382:
	.loc 3 652 0
	stfs 12,184(1)
	.loc 3 651 0
	lwz 8,180(1)
	.loc 3 653 0
	stfs 13,188(1)
	.loc 3 651 0
	stw 8,36(1)
	.loc 3 654 0
	lfs 12,176(1)
	.loc 3 652 0
	lwz 8,184(1)
	.loc 3 653 0
	lwz 10,188(1)
	.loc 3 654 0
	fmuls 0,12,0
.LVL55:
	.loc 3 652 0
	stw 8,40(1)
	.loc 3 653 0
	stw 10,44(1)
.LBE1382:
.LBE1390:
.LBB1391:
.LBB1362:
.LBB1357:
	.loc 3 536 0
	bne- 7,.L25
	.loc 3 537 0
	lfs 12,184(1)
	fcmpu 7,12,8
	bne- 7,.L26
	.loc 3 538 0
	fcmpu 7,13,8
	bng- 7,.L50
	.loc 3 539 0
	lis 10,.LC0@ha
	lfs 12,188(1)
	lfs 13,.LC0@l(10)
	fcmpu 7,12,13
	beq- 7,.L29
	.loc 3 545 0
	stfs 13,44(1)
	b .L29
.L25:
	.loc 3 564 0
	lfs 13,184(1)
	fcmpu 6,13,8
	bne- 6,.L30
	.loc 3 565 0
	lfs 12,188(1)
	fcmpu 6,12,8
	bne- 6,.L30
	.loc 3 566 0
	bng- 7,.L52
	.loc 3 567 0
	lis 10,.LC0@ha
	lfs 12,180(1)
	lfs 13,.LC0@l(10)
	fcmpu 7,12,13
	beq- 7,.L29
	.loc 3 573 0
	stfs 13,36(1)
	b .L29
.L26:
	.loc 3 550 0
	lfs 13,188(1)
	fcmpu 6,13,8
	beq- 6,.L56
.L30:
.LVL56:
.LBB1347:
.LBB1348:
	.loc 8 781 0
	lwz 8,180(1)
.LBE1348:
.LBE1347:
	.loc 3 580 0
	lis 10,.LC0@ha
	lfs 13,.LC0@l(10)
.LBB1350:
.LBB1349:
	.loc 8 781 0
	rlwinm 10,8,0,1,31
.LBE1349:
.LBE1350:
	.loc 3 580 0
	stw 10,192(1)
	lfs 12,192(1)
	fcmpu 7,12,13
	bne- 7,.L35
	.loc 3 581 0
	lis 8,.LC6@ha
	lfs 12,184(1)
	lfs 13,.LC6@l(8)
	fcmpu 7,12,13
	beq- 7,.L57
.L36:
	.loc 3 582 0
	li 10,0
	stw 10,44(1)
	stw 10,40(1)
.LVL57:
.L29:
.LBE1357:
.LBE1362:
.LBE1391:
.LBE1398:
.LBE1437:
	.file 9 "d:/Data/Nintendo/DoomGX/src/renderer/../idlib/../idlib/math/Plane.h"
	.loc 9 281 0
	lis 8,.LC6@ha
	lfs 13,.LC6@l(8)
	fcmpu 7,0,13
	beq- 7,.L40
.LVL58:
.LBB1438:
.LBB1439:
	.loc 3 435 0
	lfs 0,4(11)
	lfs 11,40(1)
.LBE1439:
.LBE1438:
	lfsx 10,9,0
.LBB1441:
.LBB1440:
	fmuls 11,11,0
.LBE1440:
.LBE1441:
	lfs 13,36(1)
	lfs 12,8(11)
	lfs 0,44(1)
	fmadds 13,13,10,11
	.loc 9 284 0
	fnmadds 0,0,12,13
	stfs 0,48(1)
.LVL59:
.L40:
.LBE1448:
.LBE1455:
.LBE1461:
.LBE1472:
	.loc 2 232 0
	lwz 3,0(28)
	addi 4,1,36
	addi 5,1,20
	addi 3,3,32
	bl _Z20R_LocalPlaneToGlobalPKfRK7idPlaneRS1_
.LVL60:
.LBB1473:
.LBB1474:
	.loc 3 439 0
	lfs 10,24(1)
	lfs 0,20(1)
.LBE1474:
.LBE1473:
.LBB1478:
.LBB1479:
	.loc 3 731 0
	lis 9,.LC6@ha
	.loc 3 730 0
	fmuls 13,10,10
.LBE1479:
.LBE1478:
	.loc 2 234 0
	lfs 7,32(1)
.LBB1495:
.LBB1490:
	.loc 3 731 0
	lfs 12,.LC6@l(9)
.LBE1490:
.LBE1495:
	.loc 2 234 0
	fneg 7,7
.LVL61:
.LBB1496:
.LBB1475:
	.loc 3 439 0
	lfs 9,28(1)
.LBE1475:
.LBE1496:
.LBB1497:
.LBB1498:
	.loc 3 730 0
	fmadds 13,0,0,13
	.loc 3 424 0
	stfs 0,112(1)
	.loc 3 425 0
	stfs 10,116(1)
.LBE1498:
.LBE1497:
.LBB1501:
.LBB1476:
	.loc 3 439 0
	fmuls 5,7,0
.LBE1476:
.LBE1501:
.LBB1502:
.LBB1499:
	.loc 3 426 0
	stfs 9,120(1)
.LBE1499:
.LBE1502:
.LBB1503:
.LBB1491:
	.loc 3 731 0
	fcmpu 7,13,12
.LBE1491:
.LBE1503:
.LBB1504:
.LBB1500:
	.loc 3 730 0
	stfs 13,176(1)
.LBE1500:
.LBE1504:
.LBB1505:
.LBB1477:
	.loc 3 439 0
	fmuls 6,7,10
	fmuls 7,7,9
.LVL62:
.LBE1477:
.LBE1505:
.LBB1506:
.LBB1507:
	.loc 3 424 0
	stfs 5,100(1)
	.loc 3 425 0
	stfs 6,104(1)
	.loc 3 426 0
	stfs 7,108(1)
.LVL63:
.LBE1507:
.LBE1506:
.LBB1508:
.LBB1492:
	.loc 3 731 0
	beq- 7,.L58
.LVL64:
.LBB1480:
.LBB1481:
	.loc 8 270 0
	lwz 0,176(1)
.LVL65:
.LBE1481:
.LBE1480:
	.loc 3 737 0
	fneg 1,10
.LBB1484:
.LBB1482:
	.loc 8 275 0
	lfs 13,176(1)
	.loc 8 276 0
	rlwinm 9,0,19,21,29
	rlwinm 11,0,9,24,31
	subfic 0,11,380
	lwzx 9,23,9
	rlwinm 0,0,22,0,8
	.loc 8 275 0
	lfs 4,.LC1@l(29)
	.loc 8 276 0
	or 0,0,9
.LBE1482:
.LBE1484:
	.loc 3 739 0
	stfs 12,132(1)
.LBB1485:
.LBB1483:
	.loc 8 277 0
	stw 0,192(1)
	.loc 8 275 0
	fmuls 4,13,4
.LVL66:
	.loc 8 278 0
	lfs 8,.LC3@l(24)
	.loc 8 277 0
	lfs 13,192(1)
.LVL67:
	.loc 2 217 0
	fneg 12,4
	.loc 8 277 0
	fmr 11,13
.LVL68:
	.loc 8 278 0
	fmul 13,11,11
.LVL69:
	fmadd 13,12,13,8
	fmul 13,11,13
.LVL70:
	.loc 8 279 0
	fmul 11,13,13
	fmadd 12,12,11,8
.LVL71:
	fmul 12,13,12
.LVL72:
	.loc 8 280 0
	frsp 12,12
.LVL73:
.LBE1483:
.LBE1485:
	.loc 3 737 0
	fmuls 13,1,12
	.loc 3 738 0
	fmuls 12,0,12
	.loc 3 737 0
	stfs 13,124(1)
.LVL74:
	.loc 3 738 0
	stfs 12,128(1)
.LVL75:
.L42:
.LBB1486:
.LBB1487:
	.loc 3 620 0
	lis 8,.LC6@ha
	fmuls 3,0,12
	lfs 11,.LC6@l(8)
	fmuls 8,9,13
.LBE1487:
.LBE1486:
.LBE1492:
.LBE1508:
	.loc 2 245 0
	lwz 9,252(30)
.LBB1509:
.LBB1510:
.LBB1511:
.LBB1512:
	.loc 3 424 0
	lis 11,vec3_origin@ha
.LBE1512:
.LBE1511:
.LBE1510:
.LBE1509:
.LBB1548:
.LBB1493:
.LBB1489:
.LBB1488:
	.loc 3 620 0
	fmuls 4,10,11
.LBE1488:
.LBE1489:
.LBE1493:
.LBE1548:
.LBB1549:
.LBB1550:
	.loc 3 426 0
	stfs 11,84(1)
.LBE1550:
.LBE1549:
.LBB1553:
.LBB1554:
	.loc 3 420 0
	fnmsubs 8,0,11,8
.LBE1554:
.LBE1553:
.LBB1557:
.LBB1551:
	.loc 3 425 0
	stfs 12,80(1)
.LBE1551:
.LBE1557:
.LBB1558:
.LBB1555:
	.loc 3 420 0
	fnmsubs 10,10,13,3
.LBE1555:
.LBE1558:
.LBB1559:
.LBB1560:
	.loc 3 424 0
	stfs 5,52(1)
.LBE1560:
.LBE1559:
.LBB1563:
.LBB1556:
	.loc 3 420 0
	fnmsubs 4,9,12,4
.LVL76:
.LBE1556:
.LBE1563:
.LBB1564:
.LBB1561:
	.loc 3 425 0
	stfs 6,56(1)
.LBE1561:
.LBE1564:
.LBB1565:
.LBB1566:
	stfs 8,140(1)
.LBE1566:
.LBE1565:
.LBB1569:
.LBB1570:
	.loc 3 420 0
	fneg 0,0
.LBE1570:
.LBE1569:
.LBB1572:
.LBB1567:
	.loc 3 426 0
	stfs 10,144(1)
.LVL77:
.LBE1567:
.LBE1572:
.LBB1573:
.LBB1571:
	.loc 3 420 0
	fneg 9,9
.LBE1571:
.LBE1573:
.LBB1574:
.LBB1568:
	.loc 3 424 0
	stfs 4,136(1)
.LBE1568:
.LBE1574:
.LBB1575:
.LBB1576:
	stfs 4,88(1)
	.loc 3 425 0
	stfs 8,92(1)
	.loc 3 426 0
	stfs 10,96(1)
.LBE1576:
.LBE1575:
.LBB1577:
.LBB1562:
	stfs 7,60(1)
.LBE1562:
.LBE1577:
.LBB1578:
.LBB1537:
.LBB1516:
.LBB1517:
	.loc 3 431 0
	lfs 2,28(9)
	lfs 3,32(9)
.LVL78:
	lfs 4,36(9)
	fsubs 2,2,5
	fsubs 3,3,6
.LBE1517:
.LBE1516:
.LBB1519:
.LBB1513:
	.loc 3 424 0
	la 9,vec3_origin@l(11)
.LBE1513:
.LBE1519:
.LBB1520:
.LBB1518:
	.loc 3 431 0
	fsubs 4,4,7
.LBE1518:
.LBE1520:
.LBE1537:
.LBE1578:
.LBB1579:
.LBB1580:
	.loc 3 424 0
	stfs 0,64(1)
	.loc 3 425 0
	stfs 1,68(1)
	.loc 3 426 0
	stfs 9,72(1)
.LVL79:
.LBE1580:
.LBE1579:
.LBB1581:
.LBB1538:
.LBB1521:
.LBB1514:
	.loc 3 424 0
	lfs 11,vec3_origin@l(11)
.LVL80:
.LBE1514:
.LBE1521:
.LBE1538:
.LBE1581:
.LBB1582:
.LBB1552:
	stfs 13,76(1)
.LBE1552:
.LBE1582:
.LBB1583:
.LBB1539:
.LBB1522:
.LBB1515:
	.loc 3 425 0
	lfs 12,4(9)
.LVL81:
	.loc 3 426 0
	lfs 13,8(9)
.LVL82:
	.loc 2 55 0
	li 9,0
.LVL83:
.L43:
.LBE1515:
.LBE1522:
.LBE1539:
	.loc 2 56 0
	mulli 10,9,12
	addi 11,1,100
.LBB1540:
	.loc 2 55 0
	cmpwi 7,9,2
.LBE1540:
	.loc 3 435 0
	addi 0,1,52
	.loc 2 56 0
	add 8,11,10
.LVL84:
	.loc 3 435 0
	add 10,0,10
.LBB1541:
.LBB1523:
.LBB1524:
	lfs 0,16(8)
.LBE1524:
.LBE1523:
	.loc 2 55 0
	addi 9,9,1
.LVL85:
.LBE1541:
	.loc 3 435 0
	lfs 9,12(8)
.LBB1542:
.LBB1526:
.LBB1525:
	fmuls 0,3,0
.LBE1525:
.LBE1526:
.LBE1542:
	lfs 10,20(8)
	.loc 3 456 0
	lfs 8,12(10)
	.loc 3 435 0
	fmadds 0,2,9,0
	.loc 3 457 0
	lfs 9,16(10)
	.loc 3 435 0
	fmadds 0,4,10,0
.LVL86:
	.loc 3 458 0
	lfs 10,20(10)
	.loc 3 456 0
	fmadds 11,0,8,11
.LVL87:
	.loc 3 457 0
	fmadds 12,0,9,12
.LVL88:
	.loc 3 458 0
	fmadds 13,0,10,13
.LVL89:
.LBB1543:
	.loc 2 55 0
	bne+ 7,.L43
.LVL90:
.LBB1527:
.LBB1528:
	.loc 3 452 0
	fadds 11,5,11
.LVL91:
.LBE1528:
.LBE1527:
.LBE1543:
.LBE1583:
	.loc 2 247 0
	addi 3,1,160
.LBB1584:
.LBB1544:
.LBB1531:
.LBB1529:
	.loc 3 452 0
	fadds 12,6,12
.LVL92:
.LBE1529:
.LBE1531:
.LBE1544:
.LBE1584:
	.loc 2 247 0
	addi 4,1,100
.LBB1585:
.LBB1545:
.LBB1532:
.LBB1530:
	.loc 3 452 0
	fadds 13,7,13
.LVL93:
.LBE1530:
.LBE1532:
.LBE1545:
.LBE1585:
	.loc 2 247 0
	addi 5,1,52
.LBB1586:
.LBB1546:
.LBB1533:
.LBB1534:
	.loc 3 424 0
	stfs 11,28(31)
.LBE1534:
.LBE1533:
.LBE1546:
.LBE1586:
	.loc 2 247 0
	mr 6,25
.LBB1587:
.LBB1547:
.LBB1536:
.LBB1535:
	.loc 3 425 0
	stfs 12,32(31)
	.loc 3 426 0
	stfs 13,36(31)
.LVL94:
.LBE1535:
.LBE1536:
.LBE1547:
.LBE1587:
	.loc 2 247 0
	lwz 10,252(30)
.LVL95:
	lwz 11,40(10)
	lwz 9,44(10)
.LVL96:
	lwz 0,48(10)
	stw 11,160(1)
	stw 9,164(1)
	stw 0,168(1)
	bl _ZL14R_MirrorVector6idVec3P13orientation_tS1_RS_.constprop.28
.LVL97:
	.loc 2 248 0
	lwz 10,252(30)
	addi 3,1,160
	addi 4,1,100
	addi 5,1,52
	lwz 11,52(10)
	addi 6,31,52
	lwz 9,56(10)
	lwz 0,60(10)
	stw 11,160(1)
	stw 9,164(1)
	stw 0,168(1)
	bl _ZL14R_MirrorVector6idVec3P13orientation_tS1_RS_.constprop.28
.LVL98:
	.loc 2 249 0
	lwz 10,252(30)
	addi 3,1,160
	addi 4,1,100
	addi 5,1,52
	lwz 11,64(10)
	addi 6,31,64
	lwz 9,68(10)
	lwz 0,72(10)
	stw 11,160(1)
	stw 0,168(1)
	stw 9,164(1)
	bl _ZL14R_MirrorVector6idVec3P13orientation_tS1_RS_.constprop.28
.LVL99:
	.loc 2 252 0
	lwz 9,0(27)
.LVL100:
.LBB1588:
.LBB1589:
	.loc 3 439 0
	lis 11,.LC5@ha
	lfs 13,.LC5@l(11)
.LBE1589:
.LBE1588:
	.loc 2 255 0
	addi 4,1,8
.LBB1594:
.LBB1595:
	.loc 3 452 0
	lfs 11,4(9)
.LBE1595:
.LBE1594:
	.loc 2 255 0
	addi 5,31,372
.LBB1600:
.LBB1596:
	.loc 3 452 0
	lfs 10,8(9)
	lfs 0,20(9)
	lfs 12,16(9)
	lfs 7,0(9)
	fadds 10,10,0
.LVL101:
.LBE1596:
.LBE1600:
.LBB1601:
.LBB1590:
	.loc 3 439 0
	lfs 9,40(1)
.LBE1590:
.LBE1601:
.LBB1602:
.LBB1597:
	.loc 3 452 0
	fadds 12,11,12
.LVL102:
.LBE1597:
.LBE1602:
.LBB1603:
.LBB1591:
	.loc 3 439 0
	lfs 0,36(1)
	lfs 11,44(1)
	fmuls 9,9,13
.LBE1591:
.LBE1603:
.LBB1604:
.LBB1598:
	.loc 3 452 0
	lfs 8,12(9)
.LBE1598:
.LBE1604:
.LBB1605:
.LBB1592:
	.loc 3 439 0
	fmuls 11,11,13
.LVL103:
.LBE1592:
.LBE1605:
	.loc 2 255 0
	lwz 3,0(28)
.LBB1606:
.LBB1599:
	.loc 3 452 0
	fadds 8,7,8
.LBE1599:
.LBE1606:
.LBB1607:
.LBB1593:
	.loc 3 439 0
	fmuls 13,0,13
.LBE1593:
.LBE1607:
.LBB1608:
.LBB1609:
	.loc 3 456 0
	lfs 0,.LC1@l(29)
.LBE1609:
.LBE1608:
	.loc 2 255 0
	addi 3,3,32
.LBB1611:
.LBB1610:
	.loc 3 457 0
	fmadds 12,12,0,9
.LVL104:
	.loc 3 456 0
	fmadds 13,8,0,13
	.loc 3 458 0
	fmadds 0,10,0,11
	.loc 3 457 0
	stfs 12,12(1)
	.loc 3 456 0
	stfs 13,8(1)
	.loc 3 458 0
	stfs 0,16(1)
.LBE1610:
.LBE1611:
	.loc 2 255 0
	bl _Z20R_LocalPointToGlobalPKfRK6idVec3RS1_
.LVL105:
.LBB1612:
.LBB1613:
	.loc 3 420 0
	lfs 13,68(1)
.LBE1613:
.LBE1612:
	.loc 2 258 0
	li 0,1
.LBB1619:
.LBB1614:
	.loc 3 420 0
	lfs 12,64(1)
.LBE1614:
.LBE1619:
.LBE1637:
	.loc 2 264 0
	mr 3,31
.LBB1638:
.LBB1620:
.LBB1615:
	.loc 3 420 0
	fneg 13,13
.LBE1615:
.LBE1620:
.LBB1621:
.LBB1622:
	.loc 3 435 0
	lfs 11,56(1)
.LBE1622:
.LBE1621:
.LBB1624:
.LBB1616:
	.loc 3 420 0
	fneg 12,12
.LBE1616:
.LBE1624:
	.loc 3 435 0
	lfs 10,52(1)
.LBB1625:
.LBB1617:
	.loc 3 420 0
	lfs 0,72(1)
.LBE1617:
.LBE1625:
.LBB1626:
.LBB1623:
	.loc 3 435 0
	fmuls 11,13,11
.LBE1623:
.LBE1626:
	.loc 2 258 0
	stw 0,388(31)
.LVL106:
.LBB1627:
.LBB1618:
	.loc 3 420 0
	fneg 0,0
.LVL107:
.LBE1618:
.LBE1627:
.LBB1628:
.LBB1629:
	.loc 9 167 0
	stfs 12,392(31)
	.loc 9 168 0
	stfs 13,396(31)
.LBE1629:
.LBE1628:
	.loc 3 435 0
	fmadds 11,12,10,11
	lfs 10,60(1)
.LBB1631:
.LBB1630:
	.loc 9 169 0
	stfs 0,400(31)
.LVL108:
.LBE1630:
.LBE1631:
	.loc 2 261 0
	fnmadds 11,0,10,11
	stfs 11,404(31)
.LBE1638:
	.loc 2 264 0
	lwz 0,252(1)
	lwz 23,212(1)
	mtlr 0
	lwz 24,216(1)
	lwz 25,220(1)
	lwz 26,224(1)
.LVL109:
	lwz 27,228(1)
	lwz 28,232(1)
	lwz 29,236(1)
	lwz 30,240(1)
	lwz 31,244(1)
.LVL110:
	addi 1,1,248
	.cfi_remember_state
.LCFI9:
	.cfi_def_cfa_offset 0
	.cfi_restore 31
	.cfi_restore 30
	.cfi_restore 29
	.cfi_restore 28
	.cfi_restore 27
	.cfi_restore 26
	.cfi_restore 25
	.cfi_restore 24
	.cfi_restore 23
	blr
.LVL111:
.L35:
.LCFI10:
	.cfi_restore_state
.LBB1639:
.LBB1632:
.LBB1462:
.LBB1456:
.LBB1449:
.LBB1442:
.LBB1399:
.LBB1392:
.LBB1363:
.LBB1358:
.LBB1351:
.LBB1352:
	.loc 8 781 0
	lwz 8,184(1)
	rlwinm 10,8,0,1,31
.LVL112:
.LBE1352:
.LBE1351:
	.loc 3 586 0
	stw 10,192(1)
	lfs 12,192(1)
	fcmpu 7,12,13
	bne- 7,.L37
	.loc 3 587 0
	lis 8,.LC6@ha
	lfs 12,180(1)
	lfs 13,.LC6@l(8)
	fcmpu 7,12,13
	bne- 7,.L38
	lfs 12,188(1)
	fcmpu 7,12,13
	beq- 7,.L29
.L38:
	.loc 3 588 0
	li 10,0
	stw 10,44(1)
	stw 10,36(1)
	b .L29
.L37:
.LVL113:
.LBB1353:
.LBB1354:
	.loc 8 781 0
	lwz 8,188(1)
	rlwinm 10,8,0,1,31
.LBE1354:
.LBE1353:
	.loc 3 592 0
	stw 10,192(1)
	lfs 12,192(1)
	fcmpu 7,12,13
	bne- 7,.L29
	.loc 3 593 0
	lis 8,.LC6@ha
	lfs 12,180(1)
	lfs 13,.LC6@l(8)
	fcmpu 7,12,13
	beq- 7,.L59
.L39:
	.loc 3 594 0
	li 10,0
	stw 10,40(1)
	stw 10,36(1)
	b .L29
.LVL114:
.L50:
	.loc 3 544 0
	lis 10,.LC4@ha
	lfs 12,188(1)
	lfs 13,.LC4@l(10)
	fcmpu 7,12,13
	beq- 7,.L29
	.loc 3 545 0
	stfs 13,44(1)
	b .L29
.LVL115:
.L57:
	.loc 3 581 0
	lfs 12,188(1)
	fcmpu 7,12,13
	beq- 7,.L29
	b .L36
.LVL116:
.L56:
	.loc 3 551 0
	bng- 7,.L51
	.loc 3 552 0
	lis 10,.LC0@ha
	lfs 12,184(1)
	lfs 13,.LC0@l(10)
	fcmpu 7,12,13
	beq- 7,.L29
	.loc 3 558 0
	stfs 13,40(1)
	b .L29
.LVL117:
.L58:
.LBE1358:
.LBE1363:
.LBE1392:
.LBE1399:
.LBE1442:
.LBE1449:
.LBE1456:
.LBE1462:
.LBE1632:
.LBB1633:
.LBB1494:
	.loc 3 732 0
	lis 9,.LC0@ha
	.loc 3 733 0
	stfs 12,128(1)
	.loc 3 732 0
	lwz 0,.LC0@l(9)
	.loc 3 734 0
	fneg 1,10
	stfs 12,132(1)
	stw 0,192(1)
	.loc 3 732 0
	stw 0,124(1)
.LVL118:
	.loc 3 734 0
	lfs 13,192(1)
.LVL119:
	b .L42
.LVL120:
.L52:
.LBE1494:
.LBE1633:
.LBB1634:
.LBB1463:
.LBB1457:
.LBB1450:
.LBB1443:
.LBB1400:
.LBB1393:
.LBB1364:
.LBB1359:
	.loc 3 572 0
	lis 10,.LC4@ha
	lfs 12,180(1)
	lfs 13,.LC4@l(10)
	fcmpu 7,12,13
	beq- 7,.L29
	.loc 3 573 0
	stfs 13,36(1)
	b .L29
.L51:
	.loc 3 557 0
	lis 10,.LC4@ha
	lfs 12,184(1)
	lfs 13,.LC4@l(10)
	fcmpu 7,12,13
	beq- 7,.L29
	.loc 3 558 0
	stfs 13,40(1)
	b .L29
.LVL121:
.L59:
	.loc 3 593 0
	lfs 12,184(1)
	fcmpu 7,12,13
	beq- 7,.L29
	b .L39
.LBE1359:
.LBE1364:
.LBE1393:
.LBE1400:
.LBE1443:
.LBE1450:
.LBE1457:
.LBE1463:
.LBE1634:
.LBE1639:
	.cfi_endproc
.LFE2830:
	.size	_ZL21R_MirrorViewBySurfaceP10drawSurf_s.isra.16, .-_ZL21R_MirrorViewBySurfaceP10drawSurf_s.isra.16
	.align 2
	.globl _Z20R_PreciseCullSurfacePK10drawSurf_sR8idBounds
	.type	_Z20R_PreciseCullSurfacePK10drawSurf_sR8idBounds, @function
_Z20R_PreciseCullSurfacePK10drawSurf_sR8idBounds:
.LFB2569:
	.loc 2 109 0
	.cfi_startproc
	.cfi_personality 0,__gxx_personality_v0
	.cfi_lsda 0,.LLSDA2569
.LVL122:
.LBB1715:
.LBB1716:
.LBB1717:
	.file 10 "d:/Data/Nintendo/DoomGX/src/renderer/../idlib/../idlib/bv/Bounds.h"
	.loc 10 202 0
	lis 9,_ZN6idMath8INFINITYE@ha
.LBE1717:
.LBE1716:
.LBE1715:
	.loc 2 109 0
	mflr 0
.LBB1818:
.LBB1721:
.LBB1718:
	.loc 10 202 0
	lfs 0,_ZN6idMath8INFINITYE@l(9)
.LBE1718:
.LBE1721:
.LBB1722:
.LBB1723:
	.loc 1 307 0
	lis 9,_ZTV14idFixedWinding+8@ha
.LBE1723:
.LBE1722:
.LBE1818:
	.loc 2 109 0
	stwu 1,-1448(1)
.LCFI11:
	.cfi_def_cfa_offset 1448
	.cfi_register 65, 0
.LVL123:
.LBB1819:
.LBB1727:
.LBB1719:
	.loc 10 203 0
	fneg 13,0
.LBE1719:
.LBE1727:
.LBE1819:
	.loc 2 109 0
	stw 27,1412(1)
	mr 27,3
	.cfi_offset 27, -36
	stw 31,1428(1)
	mr 31,4
	.cfi_offset 31, -20
	stw 0,1452(1)
	stfd 30,1432(1)
	stfd 31,1440(1)
	stw 20,1384(1)
	stw 21,1388(1)
	stw 22,1392(1)
	stw 23,1396(1)
	stw 24,1400(1)
	stw 25,1404(1)
	stw 26,1408(1)
	stw 28,1416(1)
	stw 29,1420(1)
	stw 30,1424(1)
.LBB1820:
	.loc 2 119 0
	lwz 28,0(3)
	.cfi_offset 30, -24
	.cfi_offset 29, -28
	.cfi_offset 28, -32
	.cfi_offset 26, -40
	.cfi_offset 25, -44
	.cfi_offset 24, -48
	.cfi_offset 23, -52
	.cfi_offset 22, -56
	.cfi_offset 21, -60
	.cfi_offset 20, -64
	.cfi_offset 63, -8
	.cfi_offset 62, -16
	.cfi_offset 65, 4
.LVL124:
.LBB1728:
.LBB1720:
	.loc 10 202 0
	stfs 0,8(4)
	stfs 0,4(4)
	stfs 0,0(4)
.LVL125:
	.loc 10 203 0
	stfs 13,20(4)
	stfs 13,16(4)
	stfs 13,12(4)
.LVL126:
.LBE1720:
.LBE1728:
.LBB1729:
	.loc 2 127 0
	lwz 0,36(28)
	cmpwi 7,0,0
.LBE1729:
.LBB1735:
.LBB1726:
.LBB1724:
.LBB1725:
	.loc 1 133 0
	li 0,0
	stw 0,84(1)
.LBE1725:
.LBE1724:
	.loc 1 307 0
	la 0,_ZTV14idFixedWinding+8@l(9)
	stw 0,80(1)
	.loc 1 309 0
	addi 0,1,96
	stw 0,88(1)
	.loc 1 310 0
	li 0,64
	stw 0,92(1)
.LBE1726:
.LBE1735:
.LBB1736:
	.loc 2 127 0
	ble- 7,.L101
.LVL127:
	lis 29,tr@ha
	li 26,0
	li 24,-1
	li 25,0
	la 29,tr@l(29)
	b .L71
.LVL128:
.L121:
.LBB1730:
	.loc 2 138 0
	fneg 12,0
	fcmpu 7,13,12
	cror 30,28,30
	bne- 7,.L65
	.loc 2 139 0
	ori 0,0,8
.LVL129:
.L65:
	.loc 2 136 0
	lfs 13,72(1)
	fcmpu 7,13,0
	cror 30,29,30
	bne- 7,.L119
.LVL130:
.L122:
	.loc 2 137 0
	ori 0,0,16
.LVL131:
.L69:
.LBE1730:
	.loc 2 127 0
	lwz 9,36(28)
	addi 25,25,1
.LBB1731:
	.loc 2 143 0
	and 24,24,0
.LVL132:
.LBE1731:
	.loc 2 127 0
	addi 26,26,60
	cmpw 7,9,25
	ble- 7,.L120
.LVL133:
.L71:
.LBB1732:
	.loc 2 131 0
	lwz 3,40(28)
	.loc 2 132 0
	addi 6,1,48
	lwz 4,4(27)
	addi 7,1,64
	lwz 5,252(29)
	add 3,3,26
	addi 4,4,96
	addi 30,1,80
	addi 5,5,136
.LEHB0:
	bl _Z22R_TransformModelToClipRK6idVec3PKfS3_R7idPlaneS5_
	lfs 0,76(1)
.LVL134:
	.loc 2 137 0
	li 0,1
	.loc 2 136 0
	lfs 13,64(1)
.LVL135:
	fcmpu 7,13,0
	cror 30,29,30
	beq- 7,.L62
.LVL136:
	.loc 2 138 0
	fneg 12,0
	fcmpu 7,13,12
	cror 30,28,30
	mfcr 0
	rlwinm 0,0,31,1
	slwi 0,0,1
.LVL137:
.L62:
	.loc 2 136 0
	lfs 13,68(1)
	fcmpu 7,13,0
	cror 30,29,30
	bne- 7,.L121
	lfs 13,72(1)
	.loc 2 137 0
	ori 0,0,4
.LVL138:
	.loc 2 136 0
	fcmpu 7,13,0
	cror 30,29,30
	beq- 7,.L122
.L119:
.LVL139:
	.loc 2 138 0
	fneg 0,0
	fcmpu 7,13,0
	cror 30,28,30
	bne- 7,.L69
.LBE1732:
	.loc 2 127 0
	lwz 9,36(28)
	addi 25,25,1
.LBB1733:
	.loc 2 139 0
	ori 0,0,32
.LVL140:
.LBE1733:
	.loc 2 127 0
	addi 26,26,60
	cmpw 7,9,25
.LBB1734:
	.loc 2 143 0
	and 24,24,0
.LVL141:
.LBE1734:
	.loc 2 127 0
	bgt+ 7,.L71
.LVL142:
.L120:
.LBE1736:
	.loc 2 148 0
	cmpwi 7,24,0
	bne- 7,.L101
.LVL143:
	.loc 2 155 0
	lwz 3,4(27)
	addi 5,1,20
	lwz 4,252(29)
	addi 30,1,80
	addi 3,3,32
	addi 4,4,28
	bl _Z20R_GlobalPointToLocalPKfRK6idVec3RS1_
.LVL144:
.LBB1737:
	.loc 2 157 0 discriminator 1
	lwz 0,44(28)
	cmpwi 7,0,0
	ble- 7,.L72
.LBB1738:
	.loc 2 179 0
	lis 9,.LC6@ha
.LBE1738:
	.loc 2 157 0
	li 22,4
.LBB1812:
	.loc 2 179 0
	lfs 31,.LC6@l(9)
.LBE1812:
	.loc 2 157 0
	li 23,0
.LBB1813:
.LBB1739:
.LBB1740:
	.loc 1 246 0
	li 20,3
	lis 21,.LC7@ha
.LVL145:
.L93:
.LBE1740:
.LBE1739:
	.loc 2 162 0
	lwz 11,48(28)
	slwi 10,23,2
	.loc 2 169 0
	lwz 8,676(29)
	.loc 2 163 0
	mr 9,11
	.loc 2 162 0
	lwzx 10,11,10
	.loc 2 163 0
	lwzux 0,9,22
	.loc 2 169 0
	cmpwi 7,8,0
	.loc 2 162 0
	mulli 10,10,60
	.loc 2 164 0
	lwz 11,4(9)
	.loc 2 163 0
	mulli 0,0,60
	.loc 2 162 0
	lwz 9,40(28)
	.loc 2 164 0
	mulli 11,11,60
	.loc 2 162 0
	add 25,9,10
.LVL146:
	.loc 2 163 0
	add 26,9,0
.LVL147:
	.loc 2 164 0
	add 24,9,11
.LVL148:
	.loc 2 169 0
	bne- 7,.L73
.LVL149:
.LBB1747:
.LBB1748:
	.loc 3 431 0
	lfsx 13,9,10
	lfs 0,8(25)
	lfs 8,8(26)
.LBE1748:
.LBE1747:
.LBB1753:
.LBB1754:
	lfsx 11,9,11
.LBE1754:
.LBE1753:
.LBB1759:
.LBB1749:
	fsubs 8,8,0
.LVL150:
	lfs 12,4(25)
.LBE1749:
.LBE1759:
.LBB1760:
.LBB1755:
	fsubs 11,11,13
.LBE1755:
.LBE1760:
.LBB1761:
.LBB1750:
	lfsx 7,9,0
	lfs 10,4(26)
.LBE1750:
.LBE1761:
.LBB1762:
.LBB1756:
	lfs 6,8(24)
.LBE1756:
.LBE1762:
.LBB1763:
.LBB1751:
	fsubs 7,7,13
.LVL151:
.LBE1751:
.LBE1763:
.LBB1764:
.LBB1765:
	.loc 3 620 0
	fmuls 4,8,11
.LBE1765:
.LBE1764:
.LBB1768:
.LBB1757:
	.loc 3 431 0
	lfs 9,4(24)
.LBE1757:
.LBE1768:
.LBB1769:
.LBB1752:
	fsubs 10,10,12
.LVL152:
.LBE1752:
.LBE1769:
.LBB1770:
.LBB1758:
	fsubs 6,6,0
.LVL153:
	fsubs 9,9,12
.LVL154:
.LBE1758:
.LBE1770:
.LBB1771:
.LBB1766:
	.loc 3 620 0
	fmuls 5,10,6
.LBE1766:
.LBE1771:
.LBB1772:
.LBB1773:
	fmsubs 6,7,6,4
.LVL155:
.LBE1773:
.LBE1772:
.LBB1775:
.LBB1776:
	.loc 3 431 0
	lfs 4,24(1)
.LBE1776:
.LBE1775:
.LBB1781:
.LBB1767:
	.loc 3 620 0
	fmuls 7,7,9
.LVL156:
.LBE1767:
.LBE1781:
.LBB1782:
.LBB1777:
	.loc 3 431 0
	fsubs 12,12,4
.LBE1777:
.LBE1782:
	.loc 3 620 0
	fmsubs 9,8,9,5
.LVL157:
.LBB1783:
.LBB1778:
	.loc 3 431 0
	lfs 8,20(1)
.LVL158:
.LBE1778:
.LBE1783:
	.loc 3 620 0
	fmsubs 11,10,11,7
.LVL159:
.LBB1784:
.LBB1774:
	.loc 3 435 0
	fmuls 12,6,12
.LBE1774:
.LBE1784:
.LBB1785:
.LBB1779:
	.loc 3 431 0
	fsubs 13,13,8
.LBE1779:
.LBE1785:
	.loc 3 435 0
	fmadds 13,9,13,12
.LBB1786:
.LBB1780:
	.loc 3 431 0
	lfs 12,28(1)
	fsubs 0,0,12
.LBE1780:
.LBE1786:
	.loc 3 435 0
	fmadds 0,11,0,13
	.loc 2 179 0
	fcmpu 7,0,31
	cror 30,29,30
	beq- 7,.L101
.LVL160:
.L73:
.LBB1787:
.LBB1745:
.LBB1741:
.LBB1742:
	.loc 1 260 0
	lwz 0,92(1)
	addi 30,1,80
	cmpwi 7,0,2
	ble- 7,.L123
.L74:
.LBE1742:
.LBE1741:
	.loc 1 246 0
	stw 20,84(1)
.L75:
.LVL161:
.LBE1745:
.LBE1787:
	.loc 2 186 0
	lwz 3,4(27)
	mr 4,25
	lwz 5,8(30)
	addi 3,3,32
	bl _Z20R_LocalPointToGlobalPKfRK6idVec3RS1_
.LVL162:
	.loc 2 187 0
	lwz 3,4(27)
	mr 4,26
	lwz 5,8(30)
	addi 3,3,32
	addi 5,5,20
	bl _Z20R_LocalPointToGlobalPKfRK6idVec3RS1_
.LVL163:
	.loc 2 188 0
	lwz 3,4(27)
	mr 4,24
	lwz 5,8(30)
	addi 3,3,32
	addi 5,5,40
	bl _Z20R_LocalPointToGlobalPKfRK6idVec3RS1_
.LVL164:
	.loc 2 189 0
	lwz 9,8(30)
.LVL165:
	.loc 2 191 0
	li 26,0
.LVL166:
	.loc 2 192 0
	lfs 30,.LC7@l(21)
	.loc 2 189 0
	stfs 31,56(9)
	stfs 31,52(9)
	stfs 31,36(9)
	stfs 31,32(9)
	stfs 31,16(9)
	stfs 31,12(9)
.LVL167:
.L79:
	.loc 2 192 0
	addi 11,26,29
	lwz 0,252(29)
	slwi 11,11,4
	fmr 1,30
	add 11,0,11
	mr 3,30
.LBB1788:
.LBB1789:
	.loc 9 163 0
	lfs 11,4(11)
.LBE1789:
.LBE1788:
	.loc 2 192 0
	addi 4,1,32
.LBB1794:
.LBB1792:
	.loc 9 163 0
	lfs 12,8(11)
.LBE1792:
.LBE1794:
	.loc 2 192 0
	li 5,0
.LBB1795:
.LBB1793:
	.loc 9 163 0
	lfs 13,12(11)
	fneg 11,11
	lfs 0,16(11)
	fneg 12,12
	fneg 13,13
	fneg 0,0
.LVL168:
.LBB1790:
.LBB1791:
	.loc 9 141 0
	stfs 11,32(1)
	.loc 9 142 0
	stfs 12,36(1)
	.loc 9 143 0
	stfs 13,40(1)
	.loc 9 144 0
	stfs 0,44(1)
.LBE1791:
.LBE1790:
.LBE1793:
.LBE1795:
	.loc 2 192 0
	bl _ZN9idWinding11ClipInPlaceERK7idPlanefb
.LVL169:
	cmpwi 7,3,0
	beq- 7,.L80
.LVL170:
	.loc 2 191 0
	cmpwi 7,26,3
	addi 26,26,1
.LVL171:
	bne+ 7,.L79
.LVL172:
.L80:
.LBB1796:
	.loc 2 196 0 discriminator 1
	lwz 0,4(30)
	li 26,0
	li 25,0
.LVL173:
	cmpwi 7,0,0
	ble- 7,.L78
.LVL174:
.L77:
.LBB1797:
.LBB1798:
.LBB1799:
	.loc 1 209 0
	lwz 3,8(30)
.LBE1799:
.LBE1798:
	.loc 2 199 0
	addi 4,1,8
	add 3,3,26
	bl _Z37R_GlobalToNormalizedDeviceCoordinatesRK6idVec3RS_
.LVL175:
.LBB1800:
.LBB1801:
.LBB1802:
.LBB1803:
	.loc 3 402 0
	lfs 0,8(1)
.LVL176:
.LBE1803:
.LBE1802:
	.loc 10 228 0
	lfs 12,0(31)
	fcmpu 7,0,12
	bnl- 7,.L81
	.loc 10 229 0
	fmr 12,0
.L81:
	.loc 10 232 0
	lfs 13,12(31)
	.loc 10 228 0
	stfs 12,0(31)
.LVL177:
	.loc 10 232 0
	fcmpu 7,0,13
	bng- 7,.L83
	.loc 10 233 0
	fmr 13,0
.L83:
.LBB1804:
.LBB1805:
	.loc 3 402 0
	lfs 0,12(1)
.LBE1805:
.LBE1804:
	.loc 10 236 0
	lfs 12,4(31)
	.loc 10 232 0
	stfs 13,12(31)
.LVL178:
	.loc 10 236 0
	fcmpu 7,0,12
	bnl- 7,.L85
	.loc 10 237 0
	fmr 12,0
.L85:
	.loc 10 240 0
	lfs 13,16(31)
	.loc 10 236 0
	stfs 12,4(31)
.LVL179:
	.loc 10 240 0
	fcmpu 7,0,13
	bng- 7,.L87
	.loc 10 241 0
	fmr 13,0
.L87:
.LBB1806:
.LBB1807:
	.loc 3 402 0
	lfs 0,16(1)
.LBE1807:
.LBE1806:
	.loc 10 244 0
	lfs 12,8(31)
	.loc 10 240 0
	stfs 13,16(31)
.LVL180:
	.loc 10 244 0
	fcmpu 7,0,12
	bnl- 7,.L89
	.loc 10 245 0
	fmr 12,0
.L89:
	.loc 10 248 0
	lfs 13,20(31)
	.loc 10 244 0
	stfs 12,8(31)
.LVL181:
	.loc 10 248 0
	fcmpu 7,0,13
	bng- 7,.L91
	.loc 10 249 0
	fmr 13,0
.L91:
.LBE1801:
.LBE1800:
.LBE1797:
	.loc 2 196 0
	lwz 0,4(30)
	addi 25,25,1
.LVL182:
.LBB1810:
.LBB1809:
.LBB1808:
	.loc 10 248 0
	stfs 13,20(31)
.LVL183:
.LBE1808:
.LBE1809:
.LBE1810:
	.loc 2 196 0
	addi 26,26,20
	cmpw 7,0,25
	bgt+ 7,.L77
.LVL184:
.L78:
.LBE1796:
.LBE1813:
	.loc 2 157 0
	lwz 0,44(28)
	addi 23,23,3
.LVL185:
	addi 22,22,12
	cmpw 7,0,23
	bgt+ 7,.L93
.LVL186:
.L72:
.LBE1737:
.LBB1815:
.LBB1816:
	.loc 10 223 0
	lfs 13,0(31)
	lfs 0,12(31)
	fcmpu 7,13,0
	mfcr 3
	rlwinm 3,3,30,1
	b .L95
.LVL187:
.L123:
.LBE1816:
.LBE1815:
.LBB1817:
.LBB1814:
.LBB1811:
.LBB1746:
.LBB1744:
.LBB1743:
	.loc 1 261 0
	lwz 9,80(1)
	mr 3,30
	li 4,3
	li 5,1
	lwz 0,12(9)
	mtctr 0
	bctrl
.LEHE0:
.LBE1743:
.LBE1744:
	.loc 1 243 0
	cmpwi 7,3,0
	beq+ 7,.L75
	b .L74
.LVL188:
.L101:
.LBE1746:
.LBE1811:
	.loc 2 180 0
	li 3,1
.LVL189:
.L95:
.LBE1814:
.LBE1817:
.LBE1820:
	.loc 2 210 0
	lwz 0,1452(1)
	lwz 20,1384(1)
	mtlr 0
	lwz 21,1388(1)
	lwz 22,1392(1)
	lwz 23,1396(1)
	lwz 24,1400(1)
	lwz 25,1404(1)
	lwz 26,1408(1)
	lwz 27,1412(1)
.LVL190:
	lwz 28,1416(1)
.LVL191:
	lwz 29,1420(1)
	lwz 30,1424(1)
	lwz 31,1428(1)
.LVL192:
	lfd 30,1432(1)
	lfd 31,1440(1)
	addi 1,1,1448
	.cfi_remember_state
.LCFI12:
	.cfi_def_cfa_offset 0
	.cfi_restore 63
	.cfi_restore 62
	.cfi_restore 31
	.cfi_restore 30
	.cfi_restore 29
	.cfi_restore 28
	.cfi_restore 27
	.cfi_restore 26
	.cfi_restore 25
	.cfi_restore 24
	.cfi_restore 23
	.cfi_restore 22
	.cfi_restore 21
	.cfi_restore 20
	blr
.LVL193:
.L103:
.LCFI13:
	.cfi_restore_state
	mr 31,3
.LVL194:
.LBB1821:
	.loc 2 209 0
	mr 3,30
	bl _ZN14idFixedWindingD1Ev
	mr 3,31
.LEHB1:
	bl _Unwind_Resume
.LEHE1:
.LBE1821:
	.cfi_endproc
.LFE2569:
	.globl __gxx_personality_v0
	.section	.gcc_except_table,"a",@progbits
.LLSDA2569:
	.byte	0xff
	.byte	0xff
	.byte	0x1
	.uleb128 .LLSDACSE2569-.LLSDACSB2569
.LLSDACSB2569:
	.uleb128 .LEHB0-.LFB2569
	.uleb128 .LEHE0-.LEHB0
	.uleb128 .L103-.LFB2569
	.uleb128 0
	.uleb128 .LEHB1-.LFB2569
	.uleb128 .LEHE1-.LEHB1
	.uleb128 0
	.uleb128 0
.LLSDACSE2569:
	.section	".text"
	.size	_Z20R_PreciseCullSurfacePK10drawSurf_sR8idBounds, .-_Z20R_PreciseCullSurfacePK10drawSurf_sR8idBounds
	.align 2
	.globl _Z14R_MirrorRenderP10drawSurf_sP14textureStage_t12idScreenRect
	.type	_Z14R_MirrorRenderP10drawSurf_sP14textureStage_t12idScreenRect, @function
_Z14R_MirrorRenderP10drawSurf_sP14textureStage_t12idScreenRect:
.LFB2579:
	.loc 2 351 0
	.cfi_startproc
.LVL195:
	mflr 0
	stwu 1,-32(1)
.LCFI14:
	.cfi_def_cfa_offset 32
	.cfi_register 65, 0
	stw 28,16(1)
	mr 28,3
	.cfi_offset 28, -16
	stw 0,36(1)
	stw 29,20(1)
	mr 29,4
	.cfi_offset 29, -12
	.cfi_offset 65, 4
	stw 30,24(1)
.LBB1822:
	.loc 2 355 0
	lis 30,tr@ha
	.cfi_offset 30, -8
.LBE1822:
	.loc 2 351 0
	stw 27,12(1)
.LBB1823:
	.loc 2 355 0
	la 30,tr@l(30)
.LBE1823:
	.loc 2 351 0
	stw 31,28(1)
.LBB1824:
	.loc 2 355 0
	lwz 0,8(30)
	lwz 9,52(4)
	cmpw 7,9,0
	beq- 7,.L124
	.cfi_offset 31, -4
	.cfi_offset 27, -20
	.loc 2 360 0
	addi 4,3,4
.LVL196:
	bl _ZL21R_MirrorViewBySurfaceP10drawSurf_s.isra.16
.LVL197:
	.loc 2 361 0
	mr. 31,3
	beq- 0,.L124
	.loc 2 365 0
	lwz 4,44(29)
	li 6,1
	lwz 5,48(29)
	li 7,0
	mr 3,30
.LVL198:
	.loc 2 367 0
	li 27,0
	.loc 2 365 0
	bl _ZN19idRenderSystemLocal14CropRenderSizeEiibb
	.loc 2 369 0
	li 0,640
	stw 0,12(31)
	.loc 2 370 0
	li 0,480
	stw 0,16(31)
	.loc 2 372 0
	mr 4,31
	.loc 2 367 0
	stw 27,4(31)
	.loc 2 372 0
	addi 5,31,408
	.loc 2 368 0
	stw 27,8(31)
	.loc 2 372 0
	mr 3,30
	bl _ZN19idRenderSystemLocal20RenderViewToViewportEPK12renderView_sP12idScreenRect
	.loc 2 376 0
	lhz 8,412(31)
	.loc 2 377 0
	lhz 10,414(31)
	.loc 2 386 0
	mr 3,31
	.loc 2 376 0
	lhz 11,408(31)
	.loc 2 377 0
	lhz 0,410(31)
	.loc 2 379 0
	lwz 9,252(30)
	.loc 2 376 0
	subf 11,11,8
	.loc 2 377 0
	subf 0,0,10
	.loc 2 376 0
	sth 11,428(31)
	.loc 2 377 0
	sth 0,430(31)
	.loc 2 374 0
	sth 27,424(31)
	.loc 2 375 0
	sth 27,426(31)
	.loc 2 379 0
	stw 9,440(31)
	.loc 2 380 0
	stw 28,444(31)
	.loc 2 383 0
	lbz 0,385(31)
	lbz 9,385(9)
	xor 0,9,0
	stb 0,385(31)
	.loc 2 386 0
	bl _Z12R_RenderViewP9viewDef_s
	.loc 2 389 0
	lwz 0,8(30)
	.loc 2 390 0
	lis 9,globalImages@ha
	.loc 2 392 0
	mr 3,30
	.loc 2 389 0
	stw 0,52(29)
	.loc 2 390 0
	lwz 9,globalImages@l(9)
	lwz 9,52(9)
	stw 9,4(29)
.LVL199:
	.loc 2 392 0
	lwz 4,1132(9)
	bl _ZN19idRenderSystemLocal20CaptureRenderToImageEPKc
.LVL200:
	.loc 2 393 0
	mr 3,30
	bl _ZN19idRenderSystemLocal6UnCropEv
.LVL201:
.L124:
.LBE1824:
	.loc 2 394 0
	lwz 0,36(1)
	lwz 27,12(1)
	mtlr 0
	lwz 28,16(1)
.LVL202:
	lwz 29,20(1)
.LVL203:
	lwz 30,24(1)
	lwz 31,28(1)
	addi 1,1,32
.LCFI15:
	.cfi_def_cfa_offset 0
	.cfi_restore 31
	.cfi_restore 30
	.cfi_restore 29
	.cfi_restore 28
	.cfi_restore 27
	blr
	.cfi_endproc
.LFE2579:
	.size	_Z14R_MirrorRenderP10drawSurf_sP14textureStage_t12idScreenRect, .-_Z14R_MirrorRenderP10drawSurf_sP14textureStage_t12idScreenRect
	.align 2
	.globl _Z12R_XrayRenderP10drawSurf_sP14textureStage_t12idScreenRect
	.type	_Z12R_XrayRenderP10drawSurf_sP14textureStage_t12idScreenRect, @function
_Z12R_XrayRenderP10drawSurf_sP14textureStage_t12idScreenRect:
.LFB2580:
	.loc 2 401 0
	.cfi_startproc
.LVL204:
	mflr 0
	stwu 1,-32(1)
.LCFI16:
	.cfi_def_cfa_offset 32
	.cfi_register 65, 0
	stw 26,8(1)
	mr 26,3
	.cfi_offset 26, -24
	stw 0,36(1)
	stw 28,16(1)
	mr 28,4
	.cfi_offset 28, -16
	.cfi_offset 65, 4
	stw 29,20(1)
.LBB1849:
	.loc 2 405 0
	lis 29,tr@ha
	.cfi_offset 29, -12
.LBE1849:
	.loc 2 401 0
	stw 27,12(1)
.LBB1908:
	.loc 2 405 0
	la 29,tr@l(29)
.LBE1908:
	.loc 2 401 0
	stw 30,24(1)
	stw 31,28(1)
.LBB1909:
	.loc 2 405 0
	lwz 0,8(29)
	lwz 9,52(4)
	cmpw 7,9,0
	beq- 7,.L126
	.cfi_offset 31, -4
	.cfi_offset 30, -8
	.cfi_offset 27, -20
.LBB1850:
.LBB1851:
	.loc 2 277 0
	li 3,624
.LVL205:
	bl _Z12R_FrameAlloci
.LVL206:
	.loc 2 278 0
	lwz 30,252(29)
	.loc 2 277 0
	mr 31,3
.LVL207:
.LBB1852:
.LBB1853:
.LBB1854:
.LBB1855:
.LBB1856:
.LBB1857:
	.loc 4 333 0
	addi 7,3,40
.LBE1857:
.LBE1856:
	.loc 5 206 0
	lwz 0,0(30)
.LBB1866:
.LBB1864:
	.loc 4 333 0
	addi 8,30,40
	li 10,0
.LBE1864:
.LBE1866:
	.loc 5 206 0
	stw 0,0(3)
	lwz 0,4(30)
	stw 0,4(3)
	lwz 0,8(30)
	stw 0,8(3)
	lwz 0,12(30)
	stw 0,12(3)
	lwz 0,16(30)
	stw 0,16(3)
	lwz 0,20(30)
	stw 0,20(3)
	lwz 0,24(30)
	stw 0,24(3)
.LVL208:
.LBB1867:
.LBB1868:
	.loc 3 424 0
	lwz 0,28(30)
	stw 0,28(3)
	.loc 3 425 0
	lwz 0,32(30)
	stw 0,32(3)
	.loc 3 426 0
	lwz 0,36(30)
	stw 0,36(3)
.LVL209:
.L128:
.LBE1868:
.LBE1867:
.LBB1869:
.LBB1865:
.LBB1858:
.LBB1859:
	.loc 3 424 0
	mr 11,8
	mr 9,7
	lwzux 0,11,10
.LBE1859:
.LBE1858:
	.loc 4 333 0
	cmpwi 7,10,24
.LBB1862:
.LBB1860:
	.loc 3 424 0
	stwux 0,9,10
.LBE1860:
.LBE1862:
	.loc 4 333 0
	addi 10,10,12
.LBB1863:
.LBB1861:
	.loc 3 425 0
	lwz 0,4(11)
	stw 0,4(9)
	.loc 3 426 0
	lwz 0,8(11)
	stw 0,8(9)
.LBE1861:
.LBE1863:
	.loc 4 333 0
	bne+ 7,.L128
.LBE1865:
.LBE1869:
	.loc 5 206 0
	lbz 0,76(30)
	addi 4,30,84
	li 5,48
	addi 3,31,84
.LVL210:
	stb 0,76(31)
	lbz 0,77(30)
	stb 0,77(31)
	lwz 0,80(30)
	stw 0,80(31)
	bl memcpy
.LVL211:
	lwz 0,132(30)
.LBE1855:
.LBE1854:
	.loc 6 384 0
	addi 4,30,136
	li 5,64
.LBB1871:
.LBB1870:
	.loc 5 206 0
	stw 0,132(31)
.LBE1870:
.LBE1871:
	.loc 6 384 0
	addi 3,31,136
	bl memcpy
	lbz 0,200(30)
	addi 4,30,204
	li 5,160
	stb 0,200(31)
	addi 3,31,204
	bl memcpy
	lwz 0,364(30)
	addi 3,31,468
	addi 4,30,468
	stw 0,364(31)
	li 5,80
	lwz 0,368(30)
	stw 0,368(31)
.LVL212:
.LBB1872:
.LBB1873:
	.loc 3 424 0
	lwz 0,372(30)
	stw 0,372(31)
	.loc 3 425 0
	lwz 0,376(30)
	stw 0,376(31)
	.loc 3 426 0
	lwz 0,380(30)
	stw 0,380(31)
.LBE1873:
.LBE1872:
	.loc 6 384 0
	lbz 0,384(30)
	stb 0,384(31)
	lbz 0,385(30)
	stb 0,385(31)
	lbz 0,386(30)
	stb 0,386(31)
	lbz 0,387(30)
	stb 0,387(31)
	lwz 0,388(30)
	stw 0,388(31)
	lwz 10,392(30)
	lwz 11,396(30)
	lwz 9,400(30)
	lwz 0,404(30)
	stw 10,392(31)
	stw 11,396(31)
	stw 9,400(31)
	stw 0,404(31)
	lwz 9,416(30)
	lwz 0,420(30)
	lwz 10,408(30)
	lwz 11,412(30)
	stw 10,408(31)
	stw 11,412(31)
	stw 9,416(31)
	stw 0,420(31)
	lwz 10,424(30)
	lwz 0,436(30)
	lwz 11,428(30)
	lwz 9,432(30)
	stw 10,424(31)
	stw 11,428(31)
	stw 9,432(31)
	stw 0,436(31)
	lwz 0,440(30)
	stw 0,440(31)
	lwz 0,444(30)
	stw 0,444(31)
	lwz 0,448(30)
	stw 0,448(31)
	lwz 0,452(30)
	stw 0,452(31)
	lwz 0,456(30)
	stw 0,456(31)
	lwz 0,460(30)
	stw 0,460(31)
	lwz 0,464(30)
	stw 0,464(31)
	bl memcpy
.LVL213:
.LBB1874:
.LBB1875:
.LBB1876:
.LBB1877:
	.loc 3 424 0
	lwz 0,548(30)
.LBE1877:
.LBE1876:
.LBB1880:
.LBB1881:
	.loc 4 333 0
	addi 7,31,560
	addi 8,30,560
.LBE1881:
.LBE1880:
.LBB1890:
.LBB1878:
	.loc 3 424 0
	stw 0,548(31)
.LBE1878:
.LBE1890:
.LBB1891:
.LBB1888:
	.loc 4 333 0
	li 10,0
.LBE1888:
.LBE1891:
.LBB1892:
.LBB1879:
	.loc 3 425 0
	lwz 0,552(30)
	stw 0,552(31)
	.loc 3 426 0
	lwz 0,556(30)
	stw 0,556(31)
.LVL214:
.L129:
.LBE1879:
.LBE1892:
.LBB1893:
.LBB1889:
.LBB1882:
.LBB1883:
	.loc 3 424 0
	mr 11,8
	mr 9,7
	lwzux 0,11,10
.LBE1883:
.LBE1882:
	.loc 4 333 0
	cmpwi 7,10,24
.LBB1886:
.LBB1884:
	.loc 3 424 0
	stwux 0,9,10
.LBE1884:
.LBE1886:
	.loc 4 333 0
	addi 10,10,12
.LBB1887:
.LBB1885:
	.loc 3 425 0
	lwz 0,4(11)
	stw 0,4(9)
	.loc 3 426 0
	lwz 0,8(11)
	stw 0,8(9)
.LBE1885:
.LBE1887:
	.loc 4 333 0
	bne+ 7,.L129
.LBE1889:
.LBE1893:
	.loc 7 40 0
	lwz 0,596(30)
.LBE1875:
.LBE1874:
.LBE1853:
.LBE1852:
	.loc 2 279 0
	li 27,0
.LBE1851:
.LBE1850:
	.loc 2 415 0
	li 6,1
	li 7,0
.LBB1906:
.LBB1904:
.LBB1901:
.LBB1898:
.LBB1896:
.LBB1894:
	.loc 7 40 0
	stw 0,596(31)
.LBE1894:
.LBE1896:
.LBE1898:
.LBE1901:
	.loc 2 281 0
	li 0,1
.LBE1904:
.LBE1906:
	.loc 2 415 0
	mr 3,29
.LBB1907:
.LBB1905:
.LBB1902:
.LBB1899:
.LBB1897:
.LBB1895:
	.loc 7 40 0
	lwz 9,600(30)
	stw 9,600(31)
	lwz 9,604(30)
	stw 9,604(31)
	lwz 9,608(30)
	stw 9,608(31)
	lwz 9,612(30)
	stw 9,612(31)
.LBE1895:
.LBE1897:
	.loc 6 384 0
	lwz 9,616(30)
	stw 9,616(31)
	lwz 9,620(30)
.LBE1899:
.LBE1902:
	.loc 2 281 0
	stb 0,384(31)
.LBB1903:
.LBB1900:
	.loc 6 384 0
	stw 9,620(31)
.LBE1900:
.LBE1903:
	.loc 2 282 0
	stb 0,386(31)
.LVL215:
	.loc 2 279 0
	stw 27,0(31)
.LBE1905:
.LBE1907:
	.loc 2 415 0
	lwz 4,44(28)
	lwz 5,48(28)
	bl _ZN19idRenderSystemLocal14CropRenderSizeEiibb
	.loc 2 419 0
	li 0,640
	stw 0,12(31)
	.loc 2 420 0
	li 0,480
	stw 0,16(31)
	.loc 2 422 0
	mr 4,31
	.loc 2 417 0
	stw 27,4(31)
	.loc 2 422 0
	addi 5,31,408
	.loc 2 418 0
	stw 27,8(31)
	.loc 2 422 0
	mr 3,29
	bl _ZN19idRenderSystemLocal20RenderViewToViewportEPK12renderView_sP12idScreenRect
	.loc 2 426 0
	lhz 8,412(31)
	.loc 2 427 0
	lhz 10,414(31)
	.loc 2 436 0
	mr 3,31
	.loc 2 426 0
	lhz 11,408(31)
	.loc 2 427 0
	lhz 0,410(31)
	.loc 2 429 0
	lwz 9,252(29)
	.loc 2 426 0
	subf 11,11,8
	.loc 2 427 0
	subf 0,0,10
	.loc 2 426 0
	sth 11,428(31)
	.loc 2 427 0
	sth 0,430(31)
	.loc 2 424 0
	sth 27,424(31)
	.loc 2 425 0
	sth 27,426(31)
	.loc 2 429 0
	stw 9,440(31)
	.loc 2 430 0
	stw 26,444(31)
	.loc 2 433 0
	lbz 0,385(31)
	lbz 9,385(9)
	xor 0,9,0
	stb 0,385(31)
	.loc 2 436 0
	bl _Z12R_RenderViewP9viewDef_s
	.loc 2 439 0
	lwz 0,8(29)
	.loc 2 440 0
	lis 9,globalImages@ha
	.loc 2 442 0
	mr 3,29
	.loc 2 439 0
	stw 0,52(28)
	.loc 2 440 0
	lwz 9,globalImages@l(9)
	lwz 9,56(9)
	stw 9,4(28)
.LVL216:
	.loc 2 442 0
	lwz 4,1132(9)
	bl _ZN19idRenderSystemLocal20CaptureRenderToImageEPKc
.LVL217:
	.loc 2 443 0
	mr 3,29
	bl _ZN19idRenderSystemLocal6UnCropEv
.LVL218:
.L126:
.LBE1909:
	.loc 2 444 0
	lwz 0,36(1)
	lwz 26,8(1)
.LVL219:
	mtlr 0
	lwz 27,12(1)
	lwz 28,16(1)
.LVL220:
	lwz 29,20(1)
	lwz 30,24(1)
	lwz 31,28(1)
	addi 1,1,32
.LCFI17:
	.cfi_def_cfa_offset 0
	.cfi_restore 31
	.cfi_restore 30
	.cfi_restore 29
	.cfi_restore 28
	.cfi_restore 27
	.cfi_restore 26
	blr
	.cfi_endproc
.LFE2580:
	.size	_Z12R_XrayRenderP10drawSurf_sP14textureStage_t12idScreenRect, .-_Z12R_XrayRenderP10drawSurf_sP14textureStage_t12idScreenRect
	.align 2
	.globl _Z24R_GenerateSurfaceSubviewP10drawSurf_s
	.type	_Z24R_GenerateSurfaceSubviewP10drawSurf_s, @function
_Z24R_GenerateSurfaceSubviewP10drawSurf_s:
.LFB2581:
	.loc 2 451 0
	.cfi_startproc
.LVL221:
	mflr 0
	stwu 1,-176(1)
.LCFI18:
	.cfi_def_cfa_offset 176
	.cfi_register 65, 0
.LBB1952:
.LBB1953:
.LBB1954:
	.loc 2 457 0
	lis 9,r_skipSubviews+44@ha
.LBE1954:
.LBE1953:
.LBE1952:
	.loc 2 451 0
	stw 30,168(1)
.LBB2054:
	.loc 2 458 0
	li 30,0
	.cfi_offset 30, -8
.LBE2054:
	.loc 2 451 0
	stw 31,172(1)
	mr 31,3
	.cfi_offset 31, -4
	stw 0,180(1)
	stw 16,112(1)
	stw 17,116(1)
	stw 18,120(1)
	stw 19,124(1)
	stw 20,128(1)
	stw 21,132(1)
	stw 22,136(1)
	stw 23,140(1)
	stw 24,144(1)
	stw 25,148(1)
	stw 26,152(1)
	stw 27,156(1)
	stw 28,160(1)
	stw 29,164(1)
.LBB2055:
.LBB1956:
.LBB1955:
	.file 11 "d:/Data/Nintendo/DoomGX/src/renderer/../idlib/../framework/CVarSystem.h"
	.loc 11 142 0
	lwz 9,r_skipSubviews+44@l(9)
.LBE1955:
.LBE1956:
	.loc 2 457 0
	lwz 29,36(9)
	.cfi_offset 29, -12
	.cfi_offset 28, -16
	.cfi_offset 27, -20
	.cfi_offset 26, -24
	.cfi_offset 25, -28
	.cfi_offset 24, -32
	.cfi_offset 23, -36
	.cfi_offset 22, -40
	.cfi_offset 21, -44
	.cfi_offset 20, -48
	.cfi_offset 19, -52
	.cfi_offset 18, -56
	.cfi_offset 17, -60
	.cfi_offset 16, -64
	.cfi_offset 65, 4
	cmpwi 7,29,0
	beq- 7,.L159
.LVL222:
.L133:
.LBE2055:
	.loc 2 535 0
	lwz 0,180(1)
	mr 3,30
	lwz 16,112(1)
	mtlr 0
	lwz 17,116(1)
	lwz 18,120(1)
	lwz 19,124(1)
	lwz 20,128(1)
	lwz 21,132(1)
	lwz 22,136(1)
	lwz 23,140(1)
	lwz 24,144(1)
	lwz 25,148(1)
	lwz 26,152(1)
	lwz 27,156(1)
	lwz 28,160(1)
	lwz 29,164(1)
	lwz 30,168(1)
	lwz 31,172(1)
.LVL223:
	addi 1,1,176
	.cfi_remember_state
.LCFI19:
	.cfi_def_cfa_offset 0
	.cfi_restore 31
	.cfi_restore 30
	.cfi_restore 29
	.cfi_restore 28
	.cfi_restore 27
	.cfi_restore 26
	.cfi_restore 25
	.cfi_restore 24
	.cfi_restore 23
	.cfi_restore 22
	.cfi_restore 21
	.cfi_restore 20
	.cfi_restore 19
	.cfi_restore 18
	.cfi_restore 17
	.cfi_restore 16
	blr
.LVL224:
.L159:
.LCFI20:
	.cfi_restore_state
.LBB2056:
	.loc 2 461 0
	addi 4,1,24
	.loc 2 462 0
	mr 30,29
	.loc 2 461 0
	bl _Z20R_PreciseCullSurfacePK10drawSurf_sR8idBounds
.LVL225:
	cmpwi 7,3,0
	bne- 7,.L133
	.loc 2 469 0
	lis 29,tr@ha
	.loc 2 465 0
	lwz 28,8(31)
.LVL226:
	.loc 2 469 0
	la 29,tr@l(29)
	lwz 8,252(29)
.LVL227:
	cmpwi 7,8,0
	beq- 7,.L134
	mr 9,8
	b .L136
.LVL228:
.L135:
	lwz 9,440(9)
.LVL229:
	cmpwi 7,9,0
	beq- 7,.L134
.L136:
	.loc 2 470 0
	lwz 11,444(9)
	cmpwi 7,11,0
	beq- 7,.L135
	.loc 2 470 0 is_stmt 0 discriminator 1
	lwz 10,0(11)
	lwz 0,0(31)
	cmpw 7,10,0
	bne+ 7,.L135
	.loc 2 470 0 discriminator 2
	lwz 11,4(11)
	lwz 10,4(31)
	lwz 11,4(11)
	lwz 0,4(10)
	cmpw 7,11,0
	bne+ 7,.L135
	.loc 2 477 0 is_stmt 1
	li 30,0
	b .L133
.LVL230:
.L134:
	.loc 2 484 0
	lhz 9,408(8)
	lis 10,.LC9@ha
	lha 11,412(8)
	.loc 2 490 0
	addi 3,1,8
	.loc 2 484 0
	extsh 0,9
	lfs 12,.LC9@l(10)
	subf 11,0,11
	lis 10,.LC0@ha
	addi 0,11,1
	lis 11,0x4330
	xoris 0,0,0x8000
	stw 11,56(1)
	stw 0,60(1)
	.loc 2 496 0
	li 30,0
	.loc 2 484 0
	lfs 0,.LC0@l(10)
	lis 10,.LC1@ha
	lfd 11,56(1)
	lfs 7,24(1)
	fsub 11,11,12
	lfs 13,.LC1@l(10)
	fadds 7,7,0
	addi 10,1,96
	.loc 2 487 0
	lfs 8,40(1)
	.loc 2 484 0
	frsp 11,11
	.loc 2 485 0
	lfs 10,28(1)
	.loc 2 486 0
	lfs 9,36(1)
	.loc 2 485 0
	fadds 10,10,0
	.loc 2 484 0
	fmuls 11,11,13
.LVL231:
	.loc 2 486 0
	fadds 9,9,0
	.loc 2 487 0
	fadds 0,8,0
	.loc 2 484 0
	fmuls 7,11,7
	.loc 2 486 0
	fmuls 11,11,9
	.loc 2 484 0
	fctiwz 7,7
	.loc 2 486 0
	fctiwz 11,11
	.loc 2 484 0
	stfiwx 7,0,10
	.loc 2 485 0
	lhz 0,410(8)
	lha 8,414(8)
	extsh 10,0
	stw 11,64(1)
	subf 10,10,8
	.loc 2 486 0
	addi 11,1,104
	.loc 2 485 0
	addi 10,10,1
	xoris 10,10,0x8000
	stw 10,68(1)
	lfd 9,64(1)
	.loc 2 486 0
	stfiwx 11,0,11
	.loc 2 485 0
	addi 11,1,100
	fsub 12,9,12
	.loc 2 486 0
	lwz 7,104(1)
	.loc 2 484 0
	lwz 10,96(1)
	.loc 2 485 0
	frsp 12,12
	.loc 2 484 0
	add 10,9,10
	.loc 2 486 0
	add 9,9,7
	.loc 2 485 0
	fmuls 13,12,13
.LVL232:
	fmuls 12,13,10
	.loc 2 487 0
	fmuls 0,13,0
	.loc 2 485 0
	fctiwz 12,12
	.loc 2 487 0
	fctiwz 0,0
	.loc 2 485 0
	stfiwx 12,0,11
	.loc 2 487 0
	addi 11,1,108
	stfiwx 0,0,11
	.loc 2 484 0
	sth 10,8(1)
	.loc 2 487 0
	lwz 8,108(1)
	.loc 2 485 0
	lwz 11,100(1)
	.loc 2 486 0
	sth 9,12(1)
	.loc 2 485 0
	add 11,0,11
	.loc 2 487 0
	add 0,0,8
	.loc 2 485 0
	sth 11,10(1)
.LVL233:
	.loc 2 487 0
	sth 0,14(1)
	.loc 2 490 0
	bl _ZN12idScreenRect6ExpandEv
.LVL234:
	.loc 2 492 0
	lwz 4,252(29)
	addi 3,1,8
	addi 4,4,424
	bl _ZN12idScreenRect9IntersectERKS_
	.loc 2 494 0
	addi 3,1,8
	bl _ZNK12idScreenRect7IsEmptyEv
	cmpwi 7,3,0
	bne- 7,.L133
.LBB1957:
	.loc 2 500 0
	lis 9,.LC10@ha
	lfs 13,148(28)
	lfs 0,.LC10@l(9)
	fcmpu 7,13,0
	beq- 7,.L137
.LVL235:
.LBB1958:
	.loc 2 501 0 discriminator 1
	lwz 9,228(28)
	.loc 2 515 0 discriminator 1
	li 30,1
	.loc 2 501 0 discriminator 1
	cmpwi 7,9,0
	ble- 7,.L133
	.loc 2 501 0 is_stmt 0
	li 25,0
	li 26,0
.LBB1959:
.LBB1960:
.LBB1961:
.LBB1962:
.LBB1963:
.LBB1964:
.LBB1965:
.LBB1966:
.LBB1967:
	.loc 4 333 0 is_stmt 1
	li 24,0
.LBE1967:
.LBE1966:
.LBE1965:
.LBE1964:
.LBE1963:
.LBE1962:
	.loc 2 309 0
	li 20,1
	.loc 2 310 0
	li 21,0
	.loc 2 320 0
	li 22,640
	.loc 2 321 0
	li 23,480
	.loc 2 339 0
	lis 19,globalImages@ha
	b .L146
.LVL236:
.L160:
.LBE1961:
.LBE1960:
	.loc 2 503 0
	cmpwi 7,0,5
	beq- 7,.L141
	cmpwi 7,0,3
	bne+ 7,.L138
	.loc 2 508 0
	lwz 0,8(1)
	mr 3,31
	addi 4,27,36
	addi 5,1,80
	stw 0,80(1)
	lwz 0,12(1)
	stw 0,84(1)
	lwz 0,16(1)
	stw 0,88(1)
	lwz 0,20(1)
	stw 0,92(1)
	bl _Z14R_MirrorRenderP10drawSurf_sP14textureStage_t12idScreenRect
	lwz 9,228(28)
.L138:
.LBE1959:
	.loc 2 501 0
	addi 26,26,1
.LVL237:
	addi 25,25,108
	cmpw 7,9,26
	ble- 7,.L158
.LVL238:
.L146:
.LBB2050:
.LBB2046:
.LBB2047:
	.file 12 "d:/Data/Nintendo/DoomGX/src/renderer/../idlib/../renderer/Material.h"
	.loc 12 368 0
	lwz 27,236(28)
	add 27,27,25
.LBE2047:
.LBE2046:
	.loc 2 503 0
	lwz 0,76(27)
	cmpwi 7,0,4
	bne+ 7,.L160
	.loc 2 511 0
	lwz 0,8(1)
	mr 3,31
	addi 4,27,36
	addi 5,1,80
	stw 0,80(1)
	lwz 0,12(1)
	stw 0,84(1)
	lwz 0,16(1)
	stw 0,88(1)
	lwz 0,20(1)
	stw 0,92(1)
	bl _Z12R_XrayRenderP10drawSurf_sP14textureStage_t12idScreenRect
	lwz 9,228(28)
	.loc 2 512 0
	b .L138
.L141:
.LVL239:
.LBB2048:
.LBB2044:
	.loc 2 296 0
	lwz 11,88(27)
	lwz 0,8(29)
	cmpw 7,11,0
	beq- 7,.L138
	.loc 2 301 0
	lwz 11,4(31)
	lwz 11,4(11)
	lwz 0,188(11)
	cmpwi 7,0,0
	beq- 7,.L138
	.loc 2 306 0
	li 3,624
	bl _Z12R_FrameAlloci
	.loc 2 307 0
	lwz 18,252(29)
	.loc 2 306 0
	mr 30,3
.LVL240:
.LBB2013:
.LBB2010:
.LBB1984:
.LBB1982:
.LBB1977:
.LBB1974:
	.loc 4 333 0
	addi 17,3,40
.LBE1974:
.LBE1977:
	.loc 5 206 0
	lwz 0,0(18)
.LBB1978:
.LBB1975:
	.loc 4 333 0
	addi 8,18,40
	li 10,0
.LBE1975:
.LBE1978:
	.loc 5 206 0
	stw 0,0(3)
	lwz 0,4(18)
	stw 0,4(3)
	lwz 0,8(18)
	stw 0,8(3)
	lwz 0,12(18)
	stw 0,12(3)
	lwz 0,16(18)
	stw 0,16(3)
	lwz 0,20(18)
	stw 0,20(3)
	lwz 0,24(18)
	stw 0,24(3)
.LVL241:
.LBB1979:
.LBB1980:
	.loc 3 424 0
	lwz 0,28(18)
	stw 0,28(3)
	.loc 3 425 0
	lwz 0,32(18)
	stw 0,32(3)
	.loc 3 426 0
	lwz 0,36(18)
	stw 0,36(3)
.LVL242:
.L142:
.LBE1980:
.LBE1979:
.LBB1981:
.LBB1976:
.LBB1968:
.LBB1969:
	.loc 3 424 0
	mr 11,8
	mr 9,17
	lwzux 0,11,10
.LBE1969:
.LBE1968:
	.loc 4 333 0
	cmpwi 7,10,24
.LBB1972:
.LBB1970:
	.loc 3 424 0
	stwux 0,9,10
.LBE1970:
.LBE1972:
	.loc 4 333 0
	addi 10,10,12
.LBB1973:
.LBB1971:
	.loc 3 425 0
	lwz 0,4(11)
	stw 0,4(9)
	.loc 3 426 0
	lwz 0,8(11)
	stw 0,8(9)
.LBE1971:
.LBE1973:
	.loc 4 333 0
	bne+ 7,.L142
.LBE1976:
.LBE1981:
	.loc 5 206 0
	lbz 0,76(18)
	addi 16,30,84
	addi 4,18,84
	li 5,48
	stb 0,76(30)
	mr 3,16
.LVL243:
	lbz 0,77(18)
	stb 0,77(30)
	lwz 0,80(18)
	stw 0,80(30)
	bl memcpy
.LVL244:
	lwz 0,132(18)
.LBE1982:
.LBE1984:
	.loc 6 384 0
	addi 4,18,136
	li 5,64
.LBB1985:
.LBB1983:
	.loc 5 206 0
	stw 0,132(30)
.LBE1983:
.LBE1985:
	.loc 6 384 0
	addi 3,30,136
	bl memcpy
	lbz 0,200(18)
	addi 4,18,204
	li 5,160
	stb 0,200(30)
	addi 3,30,204
	bl memcpy
	lwz 0,364(18)
	addi 3,30,468
	addi 4,18,468
	stw 0,364(30)
	li 5,80
	lwz 0,368(18)
	stw 0,368(30)
.LVL245:
.LBB1986:
.LBB1987:
	.loc 3 424 0
	lwz 0,372(18)
	stw 0,372(30)
	.loc 3 425 0
	lwz 0,376(18)
	stw 0,376(30)
	.loc 3 426 0
	lwz 0,380(18)
	stw 0,380(30)
.LBE1987:
.LBE1986:
	.loc 6 384 0
	lbz 0,384(18)
	stb 0,384(30)
	lbz 0,385(18)
	stb 0,385(30)
	lbz 0,386(18)
	stb 0,386(30)
	lbz 0,387(18)
	stb 0,387(30)
	lwz 0,388(18)
	stw 0,388(30)
	lwz 10,392(18)
	lwz 11,396(18)
	lwz 9,400(18)
	lwz 0,404(18)
	stw 10,392(30)
	stw 11,396(30)
	stw 9,400(30)
	stw 0,404(30)
	lwz 9,416(18)
	lwz 0,420(18)
	lwz 10,408(18)
	lwz 11,412(18)
	stw 10,408(30)
	stw 11,412(30)
	stw 9,416(30)
	stw 0,420(30)
	lwz 10,424(18)
	lwz 0,436(18)
	lwz 11,428(18)
	lwz 9,432(18)
	stw 10,424(30)
	stw 11,428(30)
	stw 9,432(30)
	stw 0,436(30)
	lwz 0,440(18)
	stw 0,440(30)
	lwz 0,444(18)
	stw 0,444(30)
	lwz 0,448(18)
	stw 0,448(30)
	lwz 0,452(18)
	stw 0,452(30)
	lwz 0,456(18)
	stw 0,456(30)
	lwz 0,460(18)
	stw 0,460(30)
	lwz 0,464(18)
	stw 0,464(30)
	bl memcpy
.LVL246:
.LBB1988:
.LBB1989:
.LBB1990:
.LBB1991:
	.loc 3 424 0
	lwz 0,548(18)
.LBE1991:
.LBE1990:
.LBB1994:
.LBB1995:
	.loc 4 333 0
	addi 7,30,560
	addi 8,18,560
.LBE1995:
.LBE1994:
.LBB2004:
.LBB1992:
	.loc 3 424 0
	stw 0,548(30)
.LBE1992:
.LBE2004:
.LBB2005:
.LBB2002:
	.loc 4 333 0
	li 10,0
.LBE2002:
.LBE2005:
.LBB2006:
.LBB1993:
	.loc 3 425 0
	lwz 0,552(18)
	stw 0,552(30)
	.loc 3 426 0
	lwz 0,556(18)
	stw 0,556(30)
.LVL247:
.L143:
.LBE1993:
.LBE2006:
.LBB2007:
.LBB2003:
.LBB1996:
.LBB1997:
	.loc 3 424 0
	mr 11,8
	mr 9,7
	lwzux 0,11,10
.LBE1997:
.LBE1996:
	.loc 4 333 0
	cmpwi 7,10,24
.LBB2000:
.LBB1998:
	.loc 3 424 0
	stwux 0,9,10
.LBE1998:
.LBE2000:
	.loc 4 333 0
	addi 10,10,12
.LBB2001:
.LBB1999:
	.loc 3 425 0
	lwz 0,4(11)
	stw 0,4(9)
	.loc 3 426 0
	lwz 0,8(11)
	stw 0,8(9)
.LBE1999:
.LBE2001:
	.loc 4 333 0
	bne+ 7,.L143
.LBE2003:
.LBE2007:
	.loc 7 40 0
	lwz 0,596(18)
.LBE1989:
.LBE1988:
.LBE2010:
.LBE2013:
.LBB2014:
.LBB2015:
.LBB2016:
.LBB2017:
	.loc 4 333 0
	li 10,0
.LBE2017:
.LBE2016:
.LBE2015:
.LBE2014:
.LBB2032:
.LBB2011:
.LBB2009:
.LBB2008:
	.loc 7 40 0
	stw 0,596(30)
	lwz 0,600(18)
	stw 0,600(30)
	lwz 0,604(18)
	stw 0,604(30)
	lwz 0,608(18)
	stw 0,608(30)
	lwz 0,612(18)
	stw 0,612(30)
.LBE2008:
.LBE2009:
	.loc 6 384 0
	lwz 0,616(18)
	stw 0,616(30)
	lwz 0,620(18)
.LBE2011:
.LBE2032:
	.loc 2 309 0
	stb 20,384(30)
.LBB2033:
.LBB2012:
	.loc 6 384 0
	stw 0,620(30)
.LBE2012:
.LBE2033:
	.loc 2 310 0
	stb 21,385(30)
	.loc 2 312 0
	lwz 9,4(31)
	lwz 9,4(9)
	lwz 18,188(9)
.LVL248:
.LBB2034:
.LBB2030:
	.loc 5 206 0
	lwz 0,0(18)
.LBB2026:
.LBB2024:
	.loc 4 333 0
	addi 8,18,40
.LVL249:
.LBE2024:
.LBE2026:
	.loc 5 206 0
	stw 0,0(30)
	lwz 0,4(18)
	stw 0,4(30)
	lwz 0,8(18)
	stw 0,8(30)
	lwz 0,12(18)
	stw 0,12(30)
	lwz 0,16(18)
	stw 0,16(30)
	lwz 0,20(18)
	stw 0,20(30)
	lwz 0,24(18)
	stw 0,24(30)
.LVL250:
.LBB2027:
.LBB2028:
	.loc 3 424 0
	lwz 0,28(18)
	stw 0,28(30)
	.loc 3 425 0
	lwz 0,32(18)
	stw 0,32(30)
	.loc 3 426 0
	lwz 0,36(18)
	stw 0,36(30)
.LVL251:
.L144:
.LBE2028:
.LBE2027:
.LBB2029:
.LBB2025:
.LBB2018:
.LBB2019:
	.loc 3 424 0
	mr 11,8
	mr 9,17
	lwzux 0,11,10
.LBE2019:
.LBE2018:
	.loc 4 333 0
	cmpwi 7,10,24
.LBB2022:
.LBB2020:
	.loc 3 424 0
	stwux 0,9,10
.LBE2020:
.LBE2022:
	.loc 4 333 0
	addi 10,10,12
.LBB2023:
.LBB2021:
	.loc 3 425 0
	lwz 0,4(11)
	stw 0,4(9)
	.loc 3 426 0
	lwz 0,8(11)
	stw 0,8(9)
.LBE2021:
.LBE2023:
	.loc 4 333 0
	bne+ 7,.L144
.LBE2025:
.LBE2029:
	.loc 5 206 0
	lbz 0,76(18)
	addi 4,18,84
	li 5,48
	mr 3,16
	stb 0,76(30)
	lbz 0,77(18)
	stb 0,77(30)
	lwz 0,80(18)
	stw 0,80(30)
	bl memcpy
.LVL252:
	lwz 10,132(18)
.LBE2030:
.LBE2034:
.LBB2035:
.LBB2036:
	.loc 3 424 0
	lwz 11,28(30)
.LBE2036:
.LBE2035:
	.loc 2 316 0
	li 6,1
.LBB2040:
.LBB2037:
	.loc 3 425 0
	lwz 9,32(30)
.LBE2037:
.LBE2040:
	.loc 2 316 0
	li 7,0
.LBB2041:
.LBB2038:
	.loc 3 426 0
	lwz 0,36(30)
.LBE2038:
.LBE2041:
	.loc 2 316 0
	mr 3,29
.LBB2042:
.LBB2031:
	.loc 5 206 0
	stw 10,132(30)
.LBE2031:
.LBE2042:
.LBB2043:
.LBB2039:
	.loc 3 424 0
	stw 11,372(30)
	.loc 3 425 0
	stw 9,376(30)
	.loc 3 426 0
	stw 0,380(30)
.LBE2039:
.LBE2043:
	.loc 2 313 0
	stw 24,0(30)
.LVL253:
	.loc 2 316 0
	lwz 4,80(27)
	lwz 5,84(27)
	bl _ZN19idRenderSystemLocal14CropRenderSizeEiibb
	.loc 2 318 0
	stw 24,4(30)
	.loc 2 319 0
	stw 24,8(30)
	.loc 2 323 0
	mr 3,29
	.loc 2 320 0
	stw 22,12(30)
	.loc 2 323 0
	mr 4,30
	.loc 2 321 0
	stw 23,16(30)
	.loc 2 323 0
	addi 5,30,408
	bl _ZN19idRenderSystemLocal20RenderViewToViewportEPK12renderView_sP12idScreenRect
	.loc 2 327 0
	lhz 8,412(30)
	lhz 11,408(30)
	.loc 2 334 0
	mr 3,30
	.loc 2 328 0
	lhz 10,414(30)
	lhz 9,410(30)
	.loc 2 327 0
	subf 11,11,8
	.loc 2 330 0
	lwz 0,252(29)
	.loc 2 328 0
	subf 9,9,10
	.loc 2 325 0
	sth 24,424(30)
	.loc 2 328 0
	sth 9,430(30)
	.loc 2 330 0
	stw 0,440(30)
	.loc 2 326 0
	sth 24,426(30)
	.loc 2 327 0
	sth 11,428(30)
	.loc 2 331 0
	stw 31,444(30)
	.loc 2 334 0
	bl _Z12R_RenderViewP9viewDef_s
	.loc 2 338 0
	lwz 9,40(27)
	.loc 2 337 0
	lwz 0,8(29)
	.loc 2 338 0
	cmpwi 7,9,0
	.loc 2 337 0
	stw 0,88(27)
	.loc 2 338 0
	beq- 7,.L161
.L145:
.LVL254:
	.loc 2 342 0
	lwz 4,1132(9)
	mr 3,29
	bl _ZN19idRenderSystemLocal20CaptureRenderToImageEPKc
.LVL255:
	.loc 2 343 0
	mr 3,29
	bl _ZN19idRenderSystemLocal6UnCropEv
	lwz 9,228(28)
	b .L138
.LVL256:
.L137:
.LBE2044:
.LBE2048:
.LBE2050:
.LBE1958:
.LBE1957:
	.loc 2 519 0
	mr 3,31
	addi 4,31,4
	bl _ZL21R_MirrorViewBySurfaceP10drawSurf_s.isra.16
.LVL257:
	.loc 2 520 0
	mr. 9,3
	beq- 0,.L133
	.loc 2 524 0
	lwz 0,8(1)
	.loc 2 525 0
	lwz 11,252(29)
	.loc 2 524 0
	stw 0,424(9)
	lwz 0,12(1)
	.loc 2 525 0
	stw 11,440(9)
	.loc 2 524 0
	stw 0,428(9)
	lwz 0,16(1)
	.loc 2 526 0
	stw 31,444(9)
	.loc 2 524 0
	stw 0,432(9)
	lwz 0,20(1)
	stw 0,436(9)
	.loc 2 529 0
	lbz 0,385(9)
	lbz 11,385(11)
	xor 0,11,0
	stb 0,385(9)
	.loc 2 532 0
	bl _Z12R_RenderViewP9viewDef_s
.LVL258:
.L158:
	.loc 2 534 0
	li 30,1
	b .L133
.LVL259:
.L161:
.LBB2053:
.LBB2052:
.LBB2051:
.LBB2049:
.LBB2045:
	.loc 2 339 0
	lwz 9,globalImages@l(19)
	lwz 9,52(9)
	stw 9,40(27)
	b .L145
.LBE2045:
.LBE2049:
.LBE2051:
.LBE2052:
.LBE2053:
.LBE2056:
	.cfi_endproc
.LFE2581:
	.size	_Z24R_GenerateSurfaceSubviewP10drawSurf_s, .-_Z24R_GenerateSurfaceSubviewP10drawSurf_s
	.align 2
	.globl _Z18R_GenerateSubViewsv
	.type	_Z18R_GenerateSubViewsv, @function
_Z18R_GenerateSubViewsv:
.LFB2582:
	.loc 2 549 0
	.cfi_startproc
	mflr 0
	stwu 1,-24(1)
.LCFI21:
	.cfi_def_cfa_offset 24
	.cfi_register 65, 0
.LBB2057:
.LBB2058:
.LBB2059:
	.loc 2 556 0
	lis 9,r_skipSubviews+44@ha
.LBE2059:
.LBE2058:
.LBE2057:
	.loc 2 549 0
	stw 30,16(1)
.LBB2062:
	.loc 2 557 0
	li 30,0
	.cfi_offset 30, -8
.LBE2062:
	.loc 2 549 0
	stw 0,28(1)
	stw 29,12(1)
	stw 31,20(1)
.LBB2063:
.LBB2061:
.LBB2060:
	.loc 11 142 0
	lwz 9,r_skipSubviews+44@l(9)
.LBE2060:
.LBE2061:
	.loc 2 556 0
	lwz 0,36(9)
	.cfi_offset 31, -4
	.cfi_offset 29, -12
	.cfi_offset 65, 4
	cmpwi 7,0,0
	beq- 7,.L171
.L163:
.LBE2063:
	.loc 2 579 0
	lwz 0,28(1)
	mr 3,30
	lwz 29,12(1)
	mtlr 0
	lwz 30,16(1)
	lwz 31,20(1)
	addi 1,1,24
	.cfi_remember_state
.LCFI22:
	.cfi_def_cfa_offset 0
	.cfi_restore 31
	.cfi_restore 30
	.cfi_restore 29
	blr
.L171:
.LCFI23:
	.cfi_restore_state
.LVL260:
.LBB2064:
	.loc 2 564 0
	lis 31,tr@ha
	lis 3,.LC11@ha
	la 31,tr@l(31)
	la 3,.LC11@l(3)
	lwz 9,252(31)
	lwz 4,452(9)
	crxor 6,6,6
	bl _Z10Sys_PrintfPKcz
.LVL261:
	.loc 2 565 0
	lwz 9,252(31)
	lwz 0,452(9)
	cmpwi 7,0,0
	ble- 7,.L163
	li 29,0
.LVL262:
.L166:
	.loc 2 566 0
	lwz 9,448(9)
	slwi 0,29,2
	lwzx 3,9,0
.LVL263:
	.loc 2 567 0
	lwz 9,8(3)
.LVL264:
	.loc 2 569 0
	cmpwi 7,9,0
	beq- 7,.L164
	.loc 2 569 0 is_stmt 0 discriminator 2
	lbz 0,205(9)
	cmpwi 7,0,0
	beq- 7,.L164
	.loc 2 573 0 is_stmt 1
	bl _Z24R_GenerateSurfaceSubviewP10drawSurf_s
.LVL265:
	cmpwi 7,3,0
	beq- 7,.L164
	.loc 2 574 0
	li 30,1
.L164:
	.loc 2 565 0
	lwz 9,252(31)
	addi 29,29,1
.LVL266:
	lwz 0,452(9)
	cmpw 7,0,29
	bgt+ 7,.L166
.LBE2064:
	.loc 2 579 0
	lwz 0,28(1)
	mr 3,30
	lwz 29,12(1)
.LVL267:
	mtlr 0
	lwz 30,16(1)
	lwz 31,20(1)
	addi 1,1,24
	.cfi_restore 29
	.cfi_restore 30
	.cfi_restore 31
.LCFI24:
	.cfi_def_cfa_offset 0
	blr
	.cfi_endproc
.LFE2582:
	.size	_Z18R_GenerateSubViewsv, .-_Z18R_GenerateSubViewsv
	.weak	_ZTS9idWinding
	.section	.rodata._ZTS9idWinding,"aG",@progbits,_ZTS9idWinding,comdat
	.align 2
	.type	_ZTS9idWinding, @object
	.size	_ZTS9idWinding, 11
_ZTS9idWinding:
	.string	"9idWinding"
	.weak	_ZTI9idWinding
	.section	.sdata._ZTI9idWinding,"awG",@progbits,_ZTI9idWinding,comdat
	.align 2
	.type	_ZTI9idWinding, @object
	.size	_ZTI9idWinding, 8
_ZTI9idWinding:
	.long	_ZTVN10__cxxabiv117__class_type_infoE+8
	.long	_ZTS9idWinding
	.weak	_ZTS14idFixedWinding
	.section	.rodata._ZTS14idFixedWinding,"aG",@progbits,_ZTS14idFixedWinding,comdat
	.align 2
	.type	_ZTS14idFixedWinding, @object
	.size	_ZTS14idFixedWinding, 17
_ZTS14idFixedWinding:
	.string	"14idFixedWinding"
	.weak	_ZTI14idFixedWinding
	.section	.rodata._ZTI14idFixedWinding,"aG",@progbits,_ZTI14idFixedWinding,comdat
	.align 2
	.type	_ZTI14idFixedWinding, @object
	.size	_ZTI14idFixedWinding, 12
_ZTI14idFixedWinding:
	.long	_ZTVN10__cxxabiv120__si_class_type_infoE+8
	.long	_ZTS14idFixedWinding
	.long	_ZTI9idWinding
	.weak	_ZTV9idWinding
	.section	.rodata._ZTV9idWinding,"aG",@progbits,_ZTV9idWinding,comdat
	.align 3
	.type	_ZTV9idWinding, @object
	.size	_ZTV9idWinding, 24
_ZTV9idWinding:
	.long	0
	.long	_ZTI9idWinding
	.long	_ZN9idWindingD1Ev
	.long	_ZN9idWindingD0Ev
	.long	_ZN9idWinding5ClearEv
	.long	_ZN9idWinding10ReAllocateEib
	.weak	_ZTV14idFixedWinding
	.section	.rodata._ZTV14idFixedWinding,"aG",@progbits,_ZTV14idFixedWinding,comdat
	.align 3
	.type	_ZTV14idFixedWinding, @object
	.size	_ZTV14idFixedWinding, 24
_ZTV14idFixedWinding:
	.long	0
	.long	_ZTI14idFixedWinding
	.long	_ZN14idFixedWindingD1Ev
	.long	_ZN14idFixedWindingD0Ev
	.long	_ZN14idFixedWinding5ClearEv
	.long	_ZN14idFixedWinding10ReAllocateEib
	.weak	_ZN9idWindingD1Ev
	.set	_ZN9idWindingD1Ev,_ZN9idWindingD2Ev
	.weak	_ZN14idFixedWindingD1Ev
	.set	_ZN14idFixedWindingD1Ev,_ZN14idFixedWindingD2Ev
	.section	.rodata.cst4,"aM",@progbits,4
	.align 2
.LC0:
	.4byte	1065353216
.LC1:
	.4byte	1056964608
.LC3:
	.4byte	1069547520
.LC4:
	.4byte	-1082130432
.LC5:
	.4byte	1098907648
.LC6:
	.4byte	0
.LC7:
	.4byte	1036831949
.LC9:
	.4byte	1501560836
.LC10:
	.4byte	-1069547520
	.section	.rodata.str1.4,"aMS",@progbits,1
	.align 2
.LC11:
	.string	">>> R_GenerateSubViews num %d\r\n"
	.section	".text"
.Letext0:
	.file 13 "<built-in>"
	.file 14 "c:\\utils\\devkitpro\\devkitppc\\bin\\../lib/gcc/powerpc-eabi/4.6.3/include/stddef.h"
	.file 15 "c:\\utils\\devkitpro\\devkitppc\\bin\\../lib/gcc/powerpc-eabi/4.6.3/../../../../powerpc-eabi/include/sys/types.h"
	.file 16 "d:/Data/Nintendo/DoomGX/src/renderer/../idlib/../sys/sys_public.h"
	.file 17 "d:/Data/Nintendo/DoomGX/src/renderer/../idlib/../framework/Common.h"
	.file 18 "d:/Data/Nintendo/DoomGX/src/renderer/../idlib/../framework/FileSystem.h"
	.file 19 "d:/Data/Nintendo/DoomGX/src/renderer/../idlib/../idlib/Lib.h"
	.file 20 "d:/Data/Nintendo/DoomGX/src/renderer/../idlib/../idlib/CmdArgs.h"
	.file 21 "d:/Data/Nintendo/DoomGX/src/renderer/../idlib/../idlib/math/Random.h"
	.file 22 "d:/Data/Nintendo/DoomGX/src/renderer/../idlib/../idlib/math/Angles.h"
	.file 23 "d:/Data/Nintendo/DoomGX/src/renderer/../idlib/../idlib/math/Quat.h"
	.file 24 "d:/Data/Nintendo/DoomGX/src/renderer/../idlib/../idlib/math/Rotation.h"
	.file 25 "d:/Data/Nintendo/DoomGX/src/renderer/../idlib/../idlib/containers/List.h"
	.file 26 "d:/Data/Nintendo/DoomGX/src/renderer/../idlib/../idlib/math/Ode.h"
	.file 27 "d:/Data/Nintendo/DoomGX/src/renderer/../idlib/../idlib/bv/Sphere.h"
	.file 28 "d:/Data/Nintendo/DoomGX/src/renderer/../idlib/../idlib/bv/Box.h"
	.file 29 "d:/Data/Nintendo/DoomGX/src/renderer/../idlib/../idlib/geometry/DrawVert.h"
	.file 30 "d:/Data/Nintendo/DoomGX/src/renderer/../idlib/../idlib/geometry/JointTransform.h"
	.file 31 "d:/Data/Nintendo/DoomGX/src/renderer/../idlib/../idlib/geometry/Surface.h"
	.file 32 "d:/Data/Nintendo/DoomGX/src/renderer/../idlib/../idlib/geometry/TraceModel.h"
	.file 33 "d:/Data/Nintendo/DoomGX/src/renderer/../idlib/../idlib/Str.h"
	.file 34 "d:/Data/Nintendo/DoomGX/src/renderer/../idlib/../idlib/Token.h"
	.file 35 "d:/Data/Nintendo/DoomGX/src/renderer/../idlib/../idlib/Lexer.h"
	.file 36 "d:/Data/Nintendo/DoomGX/src/renderer/../idlib/../framework/File.h"
	.file 37 "d:/Data/Nintendo/DoomGX/src/renderer/../idlib/../idlib/Parser.h"
	.file 38 "d:/Data/Nintendo/DoomGX/src/renderer/../idlib/../idlib/containers/HashIndex.h"
	.file 39 "d:/Data/Nintendo/DoomGX/src/renderer/../idlib/../idlib/containers/StrList.h"
	.file 40 "d:/Data/Nintendo/DoomGX/src/renderer/../idlib/../idlib/containers/StrPool.h"
	.file 41 "d:/Data/Nintendo/DoomGX/src/renderer/../idlib/../idlib/containers/PlaneSet.h"
	.file 42 "d:/Data/Nintendo/DoomGX/src/renderer/../idlib/../idlib/Dict.h"
	.file 43 "d:/Data/Nintendo/DoomGX/src/renderer/../idlib/../idlib/LangDict.h"
	.file 44 "d:/Data/Nintendo/DoomGX/src/renderer/../idlib/../idlib/BitMsg.h"
	.file 45 "d:/Data/Nintendo/DoomGX/src/renderer/../idlib/../idlib/MapFile.h"
	.file 46 "d:/Data/Nintendo/DoomGX/src/renderer/../idlib/../framework/CmdSystem.h"
	.file 47 "d:/Data/Nintendo/DoomGX/src/renderer/../idlib/../framework/UsercmdGen.h"
	.file 48 "d:/Data/Nintendo/DoomGX/src/renderer/../idlib/../framework/DeclManager.h"
	.file 49 "d:/Data/Nintendo/DoomGX/src/renderer/../idlib/../framework/DeclParticle.h"
	.file 50 "d:/Data/Nintendo/DoomGX/gl2gx/include/GL/gl.h"
	.file 51 "d:/Data/Nintendo/DoomGX/src/renderer/../idlib/../renderer/Cinematic.h"
	.file 52 "d:/Data/Nintendo/DoomGX/src/renderer/Image.h"
	.file 53 "d:/Data/Nintendo/DoomGX/src/renderer/MegaTexture.h"
	.file 54 "d:/Data/Nintendo/DoomGX/src/renderer/../idlib/../renderer/Model.h"
	.file 55 "d:/Data/Nintendo/DoomGX/src/renderer/VertexCache.h"
	.file 56 "d:/Data/Nintendo/DoomGX/src/renderer/../idlib/../renderer/RenderSystem.h"
	.file 57 "d:/Data/Nintendo/DoomGX/src/renderer/../idlib/../sound/sound.h"
	.file 58 "d:/Data/Nintendo/DoomGX/src/renderer/../idlib/../ui/UserInterface.h"
	.file 59 "d:/Data/Nintendo/DoomGX/src/renderer/../idlib/../cm/CollisionModel.h"
	.file 60 "d:/Data/Nintendo/DoomGX/src/renderer/../idlib/../tools/compilers/aas/AASFile.h"
	.file 61 "d:/Data/Nintendo/DoomGX/src/renderer/../idlib/../game/Game.h"
	.file 62 "d:/Data/Nintendo/DoomGX/src/renderer/../idlib/../framework/async/NetworkSystem.h"
	.file 63 "d:/Data/Nintendo/DoomGX/src/renderer/../idlib/../renderer/ModelManager.h"
	.file 64 "d:/Data/Nintendo/DoomGX/src/renderer/../idlib/../tools/compilers/aas/AASFileManager.h"
	.file 65 "d:/Data/Nintendo/DoomGX/src/renderer/../idlib/../framework/Session.h"
	.file 66 "d:/Data/Nintendo/DoomGX/src/renderer/../idlib/../ui/ListGUI.h"
	.file 67 "d:/Data/Nintendo/DoomGX/src/renderer/../idlib/../framework/Console.h"
	.file 68 "d:/Data/Nintendo/DoomGX/src/renderer/../idlib/../idlib/math/Curve.h"
	.file 69 "d:/Data/Nintendo/DoomGX/src/renderer/../idlib/../idlib/math/Simd.h"
	.file 70 "d:/Data/Nintendo/DoomGX/src/renderer/../idlib/../framework/BuildVersion.h"
	.file 71 "d:/Data/Nintendo/DoomGX/src/renderer/../idlib/precompiled.h"
	.file 72 "d:/Data/Nintendo/DoomGX/src/renderer/../idlib/../framework/EventLoop.h"
	.file 73 "d:/Data/Nintendo/DoomGX/src/renderer/../idlib/../framework/EditField.h"
	.file 74 "d:/Data/Nintendo/DoomGX/src/renderer/../idlib/../framework/async/AsyncNetwork.h"
	.file 75 "d:/Data/Nintendo/DoomGX/src/renderer/../idlib/../framework/async/AsyncServer.h"
	.file 76 "d:/Data/Nintendo/DoomGX/src/renderer/ModelDecal.h"
	.file 77 "d:/Data/Nintendo/DoomGX/src/renderer/ModelOverlay.h"
	.file 78 "d:/Data/Nintendo/DoomGX/src/renderer/RenderWorld_local.h"