	.file	"tr_trisurf.cpp"
	.section	".text"
.Ltext0:
	.section	.text._ZN14idFixedWinding5ClearEv,"axG",@progbits,_ZN14idFixedWinding5ClearEv,comdat
	.align 2
	.weak	_ZN14idFixedWinding5ClearEv
	.type	_ZN14idFixedWinding5ClearEv, @function
_ZN14idFixedWinding5ClearEv:
.LFB1502:
	.file 1 "d:/Data/Nintendo/DoomGX/src/renderer/../idlib/../idlib/geometry/Winding.h"
	.loc 1 398 0
	.cfi_startproc
.LVL0:
	.loc 1 399 0
	li 0,0
	.loc 1 400 0
	.loc 1 399 0
	stw 0,4(3)
	.loc 1 400 0
	blr
	.cfi_endproc
.LFE1502:
	.size	_ZN14idFixedWinding5ClearEv, .-_ZN14idFixedWinding5ClearEv
	.section	".text"
	.align 2
	.type	_ZL9IndexSortPKvS0_, @function
_ZL9IndexSortPKvS0_:
.LFB2604:
	.file 2 "d:/Data/Nintendo/DoomGX/src/renderer/tr_trisurf.cpp"
	.loc 2 1469 0
	.cfi_startproc
.LVL1:
	.loc 2 1470 0
	lwz 0,0(3)
	.loc 2 1471 0
	li 3,-1
.LVL2:
	.loc 2 1470 0
	lwz 9,0(4)
	cmpw 7,0,9
	bltlr- 7
	.loc 2 1471 0
	mfcr 3
	rlwinm 3,3,30,1
	.loc 2 1477 0
	blr
	.cfi_endproc
.LFE2604:
	.size	_ZL9IndexSortPKvS0_, .-_ZL9IndexSortPKvS0_
	.section	.text._ZN9idWinding5ClearEv,"axG",@progbits,_ZN9idWinding5ClearEv,comdat
	.align 2
	.weak	_ZN9idWinding5ClearEv
	.type	_ZN9idWinding5ClearEv, @function
_ZN9idWinding5ClearEv:
.LFB1473:
	.loc 1 249 0
	.cfi_startproc
.LVL3:
	mflr 0
	stwu 1,-16(1)
.LCFI0:
	.cfi_def_cfa_offset 16
	.cfi_register 65, 0
	stw 31,12(1)
	mr 31,3
	.cfi_offset 31, -4
	stw 0,20(1)
	.loc 1 250 0
	li 0,0
	.cfi_offset 65, 4
	.loc 1 251 0
	lwz 3,8(3)
.LVL4:
	.loc 1 250 0
	stw 0,4(31)
	.loc 1 251 0
	cmpwi 7,3,0
	beq- 7,.L7
	.loc 1 251 0 is_stmt 0 discriminator 1
	bl _ZdaPv
.L7:
	.loc 1 252 0 is_stmt 1
	li 0,0
	stw 0,8(31)
	.loc 1 253 0
	lwz 0,20(1)
	lwz 31,12(1)
.LVL5:
	mtlr 0
	addi 1,1,16
.LCFI1:
	.cfi_def_cfa_offset 0
	.cfi_restore 31
	blr
	.cfi_endproc
.LFE1473:
	.size	_ZN9idWinding5ClearEv, .-_ZN9idWinding5ClearEv
	.section	.text._ZN9idWindingD2Ev,"axG",@progbits,_ZN9idWindingD5Ev,comdat
	.align 2
	.weak	_ZN9idWindingD2Ev
	.type	_ZN9idWindingD2Ev, @function
_ZN9idWindingD2Ev:
.LFB1461:
	.loc 1 183 0
	.cfi_startproc
.LVL6:
	mflr 0
	stwu 1,-16(1)
.LCFI2:
	.cfi_def_cfa_offset 16
	.cfi_register 65, 0
.LBB2971:
	lis 9,_ZTV9idWinding+8@ha
.LBE2971:
	stw 31,12(1)
	mr 31,3
	.cfi_offset 31, -4
	stw 0,20(1)
.LBB2972:
	.loc 1 183 0
	la 0,_ZTV9idWinding+8@l(9)
	.cfi_offset 65, 4
	.loc 1 184 0
	lwz 3,8(3)
.LVL7:
	.loc 1 183 0
	stw 0,0(31)
	.loc 1 184 0
	cmpwi 7,3,0
	beq- 7,.L9
	.loc 1 184 0 is_stmt 0 discriminator 1
	bl _ZdaPv
.L9:
	.loc 1 185 0 is_stmt 1
	li 0,0
	stw 0,8(31)
.LBE2972:
	.loc 1 186 0
	lwz 0,20(1)
	lwz 31,12(1)
.LVL8:
	mtlr 0
	addi 1,1,16
.LCFI3:
	.cfi_def_cfa_offset 0
	.cfi_restore 31
	blr
	.cfi_endproc
.LFE1461:
	.size	_ZN9idWindingD2Ev, .-_ZN9idWindingD2Ev
	.section	".text"
	.align 2
	.type	_ZL12R_DefineEdgeiii, @function
_ZL12R_DefineEdgeiii:
.LFB2595:
	.loc 2 936 0
	.cfi_startproc
.LVL9:
.LBB2983:
	.loc 2 940 0
	cmpw 7,3,4
.LBE2983:
	.loc 2 936 0
	mflr 0
	stwu 1,-32(1)
.LCFI4:
	.cfi_def_cfa_offset 32
	.cfi_register 65, 0
	stw 26,8(1)
	mr 26,5
	.cfi_offset 26, -24
	stw 29,20(1)
	mr 29,4
	.cfi_offset 29, -12
	stw 31,28(1)
	mr 31,3
	.cfi_offset 31, -4
	stw 0,36(1)
	stw 27,12(1)
	stw 28,16(1)
	stw 30,24(1)
.LBB3008:
	.loc 2 940 0
	beq- 7,.L11
	.cfi_offset 30, -8
	.cfi_offset 28, -16
	.cfi_offset 27, -20
	.cfi_offset 65, 4
	.loc 2 943 0
	lis 30,.LANCHOR0@ha
.LBB2984:
.LBB2985:
	.file 3 "d:/Data/Nintendo/DoomGX/src/renderer/../idlib/../idlib/containers/HashIndex.h"
	.loc 3 402 0
	add 27,3,4
.LBE2985:
.LBE2984:
	.loc 2 943 0
	la 30,.LANCHOR0@l(30)
	lwz 0,20(30)
.LVL10:
.LBB2987:
.LBB2988:
	.loc 3 239 0
	lwz 8,24(30)
.LBE2988:
.LBE2987:
.LBB2990:
.LBB2986:
	.loc 3 402 0
	and 27,27,0
.LVL11:
.LBE2986:
.LBE2990:
.LBB2991:
.LBB2989:
	.loc 3 239 0
	lwz 9,4(30)
	and 0,0,8
	and 0,0,27
	slwi 0,0,2
	lwzx 0,9,0
.LVL12:
.LBE2989:
.LBE2991:
	.loc 2 945 0
	cmplwi 7,0,65535
	bgt- 7,.L13
	.loc 2 946 0
	lwz 7,28(30)
	.loc 2 952 0
	lwz 3,32(30)
.LVL13:
	.loc 2 945 0
	lwz 6,12(30)
	lwz 5,36(30)
.LVL14:
	lwz 4,40(30)
.LVL15:
	b .L18
.L15:
	.loc 2 951 0
	cmpw 7,31,10
	beq- 7,.L25
.L16:
.LVL16:
.LBB2992:
.LBB2993:
	.loc 3 249 0
	and 0,0,8
.LVL17:
	slwi 0,0,2
	lwzx 0,6,0
.LVL18:
.LBE2993:
.LBE2992:
	.loc 2 945 0
	cmplwi 7,0,65535
	bgt- 7,.L26
.L18:
	.loc 2 946 0
	slwi 9,0,4
	add 9,7,9
	lwz 11,8(9)
	lwz 10,12(9)
	cmpw 7,11,31
	bne+ 7,.L15
	.loc 2 946 0 is_stmt 0 discriminator 1
	cmpw 7,10,29
	bne+ 7,.L15
.LBB2996:
.LBB2994:
	.loc 3 249 0 is_stmt 1
	and 0,0,8
.LVL19:
.LBE2994:
.LBE2996:
	.loc 2 947 0
	addi 5,5,1
.LBB2997:
.LBB2995:
	.loc 3 249 0
	slwi 0,0,2
	lwzx 0,6,0
.LVL20:
.LBE2995:
.LBE2997:
	.loc 2 945 0
	cmplwi 7,0,65535
	ble+ 7,.L18
.L26:
	stw 5,36(30)
	stw 4,40(30)
.L13:
	.loc 2 965 0
	lwz 28,44(30)
	lis 0,0x1
.LVL21:
	cmpw 7,28,0
	beq- 7,.L27
.LVL22:
.LBB2998:
.LBB2999:
	.loc 3 197 0
	lwz 9,4(30)
	lis 11,_ZN11idHashIndex13INVALID_INDEXE@ha
	la 0,_ZN11idHashIndex13INVALID_INDEXE@l(11)
	cmpw 7,9,0
	beq- 7,.L28
	.loc 3 200 0
	lwz 0,8(30)
	mr 11,28
	cmpw 7,28,0
	blt+ 7,.L22
	.loc 3 201 0
	mr 3,30
	addi 4,28,1
	bl _ZN11idHashIndex11ResizeIndexEi
.LVL23:
	lwz 11,44(30)
	lwz 9,4(30)
.L22:
.LVL24:
	.loc 3 203 0
	lwz 0,20(30)
	.loc 3 204 0
	lwz 10,12(30)
	.loc 3 203 0
	and 27,27,0
.LVL25:
	.loc 3 204 0
	slwi 0,28,2
	slwi 27,27,2
.LVL26:
.LBE2999:
.LBE2998:
	.loc 2 973 0
	lwz 8,32(30)
.LBB3004:
.LBB3000:
	.loc 3 204 0
	lwzx 9,9,27
	stwx 9,10,0
.LBE3000:
.LBE3004:
	.loc 2 972 0
	slwi 0,11,4
	lwz 10,28(30)
	.loc 2 977 0
	addi 11,11,1
.LBB3005:
.LBB3001:
	.loc 3 205 0
	lwz 7,4(30)
.LBE3001:
.LBE3005:
	.loc 2 972 0
	add 9,10,0
	.loc 2 977 0
	stw 11,44(30)
.LBB3006:
.LBB3002:
	.loc 3 205 0
	stwx 28,7,27
.LBE3002:
.LBE3006:
	.loc 2 972 0
	stwx 26,10,0
	.loc 2 973 0
	stw 8,4(9)
	.loc 2 974 0
	stw 31,8(9)
	.loc 2 975 0
	stw 29,12(9)
.LVL27:
.L11:
.LBE3008:
	.loc 2 978 0
	lwz 0,36(1)
	lwz 26,8(1)
.LVL28:
	mtlr 0
	lwz 27,12(1)
	lwz 28,16(1)
	lwz 29,20(1)
.LVL29:
	lwz 30,24(1)
	lwz 31,28(1)
.LVL30:
	addi 1,1,32
	.cfi_remember_state
.LCFI5:
	.cfi_def_cfa_offset 0
	.cfi_restore 31
	.cfi_restore 30
	.cfi_restore 29
	.cfi_restore 28
	.cfi_restore 27
	.cfi_restore 26
	blr
.LVL31:
.L25:
.LCFI6:
	.cfi_restore_state
.LBB3009:
	.loc 2 951 0 discriminator 1
	cmpw 7,29,11
	bne+ 7,.L16
	.loc 2 952 0
	lwz 11,4(9)
	cmpw 7,11,3
	beq- 7,.L17
	.loc 2 953 0
	addi 4,4,1
	.loc 2 955 0
	b .L16
.LVL32:
.L27:
	.loc 2 966 0
	lis 9,common@ha
	lis 4,.LC0@ha
	lwz 3,common@l(9)
	la 4,.LC0@l(4)
	lwz 9,0(3)
	lwz 0,84(9)
	mtctr 0
	crxor 6,6,6
	bctrl
.LBE3009:
	.loc 2 978 0
	lwz 0,36(1)
	lwz 26,8(1)
.LVL33:
	mtlr 0
	lwz 27,12(1)
.LVL34:
	lwz 28,16(1)
	lwz 29,20(1)
.LVL35:
	lwz 30,24(1)
	lwz 31,28(1)
.LVL36:
	addi 1,1,32
	.cfi_remember_state
	.cfi_restore 26
	.cfi_restore 27
	.cfi_restore 28
	.cfi_restore 29
	.cfi_restore 30
	.cfi_restore 31
.LCFI7:
	.cfi_def_cfa_offset 0
	blr
.LVL37:
.L17:
.LCFI8:
	.cfi_restore_state
.LBB3010:
	.loc 2 958 0
	stw 26,4(9)
	.loc 2 955 0
	stw 5,36(30)
.LBE3010:
	.loc 2 978 0
	lwz 0,36(1)
.LVL38:
	lwz 26,8(1)
.LVL39:
	mtlr 0
	lwz 27,12(1)
.LVL40:
	lwz 28,16(1)
	lwz 29,20(1)
.LVL41:
	lwz 31,28(1)
.LVL42:
.LBB3011:
	.loc 2 955 0
	stw 4,40(30)
.LBE3011:
	.loc 2 978 0
	lwz 30,24(1)
	addi 1,1,32
	.cfi_remember_state
	.cfi_restore 26
	.cfi_restore 27
	.cfi_restore 28
	.cfi_restore 29
	.cfi_restore 30
	.cfi_restore 31
.LCFI9:
	.cfi_def_cfa_offset 0
	blr
.LVL43:
.L28:
.LCFI10:
	.cfi_restore_state
.LBB3012:
.LBB3007:
.LBB3003:
	.loc 3 198 0
	lwz 5,8(30)
	lis 9,.LANCHOR0@ha
	lwz 4,.LANCHOR0@l(9)
	cmpw 7,28,5
	blt- 7,.L21
	addi 5,28,1
.L21:
	mr 3,30
	bl _ZN11idHashIndex8AllocateEii
	lwz 11,44(30)
	lwz 9,4(30)
	b .L22
.LBE3003:
.LBE3007:
.LBE3012:
	.cfi_endproc
.LFE2595:
	.size	_ZL12R_DefineEdgeiii, .-_ZL12R_DefineEdgeiii
	.align 2
	.type	_ZL11SilEdgeSortPKvS0_, @function
_ZL11SilEdgeSortPKvS0_:
.LFB2596:
	.loc 2 985 0
	.cfi_startproc
.LVL44:
	.loc 2 986 0
	lwz 11,0(3)
	.loc 2 985 0
	mr 9,3
	.loc 2 986 0
	lwz 0,0(4)
	.loc 2 987 0
	li 3,-1
.LVL45:
	.loc 2 986 0
	cmpw 7,11,0
	bltlr- 7
	.loc 2 989 0
	bgt- 7,.L33
.LVL46:
.LBB3015:
.LBB3016:
	.loc 2 992 0
	lwz 9,4(9)
.LVL47:
	lwz 0,4(4)
	cmpw 7,9,0
	bltlr- 7
	.loc 2 993 0
	mfcr 3
	rlwinm 3,3,30,1
	blr
.LVL48:
.L33:
.LBE3016:
.LBE3015:
	.loc 2 990 0
	li 3,1
	.loc 2 999 0
	blr
	.cfi_endproc
.LFE2596:
	.size	_ZL11SilEdgeSortPKvS0_, .-_ZL11SilEdgeSortPKvS0_
	.align 2
	.type	_ZL22R_FaceNegativePolarityPK14srfTriangles_si.isra.1, @function
_ZL22R_FaceNegativePolarityPK14srfTriangles_si.isra.1:
.LFB3220:
	.loc 2 1135 0
	.cfi_startproc
.LVL49:
.LBB3017:
	.loc 2 1141 0
	addi 9,5,1
	.loc 2 1142 0
	addi 0,5,2
	.loc 2 1141 0
	slwi 9,9,2
	.loc 2 1140 0
	slwi 5,5,2
.LVL50:
	.loc 2 1142 0
	slwi 0,0,2
.LVL51:
	.loc 2 1140 0
	lwzx 11,4,5
	.loc 2 1141 0
	lwzx 9,4,9
	.loc 2 1142 0
	lwzx 0,4,0
	.loc 2 1140 0
	mulli 11,11,60
	.loc 2 1141 0
	mulli 9,9,60
	.loc 2 1142 0
	mulli 0,0,60
	.loc 2 1140 0
	add 11,3,11
.LVL52:
	.loc 2 1141 0
	add 9,3,9
.LVL53:
	.loc 2 1144 0
	lfs 13,12(11)
	.loc 2 1142 0
	add 3,3,0
.LVL54:
	.loc 2 1145 0
	lfs 0,16(11)
.LVL55:
	lfs 9,16(9)
	.loc 2 1147 0
	lfs 12,12(3)
	.loc 2 1145 0
	fsubs 9,9,0
	.loc 2 1144 0
	lfs 10,12(9)
	.loc 2 1147 0
	fsubs 12,12,13
	.loc 2 1148 0
	lfs 11,16(3)
	.loc 2 1144 0
	fsubs 13,10,13
	.loc 2 1151 0
	lis 9,.LC1@ha
.LVL56:
	.loc 2 1148 0
	fsubs 0,11,0
.LBE3017:
	.loc 2 1155 0
.LBB3018:
	.loc 2 1150 0
	fmuls 12,9,12
	fmsubs 0,13,0,12
.LVL57:
	.loc 2 1151 0
	lfs 12,.LC1@l(9)
	fcmpu 7,0,12
	cror 30,29,30
	mfcr 3
	rlwinm 3,3,31,1
.LVL58:
.LBE3018:
	.loc 2 1155 0
	xori 3,3,1
	blr
	.cfi_endproc
.LFE3220:
	.size	_ZL22R_FaceNegativePolarityPK14srfTriangles_si.isra.1, .-_ZL22R_FaceNegativePolarityPK14srfTriangles_si.isra.1
	.section	.text._ZN14idFixedWindingD0Ev,"axG",@progbits,_ZN14idFixedWindingD5Ev,comdat
	.align 2
	.weak	_ZN14idFixedWindingD0Ev
	.type	_ZN14idFixedWindingD0Ev, @function
_ZN14idFixedWindingD0Ev:
.LFB1500:
	.loc 1 380 0
	.cfi_startproc
.LVL59:
	mflr 0
	stwu 1,-8(1)
.LCFI11:
	.cfi_def_cfa_offset 8
	.cfi_register 65, 0
.LBB3025:
.LBB3026:
.LBB3027:
.LBB3028:
.LBB3029:
.LBB3030:
	.loc 1 183 0
	lis 11,_ZTV9idWinding+8@ha
.LBE3030:
.LBE3029:
.LBE3028:
.LBE3027:
.LBE3026:
.LBE3025:
	.loc 1 380 0
	stw 0,12(1)
.LBB3036:
.LBB3035:
.LBB3034:
	.loc 1 381 0
	li 0,0
	.cfi_offset 65, 4
	stw 0,8(3)
.LVL60:
.LBB3033:
.LBB3032:
.LBB3031:
	.loc 1 183 0
	la 0,_ZTV9idWinding+8@l(11)
	stw 0,0(3)
.LBE3031:
.LBE3032:
.LBE3033:
.LBE3034:
.LBE3035:
.LBE3036:
	.loc 1 382 0
	bl _ZdlPv
.LVL61:
	lwz 0,12(1)
	addi 1,1,8
.LCFI12:
	.cfi_def_cfa_offset 0
	mtlr 0
	blr
	.cfi_endproc
.LFE1500:
	.size	_ZN14idFixedWindingD0Ev, .-_ZN14idFixedWindingD0Ev
	.section	.text._ZN9idWindingD0Ev,"axG",@progbits,_ZN9idWindingD5Ev,comdat
	.align 2
	.weak	_ZN9idWindingD0Ev
	.type	_ZN9idWindingD0Ev, @function
_ZN9idWindingD0Ev:
.LFB1463:
	.loc 1 183 0
	.cfi_startproc
.LVL62:
	mflr 0
	stwu 1,-16(1)
.LCFI13:
	.cfi_def_cfa_offset 16
	.cfi_register 65, 0
.LBB3040:
.LBB3041:
.LBB3042:
	lis 9,_ZTV9idWinding+8@ha
.LBE3042:
.LBE3041:
.LBE3040:
	stw 31,12(1)
	mr 31,3
	.cfi_offset 31, -4
.LVL63:
	stw 0,20(1)
.LBB3047:
.LBB3045:
.LBB3043:
	.loc 1 183 0
	la 0,_ZTV9idWinding+8@l(9)
	.cfi_offset 65, 4
	.loc 1 184 0
	lwz 3,8(3)
.LVL64:
	.loc 1 183 0
	stw 0,0(31)
	.loc 1 184 0
	cmpwi 7,3,0
	beq- 7,.L41
	bl _ZdaPv
.LVL65:
.L41:
	.loc 1 185 0
	li 0,0
.LBE3043:
.LBE3045:
.LBE3047:
	.loc 1 186 0
	mr 3,31
.LBB3048:
.LBB3046:
.LBB3044:
	.loc 1 185 0
	stw 0,8(31)
.LBE3044:
.LBE3046:
.LBE3048:
	.loc 1 186 0
	bl _ZdlPv
	lwz 0,20(1)
	lwz 31,12(1)
.LVL66:
	mtlr 0
	addi 1,1,16
.LCFI14:
	.cfi_def_cfa_offset 0
	.cfi_restore 31
	blr
	.cfi_endproc
.LFE1463:
	.size	_ZN9idWindingD0Ev, .-_ZN9idWindingD0Ev
	.section	.text._ZN14idFixedWindingD2Ev,"axG",@progbits,_ZN14idFixedWindingD5Ev,comdat
	.align 2
	.weak	_ZN14idFixedWindingD2Ev
	.type	_ZN14idFixedWindingD2Ev, @function
_ZN14idFixedWindingD2Ev:
.LFB1498:
	.loc 1 380 0
	.cfi_startproc
.LVL67:
.LBB3053:
	.loc 1 381 0
	li 0,0
.LBB3054:
.LBB3055:
.LBB3056:
	.loc 1 183 0
	lis 9,_ZTV9idWinding+8@ha
.LBE3056:
.LBE3055:
.LBE3054:
	.loc 1 381 0
	stw 0,8(3)
.LVL68:
.LBB3059:
.LBB3058:
.LBB3057:
	.loc 1 183 0
	la 0,_ZTV9idWinding+8@l(9)
	stw 0,0(3)
.LBE3057:
.LBE3058:
.LBE3059:
.LBE3053:
	.loc 1 382 0
	blr
	.cfi_endproc
.LFE1498:
	.size	_ZN14idFixedWindingD2Ev, .-_ZN14idFixedWindingD2Ev
	.section	".text"
	.align 2
	.globl _Z17R_InitTriSurfDatav
	.type	_Z17R_InitTriSurfDatav, @function
_Z17R_InitTriSurfDatav:
.LFB2566:
	.loc 2 157 0
	.cfi_startproc
	stwu 1,-16(1)
.LCFI15:
	.cfi_def_cfa_offset 16
	mflr 0
	.loc 2 158 0
	lis 3,0x10
	.loc 2 157 0
	stw 30,8(1)
	.loc 2 158 0
	lis 30,.LANCHOR0@ha
	.cfi_offset 30, -8
	.cfi_register 65, 0
	la 30,.LANCHOR0@l(30)
	.loc 2 157 0
	stw 0,20(1)
	stw 31,12(1)
	.loc 2 158 0
	.cfi_offset 31, -4
	.cfi_offset 65, 4
	bl _Z13R_StaticAlloci
.LBB3150:
.LBB3151:
.LBB3152:
.LBB3153:
.LBB3154:
.LBB3155:
.LBB3156:
	.file 4 "d:/Data/Nintendo/DoomGX/src/renderer/../idlib/../idlib/Heap.h"
	.loc 4 215 0
	lwz 9,72(30)
.LBE3156:
.LBE3155:
	.file 5 "d:/Data/Nintendo/DoomGX/src/renderer/../idlib/../idlib/containers/BTree.h"
	.loc 5 377 0
	li 31,0
.LBE3154:
.LBE3153:
.LBE3152:
.LBE3151:
.LBE3150:
	.loc 2 158 0
	stw 3,28(30)
.LVL69:
.LBB3171:
.LBB3168:
.LBB3165:
.LBB3162:
.LBB3159:
.LBB3158:
.LBB3157:
	.loc 4 216 0
	li 3,36
	.loc 4 215 0
	addi 0,9,1
	stw 0,72(30)
	.loc 4 216 0
	bl _Znwj
.LVL70:
.LBE3157:
.LBE3158:
	.loc 5 377 0
	stw 31,4(3)
.LBE3159:
.LBE3162:
	.loc 5 104 0
	addi 9,3,4
.LBB3163:
.LBB3160:
	.loc 5 384 0
	stw 31,8(3)
	.loc 5 378 0
	stw 31,12(3)
	.loc 5 379 0
	stw 31,16(3)
	.loc 5 380 0
	stw 31,20(3)
	.loc 5 381 0
	stw 31,24(3)
	.loc 5 382 0
	stw 31,28(3)
.LBE3160:
.LBE3163:
.LBE3165:
.LBE3168:
.LBE3171:
.LBB3172:
.LBB3173:
.LBB3174:
.LBB3175:
.LBB3176:
.LBB3177:
.LBB3178:
	.loc 4 215 0
	lwz 11,140(30)
.LBE3178:
.LBE3177:
.LBE3176:
.LBE3175:
.LBE3174:
.LBE3173:
.LBE3172:
.LBB3199:
.LBB3169:
.LBB3166:
.LBB3164:
.LBB3161:
	.loc 5 383 0
	stw 31,32(3)
.LBE3161:
.LBE3164:
.LBE3166:
.LBE3169:
.LBE3199:
.LBB3200:
.LBB3195:
.LBB3191:
.LBB3187:
.LBB3183:
.LBB3181:
.LBB3179:
	.loc 4 216 0
	li 3,36
.LVL71:
	.loc 4 215 0
	addi 0,11,1
.LBE3179:
.LBE3181:
.LBE3183:
.LBE3187:
.LBE3191:
.LBE3195:
.LBE3200:
.LBB3201:
.LBB3170:
.LBB3167:
	.loc 5 104 0
	stw 9,56(30)
.LVL72:
.LBE3167:
.LBE3170:
.LBE3201:
.LBB3202:
.LBB3196:
.LBB3192:
.LBB3188:
.LBB3184:
.LBB3182:
.LBB3180:
	.loc 4 215 0
	stw 0,140(30)
	.loc 4 216 0
	bl _Znwj
.LVL73:
.LBE3180:
.LBE3182:
	.loc 5 377 0
	stw 31,4(3)
.LBE3184:
.LBE3188:
	.loc 5 104 0
	addi 9,3,4
.LBB3189:
.LBB3185:
	.loc 5 384 0
	stw 31,8(3)
	.loc 5 378 0
	stw 31,12(3)
	.loc 5 379 0
	stw 31,16(3)
	.loc 5 380 0
	stw 31,20(3)
	.loc 5 381 0
	stw 31,24(3)
	.loc 5 382 0
	stw 31,28(3)
.LBE3185:
.LBE3189:
.LBE3192:
.LBE3196:
.LBE3202:
.LBB3203:
.LBB3204:
.LBB3205:
.LBB3206:
.LBB3207:
.LBB3208:
.LBB3209:
	.loc 4 215 0
	lwz 11,208(30)
.LBE3209:
.LBE3208:
.LBE3207:
.LBE3206:
.LBE3205:
.LBE3204:
.LBE3203:
.LBB3230:
.LBB3197:
.LBB3193:
.LBB3190:
.LBB3186:
	.loc 5 383 0
	stw 31,32(3)
.LBE3186:
.LBE3190:
.LBE3193:
.LBE3197:
.LBE3230:
.LBB3231:
.LBB3226:
.LBB3222:
.LBB3218:
.LBB3214:
.LBB3212:
.LBB3210:
	.loc 4 216 0
	li 3,36
.LVL74:
	.loc 4 215 0
	addi 0,11,1
.LBE3210:
.LBE3212:
.LBE3214:
.LBE3218:
.LBE3222:
.LBE3226:
.LBE3231:
.LBB3232:
.LBB3198:
.LBB3194:
	.loc 5 104 0
	stw 9,124(30)
.LVL75:
.LBE3194:
.LBE3198:
.LBE3232:
.LBB3233:
.LBB3227:
.LBB3223:
.LBB3219:
.LBB3215:
.LBB3213:
.LBB3211:
	.loc 4 215 0
	stw 0,208(30)
	.loc 4 216 0
	bl _Znwj
.LVL76:
.LBE3211:
.LBE3213:
	.loc 5 377 0
	stw 31,4(3)
.LBE3215:
.LBE3219:
	.loc 5 104 0
	addi 9,3,4
.LBB3220:
.LBB3216:
	.loc 5 384 0
	stw 31,8(3)
	.loc 5 378 0
	stw 31,12(3)
	.loc 5 379 0
	stw 31,16(3)
	.loc 5 380 0
	stw 31,20(3)
	.loc 5 381 0
	stw 31,24(3)
	.loc 5 382 0
	stw 31,28(3)
.LBE3216:
.LBE3220:
.LBE3223:
.LBE3227:
.LBE3233:
.LBB3234:
.LBB3235:
.LBB3236:
.LBB3237:
.LBB3238:
.LBB3239:
.LBB3240:
	.loc 4 215 0
	lwz 11,276(30)
.LBE3240:
.LBE3239:
.LBE3238:
.LBE3237:
.LBE3236:
.LBE3235:
.LBE3234:
.LBB3261:
.LBB3228:
.LBB3224:
.LBB3221:
.LBB3217:
	.loc 5 383 0
	stw 31,32(3)
.LBE3217:
.LBE3221:
.LBE3224:
.LBE3228:
.LBE3261:
.LBB3262:
.LBB3257:
.LBB3253:
.LBB3249:
.LBB3245:
.LBB3243:
.LBB3241:
	.loc 4 216 0
	li 3,36
.LVL77:
	.loc 4 215 0
	addi 0,11,1
.LBE3241:
.LBE3243:
.LBE3245:
.LBE3249:
.LBE3253:
.LBE3257:
.LBE3262:
.LBB3263:
.LBB3229:
.LBB3225:
	.loc 5 104 0
	stw 9,192(30)
.LVL78:
.LBE3225:
.LBE3229:
.LBE3263:
.LBB3264:
.LBB3258:
.LBB3254:
.LBB3250:
.LBB3246:
.LBB3244:
.LBB3242:
	.loc 4 215 0
	stw 0,276(30)
	.loc 4 216 0
	bl _Znwj
.LVL79:
.LBE3242:
.LBE3244:
	.loc 5 377 0
	stw 31,4(3)
.LBE3246:
.LBE3250:
	.loc 5 104 0
	addi 9,3,4
.LBB3251:
.LBB3247:
	.loc 5 384 0
	stw 31,8(3)
	.loc 5 378 0
	stw 31,12(3)
	.loc 5 379 0
	stw 31,16(3)
	.loc 5 380 0
	stw 31,20(3)
	.loc 5 381 0
	stw 31,24(3)
	.loc 5 382 0
	stw 31,28(3)
.LBE3247:
.LBE3251:
.LBE3254:
.LBE3258:
.LBE3264:
.LBB3265:
.LBB3266:
.LBB3267:
.LBB3268:
.LBB3269:
.LBB3270:
.LBB3271:
	.loc 4 215 0
	lwz 11,344(30)
.LBE3271:
.LBE3270:
.LBE3269:
.LBE3268:
.LBE3267:
.LBE3266:
.LBE3265:
.LBB3292:
.LBB3259:
.LBB3255:
.LBB3252:
.LBB3248:
	.loc 5 383 0
	stw 31,32(3)
.LBE3248:
.LBE3252:
.LBE3255:
.LBE3259:
.LBE3292:
.LBB3293:
.LBB3288:
.LBB3284:
.LBB3280:
.LBB3276:
.LBB3274:
.LBB3272:
	.loc 4 216 0
	li 3,36
.LVL80:
	.loc 4 215 0
	addi 0,11,1
.LBE3272:
.LBE3274:
.LBE3276:
.LBE3280:
.LBE3284:
.LBE3288:
.LBE3293:
.LBB3294:
.LBB3260:
.LBB3256:
	.loc 5 104 0
	stw 9,260(30)
.LVL81:
.LBE3256:
.LBE3260:
.LBE3294:
.LBB3295:
.LBB3289:
.LBB3285:
.LBB3281:
.LBB3277:
.LBB3275:
.LBB3273:
	.loc 4 215 0
	stw 0,344(30)
	.loc 4 216 0
	bl _Znwj
.LVL82:
.LBE3273:
.LBE3275:
	.loc 5 377 0
	stw 31,4(3)
.LBE3277:
.LBE3281:
	.loc 5 104 0
	addi 9,3,4
.LBB3282:
.LBB3278:
	.loc 5 384 0
	stw 31,8(3)
	.loc 5 378 0
	stw 31,12(3)
	.loc 5 379 0
	stw 31,16(3)
	.loc 5 380 0
	stw 31,20(3)
	.loc 5 381 0
	stw 31,24(3)
	.loc 5 382 0
	stw 31,28(3)
.LBE3278:
.LBE3282:
.LBE3285:
.LBE3289:
.LBE3295:
.LBB3296:
.LBB3297:
.LBB3298:
.LBB3299:
.LBB3300:
.LBB3301:
.LBB3302:
	.loc 4 215 0
	lwz 11,412(30)
.LBE3302:
.LBE3301:
.LBE3300:
.LBE3299:
.LBE3298:
.LBE3297:
.LBE3296:
.LBB3323:
.LBB3290:
.LBB3286:
.LBB3283:
.LBB3279:
	.loc 5 383 0
	stw 31,32(3)
.LBE3279:
.LBE3283:
.LBE3286:
.LBE3290:
.LBE3323:
.LBB3324:
.LBB3319:
.LBB3315:
.LBB3311:
.LBB3307:
.LBB3305:
.LBB3303:
	.loc 4 216 0
	li 3,36
.LVL83:
	.loc 4 215 0
	addi 0,11,1
.LBE3303:
.LBE3305:
.LBE3307:
.LBE3311:
.LBE3315:
.LBE3319:
.LBE3324:
.LBB3325:
.LBB3291:
.LBB3287:
	.loc 5 104 0
	stw 9,328(30)
.LVL84:
.LBE3287:
.LBE3291:
.LBE3325:
.LBB3326:
.LBB3320:
.LBB3316:
.LBB3312:
.LBB3308:
.LBB3306:
.LBB3304:
	.loc 4 215 0
	stw 0,412(30)
	.loc 4 216 0
	bl _Znwj
.LVL85:
.LBE3304:
.LBE3306:
	.loc 5 377 0
	stw 31,4(3)
.LBE3308:
.LBE3312:
	.loc 5 104 0
	addi 9,3,4
.LBB3313:
.LBB3309:
	.loc 5 384 0
	stw 31,8(3)
	.loc 5 378 0
	stw 31,12(3)
	.loc 5 379 0
	stw 31,16(3)
	.loc 5 380 0
	stw 31,20(3)
	.loc 5 381 0
	stw 31,24(3)
	.loc 5 382 0
	stw 31,28(3)
.LBE3309:
.LBE3313:
.LBE3316:
.LBE3320:
.LBE3326:
.LBB3327:
.LBB3328:
.LBB3329:
.LBB3330:
.LBB3331:
.LBB3332:
.LBB3333:
	.loc 4 215 0
	lwz 11,480(30)
.LBE3333:
.LBE3332:
.LBE3331:
.LBE3330:
.LBE3329:
.LBE3328:
.LBE3327:
.LBB3354:
.LBB3321:
.LBB3317:
.LBB3314:
.LBB3310:
	.loc 5 383 0
	stw 31,32(3)
.LBE3310:
.LBE3314:
.LBE3317:
.LBE3321:
.LBE3354:
.LBB3355:
.LBB3350:
.LBB3346:
.LBB3342:
.LBB3338:
.LBB3336:
.LBB3334:
	.loc 4 216 0
	li 3,36
.LVL86:
	.loc 4 215 0
	addi 0,11,1
.LBE3334:
.LBE3336:
.LBE3338:
.LBE3342:
.LBE3346:
.LBE3350:
.LBE3355:
.LBB3356:
.LBB3322:
.LBB3318:
	.loc 5 104 0
	stw 9,396(30)
.LVL87:
.LBE3318:
.LBE3322:
.LBE3356:
.LBB3357:
.LBB3351:
.LBB3347:
.LBB3343:
.LBB3339:
.LBB3337:
.LBB3335:
	.loc 4 215 0
	stw 0,480(30)
	.loc 4 216 0
	bl _Znwj
.LVL88:
.LBE3335:
.LBE3337:
	.loc 5 377 0
	stw 31,4(3)
.LBE3339:
.LBE3343:
	.loc 5 104 0
	addi 9,3,4
.LBB3344:
.LBB3340:
	.loc 5 384 0
	stw 31,8(3)
	.loc 5 378 0
	stw 31,12(3)
	.loc 5 379 0
	stw 31,16(3)
	.loc 5 380 0
	stw 31,20(3)
	.loc 5 381 0
	stw 31,24(3)
	.loc 5 382 0
	stw 31,28(3)
.LBE3340:
.LBE3344:
.LBE3347:
.LBE3351:
.LBE3357:
.LBB3358:
.LBB3359:
.LBB3360:
.LBB3361:
.LBB3362:
.LBB3363:
.LBB3364:
	.loc 4 215 0
	lwz 11,548(30)
.LBE3364:
.LBE3363:
.LBE3362:
.LBE3361:
.LBE3360:
.LBE3359:
.LBE3358:
.LBB3385:
.LBB3352:
.LBB3348:
.LBB3345:
.LBB3341:
	.loc 5 383 0
	stw 31,32(3)
.LBE3341:
.LBE3345:
.LBE3348:
.LBE3352:
.LBE3385:
.LBB3386:
.LBB3381:
.LBB3377:
.LBB3373:
.LBB3369:
.LBB3367:
.LBB3365:
	.loc 4 216 0
	li 3,36
.LVL89:
	.loc 4 215 0
	addi 0,11,1
.LBE3365:
.LBE3367:
.LBE3369:
.LBE3373:
.LBE3377:
.LBE3381:
.LBE3386:
.LBB3387:
.LBB3353:
.LBB3349:
	.loc 5 104 0
	stw 9,464(30)
.LVL90:
.LBE3349:
.LBE3353:
.LBE3387:
.LBB3388:
.LBB3382:
.LBB3378:
.LBB3374:
.LBB3370:
.LBB3368:
.LBB3366:
	.loc 4 215 0
	stw 0,548(30)
	.loc 4 216 0
	bl _Znwj
.LVL91:
.LBE3366:
.LBE3368:
	.loc 5 377 0
	stw 31,4(3)
.LBE3370:
.LBE3374:
	.loc 5 104 0
	addi 9,3,4
.LBB3375:
.LBB3371:
	.loc 5 384 0
	stw 31,8(3)
	.loc 5 378 0
	stw 31,12(3)
	.loc 5 379 0
	stw 31,16(3)
	.loc 5 380 0
	stw 31,20(3)
	.loc 5 381 0
	stw 31,24(3)
	.loc 5 382 0
	stw 31,28(3)
.LBE3371:
.LBE3375:
.LBE3378:
.LBE3382:
.LBE3388:
.LBB3389:
.LBB3390:
.LBB3391:
.LBB3392:
.LBB3393:
.LBB3394:
.LBB3395:
	.loc 4 215 0
	lwz 11,616(30)
.LBE3395:
.LBE3394:
.LBE3393:
.LBE3392:
.LBE3391:
.LBE3390:
.LBE3389:
.LBB3416:
.LBB3383:
.LBB3379:
.LBB3376:
.LBB3372:
	.loc 5 383 0
	stw 31,32(3)
.LBE3372:
.LBE3376:
.LBE3379:
.LBE3383:
.LBE3416:
.LBB3417:
.LBB3412:
.LBB3408:
.LBB3404:
.LBB3400:
.LBB3398:
.LBB3396:
	.loc 4 216 0
	li 3,36
.LVL92:
	.loc 4 215 0
	addi 0,11,1
.LBE3396:
.LBE3398:
.LBE3400:
.LBE3404:
.LBE3408:
.LBE3412:
.LBE3417:
.LBB3418:
.LBB3384:
.LBB3380:
	.loc 5 104 0
	stw 9,532(30)
.LVL93:
.LBE3380:
.LBE3384:
.LBE3418:
.LBB3419:
.LBB3413:
.LBB3409:
.LBB3405:
.LBB3401:
.LBB3399:
.LBB3397:
	.loc 4 215 0
	stw 0,616(30)
	.loc 4 216 0
	bl _Znwj
.LVL94:
.LBE3397:
.LBE3399:
	.loc 5 377 0
	stw 31,4(3)
.LBE3401:
.LBE3405:
.LBE3409:
.LBE3413:
.LBE3419:
.LBB3420:
.LBB3421:
	.loc 4 532 0
	li 0,1
.LBE3421:
.LBE3420:
.LBB3423:
.LBB3414:
.LBB3410:
.LBB3406:
.LBB3402:
	.loc 5 384 0
	stw 31,8(3)
.LBE3402:
.LBE3406:
	.loc 5 104 0
	addi 9,3,4
.LBB3407:
.LBB3403:
	.loc 5 378 0
	stw 31,12(3)
	.loc 5 379 0
	stw 31,16(3)
	.loc 5 380 0
	stw 31,20(3)
	.loc 5 381 0
	stw 31,24(3)
	.loc 5 382 0
	stw 31,28(3)
	.loc 5 383 0
	stw 31,32(3)
.LBE3403:
.LBE3407:
.LBE3410:
.LBE3414:
.LBE3423:
.LBB3424:
.LBB3422:
	.loc 4 532 0
	stb 0,77(30)
.LBE3422:
.LBE3424:
.LBB3425:
.LBB3426:
	stb 0,145(30)
.LBE3426:
.LBE3425:
.LBB3427:
.LBB3428:
	stb 0,213(30)
.LBE3428:
.LBE3427:
.LBB3429:
.LBB3430:
	stb 0,281(30)
.LBE3430:
.LBE3429:
.LBB3431:
.LBB3432:
	stb 0,349(30)
.LBE3432:
.LBE3431:
.LBB3433:
.LBB3434:
	stb 0,417(30)
.LBE3434:
.LBE3433:
.LBB3435:
.LBB3436:
	stb 0,485(30)
.LBE3436:
.LBE3435:
.LBB3437:
.LBB3438:
	stb 0,553(30)
.LBE3438:
.LBE3437:
.LBB3439:
.LBB3440:
	stb 0,621(30)
.LBE3440:
.LBE3439:
	.loc 2 181 0
	lwz 0,20(1)
	lwz 31,12(1)
	mtlr 0
.LBB3441:
.LBB3415:
.LBB3411:
	.loc 5 104 0
	stw 9,600(30)
.LVL95:
.LBE3411:
.LBE3415:
.LBE3441:
	.loc 2 181 0
	lwz 30,8(1)
	addi 1,1,16
.LCFI16:
	.cfi_def_cfa_offset 0
	.cfi_restore 31
	.cfi_restore 30
	blr
	.cfi_endproc
.LFE2566:
	.size	_Z17R_InitTriSurfDatav, .-_Z17R_InitTriSurfDatav
	.align 2
	.globl _Z21R_ShowTriSurfMemory_fRK9idCmdArgs
	.type	_Z21R_ShowTriSurfMemory_fRK9idCmdArgs, @function
_Z21R_ShowTriSurfMemory_fRK9idCmdArgs:
.LFB2569:
	.loc 2 229 0
	.cfi_startproc
.LVL96:
	stwu 1,-56(1)
.LCFI17:
	.cfi_def_cfa_offset 56
	mflr 0
	.loc 2 232 0
	lis 4,.LC2@ha
	.loc 2 229 0
	stw 30,48(1)
	.loc 2 232 0
	lis 30,common@ha
	.cfi_offset 30, -8
	.cfi_register 65, 0
	.loc 2 229 0
	stw 20,8(1)
	.loc 2 232 0
	la 4,.LC2@l(4)
	.loc 2 229 0
	stw 22,16(1)
	stw 31,52(1)
	.loc 2 231 0
	lis 31,.LANCHOR0@ha
	.cfi_offset 31, -4
	.cfi_offset 22, -40
	.cfi_offset 20, -48
	.loc 2 229 0
	stw 0,60(1)
	.loc 2 231 0
	la 31,.LANCHOR0@l(31)
	.loc 2 229 0
	stw 21,12(1)
	.loc 2 231 0
	addi 20,31,660
	.loc 2 229 0
	stw 23,20(1)
	.loc 2 235 0
	addi 22,31,48
	.loc 2 229 0
	stw 24,24(1)
	stw 25,28(1)
	stw 26,32(1)
	stw 27,36(1)
	stw 28,40(1)
	stw 29,44(1)
	.loc 2 232 0
	lwz 3,common@l(30)
.LVL97:
	.loc 2 231 0
	lwz 6,12(20)
	.loc 2 232 0
	lwz 9,0(3)
	rlwinm 5,6,29,10,31
	lwz 0,68(9)
	.cfi_offset 29, -12
	.cfi_offset 28, -16
	.cfi_offset 27, -20
	.cfi_offset 26, -24
	.cfi_offset 25, -28
	.cfi_offset 24, -32
	.cfi_offset 23, -36
	.cfi_offset 21, -44
	.cfi_offset 65, 4
	mtctr 0
	crxor 6,6,6
	bctrl
	.loc 2 236 0
	lwz 3,common@l(30)
	lwz 9,48(31)
.LVL98:
.LBB3442:
.LBB3443:
	.loc 4 574 0
	li 8,0
.LBE3443:
.LBE3442:
	.loc 2 236 0
	lwz 11,0(3)
	lwz 5,36(22)
.LBB3447:
.LBB3444:
	.loc 4 574 0
	cmpwi 7,9,0
.LBE3444:
.LBE3447:
	.loc 2 236 0
	lwz 6,52(22)
	lwz 0,68(11)
	srawi 5,5,10
	lwz 7,48(22)
	srawi 6,6,10
.LVL99:
.L157:
.LBB3448:
.LBB3445:
	.loc 4 574 0
	beq- 7,.L50
.L156:
	.loc 4 575 0
	lwz 11,0(9)
	cmpwi 7,11,0
	blt- 7,.L51
	lwz 9,8(9)
	cmpwi 7,9,0
	.loc 4 574 0
	bne+ 7,.L156
.L50:
.LBE3445:
.LBE3448:
	.loc 2 236 0
	lis 4,.LC3@ha
	mtctr 0
	la 4,.LC3@l(4)
	.loc 2 239 0
	addi 21,31,116
	.loc 2 236 0
	crxor 6,6,6
	bctrl
	.loc 2 240 0
	lwz 3,common@l(30)
	lwz 9,116(31)
.LVL100:
.LBB3449:
.LBB3450:
	.loc 4 574 0
	li 8,0
.LBE3450:
.LBE3449:
	.loc 2 240 0
	lwz 11,0(3)
	lwz 5,36(21)
.LBB3454:
.LBB3451:
	.loc 4 574 0
	cmpwi 7,9,0
.LBE3451:
.LBE3454:
	.loc 2 240 0
	lwz 6,52(21)
	lwz 0,68(11)
	srawi 5,5,10
	lwz 7,48(21)
	srawi 6,6,10
.LVL101:
.L158:
.LBB3455:
.LBB3452:
	.loc 4 574 0
	beq- 7,.L57
.L155:
	.loc 4 575 0
	lwz 11,0(9)
	cmpwi 7,11,0
	blt- 7,.L58
	lwz 9,8(9)
	cmpwi 7,9,0
	.loc 4 574 0
	bne+ 7,.L155
.L57:
.LBE3452:
.LBE3455:
	.loc 2 240 0
	lis 4,.LC4@ha
	mtctr 0
	la 4,.LC4@l(4)
	.loc 2 243 0
	addi 23,31,184
	.loc 2 240 0
	crxor 6,6,6
	bctrl
	.loc 2 244 0
	lwz 3,common@l(30)
	lwz 9,184(31)
.LVL102:
.LBB3456:
.LBB3457:
	.loc 4 574 0
	li 8,0
.LBE3457:
.LBE3456:
	.loc 2 244 0
	lwz 11,0(3)
	lwz 5,36(23)
.LBB3461:
.LBB3458:
	.loc 4 574 0
	cmpwi 7,9,0
.LBE3458:
.LBE3461:
	.loc 2 244 0
	lwz 6,52(23)
	lwz 0,68(11)
	srawi 5,5,10
	lwz 7,48(23)
	srawi 6,6,10
.LVL103:
.L159:
.LBB3462:
.LBB3459:
	.loc 4 574 0
	beq- 7,.L64
.L154:
	.loc 4 575 0
	lwz 11,0(9)
	cmpwi 7,11,0
	blt- 7,.L65
	lwz 9,8(9)
	cmpwi 7,9,0
	.loc 4 574 0
	bne+ 7,.L154
.L64:
.LBE3459:
.LBE3462:
	.loc 2 244 0
	lis 4,.LC5@ha
	mtctr 0
	la 4,.LC5@l(4)
	.loc 2 247 0
	addi 24,31,252
	.loc 2 244 0
	crxor 6,6,6
	bctrl
	.loc 2 248 0
	lwz 3,common@l(30)
	lwz 9,252(31)
.LVL104:
.LBB3463:
.LBB3464:
	.loc 4 574 0
	li 8,0
.LBE3464:
.LBE3463:
	.loc 2 248 0
	lwz 11,0(3)
	lwz 5,36(24)
.LBB3468:
.LBB3465:
	.loc 4 574 0
	cmpwi 7,9,0
.LBE3465:
.LBE3468:
	.loc 2 248 0
	lwz 6,52(24)
	lwz 0,68(11)
	srawi 5,5,10
	lwz 7,48(24)
	srawi 6,6,10
.LVL105:
.L160:
.LBB3469:
.LBB3466:
	.loc 4 574 0
	beq- 7,.L71
.L153:
	.loc 4 575 0
	lwz 11,0(9)
	cmpwi 7,11,0
	blt- 7,.L72
	lwz 9,8(9)
	cmpwi 7,9,0
	.loc 4 574 0
	bne+ 7,.L153
.L71:
.LBE3466:
.LBE3469:
	.loc 2 248 0
	lis 4,.LC6@ha
	mtctr 0
	la 4,.LC6@l(4)
	.loc 2 251 0
	addi 25,31,320
	.loc 2 248 0
	crxor 6,6,6
	bctrl
	.loc 2 252 0
	lwz 3,common@l(30)
	lwz 9,320(31)
.LVL106:
.LBB3470:
.LBB3471:
	.loc 4 574 0
	li 8,0
.LBE3471:
.LBE3470:
	.loc 2 252 0
	lwz 11,0(3)
	lwz 5,36(25)
.LBB3475:
.LBB3472:
	.loc 4 574 0
	cmpwi 7,9,0
.LBE3472:
.LBE3475:
	.loc 2 252 0
	lwz 6,52(25)
	lwz 0,68(11)
	srawi 5,5,10
	lwz 7,48(25)
	srawi 6,6,10
.LVL107:
.L161:
.LBB3476:
.LBB3473:
	.loc 4 574 0
	beq- 7,.L78
.L152:
	.loc 4 575 0
	lwz 11,0(9)
	cmpwi 7,11,0
	blt- 7,.L79
	lwz 9,8(9)
	cmpwi 7,9,0
	.loc 4 574 0
	bne+ 7,.L152
.L78:
.LBE3473:
.LBE3476:
	.loc 2 252 0
	lis 4,.LC7@ha
	mtctr 0
	la 4,.LC7@l(4)
	.loc 2 255 0
	addi 26,31,388
	.loc 2 252 0
	crxor 6,6,6
	bctrl
	.loc 2 256 0
	lwz 3,common@l(30)
	lwz 9,388(31)
.LVL108:
.LBB3477:
.LBB3478:
	.loc 4 574 0
	li 8,0
.LBE3478:
.LBE3477:
	.loc 2 256 0
	lwz 11,0(3)
	lwz 5,36(26)
.LBB3482:
.LBB3479:
	.loc 4 574 0
	cmpwi 7,9,0
.LBE3479:
.LBE3482:
	.loc 2 256 0
	lwz 6,52(26)
	lwz 0,68(11)
	srawi 5,5,10
	lwz 7,48(26)
	srawi 6,6,10
.LVL109:
.L162:
.LBB3483:
.LBB3480:
	.loc 4 574 0
	beq- 7,.L85
.L151:
	.loc 4 575 0
	lwz 11,0(9)
	cmpwi 7,11,0
	blt- 7,.L86
	lwz 9,8(9)
	cmpwi 7,9,0
	.loc 4 574 0
	bne+ 7,.L151
.L85:
.LBE3480:
.LBE3483:
	.loc 2 256 0
	lis 4,.LC8@ha
	mtctr 0
	la 4,.LC8@l(4)
	.loc 2 259 0
	addi 27,31,456
	.loc 2 256 0
	crxor 6,6,6
	bctrl
	.loc 2 260 0
	lwz 3,common@l(30)
	lwz 9,456(31)
.LVL110:
.LBB3484:
.LBB3485:
	.loc 4 574 0
	li 8,0
.LBE3485:
.LBE3484:
	.loc 2 260 0
	lwz 11,0(3)
	lwz 5,36(27)
.LBB3489:
.LBB3486:
	.loc 4 574 0
	cmpwi 7,9,0
.LBE3486:
.LBE3489:
	.loc 2 260 0
	lwz 6,52(27)
	lwz 0,68(11)
	srawi 5,5,10
	lwz 7,48(27)
	srawi 6,6,10
.LVL111:
.L163:
.LBB3490:
.LBB3487:
	.loc 4 574 0
	beq- 7,.L92
.L150:
	.loc 4 575 0
	lwz 11,0(9)
	cmpwi 7,11,0
	blt- 7,.L93
	lwz 9,8(9)
	cmpwi 7,9,0
	.loc 4 574 0
	bne+ 7,.L150
.L92:
.LBE3487:
.LBE3490:
	.loc 2 260 0
	lis 4,.LC9@ha
	mtctr 0
	la 4,.LC9@l(4)
	.loc 2 263 0
	addi 28,31,524
	.loc 2 260 0
	crxor 6,6,6
	bctrl
	.loc 2 264 0
	lwz 3,common@l(30)
	lwz 9,524(31)
.LVL112:
.LBB3491:
.LBB3492:
	.loc 4 574 0
	li 8,0
.LBE3492:
.LBE3491:
	.loc 2 264 0
	lwz 11,0(3)
	lwz 5,36(28)
.LBB3496:
.LBB3493:
	.loc 4 574 0
	cmpwi 7,9,0
.LBE3493:
.LBE3496:
	.loc 2 264 0
	lwz 6,52(28)
	lwz 0,68(11)
	srawi 5,5,10
	lwz 7,48(28)
	srawi 6,6,10
.LVL113:
.L164:
.LBB3497:
.LBB3494:
	.loc 4 574 0
	beq- 7,.L99
.L149:
	.loc 4 575 0
	lwz 11,0(9)
	cmpwi 7,11,0
	blt- 7,.L100
	lwz 9,8(9)
	cmpwi 7,9,0
	.loc 4 574 0
	bne+ 7,.L149
.L99:
.LBE3494:
.LBE3497:
	.loc 2 264 0
	lis 4,.LC10@ha
	mtctr 0
	la 4,.LC10@l(4)
	.loc 2 267 0
	addi 29,31,592
	.loc 2 264 0
	crxor 6,6,6
	bctrl
	.loc 2 268 0
	lwz 3,common@l(30)
	lwz 9,592(31)
.LVL114:
.LBB3498:
.LBB3499:
	.loc 4 574 0
	li 8,0
.LBE3499:
.LBE3498:
	.loc 2 268 0
	lwz 11,0(3)
	lwz 5,36(29)
.LBB3503:
.LBB3500:
	.loc 4 574 0
	cmpwi 7,9,0
.LBE3500:
.LBE3503:
	.loc 2 268 0
	lwz 6,52(29)
	lwz 0,68(11)
	srawi 5,5,10
	lwz 7,48(29)
	srawi 6,6,10
.LVL115:
.L165:
.LBB3504:
.LBB3501:
	.loc 4 574 0
	beq- 7,.L106
.L148:
	.loc 4 575 0
	lwz 11,0(9)
	cmpwi 7,11,0
	blt- 7,.L107
	lwz 9,8(9)
	cmpwi 7,9,0
	.loc 4 574 0
	bne+ 7,.L148
.L106:
.LBE3501:
.LBE3504:
	.loc 2 268 0
	lis 4,.LC11@ha
	mtctr 0
	la 4,.LC11@l(4)
	crxor 6,6,6
	bctrl
	.loc 2 280 0
	lwz 9,36(22)
	lwz 5,36(21)
	lis 4,.LC12@ha
	lwz 0,36(23)
	la 4,.LC12@l(4)
	add 5,5,9
	lwz 9,36(24)
	add 5,5,0
	lwz 0,36(25)
	add 5,5,9
	lwz 9,36(26)
	add 5,5,0
	lwz 0,36(27)
	lwz 3,common@l(30)
	add 5,5,9
	lwz 9,36(28)
	add 5,5,0
	lwz 11,36(29)
	lwz 0,12(20)
	add 5,5,9
	lwz 9,0(3)
	add 5,5,11
	slwi 0,0,7
	add 5,5,0
	lwz 0,68(9)
	srwi 5,5,10
	mtctr 0
	crxor 6,6,6
	bctrl
	.loc 2 281 0
	lwz 0,60(1)
	lwz 20,8(1)
	mtlr 0
	lwz 21,12(1)
	lwz 22,16(1)
	lwz 23,20(1)
	lwz 24,24(1)
	lwz 25,28(1)
	lwz 26,32(1)
	lwz 27,36(1)
	lwz 28,40(1)
	lwz 29,44(1)
	lwz 30,48(1)
	lwz 31,52(1)
	addi 1,1,56
	.cfi_remember_state
.LCFI18:
	.cfi_def_cfa_offset 0
	.cfi_restore 31
	.cfi_restore 30
	.cfi_restore 29
	.cfi_restore 28
	.cfi_restore 27
	.cfi_restore 26
	.cfi_restore 25
	.cfi_restore 24
	.cfi_restore 23
	.cfi_restore 22
	.cfi_restore 21
	.cfi_restore 20
	blr
.L51:
.LCFI19:
	.cfi_restore_state
.LBB3505:
.LBB3446:
	.loc 4 575 0
	lwz 11,12(9)
	lwz 9,8(9)
	cmpwi 7,11,0
	beq- 7,.L166
	cmpwi 7,9,0
	beq- 7,.L54
	lwz 11,0(9)
	cmpwi 6,11,0
	bge+ 6,.L156
.L54:
	.loc 4 576 0
	addi 8,8,1
.LVL116:
	b .L157
.LVL117:
.L58:
.LBE3446:
.LBE3505:
.LBB3506:
.LBB3453:
	.loc 4 575 0
	lwz 11,12(9)
	lwz 9,8(9)
	cmpwi 7,11,0
	beq- 7,.L167
	cmpwi 7,9,0
	beq- 7,.L61
	lwz 11,0(9)
	cmpwi 6,11,0
	bge+ 6,.L155
.L61:
	.loc 4 576 0
	addi 8,8,1
.LVL118:
	b .L158
.LVL119:
.L65:
.LBE3453:
.LBE3506:
.LBB3507:
.LBB3460:
	.loc 4 575 0
	lwz 11,12(9)
	lwz 9,8(9)
	cmpwi 7,11,0
	beq- 7,.L168
	cmpwi 7,9,0
	beq- 7,.L68
	lwz 11,0(9)
	cmpwi 6,11,0
	bge+ 6,.L154
.L68:
	.loc 4 576 0
	addi 8,8,1
.LVL120:
	b .L159
.LVL121:
.L72:
.LBE3460:
.LBE3507:
.LBB3508:
.LBB3467:
	.loc 4 575 0
	lwz 11,12(9)
	lwz 9,8(9)
	cmpwi 7,11,0
	beq- 7,.L169
	cmpwi 7,9,0
	beq- 7,.L75
	lwz 11,0(9)
	cmpwi 6,11,0
	bge+ 6,.L153
.L75:
	.loc 4 576 0
	addi 8,8,1
.LVL122:
	b .L160
.LVL123:
.L79:
.LBE3467:
.LBE3508:
.LBB3509:
.LBB3474:
	.loc 4 575 0
	lwz 11,12(9)
	lwz 9,8(9)
	cmpwi 7,11,0
	beq- 7,.L170
	cmpwi 7,9,0
	beq- 7,.L82
	lwz 11,0(9)
	cmpwi 6,11,0
	bge+ 6,.L152
.L82:
	.loc 4 576 0
	addi 8,8,1
.LVL124:
	b .L161
.LVL125:
.L86:
.LBE3474:
.LBE3509:
.LBB3510:
.LBB3481:
	.loc 4 575 0
	lwz 11,12(9)
	lwz 9,8(9)
	cmpwi 7,11,0
	beq- 7,.L171
	cmpwi 7,9,0
	beq- 7,.L89
	lwz 11,0(9)
	cmpwi 6,11,0
	bge+ 6,.L151
.L89:
	.loc 4 576 0
	addi 8,8,1
.LVL126:
	b .L162
.LVL127:
.L93:
.LBE3481:
.LBE3510:
.LBB3511:
.LBB3488:
	.loc 4 575 0
	lwz 11,12(9)
	lwz 9,8(9)
	cmpwi 7,11,0
	beq- 7,.L172
	cmpwi 7,9,0
	beq- 7,.L96
	lwz 11,0(9)
	cmpwi 6,11,0
	bge+ 6,.L150
.L96:
	.loc 4 576 0
	addi 8,8,1
.LVL128:
	b .L163
.LVL129:
.L100:
.LBE3488:
.LBE3511:
.LBB3512:
.LBB3495:
	.loc 4 575 0
	lwz 11,12(9)
	lwz 9,8(9)
	cmpwi 7,11,0
	beq- 7,.L173
	cmpwi 7,9,0
	beq- 7,.L103
	lwz 11,0(9)
	cmpwi 6,11,0
	bge+ 6,.L149
.L103:
	.loc 4 576 0
	addi 8,8,1
.LVL130:
	b .L164
.LVL131:
.L107:
.LBE3495:
.LBE3512:
.LBB3513:
.LBB3502:
	.loc 4 575 0
	lwz 11,12(9)
	lwz 9,8(9)
	cmpwi 7,11,0
	beq- 7,.L174
	cmpwi 7,9,0
	beq- 7,.L110
	lwz 11,0(9)
	cmpwi 6,11,0
	bge+ 6,.L148
.L110:
	.loc 4 576 0
	addi 8,8,1
.LVL132:
	b .L165
.LVL133:
.L166:
	cmpwi 7,9,0
	b .L157
.L170:
	cmpwi 7,9,0
	b .L161
.L169:
	cmpwi 7,9,0
	b .L160
.L168:
	cmpwi 7,9,0
	b .L159
.L167:
	cmpwi 7,9,0
	b .L158
.L174:
	cmpwi 7,9,0
	b .L165
.L173:
	cmpwi 7,9,0
	b .L164
.L172:
	cmpwi 7,9,0
	b .L163
.L171:
	cmpwi 7,9,0
	b .L162
.LBE3502:
.LBE3513:
	.cfi_endproc
.LFE2569:
	.size	_Z21R_ShowTriSurfMemory_fRK9idCmdArgs, .-_Z21R_ShowTriSurfMemory_fRK9idCmdArgs
	.align 2
	.globl _Z15R_TriSurfMemoryPK14srfTriangles_s
	.type	_Z15R_TriSurfMemoryPK14srfTriangles_s, @function
_Z15R_TriSurfMemoryPK14srfTriangles_s:
.LFB2570:
	.loc 2 290 0
	.cfi_startproc
.LVL134:
.LBB3514:
	.loc 2 293 0
	mr. 9,3
	.loc 2 294 0
	li 3,0
.LVL135:
	.loc 2 293 0
	beqlr- 0
	.loc 2 298 0
	cmpwi 7,9,-1
	beqlr- 7
	.loc 2 302 0
	lwz 0,100(9)
	cmpwi 7,0,0
	beq- 7,.L177
.LVL136:
	.loc 2 303 0
	lwz 3,36(9)
	slwi 3,3,4
.LVL137:
.L178:
	.loc 2 309 0
	lwz 0,80(9)
	cmpwi 7,0,0
	beq- 7,.L180
	.loc 2 310 0
	lwz 0,44(9)
	lis 11,0x5555
	ori 11,11,21846
	mulhw 11,0,11
	srawi 0,0,31
	subf 0,0,11
	slwi 0,0,4
	add 3,3,0
.L180:
	.loc 2 312 0
	lwz 0,48(9)
	cmpwi 7,0,0
	beq- 7,.L181
	.loc 2 313 0
	lwz 11,104(9)
	cmpwi 7,11,0
	beq- 7,.L182
	.loc 2 313 0 is_stmt 0 discriminator 1
	lwz 11,48(11)
	cmpw 7,0,11
	beq- 7,.L181
.L182:
	.loc 2 314 0 is_stmt 1
	lwz 0,44(9)
	slwi 0,0,2
	add 3,3,0
.L181:
	.loc 2 317 0
	lwz 0,52(9)
	cmpwi 7,0,0
	beq- 7,.L183
	.loc 2 318 0
	lwz 0,44(9)
	slwi 0,0,2
	add 3,3,0
.L183:
	.loc 2 320 0
	lwz 0,76(9)
	cmpwi 7,0,0
	beq- 7,.L184
	.loc 2 321 0
	lwz 0,72(9)
	slwi 0,0,4
	add 3,3,0
.L184:
	.loc 2 323 0
	lwz 0,84(9)
	cmpwi 7,0,0
	beq- 7,.L185
	.loc 2 324 0
	lwz 0,36(9)
	mulli 0,0,20
	add 3,3,0
.L185:
	.loc 2 326 0
	lwz 0,60(9)
	cmpwi 7,0,0
	beq- 7,.L186
	.loc 2 327 0
	lwz 0,56(9)
	slwi 0,0,2
	add 3,3,0
.L186:
	.loc 2 329 0
	lwz 0,68(9)
	cmpwi 7,0,0
	beq- 7,.L187
	.loc 2 330 0
	lwz 0,64(9)
	slwi 0,0,2
	add 3,3,0
.L187:
	.loc 2 333 0
	addi 3,3,128
.LVL138:
.LBE3514:
	.loc 2 336 0
	blr
.LVL139:
.L177:
.LBB3515:
	.loc 2 304 0
	lwz 0,40(9)
	li 3,0
	cmpwi 7,0,0
	beq- 7,.L178
	.loc 2 305 0
	lwz 11,104(9)
	cmpwi 7,11,0
	beq- 7,.L179
	.loc 2 305 0 is_stmt 0 discriminator 1
	lwz 11,40(11)
	cmpw 7,0,11
	beq- 7,.L178
.L179:
.LVL140:
	.loc 2 306 0 is_stmt 1
	lwz 3,36(9)
	mulli 3,3,60
	b .L178
.LBE3515:
	.cfi_endproc
.LFE2570:
	.size	_Z15R_TriSurfMemoryPK14srfTriangles_s, .-_Z15R_TriSurfMemoryPK14srfTriangles_s
	.align 2
	.globl _Z31R_FreeStaticTriSurfVertexCachesP14srfTriangles_s
	.type	_Z31R_FreeStaticTriSurfVertexCachesP14srfTriangles_s, @function
_Z31R_FreeStaticTriSurfVertexCachesP14srfTriangles_s:
.LFB2571:
	.loc 2 343 0
	.cfi_startproc
.LVL141:
	mflr 0
	stwu 1,-24(1)
.LCFI20:
	.cfi_def_cfa_offset 24
	.cfi_register 65, 0
	stw 30,16(1)
	.loc 2 346 0
	lis 30,vertexCache@ha
	.cfi_offset 30, -8
	.loc 2 343 0
	stw 31,20(1)
	.loc 2 346 0
	la 30,vertexCache@l(30)
	.loc 2 343 0
	stw 0,28(1)
	mr 31,3
	.cfi_offset 65, 4
	.cfi_offset 31, -4
	stw 29,12(1)
	.loc 2 344 0
	lwz 29,104(3)
	.cfi_offset 29, -12
	cmpwi 7,29,0
	beq- 7,.L198
	.loc 2 351 0
	lwz 4,120(3)
	mr 3,30
.LVL142:
	bl _ZN13idVertexCache4FreeEP11vertCache_s
	.loc 2 352 0
	li 0,0
	stw 0,120(31)
.L194:
	.loc 2 354 0
	lwz 4,112(31)
	cmpwi 7,4,0
	beq- 7,.L195
	.loc 2 355 0
	mr 3,30
	bl _ZN13idVertexCache4FreeEP11vertCache_s
	.loc 2 356 0
	li 0,0
	stw 0,112(31)
.L195:
	.loc 2 358 0
	lwz 4,124(31)
	cmpwi 7,4,0
	beq- 7,.L192
	.loc 2 358 0 is_stmt 0 discriminator 1
	lwz 0,100(31)
	cmpwi 7,0,0
	beq- 7,.L199
.L197:
	.loc 2 362 0 is_stmt 1
	mr 3,30
	bl _ZN13idVertexCache4FreeEP11vertCache_s
	.loc 2 363 0
	li 0,0
	stw 0,124(31)
.L192:
	.loc 2 365 0
	lwz 0,28(1)
	lwz 29,12(1)
	mtlr 0
	lwz 30,16(1)
	lwz 31,20(1)
.LVL143:
	addi 1,1,24
	.cfi_remember_state
.LCFI21:
	.cfi_def_cfa_offset 0
	.cfi_restore 31
	.cfi_restore 30
	.cfi_restore 29
	blr
.LVL144:
.L199:
.LCFI22:
	.cfi_restore_state
	.loc 2 358 0 discriminator 2
	lwz 0,40(31)
	cmpwi 7,0,0
	bne+ 7,.L197
	b .L192
.L198:
	.loc 2 346 0
	lwz 4,116(3)
	mr 3,30
	bl _ZN13idVertexCache4FreeEP11vertCache_s
	.loc 2 347 0
	stw 29,116(31)
	b .L194
	.cfi_endproc
.LFE2571:
	.size	_Z31R_FreeStaticTriSurfVertexCachesP14srfTriangles_s, .-_Z31R_FreeStaticTriSurfVertexCachesP14srfTriangles_s
	.align 2
	.globl _Z26R_CheckStaticTriSurfMemoryPK14srfTriangles_s
	.type	_Z26R_CheckStaticTriSurfMemoryPK14srfTriangles_s, @function
_Z26R_CheckStaticTriSurfMemoryPK14srfTriangles_s:
.LFB2573:
	.loc 2 441 0
	.cfi_startproc
.LVL145:
	.loc 2 468 0
	blr
	.cfi_endproc
.LFE2573:
	.size	_Z26R_CheckStaticTriSurfMemoryPK14srfTriangles_s, .-_Z26R_CheckStaticTriSurfMemoryPK14srfTriangles_s
	.align 2
	.globl _Z20R_AllocStaticTriSurfv
	.type	_Z20R_AllocStaticTriSurfv, @function
_Z20R_AllocStaticTriSurfv:
.LFB2576:
	.loc 2 532 0
	.cfi_startproc
	mflr 0
	stwu 1,-16(1)
.LCFI23:
	.cfi_def_cfa_offset 16
	.cfi_register 65, 0
.LBB3516:
.LBB3517:
.LBB3518:
	.loc 4 215 0
	lis 9,.LANCHOR0@ha
	.loc 4 216 0
	li 3,132
.LBE3518:
.LBE3517:
.LBE3516:
	.loc 2 532 0
	stw 31,12(1)
.LBB3523:
.LBB3521:
.LBB3519:
	.loc 4 215 0
	la 9,.LANCHOR0@l(9)
.LBE3519:
.LBE3521:
.LBE3523:
	.loc 2 532 0
	stw 0,20(1)
.LBB3524:
.LBB3522:
.LBB3520:
	.loc 4 215 0
	lwz 11,672(9)
	addi 0,11,1
	.cfi_offset 65, 4
	.cfi_offset 31, -4
	stw 0,672(9)
	.loc 4 216 0
	bl _Znwj
.LVL146:
.LBE3520:
.LBE3522:
	.loc 2 534 0
	li 4,0
	.loc 2 533 0
	addi 31,3,4
.LVL147:
	.loc 2 534 0
	li 5,128
	mr 3,31
.LVL148:
	bl memset
.LBE3524:
	.loc 2 536 0
	lwz 0,20(1)
	mr 3,31
	lwz 31,12(1)
.LVL149:
	mtlr 0
	addi 1,1,16
.LCFI24:
	.cfi_def_cfa_offset 0
	.cfi_restore 31
	blr
	.cfi_endproc
.LFE2576:
	.size	_Z20R_AllocStaticTriSurfv, .-_Z20R_AllocStaticTriSurfv
	.align 2
	.globl _Z29R_ReferenceStaticTriSurfVertsP14srfTriangles_sPKS_
	.type	_Z29R_ReferenceStaticTriSurfVertsP14srfTriangles_sPKS_, @function
_Z29R_ReferenceStaticTriSurfVertsP14srfTriangles_sPKS_:
.LFB2585:
	.loc 2 645 0
	.cfi_startproc
.LVL150:
	.loc 2 646 0
	lwz 0,40(4)
	stw 0,40(3)
	.loc 2 647 0
	blr
	.cfi_endproc
.LFE2585:
	.size	_Z29R_ReferenceStaticTriSurfVertsP14srfTriangles_sPKS_, .-_Z29R_ReferenceStaticTriSurfVertsP14srfTriangles_sPKS_
	.align 2
	.globl _Z31R_ReferenceStaticTriSurfIndexesP14srfTriangles_sPKS_
	.type	_Z31R_ReferenceStaticTriSurfIndexesP14srfTriangles_sPKS_, @function
_Z31R_ReferenceStaticTriSurfIndexesP14srfTriangles_sPKS_:
.LFB2586:
	.loc 2 654 0
	.cfi_startproc
.LVL151:
	.loc 2 655 0
	lwz 0,48(4)
	stw 0,48(3)
	.loc 2 656 0
	blr
	.cfi_endproc
.LFE2586:
	.size	_Z31R_ReferenceStaticTriSurfIndexesP14srfTriangles_sPKS_, .-_Z31R_ReferenceStaticTriSurfIndexesP14srfTriangles_sPKS_
	.align 2
	.globl _Z19R_RangeCheckIndexesPK14srfTriangles_s
	.type	_Z19R_RangeCheckIndexesPK14srfTriangles_s, @function
_Z19R_RangeCheckIndexesPK14srfTriangles_s:
.LFB2588:
	.loc 2 680 0
	.cfi_startproc
.LVL152:
	mflr 0
	stwu 1,-24(1)
.LCFI25:
	.cfi_def_cfa_offset 24
	.cfi_register 65, 0
	stw 30,16(1)
	mr 30,3
	.cfi_offset 30, -8
	stw 0,28(1)
	stw 28,8(1)
	stw 29,12(1)
	stw 31,20(1)
.LBB3525:
	.loc 2 683 0
	lwz 0,44(3)
	.cfi_offset 31, -4
	.cfi_offset 29, -12
	.cfi_offset 28, -16
	.cfi_offset 65, 4
	cmpwi 7,0,0
	blt- 7,.L213
.LVL153:
.L205:
	.loc 2 686 0
	lwz 0,36(30)
	cmpwi 7,0,0
	blt- 7,.L214
.L206:
	.loc 2 691 0
	lwz 9,44(30)
	lis 0,0x5555
	ori 0,0,21846
	mulhw 0,9,0
	srawi 11,9,31
	subf 0,11,0
	mulli 0,0,3
	cmpw 7,9,0
	bne- 7,.L215
.L207:
.LVL154:
	.loc 2 695 0 discriminator 1
	cmpwi 7,9,0
	ble- 7,.L204
	.loc 2 697 0
	lis 29,.LC16@ha
	.loc 2 695 0
	li 31,0
	.loc 2 697 0
	lis 28,common@ha
	la 29,.LC16@l(29)
.LVL155:
.L211:
	.loc 2 696 0
	lwz 11,48(30)
	slwi 0,31,2
	.loc 2 697 0
	mr 4,29
	.loc 2 695 0
	addi 31,31,1
	.loc 2 696 0
	lwzx 0,11,0
	cmpwi 7,0,0
	blt- 7,.L209
	.loc 2 696 0 is_stmt 0 discriminator 1
	lwz 11,36(30)
	cmpw 7,0,11
	blt- 7,.L210
.L209:
	.loc 2 697 0 is_stmt 1
	lwz 3,common@l(28)
	lwz 9,0(3)
	lwz 0,96(9)
	mtctr 0
	crxor 6,6,6
	bctrl
	lwz 9,44(30)
.L210:
.LVL156:
	.loc 2 695 0
	cmpw 7,9,31
	bgt+ 7,.L211
.LVL157:
.L204:
.LBE3525:
	.loc 2 706 0
	lwz 0,28(1)
	lwz 28,8(1)
	mtlr 0
	lwz 29,12(1)
	lwz 30,16(1)
.LVL158:
	lwz 31,20(1)
	addi 1,1,24
	.cfi_remember_state
.LCFI26:
	.cfi_def_cfa_offset 0
	.cfi_restore 31
	.cfi_restore 30
	.cfi_restore 29
	.cfi_restore 28
	blr
.LVL159:
.L215:
.LCFI27:
	.cfi_restore_state
.LBB3526:
	.loc 2 692 0
	lis 9,common@ha
	lis 4,.LC15@ha
	lwz 3,common@l(9)
	la 4,.LC15@l(4)
	lwz 9,0(3)
	lwz 0,96(9)
	mtctr 0
	crxor 6,6,6
	bctrl
	lwz 9,44(30)
	b .L207
.L214:
	.loc 2 687 0
	lis 9,common@ha
	lis 4,.LC14@ha
	lwz 3,common@l(9)
	la 4,.LC14@l(4)
	lwz 9,0(3)
	lwz 0,96(9)
	mtctr 0
	crxor 6,6,6
	bctrl
	b .L206
.L213:
	.loc 2 684 0
	lis 9,common@ha
	lis 4,.LC13@ha
	lwz 3,common@l(9)
	la 4,.LC13@l(4)
	lwz 9,0(3)
	lwz 0,96(9)
	mtctr 0
	crxor 6,6,6
	bctrl
	b .L205
.LBE3526:
	.cfi_endproc
.LFE2588:
	.size	_Z19R_RangeCheckIndexesPK14srfTriangles_s, .-_Z19R_RangeCheckIndexesPK14srfTriangles_s
	.align 2
	.globl _Z14R_BoundTriSurfP14srfTriangles_s
	.type	_Z14R_BoundTriSurfP14srfTriangles_s, @function
_Z14R_BoundTriSurfP14srfTriangles_s:
.LFB2589:
	.loc 2 713 0
	.cfi_startproc
.LVL160:
	mflr 0
	stwu 1,-8(1)
.LCFI28:
	.cfi_def_cfa_offset 8
	.cfi_register 65, 0
	.loc 2 714 0
	lis 9,SIMDProcessor@ha
	.loc 2 713 0
	mr 4,3
.LVL161:
	.loc 2 714 0
	lwz 9,SIMDProcessor@l(9)
	addi 5,4,12
	.loc 2 713 0
	stw 0,12(1)
	.loc 2 714 0
	mr 3,9
.LVL162:
	lwz 11,0(9)
	lwz 6,40(4)
	lwz 0,128(11)
	.cfi_offset 65, 4
	lwz 7,36(4)
	mtctr 0
	bctrl
.LVL163:
	.loc 2 715 0
	lwz 0,12(1)
	addi 1,1,8
.LCFI29:
	.cfi_def_cfa_offset 0
	mtlr 0
	blr
	.cfi_endproc
.LFE2589:
	.size	_Z14R_BoundTriSurfP14srfTriangles_s, .-_Z14R_BoundTriSurfP14srfTriangles_s
	.align 2
	.globl _Z30R_DeriveTangentsWithoutNormalsP14srfTriangles_s
	.type	_Z30R_DeriveTangentsWithoutNormalsP14srfTriangles_s, @function
_Z30R_DeriveTangentsWithoutNormalsP14srfTriangles_s:
.LFB2602:
	.loc 2 1384 0
	.cfi_startproc
.LVL164:
	mflr 0
	stwu 1,-96(1)
.LCFI30:
	.cfi_def_cfa_offset 96
	.cfi_register 65, 0
.LBB3579:
	.loc 2 1390 0
	lis 9,0xaaaa
	ori 9,9,43691
.LBE3579:
	.loc 2 1384 0
	stw 31,68(1)
	stw 0,100(1)
	mr 31,1
	.cfi_offset 65, 4
	.cfi_offset 31, -28
.LCFI31:
	.cfi_def_cfa_register 31
.LBB3800:
	.loc 2 1390 0
	lwz 0,44(3)
.LBE3800:
	.loc 2 1384 0
	stfd 29,72(1)
.LBB3801:
	.loc 2 1390 0
	mulli 11,0,28
.LBB3580:
.LBB3581:
.LBB3582:
	.loc 2 1181 0
	cmpwi 7,0,0
.LBE3582:
.LBE3581:
.LBE3580:
.LBE3801:
	.loc 2 1384 0
	stfd 30,80(1)
.LBB3802:
	.loc 2 1390 0
	mulhwu 11,11,9
	lwz 9,0(1)
.LBE3802:
	.loc 2 1384 0
	stfd 31,88(1)
	stw 21,28(1)
	stw 22,32(1)
.LBB3803:
	.loc 2 1390 0
	srwi 11,11,1
.LBE3803:
	.loc 2 1384 0
	stw 23,36(1)
.LBB3804:
	.loc 2 1390 0
	addi 0,11,45
.LBE3804:
	.loc 2 1384 0
	stw 24,40(1)
.LBB3805:
	.loc 2 1390 0
	rlwinm 0,0,0,0,27
.LBE3805:
	.loc 2 1384 0
	stw 25,44(1)
.LBB3806:
	.loc 2 1390 0
	neg 0,0
.LBE3806:
	.loc 2 1384 0
	stw 26,48(1)
	stw 27,52(1)
	stw 28,56(1)
	stw 29,60(1)
	stw 30,64(1)
.LBB3807:
	.loc 2 1390 0
	stwux 9,1,0
	addi 5,1,23
	rlwinm 5,5,0,0,27
.LVL165:
.LBB3750:
.LBB3749:
.LBB3748:
	.loc 2 1181 0
	ble- 7,.L218
	.cfi_offset 30, -32
	.cfi_offset 29, -36
	.cfi_offset 28, -40
	.cfi_offset 27, -44
	.cfi_offset 26, -48
	.cfi_offset 25, -52
	.cfi_offset 24, -56
	.cfi_offset 23, -60
	.cfi_offset 22, -64
	.cfi_offset 21, -68
	.cfi_offset 63, -8
	.cfi_offset 62, -16
	.cfi_offset 61, -24
.LVL166:
	lis 9,.LC19@ha
.LBB3583:
	.loc 2 1186 0
	lis 26,0x5555
	.loc 2 1205 0
	lfs 1,.LC19@l(9)
.LBB3584:
.LBB3585:
.LBB3586:
.LBB3587:
	.file 6 "d:/Data/Nintendo/DoomGX/src/renderer/../idlib/../idlib/math/Math.h"
	.loc 6 276 0
	lis 28,_ZN6idMath5iSqrtE@ha
.LBE3587:
.LBE3586:
.LBE3585:
.LBE3584:
	.loc 2 1213 0
	lis 9,.LC1@ha
.LBE3583:
	.loc 2 1181 0
	li 30,4
	li 10,0
.LBB3742:
	.loc 2 1186 0
	ori 26,26,21846
	.loc 2 1213 0
	lfs 13,.LC1@l(9)
	.loc 2 1220 0
	li 27,0
.LBB3642:
.LBB3622:
.LBB3605:
.LBB3588:
	.loc 6 275 0
	lis 22,.LC20@ha
	.loc 6 276 0
	la 28,_ZN6idMath5iSqrtE@l(28)
	.loc 6 278 0
	lis 23,.LC22@ha
.LBE3588:
.LBE3605:
.LBE3622:
.LBE3642:
	.loc 2 1223 0
	lis 21,.LC18@ha
	lis 24,.LC17@ha
	.loc 2 1207 0
	li 25,1
	b .L224
.LVL167:
.L243:
	.loc 2 1206 0
	stb 27,24(9)
.LBE3742:
	.loc 2 1181 0
	addi 10,10,3
.LBB3743:
	.loc 2 1207 0
	stb 25,25(9)
.LVL168:
.LBE3743:
	.loc 2 1181 0
	addi 30,30,12
.LBB3744:
.LBB3643:
.LBB3644:
	.file 7 "d:/Data/Nintendo/DoomGX/src/renderer/../idlib/../idlib/math/Vector.h"
	.loc 7 416 0
	stfs 13,8(9)
	stfs 13,4(9)
	stfsx 13,5,0
.LVL169:
.LBE3644:
.LBE3643:
.LBB3645:
.LBB3646:
	stfs 13,20(9)
	stfs 13,16(9)
	stfs 13,12(9)
.LVL170:
.LBE3646:
.LBE3645:
.LBE3744:
	.loc 2 1181 0
	lwz 0,44(3)
	cmpw 7,10,0
	bge- 7,.L218
.LVL171:
.L224:
.LBB3745:
	.loc 2 1188 0
	lwz 11,48(3)
	slwi 0,10,2
	.loc 2 1186 0
	mulhw 29,10,26
	.loc 2 1189 0
	mr 9,11
	.loc 2 1188 0
	lwzx 0,11,0
	.loc 2 1189 0
	lwzux 12,9,30
	.loc 2 1188 0
	lwz 11,40(3)
	.loc 2 1190 0
	lwz 4,4(9)
	.loc 2 1189 0
	mulli 12,12,60
	.loc 2 1188 0
	mulli 9,0,60
	.loc 2 1186 0
	srawi 0,10,31
	.loc 2 1190 0
	mulli 4,4,60
	.loc 2 1189 0
	add 6,11,12
	.loc 2 1188 0
	add 7,11,9
	.loc 2 1196 0
	lfs 9,16(6)
	.loc 2 1190 0
	add 8,11,4
	.loc 2 1196 0
	lfs 0,16(7)
	.loc 2 1195 0
	lfs 12,12(7)
	.loc 2 1186 0
	subf 0,0,29
	.loc 2 1201 0
	lfs 10,12(8)
	.loc 2 1196 0
	fsubs 9,9,0
	.loc 2 1195 0
	lfs 8,12(6)
	.loc 2 1186 0
	mulli 0,0,28
	.loc 2 1201 0
	fsubs 10,10,12
	.loc 2 1202 0
	lfs 11,16(8)
	.loc 2 1195 0
	fsubs 12,8,12
	.loc 2 1192 0
	lfsx 6,11,9
	.loc 2 1202 0
	fsubs 11,11,0
	.loc 2 1192 0
	lfsx 4,11,12
	.loc 2 1204 0
	fmuls 0,9,10
	.loc 2 1186 0
	add 9,5,0
.LVL172:
	.loc 2 1193 0
	lfs 5,4(6)
.LVL173:
	lfs 7,4(7)
.LVL174:
	.loc 2 1204 0
	fmsubs 0,12,11,0
	.loc 2 1194 0
	lfs 3,8(6)
.LVL175:
	.loc 2 1198 0
	lfsx 31,11,4
	.loc 2 1199 0
	lfs 30,4(8)
	.loc 2 1205 0
	fabs 8,0
	.loc 2 1200 0
	lfs 2,8(8)
	.loc 2 1205 0
	fcmpu 7,8,1
	.loc 2 1194 0
	lfs 8,8(7)
.LVL176:
	.loc 2 1205 0
	blt- 7,.L243
	.loc 2 1213 0
	fcmpu 7,0,13
	.loc 2 1220 0
	stb 27,25(9)
	.loc 2 1223 0
	lfs 0,.LC17@l(24)
.LVL177:
	.loc 2 1213 0
	mfcr 11
	rlwinm 11,11,30,1
.LBB3648:
.LBB3647:
	.loc 2 1384 0
	xori 11,11,1
	.loc 7 416 0
	stb 11,24(9)
.LBE3647:
.LBE3648:
	.loc 2 1223 0
	blt- 7,.L222
	lfs 0,.LC18@l(21)
.L222:
	.loc 2 1193 0
	fsubs 5,5,7
.LBE3745:
	.loc 2 1181 0
	addi 10,10,3
.LBB3746:
	.loc 2 1199 0
	fsubs 7,30,7
.LBE3746:
	.loc 2 1181 0
	addi 30,30,12
.LBB3747:
	.loc 2 1192 0
	fsubs 4,4,6
	.loc 2 1198 0
	fsubs 6,31,6
	.loc 2 1226 0
	fmuls 29,9,7
	.loc 2 1232 0
	fmuls 30,5,10
	.loc 2 1194 0
	fsubs 3,3,8
	.loc 2 1225 0
	fmuls 31,9,6
	.loc 2 1200 0
	fsubs 8,2,8
.LVL178:
	.loc 2 1226 0
	fmsubs 5,5,11,29
	.loc 2 1231 0
	fmuls 2,4,10
	.loc 2 1232 0
	fmsubs 7,12,7,30
	.loc 2 1226 0
	fmuls 5,0,5
	.loc 2 1225 0
	fmsubs 4,4,11,31
	.loc 2 1227 0
	fmuls 9,9,8
.LVL179:
	.loc 2 1232 0
	fmuls 7,0,7
	.loc 2 1231 0
	fmsubs 6,12,6,2
	.loc 2 1233 0
	fmuls 10,3,10
.LVL180:
	.loc 2 1225 0
	fmuls 4,4,0
.LVL181:
	.loc 2 1227 0
	fmsubs 11,3,11,9
.LVL182:
.LBB3649:
.LBB3623:
	.loc 7 649 0
	fmuls 31,5,5
.LBE3623:
.LBE3649:
	.loc 2 1233 0
	fmsubs 8,12,8,10
	.loc 2 1231 0
	fmuls 6,0,6
.LBB3650:
.LBB3651:
	.loc 7 649 0
	fmuls 2,7,7
.LBE3651:
.LBE3650:
	.loc 2 1227 0
	fmuls 11,0,11
.LVL183:
	.loc 7 649 0
	fmadds 10,4,4,31
.LBB3697:
.LBB3624:
.LBB3606:
.LBB3589:
	.loc 6 275 0
	lfs 31,.LC20@l(22)
.LBE3589:
.LBE3606:
.LBE3624:
.LBE3697:
	.loc 2 1233 0
	fmuls 0,0,8
.LVL184:
.LBB3698:
.LBB3625:
.LBB3607:
.LBB3590:
	.loc 6 278 0
	lfs 8,.LC22@l(23)
.LBE3590:
.LBE3607:
.LBE3625:
.LBE3698:
	.loc 7 649 0
	fmadds 12,6,6,2
.LVL185:
	fmadds 10,11,11,10
	fmadds 12,0,0,12
	stfs 10,8(31)
.LVL186:
	stfs 12,12(31)
.LBB3699:
.LBB3626:
.LBB3608:
.LBB3591:
	.loc 6 275 0
	fmuls 12,10,31
	.loc 6 270 0
	lwz 8,8(31)
.LVL187:
.LBE3591:
.LBE3608:
.LBE3626:
.LBE3699:
.LBB3700:
.LBB3680:
.LBB3652:
.LBB3653:
	lwz 11,12(31)
.LBE3653:
.LBE3652:
.LBE3680:
.LBE3700:
.LBB3701:
.LBB3627:
.LBB3609:
.LBB3592:
	.loc 6 276 0
	rlwinm 6,8,19,21,29
.LVL188:
	rlwinm 29,8,9,24,31
	lwzx 6,28,6
	subfic 8,29,380
.LBE3592:
.LBE3609:
.LBE3627:
.LBE3701:
.LBB3702:
.LBB3681:
.LBB3667:
.LBB3654:
	rlwinm 7,11,19,21,29
.LVL189:
	rlwinm 4,11,9,24,31
.LBE3654:
.LBE3667:
.LBE3681:
.LBE3702:
.LBB3703:
.LBB3628:
.LBB3610:
.LBB3593:
	rlwinm 8,8,22,0,8
.LVL190:
.LBE3593:
.LBE3610:
.LBE3628:
.LBE3703:
.LBB3704:
.LBB3682:
.LBB3668:
.LBB3655:
	lwzx 7,28,7
	subfic 11,4,380
.LBE3655:
.LBE3668:
.LBE3682:
.LBE3704:
.LBB3705:
.LBB3629:
.LBB3611:
.LBB3594:
	or 8,8,6
	.loc 6 277 0
	stw 8,16(31)
.LBE3594:
.LBE3611:
.LBE3629:
.LBE3705:
.LBB3706:
.LBB3683:
.LBB3669:
.LBB3656:
	.loc 6 276 0
	rlwinm 11,11,22,0,8
	.loc 6 275 0
	lfs 10,12(31)
.LVL191:
	.loc 6 276 0
	or 11,11,7
.LBE3656:
.LBE3669:
.LBE3683:
.LBE3706:
.LBB3707:
.LBB3630:
.LBB3612:
.LBB3595:
	.loc 2 1384 0
	fneg 12,12
.LVL192:
.LBE3595:
.LBE3612:
.LBE3630:
.LBE3707:
.LBB3708:
.LBB3684:
.LBB3670:
.LBB3657:
	.loc 6 275 0
	fmuls 31,10,31
.LBE3657:
.LBE3670:
.LBE3684:
.LBE3708:
.LBB3709:
.LBB3631:
.LBB3613:
.LBB3596:
	.loc 6 277 0
	lfs 10,16(31)
.LBE3596:
.LBE3613:
.LBE3631:
.LBE3709:
.LBB3710:
.LBB3685:
.LBB3671:
.LBB3658:
	stw 11,16(31)
.LBE3658:
.LBE3671:
.LBE3685:
.LBE3710:
.LBB3711:
.LBB3632:
.LBB3614:
.LBB3597:
	fmr 2,10
.LVL193:
.LBE3597:
.LBE3614:
.LBE3632:
.LBE3711:
.LBB3712:
.LBB3686:
.LBB3672:
.LBB3659:
	lfs 10,16(31)
.LVL194:
	.loc 2 1384 0
	fneg 31,31
	.loc 6 277 0
	fmr 3,10
.LBE3659:
.LBE3672:
.LBE3686:
.LBE3712:
.LBB3713:
.LBB3633:
.LBB3615:
.LBB3598:
	.loc 6 278 0
	fmul 9,2,2
.LBE3598:
.LBE3615:
.LBE3633:
.LBE3713:
.LBB3714:
.LBB3687:
.LBB3673:
.LBB3660:
	fmul 10,3,3
.LBE3660:
.LBE3673:
.LBE3687:
.LBE3714:
.LBB3715:
.LBB3634:
.LBB3616:
.LBB3599:
	fmadd 9,12,9,8
.LBE3599:
.LBE3616:
.LBE3634:
.LBE3715:
.LBB3716:
.LBB3688:
.LBB3674:
.LBB3661:
	fmadd 10,31,10,8
.LBE3661:
.LBE3674:
.LBE3688:
.LBE3716:
.LBB3717:
.LBB3635:
.LBB3617:
.LBB3600:
	fmul 9,2,9
.LVL195:
.LBE3600:
.LBE3617:
.LBE3635:
.LBE3717:
.LBB3718:
.LBB3689:
.LBB3675:
.LBB3662:
	fmul 10,3,10
.LBE3662:
.LBE3675:
.LBE3689:
.LBE3718:
.LBB3719:
.LBB3636:
.LBB3618:
.LBB3601:
	.loc 6 279 0
	fmul 2,9,9
.LBE3601:
.LBE3618:
.LBE3636:
.LBE3719:
.LBB3720:
.LBB3690:
.LBB3676:
.LBB3663:
	fmul 3,10,10
.LBE3663:
.LBE3676:
.LBE3690:
.LBE3720:
.LBB3721:
.LBB3637:
.LBB3619:
.LBB3602:
	fmadd 12,12,2,8
.LVL196:
.LBE3602:
.LBE3619:
.LBE3637:
.LBE3721:
.LBB3722:
.LBB3691:
.LBB3677:
.LBB3664:
	fmadd 8,31,3,8
.LBE3664:
.LBE3677:
.LBE3691:
.LBE3722:
.LBB3723:
.LBB3638:
.LBB3620:
.LBB3603:
	fmul 12,9,12
.LVL197:
.LBE3603:
.LBE3620:
.LBE3638:
.LBE3723:
.LBB3724:
.LBB3692:
.LBB3678:
.LBB3665:
	fmul 8,10,8
.LBE3665:
.LBE3678:
.LBE3692:
.LBE3724:
.LBB3725:
.LBB3639:
.LBB3621:
.LBB3604:
	.loc 6 280 0
	frsp 12,12
.LVL198:
.LBE3604:
.LBE3621:
.LBE3639:
.LBE3725:
.LBB3726:
.LBB3693:
.LBB3679:
.LBB3666:
	frsp 8,8
.LBE3666:
.LBE3679:
.LBE3693:
.LBE3726:
.LBB3727:
.LBB3640:
	.loc 7 651 0
	fmuls 4,4,12
	.loc 7 652 0
	fmuls 5,5,12
.LBE3640:
.LBE3727:
.LBB3728:
.LBB3694:
	.loc 7 651 0
	fmuls 6,6,8
.LBE3694:
.LBE3728:
.LBB3729:
.LBB3641:
	.loc 7 653 0
	fmuls 12,11,12
.LBE3641:
.LBE3729:
.LBB3730:
.LBB3731:
	.loc 7 424 0
	stfsx 4,5,0
.LBE3731:
.LBE3730:
.LBB3734:
.LBB3695:
	.loc 7 652 0
	fmuls 7,7,8
.LBE3695:
.LBE3734:
.LBB3735:
.LBB3732:
	.loc 7 425 0
	stfs 5,4(9)
.LBE3732:
.LBE3735:
.LBB3736:
.LBB3696:
	.loc 7 653 0
	fmuls 0,0,8
.LBE3696:
.LBE3736:
.LBB3737:
.LBB3738:
	.loc 7 424 0
	stfs 6,12(9)
.LBE3738:
.LBE3737:
.LBB3740:
.LBB3733:
	.loc 7 426 0
	stfs 12,8(9)
.LVL199:
.LBE3733:
.LBE3740:
.LBB3741:
.LBB3739:
	.loc 7 425 0
	stfs 7,16(9)
	.loc 7 426 0
	stfs 0,20(9)
.LVL200:
.LBE3739:
.LBE3741:
.LBE3747:
	.loc 2 1181 0
	lwz 0,44(3)
	cmpw 7,10,0
	blt+ 7,.L224
.LVL201:
.L218:
.LBE3748:
.LBE3749:
.LBE3750:
	.loc 2 1394 0 discriminator 1
	lwz 11,36(3)
	cmpwi 7,11,0
	ble- 7,.L225
	.loc 2 1394 0 is_stmt 0
	li 9,0
	li 10,0
.LBB3751:
.LBB3752:
	.loc 7 416 0 is_stmt 1
	li 0,0
.LVL202:
.L226:
.LBE3752:
.LBE3751:
	.loc 2 1395 0 discriminator 2
	lwz 11,40(3)
	.loc 2 1394 0 discriminator 2
	addi 10,10,1
	.loc 2 1395 0 discriminator 2
	add 11,11,9
.LVL203:
.LBB3754:
.LBB3753:
	.loc 7 416 0 discriminator 2
	stw 0,40(11)
	stw 0,36(11)
	stw 0,32(11)
.LBE3753:
.LBE3754:
	.loc 2 1396 0 discriminator 2
	lwz 11,40(3)
.LVL204:
	add 11,11,9
.LVL205:
	.loc 2 1394 0 discriminator 2
	addi 9,9,60
.LBB3755:
.LBB3756:
	.loc 7 416 0 discriminator 2
	stw 0,52(11)
	stw 0,48(11)
	stw 0,44(11)
.LBE3756:
.LBE3755:
	.loc 2 1394 0 discriminator 2
	lwz 11,36(3)
.LVL206:
	cmpw 7,11,10
	bgt+ 7,.L226
.LVL207:
.L225:
	.loc 2 1400 0 discriminator 1
	lwz 0,44(3)
	cmpwi 7,0,0
	ble- 7,.L227
	.loc 2 1401 0
	lis 6,0x5555
	.loc 2 1400 0
	li 8,0
	.loc 2 1401 0
	ori 6,6,21846
.LVL208:
.L229:
	mulhw 11,8,6
	srawi 0,8,31
	li 10,0
	slwi 7,8,2
	subf 11,0,11
	mulli 11,11,28
	add 11,5,11
.LVL209:
.L228:
	.loc 2 1405 0 discriminator 2
	lwz 9,48(3)
	add 0,7,10
.LBB3757:
.LBB3758:
	.loc 7 456 0 discriminator 2
	lfs 0,0(11)
.LBE3758:
.LBE3757:
	.loc 2 1404 0 discriminator 2
	cmpwi 7,10,8
	.loc 2 1405 0 discriminator 2
	lwzx 9,9,0
	.loc 2 1404 0 discriminator 2
	addi 10,10,4
	.loc 2 1405 0 discriminator 2
	lwz 0,40(3)
	mulli 9,9,60
	add 9,0,9
.LVL210:
.LBB3762:
.LBB3759:
	.loc 7 456 0 discriminator 2
	lfs 13,32(9)
	.loc 7 457 0 discriminator 2
	lfs 9,36(9)
	.loc 7 456 0 discriminator 2
	fadds 0,13,0
	.loc 7 458 0 discriminator 2
	lfs 10,40(9)
.LBE3759:
.LBE3762:
.LBB3763:
.LBB3764:
	.loc 7 456 0 discriminator 2
	lfs 11,44(9)
	.loc 7 457 0 discriminator 2
	lfs 12,48(9)
.LBE3764:
.LBE3763:
.LBB3767:
.LBB3760:
	.loc 7 456 0 discriminator 2
	stfs 0,32(9)
.LBE3760:
.LBE3767:
.LBB3768:
.LBB3765:
	.loc 7 458 0 discriminator 2
	lfs 13,52(9)
.LBE3765:
.LBE3768:
.LBB3769:
.LBB3761:
	.loc 7 457 0 discriminator 2
	lfs 0,4(11)
	fadds 0,9,0
	stfs 0,36(9)
	.loc 7 458 0 discriminator 2
	lfs 0,8(11)
	fadds 0,10,0
	stfs 0,40(9)
.LVL211:
.LBE3761:
.LBE3769:
.LBB3770:
.LBB3766:
	.loc 7 456 0 discriminator 2
	lfs 0,12(11)
	fadds 0,11,0
	stfs 0,44(9)
	.loc 7 457 0 discriminator 2
	lfs 0,16(11)
	fadds 0,12,0
	stfs 0,48(9)
	.loc 7 458 0 discriminator 2
	lfs 0,20(11)
	fadds 0,13,0
	stfs 0,52(9)
.LBE3766:
.LBE3770:
	.loc 2 1404 0 discriminator 2
	bne+ 7,.L228
	.loc 2 1400 0
	lwz 0,44(3)
	addi 8,8,3
.LVL212:
	cmpw 7,0,8
	bgt+ 7,.L229
	lwz 11,36(3)
.LVL213:
.L227:
.LBB3771:
	.loc 2 1434 0 discriminator 1
	cmpwi 7,11,0
	ble- 7,.L230
	lis 9,.LC20@ha
	lis 12,_ZN6idMath5iSqrtE@ha
.LBB3772:
.LBB3773:
.LBB3774:
.LBB3775:
.LBB3776:
.LBB3777:
.LBB3778:
	.loc 6 275 0
	lfs 5,.LC20@l(9)
	.loc 6 278 0
	lis 9,.LC22@ha
	lfs 6,.LC22@l(9)
.LBE3778:
.LBE3777:
.LBE3776:
.LBE3775:
.LBE3774:
.LBE3773:
.LBE3772:
	.loc 2 1434 0
	li 4,0
	li 5,0
.LVL214:
	la 12,_ZN6idMath5iSqrtE@l(12)
.LVL215:
.L232:
.LBB3799:
	.loc 2 1435 0
	lwz 9,40(3)
	.loc 2 1436 0
	li 10,0
	.loc 2 1435 0
	add 9,9,4
.LVL216:
.L231:
.LBB3798:
.LBB3795:
	.loc 2 1439 0 discriminator 2
	mulli 11,10,12
.LBB3783:
.LBB3784:
	.loc 7 435 0 discriminator 2
	lfs 13,24(9)
	lfs 12,20(9)
.LBE3784:
.LBE3783:
.LBE3795:
	.loc 2 1436 0 discriminator 2
	cmpwi 7,10,1
.LBB3796:
	.loc 2 1439 0 discriminator 2
	addi 0,11,32
.LBB3788:
.LBB3785:
	.loc 7 435 0 discriminator 2
	lfs 7,28(9)
.LBE3785:
.LBE3788:
	.loc 2 1439 0 discriminator 2
	add 11,9,0
.LVL217:
.LBB3789:
.LBB3786:
	.loc 7 435 0 discriminator 2
	lfsx 9,9,0
	lfs 8,4(11)
	.loc 2 1384 0 discriminator 2
	fneg 0,7
	.loc 7 435 0 discriminator 2
	lfs 10,8(11)
.LBE3786:
.LBE3789:
.LBE3796:
	.loc 2 1436 0 discriminator 2
	addi 10,10,1
.LBB3797:
.LBB3790:
.LBB3787:
	.loc 7 435 0 discriminator 2
	fmuls 11,8,13
	.loc 2 1384 0 discriminator 2
	fneg 13,13
	.loc 7 435 0 discriminator 2
	fmadds 11,9,12,11
	.loc 2 1384 0 discriminator 2
	fneg 12,12
	.loc 7 435 0 discriminator 2
	fmadds 11,10,7,11
.LVL218:
	.loc 7 431 0 discriminator 2
	fmadds 13,13,11,8
	fmadds 12,12,11,9
	fmadds 0,0,11,10
.LVL219:
.LBE3787:
.LBE3790:
.LBB3791:
.LBB3781:
	.loc 7 649 0 discriminator 2
	fmuls 11,13,13
.LVL220:
.LBE3781:
.LBE3791:
.LBB3792:
.LBB3793:
	.loc 7 424 0 discriminator 2
	stfsx 12,9,0
	.loc 7 425 0 discriminator 2
	stfs 13,4(11)
	.loc 7 649 0 discriminator 2
	fmadds 11,12,12,11
	.loc 7 426 0 discriminator 2
	stfs 0,8(11)
.LVL221:
	.loc 7 649 0 discriminator 2
	fmadds 11,0,0,11
	stfs 11,8(31)
.LVL222:
.LBE3793:
.LBE3792:
.LBB3794:
.LBB3782:
.LBB3780:
.LBB3779:
	.loc 6 275 0 discriminator 2
	fmuls 8,11,5
	.loc 6 270 0 discriminator 2
	lwz 8,8(31)
.LVL223:
	.loc 2 1384 0 discriminator 2
	fneg 8,8
	.loc 6 276 0 discriminator 2
	rlwinm 6,8,9,24,31
	rlwinm 8,8,19,21,29
	lwzx 7,12,8
	subfic 8,6,380
	rlwinm 8,8,22,0,8
	or 8,8,7
	.loc 6 277 0 discriminator 2
	stw 8,16(31)
	lfs 11,16(31)
.LVL224:
	fmr 9,11
.LVL225:
	.loc 6 278 0 discriminator 2
	fmul 10,9,9
	fmadd 10,8,10,6
	fmul 10,9,10
.LVL226:
	.loc 6 279 0 discriminator 2
	fmul 11,10,10
	fmadd 11,8,11,6
.LVL227:
	fmul 11,10,11
.LVL228:
	.loc 6 280 0 discriminator 2
	frsp 11,11
.LVL229:
.LBE3779:
.LBE3780:
	.loc 7 651 0 discriminator 2
	fmuls 12,12,11
.LVL230:
	.loc 7 652 0 discriminator 2
	fmuls 13,13,11
.LVL231:
	.loc 7 653 0 discriminator 2
	fmuls 0,0,11
.LVL232:
	.loc 7 651 0 discriminator 2
	stfsx 12,9,0
	.loc 7 652 0 discriminator 2
	stfs 13,4(11)
	.loc 7 653 0 discriminator 2
	stfs 0,8(11)
.LBE3782:
.LBE3794:
.LBE3797:
	.loc 2 1436 0 discriminator 2
	bne- 7,.L231
.LBE3798:
.LBE3799:
	.loc 2 1434 0
	lwz 0,36(3)
	addi 5,5,1
.LVL233:
	addi 4,4,60
	cmpw 7,0,5
	bgt+ 7,.L232
.LVL234:
.L230:
.LBE3771:
	.loc 2 1445 0
	li 0,1
.LBE3807:
	.loc 2 1446 0
	addi 11,31,96
.LBB3808:
	.loc 2 1445 0
	stb 0,29(3)
.LBE3808:
	.loc 2 1446 0
	lwz 0,4(11)
	lwz 21,-68(11)
	mtlr 0
	lwz 22,-64(11)
	lwz 23,-60(11)
	lwz 24,-56(11)
	lwz 25,-52(11)
	lwz 26,-48(11)
	lwz 27,-44(11)
	lwz 28,-40(11)
	lwz 29,-36(11)
	lwz 30,-32(11)
	lwz 31,-28(11)
.LCFI32:
	.cfi_def_cfa 11, 0
	lfd 29,-24(11)
	lfd 30,-16(11)
	lfd 31,-8(11)
	mr 1,11
.LCFI33:
	.cfi_def_cfa_register 1
	.cfi_restore 63
	.cfi_restore 62
	.cfi_restore 61
	.cfi_restore 31
	.cfi_restore 30
	.cfi_restore 29
	.cfi_restore 28
	.cfi_restore 27
	.cfi_restore 26
	.cfi_restore 25
	.cfi_restore 24
	.cfi_restore 23
	.cfi_restore 22
	.cfi_restore 21
	blr
	.cfi_endproc
.LFE2602:
	.size	_Z30R_DeriveTangentsWithoutNormalsP14srfTriangles_s, .-_Z30R_DeriveTangentsWithoutNormalsP14srfTriangles_s
	.align 2
	.globl _Z26R_DeriveUnsmoothedTangentsP14srfTriangles_s
	.type	_Z26R_DeriveUnsmoothedTangentsP14srfTriangles_s, @function
_Z26R_DeriveUnsmoothedTangentsP14srfTriangles_s:
.LFB2606:
	.loc 2 1587 0
	.cfi_startproc
.LVL235:
	mflr 0
	stwu 1,-16(1)
.LCFI34:
	.cfi_def_cfa_offset 16
	.cfi_register 65, 0
	stw 31,12(1)
	mr 31,3
	.cfi_offset 31, -4
	stw 0,20(1)
	.loc 2 1588 0
	lbz 0,29(3)
	.cfi_offset 65, 4
	cmpwi 7,0,0
	bne+ 7,.L244
.LVL236:
.LBB3811:
.LBB3812:
	.loc 2 1594 0
	lis 9,SIMDProcessor@ha
	lwz 4,40(31)
	lwz 3,SIMDProcessor@l(9)
.LVL237:
	lwz 5,84(31)
	lwz 9,0(3)
	lwz 6,36(31)
	lwz 0,280(9)
	mtctr 0
	bctrl
	.loc 2 1644 0
	li 0,1
	stb 0,29(31)
.LVL238:
.L244:
.LBE3812:
.LBE3811:
	.loc 2 1645 0
	lwz 0,20(1)
	lwz 31,12(1)
.LVL239:
	mtlr 0
	addi 1,1,16
.LCFI35:
	.cfi_def_cfa_offset 0
	.cfi_restore 31
	blr
	.cfi_endproc
.LFE2606:
	.size	_Z26R_DeriveUnsmoothedTangentsP14srfTriangles_s, .-_Z26R_DeriveUnsmoothedTangentsP14srfTriangles_s
	.align 2
	.globl _Z27R_RemoveDuplicatedTrianglesP14srfTriangles_s
	.type	_Z27R_RemoveDuplicatedTrianglesP14srfTriangles_s, @function
_Z27R_RemoveDuplicatedTrianglesP14srfTriangles_s:
.LFB2608:
	.loc 2 1851 0
	.cfi_startproc
.LVL240:
	mflr 0
	stwu 1,-72(1)
.LCFI36:
	.cfi_def_cfa_offset 72
	.cfi_register 65, 0
	stw 28,56(1)
	mr 28,3
	.cfi_offset 28, -16
	stw 0,76(1)
	stw 17,12(1)
	stw 18,16(1)
	stw 19,20(1)
	stw 20,24(1)
	stw 21,28(1)
	stw 22,32(1)
	stw 23,36(1)
	stw 24,40(1)
	stw 25,44(1)
	stw 26,48(1)
	stw 27,52(1)
	stw 29,60(1)
	stw 30,64(1)
	stw 31,68(1)
.LBB3813:
	.loc 2 1861 0
	lwz 10,44(3)
	cmpwi 7,10,0
	mr 0,10
	.cfi_offset 31, -4
	.cfi_offset 30, -8
	.cfi_offset 29, -12
	.cfi_offset 27, -20
	.cfi_offset 26, -24
	.cfi_offset 25, -28
	.cfi_offset 24, -32
	.cfi_offset 23, -36
	.cfi_offset 22, -40
	.cfi_offset 21, -44
	.cfi_offset 20, -48
	.cfi_offset 19, -52
	.cfi_offset 18, -56
	.cfi_offset 17, -60
	.cfi_offset 65, 4
	ble- 7,.L246
	.loc 2 1864 0
	lis 22,0x5555
	.loc 2 1861 0
	li 19,0
	li 23,0
	li 17,0
	.loc 2 1864 0
	ori 22,22,21846
.LVL241:
.L247:
	.loc 2 1861 0 discriminator 1
	addi 24,23,3
.LBE3813:
	.loc 2 1851 0 discriminator 1
	mr 25,19
	li 27,1
.LVL242:
.L255:
.LBB3814:
	.loc 2 1864 0
	mulhw 8,27,22
	srawi 9,27,31
	mr 21,27
	.loc 2 1866 0
	cmpw 7,24,0
	.loc 2 1864 0
	subf 8,9,8
	.loc 2 1863 0
	lwz 9,52(28)
	.loc 2 1864 0
	mulli 8,8,3
	.loc 2 1863 0
	lwzx 29,9,25
.LVL243:
	.loc 2 1864 0
	subf 8,8,27
	.loc 2 1851 0
	addi 27,27,1
	.loc 2 1865 0
	mulhw 7,27,22
	srawi 11,27,31
	.loc 2 1864 0
	add 8,8,23
	slwi 8,8,2
	lwzx 26,9,8
.LVL244:
	.loc 2 1865 0
	subf 11,11,7
	mulli 11,11,3
	subf 11,11,27
	add 11,11,23
	slwi 11,11,2
	lwzx 20,9,11
.LVL245:
	.loc 2 1866 0
	bge- 7,.L249
	mr 31,24
	.loc 2 1867 0
	slwi 30,31,2
	lwzx 11,9,30
.LVL246:
	cmpw 7,11,29
	beq- 7,.L250
.LVL247:
.L260:
	mr 0,10
	.loc 2 1866 0
	addi 31,31,3
.LVL248:
	cmpw 7,31,0
	bge- 7,.L249
.L261:
	lwz 9,52(28)
	.loc 2 1867 0
	slwi 30,31,2
	lwzx 11,9,30
	cmpw 7,11,29
	bne+ 7,.L260
.L250:
	.loc 2 1867 0 is_stmt 0 discriminator 1
	addi 11,31,1
	slwi 11,11,2
	lwzx 11,9,11
	cmpw 7,11,26
	bne+ 7,.L260
	.loc 2 1867 0 discriminator 2
	addi 11,31,2
	slwi 11,11,2
	lwzx 9,9,11
	cmpw 7,9,20
	bne+ 7,.L260
	.loc 2 1869 0 is_stmt 1
	subf 5,31,0
	lwz 3,48(28)
	addi 18,31,3
	addi 5,5,-3
	slwi 18,18,2
	slwi 5,5,2
	add 4,3,18
	add 3,3,30
	bl memmove
	.loc 2 1870 0
	lwz 5,44(28)
	lwz 4,52(28)
	.loc 2 1868 0
	addi 17,17,1
.LVL249:
	.loc 2 1870 0
	subf 5,31,5
	.loc 2 1872 0
	addi 31,31,-3
.LVL250:
	.loc 2 1870 0
	addi 5,5,-3
	add 3,4,30
	slwi 5,5,2
	add 4,4,18
	bl memmove
.LVL251:
	.loc 2 1871 0
	lwz 10,44(28)
	.loc 2 1866 0
	addi 31,31,3
.LVL252:
	.loc 2 1871 0
	addi 0,10,-3
	.loc 2 1866 0
	cmpw 7,31,0
	.loc 2 1871 0
	stw 0,44(28)
	mr 10,0
	.loc 2 1866 0
	blt+ 7,.L261
.LVL253:
.L249:
	.loc 2 1862 0
	cmpwi 7,21,3
	.loc 2 1866 0
	addi 25,25,4
	.loc 2 1862 0
	bne+ 7,.L255
.LVL254:
	.loc 2 1861 0
	cmpw 7,0,24
	.loc 2 1862 0
	addi 19,19,12
	.loc 2 1861 0
	ble- 7,.L256
	mr 23,24
	b .L247
.L256:
	.loc 2 1878 0
	cmpwi 7,17,0
	beq+ 7,.L246
	.loc 2 1879 0
	lis 9,common@ha
	lis 4,.LC23@ha
	lwz 3,common@l(9)
	la 4,.LC23@l(4)
	mr 5,17
	lwz 9,0(3)
	lwz 0,68(9)
	mtctr 0
	crxor 6,6,6
	bctrl
.LVL255:
.L246:
.LBE3814:
	.loc 2 1882 0
	lwz 0,76(1)
	lwz 17,12(1)
	mtlr 0
	lwz 18,16(1)
	lwz 19,20(1)
	lwz 20,24(1)
	lwz 21,28(1)
	lwz 22,32(1)
	lwz 23,36(1)
	lwz 24,40(1)
	lwz 25,44(1)
	lwz 26,48(1)
	lwz 27,52(1)
	lwz 28,56(1)
.LVL256:
	lwz 29,60(1)
	lwz 30,64(1)
	lwz 31,68(1)
	addi 1,1,72
.LCFI37:
	.cfi_def_cfa_offset 0
	.cfi_restore 31
	.cfi_restore 30
	.cfi_restore 29
	.cfi_restore 28
	.cfi_restore 27
	.cfi_restore 26
	.cfi_restore 25
	.cfi_restore 24
	.cfi_restore 23
	.cfi_restore 22
	.cfi_restore 21
	.cfi_restore 20
	.cfi_restore 19
	.cfi_restore 18
	.cfi_restore 17
	blr
	.cfi_endproc
.LFE2608:
	.size	_Z27R_RemoveDuplicatedTrianglesP14srfTriangles_s, .-_Z27R_RemoveDuplicatedTrianglesP14srfTriangles_s
	.align 2
	.globl _Z27R_RemoveDegenerateTrianglesP14srfTriangles_s
	.type	_Z27R_RemoveDegenerateTrianglesP14srfTriangles_s, @function
_Z27R_RemoveDegenerateTrianglesP14srfTriangles_s:
.LFB2609:
	.loc 2 1891 0
	.cfi_startproc
.LVL257:
	mflr 0
	stwu 1,-32(1)
.LCFI38:
	.cfi_def_cfa_offset 32
	.cfi_register 65, 0
	stw 30,24(1)
	mr 30,3
	.cfi_offset 30, -8
	stw 0,36(1)
	stw 27,12(1)
	stw 28,16(1)
	stw 29,20(1)
	stw 31,28(1)
.LBB3815:
	.loc 2 1898 0
	lwz 8,44(3)
	cmpwi 7,8,0
	mr 0,8
	.cfi_offset 31, -4
	.cfi_offset 29, -12
	.cfi_offset 28, -16
	.cfi_offset 27, -20
	.cfi_offset 65, 4
	ble- 7,.L262
	li 31,0
	li 27,0
	b .L267
.LVL258:
.L270:
	.loc 2 1902 0 discriminator 2
	beq- 1,.L264
	.loc 2 1902 0 is_stmt 0
	mr 0,8
.LVL259:
	.loc 2 1898 0 is_stmt 1
	addi 31,31,3
.LVL260:
	cmpw 7,31,0
	bge- 7,.L269
.LVL261:
.L267:
	.loc 2 1899 0
	lwz 9,52(30)
	.loc 2 1900 0
	addi 11,31,1
	.loc 2 1904 0
	subf 5,31,0
	.loc 2 1899 0
	slwi 29,31,2
	.loc 2 1900 0
	slwi 0,11,2
	.loc 2 1899 0
	lwzx 10,9,29
.LVL262:
	.loc 2 1900 0
	lwzx 11,9,0
.LVL263:
	.loc 2 1901 0
	addi 0,31,2
.LVL264:
	slwi 0,0,2
	.loc 2 1904 0
	addi 28,31,3
	.loc 2 1902 0
	cmpw 7,10,11
	.loc 2 1901 0
	lwzx 0,9,0
.LVL265:
	.loc 2 1904 0
	addi 5,5,-3
	slwi 28,28,2
	slwi 5,5,2
	.loc 2 1902 0
	cmpw 6,10,0
	cmpw 1,11,0
	beq- 7,.L264
	.loc 2 1902 0 is_stmt 0 discriminator 1
	bne+ 6,.L270
.L264:
	.loc 2 1904 0 is_stmt 1
	lwz 3,48(30)
	.loc 2 1903 0
	addi 27,27,1
.LVL266:
	.loc 2 1904 0
	add 4,3,28
	add 3,3,29
	bl memmove
.LVL267:
	.loc 2 1905 0
	lwz 4,52(30)
	cmpwi 7,4,0
	.loc 2 1906 0
	add 3,4,29
	add 4,4,28
	.loc 2 1905 0
	beq- 7,.L266
	.loc 2 1906 0
	lwz 5,44(30)
	subf 5,31,5
	addi 5,5,-3
	slwi 5,5,2
	bl memmove
.L266:
	.loc 2 1908 0
	lwz 8,44(30)
	.loc 2 1909 0
	addi 31,31,-3
.LVL268:
	.loc 2 1898 0
	addi 31,31,3
.LVL269:
	.loc 2 1908 0
	addi 0,8,-3
	.loc 2 1898 0
	cmpw 7,31,0
	.loc 2 1908 0
	stw 0,44(30)
	mr 8,0
.LVL270:
	.loc 2 1898 0
	blt+ 7,.L267
.L269:
	.loc 2 1915 0
	cmpwi 7,27,0
	bne- 7,.L271
.LVL271:
.L262:
.LBE3815:
	.loc 2 1918 0
	lwz 0,36(1)
	lwz 27,12(1)
	mtlr 0
	lwz 28,16(1)
	lwz 29,20(1)
	lwz 30,24(1)
.LVL272:
	lwz 31,28(1)
	addi 1,1,32
	.cfi_remember_state
.LCFI39:
	.cfi_def_cfa_offset 0
	.cfi_restore 31
	.cfi_restore 30
	.cfi_restore 29
	.cfi_restore 28
	.cfi_restore 27
	blr
.LVL273:
.L271:
.LCFI40:
	.cfi_restore_state
.LBB3816:
	.loc 2 1916 0
	lis 9,common@ha
	lis 4,.LC24@ha
	lwz 3,common@l(9)
	mr 5,27
	la 4,.LC24@l(4)
	lwz 9,0(3)
	lwz 0,68(9)
	mtctr 0
	crxor 6,6,6
	bctrl
.LBE3816:
	.loc 2 1918 0
	lwz 0,36(1)
	lwz 27,12(1)
.LVL274:
	mtlr 0
	lwz 28,16(1)
	lwz 29,20(1)
	lwz 30,24(1)
.LVL275:
	lwz 31,28(1)
.LVL276:
	addi 1,1,32
	.cfi_restore 27
	.cfi_restore 28
	.cfi_restore 29
	.cfi_restore 30
	.cfi_restore 31
.LCFI41:
	.cfi_def_cfa_offset 0
	blr
	.cfi_endproc
.LFE2609:
	.size	_Z27R_RemoveDegenerateTrianglesP14srfTriangles_s, .-_Z27R_RemoveDegenerateTrianglesP14srfTriangles_s
	.align 2
	.globl _Z28R_TestDegenerateTextureSpaceP14srfTriangles_s
	.type	_Z28R_TestDegenerateTextureSpaceP14srfTriangles_s, @function
_Z28R_TestDegenerateTextureSpaceP14srfTriangles_s:
.LFB2610:
	.loc 2 1925 0
	.cfi_startproc
.LVL277:
	.loc 2 1944 0
	blr
	.cfi_endproc
.LFE2610:
	.size	_Z28R_TestDegenerateTextureSpaceP14srfTriangles_s, .-_Z28R_TestDegenerateTextureSpaceP14srfTriangles_s
	.align 2
	.globl _Z19R_RemoveUnusedVertsP14srfTriangles_s
	.type	_Z19R_RemoveUnusedVertsP14srfTriangles_s, @function
_Z19R_RemoveUnusedVertsP14srfTriangles_s:
.LFB2611:
	.loc 2 1951 0
	.cfi_startproc
.LVL278:
	mflr 0
	stwu 1,-40(1)
.LCFI42:
	.cfi_def_cfa_offset 40
	.cfi_register 65, 0
	stw 28,24(1)
	stw 0,44(1)
	stw 31,36(1)
	mr 31,3
	.cfi_offset 31, -4
	.cfi_offset 65, 4
	.cfi_offset 28, -16
	stw 24,8(1)
	stw 25,12(1)
	stw 26,16(1)
	stw 27,20(1)
	stw 29,28(1)
	stw 30,32(1)
.LBB3817:
	.loc 2 1957 0
	lwz 3,36(3)
.LVL279:
	slwi 3,3,2
	.cfi_offset 30, -8
	.cfi_offset 29, -12
	.cfi_offset 27, -20
	.cfi_offset 26, -24
	.cfi_offset 25, -28
	.cfi_offset 24, -32
	bl _Z20R_ClearedStaticAlloci
	.loc 2 1959 0
	lwz 0,44(31)
	.loc 2 1957 0
	mr 28,3
.LVL280:
	.loc 2 1959 0
	cmpwi 7,0,0
	ble- 7,.L274
	.loc 2 1962 0
	lis 26,.LC25@ha
	.loc 2 1959 0
	li 30,0
	.loc 2 1962 0
	lis 24,common@ha
	la 26,.LC25@l(26)
	.loc 2 1964 0
	li 25,1
.LVL281:
.L280:
	.loc 2 1960 0
	lwz 9,48(31)
	.loc 2 1951 0
	slwi 27,30,2
	.loc 2 1962 0
	mr 4,26
	.loc 2 1959 0
	addi 30,30,1
	.loc 2 1960 0
	lwzx 29,9,27
.LVL282:
	.loc 2 1961 0
	cmpwi 7,29,0
	blt- 7,.L275
	.loc 2 1961 0 is_stmt 0 discriminator 1
	lwz 0,36(31)
	cmpw 7,29,0
	blt- 7,.L276
.L275:
	.loc 2 1962 0 is_stmt 1
	lwz 3,common@l(24)
	lwz 9,0(3)
	lwz 0,96(9)
	mtctr 0
	crxor 6,6,6
	bctrl
.LVL283:
.L276:
	.loc 2 1964 0
	slwi 29,29,2
.LVL284:
	.loc 2 1969 0
	mr 4,26
	.loc 2 1964 0
	stwx 25,28,29
	.loc 2 1966 0
	lwz 9,52(31)
	cmpwi 7,9,0
	beq- 7,.L277
	.loc 2 1967 0
	lwzx 29,9,27
.LVL285:
	.loc 2 1968 0
	cmpwi 7,29,0
	blt- 7,.L278
	.loc 2 1968 0 is_stmt 0 discriminator 1
	lwz 0,36(31)
	cmpw 7,29,0
	blt- 7,.L279
.L278:
	.loc 2 1969 0 is_stmt 1
	lwz 3,common@l(24)
	lwz 9,0(3)
	lwz 0,96(9)
	mtctr 0
	crxor 6,6,6
	bctrl
.LVL286:
.L279:
	.loc 2 1971 0
	slwi 29,29,2
.LVL287:
	stwx 25,28,29
.L277:
.LVL288:
	.loc 2 1959 0
	lwz 0,44(31)
	cmpw 7,0,30
	bgt+ 7,.L280
.LVL289:
.L274:
	.loc 2 1976 0 discriminator 1
	lwz 8,36(31)
	li 10,0
	cmpwi 7,8,0
	ble- 7,.L281
	.loc 2 1951 0
	addi 11,28,-4
	li 9,0
.LVL290:
.L283:
	.loc 2 1977 0
	lwzu 0,4(11)
	.loc 2 1976 0
	addi 9,9,1
	.loc 2 1977 0
	cmpwi 7,0,0
	beq- 7,.L282
	.loc 2 1980 0
	addi 10,10,1
	stw 10,0(11)
.LVL291:
	lwz 8,36(31)
.LVL292:
.L282:
	.loc 2 1976 0
	cmpw 7,8,9
	bgt+ 7,.L283
.LVL293:
.L281:
	.loc 2 1984 0
	cmpw 7,10,8
	beq- 7,.L284
.LVL294:
	.loc 2 1985 0 discriminator 1
	lwz 0,44(31)
	cmpwi 7,0,0
	ble- 7,.L285
	.loc 2 1985 0 is_stmt 0
	li 9,0
.LVL295:
.L287:
	.loc 2 1986 0 is_stmt 1
	lwz 11,48(31)
	.loc 2 1951 0
	slwi 0,9,2
	.loc 2 1985 0
	addi 9,9,1
	.loc 2 1986 0
	lwzx 8,11,0
	slwi 8,8,2
	lwzx 8,28,8
	addi 8,8,-1
	stwx 8,11,0
	.loc 2 1987 0
	lwz 11,52(31)
	cmpwi 7,11,0
	beq- 7,.L286
	.loc 2 1988 0
	lwzx 8,11,0
	slwi 8,8,2
	lwzx 8,28,8
	addi 8,8,-1
	stwx 8,11,0
.L286:
.LVL296:
	.loc 2 1985 0
	lwz 0,44(31)
	cmpw 7,0,9
	bgt+ 7,.L287
.LVL297:
.L285:
	.loc 2 1993 0
	cmpwi 7,10,0
	.loc 2 1991 0
	stw 10,36(31)
.LVL298:
	.loc 2 1993 0
	ble- 7,.L284
	.loc 2 1951 0
	addi 5,28,-4
	li 6,0
	.loc 2 1993 0
	li 7,0
.LVL299:
.L289:
	.loc 2 1994 0
	lwzu 11,4(5)
.LVL300:
	.loc 2 1993 0
	addi 7,7,1
	.loc 2 1995 0
	cmpwi 7,11,0
	.loc 2 1998 0
	addi 9,11,-1
	mulli 9,9,60
	.loc 2 1995 0
	beq- 7,.L288
	.loc 2 1998 0
	lwz 11,40(31)
.LBB3818:
.LBB3819:
.LBB3820:
.LBB3821:
	.loc 7 424 0
	lwzx 0,11,6
.LBE3821:
.LBE3820:
.LBE3819:
.LBE3818:
	.loc 2 1998 0
	add 8,11,6
.LBB3832:
.LBB3830:
.LBB3824:
.LBB3822:
	.loc 7 424 0
	stwx 0,11,9
.LBE3822:
.LBE3824:
.LBE3830:
.LBE3832:
	.loc 2 1998 0
	add 9,11,9
.LVL301:
.LBB3833:
.LBB3831:
.LBB3825:
.LBB3823:
	.loc 7 425 0
	lwz 0,4(8)
	stw 0,4(9)
	.loc 7 426 0
	lwz 0,8(8)
	stw 0,8(9)
.LBE3823:
.LBE3825:
	.file 8 "d:/Data/Nintendo/DoomGX/src/renderer/../idlib/../idlib/geometry/DrawVert.h"
	.loc 8 40 0
	lwz 10,12(8)
	lwz 11,16(8)
	stw 10,12(9)
	stw 11,16(9)
.LVL302:
.LBB3826:
.LBB3827:
	.loc 7 424 0
	lwz 0,20(8)
	stw 0,20(9)
	.loc 7 425 0
	lwz 0,24(8)
	stw 0,24(9)
	.loc 7 426 0
	lwz 0,28(8)
	stw 0,28(9)
.LVL303:
.LBE3827:
.LBE3826:
.LBB3828:
.LBB3829:
	.loc 7 424 0
	lwz 0,32(8)
	stw 0,32(9)
	.loc 7 425 0
	lwz 0,36(8)
	stw 0,36(9)
	.loc 7 426 0
	lwz 0,40(8)
	stw 0,40(9)
.LVL304:
	.loc 7 424 0
	lwz 0,44(8)
	stw 0,44(9)
	.loc 7 425 0
	lwz 0,48(8)
	stw 0,48(9)
	.loc 7 426 0
	lwz 0,52(8)
	stw 0,52(9)
.LBE3829:
.LBE3828:
	.loc 8 40 0
	lwz 0,56(8)
	stw 0,56(9)
.LVL305:
.L288:
.LBE3831:
.LBE3833:
	.loc 2 1993 0
	lwz 0,36(31)
	addi 6,6,60
	cmpw 7,0,7
	bgt+ 7,.L289
.LVL306:
.L284:
	.loc 2 2004 0
	mr 3,28
	bl _Z12R_StaticFreePv
.LBE3817:
	.loc 2 2005 0
	lwz 0,44(1)
	lwz 24,8(1)
	mtlr 0
	lwz 25,12(1)
	lwz 26,16(1)
	lwz 27,20(1)
	lwz 28,24(1)
.LVL307:
	lwz 29,28(1)
	lwz 30,32(1)
	lwz 31,36(1)
.LVL308:
	addi 1,1,40
.LCFI43:
	.cfi_def_cfa_offset 0
	.cfi_restore 31
	.cfi_restore 30
	.cfi_restore 29
	.cfi_restore 28
	.cfi_restore 27
	.cfi_restore 26
	.cfi_restore 25
	.cfi_restore 24
	blr
	.cfi_endproc
.LFE2611:
	.size	_Z19R_RemoveUnusedVertsP14srfTriangles_s, .-_Z19R_RemoveUnusedVertsP14srfTriangles_s
	.align 2
	.globl _Z18R_ReverseTrianglesP14srfTriangles_s
	.type	_Z18R_ReverseTrianglesP14srfTriangles_s, @function
_Z18R_ReverseTrianglesP14srfTriangles_s:
.LFB2614:
	.loc 2 2078 0
	.cfi_startproc
.LVL309:
.LBB3834:
	.loc 2 2084 0
	lwz 0,36(3)
	cmpwi 7,0,0
	ble- 7,.L296
	lis 11,vec3_origin@ha
	li 10,0
	la 9,vec3_origin@l(11)
	lfs 9,vec3_origin@l(11)
	lfs 10,4(9)
	li 11,0
	lfs 11,8(9)
.LVL310:
.L297:
	.loc 2 2085 0 discriminator 2
	lwz 9,40(3)
	.loc 2 2084 0 discriminator 2
	addi 11,11,1
	.loc 2 2085 0 discriminator 2
	add 9,9,10
.LVL311:
	.loc 2 2084 0 discriminator 2
	addi 10,10,60
.LBB3835:
.LBB3836:
	.loc 7 431 0 discriminator 2
	lfs 12,24(9)
	lfs 13,28(9)
	lfs 0,20(9)
	fsubs 12,10,12
	fsubs 13,11,13
.LVL312:
	fsubs 0,9,0
.LBE3836:
.LBE3835:
.LBB3837:
.LBB3838:
	.loc 7 425 0 discriminator 2
	stfs 12,24(9)
	.loc 7 426 0 discriminator 2
	stfs 13,28(9)
	.loc 7 424 0 discriminator 2
	stfs 0,20(9)
.LBE3838:
.LBE3837:
	.loc 2 2084 0 discriminator 2
	lwz 0,36(3)
	cmpw 7,0,11
	bgt+ 7,.L297
.LVL313:
.L296:
.LBB3839:
	.loc 2 2089 0 discriminator 1
	lwz 0,44(3)
	cmpwi 7,0,0
	blelr- 7
	.loc 2 2089 0 is_stmt 0
	li 11,4
	li 9,0
.LVL314:
.L299:
.LBB3840:
	.loc 2 2092 0 is_stmt 1 discriminator 2
	lwz 10,48(3)
	.loc 2 2078 0 discriminator 2
	slwi 0,9,2
.LBE3840:
	.loc 2 2089 0 discriminator 2
	addi 9,9,3
.LBB3841:
	.loc 2 2093 0 discriminator 2
	lwzx 7,10,11
	.loc 2 2092 0 discriminator 2
	lwzx 8,10,0
.LVL315:
	.loc 2 2093 0 discriminator 2
	stwx 7,10,0
	.loc 2 2094 0 discriminator 2
	lwz 10,48(3)
	stwx 8,10,11
.LBE3841:
	.loc 2 2089 0 discriminator 2
	addi 11,11,12
	lwz 0,44(3)
.LVL316:
	cmpw 7,0,9
	bgt+ 7,.L299
	blr
.LBE3839:
.LBE3834:
	.cfi_endproc
.LFE2614:
	.size	_Z18R_ReverseTrianglesP14srfTriangles_s, .-_Z18R_ReverseTrianglesP14srfTriangles_s
	.align 2
	.globl _Z22R_DeformInfoMemoryUsedP12deformInfo_s
	.type	_Z22R_DeformInfoMemoryUsedP12deformInfo_s, @function
_Z22R_DeformInfoMemoryUsedP12deformInfo_s:
.LFB2621:
	.loc 2 2258 0
	.cfi_startproc
.LVL317:
.LBB3842:
	.loc 2 2261 0
	lwz 0,20(3)
	li 9,0
	cmpwi 7,0,0
	beq- 7,.L303
.LVL318:
	.loc 2 2262 0
	lwz 9,16(3)
	slwi 9,9,2
.LVL319:
.L303:
	.loc 2 2264 0
	lwz 0,24(3)
	cmpwi 7,0,0
	beq- 7,.L304
	.loc 2 2265 0
	lwz 0,16(3)
	slwi 0,0,2
	add 9,9,0
.L304:
	.loc 2 2267 0
	lwz 0,40(3)
	cmpwi 7,0,0
	beq- 7,.L305
	.loc 2 2268 0
	lwz 0,36(3)
	slwi 0,0,4
	add 9,9,0
.L305:
	.loc 2 2270 0
	lwz 0,44(3)
	cmpwi 7,0,0
	beq- 7,.L306
	.loc 2 2271 0
	lwz 0,0(3)
	mulli 0,0,20
	add 9,9,0
.L306:
	.loc 2 2273 0
	lwz 0,12(3)
	cmpwi 7,0,0
	beq- 7,.L307
	.loc 2 2274 0
	lwz 0,8(3)
	slwi 0,0,2
	add 9,9,0
.L307:
	.loc 2 2276 0
	lwz 0,32(3)
	cmpwi 7,0,0
	beq- 7,.L308
	.loc 2 2277 0
	lwz 0,28(3)
	slwi 0,0,2
	add 9,9,0
.L308:
.LVL320:
.LBE3842:
	.loc 2 2282 0
	addi 3,9,48
.LVL321:
	blr
	.cfi_endproc
.LFE2621:
	.size	_Z22R_DeformInfoMemoryUsedP12deformInfo_s, .-_Z22R_DeformInfoMemoryUsedP12deformInfo_s
	.section	.text._ZN19idDynamicBlockAllocI10idDrawVertLi1048576ELi1024EE19FreeEmptyBaseBlocksEv,"axG",@progbits,_ZN19idDynamicBlockAllocI10idDrawVertLi1048576ELi1024EE19FreeEmptyBaseBlocksEv,comdat
	.align 2
	.weak	_ZN19idDynamicBlockAllocI10idDrawVertLi1048576ELi1024EE19FreeEmptyBaseBlocksEv
	.type	_ZN19idDynamicBlockAllocI10idDrawVertLi1048576ELi1024EE19FreeEmptyBaseBlocksEv, @function
_ZN19idDynamicBlockAllocI10idDrawVertLi1048576ELi1024EE19FreeEmptyBaseBlocksEv:
.LFB2843:
	.loc 4 536 0
	.cfi_startproc
.LVL322:
	mflr 0
	stwu 1,-48(1)
.LCFI44:
	.cfi_def_cfa_offset 48
	.cfi_register 65, 0
	mfcr 12
	stw 31,44(1)
	mr 31,3
	.cfi_offset 31, -4
	.cfi_register 70, 12
	stw 0,52(1)
	stw 23,12(1)
	stw 24,16(1)
	stw 25,20(1)
	stw 26,24(1)
	stw 27,28(1)
	stw 28,32(1)
	stw 29,36(1)
	stw 30,40(1)
	stw 12,8(1)
.LBB3883:
	.loc 4 539 0
	lwz 30,0(3)
	.cfi_offset 70, -40
	.cfi_offset 30, -8
	.cfi_offset 29, -12
	.cfi_offset 28, -16
	.cfi_offset 27, -20
	.cfi_offset 26, -24
	.cfi_offset 25, -28
	.cfi_offset 24, -32
	.cfi_offset 23, -36
	.cfi_offset 65, 4
.LVL323:
	cmpwi 7,30,0
	beq- 7,.L310
	lwz 0,0(30)
.LBB3884:
.LBB3885:
	.loc 4 881 0
	li 28,0
.LBE3885:
.LBE3884:
	.loc 4 555 0
	lis 27,_ZN5idLib3sysE@ha
	.loc 4 540 0
	lwz 29,8(30)
.LVL324:
	cmpwi 7,0,0
	.loc 4 542 0
	blt- 7,.L361
.LVL325:
.L371:
	cmpwi 4,29,0
.L313:
.LVL326:
	.loc 4 539 0 discriminator 1
	beq- 4,.L310
.L376:
	.loc 4 539 0 is_stmt 0
	lwz 0,0(29)
	cmpwi 7,0,0
.LVL327:
.L315:
	.loc 4 540 0 is_stmt 1
	mr 30,29
	lwz 29,8(30)
.LVL328:
	.loc 4 542 0
	bge+ 7,.L371
.LVL329:
.L361:
	.loc 4 542 0 is_stmt 0 discriminator 1
	lwz 23,12(30)
	cmpwi 4,29,0
	cmpwi 7,23,0
	beq- 7,.L313
	.loc 4 542 0 discriminator 3
	beq- 4,.L314
	.loc 2 2282 0 is_stmt 1 discriminator 5
	lwz 0,0(29)
	.loc 4 542 0 discriminator 5
	cmpwi 7,0,0
	bge+ 7,.L315
.L314:
.LVL330:
.LBB3950:
.LBB3947:
.LBB3886:
.LBB3887:
	.loc 5 209 0 discriminator 6
	lwz 9,16(23)
.LBE3887:
.LBE3886:
	.loc 4 880 0 discriminator 6
	addi 24,31,8
.LVL331:
.LBB3940:
.LBB3937:
	.loc 5 209 0 discriminator 6
	cmpwi 7,9,0
	beq- 7,.L316
	.loc 5 210 0
	lwz 0,12(23)
	stw 0,12(9)
	.loc 5 214 0
	lwz 9,12(23)
	cmpwi 7,9,0
	beq- 7,.L318
.L383:
	.loc 5 215 0
	lwz 0,16(23)
	stw 0,16(9)
.L319:
	.loc 5 219 0
	lwz 9,8(23)
	lwz 11,20(9)
	addi 0,11,-1
	stw 0,20(9)
	.loc 5 222 0
	lwz 25,8(23)
.LVL332:
	lwz 0,8(31)
	cmpw 7,25,0
	beq- 7,.L370
.LVL333:
.L367:
	lwz 0,20(25)
	cmpwi 7,0,1
	ble- 7,.L372
.L370:
	.loc 5 240 0
	cmpwi 7,25,0
	beq- 7,.L337
.L373:
	lwz 9,28(25)
	cmpwi 7,9,0
	beq- 7,.L337
	.loc 5 242 0
	lwz 0,0(9)
	lwz 9,0(25)
	cmpw 7,9,0
	ble- 7,.L343
	.loc 5 243 0
	stw 0,0(25)
.L343:
	.loc 5 240 0
	lwz 25,8(25)
.LVL334:
	cmpwi 7,25,0
	bne+ 7,.L373
.L337:
.LVL335:
.LBB3888:
.LBB3889:
.LBB3890:
	.loc 4 228 0
	addi 3,23,-4
	bl _ZdlPv
	.loc 4 230 0
	lwz 9,24(31)
.LBE3890:
.LBE3889:
.LBE3888:
.LBB3893:
	.loc 5 251 0
	lwz 3,8(31)
.LBE3893:
.LBB3901:
.LBB3892:
.LBB3891:
	.loc 4 230 0
	addi 0,9,-1
	stw 0,24(31)
.LBE3891:
.LBE3892:
.LBE3901:
.LBB3902:
	.loc 5 251 0
	lwz 0,20(3)
	cmpwi 7,0,1
	beq- 7,.L374
.L344:
.LBE3902:
.LBE3937:
.LBE3940:
	.loc 4 881 0
	stw 28,12(30)
	.loc 4 882 0
	lwz 11,48(31)
	.loc 4 883 0
	lwz 9,52(31)
	.loc 4 882 0
	addi 0,11,-1
	stw 0,48(31)
.LBB3941:
.LBB3942:
	.loc 4 387 0
	lwz 0,0(30)
	srawi 11,0,31
	xor 0,11,0
	subf 0,11,0
.LBE3942:
.LBE3941:
	.loc 4 883 0
	subf 0,0,9
	stw 0,52(31)
.LBE3947:
.LBE3950:
	.loc 4 544 0
	lwz 9,4(30)
	.loc 4 545 0
	lwz 0,8(30)
	.loc 4 544 0
	cmpwi 7,9,0
	beq- 7,.L345
.LVL336:
.L381:
	.loc 4 545 0
	stw 0,8(9)
	.loc 4 549 0
	lwz 9,8(30)
	.loc 4 550 0
	lwz 0,4(30)
	.loc 4 549 0
	cmpwi 7,9,0
	beq- 7,.L347
.L382:
	.loc 4 550 0
	stw 0,4(9)
	.loc 4 554 0
	lbz 0,29(31)
	cmpwi 7,0,0
	bne- 7,.L375
.L349:
	.loc 4 557 0
	lwz 11,32(31)
	.loc 4 559 0
	mr 3,30
	.loc 4 558 0
	lwz 9,36(31)
	.loc 4 557 0
	addi 0,11,-1
	stw 0,32(31)
.LBB3951:
.LBB3952:
	.loc 4 387 0
	lwz 0,0(30)
	srawi 11,0,31
	xor 0,11,0
	subf 0,11,0
.LBE3952:
.LBE3951:
	.loc 4 558 0
	subfic 0,0,-16
	add 0,9,0
	stw 0,36(31)
	.loc 4 559 0
	bl _Z10Mem_Free16Pv
.LVL337:
	.loc 4 539 0
	bne+ 4,.L376
.LVL338:
.L310:
.LBE3883:
	.loc 4 566 0
	lwz 0,52(1)
	lwz 12,8(1)
	mtlr 0
	lwz 23,12(1)
	lwz 24,16(1)
	mtcrf 8,12
	lwz 25,20(1)
	lwz 26,24(1)
	lwz 27,28(1)
	lwz 28,32(1)
	lwz 29,36(1)
	lwz 30,40(1)
	lwz 31,44(1)
.LVL339:
	addi 1,1,48
	.cfi_remember_state
.LCFI45:
	.cfi_def_cfa_offset 0
	.cfi_restore 70
	.cfi_restore 31
	.cfi_restore 30
	.cfi_restore 29
	.cfi_restore 28
	.cfi_restore 27
	.cfi_restore 26
	.cfi_restore 25
	.cfi_restore 24
	.cfi_restore 23
	blr
.LVL340:
.L372:
.LCFI46:
	.cfi_restore_state
.LBB3961:
.LBB3953:
.LBB3948:
.LBB3944:
.LBB3938:
	.loc 5 224 0
	lwz 26,12(25)
	cmpwi 7,26,0
	beq- 7,.L377
.LVL341:
.LBB3903:
.LBB3904:
	.loc 5 445 0
	lwz 11,24(25)
.LVL342:
	lwz 9,12(11)
	cmpwi 7,9,0
	bne+ 7,.L362
	b .L384
.LVL343:
.L352:
	mr 9,0
.LVL344:
.L362:
	.loc 5 446 0
	stw 26,8(11)
.LVL345:
	.loc 5 445 0
	mr 11,9
	lwz 0,12(9)
	cmpwi 7,0,0
	bne+ 7,.L352
.L322:
	.loc 5 448 0
	stw 26,8(9)
	.loc 5 449 0
	lwz 0,24(26)
	stw 0,12(9)
	.loc 5 450 0
	lwz 11,24(26)
	stw 9,16(11)
	.loc 5 451 0
	lwz 0,24(25)
	.loc 5 452 0
	lwz 9,20(26)
.LVL346:
	.loc 5 451 0
	stw 0,24(26)
	.loc 5 452 0
	lwz 0,20(25)
	add 0,9,0
	stw 0,20(26)
	.loc 5 455 0
	lwz 9,16(25)
	cmpwi 7,9,0
	beq- 7,.L324
	.loc 5 456 0
	stw 26,12(9)
.L325:
	.loc 5 460 0
	lwz 0,16(25)
.LBB3905:
.LBB3906:
.LBB3907:
	.loc 4 228 0
	addi 3,25,-4
.LBE3907:
.LBE3906:
.LBE3905:
	.loc 5 461 0
	lwz 9,8(26)
	.loc 5 460 0
	stw 0,16(26)
	.loc 5 461 0
	lwz 11,20(9)
	addi 0,11,-1
	stw 0,20(9)
.LVL347:
.LBB3910:
.LBB3909:
.LBB3908:
	.loc 4 228 0
	bl _ZdlPv
.LVL348:
	.loc 4 230 0
	lwz 9,16(24)
	addi 0,9,-1
	stw 0,16(24)
.LVL349:
.L326:
.LBE3908:
.LBE3909:
.LBE3910:
.LBE3904:
.LBE3903:
	.loc 5 231 0
	lwz 11,28(26)
	lwz 9,0(26)
	lwz 0,0(11)
	cmpw 7,9,0
	ble- 7,.L331
	.loc 5 232 0
	stw 0,0(26)
.L331:
	.loc 5 235 0
	lwz 0,20(26)
	cmpwi 7,0,4
	bgt- 7,.L379
	.loc 5 222 0
	lwz 25,8(26)
.LVL350:
	lwz 0,0(24)
	cmpw 7,25,0
	bne+ 7,.L367
	b .L370
.LVL351:
.L377:
	.loc 5 226 0
	lwz 3,16(25)
	mr 26,25
	cmpwi 7,3,0
	beq- 7,.L326
.LVL352:
.LBB3912:
.LBB3913:
	.loc 5 445 0
	lwz 11,24(3)
.LVL353:
	lwz 9,12(11)
	cmpwi 7,9,0
	bne+ 7,.L363
	b .L385
.LVL354:
.L355:
	mr 9,0
.LVL355:
.L363:
	.loc 5 446 0
	stw 25,8(11)
.LVL356:
	.loc 5 445 0
	mr 11,9
	lwz 0,12(9)
	cmpwi 7,0,0
	bne+ 7,.L355
.L327:
	.loc 5 448 0
	stw 25,8(9)
	.loc 5 449 0
	lwz 0,24(25)
	stw 0,12(9)
	.loc 5 450 0
	lwz 11,24(25)
	stw 9,16(11)
	.loc 5 451 0
	lwz 0,24(3)
	.loc 5 452 0
	lwz 9,20(25)
.LVL357:
	.loc 5 451 0
	stw 0,24(25)
	.loc 5 452 0
	lwz 0,20(3)
	add 0,9,0
	stw 0,20(25)
	.loc 5 455 0
	lwz 9,16(3)
	cmpwi 7,9,0
	beq- 7,.L329
	.loc 5 456 0
	stw 25,12(9)
.L330:
	.loc 5 460 0
	lwz 0,16(3)
.LBB3914:
.LBB3915:
.LBB3916:
	.loc 4 228 0
	addi 3,3,-4
.LBE3916:
.LBE3915:
.LBE3914:
	.loc 5 461 0
	lwz 9,8(25)
.LBB3921:
.LBB3919:
.LBB3917:
	.loc 4 230 0
	mr 26,25
.LBE3917:
.LBE3919:
.LBE3921:
	.loc 5 460 0
	stw 0,16(25)
	.loc 5 461 0
	lwz 11,20(9)
	addi 0,11,-1
	stw 0,20(9)
.LVL358:
.LBB3922:
.LBB3920:
.LBB3918:
	.loc 4 228 0
	bl _ZdlPv
.LVL359:
	.loc 4 230 0
	lwz 9,16(24)
	addi 0,9,-1
	stw 0,16(24)
.LVL360:
	b .L326
.LVL361:
.L324:
.LBE3918:
.LBE3920:
.LBE3922:
.LBE3913:
.LBE3912:
.LBB3925:
.LBB3911:
	.loc 5 458 0
	lwz 9,8(25)
	stw 26,24(9)
	b .L325
.LVL362:
.L384:
	.loc 5 445 0
	mr 9,11
	b .L322
.LVL363:
.L329:
.LBE3911:
.LBE3925:
.LBB3926:
.LBB3923:
	.loc 5 458 0
	lwz 9,8(3)
	stw 25,24(9)
	b .L330
.LVL364:
.L379:
.LBE3923:
.LBE3926:
.LBB3927:
.LBB3928:
.LBB3929:
.LBB3930:
.LBB3931:
.LBB3932:
	.loc 4 215 0
	lwz 9,24(31)
	.loc 4 216 0
	li 3,36
	.loc 4 215 0
	addi 0,9,1
	stw 0,24(31)
	.loc 4 216 0
	bl _Znwj
.LVL365:
.LBE3932:
.LBE3931:
	.loc 5 378 0
	stw 28,12(3)
	.loc 5 399 0
	addi 10,3,4
	.loc 5 377 0
	stw 28,4(3)
	.loc 5 379 0
	stw 28,16(3)
	.loc 5 380 0
	stw 28,20(3)
	.loc 5 381 0
	stw 28,24(3)
	.loc 5 382 0
	stw 28,28(3)
	.loc 5 383 0
	stw 28,32(3)
	.loc 5 384 0
	stw 28,8(3)
.LBE3930:
.LBE3929:
	.loc 5 400 0
	lwz 0,8(26)
	stw 0,12(3)
	.loc 5 403 0
	lwz 9,24(26)
.LVL366:
	.loc 5 404 0
	stw 10,8(9)
.LVL367:
	.loc 5 405 0
	lwz 0,20(26)
	cmpwi 7,0,3
	ble- 7,.L333
	li 11,3
.LVL368:
.L334:
	.loc 5 406 0
	lwz 9,12(9)
.LVL369:
	.loc 5 405 0
	addi 11,11,2
.LVL370:
	.loc 5 407 0
	stw 10,8(9)
	.loc 5 405 0
	lwz 0,20(26)
	cmpw 7,11,0
	blt+ 7,.L334
.LVL371:
.L333:
	.loc 5 410 0
	lwz 0,0(9)
	stw 0,4(3)
	.loc 5 411 0
	lwz 0,20(26)
	srawi 0,0,1
	addze 0,0
	stw 0,24(3)
	.loc 5 412 0
	lwz 11,24(26)
	.loc 5 413 0
	stw 9,32(3)
	.loc 5 412 0
	stw 11,28(3)
	.loc 5 415 0
	lwz 11,20(26)
	subf 0,0,11
	stw 0,20(26)
	.loc 5 416 0
	lwz 0,12(9)
	stw 0,24(26)
	.loc 5 418 0
	lwz 11,12(9)
	stw 28,16(11)
	.loc 5 419 0
	stw 28,12(9)
	.loc 5 424 0
	lwz 9,16(26)
.LVL372:
	cmpwi 7,9,0
	beq- 7,.L335
	.loc 5 425 0
	stw 10,12(9)
.L336:
	.loc 5 429 0
	lwz 0,16(26)
	.loc 5 433 0
	mr 25,26
	.loc 5 430 0
	stw 26,16(3)
	.loc 5 429 0
	stw 0,20(3)
	.loc 5 431 0
	stw 10,16(26)
	.loc 5 433 0
	lwz 9,8(26)
	lwz 11,20(9)
	addi 0,11,1
	stw 0,20(9)
	b .L370
.LVL373:
.L374:
.LBE3928:
.LBE3927:
.LBB3934:
	.loc 5 251 0
	lwz 9,24(3)
	lwz 0,4(9)
	cmpwi 7,0,0
	bne+ 7,.L344
.LVL374:
.LBB3894:
	.loc 5 253 0
	stw 0,8(9)
.LBB3895:
.LBB3896:
.LBB3897:
	.loc 4 228 0
	addi 3,3,-4
.LVL375:
.LBE3897:
.LBE3896:
.LBE3895:
	.loc 5 254 0
	lwz 9,8(31)
	lwz 0,24(9)
	stw 0,8(31)
.LVL376:
.LBB3900:
.LBB3899:
.LBB3898:
	.loc 4 228 0
	bl _ZdlPv
.LVL377:
	.loc 4 230 0
	lwz 0,24(31)
	addic 0,0,-1
	stw 0,24(31)
.LBE3898:
.LBE3899:
.LBE3900:
.LBE3894:
.LBE3934:
.LBE3938:
.LBE3944:
	.loc 4 881 0
	stw 28,12(30)
	.loc 4 882 0
	lwz 11,48(31)
	.loc 4 883 0
	lwz 9,52(31)
	.loc 4 882 0
	addi 0,11,-1
	stw 0,48(31)
.LBB3945:
.LBB3943:
	.loc 4 387 0
	lwz 0,0(30)
	srawi 11,0,31
	xor 0,11,0
	subf 0,11,0
.LBE3943:
.LBE3945:
	.loc 4 883 0
	subf 0,0,9
	stw 0,52(31)
.LBE3948:
.LBE3953:
	.loc 4 544 0
	lwz 9,4(30)
	.loc 4 545 0
	lwz 0,8(30)
	.loc 4 544 0
	cmpwi 7,9,0
	bne+ 7,.L381
.L345:
	.loc 4 547 0
	stw 0,0(31)
	.loc 4 549 0
	lwz 9,8(30)
	.loc 4 550 0
	lwz 0,4(30)
	.loc 4 549 0
	cmpwi 7,9,0
	bne+ 7,.L382
.L347:
	.loc 4 552 0
	stw 0,4(31)
	.loc 4 554 0
	lbz 0,29(31)
	cmpwi 7,0,0
	beq+ 7,.L349
.L375:
.LBB3954:
.LBB3955:
	.loc 4 387 0
	lwz 5,0(30)
.LBE3955:
.LBE3954:
	.loc 4 555 0
	mr 4,30
	lwz 3,_ZN5idLib3sysE@l(27)
.LBB3958:
.LBB3956:
	.loc 4 387 0
	srawi 0,5,31
.LBE3956:
.LBE3958:
	.loc 4 555 0
	lwz 9,0(3)
.LBB3959:
.LBB3957:
	.loc 4 387 0
	xor 5,0,5
	subf 5,0,5
.LBE3957:
.LBE3959:
	.loc 4 555 0
	lwz 0,48(9)
	addi 5,5,16
	mtctr 0
	bctrl
	b .L349
.LVL378:
.L385:
.LBB3960:
.LBB3949:
.LBB3946:
.LBB3939:
.LBB3935:
.LBB3924:
	.loc 5 445 0
	mr 9,11
	b .L327
.LVL379:
.L316:
.LBE3924:
.LBE3935:
	.loc 5 212 0
	lwz 9,8(23)
	lwz 0,12(23)
	stw 0,24(9)
	.loc 5 214 0
	lwz 9,12(23)
	cmpwi 7,9,0
	bne+ 7,.L383
.L318:
	.loc 5 217 0
	lwz 9,8(23)
	lwz 0,16(23)
	stw 0,28(9)
	b .L319
.LVL380:
.L335:
.LBB3936:
.LBB3933:
	.loc 5 427 0
	lwz 9,8(26)
	stw 10,24(9)
	b .L336
.LBE3933:
.LBE3936:
.LBE3939:
.LBE3946:
.LBE3949:
.LBE3960:
.LBE3961:
	.cfi_endproc
.LFE2843:
	.size	_ZN19idDynamicBlockAllocI10idDrawVertLi1048576ELi1024EE19FreeEmptyBaseBlocksEv, .-_ZN19idDynamicBlockAllocI10idDrawVertLi1048576ELi1024EE19FreeEmptyBaseBlocksEv
	.section	.text._ZN19idDynamicBlockAllocIiLi262144ELi1024EE19FreeEmptyBaseBlocksEv,"axG",@progbits,_ZN19idDynamicBlockAllocIiLi262144ELi1024EE19FreeEmptyBaseBlocksEv,comdat
	.align 2
	.weak	_ZN19idDynamicBlockAllocIiLi262144ELi1024EE19FreeEmptyBaseBlocksEv
	.type	_ZN19idDynamicBlockAllocIiLi262144ELi1024EE19FreeEmptyBaseBlocksEv, @function
_ZN19idDynamicBlockAllocIiLi262144ELi1024EE19FreeEmptyBaseBlocksEv:
.LFB2844:
	.loc 4 536 0
	.cfi_startproc
.LVL381:
	mflr 0
	stwu 1,-48(1)
.LCFI47:
	.cfi_def_cfa_offset 48
	.cfi_register 65, 0
	mfcr 12
	stw 31,44(1)
	mr 31,3
	.cfi_offset 31, -4
	.cfi_register 70, 12
	stw 0,52(1)
	stw 23,12(1)
	stw 24,16(1)
	stw 25,20(1)
	stw 26,24(1)
	stw 27,28(1)
	stw 28,32(1)
	stw 29,36(1)
	stw 30,40(1)
	stw 12,8(1)
.LBB4009:
	.loc 4 539 0
	lwz 30,0(3)
	.cfi_offset 70, -40
	.cfi_offset 30, -8
	.cfi_offset 29, -12
	.cfi_offset 28, -16
	.cfi_offset 27, -20
	.cfi_offset 26, -24
	.cfi_offset 25, -28
	.cfi_offset 24, -32
	.cfi_offset 23, -36
	.cfi_offset 65, 4
.LVL382:
	cmpwi 7,30,0
	beq- 7,.L386
.LVL383:
	lwz 0,0(30)
.LBB4010:
.LBB4011:
	.loc 4 881 0
	li 28,0
.LBE4011:
.LBE4010:
	.loc 4 555 0
	lis 27,_ZN5idLib3sysE@ha
	.loc 4 540 0
	lwz 29,8(30)
.LVL384:
	cmpwi 7,0,0
	.loc 4 542 0
	blt- 7,.L437
.LVL385:
.L447:
	cmpwi 4,29,0
.L389:
.LVL386:
	.loc 4 539 0 discriminator 1
	beq- 4,.L386
.L452:
	.loc 4 539 0 is_stmt 0
	lwz 0,0(29)
	cmpwi 7,0,0
.LVL387:
.L391:
	.loc 4 540 0 is_stmt 1
	mr 30,29
	lwz 29,8(30)
.LVL388:
	.loc 4 542 0
	bge+ 7,.L447
.LVL389:
.L437:
	.loc 4 542 0 is_stmt 0 discriminator 1
	lwz 23,12(30)
	cmpwi 4,29,0
	cmpwi 7,23,0
	beq- 7,.L389
	.loc 4 542 0 discriminator 3
	beq- 4,.L390
	.loc 2 2282 0 is_stmt 1 discriminator 5
	lwz 0,0(29)
	.loc 4 542 0 discriminator 5
	cmpwi 7,0,0
	bge+ 7,.L391
.L390:
.LVL390:
.LBB4079:
.LBB4076:
.LBB4012:
.LBB4013:
	.loc 5 209 0 discriminator 6
	lwz 9,16(23)
.LBE4013:
.LBE4012:
	.loc 4 880 0 discriminator 6
	addi 24,31,8
.LVL391:
.LBB4069:
.LBB4056:
	.loc 5 209 0 discriminator 6
	cmpwi 7,9,0
	beq- 7,.L392
	.loc 5 210 0
	lwz 0,12(23)
	stw 0,12(9)
	.loc 5 214 0
	lwz 9,12(23)
	cmpwi 7,9,0
	beq- 7,.L394
.L459:
	.loc 5 215 0
	lwz 0,16(23)
	stw 0,16(9)
.L395:
	.loc 5 219 0
	lwz 9,8(23)
	lwz 11,20(9)
	addi 0,11,-1
	stw 0,20(9)
	.loc 5 222 0
	lwz 25,8(23)
.LVL392:
	lwz 0,8(31)
	cmpw 7,25,0
	beq- 7,.L446
.LVL393:
.L443:
	lwz 0,20(25)
	cmpwi 7,0,1
	ble- 7,.L448
.L446:
	.loc 5 240 0
	cmpwi 7,25,0
	beq- 7,.L413
.L449:
	lwz 9,28(25)
	cmpwi 7,9,0
	beq- 7,.L413
	.loc 5 242 0
	lwz 0,0(9)
	lwz 9,0(25)
	cmpw 7,9,0
	ble- 7,.L419
	.loc 5 243 0
	stw 0,0(25)
.L419:
	.loc 5 240 0
	lwz 25,8(25)
.LVL394:
	cmpwi 7,25,0
	bne+ 7,.L449
.L413:
.LVL395:
.LBB4014:
.LBB4015:
.LBB4016:
	.loc 4 228 0
	addi 3,23,-4
	bl _ZdlPv
	.loc 4 230 0
	lwz 9,24(31)
.LBE4016:
.LBE4015:
.LBE4014:
.LBB4019:
	.loc 5 251 0
	lwz 3,8(31)
.LBE4019:
.LBB4020:
.LBB4018:
.LBB4017:
	.loc 4 230 0
	addi 0,9,-1
	stw 0,24(31)
.LBE4017:
.LBE4018:
.LBE4020:
.LBB4021:
	.loc 5 251 0
	lwz 0,20(3)
	cmpwi 7,0,1
	beq- 7,.L450
.L420:
.LBE4021:
.LBE4056:
.LBE4069:
	.loc 4 881 0
	stw 28,12(30)
	.loc 4 882 0
	lwz 11,48(31)
	.loc 4 883 0
	lwz 9,52(31)
	.loc 4 882 0
	addi 0,11,-1
	stw 0,48(31)
.LBB4070:
.LBB4071:
	.loc 4 387 0
	lwz 0,0(30)
	srawi 11,0,31
	xor 0,11,0
	subf 0,11,0
.LBE4071:
.LBE4070:
	.loc 4 883 0
	subf 0,0,9
	stw 0,52(31)
.LBE4076:
.LBE4079:
	.loc 4 544 0
	lwz 9,4(30)
	.loc 4 545 0
	lwz 0,8(30)
	.loc 4 544 0
	cmpwi 7,9,0
	beq- 7,.L421
.LVL396:
.L457:
	.loc 4 545 0
	stw 0,8(9)
	.loc 4 549 0
	lwz 9,8(30)
	.loc 4 550 0
	lwz 0,4(30)
	.loc 4 549 0
	cmpwi 7,9,0
	beq- 7,.L423
.L458:
	.loc 4 550 0
	stw 0,4(9)
	.loc 4 554 0
	lbz 0,29(31)
	cmpwi 7,0,0
	bne- 7,.L451
.L425:
	.loc 4 557 0
	lwz 11,32(31)
	.loc 4 559 0
	mr 3,30
	.loc 4 558 0
	lwz 9,36(31)
	.loc 4 557 0
	addi 0,11,-1
	stw 0,32(31)
.LBB4080:
.LBB4081:
	.loc 4 387 0
	lwz 0,0(30)
	srawi 11,0,31
	xor 0,11,0
	subf 0,11,0
.LBE4081:
.LBE4080:
	.loc 4 558 0
	subfic 0,0,-16
	add 0,9,0
	stw 0,36(31)
	.loc 4 559 0
	bl _Z10Mem_Free16Pv
.LVL397:
	.loc 4 539 0
	bne+ 4,.L452
.LVL398:
.L386:
.LBE4009:
	.loc 4 566 0
	lwz 0,52(1)
	lwz 12,8(1)
	mtlr 0
	lwz 23,12(1)
	lwz 24,16(1)
	mtcrf 8,12
	lwz 25,20(1)
	lwz 26,24(1)
	lwz 27,28(1)
	lwz 28,32(1)
	lwz 29,36(1)
	lwz 30,40(1)
	lwz 31,44(1)
.LVL399:
	addi 1,1,48
	.cfi_remember_state
.LCFI48:
	.cfi_def_cfa_offset 0
	.cfi_restore 70
	.cfi_restore 31
	.cfi_restore 30
	.cfi_restore 29
	.cfi_restore 28
	.cfi_restore 27
	.cfi_restore 26
	.cfi_restore 25
	.cfi_restore 24
	.cfi_restore 23
	blr
.LVL400:
.L448:
.LCFI49:
	.cfi_restore_state
.LBB4090:
.LBB4082:
.LBB4077:
.LBB4073:
.LBB4057:
	.loc 5 224 0
	lwz 26,12(25)
	cmpwi 7,26,0
	beq- 7,.L453
.LVL401:
.LBB4022:
.LBB4023:
	.loc 5 445 0
	lwz 11,24(25)
.LVL402:
	lwz 9,12(11)
	cmpwi 7,9,0
	bne+ 7,.L438
	b .L460
.LVL403:
.L428:
	mr 9,0
.LVL404:
.L438:
	.loc 5 446 0
	stw 26,8(11)
.LVL405:
	.loc 5 445 0
	mr 11,9
	lwz 0,12(9)
	cmpwi 7,0,0
	bne+ 7,.L428
.L398:
	.loc 5 448 0
	stw 26,8(9)
	.loc 5 449 0
	lwz 0,24(26)
	stw 0,12(9)
	.loc 5 450 0
	lwz 11,24(26)
	stw 9,16(11)
	.loc 5 451 0
	lwz 0,24(25)
	.loc 5 452 0
	lwz 9,20(26)
.LVL406:
	.loc 5 451 0
	stw 0,24(26)
	.loc 5 452 0
	lwz 0,20(25)
	add 0,9,0
	stw 0,20(26)
	.loc 5 455 0
	lwz 9,16(25)
	cmpwi 7,9,0
	beq- 7,.L400
	.loc 5 456 0
	stw 26,12(9)
.L401:
	.loc 5 460 0
	lwz 0,16(25)
.LBB4024:
.LBB4025:
.LBB4026:
	.loc 4 228 0
	addi 3,25,-4
.LBE4026:
.LBE4025:
.LBE4024:
	.loc 5 461 0
	lwz 9,8(26)
	.loc 5 460 0
	stw 0,16(26)
	.loc 5 461 0
	lwz 11,20(9)
	addi 0,11,-1
	stw 0,20(9)
.LVL407:
.LBB4029:
.LBB4028:
.LBB4027:
	.loc 4 228 0
	bl _ZdlPv
.LVL408:
	.loc 4 230 0
	lwz 9,16(24)
	addi 0,9,-1
	stw 0,16(24)
.LVL409:
.L402:
.LBE4027:
.LBE4028:
.LBE4029:
.LBE4023:
.LBE4022:
	.loc 5 231 0
	lwz 11,28(26)
	lwz 9,0(26)
	lwz 0,0(11)
	cmpw 7,9,0
	ble- 7,.L407
	.loc 5 232 0
	stw 0,0(26)
.L407:
	.loc 5 235 0
	lwz 0,20(26)
	cmpwi 7,0,4
	bgt- 7,.L455
	.loc 5 222 0
	lwz 25,8(26)
.LVL410:
	lwz 0,0(24)
	cmpw 7,25,0
	bne+ 7,.L443
	b .L446
.LVL411:
.L453:
	.loc 5 226 0
	lwz 3,16(25)
	mr 26,25
	cmpwi 7,3,0
	beq- 7,.L402
.LVL412:
.LBB4031:
.LBB4032:
	.loc 5 445 0
	lwz 11,24(3)
.LVL413:
	lwz 9,12(11)
	cmpwi 7,9,0
	bne+ 7,.L439
	b .L461
.LVL414:
.L431:
	mr 9,0
.LVL415:
.L439:
	.loc 5 446 0
	stw 25,8(11)
.LVL416:
	.loc 5 445 0
	mr 11,9
	lwz 0,12(9)
	cmpwi 7,0,0
	bne+ 7,.L431
.L403:
	.loc 5 448 0
	stw 25,8(9)
	.loc 5 449 0
	lwz 0,24(25)
	stw 0,12(9)
	.loc 5 450 0
	lwz 11,24(25)
	stw 9,16(11)
	.loc 5 451 0
	lwz 0,24(3)
	.loc 5 452 0
	lwz 9,20(25)
.LVL417:
	.loc 5 451 0
	stw 0,24(25)
	.loc 5 452 0
	lwz 0,20(3)
	add 0,9,0
	stw 0,20(25)
	.loc 5 455 0
	lwz 9,16(3)
	cmpwi 7,9,0
	beq- 7,.L405
	.loc 5 456 0
	stw 25,12(9)
.L406:
	.loc 5 460 0
	lwz 0,16(3)
.LBB4033:
.LBB4034:
.LBB4035:
	.loc 4 228 0
	addi 3,3,-4
.LBE4035:
.LBE4034:
.LBE4033:
	.loc 5 461 0
	lwz 9,8(25)
.LBB4040:
.LBB4038:
.LBB4036:
	.loc 4 230 0
	mr 26,25
.LBE4036:
.LBE4038:
.LBE4040:
	.loc 5 460 0
	stw 0,16(25)
	.loc 5 461 0
	lwz 11,20(9)
	addi 0,11,-1
	stw 0,20(9)
.LVL418:
.LBB4041:
.LBB4039:
.LBB4037:
	.loc 4 228 0
	bl _ZdlPv
.LVL419:
	.loc 4 230 0
	lwz 9,16(24)
	addi 0,9,-1
	stw 0,16(24)
.LVL420:
	b .L402
.LVL421:
.L400:
.LBE4037:
.LBE4039:
.LBE4041:
.LBE4032:
.LBE4031:
.LBB4044:
.LBB4030:
	.loc 5 458 0
	lwz 9,8(25)
	stw 26,24(9)
	b .L401
.LVL422:
.L460:
	.loc 5 445 0
	mr 9,11
	b .L398
.LVL423:
.L405:
.LBE4030:
.LBE4044:
.LBB4045:
.LBB4042:
	.loc 5 458 0
	lwz 9,8(3)
	stw 25,24(9)
	b .L406
.LVL424:
.L455:
.LBE4042:
.LBE4045:
.LBB4046:
.LBB4047:
.LBB4048:
.LBB4049:
.LBB4050:
.LBB4051:
	.loc 4 215 0
	lwz 9,24(31)
	.loc 4 216 0
	li 3,36
	.loc 4 215 0
	addi 0,9,1
	stw 0,24(31)
	.loc 4 216 0
	bl _Znwj
.LVL425:
.LBE4051:
.LBE4050:
	.loc 5 378 0
	stw 28,12(3)
	.loc 5 399 0
	addi 10,3,4
	.loc 5 377 0
	stw 28,4(3)
	.loc 5 379 0
	stw 28,16(3)
	.loc 5 380 0
	stw 28,20(3)
	.loc 5 381 0
	stw 28,24(3)
	.loc 5 382 0
	stw 28,28(3)
	.loc 5 383 0
	stw 28,32(3)
	.loc 5 384 0
	stw 28,8(3)
.LBE4049:
.LBE4048:
	.loc 5 400 0
	lwz 0,8(26)
	stw 0,12(3)
	.loc 5 403 0
	lwz 9,24(26)
.LVL426:
	.loc 5 404 0
	stw 10,8(9)
.LVL427:
	.loc 5 405 0
	lwz 0,20(26)
	cmpwi 7,0,3
	ble- 7,.L409
	li 11,3
.LVL428:
.L410:
	.loc 5 406 0
	lwz 9,12(9)
.LVL429:
	.loc 5 405 0
	addi 11,11,2
.LVL430:
	.loc 5 407 0
	stw 10,8(9)
	.loc 5 405 0
	lwz 0,20(26)
	cmpw 7,11,0
	blt+ 7,.L410
.LVL431:
.L409:
	.loc 5 410 0
	lwz 0,0(9)
	stw 0,4(3)
	.loc 5 411 0
	lwz 0,20(26)
	srawi 0,0,1
	addze 0,0
	stw 0,24(3)
	.loc 5 412 0
	lwz 11,24(26)
	.loc 5 413 0
	stw 9,32(3)
	.loc 5 412 0
	stw 11,28(3)
	.loc 5 415 0
	lwz 11,20(26)
	subf 0,0,11
	stw 0,20(26)
	.loc 5 416 0
	lwz 0,12(9)
	stw 0,24(26)
	.loc 5 418 0
	lwz 11,12(9)
	stw 28,16(11)
	.loc 5 419 0
	stw 28,12(9)
	.loc 5 424 0
	lwz 9,16(26)
.LVL432:
	cmpwi 7,9,0
	beq- 7,.L411
	.loc 5 425 0
	stw 10,12(9)
.L412:
	.loc 5 429 0
	lwz 0,16(26)
	.loc 5 433 0
	mr 25,26
	.loc 5 430 0
	stw 26,16(3)
	.loc 5 429 0
	stw 0,20(3)
	.loc 5 431 0
	stw 10,16(26)
	.loc 5 433 0
	lwz 9,8(26)
	lwz 11,20(9)
	addi 0,11,1
	stw 0,20(9)
	b .L446
.LVL433:
.L450:
.LBE4047:
.LBE4046:
.LBB4053:
	.loc 5 251 0
	lwz 9,24(3)
	lwz 0,4(9)
	cmpwi 7,0,0
	bne+ 7,.L420
.LVL434:
.LBE4053:
.LBE4057:
.LBB4058:
.LBB4059:
.LBB4060:
.LBB4061:
	.loc 5 253 0
	stw 0,8(9)
.LBB4062:
.LBB4063:
.LBB4064:
	.loc 4 228 0
	addi 3,3,-4
.LVL435:
.LBE4064:
.LBE4063:
.LBE4062:
	.loc 5 254 0
	lwz 9,8(31)
	lwz 0,24(9)
	stw 0,8(31)
.LVL436:
.LBB4067:
.LBB4066:
.LBB4065:
	.loc 4 228 0
	bl _ZdlPv
.LVL437:
	.loc 4 230 0
	lwz 0,24(31)
	addic 0,0,-1
	stw 0,24(31)
.LBE4065:
.LBE4066:
.LBE4067:
.LBE4061:
.LBE4060:
.LBE4059:
.LBE4058:
.LBE4073:
	.loc 4 881 0
	stw 28,12(30)
	.loc 4 882 0
	lwz 11,48(31)
	.loc 4 883 0
	lwz 9,52(31)
	.loc 4 882 0
	addi 0,11,-1
	stw 0,48(31)
.LBB4074:
.LBB4072:
	.loc 4 387 0
	lwz 0,0(30)
	srawi 11,0,31
	xor 0,11,0
	subf 0,11,0
.LBE4072:
.LBE4074:
	.loc 4 883 0
	subf 0,0,9
	stw 0,52(31)
.LBE4077:
.LBE4082:
	.loc 4 544 0
	lwz 9,4(30)
	.loc 4 545 0
	lwz 0,8(30)
	.loc 4 544 0
	cmpwi 7,9,0
	bne+ 7,.L457
.L421:
	.loc 4 547 0
	stw 0,0(31)
	.loc 4 549 0
	lwz 9,8(30)
	.loc 4 550 0
	lwz 0,4(30)
	.loc 4 549 0
	cmpwi 7,9,0
	bne+ 7,.L458
.L423:
	.loc 4 552 0
	stw 0,4(31)
	.loc 4 554 0
	lbz 0,29(31)
	cmpwi 7,0,0
	beq+ 7,.L425
.L451:
.LBB4083:
.LBB4084:
	.loc 4 387 0
	lwz 5,0(30)
.LBE4084:
.LBE4083:
	.loc 4 555 0
	mr 4,30
	lwz 3,_ZN5idLib3sysE@l(27)
.LBB4087:
.LBB4085:
	.loc 4 387 0
	srawi 0,5,31
.LBE4085:
.LBE4087:
	.loc 4 555 0
	lwz 9,0(3)
.LBB4088:
.LBB4086:
	.loc 4 387 0
	xor 5,0,5
	subf 5,0,5
.LBE4086:
.LBE4088:
	.loc 4 555 0
	lwz 0,48(9)
	addi 5,5,16
	mtctr 0
	bctrl
	b .L425
.LVL438:
.L461:
.LBB4089:
.LBB4078:
.LBB4075:
.LBB4068:
.LBB4054:
.LBB4043:
	.loc 5 445 0
	mr 9,11
	b .L403
.LVL439:
.L392:
.LBE4043:
.LBE4054:
	.loc 5 212 0
	lwz 9,8(23)
	lwz 0,12(23)
	stw 0,24(9)
	.loc 5 214 0
	lwz 9,12(23)
	cmpwi 7,9,0
	bne+ 7,.L459
.L394:
	.loc 5 217 0
	lwz 9,8(23)
	lwz 0,16(23)
	stw 0,28(9)
	b .L395
.LVL440:
.L411:
.LBB4055:
.LBB4052:
	.loc 5 427 0
	lwz 9,8(26)
	stw 10,24(9)
	b .L412
.LBE4052:
.LBE4055:
.LBE4068:
.LBE4075:
.LBE4078:
.LBE4089:
.LBE4090:
	.cfi_endproc
.LFE2844:
	.size	_ZN19idDynamicBlockAllocIiLi262144ELi1024EE19FreeEmptyBaseBlocksEv, .-_ZN19idDynamicBlockAllocIiLi262144ELi1024EE19FreeEmptyBaseBlocksEv
	.section	.text._ZN19idDynamicBlockAllocI13shadowCache_sLi262144ELi1024EE19FreeEmptyBaseBlocksEv,"axG",@progbits,_ZN19idDynamicBlockAllocI13shadowCache_sLi262144ELi1024EE19FreeEmptyBaseBlocksEv,comdat
	.align 2
	.weak	_ZN19idDynamicBlockAllocI13shadowCache_sLi262144ELi1024EE19FreeEmptyBaseBlocksEv
	.type	_ZN19idDynamicBlockAllocI13shadowCache_sLi262144ELi1024EE19FreeEmptyBaseBlocksEv, @function
_ZN19idDynamicBlockAllocI13shadowCache_sLi262144ELi1024EE19FreeEmptyBaseBlocksEv:
.LFB2845:
	.loc 4 536 0
	.cfi_startproc
.LVL441:
	mflr 0
	stwu 1,-48(1)
.LCFI50:
	.cfi_def_cfa_offset 48
	.cfi_register 65, 0
	mfcr 12
	stw 31,44(1)
	mr 31,3
	.cfi_offset 31, -4
	.cfi_register 70, 12
	stw 0,52(1)
	stw 23,12(1)
	stw 24,16(1)
	stw 25,20(1)
	stw 26,24(1)
	stw 27,28(1)
	stw 28,32(1)
	stw 29,36(1)
	stw 30,40(1)
	stw 12,8(1)
.LBB4131:
	.loc 4 539 0
	lwz 30,0(3)
	.cfi_offset 70, -40
	.cfi_offset 30, -8
	.cfi_offset 29, -12
	.cfi_offset 28, -16
	.cfi_offset 27, -20
	.cfi_offset 26, -24
	.cfi_offset 25, -28
	.cfi_offset 24, -32
	.cfi_offset 23, -36
	.cfi_offset 65, 4
.LVL442:
	cmpwi 7,30,0
	beq- 7,.L462
	lwz 0,0(30)
.LBB4132:
.LBB4133:
	.loc 4 881 0
	li 28,0
.LBE4133:
.LBE4132:
	.loc 4 555 0
	lis 27,_ZN5idLib3sysE@ha
	.loc 4 540 0
	lwz 29,8(30)
.LVL443:
	cmpwi 7,0,0
	.loc 4 542 0
	blt- 7,.L513
.LVL444:
.L523:
	cmpwi 4,29,0
.L465:
.LVL445:
	.loc 4 539 0 discriminator 1
	beq- 4,.L462
.L528:
	.loc 4 539 0 is_stmt 0
	lwz 0,0(29)
	cmpwi 7,0,0
.LVL446:
.L467:
	.loc 4 540 0 is_stmt 1
	mr 30,29
	lwz 29,8(30)
.LVL447:
	.loc 4 542 0
	bge+ 7,.L523
.LVL448:
.L513:
	.loc 4 542 0 is_stmt 0 discriminator 1
	lwz 23,12(30)
	cmpwi 4,29,0
	cmpwi 7,23,0
	beq- 7,.L465
	.loc 4 542 0 discriminator 3
	beq- 4,.L466
	.loc 2 2282 0 is_stmt 1 discriminator 5
	lwz 0,0(29)
	.loc 4 542 0 discriminator 5
	cmpwi 7,0,0
	bge+ 7,.L467
.L466:
.LVL449:
.LBB4198:
.LBB4195:
.LBB4134:
.LBB4135:
	.loc 5 209 0 discriminator 6
	lwz 9,16(23)
.LBE4135:
.LBE4134:
	.loc 4 880 0 discriminator 6
	addi 24,31,8
.LVL450:
.LBB4188:
.LBB4185:
	.loc 5 209 0 discriminator 6
	cmpwi 7,9,0
	beq- 7,.L468
	.loc 5 210 0
	lwz 0,12(23)
	stw 0,12(9)
	.loc 5 214 0
	lwz 9,12(23)
	cmpwi 7,9,0
	beq- 7,.L470
.L535:
	.loc 5 215 0
	lwz 0,16(23)
	stw 0,16(9)
.L471:
	.loc 5 219 0
	lwz 9,8(23)
	lwz 11,20(9)
	addi 0,11,-1
	stw 0,20(9)
	.loc 5 222 0
	lwz 25,8(23)
.LVL451:
	lwz 0,8(31)
	cmpw 7,25,0
	beq- 7,.L522
.LVL452:
.L519:
	lwz 0,20(25)
	cmpwi 7,0,1
	ble- 7,.L524
.L522:
	.loc 5 240 0
	cmpwi 7,25,0
	beq- 7,.L489
.L525:
	lwz 9,28(25)
	cmpwi 7,9,0
	beq- 7,.L489
	.loc 5 242 0
	lwz 0,0(9)
	lwz 9,0(25)
	cmpw 7,9,0
	ble- 7,.L495
	.loc 5 243 0
	stw 0,0(25)
.L495:
	.loc 5 240 0
	lwz 25,8(25)
.LVL453:
	cmpwi 7,25,0
	bne+ 7,.L525
.L489:
.LVL454:
.LBB4136:
.LBB4137:
.LBB4138:
	.loc 4 228 0
	addi 3,23,-4
	bl _ZdlPv
	.loc 4 230 0
	lwz 9,24(31)
.LBE4138:
.LBE4137:
.LBE4136:
.LBB4141:
	.loc 5 251 0
	lwz 3,8(31)
.LBE4141:
.LBB4149:
.LBB4140:
.LBB4139:
	.loc 4 230 0
	addi 0,9,-1
	stw 0,24(31)
.LBE4139:
.LBE4140:
.LBE4149:
.LBB4150:
	.loc 5 251 0
	lwz 0,20(3)
	cmpwi 7,0,1
	beq- 7,.L526
.L496:
.LBE4150:
.LBE4185:
.LBE4188:
	.loc 4 881 0
	stw 28,12(30)
	.loc 4 882 0
	lwz 11,48(31)
	.loc 4 883 0
	lwz 9,52(31)
	.loc 4 882 0
	addi 0,11,-1
	stw 0,48(31)
.LBB4189:
.LBB4190:
	.loc 4 387 0
	lwz 0,0(30)
	srawi 11,0,31
	xor 0,11,0
	subf 0,11,0
.LBE4190:
.LBE4189:
	.loc 4 883 0
	subf 0,0,9
	stw 0,52(31)
.LBE4195:
.LBE4198:
	.loc 4 544 0
	lwz 9,4(30)
	.loc 4 545 0
	lwz 0,8(30)
	.loc 4 544 0
	cmpwi 7,9,0
	beq- 7,.L497
.LVL455:
.L533:
	.loc 4 545 0
	stw 0,8(9)
	.loc 4 549 0
	lwz 9,8(30)
	.loc 4 550 0
	lwz 0,4(30)
	.loc 4 549 0
	cmpwi 7,9,0
	beq- 7,.L499
.L534:
	.loc 4 550 0
	stw 0,4(9)
	.loc 4 554 0
	lbz 0,29(31)
	cmpwi 7,0,0
	bne- 7,.L527
.L501:
	.loc 4 557 0
	lwz 11,32(31)
	.loc 4 559 0
	mr 3,30
	.loc 4 558 0
	lwz 9,36(31)
	.loc 4 557 0
	addi 0,11,-1
	stw 0,32(31)
.LBB4199:
.LBB4200:
	.loc 4 387 0
	lwz 0,0(30)
	srawi 11,0,31
	xor 0,11,0
	subf 0,11,0
.LBE4200:
.LBE4199:
	.loc 4 558 0
	subfic 0,0,-16
	add 0,9,0
	stw 0,36(31)
	.loc 4 559 0
	bl _Z10Mem_Free16Pv
.LVL456:
	.loc 4 539 0
	bne+ 4,.L528
.LVL457:
.L462:
.LBE4131:
	.loc 4 566 0
	lwz 0,52(1)
	lwz 12,8(1)
	mtlr 0
	lwz 23,12(1)
	lwz 24,16(1)
	mtcrf 8,12
	lwz 25,20(1)
	lwz 26,24(1)
	lwz 27,28(1)
	lwz 28,32(1)
	lwz 29,36(1)
	lwz 30,40(1)
	lwz 31,44(1)
.LVL458:
	addi 1,1,48
	.cfi_remember_state
.LCFI51:
	.cfi_def_cfa_offset 0
	.cfi_restore 70
	.cfi_restore 31
	.cfi_restore 30
	.cfi_restore 29
	.cfi_restore 28
	.cfi_restore 27
	.cfi_restore 26
	.cfi_restore 25
	.cfi_restore 24
	.cfi_restore 23
	blr
.LVL459:
.L524:
.LCFI52:
	.cfi_restore_state
.LBB4209:
.LBB4201:
.LBB4196:
.LBB4192:
.LBB4186:
	.loc 5 224 0
	lwz 26,12(25)
	cmpwi 7,26,0
	beq- 7,.L529
.LVL460:
.LBB4151:
.LBB4152:
	.loc 5 445 0
	lwz 11,24(25)
.LVL461:
	lwz 9,12(11)
	cmpwi 7,9,0
	bne+ 7,.L514
	b .L536
.LVL462:
.L504:
	mr 9,0
.LVL463:
.L514:
	.loc 5 446 0
	stw 26,8(11)
.LVL464:
	.loc 5 445 0
	mr 11,9
	lwz 0,12(9)
	cmpwi 7,0,0
	bne+ 7,.L504
.L474:
	.loc 5 448 0
	stw 26,8(9)
	.loc 5 449 0
	lwz 0,24(26)
	stw 0,12(9)
	.loc 5 450 0
	lwz 11,24(26)
	stw 9,16(11)
	.loc 5 451 0
	lwz 0,24(25)
	.loc 5 452 0
	lwz 9,20(26)
.LVL465:
	.loc 5 451 0
	stw 0,24(26)
	.loc 5 452 0
	lwz 0,20(25)
	add 0,9,0
	stw 0,20(26)
	.loc 5 455 0
	lwz 9,16(25)
	cmpwi 7,9,0
	beq- 7,.L476
	.loc 5 456 0
	stw 26,12(9)
.L477:
	.loc 5 460 0
	lwz 0,16(25)
.LBB4153:
.LBB4154:
.LBB4155:
	.loc 4 228 0
	addi 3,25,-4
.LBE4155:
.LBE4154:
.LBE4153:
	.loc 5 461 0
	lwz 9,8(26)
	.loc 5 460 0
	stw 0,16(26)
	.loc 5 461 0
	lwz 11,20(9)
	addi 0,11,-1
	stw 0,20(9)
.LVL466:
.LBB4158:
.LBB4157:
.LBB4156:
	.loc 4 228 0
	bl _ZdlPv
.LVL467:
	.loc 4 230 0
	lwz 9,16(24)
	addi 0,9,-1
	stw 0,16(24)
.LVL468:
.L478:
.LBE4156:
.LBE4157:
.LBE4158:
.LBE4152:
.LBE4151:
	.loc 5 231 0
	lwz 11,28(26)
	lwz 9,0(26)
	lwz 0,0(11)
	cmpw 7,9,0
	ble- 7,.L483
	.loc 5 232 0
	stw 0,0(26)
.L483:
	.loc 5 235 0
	lwz 0,20(26)
	cmpwi 7,0,4
	bgt- 7,.L531
	.loc 5 222 0
	lwz 25,8(26)
.LVL469:
	lwz 0,0(24)
	cmpw 7,25,0
	bne+ 7,.L519
	b .L522
.LVL470:
.L529:
	.loc 5 226 0
	lwz 3,16(25)
	mr 26,25
	cmpwi 7,3,0
	beq- 7,.L478
.LVL471:
.LBB4160:
.LBB4161:
	.loc 5 445 0
	lwz 11,24(3)
.LVL472:
	lwz 9,12(11)
	cmpwi 7,9,0
	bne+ 7,.L515
	b .L537
.LVL473:
.L507:
	mr 9,0
.LVL474:
.L515:
	.loc 5 446 0
	stw 25,8(11)
.LVL475:
	.loc 5 445 0
	mr 11,9
	lwz 0,12(9)
	cmpwi 7,0,0
	bne+ 7,.L507
.L479:
	.loc 5 448 0
	stw 25,8(9)
	.loc 5 449 0
	lwz 0,24(25)
	stw 0,12(9)
	.loc 5 450 0
	lwz 11,24(25)
	stw 9,16(11)
	.loc 5 451 0
	lwz 0,24(3)
	.loc 5 452 0
	lwz 9,20(25)
.LVL476:
	.loc 5 451 0
	stw 0,24(25)
	.loc 5 452 0
	lwz 0,20(3)
	add 0,9,0
	stw 0,20(25)
	.loc 5 455 0
	lwz 9,16(3)
	cmpwi 7,9,0
	beq- 7,.L481
	.loc 5 456 0
	stw 25,12(9)
.L482:
	.loc 5 460 0
	lwz 0,16(3)
.LBB4162:
.LBB4163:
.LBB4164:
	.loc 4 228 0
	addi 3,3,-4
.LBE4164:
.LBE4163:
.LBE4162:
	.loc 5 461 0
	lwz 9,8(25)
.LBB4169:
.LBB4167:
.LBB4165:
	.loc 4 230 0
	mr 26,25
.LBE4165:
.LBE4167:
.LBE4169:
	.loc 5 460 0
	stw 0,16(25)
	.loc 5 461 0
	lwz 11,20(9)
	addi 0,11,-1
	stw 0,20(9)
.LVL477:
.LBB4170:
.LBB4168:
.LBB4166:
	.loc 4 228 0
	bl _ZdlPv
.LVL478:
	.loc 4 230 0
	lwz 9,16(24)
	addi 0,9,-1
	stw 0,16(24)
.LVL479:
	b .L478
.LVL480:
.L476:
.LBE4166:
.LBE4168:
.LBE4170:
.LBE4161:
.LBE4160:
.LBB4173:
.LBB4159:
	.loc 5 458 0
	lwz 9,8(25)
	stw 26,24(9)
	b .L477
.LVL481:
.L536:
	.loc 5 445 0
	mr 9,11
	b .L474
.LVL482:
.L481:
.LBE4159:
.LBE4173:
.LBB4174:
.LBB4171:
	.loc 5 458 0
	lwz 9,8(3)
	stw 25,24(9)
	b .L482
.LVL483:
.L531:
.LBE4171:
.LBE4174:
.LBB4175:
.LBB4176:
.LBB4177:
.LBB4178:
.LBB4179:
.LBB4180:
	.loc 4 215 0
	lwz 9,24(31)
	.loc 4 216 0
	li 3,36
	.loc 4 215 0
	addi 0,9,1
	stw 0,24(31)
	.loc 4 216 0
	bl _Znwj
.LVL484:
.LBE4180:
.LBE4179:
	.loc 5 378 0
	stw 28,12(3)
	.loc 5 399 0
	addi 10,3,4
	.loc 5 377 0
	stw 28,4(3)
	.loc 5 379 0
	stw 28,16(3)
	.loc 5 380 0
	stw 28,20(3)
	.loc 5 381 0
	stw 28,24(3)
	.loc 5 382 0
	stw 28,28(3)
	.loc 5 383 0
	stw 28,32(3)
	.loc 5 384 0
	stw 28,8(3)
.LBE4178:
.LBE4177:
	.loc 5 400 0
	lwz 0,8(26)
	stw 0,12(3)
	.loc 5 403 0
	lwz 9,24(26)
.LVL485:
	.loc 5 404 0
	stw 10,8(9)
.LVL486:
	.loc 5 405 0
	lwz 0,20(26)
	cmpwi 7,0,3
	ble- 7,.L485
	li 11,3
.LVL487:
.L486:
	.loc 5 406 0
	lwz 9,12(9)
.LVL488:
	.loc 5 405 0
	addi 11,11,2
.LVL489:
	.loc 5 407 0
	stw 10,8(9)
	.loc 5 405 0
	lwz 0,20(26)
	cmpw 7,11,0
	blt+ 7,.L486
.LVL490:
.L485:
	.loc 5 410 0
	lwz 0,0(9)
	stw 0,4(3)
	.loc 5 411 0
	lwz 0,20(26)
	srawi 0,0,1
	addze 0,0
	stw 0,24(3)
	.loc 5 412 0
	lwz 11,24(26)
	.loc 5 413 0
	stw 9,32(3)
	.loc 5 412 0
	stw 11,28(3)
	.loc 5 415 0
	lwz 11,20(26)
	subf 0,0,11
	stw 0,20(26)
	.loc 5 416 0
	lwz 0,12(9)
	stw 0,24(26)
	.loc 5 418 0
	lwz 11,12(9)
	stw 28,16(11)
	.loc 5 419 0
	stw 28,12(9)
	.loc 5 424 0
	lwz 9,16(26)
.LVL491:
	cmpwi 7,9,0
	beq- 7,.L487
	.loc 5 425 0
	stw 10,12(9)
.L488:
	.loc 5 429 0
	lwz 0,16(26)
	.loc 5 433 0
	mr 25,26
	.loc 5 430 0
	stw 26,16(3)
	.loc 5 429 0
	stw 0,20(3)
	.loc 5 431 0
	stw 10,16(26)
	.loc 5 433 0
	lwz 9,8(26)
	lwz 11,20(9)
	addi 0,11,1
	stw 0,20(9)
	b .L522
.LVL492:
.L526:
.LBE4176:
.LBE4175:
.LBB4182:
	.loc 5 251 0
	lwz 9,24(3)
	lwz 0,4(9)
	cmpwi 7,0,0
	bne+ 7,.L496
.LVL493:
.LBB4142:
	.loc 5 253 0
	stw 0,8(9)
.LBB4143:
.LBB4144:
.LBB4145:
	.loc 4 228 0
	addi 3,3,-4
.LVL494:
.LBE4145:
.LBE4144:
.LBE4143:
	.loc 5 254 0
	lwz 9,8(31)
	lwz 0,24(9)
	stw 0,8(31)
.LVL495:
.LBB4148:
.LBB4147:
.LBB4146:
	.loc 4 228 0
	bl _ZdlPv
.LVL496:
	.loc 4 230 0
	lwz 0,24(31)
	addic 0,0,-1
	stw 0,24(31)
.LBE4146:
.LBE4147:
.LBE4148:
.LBE4142:
.LBE4182:
.LBE4186:
.LBE4192:
	.loc 4 881 0
	stw 28,12(30)
	.loc 4 882 0
	lwz 11,48(31)
	.loc 4 883 0
	lwz 9,52(31)
	.loc 4 882 0
	addi 0,11,-1
	stw 0,48(31)
.LBB4193:
.LBB4191:
	.loc 4 387 0
	lwz 0,0(30)
	srawi 11,0,31
	xor 0,11,0
	subf 0,11,0
.LBE4191:
.LBE4193:
	.loc 4 883 0
	subf 0,0,9
	stw 0,52(31)
.LBE4196:
.LBE4201:
	.loc 4 544 0
	lwz 9,4(30)
	.loc 4 545 0
	lwz 0,8(30)
	.loc 4 544 0
	cmpwi 7,9,0
	bne+ 7,.L533
.L497:
	.loc 4 547 0
	stw 0,0(31)
	.loc 4 549 0
	lwz 9,8(30)
	.loc 4 550 0
	lwz 0,4(30)
	.loc 4 549 0
	cmpwi 7,9,0
	bne+ 7,.L534
.L499:
	.loc 4 552 0
	stw 0,4(31)
	.loc 4 554 0
	lbz 0,29(31)
	cmpwi 7,0,0
	beq+ 7,.L501
.L527:
.LBB4202:
.LBB4203:
	.loc 4 387 0
	lwz 5,0(30)
.LBE4203:
.LBE4202:
	.loc 4 555 0
	mr 4,30
	lwz 3,_ZN5idLib3sysE@l(27)
.LBB4206:
.LBB4204:
	.loc 4 387 0
	srawi 0,5,31
.LBE4204:
.LBE4206:
	.loc 4 555 0
	lwz 9,0(3)
.LBB4207:
.LBB4205:
	.loc 4 387 0
	xor 5,0,5
	subf 5,0,5
.LBE4205:
.LBE4207:
	.loc 4 555 0
	lwz 0,48(9)
	addi 5,5,16
	mtctr 0
	bctrl
	b .L501
.LVL497:
.L537:
.LBB4208:
.LBB4197:
.LBB4194:
.LBB4187:
.LBB4183:
.LBB4172:
	.loc 5 445 0
	mr 9,11
	b .L479
.LVL498:
.L468:
.LBE4172:
.LBE4183:
	.loc 5 212 0
	lwz 9,8(23)
	lwz 0,12(23)
	stw 0,24(9)
	.loc 5 214 0
	lwz 9,12(23)
	cmpwi 7,9,0
	bne+ 7,.L535
.L470:
	.loc 5 217 0
	lwz 9,8(23)
	lwz 0,16(23)
	stw 0,28(9)
	b .L471
.LVL499:
.L487:
.LBB4184:
.LBB4181:
	.loc 5 427 0
	lwz 9,8(26)
	stw 10,24(9)
	b .L488
.LBE4181:
.LBE4184:
.LBE4187:
.LBE4194:
.LBE4197:
.LBE4208:
.LBE4209:
	.cfi_endproc
.LFE2845:
	.size	_ZN19idDynamicBlockAllocI13shadowCache_sLi262144ELi1024EE19FreeEmptyBaseBlocksEv, .-_ZN19idDynamicBlockAllocI13shadowCache_sLi262144ELi1024EE19FreeEmptyBaseBlocksEv
	.section	.text._ZN19idDynamicBlockAllocI7idPlaneLi131072ELi1024EE19FreeEmptyBaseBlocksEv,"axG",@progbits,_ZN19idDynamicBlockAllocI7idPlaneLi131072ELi1024EE19FreeEmptyBaseBlocksEv,comdat
	.align 2
	.weak	_ZN19idDynamicBlockAllocI7idPlaneLi131072ELi1024EE19FreeEmptyBaseBlocksEv
	.type	_ZN19idDynamicBlockAllocI7idPlaneLi131072ELi1024EE19FreeEmptyBaseBlocksEv, @function
_ZN19idDynamicBlockAllocI7idPlaneLi131072ELi1024EE19FreeEmptyBaseBlocksEv:
.LFB2846:
	.loc 4 536 0
	.cfi_startproc
.LVL500:
	mflr 0
	stwu 1,-48(1)
.LCFI53:
	.cfi_def_cfa_offset 48
	.cfi_register 65, 0
	mfcr 12
	stw 31,44(1)
	mr 31,3
	.cfi_offset 31, -4
	.cfi_register 70, 12
	stw 0,52(1)
	stw 23,12(1)
	stw 24,16(1)
	stw 25,20(1)
	stw 26,24(1)
	stw 27,28(1)
	stw 28,32(1)
	stw 29,36(1)
	stw 30,40(1)
	stw 12,8(1)
.LBB4250:
	.loc 4 539 0
	lwz 30,0(3)
	.cfi_offset 70, -40
	.cfi_offset 30, -8
	.cfi_offset 29, -12
	.cfi_offset 28, -16
	.cfi_offset 27, -20
	.cfi_offset 26, -24
	.cfi_offset 25, -28
	.cfi_offset 24, -32
	.cfi_offset 23, -36
	.cfi_offset 65, 4
.LVL501:
	cmpwi 7,30,0
	beq- 7,.L538
.LVL502:
	lwz 0,0(30)
.LBB4251:
.LBB4252:
	.loc 4 881 0
	li 28,0
.LBE4252:
.LBE4251:
	.loc 4 555 0
	lis 27,_ZN5idLib3sysE@ha
	.loc 4 540 0
	lwz 29,8(30)
.LVL503:
	cmpwi 7,0,0
	.loc 4 542 0
	blt- 7,.L589
.LVL504:
.L599:
	cmpwi 4,29,0
.L541:
.LVL505:
	.loc 4 539 0 discriminator 1
	beq- 4,.L538
.L604:
	.loc 4 539 0 is_stmt 0
	lwz 0,0(29)
	cmpwi 7,0,0
.LVL506:
.L543:
	.loc 4 540 0 is_stmt 1
	mr 30,29
	lwz 29,8(30)
.LVL507:
	.loc 4 542 0
	bge+ 7,.L599
.LVL508:
.L589:
	.loc 4 542 0 is_stmt 0 discriminator 1
	lwz 23,12(30)
	cmpwi 4,29,0
	cmpwi 7,23,0
	beq- 7,.L541
	.loc 4 542 0 discriminator 3
	beq- 4,.L542
	.loc 2 2282 0 is_stmt 1 discriminator 5
	lwz 0,0(29)
	.loc 4 542 0 discriminator 5
	cmpwi 7,0,0
	bge+ 7,.L543
.L542:
.LVL509:
.LBB4317:
.LBB4314:
.LBB4253:
.LBB4254:
	.loc 5 209 0 discriminator 6
	lwz 9,16(23)
.LBE4254:
.LBE4253:
	.loc 4 880 0 discriminator 6
	addi 24,31,8
.LVL510:
.LBB4307:
.LBB4304:
	.loc 5 209 0 discriminator 6
	cmpwi 7,9,0
	beq- 7,.L544
	.loc 5 210 0
	lwz 0,12(23)
	stw 0,12(9)
	.loc 5 214 0
	lwz 9,12(23)
	cmpwi 7,9,0
	beq- 7,.L546
.L611:
	.loc 5 215 0
	lwz 0,16(23)
	stw 0,16(9)
.L547:
	.loc 5 219 0
	lwz 9,8(23)
	lwz 11,20(9)
	addi 0,11,-1
	stw 0,20(9)
	.loc 5 222 0
	lwz 25,8(23)
.LVL511:
	lwz 0,8(31)
	cmpw 7,25,0
	beq- 7,.L598
.LVL512:
.L595:
	lwz 0,20(25)
	cmpwi 7,0,1
	ble- 7,.L600
.L598:
	.loc 5 240 0
	cmpwi 7,25,0
	beq- 7,.L565
.L601:
	lwz 9,28(25)
	cmpwi 7,9,0
	beq- 7,.L565
	.loc 5 242 0
	lwz 0,0(9)
	lwz 9,0(25)
	cmpw 7,9,0
	ble- 7,.L571
	.loc 5 243 0
	stw 0,0(25)
.L571:
	.loc 5 240 0
	lwz 25,8(25)
.LVL513:
	cmpwi 7,25,0
	bne+ 7,.L601
.L565:
.LVL514:
.LBB4255:
.LBB4256:
.LBB4257:
	.loc 4 228 0
	addi 3,23,-4
	bl _ZdlPv
	.loc 4 230 0
	lwz 9,24(31)
.LBE4257:
.LBE4256:
.LBE4255:
.LBB4260:
	.loc 5 251 0
	lwz 3,8(31)
.LBE4260:
.LBB4268:
.LBB4259:
.LBB4258:
	.loc 4 230 0
	addi 0,9,-1
	stw 0,24(31)
.LBE4258:
.LBE4259:
.LBE4268:
.LBB4269:
	.loc 5 251 0
	lwz 0,20(3)
	cmpwi 7,0,1
	beq- 7,.L602
.L572:
.LBE4269:
.LBE4304:
.LBE4307:
	.loc 4 881 0
	stw 28,12(30)
	.loc 4 882 0
	lwz 11,48(31)
	.loc 4 883 0
	lwz 9,52(31)
	.loc 4 882 0
	addi 0,11,-1
	stw 0,48(31)
.LBB4308:
.LBB4309:
	.loc 4 387 0
	lwz 0,0(30)
	srawi 11,0,31
	xor 0,11,0
	subf 0,11,0
.LBE4309:
.LBE4308:
	.loc 4 883 0
	subf 0,0,9
	stw 0,52(31)
.LBE4314:
.LBE4317:
	.loc 4 544 0
	lwz 9,4(30)
	.loc 4 545 0
	lwz 0,8(30)
	.loc 4 544 0
	cmpwi 7,9,0
	beq- 7,.L573
.LVL515:
.L609:
	.loc 4 545 0
	stw 0,8(9)
	.loc 4 549 0
	lwz 9,8(30)
	.loc 4 550 0
	lwz 0,4(30)
	.loc 4 549 0
	cmpwi 7,9,0
	beq- 7,.L575
.L610:
	.loc 4 550 0
	stw 0,4(9)
	.loc 4 554 0
	lbz 0,29(31)
	cmpwi 7,0,0
	bne- 7,.L603
.L577:
	.loc 4 557 0
	lwz 11,32(31)
	.loc 4 559 0
	mr 3,30
	.loc 4 558 0
	lwz 9,36(31)
	.loc 4 557 0
	addi 0,11,-1
	stw 0,32(31)
.LBB4318:
.LBB4319:
	.loc 4 387 0
	lwz 0,0(30)
	srawi 11,0,31
	xor 0,11,0
	subf 0,11,0
.LBE4319:
.LBE4318:
	.loc 4 558 0
	subfic 0,0,-16
	add 0,9,0
	stw 0,36(31)
	.loc 4 559 0
	bl _Z10Mem_Free16Pv
.LVL516:
	.loc 4 539 0
	bne+ 4,.L604
.LVL517:
.L538:
.LBE4250:
	.loc 4 566 0
	lwz 0,52(1)
	lwz 12,8(1)
	mtlr 0
	lwz 23,12(1)
	lwz 24,16(1)
	mtcrf 8,12
	lwz 25,20(1)
	lwz 26,24(1)
	lwz 27,28(1)
	lwz 28,32(1)
	lwz 29,36(1)
	lwz 30,40(1)
	lwz 31,44(1)
.LVL518:
	addi 1,1,48
	.cfi_remember_state
.LCFI54:
	.cfi_def_cfa_offset 0
	.cfi_restore 70
	.cfi_restore 31
	.cfi_restore 30
	.cfi_restore 29
	.cfi_restore 28
	.cfi_restore 27
	.cfi_restore 26
	.cfi_restore 25
	.cfi_restore 24
	.cfi_restore 23
	blr
.LVL519:
.L600:
.LCFI55:
	.cfi_restore_state
.LBB4328:
.LBB4320:
.LBB4315:
.LBB4311:
.LBB4305:
	.loc 5 224 0
	lwz 26,12(25)
	cmpwi 7,26,0
	beq- 7,.L605
.LVL520:
.LBB4270:
.LBB4271:
	.loc 5 445 0
	lwz 11,24(25)
.LVL521:
	lwz 9,12(11)
	cmpwi 7,9,0
	bne+ 7,.L590
	b .L612
.LVL522:
.L580:
	mr 9,0
.LVL523:
.L590:
	.loc 5 446 0
	stw 26,8(11)
.LVL524:
	.loc 5 445 0
	mr 11,9
	lwz 0,12(9)
	cmpwi 7,0,0
	bne+ 7,.L580
.L550:
	.loc 5 448 0
	stw 26,8(9)
	.loc 5 449 0
	lwz 0,24(26)
	stw 0,12(9)
	.loc 5 450 0
	lwz 11,24(26)
	stw 9,16(11)
	.loc 5 451 0
	lwz 0,24(25)
	.loc 5 452 0
	lwz 9,20(26)
.LVL525:
	.loc 5 451 0
	stw 0,24(26)
	.loc 5 452 0
	lwz 0,20(25)
	add 0,9,0
	stw 0,20(26)
	.loc 5 455 0
	lwz 9,16(25)
	cmpwi 7,9,0
	beq- 7,.L552
	.loc 5 456 0
	stw 26,12(9)
.L553:
	.loc 5 460 0
	lwz 0,16(25)
.LBB4272:
.LBB4273:
.LBB4274:
	.loc 4 228 0
	addi 3,25,-4
.LBE4274:
.LBE4273:
.LBE4272:
	.loc 5 461 0
	lwz 9,8(26)
	.loc 5 460 0
	stw 0,16(26)
	.loc 5 461 0
	lwz 11,20(9)
	addi 0,11,-1
	stw 0,20(9)
.LVL526:
.LBB4277:
.LBB4276:
.LBB4275:
	.loc 4 228 0
	bl _ZdlPv
.LVL527:
	.loc 4 230 0
	lwz 9,16(24)
	addi 0,9,-1
	stw 0,16(24)
.LVL528:
.L554:
.LBE4275:
.LBE4276:
.LBE4277:
.LBE4271:
.LBE4270:
	.loc 5 231 0
	lwz 11,28(26)
	lwz 9,0(26)
	lwz 0,0(11)
	cmpw 7,9,0
	ble- 7,.L559
	.loc 5 232 0
	stw 0,0(26)
.L559:
	.loc 5 235 0
	lwz 0,20(26)
	cmpwi 7,0,4
	bgt- 7,.L607
	.loc 5 222 0
	lwz 25,8(26)
.LVL529:
	lwz 0,0(24)
	cmpw 7,25,0
	bne+ 7,.L595
	b .L598
.LVL530:
.L605:
	.loc 5 226 0
	lwz 3,16(25)
	mr 26,25
	cmpwi 7,3,0
	beq- 7,.L554
.LVL531:
.LBB4279:
.LBB4280:
	.loc 5 445 0
	lwz 11,24(3)
.LVL532:
	lwz 9,12(11)
	cmpwi 7,9,0
	bne+ 7,.L591
	b .L613
.LVL533:
.L583:
	mr 9,0
.LVL534:
.L591:
	.loc 5 446 0
	stw 25,8(11)
.LVL535:
	.loc 5 445 0
	mr 11,9
	lwz 0,12(9)
	cmpwi 7,0,0
	bne+ 7,.L583
.L555:
	.loc 5 448 0
	stw 25,8(9)
	.loc 5 449 0
	lwz 0,24(25)
	stw 0,12(9)
	.loc 5 450 0
	lwz 11,24(25)
	stw 9,16(11)
	.loc 5 451 0
	lwz 0,24(3)
	.loc 5 452 0
	lwz 9,20(25)
.LVL536:
	.loc 5 451 0
	stw 0,24(25)
	.loc 5 452 0
	lwz 0,20(3)
	add 0,9,0
	stw 0,20(25)
	.loc 5 455 0
	lwz 9,16(3)
	cmpwi 7,9,0
	beq- 7,.L557
	.loc 5 456 0
	stw 25,12(9)
.L558:
	.loc 5 460 0
	lwz 0,16(3)
.LBB4281:
.LBB4282:
.LBB4283:
	.loc 4 228 0
	addi 3,3,-4
.LBE4283:
.LBE4282:
.LBE4281:
	.loc 5 461 0
	lwz 9,8(25)
.LBB4288:
.LBB4286:
.LBB4284:
	.loc 4 230 0
	mr 26,25
.LBE4284:
.LBE4286:
.LBE4288:
	.loc 5 460 0
	stw 0,16(25)
	.loc 5 461 0
	lwz 11,20(9)
	addi 0,11,-1
	stw 0,20(9)
.LVL537:
.LBB4289:
.LBB4287:
.LBB4285:
	.loc 4 228 0
	bl _ZdlPv
.LVL538:
	.loc 4 230 0
	lwz 9,16(24)
	addi 0,9,-1
	stw 0,16(24)
.LVL539:
	b .L554
.LVL540:
.L552:
.LBE4285:
.LBE4287:
.LBE4289:
.LBE4280:
.LBE4279:
.LBB4292:
.LBB4278:
	.loc 5 458 0
	lwz 9,8(25)
	stw 26,24(9)
	b .L553
.LVL541:
.L612:
	.loc 5 445 0
	mr 9,11
	b .L550
.LVL542:
.L557:
.LBE4278:
.LBE4292:
.LBB4293:
.LBB4290:
	.loc 5 458 0
	lwz 9,8(3)
	stw 25,24(9)
	b .L558
.LVL543:
.L607:
.LBE4290:
.LBE4293:
.LBB4294:
.LBB4295:
.LBB4296:
.LBB4297:
.LBB4298:
.LBB4299:
	.loc 4 215 0
	lwz 9,24(31)
	.loc 4 216 0
	li 3,36
	.loc 4 215 0
	addi 0,9,1
	stw 0,24(31)
	.loc 4 216 0
	bl _Znwj
.LVL544:
.LBE4299:
.LBE4298:
	.loc 5 378 0
	stw 28,12(3)
	.loc 5 399 0
	addi 10,3,4
	.loc 5 377 0
	stw 28,4(3)
	.loc 5 379 0
	stw 28,16(3)
	.loc 5 380 0
	stw 28,20(3)
	.loc 5 381 0
	stw 28,24(3)
	.loc 5 382 0
	stw 28,28(3)
	.loc 5 383 0
	stw 28,32(3)
	.loc 5 384 0
	stw 28,8(3)
.LBE4297:
.LBE4296:
	.loc 5 400 0
	lwz 0,8(26)
	stw 0,12(3)
	.loc 5 403 0
	lwz 9,24(26)
.LVL545:
	.loc 5 404 0
	stw 10,8(9)
.LVL546:
	.loc 5 405 0
	lwz 0,20(26)
	cmpwi 7,0,3
	ble- 7,.L561
	li 11,3
.LVL547:
.L562:
	.loc 5 406 0
	lwz 9,12(9)
.LVL548:
	.loc 5 405 0
	addi 11,11,2
.LVL549:
	.loc 5 407 0
	stw 10,8(9)
	.loc 5 405 0
	lwz 0,20(26)
	cmpw 7,11,0
	blt+ 7,.L562
.LVL550:
.L561:
	.loc 5 410 0
	lwz 0,0(9)
	stw 0,4(3)
	.loc 5 411 0
	lwz 0,20(26)
	srawi 0,0,1
	addze 0,0
	stw 0,24(3)
	.loc 5 412 0
	lwz 11,24(26)
	.loc 5 413 0
	stw 9,32(3)
	.loc 5 412 0
	stw 11,28(3)
	.loc 5 415 0
	lwz 11,20(26)
	subf 0,0,11
	stw 0,20(26)
	.loc 5 416 0
	lwz 0,12(9)
	stw 0,24(26)
	.loc 5 418 0
	lwz 11,12(9)
	stw 28,16(11)
	.loc 5 419 0
	stw 28,12(9)
	.loc 5 424 0
	lwz 9,16(26)
.LVL551:
	cmpwi 7,9,0
	beq- 7,.L563
	.loc 5 425 0
	stw 10,12(9)
.L564:
	.loc 5 429 0
	lwz 0,16(26)
	.loc 5 433 0
	mr 25,26
	.loc 5 430 0
	stw 26,16(3)
	.loc 5 429 0
	stw 0,20(3)
	.loc 5 431 0
	stw 10,16(26)
	.loc 5 433 0
	lwz 9,8(26)
	lwz 11,20(9)
	addi 0,11,1
	stw 0,20(9)
	b .L598
.LVL552:
.L602:
.LBE4295:
.LBE4294:
.LBB4301:
	.loc 5 251 0
	lwz 9,24(3)
	lwz 0,4(9)
	cmpwi 7,0,0
	bne+ 7,.L572
.LVL553:
.LBB4261:
	.loc 5 253 0
	stw 0,8(9)
.LBB4262:
.LBB4263:
.LBB4264:
	.loc 4 228 0
	addi 3,3,-4
.LVL554:
.LBE4264:
.LBE4263:
.LBE4262:
	.loc 5 254 0
	lwz 9,8(31)
	lwz 0,24(9)
	stw 0,8(31)
.LVL555:
.LBB4267:
.LBB4266:
.LBB4265:
	.loc 4 228 0
	bl _ZdlPv
.LVL556:
	.loc 4 230 0
	lwz 0,24(31)
	addic 0,0,-1
	stw 0,24(31)
.LBE4265:
.LBE4266:
.LBE4267:
.LBE4261:
.LBE4301:
.LBE4305:
.LBE4311:
	.loc 4 881 0
	stw 28,12(30)
	.loc 4 882 0
	lwz 11,48(31)
	.loc 4 883 0
	lwz 9,52(31)
	.loc 4 882 0
	addi 0,11,-1
	stw 0,48(31)
.LBB4312:
.LBB4310:
	.loc 4 387 0
	lwz 0,0(30)
	srawi 11,0,31
	xor 0,11,0
	subf 0,11,0
.LBE4310:
.LBE4312:
	.loc 4 883 0
	subf 0,0,9
	stw 0,52(31)
.LBE4315:
.LBE4320:
	.loc 4 544 0
	lwz 9,4(30)
	.loc 4 545 0
	lwz 0,8(30)
	.loc 4 544 0
	cmpwi 7,9,0
	bne+ 7,.L609
.L573:
	.loc 4 547 0
	stw 0,0(31)
	.loc 4 549 0
	lwz 9,8(30)
	.loc 4 550 0
	lwz 0,4(30)
	.loc 4 549 0
	cmpwi 7,9,0
	bne+ 7,.L610
.L575:
	.loc 4 552 0
	stw 0,4(31)
	.loc 4 554 0
	lbz 0,29(31)
	cmpwi 7,0,0
	beq+ 7,.L577
.L603:
.LBB4321:
.LBB4322:
	.loc 4 387 0
	lwz 5,0(30)
.LBE4322:
.LBE4321:
	.loc 4 555 0
	mr 4,30
	lwz 3,_ZN5idLib3sysE@l(27)
.LBB4325:
.LBB4323:
	.loc 4 387 0
	srawi 0,5,31
.LBE4323:
.LBE4325:
	.loc 4 555 0
	lwz 9,0(3)
.LBB4326:
.LBB4324:
	.loc 4 387 0
	xor 5,0,5
	subf 5,0,5
.LBE4324:
.LBE4326:
	.loc 4 555 0
	lwz 0,48(9)
	addi 5,5,16
	mtctr 0
	bctrl
	b .L577
.LVL557:
.L613:
.LBB4327:
.LBB4316:
.LBB4313:
.LBB4306:
.LBB4302:
.LBB4291:
	.loc 5 445 0
	mr 9,11
	b .L555
.LVL558:
.L544:
.LBE4291:
.LBE4302:
	.loc 5 212 0
	lwz 9,8(23)
	lwz 0,12(23)
	stw 0,24(9)
	.loc 5 214 0
	lwz 9,12(23)
	cmpwi 7,9,0
	bne+ 7,.L611
.L546:
	.loc 5 217 0
	lwz 9,8(23)
	lwz 0,16(23)
	stw 0,28(9)
	b .L547
.LVL559:
.L563:
.LBB4303:
.LBB4300:
	.loc 5 427 0
	lwz 9,8(26)
	stw 10,24(9)
	b .L564
.LBE4300:
.LBE4303:
.LBE4306:
.LBE4313:
.LBE4316:
.LBE4327:
.LBE4328:
	.cfi_endproc
.LFE2846:
	.size	_ZN19idDynamicBlockAllocI7idPlaneLi131072ELi1024EE19FreeEmptyBaseBlocksEv, .-_ZN19idDynamicBlockAllocI7idPlaneLi131072ELi1024EE19FreeEmptyBaseBlocksEv
	.section	.text._ZN19idDynamicBlockAllocIiLi131072ELi1024EE19FreeEmptyBaseBlocksEv,"axG",@progbits,_ZN19idDynamicBlockAllocIiLi131072ELi1024EE19FreeEmptyBaseBlocksEv,comdat
	.align 2
	.weak	_ZN19idDynamicBlockAllocIiLi131072ELi1024EE19FreeEmptyBaseBlocksEv
	.type	_ZN19idDynamicBlockAllocIiLi131072ELi1024EE19FreeEmptyBaseBlocksEv, @function
_ZN19idDynamicBlockAllocIiLi131072ELi1024EE19FreeEmptyBaseBlocksEv:
.LFB2847:
	.loc 4 536 0
	.cfi_startproc
.LVL560:
	mflr 0
	stwu 1,-48(1)
.LCFI56:
	.cfi_def_cfa_offset 48
	.cfi_register 65, 0
	mfcr 12
	stw 31,44(1)
	mr 31,3
	.cfi_offset 31, -4
	.cfi_register 70, 12
	stw 0,52(1)
	stw 23,12(1)
	stw 24,16(1)
	stw 25,20(1)
	stw 26,24(1)
	stw 27,28(1)
	stw 28,32(1)
	stw 29,36(1)
	stw 30,40(1)
	stw 12,8(1)
.LBB4376:
	.loc 4 539 0
	lwz 30,0(3)
	.cfi_offset 70, -40
	.cfi_offset 30, -8
	.cfi_offset 29, -12
	.cfi_offset 28, -16
	.cfi_offset 27, -20
	.cfi_offset 26, -24
	.cfi_offset 25, -28
	.cfi_offset 24, -32
	.cfi_offset 23, -36
	.cfi_offset 65, 4
.LVL561:
	cmpwi 7,30,0
	beq- 7,.L614
.LVL562:
	lwz 0,0(30)
.LBB4377:
.LBB4378:
	.loc 4 881 0
	li 28,0
.LBE4378:
.LBE4377:
	.loc 4 555 0
	lis 27,_ZN5idLib3sysE@ha
	.loc 4 540 0
	lwz 29,8(30)
.LVL563:
	cmpwi 7,0,0
	.loc 4 542 0
	blt- 7,.L665
.LVL564:
.L675:
	cmpwi 4,29,0
.L617:
.LVL565:
	.loc 4 539 0 discriminator 1
	beq- 4,.L614
.L680:
	.loc 4 539 0 is_stmt 0
	lwz 0,0(29)
	cmpwi 7,0,0
.LVL566:
.L619:
	.loc 4 540 0 is_stmt 1
	mr 30,29
	lwz 29,8(30)
.LVL567:
	.loc 4 542 0
	bge+ 7,.L675
.LVL568:
.L665:
	.loc 4 542 0 is_stmt 0 discriminator 1
	lwz 23,12(30)
	cmpwi 4,29,0
	cmpwi 7,23,0
	beq- 7,.L617
	.loc 4 542 0 discriminator 3
	beq- 4,.L618
	.loc 2 2282 0 is_stmt 1 discriminator 5
	lwz 0,0(29)
	.loc 4 542 0 discriminator 5
	cmpwi 7,0,0
	bge+ 7,.L619
.L618:
.LVL569:
.LBB4446:
.LBB4443:
.LBB4379:
.LBB4380:
	.loc 5 209 0 discriminator 6
	lwz 9,16(23)
.LBE4380:
.LBE4379:
	.loc 4 880 0 discriminator 6
	addi 24,31,8
.LVL570:
.LBB4436:
.LBB4423:
	.loc 5 209 0 discriminator 6
	cmpwi 7,9,0
	beq- 7,.L620
	.loc 5 210 0
	lwz 0,12(23)
	stw 0,12(9)
	.loc 5 214 0
	lwz 9,12(23)
	cmpwi 7,9,0
	beq- 7,.L622
.L687:
	.loc 5 215 0
	lwz 0,16(23)
	stw 0,16(9)
.L623:
	.loc 5 219 0
	lwz 9,8(23)
	lwz 11,20(9)
	addi 0,11,-1
	stw 0,20(9)
	.loc 5 222 0
	lwz 25,8(23)
.LVL571:
	lwz 0,8(31)
	cmpw 7,25,0
	beq- 7,.L674
.LVL572:
.L671:
	lwz 0,20(25)
	cmpwi 7,0,1
	ble- 7,.L676
.L674:
	.loc 5 240 0
	cmpwi 7,25,0
	beq- 7,.L641
.L677:
	lwz 9,28(25)
	cmpwi 7,9,0
	beq- 7,.L641
	.loc 5 242 0
	lwz 0,0(9)
	lwz 9,0(25)
	cmpw 7,9,0
	ble- 7,.L647
	.loc 5 243 0
	stw 0,0(25)
.L647:
	.loc 5 240 0
	lwz 25,8(25)
.LVL573:
	cmpwi 7,25,0
	bne+ 7,.L677
.L641:
.LVL574:
.LBB4381:
.LBB4382:
.LBB4383:
	.loc 4 228 0
	addi 3,23,-4
	bl _ZdlPv
	.loc 4 230 0
	lwz 9,24(31)
.LBE4383:
.LBE4382:
.LBE4381:
.LBB4386:
	.loc 5 251 0
	lwz 3,8(31)
.LBE4386:
.LBB4387:
.LBB4385:
.LBB4384:
	.loc 4 230 0
	addi 0,9,-1
	stw 0,24(31)
.LBE4384:
.LBE4385:
.LBE4387:
.LBB4388:
	.loc 5 251 0
	lwz 0,20(3)
	cmpwi 7,0,1
	beq- 7,.L678
.L648:
.LBE4388:
.LBE4423:
.LBE4436:
	.loc 4 881 0
	stw 28,12(30)
	.loc 4 882 0
	lwz 11,48(31)
	.loc 4 883 0
	lwz 9,52(31)
	.loc 4 882 0
	addi 0,11,-1
	stw 0,48(31)
.LBB4437:
.LBB4438:
	.loc 4 387 0
	lwz 0,0(30)
	srawi 11,0,31
	xor 0,11,0
	subf 0,11,0
.LBE4438:
.LBE4437:
	.loc 4 883 0
	subf 0,0,9
	stw 0,52(31)
.LBE4443:
.LBE4446:
	.loc 4 544 0
	lwz 9,4(30)
	.loc 4 545 0
	lwz 0,8(30)
	.loc 4 544 0
	cmpwi 7,9,0
	beq- 7,.L649
.LVL575:
.L685:
	.loc 4 545 0
	stw 0,8(9)
	.loc 4 549 0
	lwz 9,8(30)
	.loc 4 550 0
	lwz 0,4(30)
	.loc 4 549 0
	cmpwi 7,9,0
	beq- 7,.L651
.L686:
	.loc 4 550 0
	stw 0,4(9)
	.loc 4 554 0
	lbz 0,29(31)
	cmpwi 7,0,0
	bne- 7,.L679
.L653:
	.loc 4 557 0
	lwz 11,32(31)
	.loc 4 559 0
	mr 3,30
	.loc 4 558 0
	lwz 9,36(31)
	.loc 4 557 0
	addi 0,11,-1
	stw 0,32(31)
.LBB4447:
.LBB4448:
	.loc 4 387 0
	lwz 0,0(30)
	srawi 11,0,31
	xor 0,11,0
	subf 0,11,0
.LBE4448:
.LBE4447:
	.loc 4 558 0
	subfic 0,0,-16
	add 0,9,0
	stw 0,36(31)
	.loc 4 559 0
	bl _Z10Mem_Free16Pv
.LVL576:
	.loc 4 539 0
	bne+ 4,.L680
.LVL577:
.L614:
.LBE4376:
	.loc 4 566 0
	lwz 0,52(1)
	lwz 12,8(1)
	mtlr 0
	lwz 23,12(1)
	lwz 24,16(1)
	mtcrf 8,12
	lwz 25,20(1)
	lwz 26,24(1)
	lwz 27,28(1)
	lwz 28,32(1)
	lwz 29,36(1)
	lwz 30,40(1)
	lwz 31,44(1)
.LVL578:
	addi 1,1,48
	.cfi_remember_state
.LCFI57:
	.cfi_def_cfa_offset 0
	.cfi_restore 70
	.cfi_restore 31
	.cfi_restore 30
	.cfi_restore 29
	.cfi_restore 28
	.cfi_restore 27
	.cfi_restore 26
	.cfi_restore 25
	.cfi_restore 24
	.cfi_restore 23
	blr
.LVL579:
.L676:
.LCFI58:
	.cfi_restore_state
.LBB4457:
.LBB4449:
.LBB4444:
.LBB4440:
.LBB4424:
	.loc 5 224 0
	lwz 26,12(25)
	cmpwi 7,26,0
	beq- 7,.L681
.LVL580:
.LBB4389:
.LBB4390:
	.loc 5 445 0
	lwz 11,24(25)
.LVL581:
	lwz 9,12(11)
	cmpwi 7,9,0
	bne+ 7,.L666
	b .L688
.LVL582:
.L656:
	mr 9,0
.LVL583:
.L666:
	.loc 5 446 0
	stw 26,8(11)
.LVL584:
	.loc 5 445 0
	mr 11,9
	lwz 0,12(9)
	cmpwi 7,0,0
	bne+ 7,.L656
.L626:
	.loc 5 448 0
	stw 26,8(9)
	.loc 5 449 0
	lwz 0,24(26)
	stw 0,12(9)
	.loc 5 450 0
	lwz 11,24(26)
	stw 9,16(11)
	.loc 5 451 0
	lwz 0,24(25)
	.loc 5 452 0
	lwz 9,20(26)
.LVL585:
	.loc 5 451 0
	stw 0,24(26)
	.loc 5 452 0
	lwz 0,20(25)
	add 0,9,0
	stw 0,20(26)
	.loc 5 455 0
	lwz 9,16(25)
	cmpwi 7,9,0
	beq- 7,.L628
	.loc 5 456 0
	stw 26,12(9)
.L629:
	.loc 5 460 0
	lwz 0,16(25)
.LBB4391:
.LBB4392:
.LBB4393:
	.loc 4 228 0
	addi 3,25,-4
.LBE4393:
.LBE4392:
.LBE4391:
	.loc 5 461 0
	lwz 9,8(26)
	.loc 5 460 0
	stw 0,16(26)
	.loc 5 461 0
	lwz 11,20(9)
	addi 0,11,-1
	stw 0,20(9)
.LVL586:
.LBB4396:
.LBB4395:
.LBB4394:
	.loc 4 228 0
	bl _ZdlPv
.LVL587:
	.loc 4 230 0
	lwz 9,16(24)
	addi 0,9,-1
	stw 0,16(24)
.LVL588:
.L630:
.LBE4394:
.LBE4395:
.LBE4396:
.LBE4390:
.LBE4389:
	.loc 5 231 0
	lwz 11,28(26)
	lwz 9,0(26)
	lwz 0,0(11)
	cmpw 7,9,0
	ble- 7,.L635
	.loc 5 232 0
	stw 0,0(26)
.L635:
	.loc 5 235 0
	lwz 0,20(26)
	cmpwi 7,0,4
	bgt- 7,.L683
	.loc 5 222 0
	lwz 25,8(26)
.LVL589:
	lwz 0,0(24)
	cmpw 7,25,0
	bne+ 7,.L671
	b .L674
.LVL590:
.L681:
	.loc 5 226 0
	lwz 3,16(25)
	mr 26,25
	cmpwi 7,3,0
	beq- 7,.L630
.LVL591:
.LBB4398:
.LBB4399:
	.loc 5 445 0
	lwz 11,24(3)
.LVL592:
	lwz 9,12(11)
	cmpwi 7,9,0
	bne+ 7,.L667
	b .L689
.LVL593:
.L659:
	mr 9,0
.LVL594:
.L667:
	.loc 5 446 0
	stw 25,8(11)
.LVL595:
	.loc 5 445 0
	mr 11,9
	lwz 0,12(9)
	cmpwi 7,0,0
	bne+ 7,.L659
.L631:
	.loc 5 448 0
	stw 25,8(9)
	.loc 5 449 0
	lwz 0,24(25)
	stw 0,12(9)
	.loc 5 450 0
	lwz 11,24(25)
	stw 9,16(11)
	.loc 5 451 0
	lwz 0,24(3)
	.loc 5 452 0
	lwz 9,20(25)
.LVL596:
	.loc 5 451 0
	stw 0,24(25)
	.loc 5 452 0
	lwz 0,20(3)
	add 0,9,0
	stw 0,20(25)
	.loc 5 455 0
	lwz 9,16(3)
	cmpwi 7,9,0
	beq- 7,.L633
	.loc 5 456 0
	stw 25,12(9)
.L634:
	.loc 5 460 0
	lwz 0,16(3)
.LBB4400:
.LBB4401:
.LBB4402:
	.loc 4 228 0
	addi 3,3,-4
.LBE4402:
.LBE4401:
.LBE4400:
	.loc 5 461 0
	lwz 9,8(25)
.LBB4407:
.LBB4405:
.LBB4403:
	.loc 4 230 0
	mr 26,25
.LBE4403:
.LBE4405:
.LBE4407:
	.loc 5 460 0
	stw 0,16(25)
	.loc 5 461 0
	lwz 11,20(9)
	addi 0,11,-1
	stw 0,20(9)
.LVL597:
.LBB4408:
.LBB4406:
.LBB4404:
	.loc 4 228 0
	bl _ZdlPv
.LVL598:
	.loc 4 230 0
	lwz 9,16(24)
	addi 0,9,-1
	stw 0,16(24)
.LVL599:
	b .L630
.LVL600:
.L628:
.LBE4404:
.LBE4406:
.LBE4408:
.LBE4399:
.LBE4398:
.LBB4411:
.LBB4397:
	.loc 5 458 0
	lwz 9,8(25)
	stw 26,24(9)
	b .L629
.LVL601:
.L688:
	.loc 5 445 0
	mr 9,11
	b .L626
.LVL602:
.L633:
.LBE4397:
.LBE4411:
.LBB4412:
.LBB4409:
	.loc 5 458 0
	lwz 9,8(3)
	stw 25,24(9)
	b .L634
.LVL603:
.L683:
.LBE4409:
.LBE4412:
.LBB4413:
.LBB4414:
.LBB4415:
.LBB4416:
.LBB4417:
.LBB4418:
	.loc 4 215 0
	lwz 9,24(31)
	.loc 4 216 0
	li 3,36
	.loc 4 215 0
	addi 0,9,1
	stw 0,24(31)
	.loc 4 216 0
	bl _Znwj
.LVL604:
.LBE4418:
.LBE4417:
	.loc 5 378 0
	stw 28,12(3)
	.loc 5 399 0
	addi 10,3,4
	.loc 5 377 0
	stw 28,4(3)
	.loc 5 379 0
	stw 28,16(3)
	.loc 5 380 0
	stw 28,20(3)
	.loc 5 381 0
	stw 28,24(3)
	.loc 5 382 0
	stw 28,28(3)
	.loc 5 383 0
	stw 28,32(3)
	.loc 5 384 0
	stw 28,8(3)
.LBE4416:
.LBE4415:
	.loc 5 400 0
	lwz 0,8(26)
	stw 0,12(3)
	.loc 5 403 0
	lwz 9,24(26)
.LVL605:
	.loc 5 404 0
	stw 10,8(9)
.LVL606:
	.loc 5 405 0
	lwz 0,20(26)
	cmpwi 7,0,3
	ble- 7,.L637
	li 11,3
.LVL607:
.L638:
	.loc 5 406 0
	lwz 9,12(9)
.LVL608:
	.loc 5 405 0
	addi 11,11,2
.LVL609:
	.loc 5 407 0
	stw 10,8(9)
	.loc 5 405 0
	lwz 0,20(26)
	cmpw 7,11,0
	blt+ 7,.L638
.LVL610:
.L637:
	.loc 5 410 0
	lwz 0,0(9)
	stw 0,4(3)
	.loc 5 411 0
	lwz 0,20(26)
	srawi 0,0,1
	addze 0,0
	stw 0,24(3)
	.loc 5 412 0
	lwz 11,24(26)
	.loc 5 413 0
	stw 9,32(3)
	.loc 5 412 0
	stw 11,28(3)
	.loc 5 415 0
	lwz 11,20(26)
	subf 0,0,11
	stw 0,20(26)
	.loc 5 416 0
	lwz 0,12(9)
	stw 0,24(26)
	.loc 5 418 0
	lwz 11,12(9)
	stw 28,16(11)
	.loc 5 419 0
	stw 28,12(9)
	.loc 5 424 0
	lwz 9,16(26)
.LVL611:
	cmpwi 7,9,0
	beq- 7,.L639
	.loc 5 425 0
	stw 10,12(9)
.L640:
	.loc 5 429 0
	lwz 0,16(26)
	.loc 5 433 0
	mr 25,26
	.loc 5 430 0
	stw 26,16(3)
	.loc 5 429 0
	stw 0,20(3)
	.loc 5 431 0
	stw 10,16(26)
	.loc 5 433 0
	lwz 9,8(26)
	lwz 11,20(9)
	addi 0,11,1
	stw 0,20(9)
	b .L674
.LVL612:
.L678:
.LBE4414:
.LBE4413:
.LBB4420:
	.loc 5 251 0
	lwz 9,24(3)
	lwz 0,4(9)
	cmpwi 7,0,0
	bne+ 7,.L648
.LVL613:
.LBE4420:
.LBE4424:
.LBB4425:
.LBB4426:
.LBB4427:
.LBB4428:
	.loc 5 253 0
	stw 0,8(9)
.LBB4429:
.LBB4430:
.LBB4431:
	.loc 4 228 0
	addi 3,3,-4
.LVL614:
.LBE4431:
.LBE4430:
.LBE4429:
	.loc 5 254 0
	lwz 9,8(31)
	lwz 0,24(9)
	stw 0,8(31)
.LVL615:
.LBB4434:
.LBB4433:
.LBB4432:
	.loc 4 228 0
	bl _ZdlPv
.LVL616:
	.loc 4 230 0
	lwz 0,24(31)
	addic 0,0,-1
	stw 0,24(31)
.LBE4432:
.LBE4433:
.LBE4434:
.LBE4428:
.LBE4427:
.LBE4426:
.LBE4425:
.LBE4440:
	.loc 4 881 0
	stw 28,12(30)
	.loc 4 882 0
	lwz 11,48(31)
	.loc 4 883 0
	lwz 9,52(31)
	.loc 4 882 0
	addi 0,11,-1
	stw 0,48(31)
.LBB4441:
.LBB4439:
	.loc 4 387 0
	lwz 0,0(30)
	srawi 11,0,31
	xor 0,11,0
	subf 0,11,0
.LBE4439:
.LBE4441:
	.loc 4 883 0
	subf 0,0,9
	stw 0,52(31)
.LBE4444:
.LBE4449:
	.loc 4 544 0
	lwz 9,4(30)
	.loc 4 545 0
	lwz 0,8(30)
	.loc 4 544 0
	cmpwi 7,9,0
	bne+ 7,.L685
.L649:
	.loc 4 547 0
	stw 0,0(31)
	.loc 4 549 0
	lwz 9,8(30)
	.loc 4 550 0
	lwz 0,4(30)
	.loc 4 549 0
	cmpwi 7,9,0
	bne+ 7,.L686
.L651:
	.loc 4 552 0
	stw 0,4(31)
	.loc 4 554 0
	lbz 0,29(31)
	cmpwi 7,0,0
	beq+ 7,.L653
.L679:
.LBB4450:
.LBB4451:
	.loc 4 387 0
	lwz 5,0(30)
.LBE4451:
.LBE4450:
	.loc 4 555 0
	mr 4,30
	lwz 3,_ZN5idLib3sysE@l(27)
.LBB4454:
.LBB4452:
	.loc 4 387 0
	srawi 0,5,31
.LBE4452:
.LBE4454:
	.loc 4 555 0
	lwz 9,0(3)
.LBB4455:
.LBB4453:
	.loc 4 387 0
	xor 5,0,5
	subf 5,0,5
.LBE4453:
.LBE4455:
	.loc 4 555 0
	lwz 0,48(9)
	addi 5,5,16
	mtctr 0
	bctrl
	b .L653
.LVL617:
.L689:
.LBB4456:
.LBB4445:
.LBB4442:
.LBB4435:
.LBB4421:
.LBB4410:
	.loc 5 445 0
	mr 9,11
	b .L631
.LVL618:
.L620:
.LBE4410:
.LBE4421:
	.loc 5 212 0
	lwz 9,8(23)
	lwz 0,12(23)
	stw 0,24(9)
	.loc 5 214 0
	lwz 9,12(23)
	cmpwi 7,9,0
	bne+ 7,.L687
.L622:
	.loc 5 217 0
	lwz 9,8(23)
	lwz 0,16(23)
	stw 0,28(9)
	b .L623
.LVL619:
.L639:
.LBB4422:
.LBB4419:
	.loc 5 427 0
	lwz 9,8(26)
	stw 10,24(9)
	b .L640
.LBE4419:
.LBE4422:
.LBE4435:
.LBE4442:
.LBE4445:
.LBE4456:
.LBE4457:
	.cfi_endproc
.LFE2847:
	.size	_ZN19idDynamicBlockAllocIiLi131072ELi1024EE19FreeEmptyBaseBlocksEv, .-_ZN19idDynamicBlockAllocIiLi131072ELi1024EE19FreeEmptyBaseBlocksEv
	.section	.text._ZN19idDynamicBlockAllocI9silEdge_tLi131072ELi1024EE19FreeEmptyBaseBlocksEv,"axG",@progbits,_ZN19idDynamicBlockAllocI9silEdge_tLi131072ELi1024EE19FreeEmptyBaseBlocksEv,comdat
	.align 2
	.weak	_ZN19idDynamicBlockAllocI9silEdge_tLi131072ELi1024EE19FreeEmptyBaseBlocksEv
	.type	_ZN19idDynamicBlockAllocI9silEdge_tLi131072ELi1024EE19FreeEmptyBaseBlocksEv, @function
_ZN19idDynamicBlockAllocI9silEdge_tLi131072ELi1024EE19FreeEmptyBaseBlocksEv:
.LFB2848:
	.loc 4 536 0
	.cfi_startproc
.LVL620:
	mflr 0
	stwu 1,-48(1)
.LCFI59:
	.cfi_def_cfa_offset 48
	.cfi_register 65, 0
	mfcr 12
	stw 31,44(1)
	mr 31,3
	.cfi_offset 31, -4
	.cfi_register 70, 12
	stw 0,52(1)
	stw 23,12(1)
	stw 24,16(1)
	stw 25,20(1)
	stw 26,24(1)
	stw 27,28(1)
	stw 28,32(1)
	stw 29,36(1)
	stw 30,40(1)
	stw 12,8(1)
.LBB4498:
	.loc 4 539 0
	lwz 30,0(3)
	.cfi_offset 70, -40
	.cfi_offset 30, -8
	.cfi_offset 29, -12
	.cfi_offset 28, -16
	.cfi_offset 27, -20
	.cfi_offset 26, -24
	.cfi_offset 25, -28
	.cfi_offset 24, -32
	.cfi_offset 23, -36
	.cfi_offset 65, 4
.LVL621:
	cmpwi 7,30,0
	beq- 7,.L690
	lwz 0,0(30)
.LBB4499:
.LBB4500:
	.loc 4 881 0
	li 28,0
.LBE4500:
.LBE4499:
	.loc 4 555 0
	lis 27,_ZN5idLib3sysE@ha
	.loc 4 540 0
	lwz 29,8(30)
.LVL622:
	cmpwi 7,0,0
	.loc 4 542 0
	blt- 7,.L741
.LVL623:
.L751:
	cmpwi 4,29,0
.L693:
.LVL624:
	.loc 4 539 0 discriminator 1
	beq- 4,.L690
.L756:
	.loc 4 539 0 is_stmt 0
	lwz 0,0(29)
	cmpwi 7,0,0
.LVL625:
.L695:
	.loc 4 540 0 is_stmt 1
	mr 30,29
	lwz 29,8(30)
.LVL626:
	.loc 4 542 0
	bge+ 7,.L751
.LVL627:
.L741:
	.loc 4 542 0 is_stmt 0 discriminator 1
	lwz 23,12(30)
	cmpwi 4,29,0
	cmpwi 7,23,0
	beq- 7,.L693
	.loc 4 542 0 discriminator 3
	beq- 4,.L694
	.loc 2 2282 0 is_stmt 1 discriminator 5
	lwz 0,0(29)
	.loc 4 542 0 discriminator 5
	cmpwi 7,0,0
	bge+ 7,.L695
.L694:
.LVL628:
.LBB4565:
.LBB4562:
.LBB4501:
.LBB4502:
	.loc 5 209 0 discriminator 6
	lwz 9,16(23)
.LBE4502:
.LBE4501:
	.loc 4 880 0 discriminator 6
	addi 24,31,8
.LVL629:
.LBB4555:
.LBB4552:
	.loc 5 209 0 discriminator 6
	cmpwi 7,9,0
	beq- 7,.L696
	.loc 5 210 0
	lwz 0,12(23)
	stw 0,12(9)
	.loc 5 214 0
	lwz 9,12(23)
	cmpwi 7,9,0
	beq- 7,.L698
.L763:
	.loc 5 215 0
	lwz 0,16(23)
	stw 0,16(9)
.L699:
	.loc 5 219 0
	lwz 9,8(23)
	lwz 11,20(9)
	addi 0,11,-1
	stw 0,20(9)
	.loc 5 222 0
	lwz 25,8(23)
.LVL630:
	lwz 0,8(31)
	cmpw 7,25,0
	beq- 7,.L750
.LVL631:
.L747:
	lwz 0,20(25)
	cmpwi 7,0,1
	ble- 7,.L752
.L750:
	.loc 5 240 0
	cmpwi 7,25,0
	beq- 7,.L717
.L753:
	lwz 9,28(25)
	cmpwi 7,9,0
	beq- 7,.L717
	.loc 5 242 0
	lwz 0,0(9)
	lwz 9,0(25)
	cmpw 7,9,0
	ble- 7,.L723
	.loc 5 243 0
	stw 0,0(25)
.L723:
	.loc 5 240 0
	lwz 25,8(25)
.LVL632:
	cmpwi 7,25,0
	bne+ 7,.L753
.L717:
.LVL633:
.LBB4503:
.LBB4504:
.LBB4505:
	.loc 4 228 0
	addi 3,23,-4
	bl _ZdlPv
	.loc 4 230 0
	lwz 9,24(31)
.LBE4505:
.LBE4504:
.LBE4503:
.LBB4508:
	.loc 5 251 0
	lwz 3,8(31)
.LBE4508:
.LBB4516:
.LBB4507:
.LBB4506:
	.loc 4 230 0
	addi 0,9,-1
	stw 0,24(31)
.LBE4506:
.LBE4507:
.LBE4516:
.LBB4517:
	.loc 5 251 0
	lwz 0,20(3)
	cmpwi 7,0,1
	beq- 7,.L754
.L724:
.LBE4517:
.LBE4552:
.LBE4555:
	.loc 4 881 0
	stw 28,12(30)
	.loc 4 882 0
	lwz 11,48(31)
	.loc 4 883 0
	lwz 9,52(31)
	.loc 4 882 0
	addi 0,11,-1
	stw 0,48(31)
.LBB4556:
.LBB4557:
	.loc 4 387 0
	lwz 0,0(30)
	srawi 11,0,31
	xor 0,11,0
	subf 0,11,0
.LBE4557:
.LBE4556:
	.loc 4 883 0
	subf 0,0,9
	stw 0,52(31)
.LBE4562:
.LBE4565:
	.loc 4 544 0
	lwz 9,4(30)
	.loc 4 545 0
	lwz 0,8(30)
	.loc 4 544 0
	cmpwi 7,9,0
	beq- 7,.L725
.LVL634:
.L761:
	.loc 4 545 0
	stw 0,8(9)
	.loc 4 549 0
	lwz 9,8(30)
	.loc 4 550 0
	lwz 0,4(30)
	.loc 4 549 0
	cmpwi 7,9,0
	beq- 7,.L727
.L762:
	.loc 4 550 0
	stw 0,4(9)
	.loc 4 554 0
	lbz 0,29(31)
	cmpwi 7,0,0
	bne- 7,.L755
.L729:
	.loc 4 557 0
	lwz 11,32(31)
	.loc 4 559 0
	mr 3,30
	.loc 4 558 0
	lwz 9,36(31)
	.loc 4 557 0
	addi 0,11,-1
	stw 0,32(31)
.LBB4566:
.LBB4567:
	.loc 4 387 0
	lwz 0,0(30)
	srawi 11,0,31
	xor 0,11,0
	subf 0,11,0
.LBE4567:
.LBE4566:
	.loc 4 558 0
	subfic 0,0,-16
	add 0,9,0
	stw 0,36(31)
	.loc 4 559 0
	bl _Z10Mem_Free16Pv
.LVL635:
	.loc 4 539 0
	bne+ 4,.L756
.LVL636:
.L690:
.LBE4498:
	.loc 4 566 0
	lwz 0,52(1)
	lwz 12,8(1)
	mtlr 0
	lwz 23,12(1)
	lwz 24,16(1)
	mtcrf 8,12
	lwz 25,20(1)
	lwz 26,24(1)
	lwz 27,28(1)
	lwz 28,32(1)
	lwz 29,36(1)
	lwz 30,40(1)
	lwz 31,44(1)
.LVL637:
	addi 1,1,48
	.cfi_remember_state
.LCFI60:
	.cfi_def_cfa_offset 0
	.cfi_restore 70
	.cfi_restore 31
	.cfi_restore 30
	.cfi_restore 29
	.cfi_restore 28
	.cfi_restore 27
	.cfi_restore 26
	.cfi_restore 25
	.cfi_restore 24
	.cfi_restore 23
	blr
.LVL638:
.L752:
.LCFI61:
	.cfi_restore_state
.LBB4576:
.LBB4568:
.LBB4563:
.LBB4559:
.LBB4553:
	.loc 5 224 0
	lwz 26,12(25)
	cmpwi 7,26,0
	beq- 7,.L757
.LVL639:
.LBB4518:
.LBB4519:
	.loc 5 445 0
	lwz 11,24(25)
.LVL640:
	lwz 9,12(11)
	cmpwi 7,9,0
	bne+ 7,.L742
	b .L764
.LVL641:
.L732:
	mr 9,0
.LVL642:
.L742:
	.loc 5 446 0
	stw 26,8(11)
.LVL643:
	.loc 5 445 0
	mr 11,9
	lwz 0,12(9)
	cmpwi 7,0,0
	bne+ 7,.L732
.L702:
	.loc 5 448 0
	stw 26,8(9)
	.loc 5 449 0
	lwz 0,24(26)
	stw 0,12(9)
	.loc 5 450 0
	lwz 11,24(26)
	stw 9,16(11)
	.loc 5 451 0
	lwz 0,24(25)
	.loc 5 452 0
	lwz 9,20(26)
.LVL644:
	.loc 5 451 0
	stw 0,24(26)
	.loc 5 452 0
	lwz 0,20(25)
	add 0,9,0
	stw 0,20(26)
	.loc 5 455 0
	lwz 9,16(25)
	cmpwi 7,9,0
	beq- 7,.L704
	.loc 5 456 0
	stw 26,12(9)
.L705:
	.loc 5 460 0
	lwz 0,16(25)
.LBB4520:
.LBB4521:
.LBB4522:
	.loc 4 228 0
	addi 3,25,-4
.LBE4522:
.LBE4521:
.LBE4520:
	.loc 5 461 0
	lwz 9,8(26)
	.loc 5 460 0
	stw 0,16(26)
	.loc 5 461 0
	lwz 11,20(9)
	addi 0,11,-1
	stw 0,20(9)
.LVL645:
.LBB4525:
.LBB4524:
.LBB4523:
	.loc 4 228 0
	bl _ZdlPv
.LVL646:
	.loc 4 230 0
	lwz 9,16(24)
	addi 0,9,-1
	stw 0,16(24)
.LVL647:
.L706:
.LBE4523:
.LBE4524:
.LBE4525:
.LBE4519:
.LBE4518:
	.loc 5 231 0
	lwz 11,28(26)
	lwz 9,0(26)
	lwz 0,0(11)
	cmpw 7,9,0
	ble- 7,.L711
	.loc 5 232 0
	stw 0,0(26)
.L711:
	.loc 5 235 0
	lwz 0,20(26)
	cmpwi 7,0,4
	bgt- 7,.L759
	.loc 5 222 0
	lwz 25,8(26)
.LVL648:
	lwz 0,0(24)
	cmpw 7,25,0
	bne+ 7,.L747
	b .L750
.LVL649:
.L757:
	.loc 5 226 0
	lwz 3,16(25)
	mr 26,25
	cmpwi 7,3,0
	beq- 7,.L706
.LVL650:
.LBB4527:
.LBB4528:
	.loc 5 445 0
	lwz 11,24(3)
.LVL651:
	lwz 9,12(11)
	cmpwi 7,9,0
	bne+ 7,.L743
	b .L765
.LVL652:
.L735:
	mr 9,0
.LVL653:
.L743:
	.loc 5 446 0
	stw 25,8(11)
.LVL654:
	.loc 5 445 0
	mr 11,9
	lwz 0,12(9)
	cmpwi 7,0,0
	bne+ 7,.L735
.L707:
	.loc 5 448 0
	stw 25,8(9)
	.loc 5 449 0
	lwz 0,24(25)
	stw 0,12(9)
	.loc 5 450 0
	lwz 11,24(25)
	stw 9,16(11)
	.loc 5 451 0
	lwz 0,24(3)
	.loc 5 452 0
	lwz 9,20(25)
.LVL655:
	.loc 5 451 0
	stw 0,24(25)
	.loc 5 452 0
	lwz 0,20(3)
	add 0,9,0
	stw 0,20(25)
	.loc 5 455 0
	lwz 9,16(3)
	cmpwi 7,9,0
	beq- 7,.L709
	.loc 5 456 0
	stw 25,12(9)
.L710:
	.loc 5 460 0
	lwz 0,16(3)
.LBB4529:
.LBB4530:
.LBB4531:
	.loc 4 228 0
	addi 3,3,-4
.LBE4531:
.LBE4530:
.LBE4529:
	.loc 5 461 0
	lwz 9,8(25)
.LBB4536:
.LBB4534:
.LBB4532:
	.loc 4 230 0
	mr 26,25
.LBE4532:
.LBE4534:
.LBE4536:
	.loc 5 460 0
	stw 0,16(25)
	.loc 5 461 0
	lwz 11,20(9)
	addi 0,11,-1
	stw 0,20(9)
.LVL656:
.LBB4537:
.LBB4535:
.LBB4533:
	.loc 4 228 0
	bl _ZdlPv
.LVL657:
	.loc 4 230 0
	lwz 9,16(24)
	addi 0,9,-1
	stw 0,16(24)
.LVL658:
	b .L706
.LVL659:
.L704:
.LBE4533:
.LBE4535:
.LBE4537:
.LBE4528:
.LBE4527:
.LBB4540:
.LBB4526:
	.loc 5 458 0
	lwz 9,8(25)
	stw 26,24(9)
	b .L705
.LVL660:
.L764:
	.loc 5 445 0
	mr 9,11
	b .L702
.LVL661:
.L709:
.LBE4526:
.LBE4540:
.LBB4541:
.LBB4538:
	.loc 5 458 0
	lwz 9,8(3)
	stw 25,24(9)
	b .L710
.LVL662:
.L759:
.LBE4538:
.LBE4541:
.LBB4542:
.LBB4543:
.LBB4544:
.LBB4545:
.LBB4546:
.LBB4547:
	.loc 4 215 0
	lwz 9,24(31)
	.loc 4 216 0
	li 3,36
	.loc 4 215 0
	addi 0,9,1
	stw 0,24(31)
	.loc 4 216 0
	bl _Znwj
.LVL663:
.LBE4547:
.LBE4546:
	.loc 5 378 0
	stw 28,12(3)
	.loc 5 399 0
	addi 10,3,4
	.loc 5 377 0
	stw 28,4(3)
	.loc 5 379 0
	stw 28,16(3)
	.loc 5 380 0
	stw 28,20(3)
	.loc 5 381 0
	stw 28,24(3)
	.loc 5 382 0
	stw 28,28(3)
	.loc 5 383 0
	stw 28,32(3)
	.loc 5 384 0
	stw 28,8(3)
.LBE4545:
.LBE4544:
	.loc 5 400 0
	lwz 0,8(26)
	stw 0,12(3)
	.loc 5 403 0
	lwz 9,24(26)
.LVL664:
	.loc 5 404 0
	stw 10,8(9)
.LVL665:
	.loc 5 405 0
	lwz 0,20(26)
	cmpwi 7,0,3
	ble- 7,.L713
	li 11,3
.LVL666:
.L714:
	.loc 5 406 0
	lwz 9,12(9)
.LVL667:
	.loc 5 405 0
	addi 11,11,2
.LVL668:
	.loc 5 407 0
	stw 10,8(9)
	.loc 5 405 0
	lwz 0,20(26)
	cmpw 7,11,0
	blt+ 7,.L714
.LVL669:
.L713:
	.loc 5 410 0
	lwz 0,0(9)
	stw 0,4(3)
	.loc 5 411 0
	lwz 0,20(26)
	srawi 0,0,1
	addze 0,0
	stw 0,24(3)
	.loc 5 412 0
	lwz 11,24(26)
	.loc 5 413 0
	stw 9,32(3)
	.loc 5 412 0
	stw 11,28(3)
	.loc 5 415 0
	lwz 11,20(26)
	subf 0,0,11
	stw 0,20(26)
	.loc 5 416 0
	lwz 0,12(9)
	stw 0,24(26)
	.loc 5 418 0
	lwz 11,12(9)
	stw 28,16(11)
	.loc 5 419 0
	stw 28,12(9)
	.loc 5 424 0
	lwz 9,16(26)
.LVL670:
	cmpwi 7,9,0
	beq- 7,.L715
	.loc 5 425 0
	stw 10,12(9)
.L716:
	.loc 5 429 0
	lwz 0,16(26)
	.loc 5 433 0
	mr 25,26
	.loc 5 430 0
	stw 26,16(3)
	.loc 5 429 0
	stw 0,20(3)
	.loc 5 431 0
	stw 10,16(26)
	.loc 5 433 0
	lwz 9,8(26)
	lwz 11,20(9)
	addi 0,11,1
	stw 0,20(9)
	b .L750
.LVL671:
.L754:
.LBE4543:
.LBE4542:
.LBB4549:
	.loc 5 251 0
	lwz 9,24(3)
	lwz 0,4(9)
	cmpwi 7,0,0
	bne+ 7,.L724
.LVL672:
.LBB4509:
	.loc 5 253 0
	stw 0,8(9)
.LBB4510:
.LBB4511:
.LBB4512:
	.loc 4 228 0
	addi 3,3,-4
.LVL673:
.LBE4512:
.LBE4511:
.LBE4510:
	.loc 5 254 0
	lwz 9,8(31)
	lwz 0,24(9)
	stw 0,8(31)
.LVL674:
.LBB4515:
.LBB4514:
.LBB4513:
	.loc 4 228 0
	bl _ZdlPv
.LVL675:
	.loc 4 230 0
	lwz 0,24(31)
	addic 0,0,-1
	stw 0,24(31)
.LBE4513:
.LBE4514:
.LBE4515:
.LBE4509:
.LBE4549:
.LBE4553:
.LBE4559:
	.loc 4 881 0
	stw 28,12(30)
	.loc 4 882 0
	lwz 11,48(31)
	.loc 4 883 0
	lwz 9,52(31)
	.loc 4 882 0
	addi 0,11,-1
	stw 0,48(31)
.LBB4560:
.LBB4558:
	.loc 4 387 0
	lwz 0,0(30)
	srawi 11,0,31
	xor 0,11,0
	subf 0,11,0
.LBE4558:
.LBE4560:
	.loc 4 883 0
	subf 0,0,9
	stw 0,52(31)
.LBE4563:
.LBE4568:
	.loc 4 544 0
	lwz 9,4(30)
	.loc 4 545 0
	lwz 0,8(30)
	.loc 4 544 0
	cmpwi 7,9,0
	bne+ 7,.L761
.L725:
	.loc 4 547 0
	stw 0,0(31)
	.loc 4 549 0
	lwz 9,8(30)
	.loc 4 550 0
	lwz 0,4(30)
	.loc 4 549 0
	cmpwi 7,9,0
	bne+ 7,.L762
.L727:
	.loc 4 552 0
	stw 0,4(31)
	.loc 4 554 0
	lbz 0,29(31)
	cmpwi 7,0,0
	beq+ 7,.L729
.L755:
.LBB4569:
.LBB4570:
	.loc 4 387 0
	lwz 5,0(30)
.LBE4570:
.LBE4569:
	.loc 4 555 0
	mr 4,30
	lwz 3,_ZN5idLib3sysE@l(27)
.LBB4573:
.LBB4571:
	.loc 4 387 0
	srawi 0,5,31
.LBE4571:
.LBE4573:
	.loc 4 555 0
	lwz 9,0(3)
.LBB4574:
.LBB4572:
	.loc 4 387 0
	xor 5,0,5
	subf 5,0,5
.LBE4572:
.LBE4574:
	.loc 4 555 0
	lwz 0,48(9)
	addi 5,5,16
	mtctr 0
	bctrl
	b .L729
.LVL676:
.L765:
.LBB4575:
.LBB4564:
.LBB4561:
.LBB4554:
.LBB4550:
.LBB4539:
	.loc 5 445 0
	mr 9,11
	b .L707
.LVL677:
.L696:
.LBE4539:
.LBE4550:
	.loc 5 212 0
	lwz 9,8(23)
	lwz 0,12(23)
	stw 0,24(9)
	.loc 5 214 0
	lwz 9,12(23)
	cmpwi 7,9,0
	bne+ 7,.L763
.L698:
	.loc 5 217 0
	lwz 9,8(23)
	lwz 0,16(23)
	stw 0,28(9)
	b .L699
.LVL678:
.L715:
.LBB4551:
.LBB4548:
	.loc 5 427 0
	lwz 9,8(26)
	stw 10,24(9)
	b .L716
.LBE4548:
.LBE4551:
.LBE4554:
.LBE4561:
.LBE4564:
.LBE4575:
.LBE4576:
	.cfi_endproc
.LFE2848:
	.size	_ZN19idDynamicBlockAllocI9silEdge_tLi131072ELi1024EE19FreeEmptyBaseBlocksEv, .-_ZN19idDynamicBlockAllocI9silEdge_tLi131072ELi1024EE19FreeEmptyBaseBlocksEv
	.section	.text._ZN19idDynamicBlockAllocI13dominantTri_sLi65536ELi1024EE19FreeEmptyBaseBlocksEv,"axG",@progbits,_ZN19idDynamicBlockAllocI13dominantTri_sLi65536ELi1024EE19FreeEmptyBaseBlocksEv,comdat
	.align 2
	.weak	_ZN19idDynamicBlockAllocI13dominantTri_sLi65536ELi1024EE19FreeEmptyBaseBlocksEv
	.type	_ZN19idDynamicBlockAllocI13dominantTri_sLi65536ELi1024EE19FreeEmptyBaseBlocksEv, @function
_ZN19idDynamicBlockAllocI13dominantTri_sLi65536ELi1024EE19FreeEmptyBaseBlocksEv:
.LFB2849:
	.loc 4 536 0
	.cfi_startproc
.LVL679:
	mflr 0
	stwu 1,-48(1)
.LCFI62:
	.cfi_def_cfa_offset 48
	.cfi_register 65, 0
	mfcr 12
	stw 31,44(1)
	mr 31,3
	.cfi_offset 31, -4
	.cfi_register 70, 12
	stw 0,52(1)
	stw 23,12(1)
	stw 24,16(1)
	stw 25,20(1)
	stw 26,24(1)
	stw 27,28(1)
	stw 28,32(1)
	stw 29,36(1)
	stw 30,40(1)
	stw 12,8(1)
.LBB4617:
	.loc 4 539 0
	lwz 30,0(3)
	.cfi_offset 70, -40
	.cfi_offset 30, -8
	.cfi_offset 29, -12
	.cfi_offset 28, -16
	.cfi_offset 27, -20
	.cfi_offset 26, -24
	.cfi_offset 25, -28
	.cfi_offset 24, -32
	.cfi_offset 23, -36
	.cfi_offset 65, 4
.LVL680:
	cmpwi 7,30,0
	beq- 7,.L766
.LVL681:
	lwz 0,0(30)
.LBB4618:
.LBB4619:
	.loc 4 881 0
	li 28,0
.LBE4619:
.LBE4618:
	.loc 4 555 0
	lis 27,_ZN5idLib3sysE@ha
	.loc 4 540 0
	lwz 29,8(30)
.LVL682:
	cmpwi 7,0,0
	.loc 4 542 0
	blt- 7,.L817
.LVL683:
.L827:
	cmpwi 4,29,0
.L769:
.LVL684:
	.loc 4 539 0 discriminator 1
	beq- 4,.L766
.L832:
	.loc 4 539 0 is_stmt 0
	lwz 0,0(29)
	cmpwi 7,0,0
.LVL685:
.L771:
	.loc 4 540 0 is_stmt 1
	mr 30,29
	lwz 29,8(30)
.LVL686:
	.loc 4 542 0
	bge+ 7,.L827
.LVL687:
.L817:
	.loc 4 542 0 is_stmt 0 discriminator 1
	lwz 23,12(30)
	cmpwi 4,29,0
	cmpwi 7,23,0
	beq- 7,.L769
	.loc 4 542 0 discriminator 3
	beq- 4,.L770
	.loc 2 2282 0 is_stmt 1 discriminator 5
	lwz 0,0(29)
	.loc 4 542 0 discriminator 5
	cmpwi 7,0,0
	bge+ 7,.L771
.L770:
.LVL688:
.LBB4684:
.LBB4681:
.LBB4620:
.LBB4621:
	.loc 5 209 0 discriminator 6
	lwz 9,16(23)
.LBE4621:
.LBE4620:
	.loc 4 880 0 discriminator 6
	addi 24,31,8
.LVL689:
.LBB4674:
.LBB4671:
	.loc 5 209 0 discriminator 6
	cmpwi 7,9,0
	beq- 7,.L772
	.loc 5 210 0
	lwz 0,12(23)
	stw 0,12(9)
	.loc 5 214 0
	lwz 9,12(23)
	cmpwi 7,9,0
	beq- 7,.L774
.L839:
	.loc 5 215 0
	lwz 0,16(23)
	stw 0,16(9)
.L775:
	.loc 5 219 0
	lwz 9,8(23)
	lwz 11,20(9)
	addi 0,11,-1
	stw 0,20(9)
	.loc 5 222 0
	lwz 25,8(23)
.LVL690:
	lwz 0,8(31)
	cmpw 7,25,0
	beq- 7,.L826
.LVL691:
.L823:
	lwz 0,20(25)
	cmpwi 7,0,1
	ble- 7,.L828
.L826:
	.loc 5 240 0
	cmpwi 7,25,0
	beq- 7,.L793
.L829:
	lwz 9,28(25)
	cmpwi 7,9,0
	beq- 7,.L793
	.loc 5 242 0
	lwz 0,0(9)
	lwz 9,0(25)
	cmpw 7,9,0
	ble- 7,.L799
	.loc 5 243 0
	stw 0,0(25)
.L799:
	.loc 5 240 0
	lwz 25,8(25)
.LVL692:
	cmpwi 7,25,0
	bne+ 7,.L829
.L793:
.LVL693:
.LBB4622:
.LBB4623:
.LBB4624:
	.loc 4 228 0
	addi 3,23,-4
	bl _ZdlPv
	.loc 4 230 0
	lwz 9,24(31)
.LBE4624:
.LBE4623:
.LBE4622:
.LBB4627:
	.loc 5 251 0
	lwz 3,8(31)
.LBE4627:
.LBB4635:
.LBB4626:
.LBB4625:
	.loc 4 230 0
	addi 0,9,-1
	stw 0,24(31)
.LBE4625:
.LBE4626:
.LBE4635:
.LBB4636:
	.loc 5 251 0
	lwz 0,20(3)
	cmpwi 7,0,1
	beq- 7,.L830
.L800:
.LBE4636:
.LBE4671:
.LBE4674:
	.loc 4 881 0
	stw 28,12(30)
	.loc 4 882 0
	lwz 11,48(31)
	.loc 4 883 0
	lwz 9,52(31)
	.loc 4 882 0
	addi 0,11,-1
	stw 0,48(31)
.LBB4675:
.LBB4676:
	.loc 4 387 0
	lwz 0,0(30)
	srawi 11,0,31
	xor 0,11,0
	subf 0,11,0
.LBE4676:
.LBE4675:
	.loc 4 883 0
	subf 0,0,9
	stw 0,52(31)
.LBE4681:
.LBE4684:
	.loc 4 544 0
	lwz 9,4(30)
	.loc 4 545 0
	lwz 0,8(30)
	.loc 4 544 0
	cmpwi 7,9,0
	beq- 7,.L801
.LVL694:
.L837:
	.loc 4 545 0
	stw 0,8(9)
	.loc 4 549 0
	lwz 9,8(30)
	.loc 4 550 0
	lwz 0,4(30)
	.loc 4 549 0
	cmpwi 7,9,0
	beq- 7,.L803
.L838:
	.loc 4 550 0
	stw 0,4(9)
	.loc 4 554 0
	lbz 0,29(31)
	cmpwi 7,0,0
	bne- 7,.L831
.L805:
	.loc 4 557 0
	lwz 11,32(31)
	.loc 4 559 0
	mr 3,30
	.loc 4 558 0
	lwz 9,36(31)
	.loc 4 557 0
	addi 0,11,-1
	stw 0,32(31)
.LBB4685:
.LBB4686:
	.loc 4 387 0
	lwz 0,0(30)
	srawi 11,0,31
	xor 0,11,0
	subf 0,11,0
.LBE4686:
.LBE4685:
	.loc 4 558 0
	subfic 0,0,-16
	add 0,9,0
	stw 0,36(31)
	.loc 4 559 0
	bl _Z10Mem_Free16Pv
.LVL695:
	.loc 4 539 0
	bne+ 4,.L832
.LVL696:
.L766:
.LBE4617:
	.loc 4 566 0
	lwz 0,52(1)
	lwz 12,8(1)
	mtlr 0
	lwz 23,12(1)
	lwz 24,16(1)
	mtcrf 8,12
	lwz 25,20(1)
	lwz 26,24(1)
	lwz 27,28(1)
	lwz 28,32(1)
	lwz 29,36(1)
	lwz 30,40(1)
	lwz 31,44(1)
.LVL697:
	addi 1,1,48
	.cfi_remember_state
.LCFI63:
	.cfi_def_cfa_offset 0
	.cfi_restore 70
	.cfi_restore 31
	.cfi_restore 30
	.cfi_restore 29
	.cfi_restore 28
	.cfi_restore 27
	.cfi_restore 26
	.cfi_restore 25
	.cfi_restore 24
	.cfi_restore 23
	blr
.LVL698:
.L828:
.LCFI64:
	.cfi_restore_state
.LBB4695:
.LBB4687:
.LBB4682:
.LBB4678:
.LBB4672:
	.loc 5 224 0
	lwz 26,12(25)
	cmpwi 7,26,0
	beq- 7,.L833
.LVL699:
.LBB4637:
.LBB4638:
	.loc 5 445 0
	lwz 11,24(25)
.LVL700:
	lwz 9,12(11)
	cmpwi 7,9,0
	bne+ 7,.L818
	b .L840
.LVL701:
.L808:
	mr 9,0
.LVL702:
.L818:
	.loc 5 446 0
	stw 26,8(11)
.LVL703:
	.loc 5 445 0
	mr 11,9
	lwz 0,12(9)
	cmpwi 7,0,0
	bne+ 7,.L808
.L778:
	.loc 5 448 0
	stw 26,8(9)
	.loc 5 449 0
	lwz 0,24(26)
	stw 0,12(9)
	.loc 5 450 0
	lwz 11,24(26)
	stw 9,16(11)
	.loc 5 451 0
	lwz 0,24(25)
	.loc 5 452 0
	lwz 9,20(26)
.LVL704:
	.loc 5 451 0
	stw 0,24(26)
	.loc 5 452 0
	lwz 0,20(25)
	add 0,9,0
	stw 0,20(26)
	.loc 5 455 0
	lwz 9,16(25)
	cmpwi 7,9,0
	beq- 7,.L780
	.loc 5 456 0
	stw 26,12(9)
.L781:
	.loc 5 460 0
	lwz 0,16(25)
.LBB4639:
.LBB4640:
.LBB4641:
	.loc 4 228 0
	addi 3,25,-4
.LBE4641:
.LBE4640:
.LBE4639:
	.loc 5 461 0
	lwz 9,8(26)
	.loc 5 460 0
	stw 0,16(26)
	.loc 5 461 0
	lwz 11,20(9)
	addi 0,11,-1
	stw 0,20(9)
.LVL705:
.LBB4644:
.LBB4643:
.LBB4642:
	.loc 4 228 0
	bl _ZdlPv
.LVL706:
	.loc 4 230 0
	lwz 9,16(24)
	addi 0,9,-1
	stw 0,16(24)
.LVL707:
.L782:
.LBE4642:
.LBE4643:
.LBE4644:
.LBE4638:
.LBE4637:
	.loc 5 231 0
	lwz 11,28(26)
	lwz 9,0(26)
	lwz 0,0(11)
	cmpw 7,9,0
	ble- 7,.L787
	.loc 5 232 0
	stw 0,0(26)
.L787:
	.loc 5 235 0
	lwz 0,20(26)
	cmpwi 7,0,4
	bgt- 7,.L835
	.loc 5 222 0
	lwz 25,8(26)
.LVL708:
	lwz 0,0(24)
	cmpw 7,25,0
	bne+ 7,.L823
	b .L826
.LVL709:
.L833:
	.loc 5 226 0
	lwz 3,16(25)
	mr 26,25
	cmpwi 7,3,0
	beq- 7,.L782
.LVL710:
.LBB4646:
.LBB4647:
	.loc 5 445 0
	lwz 11,24(3)
.LVL711:
	lwz 9,12(11)
	cmpwi 7,9,0
	bne+ 7,.L819
	b .L841
.LVL712:
.L811:
	mr 9,0
.LVL713:
.L819:
	.loc 5 446 0
	stw 25,8(11)
.LVL714:
	.loc 5 445 0
	mr 11,9
	lwz 0,12(9)
	cmpwi 7,0,0
	bne+ 7,.L811
.L783:
	.loc 5 448 0
	stw 25,8(9)
	.loc 5 449 0
	lwz 0,24(25)
	stw 0,12(9)
	.loc 5 450 0
	lwz 11,24(25)
	stw 9,16(11)
	.loc 5 451 0
	lwz 0,24(3)
	.loc 5 452 0
	lwz 9,20(25)
.LVL715:
	.loc 5 451 0
	stw 0,24(25)
	.loc 5 452 0
	lwz 0,20(3)
	add 0,9,0
	stw 0,20(25)
	.loc 5 455 0
	lwz 9,16(3)
	cmpwi 7,9,0
	beq- 7,.L785
	.loc 5 456 0
	stw 25,12(9)
.L786:
	.loc 5 460 0
	lwz 0,16(3)
.LBB4648:
.LBB4649:
.LBB4650:
	.loc 4 228 0
	addi 3,3,-4
.LBE4650:
.LBE4649:
.LBE4648:
	.loc 5 461 0
	lwz 9,8(25)
.LBB4655:
.LBB4653:
.LBB4651:
	.loc 4 230 0
	mr 26,25
.LBE4651:
.LBE4653:
.LBE4655:
	.loc 5 460 0
	stw 0,16(25)
	.loc 5 461 0
	lwz 11,20(9)
	addi 0,11,-1
	stw 0,20(9)
.LVL716:
.LBB4656:
.LBB4654:
.LBB4652:
	.loc 4 228 0
	bl _ZdlPv
.LVL717:
	.loc 4 230 0
	lwz 9,16(24)
	addi 0,9,-1
	stw 0,16(24)
.LVL718:
	b .L782
.LVL719:
.L780:
.LBE4652:
.LBE4654:
.LBE4656:
.LBE4647:
.LBE4646:
.LBB4659:
.LBB4645:
	.loc 5 458 0
	lwz 9,8(25)
	stw 26,24(9)
	b .L781
.LVL720:
.L840:
	.loc 5 445 0
	mr 9,11
	b .L778
.LVL721:
.L785:
.LBE4645:
.LBE4659:
.LBB4660:
.LBB4657:
	.loc 5 458 0
	lwz 9,8(3)
	stw 25,24(9)
	b .L786
.LVL722:
.L835:
.LBE4657:
.LBE4660:
.LBB4661:
.LBB4662:
.LBB4663:
.LBB4664:
.LBB4665:
.LBB4666:
	.loc 4 215 0
	lwz 9,24(31)
	.loc 4 216 0
	li 3,36
	.loc 4 215 0
	addi 0,9,1
	stw 0,24(31)
	.loc 4 216 0
	bl _Znwj
.LVL723:
.LBE4666:
.LBE4665:
	.loc 5 378 0
	stw 28,12(3)
	.loc 5 399 0
	addi 10,3,4
	.loc 5 377 0
	stw 28,4(3)
	.loc 5 379 0
	stw 28,16(3)
	.loc 5 380 0
	stw 28,20(3)
	.loc 5 381 0
	stw 28,24(3)
	.loc 5 382 0
	stw 28,28(3)
	.loc 5 383 0
	stw 28,32(3)
	.loc 5 384 0
	stw 28,8(3)
.LBE4664:
.LBE4663:
	.loc 5 400 0
	lwz 0,8(26)
	stw 0,12(3)
	.loc 5 403 0
	lwz 9,24(26)
.LVL724:
	.loc 5 404 0
	stw 10,8(9)
.LVL725:
	.loc 5 405 0
	lwz 0,20(26)
	cmpwi 7,0,3
	ble- 7,.L789
	li 11,3
.LVL726:
.L790:
	.loc 5 406 0
	lwz 9,12(9)
.LVL727:
	.loc 5 405 0
	addi 11,11,2
.LVL728:
	.loc 5 407 0
	stw 10,8(9)
	.loc 5 405 0
	lwz 0,20(26)
	cmpw 7,11,0
	blt+ 7,.L790
.LVL729:
.L789:
	.loc 5 410 0
	lwz 0,0(9)
	stw 0,4(3)
	.loc 5 411 0
	lwz 0,20(26)
	srawi 0,0,1
	addze 0,0
	stw 0,24(3)
	.loc 5 412 0
	lwz 11,24(26)
	.loc 5 413 0
	stw 9,32(3)
	.loc 5 412 0
	stw 11,28(3)
	.loc 5 415 0
	lwz 11,20(26)
	subf 0,0,11
	stw 0,20(26)
	.loc 5 416 0
	lwz 0,12(9)
	stw 0,24(26)
	.loc 5 418 0
	lwz 11,12(9)
	stw 28,16(11)
	.loc 5 419 0
	stw 28,12(9)
	.loc 5 424 0
	lwz 9,16(26)
.LVL730:
	cmpwi 7,9,0
	beq- 7,.L791
	.loc 5 425 0
	stw 10,12(9)
.L792:
	.loc 5 429 0
	lwz 0,16(26)
	.loc 5 433 0
	mr 25,26
	.loc 5 430 0
	stw 26,16(3)
	.loc 5 429 0
	stw 0,20(3)
	.loc 5 431 0
	stw 10,16(26)
	.loc 5 433 0
	lwz 9,8(26)
	lwz 11,20(9)
	addi 0,11,1
	stw 0,20(9)
	b .L826
.LVL731:
.L830:
.LBE4662:
.LBE4661:
.LBB4668:
	.loc 5 251 0
	lwz 9,24(3)
	lwz 0,4(9)
	cmpwi 7,0,0
	bne+ 7,.L800
.LVL732:
.LBB4628:
	.loc 5 253 0
	stw 0,8(9)
.LBB4629:
.LBB4630:
.LBB4631:
	.loc 4 228 0
	addi 3,3,-4
.LVL733:
.LBE4631:
.LBE4630:
.LBE4629:
	.loc 5 254 0
	lwz 9,8(31)
	lwz 0,24(9)
	stw 0,8(31)
.LVL734:
.LBB4634:
.LBB4633:
.LBB4632:
	.loc 4 228 0
	bl _ZdlPv
.LVL735:
	.loc 4 230 0
	lwz 0,24(31)
	addic 0,0,-1
	stw 0,24(31)
.LBE4632:
.LBE4633:
.LBE4634:
.LBE4628:
.LBE4668:
.LBE4672:
.LBE4678:
	.loc 4 881 0
	stw 28,12(30)
	.loc 4 882 0
	lwz 11,48(31)
	.loc 4 883 0
	lwz 9,52(31)
	.loc 4 882 0
	addi 0,11,-1
	stw 0,48(31)
.LBB4679:
.LBB4677:
	.loc 4 387 0
	lwz 0,0(30)
	srawi 11,0,31
	xor 0,11,0
	subf 0,11,0
.LBE4677:
.LBE4679:
	.loc 4 883 0
	subf 0,0,9
	stw 0,52(31)
.LBE4682:
.LBE4687:
	.loc 4 544 0
	lwz 9,4(30)
	.loc 4 545 0
	lwz 0,8(30)
	.loc 4 544 0
	cmpwi 7,9,0
	bne+ 7,.L837
.L801:
	.loc 4 547 0
	stw 0,0(31)
	.loc 4 549 0
	lwz 9,8(30)
	.loc 4 550 0
	lwz 0,4(30)
	.loc 4 549 0
	cmpwi 7,9,0
	bne+ 7,.L838
.L803:
	.loc 4 552 0
	stw 0,4(31)
	.loc 4 554 0
	lbz 0,29(31)
	cmpwi 7,0,0
	beq+ 7,.L805
.L831:
.LBB4688:
.LBB4689:
	.loc 4 387 0
	lwz 5,0(30)
.LBE4689:
.LBE4688:
	.loc 4 555 0
	mr 4,30
	lwz 3,_ZN5idLib3sysE@l(27)
.LBB4692:
.LBB4690:
	.loc 4 387 0
	srawi 0,5,31
.LBE4690:
.LBE4692:
	.loc 4 555 0
	lwz 9,0(3)
.LBB4693:
.LBB4691:
	.loc 4 387 0
	xor 5,0,5
	subf 5,0,5
.LBE4691:
.LBE4693:
	.loc 4 555 0
	lwz 0,48(9)
	addi 5,5,16
	mtctr 0
	bctrl
	b .L805
.LVL736:
.L841:
.LBB4694:
.LBB4683:
.LBB4680:
.LBB4673:
.LBB4669:
.LBB4658:
	.loc 5 445 0
	mr 9,11
	b .L783
.LVL737:
.L772:
.LBE4658:
.LBE4669:
	.loc 5 212 0
	lwz 9,8(23)
	lwz 0,12(23)
	stw 0,24(9)
	.loc 5 214 0
	lwz 9,12(23)
	cmpwi 7,9,0
	bne+ 7,.L839
.L774:
	.loc 5 217 0
	lwz 9,8(23)
	lwz 0,16(23)
	stw 0,28(9)
	b .L775
.LVL738:
.L791:
.LBB4670:
.LBB4667:
	.loc 5 427 0
	lwz 9,8(26)
	stw 10,24(9)
	b .L792
.LBE4667:
.LBE4670:
.LBE4673:
.LBE4680:
.LBE4683:
.LBE4694:
.LBE4695:
	.cfi_endproc
.LFE2849:
	.size	_ZN19idDynamicBlockAllocI13dominantTri_sLi65536ELi1024EE19FreeEmptyBaseBlocksEv, .-_ZN19idDynamicBlockAllocI13dominantTri_sLi65536ELi1024EE19FreeEmptyBaseBlocksEv
	.section	.text._ZN19idDynamicBlockAllocIiLi65536ELi1024EE19FreeEmptyBaseBlocksEv,"axG",@progbits,_ZN19idDynamicBlockAllocIiLi65536ELi1024EE19FreeEmptyBaseBlocksEv,comdat
	.align 2
	.weak	_ZN19idDynamicBlockAllocIiLi65536ELi1024EE19FreeEmptyBaseBlocksEv
	.type	_ZN19idDynamicBlockAllocIiLi65536ELi1024EE19FreeEmptyBaseBlocksEv, @function
_ZN19idDynamicBlockAllocIiLi65536ELi1024EE19FreeEmptyBaseBlocksEv:
.LFB2850:
	.loc 4 536 0
	.cfi_startproc
.LVL739:
	mflr 0
	stwu 1,-48(1)
.LCFI65:
	.cfi_def_cfa_offset 48
	.cfi_register 65, 0
	mfcr 12
	stw 31,44(1)
	mr 31,3
	.cfi_offset 31, -4
	.cfi_register 70, 12
	stw 0,52(1)
	stw 23,12(1)
	stw 24,16(1)
	stw 25,20(1)
	stw 26,24(1)
	stw 27,28(1)
	stw 28,32(1)
	stw 29,36(1)
	stw 30,40(1)
	stw 12,8(1)
.LBB4743:
	.loc 4 539 0
	lwz 30,0(3)
	.cfi_offset 70, -40
	.cfi_offset 30, -8
	.cfi_offset 29, -12
	.cfi_offset 28, -16
	.cfi_offset 27, -20
	.cfi_offset 26, -24
	.cfi_offset 25, -28
	.cfi_offset 24, -32
	.cfi_offset 23, -36
	.cfi_offset 65, 4
.LVL740:
	cmpwi 7,30,0
	beq- 7,.L842
	lwz 0,0(30)
.LBB4744:
.LBB4745:
	.loc 4 881 0
	li 28,0
.LBE4745:
.LBE4744:
	.loc 4 555 0
	lis 27,_ZN5idLib3sysE@ha
	.loc 4 540 0
	lwz 29,8(30)
.LVL741:
	cmpwi 7,0,0
	.loc 4 542 0
	blt- 7,.L893
.LVL742:
.L903:
	cmpwi 4,29,0
.L845:
.LVL743:
	.loc 4 539 0 discriminator 1
	beq- 4,.L842
.L908:
	.loc 4 539 0 is_stmt 0
	lwz 0,0(29)
	cmpwi 7,0,0
.LVL744:
.L847:
	.loc 4 540 0 is_stmt 1
	mr 30,29
	lwz 29,8(30)
.LVL745:
	.loc 4 542 0
	bge+ 7,.L903
.LVL746:
.L893:
	.loc 4 542 0 is_stmt 0 discriminator 1
	lwz 23,12(30)
	cmpwi 4,29,0
	cmpwi 7,23,0
	beq- 7,.L845
	.loc 4 542 0 discriminator 3
	beq- 4,.L846
	.loc 2 2282 0 is_stmt 1 discriminator 5
	lwz 0,0(29)
	.loc 4 542 0 discriminator 5
	cmpwi 7,0,0
	bge+ 7,.L847
.L846:
.LVL747:
.LBB4813:
.LBB4810:
.LBB4746:
.LBB4747:
	.loc 5 209 0 discriminator 6
	lwz 9,16(23)
.LBE4747:
.LBE4746:
	.loc 4 880 0 discriminator 6
	addi 24,31,8
.LVL748:
.LBB4803:
.LBB4790:
	.loc 5 209 0 discriminator 6
	cmpwi 7,9,0
	beq- 7,.L848
	.loc 5 210 0
	lwz 0,12(23)
	stw 0,12(9)
	.loc 5 214 0
	lwz 9,12(23)
	cmpwi 7,9,0
	beq- 7,.L850
.L915:
	.loc 5 215 0
	lwz 0,16(23)
	stw 0,16(9)
.L851:
	.loc 5 219 0
	lwz 9,8(23)
	lwz 11,20(9)
	addi 0,11,-1
	stw 0,20(9)
	.loc 5 222 0
	lwz 25,8(23)
.LVL749:
	lwz 0,8(31)
	cmpw 7,25,0
	beq- 7,.L902
.LVL750:
.L899:
	lwz 0,20(25)
	cmpwi 7,0,1
	ble- 7,.L904
.L902:
	.loc 5 240 0
	cmpwi 7,25,0
	beq- 7,.L869
.L905:
	lwz 9,28(25)
	cmpwi 7,9,0
	beq- 7,.L869
	.loc 5 242 0
	lwz 0,0(9)
	lwz 9,0(25)
	cmpw 7,9,0
	ble- 7,.L875
	.loc 5 243 0
	stw 0,0(25)
.L875:
	.loc 5 240 0
	lwz 25,8(25)
.LVL751:
	cmpwi 7,25,0
	bne+ 7,.L905
.L869:
.LVL752:
.LBB4748:
.LBB4749:
.LBB4750:
	.loc 4 228 0
	addi 3,23,-4
	bl _ZdlPv
	.loc 4 230 0
	lwz 9,24(31)
.LBE4750:
.LBE4749:
.LBE4748:
.LBB4753:
	.loc 5 251 0
	lwz 3,8(31)
.LBE4753:
.LBB4754:
.LBB4752:
.LBB4751:
	.loc 4 230 0
	addi 0,9,-1
	stw 0,24(31)
.LBE4751:
.LBE4752:
.LBE4754:
.LBB4755:
	.loc 5 251 0
	lwz 0,20(3)
	cmpwi 7,0,1
	beq- 7,.L906
.L876:
.LBE4755:
.LBE4790:
.LBE4803:
	.loc 4 881 0
	stw 28,12(30)
	.loc 4 882 0
	lwz 11,48(31)
	.loc 4 883 0
	lwz 9,52(31)
	.loc 4 882 0
	addi 0,11,-1
	stw 0,48(31)
.LBB4804:
.LBB4805:
	.loc 4 387 0
	lwz 0,0(30)
	srawi 11,0,31
	xor 0,11,0
	subf 0,11,0
.LBE4805:
.LBE4804:
	.loc 4 883 0
	subf 0,0,9
	stw 0,52(31)
.LBE4810:
.LBE4813:
	.loc 4 544 0
	lwz 9,4(30)
	.loc 4 545 0
	lwz 0,8(30)
	.loc 4 544 0
	cmpwi 7,9,0
	beq- 7,.L877
.LVL753:
.L913:
	.loc 4 545 0
	stw 0,8(9)
	.loc 4 549 0
	lwz 9,8(30)
	.loc 4 550 0
	lwz 0,4(30)
	.loc 4 549 0
	cmpwi 7,9,0
	beq- 7,.L879
.L914:
	.loc 4 550 0
	stw 0,4(9)
	.loc 4 554 0
	lbz 0,29(31)
	cmpwi 7,0,0
	bne- 7,.L907
.L881:
	.loc 4 557 0
	lwz 11,32(31)
	.loc 4 559 0
	mr 3,30
	.loc 4 558 0
	lwz 9,36(31)
	.loc 4 557 0
	addi 0,11,-1
	stw 0,32(31)
.LBB4814:
.LBB4815:
	.loc 4 387 0
	lwz 0,0(30)
	srawi 11,0,31
	xor 0,11,0
	subf 0,11,0
.LBE4815:
.LBE4814:
	.loc 4 558 0
	subfic 0,0,-16
	add 0,9,0
	stw 0,36(31)
	.loc 4 559 0
	bl _Z10Mem_Free16Pv
.LVL754:
	.loc 4 539 0
	bne+ 4,.L908
.LVL755:
.L842:
.LBE4743:
	.loc 4 566 0
	lwz 0,52(1)
	lwz 12,8(1)
	mtlr 0
	lwz 23,12(1)
	lwz 24,16(1)
	mtcrf 8,12
	lwz 25,20(1)
	lwz 26,24(1)
	lwz 27,28(1)
	lwz 28,32(1)
	lwz 29,36(1)
	lwz 30,40(1)
	lwz 31,44(1)
.LVL756:
	addi 1,1,48
	.cfi_remember_state
.LCFI66:
	.cfi_def_cfa_offset 0
	.cfi_restore 70
	.cfi_restore 31
	.cfi_restore 30
	.cfi_restore 29
	.cfi_restore 28
	.cfi_restore 27
	.cfi_restore 26
	.cfi_restore 25
	.cfi_restore 24
	.cfi_restore 23
	blr
.LVL757:
.L904:
.LCFI67:
	.cfi_restore_state
.LBB4824:
.LBB4816:
.LBB4811:
.LBB4807:
.LBB4791:
	.loc 5 224 0
	lwz 26,12(25)
	cmpwi 7,26,0
	beq- 7,.L909
.LVL758:
.LBB4756:
.LBB4757:
	.loc 5 445 0
	lwz 11,24(25)
.LVL759:
	lwz 9,12(11)
	cmpwi 7,9,0
	bne+ 7,.L894
	b .L916
.LVL760:
.L884:
	mr 9,0
.LVL761:
.L894:
	.loc 5 446 0
	stw 26,8(11)
.LVL762:
	.loc 5 445 0
	mr 11,9
	lwz 0,12(9)
	cmpwi 7,0,0
	bne+ 7,.L884
.L854:
	.loc 5 448 0
	stw 26,8(9)
	.loc 5 449 0
	lwz 0,24(26)
	stw 0,12(9)
	.loc 5 450 0
	lwz 11,24(26)
	stw 9,16(11)
	.loc 5 451 0
	lwz 0,24(25)
	.loc 5 452 0
	lwz 9,20(26)
.LVL763:
	.loc 5 451 0
	stw 0,24(26)
	.loc 5 452 0
	lwz 0,20(25)
	add 0,9,0
	stw 0,20(26)
	.loc 5 455 0
	lwz 9,16(25)
	cmpwi 7,9,0
	beq- 7,.L856
	.loc 5 456 0
	stw 26,12(9)
.L857:
	.loc 5 460 0
	lwz 0,16(25)
.LBB4758:
.LBB4759:
.LBB4760:
	.loc 4 228 0
	addi 3,25,-4
.LBE4760:
.LBE4759:
.LBE4758:
	.loc 5 461 0
	lwz 9,8(26)
	.loc 5 460 0
	stw 0,16(26)
	.loc 5 461 0
	lwz 11,20(9)
	addi 0,11,-1
	stw 0,20(9)
.LVL764:
.LBB4763:
.LBB4762:
.LBB4761:
	.loc 4 228 0
	bl _ZdlPv
.LVL765:
	.loc 4 230 0
	lwz 9,16(24)
	addi 0,9,-1
	stw 0,16(24)
.LVL766:
.L858:
.LBE4761:
.LBE4762:
.LBE4763:
.LBE4757:
.LBE4756:
	.loc 5 231 0
	lwz 11,28(26)
	lwz 9,0(26)
	lwz 0,0(11)
	cmpw 7,9,0
	ble- 7,.L863
	.loc 5 232 0
	stw 0,0(26)
.L863:
	.loc 5 235 0
	lwz 0,20(26)
	cmpwi 7,0,4
	bgt- 7,.L911
	.loc 5 222 0
	lwz 25,8(26)
.LVL767:
	lwz 0,0(24)
	cmpw 7,25,0
	bne+ 7,.L899
	b .L902
.LVL768:
.L909:
	.loc 5 226 0
	lwz 3,16(25)
	mr 26,25
	cmpwi 7,3,0
	beq- 7,.L858
.LVL769:
.LBB4765:
.LBB4766:
	.loc 5 445 0
	lwz 11,24(3)
.LVL770:
	lwz 9,12(11)
	cmpwi 7,9,0
	bne+ 7,.L895
	b .L917
.LVL771:
.L887:
	mr 9,0
.LVL772:
.L895:
	.loc 5 446 0
	stw 25,8(11)
.LVL773:
	.loc 5 445 0
	mr 11,9
	lwz 0,12(9)
	cmpwi 7,0,0
	bne+ 7,.L887
.L859:
	.loc 5 448 0
	stw 25,8(9)
	.loc 5 449 0
	lwz 0,24(25)
	stw 0,12(9)
	.loc 5 450 0
	lwz 11,24(25)
	stw 9,16(11)
	.loc 5 451 0
	lwz 0,24(3)
	.loc 5 452 0
	lwz 9,20(25)
.LVL774:
	.loc 5 451 0
	stw 0,24(25)
	.loc 5 452 0
	lwz 0,20(3)
	add 0,9,0
	stw 0,20(25)
	.loc 5 455 0
	lwz 9,16(3)
	cmpwi 7,9,0
	beq- 7,.L861
	.loc 5 456 0
	stw 25,12(9)
.L862:
	.loc 5 460 0
	lwz 0,16(3)
.LBB4767:
.LBB4768:
.LBB4769:
	.loc 4 228 0
	addi 3,3,-4
.LBE4769:
.LBE4768:
.LBE4767:
	.loc 5 461 0
	lwz 9,8(25)
.LBB4774:
.LBB4772:
.LBB4770:
	.loc 4 230 0
	mr 26,25
.LBE4770:
.LBE4772:
.LBE4774:
	.loc 5 460 0
	stw 0,16(25)
	.loc 5 461 0
	lwz 11,20(9)
	addi 0,11,-1
	stw 0,20(9)
.LVL775:
.LBB4775:
.LBB4773:
.LBB4771:
	.loc 4 228 0
	bl _ZdlPv
.LVL776:
	.loc 4 230 0
	lwz 9,16(24)
	addi 0,9,-1
	stw 0,16(24)
.LVL777:
	b .L858
.LVL778:
.L856:
.LBE4771:
.LBE4773:
.LBE4775:
.LBE4766:
.LBE4765:
.LBB4778:
.LBB4764:
	.loc 5 458 0
	lwz 9,8(25)
	stw 26,24(9)
	b .L857
.LVL779:
.L916:
	.loc 5 445 0
	mr 9,11
	b .L854
.LVL780:
.L861:
.LBE4764:
.LBE4778:
.LBB4779:
.LBB4776:
	.loc 5 458 0
	lwz 9,8(3)
	stw 25,24(9)
	b .L862
.LVL781:
.L911:
.LBE4776:
.LBE4779:
.LBB4780:
.LBB4781:
.LBB4782:
.LBB4783:
.LBB4784:
.LBB4785:
	.loc 4 215 0
	lwz 9,24(31)
	.loc 4 216 0
	li 3,36
	.loc 4 215 0
	addi 0,9,1
	stw 0,24(31)
	.loc 4 216 0
	bl _Znwj
.LVL782:
.LBE4785:
.LBE4784:
	.loc 5 378 0
	stw 28,12(3)
	.loc 5 399 0
	addi 10,3,4
	.loc 5 377 0
	stw 28,4(3)
	.loc 5 379 0
	stw 28,16(3)
	.loc 5 380 0
	stw 28,20(3)
	.loc 5 381 0
	stw 28,24(3)
	.loc 5 382 0
	stw 28,28(3)
	.loc 5 383 0
	stw 28,32(3)
	.loc 5 384 0
	stw 28,8(3)
.LBE4783:
.LBE4782:
	.loc 5 400 0
	lwz 0,8(26)
	stw 0,12(3)
	.loc 5 403 0
	lwz 9,24(26)
.LVL783:
	.loc 5 404 0
	stw 10,8(9)
.LVL784:
	.loc 5 405 0
	lwz 0,20(26)
	cmpwi 7,0,3
	ble- 7,.L865
	li 11,3
.LVL785:
.L866:
	.loc 5 406 0
	lwz 9,12(9)
.LVL786:
	.loc 5 405 0
	addi 11,11,2
.LVL787:
	.loc 5 407 0
	stw 10,8(9)
	.loc 5 405 0
	lwz 0,20(26)
	cmpw 7,11,0
	blt+ 7,.L866
.LVL788:
.L865:
	.loc 5 410 0
	lwz 0,0(9)
	stw 0,4(3)
	.loc 5 411 0
	lwz 0,20(26)
	srawi 0,0,1
	addze 0,0
	stw 0,24(3)
	.loc 5 412 0
	lwz 11,24(26)
	.loc 5 413 0
	stw 9,32(3)
	.loc 5 412 0
	stw 11,28(3)
	.loc 5 415 0
	lwz 11,20(26)
	subf 0,0,11
	stw 0,20(26)
	.loc 5 416 0
	lwz 0,12(9)
	stw 0,24(26)
	.loc 5 418 0
	lwz 11,12(9)
	stw 28,16(11)
	.loc 5 419 0
	stw 28,12(9)
	.loc 5 424 0
	lwz 9,16(26)
.LVL789:
	cmpwi 7,9,0
	beq- 7,.L867
	.loc 5 425 0
	stw 10,12(9)
.L868:
	.loc 5 429 0
	lwz 0,16(26)
	.loc 5 433 0
	mr 25,26
	.loc 5 430 0
	stw 26,16(3)
	.loc 5 429 0
	stw 0,20(3)
	.loc 5 431 0
	stw 10,16(26)
	.loc 5 433 0
	lwz 9,8(26)
	lwz 11,20(9)
	addi 0,11,1
	stw 0,20(9)
	b .L902
.LVL790:
.L906:
.LBE4781:
.LBE4780:
.LBB4787:
	.loc 5 251 0
	lwz 9,24(3)
	lwz 0,4(9)
	cmpwi 7,0,0
	bne+ 7,.L876
.LVL791:
.LBE4787:
.LBE4791:
.LBB4792:
.LBB4793:
.LBB4794:
.LBB4795:
	.loc 5 253 0
	stw 0,8(9)
.LBB4796:
.LBB4797:
.LBB4798:
	.loc 4 228 0
	addi 3,3,-4
.LVL792:
.LBE4798:
.LBE4797:
.LBE4796:
	.loc 5 254 0
	lwz 9,8(31)
	lwz 0,24(9)
	stw 0,8(31)
.LVL793:
.LBB4801:
.LBB4800:
.LBB4799:
	.loc 4 228 0
	bl _ZdlPv
.LVL794:
	.loc 4 230 0
	lwz 0,24(31)
	addic 0,0,-1
	stw 0,24(31)
.LBE4799:
.LBE4800:
.LBE4801:
.LBE4795:
.LBE4794:
.LBE4793:
.LBE4792:
.LBE4807:
	.loc 4 881 0
	stw 28,12(30)
	.loc 4 882 0
	lwz 11,48(31)
	.loc 4 883 0
	lwz 9,52(31)
	.loc 4 882 0
	addi 0,11,-1
	stw 0,48(31)
.LBB4808:
.LBB4806:
	.loc 4 387 0
	lwz 0,0(30)
	srawi 11,0,31
	xor 0,11,0
	subf 0,11,0
.LBE4806:
.LBE4808:
	.loc 4 883 0
	subf 0,0,9
	stw 0,52(31)
.LBE4811:
.LBE4816:
	.loc 4 544 0
	lwz 9,4(30)
	.loc 4 545 0
	lwz 0,8(30)
	.loc 4 544 0
	cmpwi 7,9,0
	bne+ 7,.L913
.L877:
	.loc 4 547 0
	stw 0,0(31)
	.loc 4 549 0
	lwz 9,8(30)
	.loc 4 550 0
	lwz 0,4(30)
	.loc 4 549 0
	cmpwi 7,9,0
	bne+ 7,.L914
.L879:
	.loc 4 552 0
	stw 0,4(31)
	.loc 4 554 0
	lbz 0,29(31)
	cmpwi 7,0,0
	beq+ 7,.L881
.L907:
.LBB4817:
.LBB4818:
	.loc 4 387 0
	lwz 5,0(30)
.LBE4818:
.LBE4817:
	.loc 4 555 0
	mr 4,30
	lwz 3,_ZN5idLib3sysE@l(27)
.LBB4821:
.LBB4819:
	.loc 4 387 0
	srawi 0,5,31
.LBE4819:
.LBE4821:
	.loc 4 555 0
	lwz 9,0(3)
.LBB4822:
.LBB4820:
	.loc 4 387 0
	xor 5,0,5
	subf 5,0,5
.LBE4820:
.LBE4822:
	.loc 4 555 0
	lwz 0,48(9)
	addi 5,5,16
	mtctr 0
	bctrl
	b .L881
.LVL795:
.L917:
.LBB4823:
.LBB4812:
.LBB4809:
.LBB4802:
.LBB4788:
.LBB4777:
	.loc 5 445 0
	mr 9,11
	b .L859
.LVL796:
.L848:
.LBE4777:
.LBE4788:
	.loc 5 212 0
	lwz 9,8(23)
	lwz 0,12(23)
	stw 0,24(9)
	.loc 5 214 0
	lwz 9,12(23)
	cmpwi 7,9,0
	bne+ 7,.L915
.L850:
	.loc 5 217 0
	lwz 9,8(23)
	lwz 0,16(23)
	stw 0,28(9)
	b .L851
.LVL797:
.L867:
.LBB4789:
.LBB4786:
	.loc 5 427 0
	lwz 9,8(26)
	stw 10,24(9)
	b .L868
.LBE4786:
.LBE4789:
.LBE4802:
.LBE4809:
.LBE4812:
.LBE4823:
.LBE4824:
	.cfi_endproc
.LFE2850:
	.size	_ZN19idDynamicBlockAllocIiLi65536ELi1024EE19FreeEmptyBaseBlocksEv, .-_ZN19idDynamicBlockAllocIiLi65536ELi1024EE19FreeEmptyBaseBlocksEv
	.section	.text._ZN7idBTreeI14idDynamicBlockI10idDrawVertEiLi4EE6RemoveEP11idBTreeNodeIS2_iE,"axG",@progbits,_ZN7idBTreeI14idDynamicBlockI10idDrawVertEiLi4EE6RemoveEP11idBTreeNodeIS2_iE,comdat
	.align 2
	.weak	_ZN7idBTreeI14idDynamicBlockI10idDrawVertEiLi4EE6RemoveEP11idBTreeNodeIS2_iE
	.type	_ZN7idBTreeI14idDynamicBlockI10idDrawVertEiLi4EE6RemoveEP11idBTreeNodeIS2_iE, @function
_ZN7idBTreeI14idDynamicBlockI10idDrawVertEiLi4EE6RemoveEP11idBTreeNodeIS2_iE:
.LFB3117:
	.loc 5 203 0
	.cfi_startproc
.LVL798:
.LBB4854:
	.loc 5 209 0
	lwz 9,16(4)
.LBE4854:
	.loc 5 203 0
	mflr 0
	stwu 1,-24(1)
.LCFI68:
	.cfi_def_cfa_offset 24
	.cfi_register 65, 0
.LBB4904:
	.loc 5 209 0
	cmpwi 7,9,0
.LBE4904:
	.loc 5 203 0
	stw 28,8(1)
	mr 28,4
	.cfi_offset 28, -16
	stw 29,12(1)
	mr 29,3
	.cfi_offset 29, -12
	stw 0,28(1)
	stw 30,16(1)
	stw 31,20(1)
.LBB4905:
	.loc 5 209 0
	beq- 7,.L919
	.cfi_offset 31, -4
	.cfi_offset 30, -8
	.cfi_offset 65, 4
	.loc 5 210 0
	lwz 0,12(4)
	stw 0,12(9)
	.loc 5 214 0
	lwz 9,12(28)
	cmpwi 7,9,0
	beq- 7,.L921
.L972:
	.loc 5 215 0
	lwz 0,16(28)
	stw 0,16(9)
.L922:
	.loc 5 219 0
	lwz 9,8(28)
	lwz 11,20(9)
	addi 0,11,-1
	stw 0,20(9)
	.loc 5 222 0
	lwz 30,8(28)
.LVL799:
	lwz 0,0(29)
	cmpw 7,30,0
	beq- 7,.L965
.LVL800:
.L962:
	.loc 5 222 0 is_stmt 0 discriminator 2
	lwz 0,20(30)
	cmpwi 7,0,1
	ble- 7,.L966
.L965:
	.loc 5 240 0 is_stmt 1
	cmpwi 7,30,0
	beq- 7,.L940
.L967:
	.loc 5 240 0 is_stmt 0 discriminator 2
	lwz 9,28(30)
	cmpwi 7,9,0
	beq- 7,.L940
	.loc 5 242 0 is_stmt 1 discriminator 5
	lwz 0,0(9)
	lwz 9,0(30)
	cmpw 7,9,0
	ble- 7,.L946
	.loc 5 243 0
	stw 0,0(30)
.L946:
	.loc 5 240 0
	lwz 30,8(30)
.LVL801:
	cmpwi 7,30,0
	bne+ 7,.L967
.L940:
.LVL802:
.LBB4855:
.LBB4856:
.LBB4857:
	.loc 4 228 0
	addi 3,28,-4
	bl _ZdlPv
	.loc 4 230 0
	lwz 9,16(29)
.LBE4857:
.LBE4856:
.LBE4855:
.LBB4860:
	.loc 5 251 0
	lwz 3,0(29)
.LBE4860:
.LBB4868:
.LBB4859:
.LBB4858:
	.loc 4 230 0
	addi 0,9,-1
	stw 0,16(29)
.LBE4858:
.LBE4859:
.LBE4868:
.LBB4869:
	.loc 5 251 0
	lwz 0,20(3)
	cmpwi 7,0,1
	beq- 7,.L948
.LVL803:
.L918:
.LBE4869:
.LBE4905:
	.loc 5 261 0
	lwz 0,28(1)
	lwz 28,8(1)
.LVL804:
	mtlr 0
	lwz 29,12(1)
.LVL805:
	lwz 30,16(1)
.LVL806:
	lwz 31,20(1)
	addi 1,1,24
	.cfi_remember_state
.LCFI69:
	.cfi_def_cfa_offset 0
	.cfi_restore 31
	.cfi_restore 30
	.cfi_restore 29
	.cfi_restore 28
	blr
.LVL807:
.L966:
.LCFI70:
	.cfi_restore_state
.LBB4906:
	.loc 5 224 0 discriminator 5
	lwz 31,12(30)
	cmpwi 7,31,0
	beq- 7,.L968
.LVL808:
.LBB4870:
.LBB4871:
	.loc 5 445 0
	lwz 11,24(30)
.LVL809:
	lwz 9,12(11)
	cmpwi 7,9,0
	bne+ 7,.L957
	b .L973
.LVL810:
.L950:
	mr 9,0
.LVL811:
.L957:
	.loc 5 446 0
	stw 31,8(11)
.LVL812:
	.loc 5 445 0
	mr 11,9
	lwz 0,12(9)
	cmpwi 7,0,0
	bne+ 7,.L950
.L925:
	.loc 5 448 0
	stw 31,8(9)
	.loc 5 449 0
	lwz 0,24(31)
	stw 0,12(9)
	.loc 5 450 0
	lwz 11,24(31)
	stw 9,16(11)
	.loc 5 451 0
	lwz 0,24(30)
	.loc 5 452 0
	lwz 9,20(31)
.LVL813:
	.loc 5 451 0
	stw 0,24(31)
	.loc 5 452 0
	lwz 0,20(30)
	add 0,9,0
	stw 0,20(31)
	.loc 5 455 0
	lwz 9,16(30)
	cmpwi 7,9,0
	beq- 7,.L927
	.loc 5 456 0
	stw 31,12(9)
.L928:
	.loc 5 460 0
	lwz 0,16(30)
.LBB4872:
.LBB4873:
.LBB4874:
	.loc 4 228 0
	addi 3,30,-4
.LBE4874:
.LBE4873:
.LBE4872:
	.loc 5 461 0
	lwz 9,8(31)
	.loc 5 460 0
	stw 0,16(31)
	.loc 5 461 0
	lwz 11,20(9)
	addi 0,11,-1
	stw 0,20(9)
.LVL814:
.LBB4877:
.LBB4876:
.LBB4875:
	.loc 4 228 0
	bl _ZdlPv
.LVL815:
	.loc 4 230 0
	lwz 9,16(29)
	addi 0,9,-1
	stw 0,16(29)
.LVL816:
.L929:
.LBE4875:
.LBE4876:
.LBE4877:
.LBE4871:
.LBE4870:
	.loc 5 231 0
	lwz 11,28(31)
	lwz 9,0(31)
	lwz 0,0(11)
	cmpw 7,9,0
	ble- 7,.L934
	.loc 5 232 0
	stw 0,0(31)
.L934:
	.loc 5 235 0
	lwz 0,20(31)
	cmpwi 7,0,4
	bgt- 7,.L970
	.loc 5 222 0
	lwz 30,8(31)
.LVL817:
	lwz 0,0(29)
	cmpw 7,0,30
	bne+ 7,.L962
	b .L965
.LVL818:
.L968:
	.loc 5 226 0
	lwz 3,16(30)
	mr 31,30
	cmpwi 7,3,0
	beq- 7,.L929
.LVL819:
.LBB4879:
.LBB4880:
	.loc 5 445 0
	lwz 11,24(3)
.LVL820:
	lwz 9,12(11)
	cmpwi 7,9,0
	bne+ 7,.L958
	b .L974
.LVL821:
.L953:
	mr 9,0
.LVL822:
.L958:
	.loc 5 446 0
	stw 30,8(11)
.LVL823:
	.loc 5 445 0
	mr 11,9
	lwz 0,12(9)
	cmpwi 7,0,0
	bne+ 7,.L953
.L930:
	.loc 5 448 0
	stw 30,8(9)
	.loc 5 449 0
	lwz 0,24(30)
	stw 0,12(9)
	.loc 5 450 0
	lwz 11,24(30)
	stw 9,16(11)
	.loc 5 451 0
	lwz 0,24(3)
	.loc 5 452 0
	lwz 9,20(30)
.LVL824:
	.loc 5 451 0
	stw 0,24(30)
	.loc 5 452 0
	lwz 0,20(3)
	add 0,9,0
	stw 0,20(30)
	.loc 5 455 0
	lwz 9,16(3)
	cmpwi 7,9,0
	beq- 7,.L932
	.loc 5 456 0
	stw 30,12(9)
.L933:
	.loc 5 460 0
	lwz 0,16(3)
.LBB4881:
.LBB4882:
.LBB4883:
	.loc 4 228 0
	addi 3,3,-4
.LBE4883:
.LBE4882:
.LBE4881:
	.loc 5 461 0
	lwz 9,8(30)
.LBB4888:
.LBB4886:
.LBB4884:
	.loc 4 230 0
	mr 31,30
.LBE4884:
.LBE4886:
.LBE4888:
	.loc 5 460 0
	stw 0,16(30)
	.loc 5 461 0
	lwz 11,20(9)
	addi 0,11,-1
	stw 0,20(9)
.LVL825:
.LBB4889:
.LBB4887:
.LBB4885:
	.loc 4 228 0
	bl _ZdlPv
.LVL826:
	.loc 4 230 0
	lwz 9,16(29)
	addi 0,9,-1
	stw 0,16(29)
.LVL827:
	b .L929
.LVL828:
.L927:
.LBE4885:
.LBE4887:
.LBE4889:
.LBE4880:
.LBE4879:
.LBB4892:
.LBB4878:
	.loc 5 458 0
	lwz 9,8(30)
	stw 31,24(9)
	b .L928
.LVL829:
.L973:
	.loc 5 445 0
	mr 9,11
	b .L925
.LVL830:
.L932:
.LBE4878:
.LBE4892:
.LBB4893:
.LBB4890:
	.loc 5 458 0
	lwz 9,8(3)
	stw 30,24(9)
	b .L933
.LVL831:
.L970:
.LBE4890:
.LBE4893:
.LBB4894:
.LBB4895:
.LBB4896:
.LBB4897:
.LBB4898:
.LBB4899:
	.loc 4 215 0
	lwz 9,16(29)
	.loc 4 216 0
	li 3,36
	.loc 4 215 0
	addi 0,9,1
	stw 0,16(29)
	.loc 4 216 0
	bl _Znwj
.LVL832:
.LBE4899:
.LBE4898:
	.loc 5 377 0
	li 0,0
	.loc 5 378 0
	stw 0,12(3)
	.loc 5 399 0
	addi 10,3,4
	.loc 5 377 0
	stw 0,4(3)
	.loc 5 379 0
	stw 0,16(3)
	.loc 5 380 0
	stw 0,20(3)
	.loc 5 381 0
	stw 0,24(3)
	.loc 5 382 0
	stw 0,28(3)
	.loc 5 383 0
	stw 0,32(3)
	.loc 5 384 0
	stw 0,8(3)
.LBE4897:
.LBE4896:
	.loc 5 400 0
	lwz 0,8(31)
	stw 0,12(3)
	.loc 5 403 0
	lwz 9,24(31)
.LVL833:
	.loc 5 404 0
	stw 10,8(9)
.LVL834:
	.loc 5 405 0
	lwz 0,20(31)
	cmpwi 7,0,3
	ble- 7,.L936
	li 11,3
.LVL835:
.L937:
	.loc 5 406 0
	lwz 9,12(9)
.LVL836:
	.loc 5 405 0
	addi 11,11,2
.LVL837:
	.loc 5 407 0
	stw 10,8(9)
	.loc 5 405 0
	lwz 0,20(31)
	cmpw 7,11,0
	blt+ 7,.L937
.LVL838:
.L936:
	.loc 5 410 0
	lwz 11,0(9)
	.loc 5 418 0
	li 0,0
	.loc 5 410 0
	stw 11,4(3)
	.loc 5 411 0
	lwz 11,20(31)
	srawi 11,11,1
	addze 11,11
	stw 11,24(3)
	.loc 5 412 0
	lwz 8,24(31)
	.loc 5 413 0
	stw 9,32(3)
	.loc 5 412 0
	stw 8,28(3)
	.loc 5 415 0
	lwz 8,20(31)
	subf 11,11,8
	stw 11,20(31)
	.loc 5 416 0
	lwz 11,12(9)
	stw 11,24(31)
	.loc 5 418 0
	lwz 11,12(9)
	stw 0,16(11)
	.loc 5 419 0
	stw 0,12(9)
	.loc 5 424 0
	lwz 9,16(31)
.LVL839:
	cmpwi 7,9,0
	beq- 7,.L938
	.loc 5 425 0
	stw 10,12(9)
.L939:
	.loc 5 429 0
	lwz 0,16(31)
	.loc 5 433 0
	mr 30,31
	.loc 5 430 0
	stw 31,16(3)
	.loc 5 429 0
	stw 0,20(3)
	.loc 5 431 0
	stw 10,16(31)
	.loc 5 433 0
	lwz 9,8(31)
	lwz 11,20(9)
	addi 0,11,1
	stw 0,20(9)
	b .L965
.LVL840:
.L948:
.LBE4895:
.LBE4894:
.LBB4901:
	.loc 5 251 0 discriminator 1
	lwz 9,24(3)
	lwz 0,4(9)
	cmpwi 7,0,0
	bne+ 7,.L918
.LVL841:
.LBB4861:
	.loc 5 253 0
	stw 0,8(9)
.LBB4862:
.LBB4863:
.LBB4864:
	.loc 4 228 0
	addi 3,3,-4
.LVL842:
.LBE4864:
.LBE4863:
.LBE4862:
	.loc 5 254 0
	lwz 9,0(29)
	lwz 0,24(9)
	stw 0,0(29)
.LVL843:
.LBB4867:
.LBB4866:
.LBB4865:
	.loc 4 228 0
	bl _ZdlPv
.LVL844:
	.loc 4 230 0
	lwz 0,16(29)
	addic 0,0,-1
	stw 0,16(29)
	b .L918
.LVL845:
.L974:
.LBE4865:
.LBE4866:
.LBE4867:
.LBE4861:
.LBE4901:
.LBB4902:
.LBB4891:
	.loc 5 445 0
	mr 9,11
	b .L930
.LVL846:
.L919:
.LBE4891:
.LBE4902:
	.loc 5 212 0
	lwz 9,8(4)
	lwz 0,12(4)
	stw 0,24(9)
	.loc 5 214 0
	lwz 9,12(28)
	cmpwi 7,9,0
	bne+ 7,.L972
.L921:
	.loc 5 217 0
	lwz 9,8(28)
	lwz 0,16(28)
	stw 0,28(9)
	b .L922
.LVL847:
.L938:
.LBB4903:
.LBB4900:
	.loc 5 427 0
	lwz 9,8(31)
	stw 10,24(9)
	b .L939
.LBE4900:
.LBE4903:
.LBE4906:
	.cfi_endproc
.LFE3117:
	.size	_ZN7idBTreeI14idDynamicBlockI10idDrawVertEiLi4EE6RemoveEP11idBTreeNodeIS2_iE, .-_ZN7idBTreeI14idDynamicBlockI10idDrawVertEiLi4EE6RemoveEP11idBTreeNodeIS2_iE
	.section	.text._ZN19idDynamicBlockAllocI10idDrawVertLi1048576ELi1024EE13AllocInternalEi,"axG",@progbits,_ZN19idDynamicBlockAllocI10idDrawVertLi1048576ELi1024EE13AllocInternalEi,comdat
	.align 2
	.weak	_ZN19idDynamicBlockAllocI10idDrawVertLi1048576ELi1024EE13AllocInternalEi
	.type	_ZN19idDynamicBlockAllocI10idDrawVertLi1048576ELi1024EE13AllocInternalEi, @function
_ZN19idDynamicBlockAllocI10idDrawVertLi1048576ELi1024EE13AllocInternalEi:
.LFB3031:
	.loc 4 727 0
	.cfi_startproc
.LVL848:
	mflr 0
	stwu 1,-24(1)
.LCFI71:
	.cfi_def_cfa_offset 24
	.cfi_register 65, 0
.LBB4921:
	.loc 4 729 0
	mulli 4,4,60
.LVL849:
.LBE4921:
	.loc 4 727 0
	stw 28,8(1)
	stw 30,16(1)
.LBB4944:
	.loc 4 729 0
	addi 28,4,15
	.cfi_offset 30, -8
	.cfi_offset 28, -16
.LBE4944:
	.loc 4 727 0
	stw 0,28(1)
	mr 30,3
	stw 29,12(1)
.LBB4945:
	.loc 4 729 0
	rlwinm 28,28,0,0,27
.LVL850:
.LBE4945:
	.loc 4 727 0
	stw 31,20(1)
.LBB4946:
.LBB4922:
.LBB4923:
	.loc 5 289 0
	lwz 9,8(3)
	lwz 9,24(9)
.LVL851:
	cmpwi 7,9,0
	bne+ 7,.L995
	.cfi_offset 31, -4
	.cfi_offset 29, -12
	.cfi_offset 65, 4
	b .L977
.LVL852:
.L979:
	.loc 5 291 0
	lwz 11,0(9)
	cmpw 7,28,11
	ble- 7,.L978
	mr 9,0
.LVL853:
.L995:
	.loc 5 290 0
	lwz 0,12(9)
	cmpwi 7,0,0
	bne+ 7,.L979
.L978:
	.loc 5 296 0
	lwz 31,4(9)
	cmpwi 7,31,0
	bne- 7,.L996
	.loc 5 289 0
	lwz 9,24(9)
.LVL854:
	cmpwi 7,9,0
	bne+ 7,.L995
.L977:
.LBE4923:
.LBE4922:
.LBB4925:
	.loc 4 734 0
	lbz 0,28(30)
	li 31,0
	cmpwi 7,0,0
	beq- 7,.L981
.LBB4926:
.LBB4927:
.LBB4928:
	.file 9 "d:/Data/Nintendo/DoomGX/src/renderer/../idlib/../idlib/Lib.h"
	.loc 9 158 0
	lis 0,0xf
.LBE4928:
.LBE4927:
	.loc 4 735 0
	addi 29,28,16
.LVL855:
.LBB4931:
.LBB4929:
	.loc 9 158 0
	ori 0,0,65535
	neg 28,28
.LVL856:
	cmpw 7,29,0
	ble- 7,.L997
.LVL857:
.L984:
.LBE4929:
.LBE4931:
	.loc 4 736 0
	lis 3,.LC26@ha
.LVL858:
	mr 4,29
.LVL859:
	la 3,.LC26@l(3)
	crxor 6,6,6
	bl _Z10Sys_PrintfPKcz
.LVL860:
	.loc 4 737 0
	mr 3,29
	bl _Z11Mem_Alloc16i
.LVL861:
	.loc 4 738 0
	mr. 31,3
	beq- 0,.L998
.LVL862:
.L985:
	.loc 4 741 0
	lbz 0,29(30)
	cmpwi 7,0,0
	bne- 7,.L999
.L986:
.LVL863:
	.loc 4 749 0
	li 0,0
.LBB4932:
.LBB4933:
	.loc 4 388 0
	stw 28,0(31)
.LBE4933:
.LBE4932:
	.loc 4 749 0
	stw 0,8(31)
	.loc 4 750 0
	lwz 0,4(30)
	stw 0,4(31)
	.loc 4 751 0
	lwz 9,4(30)
	cmpwi 7,9,0
	beq- 7,.L987
	.loc 4 752 0
	stw 31,8(9)
.L988:
	.loc 4 757 0
	li 0,0
	.loc 4 756 0
	stw 31,4(30)
	.loc 4 757 0
	stw 0,12(31)
.LBE4926:
.LBE4925:
.LBE4946:
	.loc 4 764 0
	mr 3,31
.LBB4947:
.LBB4937:
.LBB4935:
	.loc 4 759 0
	lwz 11,32(30)
	.loc 4 760 0
	lwz 9,36(30)
	.loc 4 759 0
	addi 0,11,1
	.loc 4 760 0
	add 29,9,29
	.loc 4 759 0
	stw 0,32(30)
	.loc 4 760 0
	stw 29,36(30)
.LBE4935:
.LBE4937:
.LBE4947:
	.loc 4 764 0
	lwz 0,28(1)
	lwz 28,8(1)
	mtlr 0
	lwz 29,12(1)
	lwz 30,16(1)
.LVL864:
	lwz 31,20(1)
.LVL865:
	addi 1,1,24
	.cfi_remember_state
	.cfi_restore 28
	.cfi_restore 29
	.cfi_restore 30
	.cfi_restore 31
.LCFI72:
	.cfi_def_cfa_offset 0
	blr
.LVL866:
.L996:
.LCFI73:
	.cfi_restore_state
.LBB4948:
.LBB4938:
.LBB4924:
	.loc 5 297 0
	lwz 0,0(9)
	cmpw 7,28,0
	bgt- 7,.L977
.LVL867:
.LBE4924:
.LBE4938:
.LBB4939:
.LBB4940:
	.loc 4 880 0
	lwz 4,12(31)
	addi 3,30,8
.LVL868:
	bl _ZN7idBTreeI14idDynamicBlockI10idDrawVertEiLi4EE6RemoveEP11idBTreeNodeIS2_iE
.LVL869:
	.loc 4 881 0
	li 0,0
	stw 0,12(31)
	.loc 4 882 0
	lwz 11,48(30)
	.loc 4 883 0
	lwz 9,52(30)
	.loc 4 882 0
	addi 0,11,-1
	stw 0,48(30)
.LBB4941:
.LBB4942:
	.loc 4 387 0
	lwz 0,0(31)
	srawi 11,0,31
	xor 0,11,0
	subf 0,11,0
.LBE4942:
.LBE4941:
	.loc 4 883 0
	subf 0,0,9
	stw 0,52(30)
.LVL870:
.L981:
.LBE4940:
.LBE4939:
.LBE4948:
	.loc 4 764 0
	lwz 0,28(1)
	mr 3,31
	lwz 28,8(1)
.LVL871:
	mtlr 0
	lwz 29,12(1)
	lwz 30,16(1)
.LVL872:
	lwz 31,20(1)
.LVL873:
	addi 1,1,24
	.cfi_remember_state
.LCFI74:
	.cfi_def_cfa_offset 0
	.cfi_restore 31
	.cfi_restore 30
	.cfi_restore 29
	.cfi_restore 28
	blr
.LVL874:
.L997:
.LCFI75:
	.cfi_restore_state
.LBB4949:
.LBB4943:
.LBB4936:
.LBB4934:
.LBB4930:
	.loc 9 158 0
	lis 28,0xfff0
	lis 29,0x10
.LVL875:
	ori 28,28,16
	b .L984
.LVL876:
.L999:
.LBE4930:
.LBE4934:
	.loc 4 742 0
	lis 9,_ZN5idLib3sysE@ha
	mr 4,31
	lwz 3,_ZN5idLib3sysE@l(9)
	lis 5,0x10
	lwz 9,0(3)
	lwz 0,44(9)
	mtctr 0
	bctrl
	b .L986
.LVL877:
.L987:
	.loc 4 754 0
	stw 31,0(30)
	b .L988
.LVL878:
.L998:
	.loc 4 739 0
	lis 3,.LC27@ha
	mr 4,29
	la 3,.LC27@l(3)
	crxor 6,6,6
	bl _Z9Sys_ErrorPKcz
	b .L985
.LBE4936:
.LBE4943:
.LBE4949:
	.cfi_endproc
.LFE3031:
	.size	_ZN19idDynamicBlockAllocI10idDrawVertLi1048576ELi1024EE13AllocInternalEi, .-_ZN19idDynamicBlockAllocI10idDrawVertLi1048576ELi1024EE13AllocInternalEi
	.section	.text._ZN7idBTreeI14idDynamicBlockIiEiLi4EE6RemoveEP11idBTreeNodeIS1_iE,"axG",@progbits,_ZN7idBTreeI14idDynamicBlockIiEiLi4EE6RemoveEP11idBTreeNodeIS1_iE,comdat
	.align 2
	.weak	_ZN7idBTreeI14idDynamicBlockIiEiLi4EE6RemoveEP11idBTreeNodeIS1_iE
	.type	_ZN7idBTreeI14idDynamicBlockIiEiLi4EE6RemoveEP11idBTreeNodeIS1_iE, @function
_ZN7idBTreeI14idDynamicBlockIiEiLi4EE6RemoveEP11idBTreeNodeIS1_iE:
.LFB3118:
	.loc 5 203 0
	.cfi_startproc
.LVL879:
.LBB4986:
	.loc 5 209 0
	lwz 9,16(4)
.LBE4986:
	.loc 5 203 0
	mflr 0
	stwu 1,-24(1)
.LCFI76:
	.cfi_def_cfa_offset 24
	.cfi_register 65, 0
.LBB5029:
	.loc 5 209 0
	cmpwi 7,9,0
.LBE5029:
	.loc 5 203 0
	stw 28,8(1)
	mr 28,4
	.cfi_offset 28, -16
	stw 29,12(1)
	mr 29,3
	.cfi_offset 29, -12
	stw 0,28(1)
	stw 30,16(1)
	stw 31,20(1)
.LBB5030:
	.loc 5 209 0
	beq- 7,.L1001
	.cfi_offset 31, -4
	.cfi_offset 30, -8
	.cfi_offset 65, 4
	.loc 5 210 0
	lwz 0,12(4)
	stw 0,12(9)
	.loc 5 214 0
	lwz 9,12(28)
	cmpwi 7,9,0
	beq- 7,.L1003
.L1054:
	.loc 5 215 0
	lwz 0,16(28)
	stw 0,16(9)
.L1004:
	.loc 5 219 0
	lwz 9,8(28)
	lwz 11,20(9)
	addi 0,11,-1
	stw 0,20(9)
	.loc 5 222 0
	lwz 30,8(28)
.LVL880:
	lwz 0,0(29)
	cmpw 7,30,0
	beq- 7,.L1047
.LVL881:
.L1044:
	.loc 5 222 0 is_stmt 0 discriminator 2
	lwz 0,20(30)
	cmpwi 7,0,1
	ble- 7,.L1048
.L1047:
	.loc 5 240 0 is_stmt 1
	cmpwi 7,30,0
	beq- 7,.L1022
.L1049:
	.loc 5 240 0 is_stmt 0 discriminator 2
	lwz 9,28(30)
	cmpwi 7,9,0
	beq- 7,.L1022
	.loc 5 242 0 is_stmt 1 discriminator 5
	lwz 0,0(9)
	lwz 9,0(30)
	cmpw 7,9,0
	ble- 7,.L1028
	.loc 5 243 0
	stw 0,0(30)
.L1028:
	.loc 5 240 0
	lwz 30,8(30)
.LVL882:
	cmpwi 7,30,0
	bne+ 7,.L1049
.L1022:
.LVL883:
.LBB4987:
.LBB4988:
.LBB4989:
	.loc 4 228 0
	addi 3,28,-4
	bl _ZdlPv
	.loc 4 230 0
	lwz 9,16(29)
.LBE4989:
.LBE4988:
.LBE4987:
.LBB4992:
	.loc 5 251 0
	lwz 3,0(29)
.LBE4992:
.LBB4993:
.LBB4991:
.LBB4990:
	.loc 4 230 0
	addi 0,9,-1
	stw 0,16(29)
.LBE4990:
.LBE4991:
.LBE4993:
.LBB4994:
	.loc 5 251 0
	lwz 0,20(3)
	cmpwi 7,0,1
	beq- 7,.L1030
.LVL884:
.L1000:
.LBE4994:
.LBE5030:
	.loc 5 261 0
	lwz 0,28(1)
	lwz 28,8(1)
.LVL885:
	mtlr 0
	lwz 29,12(1)
.LVL886:
	lwz 30,16(1)
.LVL887:
	lwz 31,20(1)
	addi 1,1,24
	.cfi_remember_state
.LCFI77:
	.cfi_def_cfa_offset 0
	.cfi_restore 31
	.cfi_restore 30
	.cfi_restore 29
	.cfi_restore 28
	blr
.LVL888:
.L1048:
.LCFI78:
	.cfi_restore_state
.LBB5031:
	.loc 5 224 0 discriminator 5
	lwz 31,12(30)
	cmpwi 7,31,0
	beq- 7,.L1050
.LVL889:
.LBB4995:
.LBB4996:
	.loc 5 445 0
	lwz 11,24(30)
.LVL890:
	lwz 9,12(11)
	cmpwi 7,9,0
	bne+ 7,.L1039
	b .L1055
.LVL891:
.L1032:
	mr 9,0
.LVL892:
.L1039:
	.loc 5 446 0
	stw 31,8(11)
.LVL893:
	.loc 5 445 0
	mr 11,9
	lwz 0,12(9)
	cmpwi 7,0,0
	bne+ 7,.L1032
.L1007:
	.loc 5 448 0
	stw 31,8(9)
	.loc 5 449 0
	lwz 0,24(31)
	stw 0,12(9)
	.loc 5 450 0
	lwz 11,24(31)
	stw 9,16(11)
	.loc 5 451 0
	lwz 0,24(30)
	.loc 5 452 0
	lwz 9,20(31)
.LVL894:
	.loc 5 451 0
	stw 0,24(31)
	.loc 5 452 0
	lwz 0,20(30)
	add 0,9,0
	stw 0,20(31)
	.loc 5 455 0
	lwz 9,16(30)
	cmpwi 7,9,0
	beq- 7,.L1009
	.loc 5 456 0
	stw 31,12(9)
.L1010:
	.loc 5 460 0
	lwz 0,16(30)
.LBB4997:
.LBB4998:
.LBB4999:
	.loc 4 228 0
	addi 3,30,-4
.LBE4999:
.LBE4998:
.LBE4997:
	.loc 5 461 0
	lwz 9,8(31)
	.loc 5 460 0
	stw 0,16(31)
	.loc 5 461 0
	lwz 11,20(9)
	addi 0,11,-1
	stw 0,20(9)
.LVL895:
.LBB5002:
.LBB5001:
.LBB5000:
	.loc 4 228 0
	bl _ZdlPv
.LVL896:
	.loc 4 230 0
	lwz 9,16(29)
	addi 0,9,-1
	stw 0,16(29)
.LVL897:
.L1011:
.LBE5000:
.LBE5001:
.LBE5002:
.LBE4996:
.LBE4995:
	.loc 5 231 0
	lwz 11,28(31)
	lwz 9,0(31)
	lwz 0,0(11)
	cmpw 7,9,0
	ble- 7,.L1016
	.loc 5 232 0
	stw 0,0(31)
.L1016:
	.loc 5 235 0
	lwz 0,20(31)
	cmpwi 7,0,4
	bgt- 7,.L1052
	.loc 5 222 0
	lwz 30,8(31)
.LVL898:
	lwz 0,0(29)
	cmpw 7,0,30
	bne+ 7,.L1044
	b .L1047
.LVL899:
.L1050:
	.loc 5 226 0
	lwz 3,16(30)
	mr 31,30
	cmpwi 7,3,0
	beq- 7,.L1011
.LVL900:
.LBB5004:
.LBB5005:
	.loc 5 445 0
	lwz 11,24(3)
.LVL901:
	lwz 9,12(11)
	cmpwi 7,9,0
	bne+ 7,.L1040
	b .L1056
.LVL902:
.L1035:
	mr 9,0
.LVL903:
.L1040:
	.loc 5 446 0
	stw 30,8(11)
.LVL904:
	.loc 5 445 0
	mr 11,9
	lwz 0,12(9)
	cmpwi 7,0,0
	bne+ 7,.L1035
.L1012:
	.loc 5 448 0
	stw 30,8(9)
	.loc 5 449 0
	lwz 0,24(30)
	stw 0,12(9)
	.loc 5 450 0
	lwz 11,24(30)
	stw 9,16(11)
	.loc 5 451 0
	lwz 0,24(3)
	.loc 5 452 0
	lwz 9,20(30)
.LVL905:
	.loc 5 451 0
	stw 0,24(30)
	.loc 5 452 0
	lwz 0,20(3)
	add 0,9,0
	stw 0,20(30)
	.loc 5 455 0
	lwz 9,16(3)
	cmpwi 7,9,0
	beq- 7,.L1014
	.loc 5 456 0
	stw 30,12(9)
.L1015:
	.loc 5 460 0
	lwz 0,16(3)
.LBB5006:
.LBB5007:
.LBB5008:
	.loc 4 228 0
	addi 3,3,-4
.LBE5008:
.LBE5007:
.LBE5006:
	.loc 5 461 0
	lwz 9,8(30)
.LBB5013:
.LBB5011:
.LBB5009:
	.loc 4 230 0
	mr 31,30
.LBE5009:
.LBE5011:
.LBE5013:
	.loc 5 460 0
	stw 0,16(30)
	.loc 5 461 0
	lwz 11,20(9)
	addi 0,11,-1
	stw 0,20(9)
.LVL906:
.LBB5014:
.LBB5012:
.LBB5010:
	.loc 4 228 0
	bl _ZdlPv
.LVL907:
	.loc 4 230 0
	lwz 9,16(29)
	addi 0,9,-1
	stw 0,16(29)
.LVL908:
	b .L1011
.LVL909:
.L1009:
.LBE5010:
.LBE5012:
.LBE5014:
.LBE5005:
.LBE5004:
.LBB5017:
.LBB5003:
	.loc 5 458 0
	lwz 9,8(30)
	stw 31,24(9)
	b .L1010
.LVL910:
.L1055:
	.loc 5 445 0
	mr 9,11
	b .L1007
.LVL911:
.L1014:
.LBE5003:
.LBE5017:
.LBB5018:
.LBB5015:
	.loc 5 458 0
	lwz 9,8(3)
	stw 30,24(9)
	b .L1015
.LVL912:
.L1052:
.LBE5015:
.LBE5018:
.LBB5019:
.LBB5020:
.LBB5021:
.LBB5022:
.LBB5023:
.LBB5024:
	.loc 4 215 0
	lwz 9,16(29)
	.loc 4 216 0
	li 3,36
	.loc 4 215 0
	addi 0,9,1
	stw 0,16(29)
	.loc 4 216 0
	bl _Znwj
.LVL913:
.LBE5024:
.LBE5023:
	.loc 5 377 0
	li 0,0
	.loc 5 378 0
	stw 0,12(3)
	.loc 5 399 0
	addi 10,3,4
	.loc 5 377 0
	stw 0,4(3)
	.loc 5 379 0
	stw 0,16(3)
	.loc 5 380 0
	stw 0,20(3)
	.loc 5 381 0
	stw 0,24(3)
	.loc 5 382 0
	stw 0,28(3)
	.loc 5 383 0
	stw 0,32(3)
	.loc 5 384 0
	stw 0,8(3)
.LBE5022:
.LBE5021:
	.loc 5 400 0
	lwz 0,8(31)
	stw 0,12(3)
	.loc 5 403 0
	lwz 9,24(31)
.LVL914:
	.loc 5 404 0
	stw 10,8(9)
.LVL915:
	.loc 5 405 0
	lwz 0,20(31)
	cmpwi 7,0,3
	ble- 7,.L1018
	li 11,3
.LVL916:
.L1019:
	.loc 5 406 0
	lwz 9,12(9)
.LVL917:
	.loc 5 405 0
	addi 11,11,2
.LVL918:
	.loc 5 407 0
	stw 10,8(9)
	.loc 5 405 0
	lwz 0,20(31)
	cmpw 7,11,0
	blt+ 7,.L1019
.LVL919:
.L1018:
	.loc 5 410 0
	lwz 11,0(9)
	.loc 5 418 0
	li 0,0
	.loc 5 410 0
	stw 11,4(3)
	.loc 5 411 0
	lwz 11,20(31)
	srawi 11,11,1
	addze 11,11
	stw 11,24(3)
	.loc 5 412 0
	lwz 8,24(31)
	.loc 5 413 0
	stw 9,32(3)
	.loc 5 412 0
	stw 8,28(3)
	.loc 5 415 0
	lwz 8,20(31)
	subf 11,11,8
	stw 11,20(31)
	.loc 5 416 0
	lwz 11,12(9)
	stw 11,24(31)
	.loc 5 418 0
	lwz 11,12(9)
	stw 0,16(11)
	.loc 5 419 0
	stw 0,12(9)
	.loc 5 424 0
	lwz 9,16(31)
.LVL920:
	cmpwi 7,9,0
	beq- 7,.L1020
	.loc 5 425 0
	stw 10,12(9)
.L1021:
	.loc 5 429 0
	lwz 0,16(31)
	.loc 5 433 0
	mr 30,31
	.loc 5 430 0
	stw 31,16(3)
	.loc 5 429 0
	stw 0,20(3)
	.loc 5 431 0
	stw 10,16(31)
	.loc 5 433 0
	lwz 9,8(31)
	lwz 11,20(9)
	addi 0,11,1
	stw 0,20(9)
	b .L1047
.LVL921:
.L1030:
.LBE5020:
.LBE5019:
.LBB5026:
	.loc 5 251 0 discriminator 1
	lwz 9,24(3)
	lwz 0,4(9)
	cmpwi 7,0,0
	bne+ 7,.L1000
.LVL922:
.LBE5026:
.LBE5031:
.LBB5032:
.LBB5033:
.LBB5034:
.LBB5035:
	.loc 5 253 0
	stw 0,8(9)
.LBB5036:
.LBB5037:
.LBB5038:
	.loc 4 228 0
	addi 3,3,-4
.LVL923:
.LBE5038:
.LBE5037:
.LBE5036:
	.loc 5 254 0
	lwz 9,0(29)
	lwz 0,24(9)
	stw 0,0(29)
.LVL924:
.LBB5041:
.LBB5040:
.LBB5039:
	.loc 4 228 0
	bl _ZdlPv
.LVL925:
	.loc 4 230 0
	lwz 0,16(29)
	addic 0,0,-1
	stw 0,16(29)
	b .L1000
.LVL926:
.L1056:
.LBE5039:
.LBE5040:
.LBE5041:
.LBE5035:
.LBE5034:
.LBE5033:
.LBE5032:
.LBB5042:
.LBB5027:
.LBB5016:
	.loc 5 445 0
	mr 9,11
	b .L1012
.LVL927:
.L1001:
.LBE5016:
.LBE5027:
	.loc 5 212 0
	lwz 9,8(4)
	lwz 0,12(4)
	stw 0,24(9)
	.loc 5 214 0
	lwz 9,12(28)
	cmpwi 7,9,0
	bne+ 7,.L1054
.L1003:
	.loc 5 217 0
	lwz 9,8(28)
	lwz 0,16(28)
	stw 0,28(9)
	b .L1004
.LVL928:
.L1020:
.LBB5028:
.LBB5025:
	.loc 5 427 0
	lwz 9,8(31)
	stw 10,24(9)
	b .L1021
.LBE5025:
.LBE5028:
.LBE5042:
	.cfi_endproc
.LFE3118:
	.size	_ZN7idBTreeI14idDynamicBlockIiEiLi4EE6RemoveEP11idBTreeNodeIS1_iE, .-_ZN7idBTreeI14idDynamicBlockIiEiLi4EE6RemoveEP11idBTreeNodeIS1_iE
	.section	.text._ZN19idDynamicBlockAllocIiLi131072ELi1024EE13AllocInternalEi,"axG",@progbits,_ZN19idDynamicBlockAllocIiLi131072ELi1024EE13AllocInternalEi,comdat
	.align 2
	.weak	_ZN19idDynamicBlockAllocIiLi131072ELi1024EE13AllocInternalEi
	.type	_ZN19idDynamicBlockAllocIiLi131072ELi1024EE13AllocInternalEi, @function
_ZN19idDynamicBlockAllocIiLi131072ELi1024EE13AllocInternalEi:
.LFB3043:
	.loc 4 727 0
	.cfi_startproc
.LVL929:
	mflr 0
	stwu 1,-24(1)
.LCFI79:
	.cfi_def_cfa_offset 24
	.cfi_register 65, 0
.LBB5058:
	.loc 4 729 0
	slwi 4,4,2
.LVL930:
.LBE5058:
	.loc 4 727 0
	stw 28,8(1)
.LBB5079:
	.loc 4 729 0
	addi 28,4,15
	.cfi_offset 28, -16
.LBE5079:
	.loc 4 727 0
	stw 30,16(1)
.LBB5080:
	.loc 4 729 0
	rlwinm 28,28,0,0,27
.LVL931:
.LBE5080:
	.loc 4 727 0
	stw 0,28(1)
	mr 30,3
	.cfi_offset 65, 4
	.cfi_offset 30, -8
	stw 29,12(1)
	stw 31,20(1)
.LBB5081:
.LBB5059:
.LBB5060:
	.loc 5 289 0
	lwz 9,8(3)
	lwz 9,24(9)
.LVL932:
	cmpwi 7,9,0
	bne+ 7,.L1077
	.cfi_offset 31, -4
	.cfi_offset 29, -12
.LVL933:
	b .L1059
.LVL934:
.L1061:
	.loc 5 291 0
	lwz 11,0(9)
	cmpw 7,28,11
	ble- 7,.L1060
	mr 9,0
.LVL935:
.L1077:
	.loc 5 290 0
	lwz 0,12(9)
	cmpwi 7,0,0
	bne+ 7,.L1061
.L1060:
	.loc 5 296 0
	lwz 31,4(9)
	cmpwi 7,31,0
	bne- 7,.L1078
	.loc 5 289 0
	lwz 9,24(9)
.LVL936:
	cmpwi 7,9,0
	bne+ 7,.L1077
.L1059:
.LBE5060:
.LBE5059:
.LBB5062:
	.loc 4 734 0
	lbz 0,28(30)
	li 31,0
	cmpwi 7,0,0
	beq- 7,.L1063
.LBB5063:
.LBB5064:
.LBB5065:
	.loc 9 158 0
	lis 0,0x1
.LBE5065:
.LBE5064:
	.loc 4 735 0
	addi 29,28,16
.LVL937:
.LBB5067:
.LBB5066:
	.loc 9 158 0
	ori 0,0,65535
	neg 28,28
.LVL938:
	cmpw 7,29,0
	bgt- 7,.L1066
	lis 28,0xfffe
	lis 29,0x2
.LVL939:
	ori 28,28,16
.L1066:
.LBE5066:
.LBE5067:
	.loc 4 736 0
	lis 3,.LC26@ha
.LVL940:
	mr 4,29
	la 3,.LC26@l(3)
	crxor 6,6,6
	bl _Z10Sys_PrintfPKcz
.LVL941:
	.loc 4 737 0
	mr 3,29
	bl _Z11Mem_Alloc16i
.LVL942:
	.loc 4 738 0
	mr. 31,3
	beq- 0,.L1079
.LVL943:
.L1067:
	.loc 4 741 0
	lbz 0,29(30)
	cmpwi 7,0,0
	bne- 7,.L1080
.L1068:
.LVL944:
	.loc 4 749 0
	li 0,0
.LBB5068:
.LBB5069:
	.loc 4 388 0
	stw 28,0(31)
.LBE5069:
.LBE5068:
	.loc 4 749 0
	stw 0,8(31)
	.loc 4 750 0
	lwz 0,4(30)
	stw 0,4(31)
	.loc 4 751 0
	lwz 9,4(30)
	cmpwi 7,9,0
	beq- 7,.L1069
	.loc 4 752 0
	stw 31,8(9)
.L1070:
	.loc 4 757 0
	li 0,0
	.loc 4 756 0
	stw 31,4(30)
	.loc 4 757 0
	stw 0,12(31)
.LBE5063:
.LBE5062:
.LBE5081:
	.loc 4 764 0
	mr 3,31
.LBB5082:
.LBB5072:
.LBB5070:
	.loc 4 759 0
	lwz 11,32(30)
	.loc 4 760 0
	lwz 9,36(30)
	.loc 4 759 0
	addi 0,11,1
	.loc 4 760 0
	add 29,9,29
	.loc 4 759 0
	stw 0,32(30)
	.loc 4 760 0
	stw 29,36(30)
.LBE5070:
.LBE5072:
.LBE5082:
	.loc 4 764 0
	lwz 0,28(1)
	lwz 28,8(1)
	mtlr 0
	lwz 29,12(1)
	lwz 30,16(1)
.LVL945:
	lwz 31,20(1)
.LVL946:
	addi 1,1,24
	.cfi_remember_state
	.cfi_restore 28
	.cfi_restore 29
	.cfi_restore 30
	.cfi_restore 31
.LCFI80:
	.cfi_def_cfa_offset 0
	blr
.LVL947:
.L1078:
.LCFI81:
	.cfi_restore_state
.LBB5083:
.LBB5073:
.LBB5061:
	.loc 5 297 0
	lwz 0,0(9)
	cmpw 7,28,0
	bgt- 7,.L1059
.LVL948:
.LBE5061:
.LBE5073:
.LBB5074:
.LBB5075:
	.loc 4 880 0
	lwz 4,12(31)
	addi 3,30,8
.LVL949:
	bl _ZN7idBTreeI14idDynamicBlockIiEiLi4EE6RemoveEP11idBTreeNodeIS1_iE
.LVL950:
	.loc 4 881 0
	li 0,0
	stw 0,12(31)
	.loc 4 882 0
	lwz 11,48(30)
	.loc 4 883 0
	lwz 9,52(30)
	.loc 4 882 0
	addi 0,11,-1
	stw 0,48(30)
.LBB5076:
.LBB5077:
	.loc 4 387 0
	lwz 0,0(31)
	srawi 11,0,31
	xor 0,11,0
	subf 0,11,0
.LBE5077:
.LBE5076:
	.loc 4 883 0
	subf 0,0,9
	stw 0,52(30)
.LVL951:
.L1063:
.LBE5075:
.LBE5074:
.LBE5083:
	.loc 4 764 0
	lwz 0,28(1)
	mr 3,31
	lwz 28,8(1)
.LVL952:
	mtlr 0
	lwz 29,12(1)
	lwz 30,16(1)
.LVL953:
	lwz 31,20(1)
.LVL954:
	addi 1,1,24
	.cfi_remember_state
.LCFI82:
	.cfi_def_cfa_offset 0
	.cfi_restore 31
	.cfi_restore 30
	.cfi_restore 29
	.cfi_restore 28
	blr
.LVL955:
.L1080:
.LCFI83:
	.cfi_restore_state
.LBB5084:
.LBB5078:
.LBB5071:
	.loc 4 742 0
	lis 9,_ZN5idLib3sysE@ha
	mr 4,31
	lwz 3,_ZN5idLib3sysE@l(9)
	lis 5,0x2
	lwz 9,0(3)
	lwz 0,44(9)
	mtctr 0
	bctrl
	b .L1068
.LVL956:
.L1069:
	.loc 4 754 0
	stw 31,0(30)
	b .L1070
.LVL957:
.L1079:
	.loc 4 739 0
	lis 3,.LC27@ha
	mr 4,29
	la 3,.LC27@l(3)
	crxor 6,6,6
	bl _Z9Sys_ErrorPKcz
	b .L1067
.LBE5071:
.LBE5078:
.LBE5084:
	.cfi_endproc
.LFE3043:
	.size	_ZN19idDynamicBlockAllocIiLi131072ELi1024EE13AllocInternalEi, .-_ZN19idDynamicBlockAllocIiLi131072ELi1024EE13AllocInternalEi
	.section	.text._ZN19idDynamicBlockAllocIiLi262144ELi1024EE13AllocInternalEi,"axG",@progbits,_ZN19idDynamicBlockAllocIiLi262144ELi1024EE13AllocInternalEi,comdat
	.align 2
	.weak	_ZN19idDynamicBlockAllocIiLi262144ELi1024EE13AllocInternalEi
	.type	_ZN19idDynamicBlockAllocIiLi262144ELi1024EE13AllocInternalEi, @function
_ZN19idDynamicBlockAllocIiLi262144ELi1024EE13AllocInternalEi:
.LFB3034:
	.loc 4 727 0
	.cfi_startproc
.LVL958:
	mflr 0
	stwu 1,-24(1)
.LCFI84:
	.cfi_def_cfa_offset 24
	.cfi_register 65, 0
.LBB5100:
	.loc 4 729 0
	slwi 4,4,2
.LVL959:
.LBE5100:
	.loc 4 727 0
	stw 28,8(1)
.LBB5121:
	.loc 4 729 0
	addi 28,4,15
	.cfi_offset 28, -16
.LBE5121:
	.loc 4 727 0
	stw 30,16(1)
.LBB5122:
	.loc 4 729 0
	rlwinm 28,28,0,0,27
.LVL960:
.LBE5122:
	.loc 4 727 0
	stw 0,28(1)
	mr 30,3
	.cfi_offset 65, 4
	.cfi_offset 30, -8
	stw 29,12(1)
	stw 31,20(1)
.LBB5123:
.LBB5101:
.LBB5102:
	.loc 5 289 0
	lwz 9,8(3)
	lwz 9,24(9)
.LVL961:
	cmpwi 7,9,0
	bne+ 7,.L1101
	.cfi_offset 31, -4
	.cfi_offset 29, -12
	b .L1083
.LVL962:
.L1085:
	.loc 5 291 0
	lwz 11,0(9)
	cmpw 7,28,11
	ble- 7,.L1084
	mr 9,0
.LVL963:
.L1101:
	.loc 5 290 0
	lwz 0,12(9)
	cmpwi 7,0,0
	bne+ 7,.L1085
.L1084:
	.loc 5 296 0
	lwz 31,4(9)
	cmpwi 7,31,0
	bne- 7,.L1102
	.loc 5 289 0
	lwz 9,24(9)
.LVL964:
	cmpwi 7,9,0
	bne+ 7,.L1101
.L1083:
.LBE5102:
.LBE5101:
.LBB5104:
	.loc 4 734 0
	lbz 0,28(30)
	li 31,0
	cmpwi 7,0,0
	beq- 7,.L1087
.LBB5105:
.LBB5106:
.LBB5107:
	.loc 9 158 0
	lis 0,0x3
.LBE5107:
.LBE5106:
	.loc 4 735 0
	addi 29,28,16
.LVL965:
.LBB5109:
.LBB5108:
	.loc 9 158 0
	ori 0,0,65535
	neg 28,28
.LVL966:
	cmpw 7,29,0
	bgt- 7,.L1090
	lis 28,0xfffc
	lis 29,0x4
.LVL967:
	ori 28,28,16
.L1090:
.LBE5108:
.LBE5109:
	.loc 4 736 0
	lis 3,.LC26@ha
.LVL968:
	mr 4,29
	la 3,.LC26@l(3)
	crxor 6,6,6
	bl _Z10Sys_PrintfPKcz
.LVL969:
	.loc 4 737 0
	mr 3,29
	bl _Z11Mem_Alloc16i
.LVL970:
	.loc 4 738 0
	mr. 31,3
	beq- 0,.L1103
.LVL971:
.L1091:
	.loc 4 741 0
	lbz 0,29(30)
	cmpwi 7,0,0
	bne- 7,.L1104
.L1092:
.LVL972:
	.loc 4 749 0
	li 0,0
.LBB5110:
.LBB5111:
	.loc 4 388 0
	stw 28,0(31)
.LBE5111:
.LBE5110:
	.loc 4 749 0
	stw 0,8(31)
	.loc 4 750 0
	lwz 0,4(30)
	stw 0,4(31)
	.loc 4 751 0
	lwz 9,4(30)
	cmpwi 7,9,0
	beq- 7,.L1093
	.loc 4 752 0
	stw 31,8(9)
.L1094:
	.loc 4 757 0
	li 0,0
	.loc 4 756 0
	stw 31,4(30)
	.loc 4 757 0
	stw 0,12(31)
.LBE5105:
.LBE5104:
.LBE5123:
	.loc 4 764 0
	mr 3,31
.LBB5124:
.LBB5114:
.LBB5112:
	.loc 4 759 0
	lwz 11,32(30)
	.loc 4 760 0
	lwz 9,36(30)
	.loc 4 759 0
	addi 0,11,1
	.loc 4 760 0
	add 29,9,29
	.loc 4 759 0
	stw 0,32(30)
	.loc 4 760 0
	stw 29,36(30)
.LBE5112:
.LBE5114:
.LBE5124:
	.loc 4 764 0
	lwz 0,28(1)
	lwz 28,8(1)
	mtlr 0
	lwz 29,12(1)
	lwz 30,16(1)
.LVL973:
	lwz 31,20(1)
.LVL974:
	addi 1,1,24
	.cfi_remember_state
	.cfi_restore 28
	.cfi_restore 29
	.cfi_restore 30
	.cfi_restore 31
.LCFI85:
	.cfi_def_cfa_offset 0
	blr
.LVL975:
.L1102:
.LCFI86:
	.cfi_restore_state
.LBB5125:
.LBB5115:
.LBB5103:
	.loc 5 297 0
	lwz 0,0(9)
	cmpw 7,28,0
	bgt- 7,.L1083
.LVL976:
.LBE5103:
.LBE5115:
.LBB5116:
.LBB5117:
	.loc 4 880 0
	lwz 4,12(31)
	addi 3,30,8
.LVL977:
	bl _ZN7idBTreeI14idDynamicBlockIiEiLi4EE6RemoveEP11idBTreeNodeIS1_iE
.LVL978:
	.loc 4 881 0
	li 0,0
	stw 0,12(31)
	.loc 4 882 0
	lwz 11,48(30)
	.loc 4 883 0
	lwz 9,52(30)
	.loc 4 882 0
	addi 0,11,-1
	stw 0,48(30)
.LBB5118:
.LBB5119:
	.loc 4 387 0
	lwz 0,0(31)
	srawi 11,0,31
	xor 0,11,0
	subf 0,11,0
.LBE5119:
.LBE5118:
	.loc 4 883 0
	subf 0,0,9
	stw 0,52(30)
.LVL979:
.L1087:
.LBE5117:
.LBE5116:
.LBE5125:
	.loc 4 764 0
	lwz 0,28(1)
	mr 3,31
	lwz 28,8(1)
.LVL980:
	mtlr 0
	lwz 29,12(1)
	lwz 30,16(1)
.LVL981:
	lwz 31,20(1)
.LVL982:
	addi 1,1,24
	.cfi_remember_state
.LCFI87:
	.cfi_def_cfa_offset 0
	.cfi_restore 31
	.cfi_restore 30
	.cfi_restore 29
	.cfi_restore 28
	blr
.LVL983:
.L1104:
.LCFI88:
	.cfi_restore_state
.LBB5126:
.LBB5120:
.LBB5113:
	.loc 4 742 0
	lis 9,_ZN5idLib3sysE@ha
	mr 4,31
	lwz 3,_ZN5idLib3sysE@l(9)
	lis 5,0x4
	lwz 9,0(3)
	lwz 0,44(9)
	mtctr 0
	bctrl
	b .L1092
.LVL984:
.L1093:
	.loc 4 754 0
	stw 31,0(30)
	b .L1094
.LVL985:
.L1103:
	.loc 4 739 0
	lis 3,.LC27@ha
	mr 4,29
	la 3,.LC27@l(3)
	crxor 6,6,6
	bl _Z9Sys_ErrorPKcz
	b .L1091
.LBE5113:
.LBE5120:
.LBE5126:
	.cfi_endproc
.LFE3034:
	.size	_ZN19idDynamicBlockAllocIiLi262144ELi1024EE13AllocInternalEi, .-_ZN19idDynamicBlockAllocIiLi262144ELi1024EE13AllocInternalEi
	.section	.text._ZN19idDynamicBlockAllocIiLi65536ELi1024EE13AllocInternalEi,"axG",@progbits,_ZN19idDynamicBlockAllocIiLi65536ELi1024EE13AllocInternalEi,comdat
	.align 2
	.weak	_ZN19idDynamicBlockAllocIiLi65536ELi1024EE13AllocInternalEi
	.type	_ZN19idDynamicBlockAllocIiLi65536ELi1024EE13AllocInternalEi, @function
_ZN19idDynamicBlockAllocIiLi65536ELi1024EE13AllocInternalEi:
.LFB3045:
	.loc 4 727 0
	.cfi_startproc
.LVL986:
	mflr 0
	stwu 1,-24(1)
.LCFI89:
	.cfi_def_cfa_offset 24
	.cfi_register 65, 0
.LBB5142:
	.loc 4 729 0
	slwi 4,4,2
.LVL987:
.LBE5142:
	.loc 4 727 0
	stw 28,8(1)
.LBB5163:
	.loc 4 729 0
	addi 28,4,15
	.cfi_offset 28, -16
.LBE5163:
	.loc 4 727 0
	stw 30,16(1)
.LBB5164:
	.loc 4 729 0
	rlwinm 28,28,0,0,27
.LVL988:
.LBE5164:
	.loc 4 727 0
	stw 0,28(1)
	mr 30,3
	.cfi_offset 65, 4
	.cfi_offset 30, -8
	stw 29,12(1)
	stw 31,20(1)
.LBB5165:
.LBB5143:
.LBB5144:
	.loc 5 289 0
	lwz 9,8(3)
	lwz 9,24(9)
.LVL989:
	cmpwi 7,9,0
	bne+ 7,.L1125
	.cfi_offset 31, -4
	.cfi_offset 29, -12
	b .L1107
.LVL990:
.L1109:
	.loc 5 291 0
	lwz 11,0(9)
	cmpw 7,28,11
	ble- 7,.L1108
	mr 9,0
.LVL991:
.L1125:
	.loc 5 290 0
	lwz 0,12(9)
	cmpwi 7,0,0
	bne+ 7,.L1109
.L1108:
	.loc 5 296 0
	lwz 31,4(9)
	cmpwi 7,31,0
	bne- 7,.L1126
	.loc 5 289 0
	lwz 9,24(9)
.LVL992:
	cmpwi 7,9,0
	bne+ 7,.L1125
.L1107:
.LBE5144:
.LBE5143:
.LBB5146:
	.loc 4 734 0
	lbz 0,28(30)
	li 31,0
	cmpwi 7,0,0
	beq- 7,.L1111
.LBB5147:
.LBB5148:
.LBB5149:
	.loc 9 158 0
	li 0,0
.LBE5149:
.LBE5148:
	.loc 4 735 0
	addi 29,28,16
.LVL993:
.LBB5151:
.LBB5150:
	.loc 9 158 0
	ori 0,0,65535
	neg 28,28
.LVL994:
	cmpw 7,29,0
	bgt- 7,.L1114
	lis 28,0xffff
	lis 29,0x1
.LVL995:
	ori 28,28,16
.L1114:
.LBE5150:
.LBE5151:
	.loc 4 736 0
	lis 3,.LC26@ha
.LVL996:
	mr 4,29
	la 3,.LC26@l(3)
	crxor 6,6,6
	bl _Z10Sys_PrintfPKcz
.LVL997:
	.loc 4 737 0
	mr 3,29
	bl _Z11Mem_Alloc16i
.LVL998:
	.loc 4 738 0
	mr. 31,3
	beq- 0,.L1127
.LVL999:
.L1115:
	.loc 4 741 0
	lbz 0,29(30)
	cmpwi 7,0,0
	bne- 7,.L1128
.L1116:
.LVL1000:
	.loc 4 749 0
	li 0,0
.LBB5152:
.LBB5153:
	.loc 4 388 0
	stw 28,0(31)
.LBE5153:
.LBE5152:
	.loc 4 749 0
	stw 0,8(31)
	.loc 4 750 0
	lwz 0,4(30)
	stw 0,4(31)
	.loc 4 751 0
	lwz 9,4(30)
	cmpwi 7,9,0
	beq- 7,.L1117
	.loc 4 752 0
	stw 31,8(9)
.L1118:
	.loc 4 757 0
	li 0,0
	.loc 4 756 0
	stw 31,4(30)
	.loc 4 757 0
	stw 0,12(31)
.LBE5147:
.LBE5146:
.LBE5165:
	.loc 4 764 0
	mr 3,31
.LBB5166:
.LBB5156:
.LBB5154:
	.loc 4 759 0
	lwz 11,32(30)
	.loc 4 760 0
	lwz 9,36(30)
	.loc 4 759 0
	addi 0,11,1
	.loc 4 760 0
	add 29,9,29
	.loc 4 759 0
	stw 0,32(30)
	.loc 4 760 0
	stw 29,36(30)
.LBE5154:
.LBE5156:
.LBE5166:
	.loc 4 764 0
	lwz 0,28(1)
	lwz 28,8(1)
	mtlr 0
	lwz 29,12(1)
	lwz 30,16(1)
.LVL1001:
	lwz 31,20(1)
.LVL1002:
	addi 1,1,24
	.cfi_remember_state
	.cfi_restore 28
	.cfi_restore 29
	.cfi_restore 30
	.cfi_restore 31
.LCFI90:
	.cfi_def_cfa_offset 0
	blr
.LVL1003:
.L1126:
.LCFI91:
	.cfi_restore_state
.LBB5167:
.LBB5157:
.LBB5145:
	.loc 5 297 0
	lwz 0,0(9)
	cmpw 7,28,0
	bgt- 7,.L1107
.LVL1004:
.LBE5145:
.LBE5157:
.LBB5158:
.LBB5159:
	.loc 4 880 0
	lwz 4,12(31)
	addi 3,30,8
.LVL1005:
	bl _ZN7idBTreeI14idDynamicBlockIiEiLi4EE6RemoveEP11idBTreeNodeIS1_iE
.LVL1006:
	.loc 4 881 0
	li 0,0
	stw 0,12(31)
	.loc 4 882 0
	lwz 11,48(30)
	.loc 4 883 0
	lwz 9,52(30)
	.loc 4 882 0
	addi 0,11,-1
	stw 0,48(30)
.LBB5160:
.LBB5161:
	.loc 4 387 0
	lwz 0,0(31)
	srawi 11,0,31
	xor 0,11,0
	subf 0,11,0
.LBE5161:
.LBE5160:
	.loc 4 883 0
	subf 0,0,9
	stw 0,52(30)
.LVL1007:
.L1111:
.LBE5159:
.LBE5158:
.LBE5167:
	.loc 4 764 0
	lwz 0,28(1)
	mr 3,31
	lwz 28,8(1)
.LVL1008:
	mtlr 0
	lwz 29,12(1)
	lwz 30,16(1)
.LVL1009:
	lwz 31,20(1)
.LVL1010:
	addi 1,1,24
	.cfi_remember_state
.LCFI92:
	.cfi_def_cfa_offset 0
	.cfi_restore 31
	.cfi_restore 30
	.cfi_restore 29
	.cfi_restore 28
	blr
.LVL1011:
.L1128:
.LCFI93:
	.cfi_restore_state
.LBB5168:
.LBB5162:
.LBB5155:
	.loc 4 742 0
	lis 9,_ZN5idLib3sysE@ha
	mr 4,31
	lwz 3,_ZN5idLib3sysE@l(9)
	lis 5,0x1
	lwz 9,0(3)
	lwz 0,44(9)
	mtctr 0
	bctrl
	b .L1116
.LVL1012:
.L1117:
	.loc 4 754 0
	stw 31,0(30)
	b .L1118
.LVL1013:
.L1127:
	.loc 4 739 0
	lis 3,.LC27@ha
	mr 4,29
	la 3,.LC27@l(3)
	crxor 6,6,6
	bl _Z9Sys_ErrorPKcz
	b .L1115
.LBE5155:
.LBE5162:
.LBE5168:
	.cfi_endproc
.LFE3045:
	.size	_ZN19idDynamicBlockAllocIiLi65536ELi1024EE13AllocInternalEi, .-_ZN19idDynamicBlockAllocIiLi65536ELi1024EE13AllocInternalEi
	.section	.text._ZN7idBTreeI14idDynamicBlockI13shadowCache_sEiLi4EE6RemoveEP11idBTreeNodeIS2_iE,"axG",@progbits,_ZN7idBTreeI14idDynamicBlockI13shadowCache_sEiLi4EE6RemoveEP11idBTreeNodeIS2_iE,comdat
	.align 2
	.weak	_ZN7idBTreeI14idDynamicBlockI13shadowCache_sEiLi4EE6RemoveEP11idBTreeNodeIS2_iE
	.type	_ZN7idBTreeI14idDynamicBlockI13shadowCache_sEiLi4EE6RemoveEP11idBTreeNodeIS2_iE, @function
_ZN7idBTreeI14idDynamicBlockI13shadowCache_sEiLi4EE6RemoveEP11idBTreeNodeIS2_iE:
.LFB3119:
	.loc 5 203 0
	.cfi_startproc
.LVL1014:
.LBB5198:
	.loc 5 209 0
	lwz 9,16(4)
.LBE5198:
	.loc 5 203 0
	mflr 0
	stwu 1,-24(1)
.LCFI94:
	.cfi_def_cfa_offset 24
	.cfi_register 65, 0
.LBB5248:
	.loc 5 209 0
	cmpwi 7,9,0
.LBE5248:
	.loc 5 203 0
	stw 28,8(1)
	mr 28,4
	.cfi_offset 28, -16
	stw 29,12(1)
	mr 29,3
	.cfi_offset 29, -12
	stw 0,28(1)
	stw 30,16(1)
	stw 31,20(1)
.LBB5249:
	.loc 5 209 0
	beq- 7,.L1130
	.cfi_offset 31, -4
	.cfi_offset 30, -8
	.cfi_offset 65, 4
	.loc 5 210 0
	lwz 0,12(4)
	stw 0,12(9)
	.loc 5 214 0
	lwz 9,12(28)
	cmpwi 7,9,0
	beq- 7,.L1132
.L1183:
	.loc 5 215 0
	lwz 0,16(28)
	stw 0,16(9)
.L1133:
	.loc 5 219 0
	lwz 9,8(28)
	lwz 11,20(9)
	addi 0,11,-1
	stw 0,20(9)
	.loc 5 222 0
	lwz 30,8(28)
.LVL1015:
	lwz 0,0(29)
	cmpw 7,30,0
	beq- 7,.L1176
.LVL1016:
.L1173:
	.loc 5 222 0 is_stmt 0 discriminator 2
	lwz 0,20(30)
	cmpwi 7,0,1
	ble- 7,.L1177
.L1176:
	.loc 5 240 0 is_stmt 1
	cmpwi 7,30,0
	beq- 7,.L1151
.L1178:
	.loc 5 240 0 is_stmt 0 discriminator 2
	lwz 9,28(30)
	cmpwi 7,9,0
	beq- 7,.L1151
	.loc 5 242 0 is_stmt 1 discriminator 5
	lwz 0,0(9)
	lwz 9,0(30)
	cmpw 7,9,0
	ble- 7,.L1157
	.loc 5 243 0
	stw 0,0(30)
.L1157:
	.loc 5 240 0
	lwz 30,8(30)
.LVL1017:
	cmpwi 7,30,0
	bne+ 7,.L1178
.L1151:
.LVL1018:
.LBB5199:
.LBB5200:
.LBB5201:
	.loc 4 228 0
	addi 3,28,-4
	bl _ZdlPv
	.loc 4 230 0
	lwz 9,16(29)
.LBE5201:
.LBE5200:
.LBE5199:
.LBB5204:
	.loc 5 251 0
	lwz 3,0(29)
.LBE5204:
.LBB5212:
.LBB5203:
.LBB5202:
	.loc 4 230 0
	addi 0,9,-1
	stw 0,16(29)
.LBE5202:
.LBE5203:
.LBE5212:
.LBB5213:
	.loc 5 251 0
	lwz 0,20(3)
	cmpwi 7,0,1
	beq- 7,.L1159
.LVL1019:
.L1129:
.LBE5213:
.LBE5249:
	.loc 5 261 0
	lwz 0,28(1)
	lwz 28,8(1)
.LVL1020:
	mtlr 0
	lwz 29,12(1)
.LVL1021:
	lwz 30,16(1)
.LVL1022:
	lwz 31,20(1)
	addi 1,1,24
	.cfi_remember_state
.LCFI95:
	.cfi_def_cfa_offset 0
	.cfi_restore 31
	.cfi_restore 30
	.cfi_restore 29
	.cfi_restore 28
	blr
.LVL1023:
.L1177:
.LCFI96:
	.cfi_restore_state
.LBB5250:
	.loc 5 224 0 discriminator 5
	lwz 31,12(30)
	cmpwi 7,31,0
	beq- 7,.L1179
.LVL1024:
.LBB5214:
.LBB5215:
	.loc 5 445 0
	lwz 11,24(30)
.LVL1025:
	lwz 9,12(11)
	cmpwi 7,9,0
	bne+ 7,.L1168
	b .L1184
.LVL1026:
.L1161:
	mr 9,0
.LVL1027:
.L1168:
	.loc 5 446 0
	stw 31,8(11)
.LVL1028:
	.loc 5 445 0
	mr 11,9
	lwz 0,12(9)
	cmpwi 7,0,0
	bne+ 7,.L1161
.L1136:
	.loc 5 448 0
	stw 31,8(9)
	.loc 5 449 0
	lwz 0,24(31)
	stw 0,12(9)
	.loc 5 450 0
	lwz 11,24(31)
	stw 9,16(11)
	.loc 5 451 0
	lwz 0,24(30)
	.loc 5 452 0
	lwz 9,20(31)
.LVL1029:
	.loc 5 451 0
	stw 0,24(31)
	.loc 5 452 0
	lwz 0,20(30)
	add 0,9,0
	stw 0,20(31)
	.loc 5 455 0
	lwz 9,16(30)
	cmpwi 7,9,0
	beq- 7,.L1138
	.loc 5 456 0
	stw 31,12(9)
.L1139:
	.loc 5 460 0
	lwz 0,16(30)
.LBB5216:
.LBB5217:
.LBB5218:
	.loc 4 228 0
	addi 3,30,-4
.LBE5218:
.LBE5217:
.LBE5216:
	.loc 5 461 0
	lwz 9,8(31)
	.loc 5 460 0
	stw 0,16(31)
	.loc 5 461 0
	lwz 11,20(9)
	addi 0,11,-1
	stw 0,20(9)
.LVL1030:
.LBB5221:
.LBB5220:
.LBB5219:
	.loc 4 228 0
	bl _ZdlPv
.LVL1031:
	.loc 4 230 0
	lwz 9,16(29)
	addi 0,9,-1
	stw 0,16(29)
.LVL1032:
.L1140:
.LBE5219:
.LBE5220:
.LBE5221:
.LBE5215:
.LBE5214:
	.loc 5 231 0
	lwz 11,28(31)
	lwz 9,0(31)
	lwz 0,0(11)
	cmpw 7,9,0
	ble- 7,.L1145
	.loc 5 232 0
	stw 0,0(31)
.L1145:
	.loc 5 235 0
	lwz 0,20(31)
	cmpwi 7,0,4
	bgt- 7,.L1181
	.loc 5 222 0
	lwz 30,8(31)
.LVL1033:
	lwz 0,0(29)
	cmpw 7,0,30
	bne+ 7,.L1173
	b .L1176
.LVL1034:
.L1179:
	.loc 5 226 0
	lwz 3,16(30)
	mr 31,30
	cmpwi 7,3,0
	beq- 7,.L1140
.LVL1035:
.LBB5223:
.LBB5224:
	.loc 5 445 0
	lwz 11,24(3)
.LVL1036:
	lwz 9,12(11)
	cmpwi 7,9,0
	bne+ 7,.L1169
	b .L1185
.LVL1037:
.L1164:
	mr 9,0
.LVL1038:
.L1169:
	.loc 5 446 0
	stw 30,8(11)
.LVL1039:
	.loc 5 445 0
	mr 11,9
	lwz 0,12(9)
	cmpwi 7,0,0
	bne+ 7,.L1164
.L1141:
	.loc 5 448 0
	stw 30,8(9)
	.loc 5 449 0
	lwz 0,24(30)
	stw 0,12(9)
	.loc 5 450 0
	lwz 11,24(30)
	stw 9,16(11)
	.loc 5 451 0
	lwz 0,24(3)
	.loc 5 452 0
	lwz 9,20(30)
.LVL1040:
	.loc 5 451 0
	stw 0,24(30)
	.loc 5 452 0
	lwz 0,20(3)
	add 0,9,0
	stw 0,20(30)
	.loc 5 455 0
	lwz 9,16(3)
	cmpwi 7,9,0
	beq- 7,.L1143
	.loc 5 456 0
	stw 30,12(9)
.L1144:
	.loc 5 460 0
	lwz 0,16(3)
.LBB5225:
.LBB5226:
.LBB5227:
	.loc 4 228 0
	addi 3,3,-4
.LBE5227:
.LBE5226:
.LBE5225:
	.loc 5 461 0
	lwz 9,8(30)
.LBB5232:
.LBB5230:
.LBB5228:
	.loc 4 230 0
	mr 31,30
.LBE5228:
.LBE5230:
.LBE5232:
	.loc 5 460 0
	stw 0,16(30)
	.loc 5 461 0
	lwz 11,20(9)
	addi 0,11,-1
	stw 0,20(9)
.LVL1041:
.LBB5233:
.LBB5231:
.LBB5229:
	.loc 4 228 0
	bl _ZdlPv
.LVL1042:
	.loc 4 230 0
	lwz 9,16(29)
	addi 0,9,-1
	stw 0,16(29)
.LVL1043:
	b .L1140
.LVL1044:
.L1138:
.LBE5229:
.LBE5231:
.LBE5233:
.LBE5224:
.LBE5223:
.LBB5236:
.LBB5222:
	.loc 5 458 0
	lwz 9,8(30)
	stw 31,24(9)
	b .L1139
.LVL1045:
.L1184:
	.loc 5 445 0
	mr 9,11
	b .L1136
.LVL1046:
.L1143:
.LBE5222:
.LBE5236:
.LBB5237:
.LBB5234:
	.loc 5 458 0
	lwz 9,8(3)
	stw 30,24(9)
	b .L1144
.LVL1047:
.L1181:
.LBE5234:
.LBE5237:
.LBB5238:
.LBB5239:
.LBB5240:
.LBB5241:
.LBB5242:
.LBB5243:
	.loc 4 215 0
	lwz 9,16(29)
	.loc 4 216 0
	li 3,36
	.loc 4 215 0
	addi 0,9,1
	stw 0,16(29)
	.loc 4 216 0
	bl _Znwj
.LVL1048:
.LBE5243:
.LBE5242:
	.loc 5 377 0
	li 0,0
	.loc 5 378 0
	stw 0,12(3)
	.loc 5 399 0
	addi 10,3,4
	.loc 5 377 0
	stw 0,4(3)
	.loc 5 379 0
	stw 0,16(3)
	.loc 5 380 0
	stw 0,20(3)
	.loc 5 381 0
	stw 0,24(3)
	.loc 5 382 0
	stw 0,28(3)
	.loc 5 383 0
	stw 0,32(3)
	.loc 5 384 0
	stw 0,8(3)
.LBE5241:
.LBE5240:
	.loc 5 400 0
	lwz 0,8(31)
	stw 0,12(3)
	.loc 5 403 0
	lwz 9,24(31)
.LVL1049:
	.loc 5 404 0
	stw 10,8(9)
.LVL1050:
	.loc 5 405 0
	lwz 0,20(31)
	cmpwi 7,0,3
	ble- 7,.L1147
	li 11,3
.LVL1051:
.L1148:
	.loc 5 406 0
	lwz 9,12(9)
.LVL1052:
	.loc 5 405 0
	addi 11,11,2
.LVL1053:
	.loc 5 407 0
	stw 10,8(9)
	.loc 5 405 0
	lwz 0,20(31)
	cmpw 7,11,0
	blt+ 7,.L1148
.LVL1054:
.L1147:
	.loc 5 410 0
	lwz 11,0(9)
	.loc 5 418 0
	li 0,0
	.loc 5 410 0
	stw 11,4(3)
	.loc 5 411 0
	lwz 11,20(31)
	srawi 11,11,1
	addze 11,11
	stw 11,24(3)
	.loc 5 412 0
	lwz 8,24(31)
	.loc 5 413 0
	stw 9,32(3)
	.loc 5 412 0
	stw 8,28(3)
	.loc 5 415 0
	lwz 8,20(31)
	subf 11,11,8
	stw 11,20(31)
	.loc 5 416 0
	lwz 11,12(9)
	stw 11,24(31)
	.loc 5 418 0
	lwz 11,12(9)
	stw 0,16(11)
	.loc 5 419 0
	stw 0,12(9)
	.loc 5 424 0
	lwz 9,16(31)
.LVL1055:
	cmpwi 7,9,0
	beq- 7,.L1149
	.loc 5 425 0
	stw 10,12(9)
.L1150:
	.loc 5 429 0
	lwz 0,16(31)
	.loc 5 433 0
	mr 30,31
	.loc 5 430 0
	stw 31,16(3)
	.loc 5 429 0
	stw 0,20(3)
	.loc 5 431 0
	stw 10,16(31)
	.loc 5 433 0
	lwz 9,8(31)
	lwz 11,20(9)
	addi 0,11,1
	stw 0,20(9)
	b .L1176
.LVL1056:
.L1159:
.LBE5239:
.LBE5238:
.LBB5245:
	.loc 5 251 0 discriminator 1
	lwz 9,24(3)
	lwz 0,4(9)
	cmpwi 7,0,0
	bne+ 7,.L1129
.LVL1057:
.LBB5205:
	.loc 5 253 0
	stw 0,8(9)
.LBB5206:
.LBB5207:
.LBB5208:
	.loc 4 228 0
	addi 3,3,-4
.LVL1058:
.LBE5208:
.LBE5207:
.LBE5206:
	.loc 5 254 0
	lwz 9,0(29)
	lwz 0,24(9)
	stw 0,0(29)
.LVL1059:
.LBB5211:
.LBB5210:
.LBB5209:
	.loc 4 228 0
	bl _ZdlPv
.LVL1060:
	.loc 4 230 0
	lwz 0,16(29)
	addic 0,0,-1
	stw 0,16(29)
	b .L1129
.LVL1061:
.L1185:
.LBE5209:
.LBE5210:
.LBE5211:
.LBE5205:
.LBE5245:
.LBB5246:
.LBB5235:
	.loc 5 445 0
	mr 9,11
	b .L1141
.LVL1062:
.L1130:
.LBE5235:
.LBE5246:
	.loc 5 212 0
	lwz 9,8(4)
	lwz 0,12(4)
	stw 0,24(9)
	.loc 5 214 0
	lwz 9,12(28)
	cmpwi 7,9,0
	bne+ 7,.L1183
.L1132:
	.loc 5 217 0
	lwz 9,8(28)
	lwz 0,16(28)
	stw 0,28(9)
	b .L1133
.LVL1063:
.L1149:
.LBB5247:
.LBB5244:
	.loc 5 427 0
	lwz 9,8(31)
	stw 10,24(9)
	b .L1150
.LBE5244:
.LBE5247:
.LBE5250:
	.cfi_endproc
.LFE3119:
	.size	_ZN7idBTreeI14idDynamicBlockI13shadowCache_sEiLi4EE6RemoveEP11idBTreeNodeIS2_iE, .-_ZN7idBTreeI14idDynamicBlockI13shadowCache_sEiLi4EE6RemoveEP11idBTreeNodeIS2_iE
	.section	.text._ZN19idDynamicBlockAllocI13shadowCache_sLi262144ELi1024EE13AllocInternalEi,"axG",@progbits,_ZN19idDynamicBlockAllocI13shadowCache_sLi262144ELi1024EE13AllocInternalEi,comdat
	.align 2
	.weak	_ZN19idDynamicBlockAllocI13shadowCache_sLi262144ELi1024EE13AllocInternalEi
	.type	_ZN19idDynamicBlockAllocI13shadowCache_sLi262144ELi1024EE13AllocInternalEi, @function
_ZN19idDynamicBlockAllocI13shadowCache_sLi262144ELi1024EE13AllocInternalEi:
.LFB3037:
	.loc 4 727 0
	.cfi_startproc
.LVL1064:
	mflr 0
	stwu 1,-24(1)
.LCFI97:
	.cfi_def_cfa_offset 24
	.cfi_register 65, 0
.LBB5265:
	.loc 4 729 0
	slwi 4,4,4
.LVL1065:
.LBE5265:
	.loc 4 727 0
	stw 30,16(1)
	mr 30,3
	.cfi_offset 30, -8
	stw 0,28(1)
	stw 28,8(1)
	stw 29,12(1)
	stw 31,20(1)
.LBB5288:
.LBB5266:
.LBB5267:
	.loc 5 289 0
	lwz 9,8(3)
	lwz 9,24(9)
.LVL1066:
	cmpwi 7,9,0
	bne+ 7,.L1206
	.cfi_offset 31, -4
	.cfi_offset 29, -12
	.cfi_offset 28, -16
	.cfi_offset 65, 4
	b .L1188
.LVL1067:
.L1190:
	.loc 5 291 0
	lwz 11,0(9)
	cmpw 7,4,11
	ble- 7,.L1189
	mr 9,0
.LVL1068:
.L1206:
	.loc 5 290 0
	lwz 0,12(9)
	cmpwi 7,0,0
	bne+ 7,.L1190
.L1189:
	.loc 5 296 0
	lwz 31,4(9)
	cmpwi 7,31,0
	bne- 7,.L1207
	.loc 5 289 0
	lwz 9,24(9)
.LVL1069:
	cmpwi 7,9,0
	bne+ 7,.L1206
.L1188:
.LBE5267:
.LBE5266:
.LBB5269:
	.loc 4 734 0
	lbz 0,28(30)
	li 31,0
	cmpwi 7,0,0
	beq- 7,.L1192
.LBB5270:
.LBB5271:
.LBB5272:
	.loc 9 158 0
	lis 0,0x3
.LBE5272:
.LBE5271:
	.loc 4 735 0
	addi 29,4,16
.LVL1070:
.LBB5275:
.LBB5273:
	.loc 9 158 0
	ori 0,0,65535
	neg 28,4
	cmpw 7,29,0
	ble- 7,.L1208
.LVL1071:
.L1195:
.LBE5273:
.LBE5275:
	.loc 4 736 0
	lis 3,.LC26@ha
.LVL1072:
	mr 4,29
.LVL1073:
	la 3,.LC26@l(3)
	crxor 6,6,6
	bl _Z10Sys_PrintfPKcz
.LVL1074:
	.loc 4 737 0
	mr 3,29
	bl _Z11Mem_Alloc16i
.LVL1075:
	.loc 4 738 0
	mr. 31,3
	beq- 0,.L1209
.LVL1076:
.L1196:
	.loc 4 741 0
	lbz 0,29(30)
	cmpwi 7,0,0
	bne- 7,.L1210
.L1197:
.LVL1077:
	.loc 4 749 0
	li 0,0
.LBB5276:
.LBB5277:
	.loc 4 388 0
	stw 28,0(31)
.LBE5277:
.LBE5276:
	.loc 4 749 0
	stw 0,8(31)
	.loc 4 750 0
	lwz 0,4(30)
	stw 0,4(31)
	.loc 4 751 0
	lwz 9,4(30)
	cmpwi 7,9,0
	beq- 7,.L1198
	.loc 4 752 0
	stw 31,8(9)
.L1199:
	.loc 4 757 0
	li 0,0
	.loc 4 756 0
	stw 31,4(30)
	.loc 4 757 0
	stw 0,12(31)
.LBE5270:
.LBE5269:
.LBE5288:
	.loc 4 764 0
	mr 3,31
.LBB5289:
.LBB5281:
.LBB5279:
	.loc 4 759 0
	lwz 11,32(30)
	.loc 4 760 0
	lwz 9,36(30)
	.loc 4 759 0
	addi 0,11,1
	.loc 4 760 0
	add 29,9,29
	.loc 4 759 0
	stw 0,32(30)
	.loc 4 760 0
	stw 29,36(30)
.LBE5279:
.LBE5281:
.LBE5289:
	.loc 4 764 0
	lwz 0,28(1)
	lwz 28,8(1)
	mtlr 0
	lwz 29,12(1)
	lwz 30,16(1)
.LVL1078:
	lwz 31,20(1)
.LVL1079:
	addi 1,1,24
	.cfi_remember_state
	.cfi_restore 28
	.cfi_restore 29
	.cfi_restore 30
	.cfi_restore 31
.LCFI98:
	.cfi_def_cfa_offset 0
	blr
.LVL1080:
.L1207:
.LCFI99:
	.cfi_restore_state
.LBB5290:
.LBB5282:
.LBB5268:
	.loc 5 297 0
	lwz 0,0(9)
	cmpw 7,4,0
	bgt- 7,.L1188
.LVL1081:
.LBE5268:
.LBE5282:
.LBB5283:
.LBB5284:
	.loc 4 880 0
	lwz 4,12(31)
.LVL1082:
	addi 3,30,8
.LVL1083:
	bl _ZN7idBTreeI14idDynamicBlockI13shadowCache_sEiLi4EE6RemoveEP11idBTreeNodeIS2_iE
.LVL1084:
	.loc 4 881 0
	li 0,0
	stw 0,12(31)
	.loc 4 882 0
	lwz 11,48(30)
	.loc 4 883 0
	lwz 9,52(30)
	.loc 4 882 0
	addi 0,11,-1
	stw 0,48(30)
.LBB5285:
.LBB5286:
	.loc 4 387 0
	lwz 0,0(31)
	srawi 11,0,31
	xor 0,11,0
	subf 0,11,0
.LBE5286:
.LBE5285:
	.loc 4 883 0
	subf 0,0,9
	stw 0,52(30)
.LVL1085:
.L1192:
.LBE5284:
.LBE5283:
.LBE5290:
	.loc 4 764 0
	lwz 0,28(1)
	mr 3,31
	lwz 28,8(1)
	mtlr 0
	lwz 29,12(1)
	lwz 30,16(1)
.LVL1086:
	lwz 31,20(1)
.LVL1087:
	addi 1,1,24
	.cfi_remember_state
.LCFI100:
	.cfi_def_cfa_offset 0
	.cfi_restore 31
	.cfi_restore 30
	.cfi_restore 29
	.cfi_restore 28
	blr
.LVL1088:
.L1208:
.LCFI101:
	.cfi_restore_state
.LBB5291:
.LBB5287:
.LBB5280:
.LBB5278:
.LBB5274:
	.loc 9 158 0
	lis 28,0xfffc
	lis 29,0x4
.LVL1089:
	ori 28,28,16
	b .L1195
.LVL1090:
.L1210:
.LBE5274:
.LBE5278:
	.loc 4 742 0
	lis 9,_ZN5idLib3sysE@ha
	mr 4,31
	lwz 3,_ZN5idLib3sysE@l(9)
	lis 5,0x4
	lwz 9,0(3)
	lwz 0,44(9)
	mtctr 0
	bctrl
	b .L1197
.LVL1091:
.L1198:
	.loc 4 754 0
	stw 31,0(30)
	b .L1199
.LVL1092:
.L1209:
	.loc 4 739 0
	lis 3,.LC27@ha
	mr 4,29
	la 3,.LC27@l(3)
	crxor 6,6,6
	bl _Z9Sys_ErrorPKcz
	b .L1196
.LBE5280:
.LBE5287:
.LBE5291:
	.cfi_endproc
.LFE3037:
	.size	_ZN19idDynamicBlockAllocI13shadowCache_sLi262144ELi1024EE13AllocInternalEi, .-_ZN19idDynamicBlockAllocI13shadowCache_sLi262144ELi1024EE13AllocInternalEi
	.section	.text._ZN7idBTreeI14idDynamicBlockI7idPlaneEiLi4EE6RemoveEP11idBTreeNodeIS2_iE,"axG",@progbits,_ZN7idBTreeI14idDynamicBlockI7idPlaneEiLi4EE6RemoveEP11idBTreeNodeIS2_iE,comdat
	.align 2
	.weak	_ZN7idBTreeI14idDynamicBlockI7idPlaneEiLi4EE6RemoveEP11idBTreeNodeIS2_iE
	.type	_ZN7idBTreeI14idDynamicBlockI7idPlaneEiLi4EE6RemoveEP11idBTreeNodeIS2_iE, @function
_ZN7idBTreeI14idDynamicBlockI7idPlaneEiLi4EE6RemoveEP11idBTreeNodeIS2_iE:
.LFB3120:
	.loc 5 203 0
	.cfi_startproc
.LVL1093:
.LBB5321:
	.loc 5 209 0
	lwz 9,16(4)
.LBE5321:
	.loc 5 203 0
	mflr 0
	stwu 1,-24(1)
.LCFI102:
	.cfi_def_cfa_offset 24
	.cfi_register 65, 0
.LBB5371:
	.loc 5 209 0
	cmpwi 7,9,0
.LBE5371:
	.loc 5 203 0
	stw 28,8(1)
	mr 28,4
	.cfi_offset 28, -16
	stw 29,12(1)
	mr 29,3
	.cfi_offset 29, -12
	stw 0,28(1)
	stw 30,16(1)
	stw 31,20(1)
.LBB5372:
	.loc 5 209 0
	beq- 7,.L1212
	.cfi_offset 31, -4
	.cfi_offset 30, -8
	.cfi_offset 65, 4
	.loc 5 210 0
	lwz 0,12(4)
	stw 0,12(9)
	.loc 5 214 0
	lwz 9,12(28)
	cmpwi 7,9,0
	beq- 7,.L1214
.L1265:
	.loc 5 215 0
	lwz 0,16(28)
	stw 0,16(9)
.L1215:
	.loc 5 219 0
	lwz 9,8(28)
	lwz 11,20(9)
	addi 0,11,-1
	stw 0,20(9)
	.loc 5 222 0
	lwz 30,8(28)
.LVL1094:
	lwz 0,0(29)
	cmpw 7,30,0
	beq- 7,.L1258
.LVL1095:
.L1255:
	.loc 5 222 0 is_stmt 0 discriminator 2
	lwz 0,20(30)
	cmpwi 7,0,1
	ble- 7,.L1259
.L1258:
	.loc 5 240 0 is_stmt 1
	cmpwi 7,30,0
	beq- 7,.L1233
.L1260:
	.loc 5 240 0 is_stmt 0 discriminator 2
	lwz 9,28(30)
	cmpwi 7,9,0
	beq- 7,.L1233
	.loc 5 242 0 is_stmt 1 discriminator 5
	lwz 0,0(9)
	lwz 9,0(30)
	cmpw 7,9,0
	ble- 7,.L1239
	.loc 5 243 0
	stw 0,0(30)
.L1239:
	.loc 5 240 0
	lwz 30,8(30)
.LVL1096:
	cmpwi 7,30,0
	bne+ 7,.L1260
.L1233:
.LVL1097:
.LBB5322:
.LBB5323:
.LBB5324:
	.loc 4 228 0
	addi 3,28,-4
	bl _ZdlPv
	.loc 4 230 0
	lwz 9,16(29)
.LBE5324:
.LBE5323:
.LBE5322:
.LBB5327:
	.loc 5 251 0
	lwz 3,0(29)
.LBE5327:
.LBB5335:
.LBB5326:
.LBB5325:
	.loc 4 230 0
	addi 0,9,-1
	stw 0,16(29)
.LBE5325:
.LBE5326:
.LBE5335:
.LBB5336:
	.loc 5 251 0
	lwz 0,20(3)
	cmpwi 7,0,1
	beq- 7,.L1241
.LVL1098:
.L1211:
.LBE5336:
.LBE5372:
	.loc 5 261 0
	lwz 0,28(1)
	lwz 28,8(1)
.LVL1099:
	mtlr 0
	lwz 29,12(1)
.LVL1100:
	lwz 30,16(1)
.LVL1101:
	lwz 31,20(1)
	addi 1,1,24
	.cfi_remember_state
.LCFI103:
	.cfi_def_cfa_offset 0
	.cfi_restore 31
	.cfi_restore 30
	.cfi_restore 29
	.cfi_restore 28
	blr
.LVL1102:
.L1259:
.LCFI104:
	.cfi_restore_state
.LBB5373:
	.loc 5 224 0 discriminator 5
	lwz 31,12(30)
	cmpwi 7,31,0
	beq- 7,.L1261
.LVL1103:
.LBB5337:
.LBB5338:
	.loc 5 445 0
	lwz 11,24(30)
.LVL1104:
	lwz 9,12(11)
	cmpwi 7,9,0
	bne+ 7,.L1250
	b .L1266
.LVL1105:
.L1243:
	mr 9,0
.LVL1106:
.L1250:
	.loc 5 446 0
	stw 31,8(11)
.LVL1107:
	.loc 5 445 0
	mr 11,9
	lwz 0,12(9)
	cmpwi 7,0,0
	bne+ 7,.L1243
.L1218:
	.loc 5 448 0
	stw 31,8(9)
	.loc 5 449 0
	lwz 0,24(31)
	stw 0,12(9)
	.loc 5 450 0
	lwz 11,24(31)
	stw 9,16(11)
	.loc 5 451 0
	lwz 0,24(30)
	.loc 5 452 0
	lwz 9,20(31)
.LVL1108:
	.loc 5 451 0
	stw 0,24(31)
	.loc 5 452 0
	lwz 0,20(30)
	add 0,9,0
	stw 0,20(31)
	.loc 5 455 0
	lwz 9,16(30)
	cmpwi 7,9,0
	beq- 7,.L1220
	.loc 5 456 0
	stw 31,12(9)
.L1221:
	.loc 5 460 0
	lwz 0,16(30)
.LBB5339:
.LBB5340:
.LBB5341:
	.loc 4 228 0
	addi 3,30,-4
.LBE5341:
.LBE5340:
.LBE5339:
	.loc 5 461 0
	lwz 9,8(31)
	.loc 5 460 0
	stw 0,16(31)
	.loc 5 461 0
	lwz 11,20(9)
	addi 0,11,-1
	stw 0,20(9)
.LVL1109:
.LBB5344:
.LBB5343:
.LBB5342:
	.loc 4 228 0
	bl _ZdlPv
.LVL1110:
	.loc 4 230 0
	lwz 9,16(29)
	addi 0,9,-1
	stw 0,16(29)
.LVL1111:
.L1222:
.LBE5342:
.LBE5343:
.LBE5344:
.LBE5338:
.LBE5337:
	.loc 5 231 0
	lwz 11,28(31)
	lwz 9,0(31)
	lwz 0,0(11)
	cmpw 7,9,0
	ble- 7,.L1227
	.loc 5 232 0
	stw 0,0(31)
.L1227:
	.loc 5 235 0
	lwz 0,20(31)
	cmpwi 7,0,4
	bgt- 7,.L1263
	.loc 5 222 0
	lwz 30,8(31)
.LVL1112:
	lwz 0,0(29)
	cmpw 7,0,30
	bne+ 7,.L1255
	b .L1258
.LVL1113:
.L1261:
	.loc 5 226 0
	lwz 3,16(30)
	mr 31,30
	cmpwi 7,3,0
	beq- 7,.L1222
.LVL1114:
.LBB5346:
.LBB5347:
	.loc 5 445 0
	lwz 11,24(3)
.LVL1115:
	lwz 9,12(11)
	cmpwi 7,9,0
	bne+ 7,.L1251
	b .L1267
.LVL1116:
.L1246:
	mr 9,0
.LVL1117:
.L1251:
	.loc 5 446 0
	stw 30,8(11)
.LVL1118:
	.loc 5 445 0
	mr 11,9
	lwz 0,12(9)
	cmpwi 7,0,0
	bne+ 7,.L1246
.L1223:
	.loc 5 448 0
	stw 30,8(9)
	.loc 5 449 0
	lwz 0,24(30)
	stw 0,12(9)
	.loc 5 450 0
	lwz 11,24(30)
	stw 9,16(11)
	.loc 5 451 0
	lwz 0,24(3)
	.loc 5 452 0
	lwz 9,20(30)
.LVL1119:
	.loc 5 451 0
	stw 0,24(30)
	.loc 5 452 0
	lwz 0,20(3)
	add 0,9,0
	stw 0,20(30)
	.loc 5 455 0
	lwz 9,16(3)
	cmpwi 7,9,0
	beq- 7,.L1225
	.loc 5 456 0
	stw 30,12(9)
.L1226:
	.loc 5 460 0
	lwz 0,16(3)
.LBB5348:
.LBB5349:
.LBB5350:
	.loc 4 228 0
	addi 3,3,-4
.LBE5350:
.LBE5349:
.LBE5348:
	.loc 5 461 0
	lwz 9,8(30)
.LBB5355:
.LBB5353:
.LBB5351:
	.loc 4 230 0
	mr 31,30
.LBE5351:
.LBE5353:
.LBE5355:
	.loc 5 460 0
	stw 0,16(30)
	.loc 5 461 0
	lwz 11,20(9)
	addi 0,11,-1
	stw 0,20(9)
.LVL1120:
.LBB5356:
.LBB5354:
.LBB5352:
	.loc 4 228 0
	bl _ZdlPv
.LVL1121:
	.loc 4 230 0
	lwz 9,16(29)
	addi 0,9,-1
	stw 0,16(29)
.LVL1122:
	b .L1222
.LVL1123:
.L1220:
.LBE5352:
.LBE5354:
.LBE5356:
.LBE5347:
.LBE5346:
.LBB5359:
.LBB5345:
	.loc 5 458 0
	lwz 9,8(30)
	stw 31,24(9)
	b .L1221
.LVL1124:
.L1266:
	.loc 5 445 0
	mr 9,11
	b .L1218
.LVL1125:
.L1225:
.LBE5345:
.LBE5359:
.LBB5360:
.LBB5357:
	.loc 5 458 0
	lwz 9,8(3)
	stw 30,24(9)
	b .L1226
.LVL1126:
.L1263:
.LBE5357:
.LBE5360:
.LBB5361:
.LBB5362:
.LBB5363:
.LBB5364:
.LBB5365:
.LBB5366:
	.loc 4 215 0
	lwz 9,16(29)
	.loc 4 216 0
	li 3,36
	.loc 4 215 0
	addi 0,9,1
	stw 0,16(29)
	.loc 4 216 0
	bl _Znwj
.LVL1127:
.LBE5366:
.LBE5365:
	.loc 5 377 0
	li 0,0
	.loc 5 378 0
	stw 0,12(3)
	.loc 5 399 0
	addi 10,3,4
	.loc 5 377 0
	stw 0,4(3)
	.loc 5 379 0
	stw 0,16(3)
	.loc 5 380 0
	stw 0,20(3)
	.loc 5 381 0
	stw 0,24(3)
	.loc 5 382 0
	stw 0,28(3)
	.loc 5 383 0
	stw 0,32(3)
	.loc 5 384 0
	stw 0,8(3)
.LBE5364:
.LBE5363:
	.loc 5 400 0
	lwz 0,8(31)
	stw 0,12(3)
	.loc 5 403 0
	lwz 9,24(31)
.LVL1128:
	.loc 5 404 0
	stw 10,8(9)
.LVL1129:
	.loc 5 405 0
	lwz 0,20(31)
	cmpwi 7,0,3
	ble- 7,.L1229
	li 11,3
.LVL1130:
.L1230:
	.loc 5 406 0
	lwz 9,12(9)
.LVL1131:
	.loc 5 405 0
	addi 11,11,2
.LVL1132:
	.loc 5 407 0
	stw 10,8(9)
	.loc 5 405 0
	lwz 0,20(31)
	cmpw 7,11,0
	blt+ 7,.L1230
.LVL1133:
.L1229:
	.loc 5 410 0
	lwz 11,0(9)
	.loc 5 418 0
	li 0,0
	.loc 5 410 0
	stw 11,4(3)
	.loc 5 411 0
	lwz 11,20(31)
	srawi 11,11,1
	addze 11,11
	stw 11,24(3)
	.loc 5 412 0
	lwz 8,24(31)
	.loc 5 413 0
	stw 9,32(3)
	.loc 5 412 0
	stw 8,28(3)
	.loc 5 415 0
	lwz 8,20(31)
	subf 11,11,8
	stw 11,20(31)
	.loc 5 416 0
	lwz 11,12(9)
	stw 11,24(31)
	.loc 5 418 0
	lwz 11,12(9)
	stw 0,16(11)
	.loc 5 419 0
	stw 0,12(9)
	.loc 5 424 0
	lwz 9,16(31)
.LVL1134:
	cmpwi 7,9,0
	beq- 7,.L1231
	.loc 5 425 0
	stw 10,12(9)
.L1232:
	.loc 5 429 0
	lwz 0,16(31)
	.loc 5 433 0
	mr 30,31
	.loc 5 430 0
	stw 31,16(3)
	.loc 5 429 0
	stw 0,20(3)
	.loc 5 431 0
	stw 10,16(31)
	.loc 5 433 0
	lwz 9,8(31)
	lwz 11,20(9)
	addi 0,11,1
	stw 0,20(9)
	b .L1258
.LVL1135:
.L1241:
.LBE5362:
.LBE5361:
.LBB5368:
	.loc 5 251 0 discriminator 1
	lwz 9,24(3)
	lwz 0,4(9)
	cmpwi 7,0,0
	bne+ 7,.L1211
.LVL1136:
.LBB5328:
	.loc 5 253 0
	stw 0,8(9)
.LBB5329:
.LBB5330:
.LBB5331:
	.loc 4 228 0
	addi 3,3,-4
.LVL1137:
.LBE5331:
.LBE5330:
.LBE5329:
	.loc 5 254 0
	lwz 9,0(29)
	lwz 0,24(9)
	stw 0,0(29)
.LVL1138:
.LBB5334:
.LBB5333:
.LBB5332:
	.loc 4 228 0
	bl _ZdlPv
.LVL1139:
	.loc 4 230 0
	lwz 0,16(29)
	addic 0,0,-1
	stw 0,16(29)
	b .L1211
.LVL1140:
.L1267:
.LBE5332:
.LBE5333:
.LBE5334:
.LBE5328:
.LBE5368:
.LBB5369:
.LBB5358:
	.loc 5 445 0
	mr 9,11
	b .L1223
.LVL1141:
.L1212:
.LBE5358:
.LBE5369:
	.loc 5 212 0
	lwz 9,8(4)
	lwz 0,12(4)
	stw 0,24(9)
	.loc 5 214 0
	lwz 9,12(28)
	cmpwi 7,9,0
	bne+ 7,.L1265
.L1214:
	.loc 5 217 0
	lwz 9,8(28)
	lwz 0,16(28)
	stw 0,28(9)
	b .L1215
.LVL1142:
.L1231:
.LBB5370:
.LBB5367:
	.loc 5 427 0
	lwz 9,8(31)
	stw 10,24(9)
	b .L1232
.LBE5367:
.LBE5370:
.LBE5373:
	.cfi_endproc
.LFE3120:
	.size	_ZN7idBTreeI14idDynamicBlockI7idPlaneEiLi4EE6RemoveEP11idBTreeNodeIS2_iE, .-_ZN7idBTreeI14idDynamicBlockI7idPlaneEiLi4EE6RemoveEP11idBTreeNodeIS2_iE
	.section	.text._ZN19idDynamicBlockAllocI7idPlaneLi131072ELi1024EE13AllocInternalEi,"axG",@progbits,_ZN19idDynamicBlockAllocI7idPlaneLi131072ELi1024EE13AllocInternalEi,comdat
	.align 2
	.weak	_ZN19idDynamicBlockAllocI7idPlaneLi131072ELi1024EE13AllocInternalEi
	.type	_ZN19idDynamicBlockAllocI7idPlaneLi131072ELi1024EE13AllocInternalEi, @function
_ZN19idDynamicBlockAllocI7idPlaneLi131072ELi1024EE13AllocInternalEi:
.LFB3040:
	.loc 4 727 0
	.cfi_startproc
.LVL1143:
	mflr 0
	stwu 1,-24(1)
.LCFI105:
	.cfi_def_cfa_offset 24
	.cfi_register 65, 0
.LBB5388:
	.loc 4 729 0
	slwi 4,4,4
.LVL1144:
.LBE5388:
	.loc 4 727 0
	stw 30,16(1)
	mr 30,3
	.cfi_offset 30, -8
	stw 0,28(1)
	stw 28,8(1)
	stw 29,12(1)
	stw 31,20(1)
.LBB5411:
.LBB5389:
.LBB5390:
	.loc 5 289 0
	lwz 9,8(3)
	lwz 9,24(9)
.LVL1145:
	cmpwi 7,9,0
	bne+ 7,.L1288
	.cfi_offset 31, -4
	.cfi_offset 29, -12
	.cfi_offset 28, -16
	.cfi_offset 65, 4
	b .L1270
.LVL1146:
.L1272:
	.loc 5 291 0
	lwz 11,0(9)
	cmpw 7,4,11
	ble- 7,.L1271
	mr 9,0
.LVL1147:
.L1288:
	.loc 5 290 0
	lwz 0,12(9)
	cmpwi 7,0,0
	bne+ 7,.L1272
.L1271:
	.loc 5 296 0
	lwz 31,4(9)
	cmpwi 7,31,0
	bne- 7,.L1289
	.loc 5 289 0
	lwz 9,24(9)
.LVL1148:
	cmpwi 7,9,0
	bne+ 7,.L1288
.L1270:
.LBE5390:
.LBE5389:
.LBB5392:
	.loc 4 734 0
	lbz 0,28(30)
	li 31,0
	cmpwi 7,0,0
	beq- 7,.L1274
.LBB5393:
.LBB5394:
.LBB5395:
	.loc 9 158 0
	lis 0,0x1
.LBE5395:
.LBE5394:
	.loc 4 735 0
	addi 29,4,16
.LVL1149:
.LBB5398:
.LBB5396:
	.loc 9 158 0
	ori 0,0,65535
	neg 28,4
	cmpw 7,29,0
	ble- 7,.L1290
.LVL1150:
.L1277:
.LBE5396:
.LBE5398:
	.loc 4 736 0
	lis 3,.LC26@ha
.LVL1151:
	mr 4,29
.LVL1152:
	la 3,.LC26@l(3)
	crxor 6,6,6
	bl _Z10Sys_PrintfPKcz
.LVL1153:
	.loc 4 737 0
	mr 3,29
	bl _Z11Mem_Alloc16i
.LVL1154:
	.loc 4 738 0
	mr. 31,3
	beq- 0,.L1291
.LVL1155:
.L1278:
	.loc 4 741 0
	lbz 0,29(30)
	cmpwi 7,0,0
	bne- 7,.L1292
.L1279:
.LVL1156:
	.loc 4 749 0
	li 0,0
.LBB5399:
.LBB5400:
	.loc 4 388 0
	stw 28,0(31)
.LBE5400:
.LBE5399:
	.loc 4 749 0
	stw 0,8(31)
	.loc 4 750 0
	lwz 0,4(30)
	stw 0,4(31)
	.loc 4 751 0
	lwz 9,4(30)
	cmpwi 7,9,0
	beq- 7,.L1280
	.loc 4 752 0
	stw 31,8(9)
.L1281:
	.loc 4 757 0
	li 0,0
	.loc 4 756 0
	stw 31,4(30)
	.loc 4 757 0
	stw 0,12(31)
.LBE5393:
.LBE5392:
.LBE5411:
	.loc 4 764 0
	mr 3,31
.LBB5412:
.LBB5404:
.LBB5402:
	.loc 4 759 0
	lwz 11,32(30)
	.loc 4 760 0
	lwz 9,36(30)
	.loc 4 759 0
	addi 0,11,1
	.loc 4 760 0
	add 29,9,29
	.loc 4 759 0
	stw 0,32(30)
	.loc 4 760 0
	stw 29,36(30)
.LBE5402:
.LBE5404:
.LBE5412:
	.loc 4 764 0
	lwz 0,28(1)
	lwz 28,8(1)
	mtlr 0
	lwz 29,12(1)
	lwz 30,16(1)
.LVL1157:
	lwz 31,20(1)
.LVL1158:
	addi 1,1,24
	.cfi_remember_state
	.cfi_restore 28
	.cfi_restore 29
	.cfi_restore 30
	.cfi_restore 31
.LCFI106:
	.cfi_def_cfa_offset 0
	blr
.LVL1159:
.L1289:
.LCFI107:
	.cfi_restore_state
.LBB5413:
.LBB5405:
.LBB5391:
	.loc 5 297 0
	lwz 0,0(9)
	cmpw 7,4,0
	bgt- 7,.L1270
.LVL1160:
.LBE5391:
.LBE5405:
.LBB5406:
.LBB5407:
	.loc 4 880 0
	lwz 4,12(31)
.LVL1161:
	addi 3,30,8
.LVL1162:
	bl _ZN7idBTreeI14idDynamicBlockI7idPlaneEiLi4EE6RemoveEP11idBTreeNodeIS2_iE
.LVL1163:
	.loc 4 881 0
	li 0,0
	stw 0,12(31)
	.loc 4 882 0
	lwz 11,48(30)
	.loc 4 883 0
	lwz 9,52(30)
	.loc 4 882 0
	addi 0,11,-1
	stw 0,48(30)
.LBB5408:
.LBB5409:
	.loc 4 387 0
	lwz 0,0(31)
	srawi 11,0,31
	xor 0,11,0
	subf 0,11,0
.LBE5409:
.LBE5408:
	.loc 4 883 0
	subf 0,0,9
	stw 0,52(30)
.LVL1164:
.L1274:
.LBE5407:
.LBE5406:
.LBE5413:
	.loc 4 764 0
	lwz 0,28(1)
	mr 3,31
	lwz 28,8(1)
	mtlr 0
	lwz 29,12(1)
	lwz 30,16(1)
.LVL1165:
	lwz 31,20(1)
.LVL1166:
	addi 1,1,24
	.cfi_remember_state
.LCFI108:
	.cfi_def_cfa_offset 0
	.cfi_restore 31
	.cfi_restore 30
	.cfi_restore 29
	.cfi_restore 28
	blr
.LVL1167:
.L1290:
.LCFI109:
	.cfi_restore_state
.LBB5414:
.LBB5410:
.LBB5403:
.LBB5401:
.LBB5397:
	.loc 9 158 0
	lis 28,0xfffe
	lis 29,0x2
.LVL1168:
	ori 28,28,16
	b .L1277
.LVL1169:
.L1292:
.LBE5397:
.LBE5401:
	.loc 4 742 0
	lis 9,_ZN5idLib3sysE@ha
	mr 4,31
	lwz 3,_ZN5idLib3sysE@l(9)
	lis 5,0x2
	lwz 9,0(3)
	lwz 0,44(9)
	mtctr 0
	bctrl
	b .L1279
.LVL1170:
.L1280:
	.loc 4 754 0
	stw 31,0(30)
	b .L1281
.LVL1171:
.L1291:
	.loc 4 739 0
	lis 3,.LC27@ha
	mr 4,29
	la 3,.LC27@l(3)
	crxor 6,6,6
	bl _Z9Sys_ErrorPKcz
	b .L1278
.LBE5403:
.LBE5410:
.LBE5414:
	.cfi_endproc
.LFE3040:
	.size	_ZN19idDynamicBlockAllocI7idPlaneLi131072ELi1024EE13AllocInternalEi, .-_ZN19idDynamicBlockAllocI7idPlaneLi131072ELi1024EE13AllocInternalEi
	.section	.text._ZN7idBTreeI14idDynamicBlockI9silEdge_tEiLi4EE6RemoveEP11idBTreeNodeIS2_iE,"axG",@progbits,_ZN7idBTreeI14idDynamicBlockI9silEdge_tEiLi4EE6RemoveEP11idBTreeNodeIS2_iE,comdat
	.align 2
	.weak	_ZN7idBTreeI14idDynamicBlockI9silEdge_tEiLi4EE6RemoveEP11idBTreeNodeIS2_iE
	.type	_ZN7idBTreeI14idDynamicBlockI9silEdge_tEiLi4EE6RemoveEP11idBTreeNodeIS2_iE, @function
_ZN7idBTreeI14idDynamicBlockI9silEdge_tEiLi4EE6RemoveEP11idBTreeNodeIS2_iE:
.LFB3121:
	.loc 5 203 0
	.cfi_startproc
.LVL1172:
.LBB5444:
	.loc 5 209 0
	lwz 9,16(4)
.LBE5444:
	.loc 5 203 0
	mflr 0
	stwu 1,-24(1)
.LCFI110:
	.cfi_def_cfa_offset 24
	.cfi_register 65, 0
.LBB5494:
	.loc 5 209 0
	cmpwi 7,9,0
.LBE5494:
	.loc 5 203 0
	stw 28,8(1)
	mr 28,4
	.cfi_offset 28, -16
	stw 29,12(1)
	mr 29,3
	.cfi_offset 29, -12
	stw 0,28(1)
	stw 30,16(1)
	stw 31,20(1)
.LBB5495:
	.loc 5 209 0
	beq- 7,.L1294
	.cfi_offset 31, -4
	.cfi_offset 30, -8
	.cfi_offset 65, 4
	.loc 5 210 0
	lwz 0,12(4)
	stw 0,12(9)
	.loc 5 214 0
	lwz 9,12(28)
	cmpwi 7,9,0
	beq- 7,.L1296
.L1347:
	.loc 5 215 0
	lwz 0,16(28)
	stw 0,16(9)
.L1297:
	.loc 5 219 0
	lwz 9,8(28)
	lwz 11,20(9)
	addi 0,11,-1
	stw 0,20(9)
	.loc 5 222 0
	lwz 30,8(28)
.LVL1173:
	lwz 0,0(29)
	cmpw 7,30,0
	beq- 7,.L1340
.LVL1174:
.L1337:
	.loc 5 222 0 is_stmt 0 discriminator 2
	lwz 0,20(30)
	cmpwi 7,0,1
	ble- 7,.L1341
.L1340:
	.loc 5 240 0 is_stmt 1
	cmpwi 7,30,0
	beq- 7,.L1315
.L1342:
	.loc 5 240 0 is_stmt 0 discriminator 2
	lwz 9,28(30)
	cmpwi 7,9,0
	beq- 7,.L1315
	.loc 5 242 0 is_stmt 1 discriminator 5
	lwz 0,0(9)
	lwz 9,0(30)
	cmpw 7,9,0
	ble- 7,.L1321
	.loc 5 243 0
	stw 0,0(30)
.L1321:
	.loc 5 240 0
	lwz 30,8(30)
.LVL1175:
	cmpwi 7,30,0
	bne+ 7,.L1342
.L1315:
.LVL1176:
.LBB5445:
.LBB5446:
.LBB5447:
	.loc 4 228 0
	addi 3,28,-4
	bl _ZdlPv
	.loc 4 230 0
	lwz 9,16(29)
.LBE5447:
.LBE5446:
.LBE5445:
.LBB5450:
	.loc 5 251 0
	lwz 3,0(29)
.LBE5450:
.LBB5458:
.LBB5449:
.LBB5448:
	.loc 4 230 0
	addi 0,9,-1
	stw 0,16(29)
.LBE5448:
.LBE5449:
.LBE5458:
.LBB5459:
	.loc 5 251 0
	lwz 0,20(3)
	cmpwi 7,0,1
	beq- 7,.L1323
.LVL1177:
.L1293:
.LBE5459:
.LBE5495:
	.loc 5 261 0
	lwz 0,28(1)
	lwz 28,8(1)
.LVL1178:
	mtlr 0
	lwz 29,12(1)
.LVL1179:
	lwz 30,16(1)
.LVL1180:
	lwz 31,20(1)
	addi 1,1,24
	.cfi_remember_state
.LCFI111:
	.cfi_def_cfa_offset 0
	.cfi_restore 31
	.cfi_restore 30
	.cfi_restore 29
	.cfi_restore 28
	blr
.LVL1181:
.L1341:
.LCFI112:
	.cfi_restore_state
.LBB5496:
	.loc 5 224 0 discriminator 5
	lwz 31,12(30)
	cmpwi 7,31,0
	beq- 7,.L1343
.LVL1182:
.LBB5460:
.LBB5461:
	.loc 5 445 0
	lwz 11,24(30)
.LVL1183:
	lwz 9,12(11)
	cmpwi 7,9,0
	bne+ 7,.L1332
	b .L1348
.LVL1184:
.L1325:
	mr 9,0
.LVL1185:
.L1332:
	.loc 5 446 0
	stw 31,8(11)
.LVL1186:
	.loc 5 445 0
	mr 11,9
	lwz 0,12(9)
	cmpwi 7,0,0
	bne+ 7,.L1325
.L1300:
	.loc 5 448 0
	stw 31,8(9)
	.loc 5 449 0
	lwz 0,24(31)
	stw 0,12(9)
	.loc 5 450 0
	lwz 11,24(31)
	stw 9,16(11)
	.loc 5 451 0
	lwz 0,24(30)
	.loc 5 452 0
	lwz 9,20(31)
.LVL1187:
	.loc 5 451 0
	stw 0,24(31)
	.loc 5 452 0
	lwz 0,20(30)
	add 0,9,0
	stw 0,20(31)
	.loc 5 455 0
	lwz 9,16(30)
	cmpwi 7,9,0
	beq- 7,.L1302
	.loc 5 456 0
	stw 31,12(9)
.L1303:
	.loc 5 460 0
	lwz 0,16(30)
.LBB5462:
.LBB5463:
.LBB5464:
	.loc 4 228 0
	addi 3,30,-4
.LBE5464:
.LBE5463:
.LBE5462:
	.loc 5 461 0
	lwz 9,8(31)
	.loc 5 460 0
	stw 0,16(31)
	.loc 5 461 0
	lwz 11,20(9)
	addi 0,11,-1
	stw 0,20(9)
.LVL1188:
.LBB5467:
.LBB5466:
.LBB5465:
	.loc 4 228 0
	bl _ZdlPv
.LVL1189:
	.loc 4 230 0
	lwz 9,16(29)
	addi 0,9,-1
	stw 0,16(29)
.LVL1190:
.L1304:
.LBE5465:
.LBE5466:
.LBE5467:
.LBE5461:
.LBE5460:
	.loc 5 231 0
	lwz 11,28(31)
	lwz 9,0(31)
	lwz 0,0(11)
	cmpw 7,9,0
	ble- 7,.L1309
	.loc 5 232 0
	stw 0,0(31)
.L1309:
	.loc 5 235 0
	lwz 0,20(31)
	cmpwi 7,0,4
	bgt- 7,.L1345
	.loc 5 222 0
	lwz 30,8(31)
.LVL1191:
	lwz 0,0(29)
	cmpw 7,0,30
	bne+ 7,.L1337
	b .L1340
.LVL1192:
.L1343:
	.loc 5 226 0
	lwz 3,16(30)
	mr 31,30
	cmpwi 7,3,0
	beq- 7,.L1304
.LVL1193:
.LBB5469:
.LBB5470:
	.loc 5 445 0
	lwz 11,24(3)
.LVL1194:
	lwz 9,12(11)
	cmpwi 7,9,0
	bne+ 7,.L1333
	b .L1349
.LVL1195:
.L1328:
	mr 9,0
.LVL1196:
.L1333:
	.loc 5 446 0
	stw 30,8(11)
.LVL1197:
	.loc 5 445 0
	mr 11,9
	lwz 0,12(9)
	cmpwi 7,0,0
	bne+ 7,.L1328
.L1305:
	.loc 5 448 0
	stw 30,8(9)
	.loc 5 449 0
	lwz 0,24(30)
	stw 0,12(9)
	.loc 5 450 0
	lwz 11,24(30)
	stw 9,16(11)
	.loc 5 451 0
	lwz 0,24(3)
	.loc 5 452 0
	lwz 9,20(30)
.LVL1198:
	.loc 5 451 0
	stw 0,24(30)
	.loc 5 452 0
	lwz 0,20(3)
	add 0,9,0
	stw 0,20(30)
	.loc 5 455 0
	lwz 9,16(3)
	cmpwi 7,9,0
	beq- 7,.L1307
	.loc 5 456 0
	stw 30,12(9)
.L1308:
	.loc 5 460 0
	lwz 0,16(3)
.LBB5471:
.LBB5472:
.LBB5473:
	.loc 4 228 0
	addi 3,3,-4
.LBE5473:
.LBE5472:
.LBE5471:
	.loc 5 461 0
	lwz 9,8(30)
.LBB5478:
.LBB5476:
.LBB5474:
	.loc 4 230 0
	mr 31,30
.LBE5474:
.LBE5476:
.LBE5478:
	.loc 5 460 0
	stw 0,16(30)
	.loc 5 461 0
	lwz 11,20(9)
	addi 0,11,-1
	stw 0,20(9)
.LVL1199:
.LBB5479:
.LBB5477:
.LBB5475:
	.loc 4 228 0
	bl _ZdlPv
.LVL1200:
	.loc 4 230 0
	lwz 9,16(29)
	addi 0,9,-1
	stw 0,16(29)
.LVL1201:
	b .L1304
.LVL1202:
.L1302:
.LBE5475:
.LBE5477:
.LBE5479:
.LBE5470:
.LBE5469:
.LBB5482:
.LBB5468:
	.loc 5 458 0
	lwz 9,8(30)
	stw 31,24(9)
	b .L1303
.LVL1203:
.L1348:
	.loc 5 445 0
	mr 9,11
	b .L1300
.LVL1204:
.L1307:
.LBE5468:
.LBE5482:
.LBB5483:
.LBB5480:
	.loc 5 458 0
	lwz 9,8(3)
	stw 30,24(9)
	b .L1308
.LVL1205:
.L1345:
.LBE5480:
.LBE5483:
.LBB5484:
.LBB5485:
.LBB5486:
.LBB5487:
.LBB5488:
.LBB5489:
	.loc 4 215 0
	lwz 9,16(29)
	.loc 4 216 0
	li 3,36
	.loc 4 215 0
	addi 0,9,1
	stw 0,16(29)
	.loc 4 216 0
	bl _Znwj
.LVL1206:
.LBE5489:
.LBE5488:
	.loc 5 377 0
	li 0,0
	.loc 5 378 0
	stw 0,12(3)
	.loc 5 399 0
	addi 10,3,4
	.loc 5 377 0
	stw 0,4(3)
	.loc 5 379 0
	stw 0,16(3)
	.loc 5 380 0
	stw 0,20(3)
	.loc 5 381 0
	stw 0,24(3)
	.loc 5 382 0
	stw 0,28(3)
	.loc 5 383 0
	stw 0,32(3)
	.loc 5 384 0
	stw 0,8(3)
.LBE5487:
.LBE5486:
	.loc 5 400 0
	lwz 0,8(31)
	stw 0,12(3)
	.loc 5 403 0
	lwz 9,24(31)
.LVL1207:
	.loc 5 404 0
	stw 10,8(9)
.LVL1208:
	.loc 5 405 0
	lwz 0,20(31)
	cmpwi 7,0,3
	ble- 7,.L1311
	li 11,3
.LVL1209:
.L1312:
	.loc 5 406 0
	lwz 9,12(9)
.LVL1210:
	.loc 5 405 0
	addi 11,11,2
.LVL1211:
	.loc 5 407 0
	stw 10,8(9)
	.loc 5 405 0
	lwz 0,20(31)
	cmpw 7,11,0
	blt+ 7,.L1312
.LVL1212:
.L1311:
	.loc 5 410 0
	lwz 11,0(9)
	.loc 5 418 0
	li 0,0
	.loc 5 410 0
	stw 11,4(3)
	.loc 5 411 0
	lwz 11,20(31)
	srawi 11,11,1
	addze 11,11
	stw 11,24(3)
	.loc 5 412 0
	lwz 8,24(31)
	.loc 5 413 0
	stw 9,32(3)
	.loc 5 412 0
	stw 8,28(3)
	.loc 5 415 0
	lwz 8,20(31)
	subf 11,11,8
	stw 11,20(31)
	.loc 5 416 0
	lwz 11,12(9)
	stw 11,24(31)
	.loc 5 418 0
	lwz 11,12(9)
	stw 0,16(11)
	.loc 5 419 0
	stw 0,12(9)
	.loc 5 424 0
	lwz 9,16(31)
.LVL1213:
	cmpwi 7,9,0
	beq- 7,.L1313
	.loc 5 425 0
	stw 10,12(9)
.L1314:
	.loc 5 429 0
	lwz 0,16(31)
	.loc 5 433 0
	mr 30,31
	.loc 5 430 0
	stw 31,16(3)
	.loc 5 429 0
	stw 0,20(3)
	.loc 5 431 0
	stw 10,16(31)
	.loc 5 433 0
	lwz 9,8(31)
	lwz 11,20(9)
	addi 0,11,1
	stw 0,20(9)
	b .L1340
.LVL1214:
.L1323:
.LBE5485:
.LBE5484:
.LBB5491:
	.loc 5 251 0 discriminator 1
	lwz 9,24(3)
	lwz 0,4(9)
	cmpwi 7,0,0
	bne+ 7,.L1293
.LVL1215:
.LBB5451:
	.loc 5 253 0
	stw 0,8(9)
.LBB5452:
.LBB5453:
.LBB5454:
	.loc 4 228 0
	addi 3,3,-4
.LVL1216:
.LBE5454:
.LBE5453:
.LBE5452:
	.loc 5 254 0
	lwz 9,0(29)
	lwz 0,24(9)
	stw 0,0(29)
.LVL1217:
.LBB5457:
.LBB5456:
.LBB5455:
	.loc 4 228 0
	bl _ZdlPv
.LVL1218:
	.loc 4 230 0
	lwz 0,16(29)
	addic 0,0,-1
	stw 0,16(29)
	b .L1293
.LVL1219:
.L1349:
.LBE5455:
.LBE5456:
.LBE5457:
.LBE5451:
.LBE5491:
.LBB5492:
.LBB5481:
	.loc 5 445 0
	mr 9,11
	b .L1305
.LVL1220:
.L1294:
.LBE5481:
.LBE5492:
	.loc 5 212 0
	lwz 9,8(4)
	lwz 0,12(4)
	stw 0,24(9)
	.loc 5 214 0
	lwz 9,12(28)
	cmpwi 7,9,0
	bne+ 7,.L1347
.L1296:
	.loc 5 217 0
	lwz 9,8(28)
	lwz 0,16(28)
	stw 0,28(9)
	b .L1297
.LVL1221:
.L1313:
.LBB5493:
.LBB5490:
	.loc 5 427 0
	lwz 9,8(31)
	stw 10,24(9)
	b .L1314
.LBE5490:
.LBE5493:
.LBE5496:
	.cfi_endproc
.LFE3121:
	.size	_ZN7idBTreeI14idDynamicBlockI9silEdge_tEiLi4EE6RemoveEP11idBTreeNodeIS2_iE, .-_ZN7idBTreeI14idDynamicBlockI9silEdge_tEiLi4EE6RemoveEP11idBTreeNodeIS2_iE
	.section	.text._ZN19idDynamicBlockAllocI9silEdge_tLi131072ELi1024EE13AllocInternalEi,"axG",@progbits,_ZN19idDynamicBlockAllocI9silEdge_tLi131072ELi1024EE13AllocInternalEi,comdat
	.align 2
	.weak	_ZN19idDynamicBlockAllocI9silEdge_tLi131072ELi1024EE13AllocInternalEi
	.type	_ZN19idDynamicBlockAllocI9silEdge_tLi131072ELi1024EE13AllocInternalEi, @function
_ZN19idDynamicBlockAllocI9silEdge_tLi131072ELi1024EE13AllocInternalEi:
.LFB3047:
	.loc 4 727 0
	.cfi_startproc
.LVL1222:
	mflr 0
	stwu 1,-24(1)
.LCFI113:
	.cfi_def_cfa_offset 24
	.cfi_register 65, 0
.LBB5511:
	.loc 4 729 0
	slwi 4,4,4
.LVL1223:
.LBE5511:
	.loc 4 727 0
	stw 30,16(1)
	mr 30,3
	.cfi_offset 30, -8
	stw 0,28(1)
	stw 28,8(1)
	stw 29,12(1)
	stw 31,20(1)
.LBB5534:
.LBB5512:
.LBB5513:
	.loc 5 289 0
	lwz 9,8(3)
	lwz 9,24(9)
.LVL1224:
	cmpwi 7,9,0
	bne+ 7,.L1370
	.cfi_offset 31, -4
	.cfi_offset 29, -12
	.cfi_offset 28, -16
	.cfi_offset 65, 4
.LVL1225:
	b .L1352
.LVL1226:
.L1354:
	.loc 5 291 0
	lwz 11,0(9)
	cmpw 7,4,11
	ble- 7,.L1353
	mr 9,0
.LVL1227:
.L1370:
	.loc 5 290 0
	lwz 0,12(9)
	cmpwi 7,0,0
	bne+ 7,.L1354
.L1353:
	.loc 5 296 0
	lwz 31,4(9)
	cmpwi 7,31,0
	bne- 7,.L1371
	.loc 5 289 0
	lwz 9,24(9)
.LVL1228:
	cmpwi 7,9,0
	bne+ 7,.L1370
.L1352:
.LBE5513:
.LBE5512:
.LBB5515:
	.loc 4 734 0
	lbz 0,28(30)
	li 31,0
	cmpwi 7,0,0
	beq- 7,.L1356
.LBB5516:
.LBB5517:
.LBB5518:
	.loc 9 158 0
	lis 0,0x1
.LBE5518:
.LBE5517:
	.loc 4 735 0
	addi 29,4,16
.LVL1229:
.LBB5521:
.LBB5519:
	.loc 9 158 0
	ori 0,0,65535
	neg 28,4
	cmpw 7,29,0
	ble- 7,.L1372
.LVL1230:
.L1359:
.LBE5519:
.LBE5521:
	.loc 4 736 0
	lis 3,.LC26@ha
.LVL1231:
	mr 4,29
.LVL1232:
	la 3,.LC26@l(3)
	crxor 6,6,6
	bl _Z10Sys_PrintfPKcz
.LVL1233:
	.loc 4 737 0
	mr 3,29
	bl _Z11Mem_Alloc16i
.LVL1234:
	.loc 4 738 0
	mr. 31,3
	beq- 0,.L1373
.LVL1235:
.L1360:
	.loc 4 741 0
	lbz 0,29(30)
	cmpwi 7,0,0
	bne- 7,.L1374
.L1361:
.LVL1236:
	.loc 4 749 0
	li 0,0
.LBB5522:
.LBB5523:
	.loc 4 388 0
	stw 28,0(31)
.LBE5523:
.LBE5522:
	.loc 4 749 0
	stw 0,8(31)
	.loc 4 750 0
	lwz 0,4(30)
	stw 0,4(31)
	.loc 4 751 0
	lwz 9,4(30)
	cmpwi 7,9,0
	beq- 7,.L1362
	.loc 4 752 0
	stw 31,8(9)
.L1363:
	.loc 4 757 0
	li 0,0
	.loc 4 756 0
	stw 31,4(30)
	.loc 4 757 0
	stw 0,12(31)
.LBE5516:
.LBE5515:
.LBE5534:
	.loc 4 764 0
	mr 3,31
.LBB5535:
.LBB5527:
.LBB5525:
	.loc 4 759 0
	lwz 11,32(30)
	.loc 4 760 0
	lwz 9,36(30)
	.loc 4 759 0
	addi 0,11,1
	.loc 4 760 0
	add 29,9,29
	.loc 4 759 0
	stw 0,32(30)
	.loc 4 760 0
	stw 29,36(30)
.LBE5525:
.LBE5527:
.LBE5535:
	.loc 4 764 0
	lwz 0,28(1)
	lwz 28,8(1)
	mtlr 0
	lwz 29,12(1)
	lwz 30,16(1)
.LVL1237:
	lwz 31,20(1)
.LVL1238:
	addi 1,1,24
	.cfi_remember_state
	.cfi_restore 28
	.cfi_restore 29
	.cfi_restore 30
	.cfi_restore 31
.LCFI114:
	.cfi_def_cfa_offset 0
	blr
.LVL1239:
.L1371:
.LCFI115:
	.cfi_restore_state
.LBB5536:
.LBB5528:
.LBB5514:
	.loc 5 297 0
	lwz 0,0(9)
	cmpw 7,4,0
	bgt- 7,.L1352
.LVL1240:
.LBE5514:
.LBE5528:
.LBB5529:
.LBB5530:
	.loc 4 880 0
	lwz 4,12(31)
.LVL1241:
	addi 3,30,8
.LVL1242:
	bl _ZN7idBTreeI14idDynamicBlockI9silEdge_tEiLi4EE6RemoveEP11idBTreeNodeIS2_iE
.LVL1243:
	.loc 4 881 0
	li 0,0
	stw 0,12(31)
	.loc 4 882 0
	lwz 11,48(30)
	.loc 4 883 0
	lwz 9,52(30)
	.loc 4 882 0
	addi 0,11,-1
	stw 0,48(30)
.LBB5531:
.LBB5532:
	.loc 4 387 0
	lwz 0,0(31)
	srawi 11,0,31
	xor 0,11,0
	subf 0,11,0
.LBE5532:
.LBE5531:
	.loc 4 883 0
	subf 0,0,9
	stw 0,52(30)
.LVL1244:
.L1356:
.LBE5530:
.LBE5529:
.LBE5536:
	.loc 4 764 0
	lwz 0,28(1)
	mr 3,31
	lwz 28,8(1)
	mtlr 0
	lwz 29,12(1)
	lwz 30,16(1)
.LVL1245:
	lwz 31,20(1)
.LVL1246:
	addi 1,1,24
	.cfi_remember_state
.LCFI116:
	.cfi_def_cfa_offset 0
	.cfi_restore 31
	.cfi_restore 30
	.cfi_restore 29
	.cfi_restore 28
	blr
.LVL1247:
.L1372:
.LCFI117:
	.cfi_restore_state
.LBB5537:
.LBB5533:
.LBB5526:
.LBB5524:
.LBB5520:
	.loc 9 158 0
	lis 28,0xfffe
	lis 29,0x2
.LVL1248:
	ori 28,28,16
	b .L1359
.LVL1249:
.L1374:
.LBE5520:
.LBE5524:
	.loc 4 742 0
	lis 9,_ZN5idLib3sysE@ha
	mr 4,31
	lwz 3,_ZN5idLib3sysE@l(9)
	lis 5,0x2
	lwz 9,0(3)
	lwz 0,44(9)
	mtctr 0
	bctrl
	b .L1361
.LVL1250:
.L1362:
	.loc 4 754 0
	stw 31,0(30)
	b .L1363
.LVL1251:
.L1373:
	.loc 4 739 0
	lis 3,.LC27@ha
	mr 4,29
	la 3,.LC27@l(3)
	crxor 6,6,6
	bl _Z9Sys_ErrorPKcz
	b .L1360
.LBE5526:
.LBE5533:
.LBE5537:
	.cfi_endproc
.LFE3047:
	.size	_ZN19idDynamicBlockAllocI9silEdge_tLi131072ELi1024EE13AllocInternalEi, .-_ZN19idDynamicBlockAllocI9silEdge_tLi131072ELi1024EE13AllocInternalEi
	.section	.text._ZN7idBTreeI14idDynamicBlockI13dominantTri_sEiLi4EE6RemoveEP11idBTreeNodeIS2_iE,"axG",@progbits,_ZN7idBTreeI14idDynamicBlockI13dominantTri_sEiLi4EE6RemoveEP11idBTreeNodeIS2_iE,comdat
	.align 2
	.weak	_ZN7idBTreeI14idDynamicBlockI13dominantTri_sEiLi4EE6RemoveEP11idBTreeNodeIS2_iE
	.type	_ZN7idBTreeI14idDynamicBlockI13dominantTri_sEiLi4EE6RemoveEP11idBTreeNodeIS2_iE, @function
_ZN7idBTreeI14idDynamicBlockI13dominantTri_sEiLi4EE6RemoveEP11idBTreeNodeIS2_iE:
.LFB3122:
	.loc 5 203 0
	.cfi_startproc
.LVL1252:
.LBB5567:
	.loc 5 209 0
	lwz 9,16(4)
.LBE5567:
	.loc 5 203 0
	mflr 0
	stwu 1,-24(1)
.LCFI118:
	.cfi_def_cfa_offset 24
	.cfi_register 65, 0
.LBB5617:
	.loc 5 209 0
	cmpwi 7,9,0
.LBE5617:
	.loc 5 203 0
	stw 28,8(1)
	mr 28,4
	.cfi_offset 28, -16
	stw 29,12(1)
	mr 29,3
	.cfi_offset 29, -12
	stw 0,28(1)
	stw 30,16(1)
	stw 31,20(1)
.LBB5618:
	.loc 5 209 0
	beq- 7,.L1376
	.cfi_offset 31, -4
	.cfi_offset 30, -8
	.cfi_offset 65, 4
	.loc 5 210 0
	lwz 0,12(4)
	stw 0,12(9)
	.loc 5 214 0
	lwz 9,12(28)
	cmpwi 7,9,0
	beq- 7,.L1378
.L1429:
	.loc 5 215 0
	lwz 0,16(28)
	stw 0,16(9)
.L1379:
	.loc 5 219 0
	lwz 9,8(28)
	lwz 11,20(9)
	addi 0,11,-1
	stw 0,20(9)
	.loc 5 222 0
	lwz 30,8(28)
.LVL1253:
	lwz 0,0(29)
	cmpw 7,30,0
	beq- 7,.L1422
.LVL1254:
.L1419:
	.loc 5 222 0 is_stmt 0 discriminator 2
	lwz 0,20(30)
	cmpwi 7,0,1
	ble- 7,.L1423
.L1422:
	.loc 5 240 0 is_stmt 1
	cmpwi 7,30,0
	beq- 7,.L1397
.L1424:
	.loc 5 240 0 is_stmt 0 discriminator 2
	lwz 9,28(30)
	cmpwi 7,9,0
	beq- 7,.L1397
	.loc 5 242 0 is_stmt 1 discriminator 5
	lwz 0,0(9)
	lwz 9,0(30)
	cmpw 7,9,0
	ble- 7,.L1403
	.loc 5 243 0
	stw 0,0(30)
.L1403:
	.loc 5 240 0
	lwz 30,8(30)
.LVL1255:
	cmpwi 7,30,0
	bne+ 7,.L1424
.L1397:
.LVL1256:
.LBB5568:
.LBB5569:
.LBB5570:
	.loc 4 228 0
	addi 3,28,-4
	bl _ZdlPv
	.loc 4 230 0
	lwz 9,16(29)
.LBE5570:
.LBE5569:
.LBE5568:
.LBB5573:
	.loc 5 251 0
	lwz 3,0(29)
.LBE5573:
.LBB5581:
.LBB5572:
.LBB5571:
	.loc 4 230 0
	addi 0,9,-1
	stw 0,16(29)
.LBE5571:
.LBE5572:
.LBE5581:
.LBB5582:
	.loc 5 251 0
	lwz 0,20(3)
	cmpwi 7,0,1
	beq- 7,.L1405
.LVL1257:
.L1375:
.LBE5582:
.LBE5618:
	.loc 5 261 0
	lwz 0,28(1)
	lwz 28,8(1)
.LVL1258:
	mtlr 0
	lwz 29,12(1)
.LVL1259:
	lwz 30,16(1)
.LVL1260:
	lwz 31,20(1)
	addi 1,1,24
	.cfi_remember_state
.LCFI119:
	.cfi_def_cfa_offset 0
	.cfi_restore 31
	.cfi_restore 30
	.cfi_restore 29
	.cfi_restore 28
	blr
.LVL1261:
.L1423:
.LCFI120:
	.cfi_restore_state
.LBB5619:
	.loc 5 224 0 discriminator 5
	lwz 31,12(30)
	cmpwi 7,31,0
	beq- 7,.L1425
.LVL1262:
.LBB5583:
.LBB5584:
	.loc 5 445 0
	lwz 11,24(30)
.LVL1263:
	lwz 9,12(11)
	cmpwi 7,9,0
	bne+ 7,.L1414
	b .L1430
.LVL1264:
.L1407:
	mr 9,0
.LVL1265:
.L1414:
	.loc 5 446 0
	stw 31,8(11)
.LVL1266:
	.loc 5 445 0
	mr 11,9
	lwz 0,12(9)
	cmpwi 7,0,0
	bne+ 7,.L1407
.L1382:
	.loc 5 448 0
	stw 31,8(9)
	.loc 5 449 0
	lwz 0,24(31)
	stw 0,12(9)
	.loc 5 450 0
	lwz 11,24(31)
	stw 9,16(11)
	.loc 5 451 0
	lwz 0,24(30)
	.loc 5 452 0
	lwz 9,20(31)
.LVL1267:
	.loc 5 451 0
	stw 0,24(31)
	.loc 5 452 0
	lwz 0,20(30)
	add 0,9,0
	stw 0,20(31)
	.loc 5 455 0
	lwz 9,16(30)
	cmpwi 7,9,0
	beq- 7,.L1384
	.loc 5 456 0
	stw 31,12(9)
.L1385:
	.loc 5 460 0
	lwz 0,16(30)
.LBB5585:
.LBB5586:
.LBB5587:
	.loc 4 228 0
	addi 3,30,-4
.LBE5587:
.LBE5586:
.LBE5585:
	.loc 5 461 0
	lwz 9,8(31)
	.loc 5 460 0
	stw 0,16(31)
	.loc 5 461 0
	lwz 11,20(9)
	addi 0,11,-1
	stw 0,20(9)
.LVL1268:
.LBB5590:
.LBB5589:
.LBB5588:
	.loc 4 228 0
	bl _ZdlPv
.LVL1269:
	.loc 4 230 0
	lwz 9,16(29)
	addi 0,9,-1
	stw 0,16(29)
.LVL1270:
.L1386:
.LBE5588:
.LBE5589:
.LBE5590:
.LBE5584:
.LBE5583:
	.loc 5 231 0
	lwz 11,28(31)
	lwz 9,0(31)
	lwz 0,0(11)
	cmpw 7,9,0
	ble- 7,.L1391
	.loc 5 232 0
	stw 0,0(31)
.L1391:
	.loc 5 235 0
	lwz 0,20(31)
	cmpwi 7,0,4
	bgt- 7,.L1427
	.loc 5 222 0
	lwz 30,8(31)
.LVL1271:
	lwz 0,0(29)
	cmpw 7,0,30
	bne+ 7,.L1419
	b .L1422
.LVL1272:
.L1425:
	.loc 5 226 0
	lwz 3,16(30)
	mr 31,30
	cmpwi 7,3,0
	beq- 7,.L1386
.LVL1273:
.LBB5592:
.LBB5593:
	.loc 5 445 0
	lwz 11,24(3)
.LVL1274:
	lwz 9,12(11)
	cmpwi 7,9,0
	bne+ 7,.L1415
	b .L1431
.LVL1275:
.L1410:
	mr 9,0
.LVL1276:
.L1415:
	.loc 5 446 0
	stw 30,8(11)
.LVL1277:
	.loc 5 445 0
	mr 11,9
	lwz 0,12(9)
	cmpwi 7,0,0
	bne+ 7,.L1410
.L1387:
	.loc 5 448 0
	stw 30,8(9)
	.loc 5 449 0
	lwz 0,24(30)
	stw 0,12(9)
	.loc 5 450 0
	lwz 11,24(30)
	stw 9,16(11)
	.loc 5 451 0
	lwz 0,24(3)
	.loc 5 452 0
	lwz 9,20(30)
.LVL1278:
	.loc 5 451 0
	stw 0,24(30)
	.loc 5 452 0
	lwz 0,20(3)
	add 0,9,0
	stw 0,20(30)
	.loc 5 455 0
	lwz 9,16(3)
	cmpwi 7,9,0
	beq- 7,.L1389
	.loc 5 456 0
	stw 30,12(9)
.L1390:
	.loc 5 460 0
	lwz 0,16(3)
.LBB5594:
.LBB5595:
.LBB5596:
	.loc 4 228 0
	addi 3,3,-4
.LBE5596:
.LBE5595:
.LBE5594:
	.loc 5 461 0
	lwz 9,8(30)
.LBB5601:
.LBB5599:
.LBB5597:
	.loc 4 230 0
	mr 31,30
.LBE5597:
.LBE5599:
.LBE5601:
	.loc 5 460 0
	stw 0,16(30)
	.loc 5 461 0
	lwz 11,20(9)
	addi 0,11,-1
	stw 0,20(9)
.LVL1279:
.LBB5602:
.LBB5600:
.LBB5598:
	.loc 4 228 0
	bl _ZdlPv
.LVL1280:
	.loc 4 230 0
	lwz 9,16(29)
	addi 0,9,-1
	stw 0,16(29)
.LVL1281:
	b .L1386
.LVL1282:
.L1384:
.LBE5598:
.LBE5600:
.LBE5602:
.LBE5593:
.LBE5592:
.LBB5605:
.LBB5591:
	.loc 5 458 0
	lwz 9,8(30)
	stw 31,24(9)
	b .L1385
.LVL1283:
.L1430:
	.loc 5 445 0
	mr 9,11
	b .L1382
.LVL1284:
.L1389:
.LBE5591:
.LBE5605:
.LBB5606:
.LBB5603:
	.loc 5 458 0
	lwz 9,8(3)
	stw 30,24(9)
	b .L1390
.LVL1285:
.L1427:
.LBE5603:
.LBE5606:
.LBB5607:
.LBB5608:
.LBB5609:
.LBB5610:
.LBB5611:
.LBB5612:
	.loc 4 215 0
	lwz 9,16(29)
	.loc 4 216 0
	li 3,36
	.loc 4 215 0
	addi 0,9,1
	stw 0,16(29)
	.loc 4 216 0
	bl _Znwj
.LVL1286:
.LBE5612:
.LBE5611:
	.loc 5 377 0
	li 0,0
	.loc 5 378 0
	stw 0,12(3)
	.loc 5 399 0
	addi 10,3,4
	.loc 5 377 0
	stw 0,4(3)
	.loc 5 379 0
	stw 0,16(3)
	.loc 5 380 0
	stw 0,20(3)
	.loc 5 381 0
	stw 0,24(3)
	.loc 5 382 0
	stw 0,28(3)
	.loc 5 383 0
	stw 0,32(3)
	.loc 5 384 0
	stw 0,8(3)
.LBE5610:
.LBE5609:
	.loc 5 400 0
	lwz 0,8(31)
	stw 0,12(3)
	.loc 5 403 0
	lwz 9,24(31)
.LVL1287:
	.loc 5 404 0
	stw 10,8(9)
.LVL1288:
	.loc 5 405 0
	lwz 0,20(31)
	cmpwi 7,0,3
	ble- 7,.L1393
	li 11,3
.LVL1289:
.L1394:
	.loc 5 406 0
	lwz 9,12(9)
.LVL1290:
	.loc 5 405 0
	addi 11,11,2
.LVL1291:
	.loc 5 407 0
	stw 10,8(9)
	.loc 5 405 0
	lwz 0,20(31)
	cmpw 7,11,0
	blt+ 7,.L1394
.LVL1292:
.L1393:
	.loc 5 410 0
	lwz 11,0(9)
	.loc 5 418 0
	li 0,0
	.loc 5 410 0
	stw 11,4(3)
	.loc 5 411 0
	lwz 11,20(31)
	srawi 11,11,1
	addze 11,11
	stw 11,24(3)
	.loc 5 412 0
	lwz 8,24(31)
	.loc 5 413 0
	stw 9,32(3)
	.loc 5 412 0
	stw 8,28(3)
	.loc 5 415 0
	lwz 8,20(31)
	subf 11,11,8
	stw 11,20(31)
	.loc 5 416 0
	lwz 11,12(9)
	stw 11,24(31)
	.loc 5 418 0
	lwz 11,12(9)
	stw 0,16(11)
	.loc 5 419 0
	stw 0,12(9)
	.loc 5 424 0
	lwz 9,16(31)
.LVL1293:
	cmpwi 7,9,0
	beq- 7,.L1395
	.loc 5 425 0
	stw 10,12(9)
.L1396:
	.loc 5 429 0
	lwz 0,16(31)
	.loc 5 433 0
	mr 30,31
	.loc 5 430 0
	stw 31,16(3)
	.loc 5 429 0
	stw 0,20(3)
	.loc 5 431 0
	stw 10,16(31)
	.loc 5 433 0
	lwz 9,8(31)
	lwz 11,20(9)
	addi 0,11,1
	stw 0,20(9)
	b .L1422
.LVL1294:
.L1405:
.LBE5608:
.LBE5607:
.LBB5614:
	.loc 5 251 0 discriminator 1
	lwz 9,24(3)
	lwz 0,4(9)
	cmpwi 7,0,0
	bne+ 7,.L1375
.LVL1295:
.LBB5574:
	.loc 5 253 0
	stw 0,8(9)
.LBB5575:
.LBB5576:
.LBB5577:
	.loc 4 228 0
	addi 3,3,-4
.LVL1296:
.LBE5577:
.LBE5576:
.LBE5575:
	.loc 5 254 0
	lwz 9,0(29)
	lwz 0,24(9)
	stw 0,0(29)
.LVL1297:
.LBB5580:
.LBB5579:
.LBB5578:
	.loc 4 228 0
	bl _ZdlPv
.LVL1298:
	.loc 4 230 0
	lwz 0,16(29)
	addic 0,0,-1
	stw 0,16(29)
	b .L1375
.LVL1299:
.L1431:
.LBE5578:
.LBE5579:
.LBE5580:
.LBE5574:
.LBE5614:
.LBB5615:
.LBB5604:
	.loc 5 445 0
	mr 9,11
	b .L1387
.LVL1300:
.L1376:
.LBE5604:
.LBE5615:
	.loc 5 212 0
	lwz 9,8(4)
	lwz 0,12(4)
	stw 0,24(9)
	.loc 5 214 0
	lwz 9,12(28)
	cmpwi 7,9,0
	bne+ 7,.L1429
.L1378:
	.loc 5 217 0
	lwz 9,8(28)
	lwz 0,16(28)
	stw 0,28(9)
	b .L1379
.LVL1301:
.L1395:
.LBB5616:
.LBB5613:
	.loc 5 427 0
	lwz 9,8(31)
	stw 10,24(9)
	b .L1396
.LBE5613:
.LBE5616:
.LBE5619:
	.cfi_endproc
.LFE3122:
	.size	_ZN7idBTreeI14idDynamicBlockI13dominantTri_sEiLi4EE6RemoveEP11idBTreeNodeIS2_iE, .-_ZN7idBTreeI14idDynamicBlockI13dominantTri_sEiLi4EE6RemoveEP11idBTreeNodeIS2_iE
	.section	.text._ZN19idDynamicBlockAllocI13dominantTri_sLi65536ELi1024EE13AllocInternalEi,"axG",@progbits,_ZN19idDynamicBlockAllocI13dominantTri_sLi65536ELi1024EE13AllocInternalEi,comdat
	.align 2
	.weak	_ZN19idDynamicBlockAllocI13dominantTri_sLi65536ELi1024EE13AllocInternalEi
	.type	_ZN19idDynamicBlockAllocI13dominantTri_sLi65536ELi1024EE13AllocInternalEi, @function
_ZN19idDynamicBlockAllocI13dominantTri_sLi65536ELi1024EE13AllocInternalEi:
.LFB3050:
	.loc 4 727 0
	.cfi_startproc
.LVL1302:
	mflr 0
	stwu 1,-24(1)
.LCFI121:
	.cfi_def_cfa_offset 24
	.cfi_register 65, 0
.LBB5634:
	.loc 4 729 0
	mulli 4,4,20
.LVL1303:
.LBE5634:
	.loc 4 727 0
	stw 28,8(1)
	stw 30,16(1)
.LBB5657:
	.loc 4 729 0
	addi 28,4,15
	.cfi_offset 30, -8
	.cfi_offset 28, -16
.LBE5657:
	.loc 4 727 0
	stw 0,28(1)
	mr 30,3
	stw 29,12(1)
.LBB5658:
	.loc 4 729 0
	rlwinm 28,28,0,0,27
.LVL1304:
.LBE5658:
	.loc 4 727 0
	stw 31,20(1)
.LBB5659:
.LBB5635:
.LBB5636:
	.loc 5 289 0
	lwz 9,8(3)
	lwz 9,24(9)
.LVL1305:
	cmpwi 7,9,0
	bne+ 7,.L1452
	.cfi_offset 31, -4
	.cfi_offset 29, -12
	.cfi_offset 65, 4
.LVL1306:
	b .L1434
.LVL1307:
.L1436:
	.loc 5 291 0
	lwz 11,0(9)
	cmpw 7,28,11
	ble- 7,.L1435
	mr 9,0
.LVL1308:
.L1452:
	.loc 5 290 0
	lwz 0,12(9)
	cmpwi 7,0,0
	bne+ 7,.L1436
.L1435:
	.loc 5 296 0
	lwz 31,4(9)
	cmpwi 7,31,0
	bne- 7,.L1453
	.loc 5 289 0
	lwz 9,24(9)
.LVL1309:
	cmpwi 7,9,0
	bne+ 7,.L1452
.L1434:
.LBE5636:
.LBE5635:
.LBB5638:
	.loc 4 734 0
	lbz 0,28(30)
	li 31,0
	cmpwi 7,0,0
	beq- 7,.L1438
.LBB5639:
.LBB5640:
.LBB5641:
	.loc 9 158 0
	li 0,0
.LBE5641:
.LBE5640:
	.loc 4 735 0
	addi 29,28,16
.LVL1310:
.LBB5644:
.LBB5642:
	.loc 9 158 0
	ori 0,0,65535
	neg 28,28
.LVL1311:
	cmpw 7,29,0
	ble- 7,.L1454
.LVL1312:
.L1441:
.LBE5642:
.LBE5644:
	.loc 4 736 0
	lis 3,.LC26@ha
.LVL1313:
	mr 4,29
	la 3,.LC26@l(3)
	crxor 6,6,6
	bl _Z10Sys_PrintfPKcz
.LVL1314:
	.loc 4 737 0
	mr 3,29
	bl _Z11Mem_Alloc16i
.LVL1315:
	.loc 4 738 0
	mr. 31,3
	beq- 0,.L1455
.LVL1316:
.L1442:
	.loc 4 741 0
	lbz 0,29(30)
	cmpwi 7,0,0
	bne- 7,.L1456
.L1443:
.LVL1317:
	.loc 4 749 0
	li 0,0
.LBB5645:
.LBB5646:
	.loc 4 388 0
	stw 28,0(31)
.LBE5646:
.LBE5645:
	.loc 4 749 0
	stw 0,8(31)
	.loc 4 750 0
	lwz 0,4(30)
	stw 0,4(31)
	.loc 4 751 0
	lwz 9,4(30)
	cmpwi 7,9,0
	beq- 7,.L1444
	.loc 4 752 0
	stw 31,8(9)
.L1445:
	.loc 4 757 0
	li 0,0
	.loc 4 756 0
	stw 31,4(30)
	.loc 4 757 0
	stw 0,12(31)
.LBE5639:
.LBE5638:
.LBE5659:
	.loc 4 764 0
	mr 3,31
.LBB5660:
.LBB5650:
.LBB5648:
	.loc 4 759 0
	lwz 11,32(30)
	.loc 4 760 0
	lwz 9,36(30)
	.loc 4 759 0
	addi 0,11,1
	.loc 4 760 0
	add 29,9,29
	.loc 4 759 0
	stw 0,32(30)
	.loc 4 760 0
	stw 29,36(30)
.LBE5648:
.LBE5650:
.LBE5660:
	.loc 4 764 0
	lwz 0,28(1)
	lwz 28,8(1)
	mtlr 0
	lwz 29,12(1)
	lwz 30,16(1)
.LVL1318:
	lwz 31,20(1)
.LVL1319:
	addi 1,1,24
	.cfi_remember_state
	.cfi_restore 28
	.cfi_restore 29
	.cfi_restore 30
	.cfi_restore 31
.LCFI122:
	.cfi_def_cfa_offset 0
	blr
.LVL1320:
.L1453:
.LCFI123:
	.cfi_restore_state
.LBB5661:
.LBB5651:
.LBB5637:
	.loc 5 297 0
	lwz 0,0(9)
	cmpw 7,28,0
	bgt- 7,.L1434
.LVL1321:
.LBE5637:
.LBE5651:
.LBB5652:
.LBB5653:
	.loc 4 880 0
	lwz 4,12(31)
	addi 3,30,8
.LVL1322:
	bl _ZN7idBTreeI14idDynamicBlockI13dominantTri_sEiLi4EE6RemoveEP11idBTreeNodeIS2_iE
.LVL1323:
	.loc 4 881 0
	li 0,0
	stw 0,12(31)
	.loc 4 882 0
	lwz 11,48(30)
	.loc 4 883 0
	lwz 9,52(30)
	.loc 4 882 0
	addi 0,11,-1
	stw 0,48(30)
.LBB5654:
.LBB5655:
	.loc 4 387 0
	lwz 0,0(31)
	srawi 11,0,31
	xor 0,11,0
	subf 0,11,0
.LBE5655:
.LBE5654:
	.loc 4 883 0
	subf 0,0,9
	stw 0,52(30)
.LVL1324:
.L1438:
.LBE5653:
.LBE5652:
.LBE5661:
	.loc 4 764 0
	lwz 0,28(1)
	mr 3,31
	lwz 28,8(1)
.LVL1325:
	mtlr 0
	lwz 29,12(1)
	lwz 30,16(1)
.LVL1326:
	lwz 31,20(1)
.LVL1327:
	addi 1,1,24
	.cfi_remember_state
.LCFI124:
	.cfi_def_cfa_offset 0
	.cfi_restore 31
	.cfi_restore 30
	.cfi_restore 29
	.cfi_restore 28
	blr
.LVL1328:
.L1454:
.LCFI125:
	.cfi_restore_state
.LBB5662:
.LBB5656:
.LBB5649:
.LBB5647:
.LBB5643:
	.loc 9 158 0
	lis 28,0xffff
	lis 29,0x1
.LVL1329:
	ori 28,28,16
	b .L1441
.LVL1330:
.L1456:
.LBE5643:
.LBE5647:
	.loc 4 742 0
	lis 9,_ZN5idLib3sysE@ha
	mr 4,31
	lwz 3,_ZN5idLib3sysE@l(9)
	lis 5,0x1
	lwz 9,0(3)
	lwz 0,44(9)
	mtctr 0
	bctrl
	b .L1443
.LVL1331:
.L1444:
	.loc 4 754 0
	stw 31,0(30)
	b .L1445
.LVL1332:
.L1455:
	.loc 4 739 0
	lis 3,.LC27@ha
	mr 4,29
	la 3,.LC27@l(3)
	crxor 6,6,6
	bl _Z9Sys_ErrorPKcz
	b .L1442
.LBE5649:
.LBE5656:
.LBE5662:
	.cfi_endproc
.LFE3050:
	.size	_ZN19idDynamicBlockAllocI13dominantTri_sLi65536ELi1024EE13AllocInternalEi, .-_ZN19idDynamicBlockAllocI13dominantTri_sLi65536ELi1024EE13AllocInternalEi
	.section	.text._ZN7idBTreeI14idDynamicBlockI10idDrawVertEiLi4EE3AddEPS2_i,"axG",@progbits,_ZN7idBTreeI14idDynamicBlockI10idDrawVertEiLi4EE3AddEPS2_i,comdat
	.align 2
	.weak	_ZN7idBTreeI14idDynamicBlockI10idDrawVertEiLi4EE3AddEPS2_i
	.type	_ZN7idBTreeI14idDynamicBlockI10idDrawVertEiLi4EE3AddEPS2_i, @function
_ZN7idBTreeI14idDynamicBlockI10idDrawVertEiLi4EE3AddEPS2_i:
.LFB3136:
	.loc 5 114 0
	.cfi_startproc
.LVL1333:
	mflr 0
	stwu 1,-40(1)
.LCFI126:
	.cfi_def_cfa_offset 40
	.cfi_register 65, 0
	stw 29,28(1)
	mr 29,5
	.cfi_offset 29, -12
	stw 30,32(1)
	mr 30,4
	.cfi_offset 30, -8
	stw 31,36(1)
	mr 31,3
	.cfi_offset 31, -4
	stw 0,44(1)
	stw 25,12(1)
	stw 26,16(1)
	stw 27,20(1)
	stw 28,24(1)
.LBB5690:
	.loc 5 117 0
	lwz 9,0(3)
	lwz 0,20(9)
	.cfi_offset 28, -16
	.cfi_offset 27, -20
	.cfi_offset 26, -24
	.cfi_offset 25, -28
	.cfi_offset 65, 4
	cmpwi 7,0,3
	bgt- 7,.L1490
.LVL1334:
.L1458:
.LBB5691:
.LBB5692:
.LBB5693:
.LBB5694:
	.loc 4 215 0
	lwz 9,16(31)
	.loc 4 216 0
	li 3,36
.LBE5694:
.LBE5693:
.LBE5692:
.LBE5691:
.LBB5700:
.LBB5701:
	.loc 5 418 0
	li 26,0
.LBE5701:
.LBE5700:
.LBB5708:
.LBB5699:
.LBB5697:
.LBB5695:
	.loc 4 215 0
	addi 0,9,1
	stw 0,16(31)
	.loc 4 216 0
	bl _Znwj
.LBE5695:
.LBE5697:
	.loc 5 378 0
	li 0,0
	stw 0,12(3)
.LBB5698:
.LBB5696:
	.loc 4 216 0
	mr 27,3
.LVL1335:
.LBE5696:
.LBE5698:
	.loc 5 379 0
	stw 0,16(3)
	.loc 5 128 0
	addi 25,3,4
	.loc 5 380 0
	stw 0,20(3)
	.loc 5 381 0
	stw 0,24(3)
	.loc 5 382 0
	stw 0,28(3)
	.loc 5 383 0
	stw 0,32(3)
.LBE5699:
.LBE5708:
	.loc 5 129 0
	stw 29,4(3)
	.loc 5 130 0
	stw 30,8(3)
	.loc 5 132 0
	lwz 11,0(31)
.LVL1336:
.L1489:
	.loc 5 132 0 is_stmt 0 discriminator 1
	lwz 30,24(11)
	cmpwi 7,30,0
	beq- 7,.L1491
.L1481:
	.loc 5 134 0 is_stmt 1
	lwz 0,0(11)
	cmpw 7,29,0
	ble- 7,.L1487
	.loc 5 135 0
	stw 29,0(11)
.LVL1337:
	.loc 5 139 0
	b .L1487
.L1467:
	.loc 5 140 0
	lwz 0,0(30)
	cmpw 6,29,0
	ble- 6,.L1466
	mr 30,9
.LVL1338:
.L1487:
	.loc 5 139 0 discriminator 1
	lwz 9,12(30)
	cmpwi 7,9,0
	bne+ 7,.L1467
.L1466:
	.loc 5 145 0
	lwz 28,4(30)
	cmpwi 6,28,0
	bne- 6,.L1492
	.loc 5 180 0
	lwz 0,20(30)
	mr 11,30
.LVL1339:
	cmpwi 7,0,3
	ble+ 7,.L1489
.LVL1340:
.LBB5709:
.LBB5706:
.LBB5702:
.LBB5703:
.LBB5704:
.LBB5705:
	.loc 4 215 0
	lwz 9,16(31)
	.loc 4 216 0
	li 3,36
	.loc 4 215 0
	addi 0,9,1
	stw 0,16(31)
	.loc 4 216 0
	bl _Znwj
.LVL1341:
.LBE5705:
.LBE5704:
	.loc 5 378 0
	stw 28,12(3)
	.loc 5 399 0
	addi 10,3,4
	.loc 5 377 0
	stw 28,4(3)
	.loc 5 379 0
	stw 28,16(3)
	.loc 5 380 0
	stw 28,20(3)
	.loc 5 381 0
	stw 28,24(3)
	.loc 5 382 0
	stw 28,28(3)
	.loc 5 383 0
	stw 28,32(3)
	.loc 5 384 0
	stw 28,8(3)
.LBE5703:
.LBE5702:
	.loc 5 400 0
	lwz 0,8(30)
	stw 0,12(3)
	.loc 5 403 0
	lwz 9,24(30)
.LVL1342:
	.loc 5 404 0
	stw 10,8(9)
.LVL1343:
	.loc 5 405 0
	lwz 0,20(30)
	cmpwi 7,0,3
	ble- 7,.L1477
	li 11,3
.LVL1344:
.L1478:
	.loc 5 406 0
	lwz 9,12(9)
.LVL1345:
	.loc 5 405 0
	addi 11,11,2
.LVL1346:
	.loc 5 407 0
	stw 10,8(9)
	.loc 5 405 0
	lwz 0,20(30)
	cmpw 7,11,0
	blt+ 7,.L1478
.LVL1347:
.L1477:
	.loc 5 410 0
	lwz 0,0(9)
	stw 0,4(3)
	.loc 5 411 0
	lwz 0,20(30)
	srawi 0,0,1
	addze 0,0
	stw 0,24(3)
	.loc 5 412 0
	lwz 11,24(30)
	.loc 5 413 0
	stw 9,32(3)
	.loc 5 412 0
	stw 11,28(3)
	.loc 5 415 0
	lwz 11,20(30)
	subf 0,0,11
	stw 0,20(30)
	.loc 5 416 0
	lwz 0,12(9)
	stw 0,24(30)
	.loc 5 418 0
	lwz 11,12(9)
	stw 26,16(11)
	.loc 5 419 0
	stw 26,12(9)
	.loc 5 424 0
	lwz 9,16(30)
.LVL1348:
	cmpwi 7,9,0
	beq- 7,.L1479
	.loc 5 425 0
	stw 10,12(9)
.L1480:
	.loc 5 429 0
	lwz 0,16(30)
	.loc 5 430 0
	stw 30,16(3)
	.loc 5 429 0
	stw 0,20(3)
	.loc 5 431 0
	stw 10,16(30)
	.loc 5 433 0
	lwz 9,8(30)
	lwz 11,20(9)
	addi 0,11,1
	stw 0,20(9)
.LBE5706:
.LBE5709:
	.loc 5 182 0
	lwz 11,16(30)
	lwz 0,0(11)
	cmpw 7,29,0
	ble- 7,.L1489
	mr 11,30
.LVL1349:
	.loc 5 132 0
	lwz 30,24(11)
.LVL1350:
	cmpwi 7,30,0
	bne+ 7,.L1481
.LVL1351:
.L1491:
	.loc 5 189 0
	lwz 0,0(31)
.LBE5690:
	.loc 5 200 0
	mr 3,25
.LBB5739:
	.loc 5 189 0
	stw 0,12(27)
	.loc 5 190 0
	lwz 9,0(31)
	stw 29,0(9)
	.loc 5 191 0
	lwz 9,0(31)
	stw 25,24(9)
	.loc 5 192 0
	lwz 9,0(31)
	stw 25,28(9)
	.loc 5 193 0
	lwz 9,0(31)
	lwz 11,20(9)
.LVL1352:
	addi 0,11,1
	stw 0,20(9)
.LBE5739:
	.loc 5 200 0
	lwz 0,44(1)
	lwz 25,12(1)
	mtlr 0
	lwz 26,16(1)
	lwz 27,20(1)
.LVL1353:
	lwz 28,24(1)
	lwz 29,28(1)
.LVL1354:
	lwz 30,32(1)
	lwz 31,36(1)
.LVL1355:
	addi 1,1,40
	.cfi_remember_state
.LCFI127:
	.cfi_def_cfa_offset 0
	.cfi_restore 31
	.cfi_restore 30
	.cfi_restore 29
	.cfi_restore 28
	.cfi_restore 27
	.cfi_restore 26
	.cfi_restore 25
	blr
.LVL1356:
.L1479:
.LCFI128:
