	.file	"Game_local.cpp"
	.section	.debug_abbrev,"",@progbits
.Ldebug_abbrev0:
	.section	.debug_info,"",@progbits
.Ldebug_info0:
	.section	.debug_line,"",@progbits
.Ldebug_line0:
	.section	".text"
.Ltext0:
	.section	.ctors,"aw",@progbits
	.align 2
	.long	_GLOBAL__I_gameRenderWorld
	.section	.text._ZN14idFixedWinding5ClearEv,"axG",@progbits,_ZN14idFixedWinding5ClearEv,comdat
	.align 2
	.weak	_ZN14idFixedWinding5ClearEv
	.type	_ZN14idFixedWinding5ClearEv, @function
_ZN14idFixedWinding5ClearEv:
.LFB1504:
	.file 1 "d:/Data/Nintendo/DoomGX/src/game/../idlib/../idlib/geometry/Winding.h"
	.loc 1 398 0
.LVL0:
	.loc 1 399 0
	li 0,0
	stw 0,4(3)
	.loc 1 400 0
	blr
.LFE1504:
	.size	_ZN14idFixedWinding5ClearEv, .-_ZN14idFixedWinding5ClearEv
	.globl __gxx_personality_v0
	.section	".text"
	.align 2
	.globl _ZNK11idGameLocal10GetGravityEv
	.type	_ZNK11idGameLocal10GetGravityEv, @function
_ZNK11idGameLocal10GetGravityEv:
.LFB2869:
	.file 2 "d:/Data/Nintendo/DoomGX/src/game/Game_local.cpp"
	.loc 2 598 0
.LVL1:
	.loc 2 598 0
	addis 3,3,0x25
.LVL2:
	.loc 2 600 0
	addi 3,3,6480
	blr
.LFE2869:
	.size	_ZNK11idGameLocal10GetGravityEv, .-_ZNK11idGameLocal10GetGravityEv
	.section	.text._ZN12idBlockAllocI16entityNetEvent_sLi32EEC1Ev,"axG",@progbits,_ZN12idBlockAllocI16entityNetEvent_sLi32EEC1Ev,comdat
	.align 2
	.weak	_ZN12idBlockAllocI16entityNetEvent_sLi32EEC1Ev
	.type	_ZN12idBlockAllocI16entityNetEvent_sLi32EEC1Ev, @function
_ZN12idBlockAllocI16entityNetEvent_sLi32EEC1Ev:
.LFB3117:
	.file 3 "d:/Data/Nintendo/DoomGX/src/game/../idlib/../idlib/Heap.h"
	.loc 3 185 0
.LVL3:
.LBB186:
	.loc 3 186 0
	li 0,0
	.loc 3 188 0
	stw 0,8(3)
	.loc 3 186 0
	stw 0,0(3)
	.loc 3 187 0
	stw 0,4(3)
	.loc 3 188 0
	stw 0,12(3)
.LBE186:
	blr
.LFE3117:
	.size	_ZN12idBlockAllocI16entityNetEvent_sLi32EEC1Ev, .-_ZN12idBlockAllocI16entityNetEvent_sLi32EEC1Ev
	.section	.text._ZN10idLinkListI8idEntityEC1Ev,"axG",@progbits,_ZN10idLinkListI8idEntityEC1Ev,comdat
	.align 2
	.weak	_ZN10idLinkListI8idEntityEC1Ev
	.type	_ZN10idLinkListI8idEntityEC1Ev, @function
_ZN10idLinkListI8idEntityEC1Ev:
.LFB3149:
	.file 4 "d:/Data/Nintendo/DoomGX/src/game/../idlib/../idlib/containers/LinkList.h"
	.loc 4 85 0
.LVL4:
.LBB187:
	.loc 4 86 0
	li 0,0
	.loc 4 89 0
	stw 3,8(3)
	.loc 4 86 0
	stw 0,12(3)
	.loc 4 87 0
	stw 3,0(3)
	.loc 4 88 0
	stw 3,4(3)
.LBE187:
	.loc 4 89 0
	blr
.LFE3149:
	.size	_ZN10idLinkListI8idEntityEC1Ev, .-_ZN10idLinkListI8idEntityEC1Ev
	.section	.text._ZN12idBlockAllocI13entityState_sLi256EEC1Ev,"axG",@progbits,_ZN12idBlockAllocI13entityState_sLi256EEC1Ev,comdat
	.align 2
	.weak	_ZN12idBlockAllocI13entityState_sLi256EEC1Ev
	.type	_ZN12idBlockAllocI13entityState_sLi256EEC1Ev, @function
_ZN12idBlockAllocI13entityState_sLi256EEC1Ev:
.LFB3167:
	.loc 3 185 0
.LVL5:
.LBB188:
	.loc 3 186 0
	li 0,0
	.loc 3 188 0
	stw 0,8(3)
	.loc 3 186 0
	stw 0,0(3)
	.loc 3 187 0
	stw 0,4(3)
	.loc 3 188 0
	stw 0,12(3)
.LBE188:
	blr
.LFE3167:
	.size	_ZN12idBlockAllocI13entityState_sLi256EEC1Ev, .-_ZN12idBlockAllocI13entityState_sLi256EEC1Ev
	.section	.text._ZN12idBlockAllocI10snapshot_sLi64EEC1Ev,"axG",@progbits,_ZN12idBlockAllocI10snapshot_sLi64EEC1Ev,comdat
	.align 2
	.weak	_ZN12idBlockAllocI10snapshot_sLi64EEC1Ev
	.type	_ZN12idBlockAllocI10snapshot_sLi64EEC1Ev, @function
_ZN12idBlockAllocI10snapshot_sLi64EEC1Ev:
.LFB3173:
	.loc 3 185 0
.LVL6:
.LBB189:
	.loc 3 186 0
	li 0,0
	.loc 3 188 0
	stw 0,8(3)
	.loc 3 186 0
	stw 0,0(3)
	.loc 3 187 0
	stw 0,4(3)
	.loc 3 188 0
	stw 0,12(3)
.LBE189:
	blr
.LFE3173:
	.size	_ZN12idBlockAllocI10snapshot_sLi64EEC1Ev, .-_ZN12idBlockAllocI10snapshot_sLi64EEC1Ev
	.section	.text._ZN10idLinkListI8idEntityE6RemoveEv,"axG",@progbits,_ZN10idLinkListI8idEntityE6RemoveEv,comdat
	.align 2
	.weak	_ZN10idLinkListI8idEntityE6RemoveEv
	.type	_ZN10idLinkListI8idEntityE6RemoveEv, @function
_ZN10idLinkListI8idEntityE6RemoveEv:
.LFB3254:
	.loc 4 175 0
.LVL7:
	.loc 4 176 0
	lwz 11,8(3)
	lwz 0,4(3)
	.loc 4 181 0
	stw 3,0(3)
	.loc 4 176 0
	stw 0,4(11)
	.loc 4 177 0
	lwz 9,4(3)
	.loc 4 179 0
	stw 3,4(3)
	.loc 4 177 0
	stw 11,8(9)
	.loc 4 180 0
	stw 3,8(3)
	.loc 4 181 0
	blr
.LFE3254:
	.size	_ZN10idLinkListI8idEntityE6RemoveEv, .-_ZN10idLinkListI8idEntityE6RemoveEv
	.section	.text._ZN10idLinkListI8idEntityE5ClearEv,"axG",@progbits,_ZN10idLinkListI8idEntityE5ClearEv,comdat
	.align 2
	.weak	_ZN10idLinkListI8idEntityE5ClearEv
	.type	_ZN10idLinkListI8idEntityE5ClearEv, @function
_ZN10idLinkListI8idEntityE5ClearEv:
.LFB3239:
	.loc 4 157 0
.LVL8:
	mflr 0
.LCFI0:
	stwu 1,-16(1)
.LCFI1:
	stw 31,12(1)
.LCFI2:
	stw 0,20(1)
.LCFI3:
	.loc 4 158 0
	lwz 31,0(3)
	cmpw 7,31,3
	beq- 7,.L25
	.loc 4 163 0
	bl _ZN10idLinkListI8idEntityE6RemoveEv
.LVL9:
.L20:
	lwz 0,20(1)
	lwz 31,12(1)
	addi 1,1,16
	mtlr 0
	blr
.LVL10:
.L25:
	.loc 4 159 0
	lwz 3,4(31)
.LVL11:
	cmpw 7,31,3
	beq- 7,.L20
.L21:
	.loc 4 160 0
	bl _ZN10idLinkListI8idEntityE6RemoveEv
	.loc 4 159 0
	lwz 3,4(31)
	cmpw 7,31,3
	bne+ 7,.L21
	.loc 4 163 0
	lwz 0,20(1)
	lwz 31,12(1)
	addi 1,1,16
	mtlr 0
	blr
.LFE3239:
	.size	_ZN10idLinkListI8idEntityE5ClearEv, .-_ZN10idLinkListI8idEntityE5ClearEv
	.section	.text._ZN10idLinkListI8idEntityED1Ev,"axG",@progbits,_ZN10idLinkListI8idEntityED1Ev,comdat
	.align 2
	.weak	_ZN10idLinkListI8idEntityED1Ev
	.type	_ZN10idLinkListI8idEntityED1Ev, @function
_ZN10idLinkListI8idEntityED1Ev:
.LFB3152:
	.loc 4 101 0
.LVL12:
	mflr 0
.LCFI4:
	stwu 1,-8(1)
.LCFI5:
	stw 0,12(1)
.LCFI6:
	.loc 4 102 0
	bl _ZN10idLinkListI8idEntityE5ClearEv
.LVL13:
	lwz 0,12(1)
	addi 1,1,8
	mtlr 0
	blr
.LFE3152:
	.size	_ZN10idLinkListI8idEntityED1Ev, .-_ZN10idLinkListI8idEntityED1Ev
	.section	.text._ZN9idWinding5ClearEv,"axG",@progbits,_ZN9idWinding5ClearEv,comdat
	.align 2
	.weak	_ZN9idWinding5ClearEv
	.type	_ZN9idWinding5ClearEv, @function
_ZN9idWinding5ClearEv:
.LFB1475:
	.loc 1 249 0
.LVL14:
	mflr 0
.LCFI7:
	stwu 1,-16(1)
.LCFI8:
	stw 30,8(1)
.LCFI9:
	.loc 1 250 0
	li 30,0
	.loc 1 249 0
	stw 31,12(1)
.LCFI10:
	mr 31,3
	stw 0,20(1)
.LCFI11:
	.loc 1 250 0
	stw 30,4(31)
	.loc 1 251 0
	lwz 3,8(3)
.LVL15:
	cmpwi 7,3,0
	beq- 7,.L30
	bl _ZdaPv
.L30:
	.loc 1 252 0
	stw 30,8(31)
	.loc 1 253 0
	lwz 0,20(1)
	lwz 30,8(1)
	lwz 31,12(1)
.LVL16:
	mtlr 0
	addi 1,1,16
	blr
.LFE1475:
	.size	_ZN9idWinding5ClearEv, .-_ZN9idWinding5ClearEv
	.section	.text._ZN12idBlockAllocI10snapshot_sLi64EE8ShutdownEv,"axG",@progbits,_ZN12idBlockAllocI10snapshot_sLi64EE8ShutdownEv,comdat
	.align 2
	.weak	_ZN12idBlockAllocI10snapshot_sLi64EE8ShutdownEv
	.type	_ZN12idBlockAllocI10snapshot_sLi64EE8ShutdownEv, @function
_ZN12idBlockAllocI10snapshot_sLi64EE8ShutdownEv:
.LFB3251:
	.loc 3 224 0
.LVL17:
	mflr 0
.LCFI12:
	stwu 1,-16(1)
.LCFI13:
	stw 31,12(1)
.LCFI14:
	mr 31,3
	stw 0,20(1)
.LCFI15:
.LBB190:
	.loc 3 225 0
	lwz 3,0(3)
.LVL18:
	cmpwi 7,3,0
	beq- 7,.L34
.L37:
.LBB191:
	.loc 3 227 0
	addis 9,3,0x1
	lwz 0,-31744(9)
	stw 0,0(31)
	.loc 3 228 0
	bl _ZdlPv
.LBE191:
	.loc 3 225 0
	lwz 3,0(31)
	cmpwi 7,3,0
	bne+ 7,.L37
.L34:
	.loc 3 230 0
	li 0,0
	.loc 3 232 0
	stw 0,8(31)
	.loc 3 230 0
	stw 0,0(31)
	.loc 3 231 0
	stw 0,4(31)
	.loc 3 232 0
	stw 0,12(31)
.LBE190:
	lwz 0,20(1)
	lwz 31,12(1)
.LVL19:
	addi 1,1,16
	mtlr 0
	blr
.LFE3251:
	.size	_ZN12idBlockAllocI10snapshot_sLi64EE8ShutdownEv, .-_ZN12idBlockAllocI10snapshot_sLi64EE8ShutdownEv
	.section	.text._ZN12idBlockAllocI10snapshot_sLi64EED1Ev,"axG",@progbits,_ZN12idBlockAllocI10snapshot_sLi64EED1Ev,comdat
	.align 2
	.weak	_ZN12idBlockAllocI10snapshot_sLi64EED1Ev
	.type	_ZN12idBlockAllocI10snapshot_sLi64EED1Ev, @function
_ZN12idBlockAllocI10snapshot_sLi64EED1Ev:
.LFB3176:
	.loc 3 192 0
.LVL20:
	mflr 0
.LCFI16:
	stwu 1,-8(1)
.LCFI17:
	stw 0,12(1)
.LCFI18:
	.loc 3 193 0
	bl _ZN12idBlockAllocI10snapshot_sLi64EE8ShutdownEv
.LVL21:
	lwz 0,12(1)
	addi 1,1,8
	mtlr 0
	blr
.LFE3176:
	.size	_ZN12idBlockAllocI10snapshot_sLi64EED1Ev, .-_ZN12idBlockAllocI10snapshot_sLi64EED1Ev
	.section	.text._ZN12idBlockAllocI13entityState_sLi256EE8ShutdownEv,"axG",@progbits,_ZN12idBlockAllocI13entityState_sLi256EE8ShutdownEv,comdat
	.align 2
	.weak	_ZN12idBlockAllocI13entityState_sLi256EE8ShutdownEv
	.type	_ZN12idBlockAllocI13entityState_sLi256EE8ShutdownEv, @function
_ZN12idBlockAllocI13entityState_sLi256EE8ShutdownEv:
.LFB3241:
	.loc 3 224 0
.LVL22:
	mflr 0
.LCFI19:
	stwu 1,-16(1)
.LCFI20:
	stw 31,12(1)
.LCFI21:
	mr 31,3
	stw 0,20(1)
.LCFI22:
.LBB192:
	.loc 3 225 0
	lwz 3,0(3)
.LVL23:
	cmpwi 7,3,0
	beq- 7,.L43
.L46:
.LBB193:
	.loc 3 227 0
	addis 9,3,0x2
	lwz 0,11264(9)
	stw 0,0(31)
	.loc 3 228 0
	bl _ZdlPv
.LBE193:
	.loc 3 225 0
	lwz 3,0(31)
	cmpwi 7,3,0
	bne+ 7,.L46
.L43:
	.loc 3 230 0
	li 0,0
	.loc 3 232 0
	stw 0,8(31)
	.loc 3 230 0
	stw 0,0(31)
	.loc 3 231 0
	stw 0,4(31)
	.loc 3 232 0
	stw 0,12(31)
.LBE192:
	lwz 0,20(1)
	lwz 31,12(1)
.LVL24:
	addi 1,1,16
	mtlr 0
	blr
.LFE3241:
	.size	_ZN12idBlockAllocI13entityState_sLi256EE8ShutdownEv, .-_ZN12idBlockAllocI13entityState_sLi256EE8ShutdownEv
	.section	.text._ZN12idBlockAllocI13entityState_sLi256EED1Ev,"axG",@progbits,_ZN12idBlockAllocI13entityState_sLi256EED1Ev,comdat
	.align 2
	.weak	_ZN12idBlockAllocI13entityState_sLi256EED1Ev
	.type	_ZN12idBlockAllocI13entityState_sLi256EED1Ev, @function
_ZN12idBlockAllocI13entityState_sLi256EED1Ev:
.LFB3170:
	.loc 3 192 0
.LVL25:
	mflr 0
.LCFI23:
	stwu 1,-8(1)
.LCFI24:
	stw 0,12(1)
.LCFI25:
	.loc 3 193 0
	bl _ZN12idBlockAllocI13entityState_sLi256EE8ShutdownEv
.LVL26:
	lwz 0,12(1)
	addi 1,1,8
	mtlr 0
	blr
.LFE3170:
	.size	_ZN12idBlockAllocI13entityState_sLi256EED1Ev, .-_ZN12idBlockAllocI13entityState_sLi256EED1Ev
	.section	.text._ZN12idBlockAllocI16entityNetEvent_sLi32EE8ShutdownEv,"axG",@progbits,_ZN12idBlockAllocI16entityNetEvent_sLi32EE8ShutdownEv,comdat
	.align 2
	.weak	_ZN12idBlockAllocI16entityNetEvent_sLi32EE8ShutdownEv
	.type	_ZN12idBlockAllocI16entityNetEvent_sLi32EE8ShutdownEv, @function
_ZN12idBlockAllocI16entityNetEvent_sLi32EE8ShutdownEv:
.LFB3225:
	.loc 3 224 0
.LVL27:
	mflr 0
.LCFI26:
	stwu 1,-16(1)
.LCFI27:
	stw 31,12(1)
.LCFI28:
	mr 31,3
	stw 0,20(1)
.LCFI29:
.LBB194:
	.loc 3 225 0
	lwz 3,0(3)
.LVL28:
	cmpwi 7,3,0
	beq- 7,.L52
.L55:
.LBB195:
	.loc 3 227 0
	lwz 0,4992(3)
	stw 0,0(31)
	.loc 3 228 0
	bl _ZdlPv
.LBE195:
	.loc 3 225 0
	lwz 3,0(31)
	cmpwi 7,3,0
	bne+ 7,.L55
.L52:
	.loc 3 230 0
	li 0,0
	.loc 3 232 0
	stw 0,8(31)
	.loc 3 230 0
	stw 0,0(31)
	.loc 3 231 0
	stw 0,4(31)
	.loc 3 232 0
	stw 0,12(31)
.LBE194:
	lwz 0,20(1)
	lwz 31,12(1)
.LVL29:
	addi 1,1,16
	mtlr 0
	blr
.LFE3225:
	.size	_ZN12idBlockAllocI16entityNetEvent_sLi32EE8ShutdownEv, .-_ZN12idBlockAllocI16entityNetEvent_sLi32EE8ShutdownEv
	.section	.text._ZN12idBlockAllocI16entityNetEvent_sLi32EED1Ev,"axG",@progbits,_ZN12idBlockAllocI16entityNetEvent_sLi32EED1Ev,comdat
	.align 2
	.weak	_ZN12idBlockAllocI16entityNetEvent_sLi32EED1Ev
	.type	_ZN12idBlockAllocI16entityNetEvent_sLi32EED1Ev, @function
_ZN12idBlockAllocI16entityNetEvent_sLi32EED1Ev:
.LFB3120:
	.loc 3 192 0
.LVL30:
	mflr 0
.LCFI30:
	stwu 1,-8(1)
.LCFI31:
	stw 0,12(1)
.LCFI32:
	.loc 3 193 0
	bl _ZN12idBlockAllocI16entityNetEvent_sLi32EE8ShutdownEv
.LVL31:
	lwz 0,12(1)
	addi 1,1,8
	mtlr 0
	blr
.LFE3120:
	.size	_ZN12idBlockAllocI16entityNetEvent_sLi32EED1Ev, .-_ZN12idBlockAllocI16entityNetEvent_sLi32EED1Ev
	.section	.text._ZN6idGameD0Ev,"axG",@progbits,_ZN6idGameD0Ev,comdat
	.align 2
	.weak	_ZN6idGameD0Ev
	.type	_ZN6idGameD0Ev, @function
_ZN6idGameD0Ev:
.LFB2494:
	.file 5 "d:/Data/Nintendo/DoomGX/src/game/../idlib/../game/Game.h"
	.loc 5 74 0
.LVL32:
	lis 9,_ZTV6idGame+8@ha
	mflr 0
.LCFI33:
	la 9,_ZTV6idGame+8@l(9)
	stwu 1,-8(1)
.LCFI34:
	stw 9,0(3)
	stw 0,12(1)
.LCFI35:
	.loc 5 74 0
	bl _ZdlPv
.LVL33:
	lwz 0,12(1)
	addi 1,1,8
	mtlr 0
	blr
.LFE2494:
	.size	_ZN6idGameD0Ev, .-_ZN6idGameD0Ev
	.section	.text._ZN6idGameD1Ev,"axG",@progbits,_ZN6idGameD1Ev,comdat
	.align 2
	.weak	_ZN6idGameD1Ev
	.type	_ZN6idGameD1Ev, @function
_ZN6idGameD1Ev:
.LFB2493:
	.loc 5 74 0
.LVL34:
	.loc 5 74 0
	lis 9,_ZTV6idGame+8@ha
	la 9,_ZTV6idGame+8@l(9)
	stw 9,0(3)
	blr
.LFE2493:
	.size	_ZN6idGameD1Ev, .-_ZN6idGameD1Ev
	.section	.text._ZN9idWindingD0Ev,"axG",@progbits,_ZN9idWindingD0Ev,comdat
	.align 2
	.weak	_ZN9idWindingD0Ev
	.type	_ZN9idWindingD0Ev, @function
_ZN9idWindingD0Ev:
.LFB1465:
	.loc 1 183 0
.LVL35:
	mflr 0
.LCFI36:
	stwu 1,-16(1)
.LCFI37:
	lis 9,_ZTV9idWinding+8@ha
	stw 31,12(1)
.LCFI38:
	mr 31,3
	stw 0,20(1)
.LCFI39:
	.loc 1 183 0
	la 9,_ZTV9idWinding+8@l(9)
	stw 9,0(31)
	.loc 1 184 0
	lwz 3,8(3)
.LVL36:
	cmpwi 7,3,0
	beq- 7,.L67
	bl _ZdaPv
.L67:
	.loc 1 185 0
	li 0,0
	.loc 1 186 0
	mr 3,31
	.loc 1 185 0
	stw 0,8(31)
	.loc 1 186 0
	bl _ZdlPv
	lwz 0,20(1)
	lwz 31,12(1)
.LVL37:
	addi 1,1,16
	mtlr 0
	blr
.LFE1465:
	.size	_ZN9idWindingD0Ev, .-_ZN9idWindingD0Ev
	.section	.text._ZN9idWindingD1Ev,"axG",@progbits,_ZN9idWindingD1Ev,comdat
	.align 2
	.weak	_ZN9idWindingD1Ev
	.type	_ZN9idWindingD1Ev, @function
_ZN9idWindingD1Ev:
.LFB1464:
	.loc 1 183 0
.LVL38:
	mflr 0
.LCFI40:
	stwu 1,-16(1)
.LCFI41:
	lis 9,_ZTV9idWinding+8@ha
	stw 31,12(1)
.LCFI42:
	mr 31,3
	stw 0,20(1)
.LCFI43:
	.loc 1 183 0
	la 9,_ZTV9idWinding+8@l(9)
	stw 9,0(31)
	.loc 1 184 0
	lwz 3,8(3)
.LVL39:
	cmpwi 7,3,0
	beq- 7,.L72
	bl _ZdaPv
.L72:
	.loc 1 185 0
	li 0,0
	stw 0,8(31)
	.loc 1 186 0
	lwz 0,20(1)
	lwz 31,12(1)
.LVL40:
	addi 1,1,16
	mtlr 0
	blr
.LFE1464:
	.size	_ZN9idWindingD1Ev, .-_ZN9idWindingD1Ev
	.section	.text._ZN14idFixedWindingD0Ev,"axG",@progbits,_ZN14idFixedWindingD0Ev,comdat
	.align 2
	.weak	_ZN14idFixedWindingD0Ev
	.type	_ZN14idFixedWindingD0Ev, @function
_ZN14idFixedWindingD0Ev:
.LFB1502:
	.loc 1 380 0
.LVL41:
	mflr 0
.LCFI44:
	stwu 1,-8(1)
.LCFI45:
.LBB198:
.LBB199:
	.loc 1 183 0
	lis 9,_ZTV9idWinding+8@ha
	la 9,_ZTV9idWinding+8@l(9)
.LBE199:
.LBE198:
	.loc 1 380 0
	stw 0,12(1)
.LCFI46:
.LBB201:
.LBB200:
	.loc 1 185 0
	li 0,0
	stw 0,8(3)
	.loc 1 183 0
	stw 9,0(3)
.LBE200:
.LBE201:
	.loc 1 382 0
	bl _ZdlPv
.LVL42:
	lwz 0,12(1)
	addi 1,1,8
	mtlr 0
	blr
.LFE1502:
	.size	_ZN14idFixedWindingD0Ev, .-_ZN14idFixedWindingD0Ev
	.section	".text"
	.align 2
	.type	__tcf_0, @function
__tcf_0:
.LFB3256:
	.loc 2 61 0
	mflr 0
.LCFI47:
	stwu 1,-8(1)
.LCFI48:
	lis 3,.LANCHOR0@ha
	la 3,.LANCHOR0@l(3)
	stw 0,12(1)
.LCFI49:
	.loc 2 61 0
	bl _ZN13idAnimManagerD1Ev
	lwz 0,12(1)
	addi 1,1,8
	mtlr 0
	blr
.LFE3256:
	.size	__tcf_0, .-__tcf_0
	.align 2
	.globl _ZN11idGameLocal16GetMapLoadingGUIEPc
	.type	_ZN11idGameLocal16GetMapLoadingGUIEPc, @function
_ZN11idGameLocal16GetMapLoadingGUIEPc:
.LFB2940:
	.loc 2 1441 0
.LVL43:
	mflr 0
.LCFI50:
	stwu 1,-8(1)
.LCFI51:
	.loc 2 1442 0
	lis 3,.LC0@ha
.LVL44:
	la 3,.LC0@l(3)
	.loc 2 1441 0
	stw 0,12(1)
.LCFI52:
	.loc 2 1442 0
	crxor 6,6,6
	bl _Z10Sys_PrintfPKcz
.LVL45:
	.loc 2 1443 0
	lwz 0,12(1)
	addi 1,1,8
	mtlr 0
	blr
.LFE2940:
	.size	_ZN11idGameLocal16GetMapLoadingGUIEPc, .-_ZN11idGameLocal16GetMapLoadingGUIEPc
	.align 2
	.globl _ZN11idGameLocal10SwitchTeamEii
	.type	_ZN11idGameLocal10SwitchTeamEii, @function
_ZN11idGameLocal10SwitchTeamEii:
.LFB2939:
	.loc 2 1431 0
.LVL46:
	mflr 0
.LCFI53:
	stwu 1,-8(1)
.LCFI54:
	.loc 2 1432 0
	lis 3,.LC1@ha
.LVL47:
	la 3,.LC1@l(3)
	.loc 2 1431 0
	stw 0,12(1)
.LCFI55:
	.loc 2 1432 0
	crxor 6,6,6
	bl _Z10Sys_PrintfPKcz
.LVL48:
	.loc 2 1433 0
	lwz 0,12(1)
	addi 1,1,8
	mtlr 0
	blr
.LFE2939:
	.size	_ZN11idGameLocal10SwitchTeamEii, .-_ZN11idGameLocal10SwitchTeamEii
	.align 2
	.globl _ZN11idGameLocal14GetClientStatsEiPci
	.type	_ZN11idGameLocal14GetClientStatsEiPci, @function
_ZN11idGameLocal14GetClientStatsEiPci:
.LFB2938:
	.loc 2 1420 0
.LVL49:
	mflr 0
.LCFI56:
	stwu 1,-8(1)
.LCFI57:
	.loc 2 1421 0
	lis 3,.LC2@ha
.LVL50:
	la 3,.LC2@l(3)
	.loc 2 1420 0
	stw 0,12(1)
.LCFI58:
	.loc 2 1421 0
	crxor 6,6,6
	bl _Z10Sys_PrintfPKcz
.LVL51:
	.loc 2 1422 0
	lwz 0,12(1)
	addi 1,1,8
	mtlr 0
	blr
.LFE2938:
	.size	_ZN11idGameLocal14GetClientStatsEiPci, .-_ZN11idGameLocal14GetClientStatsEiPci
	.align 2
	.globl _ZN11idGameLocal11NeedRestartEv
	.type	_ZN11idGameLocal11NeedRestartEv, @function
_ZN11idGameLocal11NeedRestartEv:
.LFB2937:
	.loc 2 1407 0
.LVL52:
	mflr 0
.LCFI59:
	stwu 1,-8(1)
.LCFI60:
.LBB202:
	.loc 2 1410 0
	lis 3,.LC3@ha
.LVL53:
	la 3,.LC3@l(3)
.LBE202:
	.loc 2 1407 0
	stw 0,12(1)
.LCFI61:
.LBB203:
	.loc 2 1410 0
	crxor 6,6,6
	bl _Z10Sys_PrintfPKcz
.LBE203:
	.loc 2 1412 0
	lwz 0,12(1)
	li 3,0
	addi 1,1,8
	mtlr 0
	blr
.LFE2937:
	.size	_ZN11idGameLocal11NeedRestartEv, .-_ZN11idGameLocal11NeedRestartEv
	.align 2
	.globl _ZN11idGameLocal15GetBestGameTypeEPKcS1_Pc
	.type	_ZN11idGameLocal15GetBestGameTypeEPKcS1_Pc, @function
_ZN11idGameLocal15GetBestGameTypeEPKcS1_Pc:
.LFB2936:
	.loc 2 1397 0
.LVL54:
	mflr 0
.LCFI62:
	stwu 1,-8(1)
.LCFI63:
	.loc 2 1398 0
	lis 3,.LC4@ha
.LVL55:
	la 3,.LC4@l(3)
	.loc 2 1397 0
	stw 0,12(1)
.LCFI64:
	.loc 2 1398 0
	crxor 6,6,6
	bl _Z10Sys_PrintfPKcz
.LVL56:
	.loc 2 1399 0
	lwz 0,12(1)
	addi 1,1,8
	mtlr 0
	blr
.LFE2936:
	.size	_ZN11idGameLocal15GetBestGameTypeEPKcS1_Pc, .-_ZN11idGameLocal15GetBestGameTypeEPKcS1_Pc
	.align 2
	.globl _ZN11idGameLocal16GetTimeGroupTimeEi
	.type	_ZN11idGameLocal16GetTimeGroupTimeEi, @function
_ZN11idGameLocal16GetTimeGroupTimeEi:
.LFB2935:
	.loc 2 1384 0
.LVL57:
	mflr 0
.LCFI65:
	stwu 1,-8(1)
.LCFI66:
.LBB204:
	.loc 2 1387 0
	lis 3,.LC5@ha
.LVL58:
	la 3,.LC5@l(3)
.LBE204:
	.loc 2 1384 0
	stw 0,12(1)
.LCFI67:
.LBB205:
	.loc 2 1387 0
	crxor 6,6,6
	bl _Z10Sys_PrintfPKcz
.LVL59:
.LBE205:
	.loc 2 1389 0
	lwz 0,12(1)
	li 3,0
	addi 1,1,8
	mtlr 0
	blr
.LFE2935:
	.size	_ZN11idGameLocal16GetTimeGroupTimeEi, .-_ZN11idGameLocal16GetTimeGroupTimeEi
	.align 2
	.globl _ZN11idGameLocal15SelectTimeGroupEi
	.type	_ZN11idGameLocal15SelectTimeGroupEi, @function
_ZN11idGameLocal15SelectTimeGroupEi:
.LFB2934:
	.loc 2 1374 0
.LVL60:
	mflr 0
.LCFI68:
	stwu 1,-8(1)
.LCFI69:
	.loc 2 1375 0
	lis 3,.LC6@ha
.LVL61:
	la 3,.LC6@l(3)
	.loc 2 1374 0
	stw 0,12(1)
.LCFI70:
	.loc 2 1375 0
	crxor 6,6,6
	bl _Z10Sys_PrintfPKcz
.LVL62:
	.loc 2 1376 0
	lwz 0,12(1)
	addi 1,1,8
	mtlr 0
	blr
.LFE2934:
	.size	_ZN11idGameLocal15SelectTimeGroupEi, .-_ZN11idGameLocal15SelectTimeGroupEi
	.align 2
	.globl _ZN11idGameLocal16ThrottleUserInfoEv
	.type	_ZN11idGameLocal16ThrottleUserInfoEv, @function
_ZN11idGameLocal16ThrottleUserInfoEv:
.LFB2933:
	.loc 2 1364 0
.LVL63:
	mflr 0
.LCFI71:
	stwu 1,-8(1)
.LCFI72:
	.loc 2 1365 0
	lis 3,.LC7@ha
.LVL64:
	la 3,.LC7@l(3)
	.loc 2 1364 0
	stw 0,12(1)
.LCFI73:
	.loc 2 1365 0
	crxor 6,6,6
	bl _Z10Sys_PrintfPKcz
	.loc 2 1366 0
	lwz 0,12(1)
	addi 1,1,8
	mtlr 0
	blr
.LFE2933:
	.size	_ZN11idGameLocal16ThrottleUserInfoEv, .-_ZN11idGameLocal16ThrottleUserInfoEv
	.align 2
	.globl _ZNK11idGameLocal10GetSpawnIdEPK8idEntity
	.type	_ZNK11idGameLocal10GetSpawnIdEPK8idEntity, @function
_ZNK11idGameLocal10GetSpawnIdEPK8idEntity:
.LFB2932:
	.loc 2 1351 0
.LVL65:
	mflr 0
.LCFI74:
	stwu 1,-8(1)
.LCFI75:
.LBB206:
	.loc 2 1354 0
	lis 3,.LC8@ha
.LVL66:
	la 3,.LC8@l(3)
.LBE206:
	.loc 2 1351 0
	stw 0,12(1)
.LCFI76:
.LBB207:
	.loc 2 1354 0
	crxor 6,6,6
	bl _Z10Sys_PrintfPKcz
.LVL67:
.LBE207:
	.loc 2 1356 0
	lwz 0,12(1)
	li 3,0
	addi 1,1,8
	mtlr 0
	blr
.LFE2932:
	.size	_ZNK11idGameLocal10GetSpawnIdEPK8idEntity, .-_ZNK11idGameLocal10GetSpawnIdEPK8idEntity
	.align 2
	.globl _ZN11idGameLocal17GetGlobalMaterialEv
	.type	_ZN11idGameLocal17GetGlobalMaterialEv, @function
_ZN11idGameLocal17GetGlobalMaterialEv:
.LFB2931:
	.loc 2 1340 0
.LVL68:
	mflr 0
.LCFI77:
	stwu 1,-8(1)
.LCFI78:
	.loc 2 1341 0
	lis 3,.LC9@ha
.LVL69:
	la 3,.LC9@l(3)
	.loc 2 1340 0
	stw 0,12(1)
.LCFI79:
	.loc 2 1341 0
	crxor 6,6,6
	bl _Z10Sys_PrintfPKcz
	.loc 2 1343 0
	lwz 0,12(1)
	li 3,0
	addi 1,1,8
	mtlr 0
	blr
.LFE2931:
	.size	_ZN11idGameLocal17GetGlobalMaterialEv, .-_ZN11idGameLocal17GetGlobalMaterialEv
	.align 2
	.globl _ZN11idGameLocal17SetGlobalMaterialEPK10idMaterial
	.type	_ZN11idGameLocal17SetGlobalMaterialEPK10idMaterial, @function
_ZN11idGameLocal17SetGlobalMaterialEPK10idMaterial:
.LFB2930:
	.loc 2 1330 0
.LVL70:
	mflr 0
.LCFI80:
	stwu 1,-8(1)
.LCFI81:
	.loc 2 1331 0
	lis 3,.LC10@ha
.LVL71:
	la 3,.LC10@l(3)
	.loc 2 1330 0
	stw 0,12(1)
.LCFI82:
	.loc 2 1331 0
	crxor 6,6,6
	bl _Z10Sys_PrintfPKcz
.LVL72:
	.loc 2 1332 0
	lwz 0,12(1)
	addi 1,1,8
	mtlr 0
	blr
.LFE2930:
	.size	_ZN11idGameLocal17SetGlobalMaterialEPK10idMaterial, .-_ZN11idGameLocal17SetGlobalMaterialEPK10idMaterial
	.align 2
	.globl _ZN11idGameLocal21UpdateServerInfoFlagsEv
	.type	_ZN11idGameLocal21UpdateServerInfoFlagsEv, @function
_ZN11idGameLocal21UpdateServerInfoFlagsEv:
.LFB2929:
	.loc 2 1319 0
.LVL73:
	mflr 0
.LCFI83:
	stwu 1,-8(1)
.LCFI84:
	.loc 2 1320 0
	lis 3,.LC11@ha
.LVL74:
	la 3,.LC11@l(3)
	.loc 2 1319 0
	stw 0,12(1)
.LCFI85:
	.loc 2 1320 0
	crxor 6,6,6
	bl _Z10Sys_PrintfPKcz
	.loc 2 1321 0
	lwz 0,12(1)
	addi 1,1,8
	mtlr 0
	blr
.LFE2929:
	.size	_ZN11idGameLocal21UpdateServerInfoFlagsEv, .-_ZN11idGameLocal21UpdateServerInfoFlagsEv
	.align 2
	.globl _ZN11idGameLocal23SelectInitialSpawnPointEP8idPlayer
	.type	_ZN11idGameLocal23SelectInitialSpawnPointEP8idPlayer, @function
_ZN11idGameLocal23SelectInitialSpawnPointEP8idPlayer:
.LFB2928:
	.loc 2 1308 0
.LVL75:
	mflr 0
.LCFI86:
	stwu 1,-8(1)
.LCFI87:
	.loc 2 1309 0
	lis 3,.LC12@ha
.LVL76:
	la 3,.LC12@l(3)
	.loc 2 1308 0
	stw 0,12(1)
.LCFI88:
	.loc 2 1309 0
	crxor 6,6,6
	bl _Z10Sys_PrintfPKcz
.LVL77:
	.loc 2 1311 0
	lwz 0,12(1)
	li 3,0
	addi 1,1,8
	mtlr 0
	blr
.LFE2928:
	.size	_ZN11idGameLocal23SelectInitialSpawnPointEP8idPlayer, .-_ZN11idGameLocal23SelectInitialSpawnPointEP8idPlayer
	.align 2
	.globl _ZN11idGameLocal22RandomizeInitialSpawnsEv
	.type	_ZN11idGameLocal22RandomizeInitialSpawnsEv, @function
_ZN11idGameLocal22RandomizeInitialSpawnsEv:
.LFB2927:
	.loc 2 1294 0
.LVL78:
	mflr 0
.LCFI89:
	stwu 1,-8(1)
.LCFI90:
	.loc 2 1295 0
	lis 3,.LC13@ha
.LVL79:
	la 3,.LC13@l(3)
	.loc 2 1294 0
	stw 0,12(1)
.LCFI91:
	.loc 2 1295 0
	crxor 6,6,6
	bl _Z10Sys_PrintfPKcz
	.loc 2 1296 0
	lwz 0,12(1)
	addi 1,1,8
	mtlr 0
	blr
.LFE2927:
	.size	_ZN11idGameLocal22RandomizeInitialSpawnsEv, .-_ZN11idGameLocal22RandomizeInitialSpawnsEv
	.align 2
	.globl _ZN11idGameLocal15sortSpawnPointsEPKvS1_
	.type	_ZN11idGameLocal15sortSpawnPointsEPKvS1_, @function
_ZN11idGameLocal15sortSpawnPointsEPKvS1_:
.LFB2926:
	.loc 2 1279 0
.LVL80:
	mflr 0
.LCFI92:
	stwu 1,-8(1)
.LCFI93:
.LBB208:
	.loc 2 1282 0
	lis 3,.LC14@ha
.LVL81:
	la 3,.LC14@l(3)
.LBE208:
	.loc 2 1279 0
	stw 0,12(1)
.LCFI94:
.LBB209:
	.loc 2 1282 0
	crxor 6,6,6
	bl _Z10Sys_PrintfPKcz
.LVL82:
.LBE209:
	.loc 2 1284 0
	lwz 0,12(1)
	li 3,0
	addi 1,1,8
	mtlr 0
	blr
.LFE2926:
	.size	_ZN11idGameLocal15sortSpawnPointsEPKvS1_, .-_ZN11idGameLocal15sortSpawnPointsEPKvS1_
	.align 2
	.globl _ZN11idGameLocal14SetPortalStateEii
	.type	_ZN11idGameLocal14SetPortalStateEii, @function
_ZN11idGameLocal14SetPortalStateEii:
.LFB2925:
	.loc 2 1269 0
.LVL83:
	mflr 0
.LCFI95:
	stwu 1,-8(1)
.LCFI96:
	.loc 2 1270 0
	lis 3,.LC15@ha
.LVL84:
	la 3,.LC15@l(3)
	.loc 2 1269 0
	stw 0,12(1)
.LCFI97:
	.loc 2 1270 0
	crxor 6,6,6
	bl _Z10Sys_PrintfPKcz
.LVL85:
	.loc 2 1271 0
	lwz 0,12(1)
	addi 1,1,8
	mtlr 0
	blr
.LFE2925:
	.size	_ZN11idGameLocal14SetPortalStateEii, .-_ZN11idGameLocal14SetPortalStateEii
	.align 2
	.globl _ZN11idGameLocal16LocationForPointERK6idVec3
	.type	_ZN11idGameLocal16LocationForPointERK6idVec3, @function
_ZN11idGameLocal16LocationForPointERK6idVec3:
.LFB2924:
	.loc 2 1258 0
.LVL86:
	mflr 0
.LCFI98:
	stwu 1,-8(1)
.LCFI99:
	.loc 2 1259 0
	lis 3,.LC16@ha
.LVL87:
	la 3,.LC16@l(3)
	.loc 2 1258 0
	stw 0,12(1)
.LCFI100:
	.loc 2 1259 0
	crxor 6,6,6
	bl _Z10Sys_PrintfPKcz
.LVL88:
	.loc 2 1261 0
	lwz 0,12(1)
	li 3,0
	addi 1,1,8
	mtlr 0
	blr
.LFE2924:
	.size	_ZN11idGameLocal16LocationForPointERK6idVec3, .-_ZN11idGameLocal16LocationForPointERK6idVec3
	.align 2
	.globl _ZN11idGameLocal15SpreadLocationsEv
	.type	_ZN11idGameLocal15SpreadLocationsEv, @function
_ZN11idGameLocal15SpreadLocationsEv:
.LFB2923:
	.loc 2 1245 0
.LVL89:
	mflr 0
.LCFI101:
	stwu 1,-8(1)
.LCFI102:
	.loc 2 1246 0
	lis 3,.LC17@ha
.LVL90:
	la 3,.LC17@l(3)
	.loc 2 1245 0
	stw 0,12(1)
.LCFI103:
	.loc 2 1246 0
	crxor 6,6,6
	bl _Z10Sys_PrintfPKcz
	.loc 2 1247 0
	lwz 0,12(1)
	addi 1,1,8
	mtlr 0
	blr
.LFE2923:
	.size	_ZN11idGameLocal15SpreadLocationsEv, .-_ZN11idGameLocal15SpreadLocationsEv
	.align 2
	.globl _ZN11idGameLocal13SkipCinematicEv
	.type	_ZN11idGameLocal13SkipCinematicEv, @function
_ZN11idGameLocal13SkipCinematicEv:
.LFB2922:
	.loc 2 1229 0
.LVL91:
	mflr 0
.LCFI104:
	stwu 1,-8(1)
.LCFI105:
.LBB210:
	.loc 2 1232 0
	lis 3,.LC18@ha
.LVL92:
	la 3,.LC18@l(3)
.LBE210:
	.loc 2 1229 0
	stw 0,12(1)
.LCFI106:
.LBB211:
	.loc 2 1232 0
	crxor 6,6,6
	bl _Z10Sys_PrintfPKcz
.LBE211:
	.loc 2 1234 0
	lwz 0,12(1)
	li 3,0
	addi 1,1,8
	mtlr 0
	blr
.LFE2922:
	.size	_ZN11idGameLocal13SkipCinematicEv, .-_ZN11idGameLocal13SkipCinematicEv
	.align 2
	.globl _ZNK11idGameLocal9GetCameraEv
	.type	_ZNK11idGameLocal9GetCameraEv, @function
_ZNK11idGameLocal9GetCameraEv:
.LFB2921:
	.loc 2 1218 0
.LVL93:
	mflr 0
.LCFI107:
	stwu 1,-8(1)
.LCFI108:
	.loc 2 1219 0
	lis 3,.LC19@ha
.LVL94:
	la 3,.LC19@l(3)
	.loc 2 1218 0
	stw 0,12(1)
.LCFI109:
	.loc 2 1219 0
	crxor 6,6,6
	bl _Z10Sys_PrintfPKcz
	.loc 2 1221 0
	lwz 0,12(1)
	li 3,0
	addi 1,1,8
	mtlr 0
	blr
.LFE2921:
	.size	_ZNK11idGameLocal9GetCameraEv, .-_ZNK11idGameLocal9GetCameraEv
	.align 2
	.globl _ZN11idGameLocal9SetCameraEP8idCamera
	.type	_ZN11idGameLocal9SetCameraEP8idCamera, @function
_ZN11idGameLocal9SetCameraEP8idCamera:
.LFB2920:
	.loc 2 1208 0
.LVL95:
	mflr 0
.LCFI110:
	stwu 1,-8(1)
.LCFI111:
	.loc 2 1209 0
	lis 3,.LC20@ha
.LVL96:
	la 3,.LC20@l(3)
	.loc 2 1208 0
	stw 0,12(1)
.LCFI112:
	.loc 2 1209 0
	crxor 6,6,6
	bl _Z10Sys_PrintfPKcz
.LVL97:
	.loc 2 1210 0
	lwz 0,12(1)
	addi 1,1,8
	mtlr 0
	blr
.LFE2920:
	.size	_ZN11idGameLocal9SetCameraEP8idCamera, .-_ZN11idGameLocal9SetCameraEP8idCamera
	.align 2
	.globl _ZN11idGameLocal10BloodSplatERK6idVec3S2_fPKc
	.type	_ZN11idGameLocal10BloodSplatERK6idVec3S2_fPKc, @function
_ZN11idGameLocal10BloodSplatERK6idVec3S2_fPKc:
.LFB2919:
	.loc 2 1198 0
.LVL98:
	mflr 0
.LCFI113:
	stwu 1,-8(1)
.LCFI114:
	.loc 2 1199 0
	lis 3,.LC21@ha
.LVL99:
	la 3,.LC21@l(3)
	.loc 2 1198 0
	stw 0,12(1)
.LCFI115:
	.loc 2 1199 0
	crxor 6,6,6
	bl _Z10Sys_PrintfPKcz
.LVL100:
	.loc 2 1200 0
	lwz 0,12(1)
	addi 1,1,8
	mtlr 0
	blr
.LFE2919:
	.size	_ZN11idGameLocal10BloodSplatERK6idVec3S2_fPKc, .-_ZN11idGameLocal10BloodSplatERK6idVec3S2_fPKc
	.align 2
	.globl _ZN11idGameLocal12ProjectDecalERK6idVec3S2_fbfPKcf
	.type	_ZN11idGameLocal12ProjectDecalERK6idVec3S2_fbfPKcf, @function
_ZN11idGameLocal12ProjectDecalERK6idVec3S2_fbfPKcf:
.LFB2918:
	.loc 2 1188 0
.LVL101:
	mflr 0
.LCFI116:
	stwu 1,-8(1)
.LCFI117:
	.loc 2 1189 0
	lis 3,.LC22@ha
.LVL102:
	la 3,.LC22@l(3)
	.loc 2 1188 0
	stw 0,12(1)
.LCFI118:
	.loc 2 1189 0
	crxor 6,6,6
	bl _Z10Sys_PrintfPKcz
.LVL103:
	.loc 2 1190 0
	lwz 0,12(1)
	addi 1,1,8
	mtlr 0
	blr
.LFE2918:
	.size	_ZN11idGameLocal12ProjectDecalERK6idVec3S2_fbfPKcf, .-_ZN11idGameLocal12ProjectDecalERK6idVec3S2_fbfPKcf
	.align 2
	.globl _ZN11idGameLocal19RadiusPushClipModelERK6idVec3fPK11idClipModel
	.type	_ZN11idGameLocal19RadiusPushClipModelERK6idVec3fPK11idClipModel, @function
_ZN11idGameLocal19RadiusPushClipModelERK6idVec3fPK11idClipModel:
.LFB2917:
	.loc 2 1178 0
.LVL104:
	mflr 0
.LCFI119:
	stwu 1,-8(1)
.LCFI120:
	.loc 2 1179 0
	lis 3,.LC23@ha
.LVL105:
	la 3,.LC23@l(3)
	.loc 2 1178 0
	stw 0,12(1)
.LCFI121:
	.loc 2 1179 0
	crxor 6,6,6
	bl _Z10Sys_PrintfPKcz
.LVL106:
	.loc 2 1180 0
	lwz 0,12(1)
	addi 1,1,8
	mtlr 0
	blr
.LFE2917:
	.size	_ZN11idGameLocal19RadiusPushClipModelERK6idVec3fPK11idClipModel, .-_ZN11idGameLocal19RadiusPushClipModelERK6idVec3fPK11idClipModel
	.align 2
	.globl _ZN11idGameLocal10RadiusPushERK6idVec3ffPK8idEntityS5_fb
	.type	_ZN11idGameLocal10RadiusPushERK6idVec3ffPK8idEntityS5_fb, @function
_ZN11idGameLocal10RadiusPushERK6idVec3ffPK8idEntityS5_fb:
.LFB2916:
	.loc 2 1168 0
.LVL107:
	mflr 0
.LCFI122:
	stwu 1,-8(1)
.LCFI123:
	.loc 2 1169 0
	lis 3,.LC24@ha
.LVL108:
	la 3,.LC24@l(3)
	.loc 2 1168 0
	stw 0,12(1)
.LCFI124:
	.loc 2 1169 0
	crxor 6,6,6
	bl _Z10Sys_PrintfPKcz
.LVL109:
	.loc 2 1170 0
	lwz 0,12(1)
	addi 1,1,8
	mtlr 0
	blr
.LFE2916:
	.size	_ZN11idGameLocal10RadiusPushERK6idVec3ffPK8idEntityS5_fb, .-_ZN11idGameLocal10RadiusPushERK6idVec3ffPK8idEntityS5_fb
	.align 2
	.globl _ZN11idGameLocal12RadiusDamageERK6idVec3P8idEntityS4_S4_S4_PKcf
	.type	_ZN11idGameLocal12RadiusDamageERK6idVec3P8idEntityS4_S4_S4_PKcf, @function
_ZN11idGameLocal12RadiusDamageERK6idVec3P8idEntityS4_S4_S4_PKcf:
.LFB2915:
	.loc 2 1158 0
.LVL110:
	mflr 0
.LCFI125:
	stwu 1,-8(1)
.LCFI126:
	.loc 2 1159 0
	lis 3,.LC25@ha
.LVL111:
	la 3,.LC25@l(3)
	.loc 2 1158 0
	stw 0,12(1)
.LCFI127:
	.loc 2 1159 0
	crxor 6,6,6
	bl _Z10Sys_PrintfPKcz
.LVL112:
	.loc 2 1160 0
	lwz 0,12(1)
	addi 1,1,8
	mtlr 0
	blr
.LFE2915:
	.size	_ZN11idGameLocal12RadiusDamageERK6idVec3P8idEntityS4_S4_S4_PKcf, .-_ZN11idGameLocal12RadiusDamageERK6idVec3P8idEntityS4_S4_S4_PKcf
	.align 2
	.globl _ZN11idGameLocal14GetAlertEntityEv
	.type	_ZN11idGameLocal14GetAlertEntityEv, @function
_ZN11idGameLocal14GetAlertEntityEv:
.LFB2914:
	.loc 2 1147 0
.LVL113:
	mflr 0
.LCFI128:
	stwu 1,-8(1)
.LCFI129:
	.loc 2 1148 0
	lis 3,.LC26@ha
.LVL114:
	la 3,.LC26@l(3)
	.loc 2 1147 0
	stw 0,12(1)
.LCFI130:
	.loc 2 1148 0
	crxor 6,6,6
	bl _Z10Sys_PrintfPKcz
	.loc 2 1150 0
	lwz 0,12(1)
	li 3,0
	addi 1,1,8
	mtlr 0
	blr
.LFE2914:
	.size	_ZN11idGameLocal14GetAlertEntityEv, .-_ZN11idGameLocal14GetAlertEntityEv
	.align 2
	.globl _ZN11idGameLocal7AlertAIEP8idEntity
	.type	_ZN11idGameLocal7AlertAIEP8idEntity, @function
_ZN11idGameLocal7AlertAIEP8idEntity:
.LFB2913:
	.loc 2 1137 0
.LVL115:
	mflr 0
.LCFI131:
	stwu 1,-8(1)
.LCFI132:
	.loc 2 1138 0
	lis 3,.LC27@ha
.LVL116:
	la 3,.LC27@l(3)
	.loc 2 1137 0
	stw 0,12(1)
.LCFI133:
	.loc 2 1138 0
	crxor 6,6,6
	bl _Z10Sys_PrintfPKcz
.LVL117:
	.loc 2 1139 0
	lwz 0,12(1)
	addi 1,1,8
	mtlr 0
	blr
.LFE2913:
	.size	_ZN11idGameLocal7AlertAIEP8idEntity, .-_ZN11idGameLocal7AlertAIEP8idEntity
	.align 2
	.globl _ZN11idGameLocal14RequirementMetEP8idEntityRK5idStri
	.type	_ZN11idGameLocal14RequirementMetEP8idEntityRK5idStri, @function
_ZN11idGameLocal14RequirementMetEP8idEntityRK5idStri:
.LFB2912:
	.loc 2 1124 0
.LVL118:
	mflr 0
.LCFI134:
	stwu 1,-8(1)
.LCFI135:
.LBB212:
	.loc 2 1127 0
	lis 3,.LC28@ha
.LVL119:
	la 3,.LC28@l(3)
.LBE212:
	.loc 2 1124 0
	stw 0,12(1)
.LCFI136:
.LBB213:
	.loc 2 1127 0
	crxor 6,6,6
	bl _Z10Sys_PrintfPKcz
.LVL120:
.LBE213:
	.loc 2 1129 0
	lwz 0,12(1)
	li 3,0
	addi 1,1,8
	mtlr 0
	blr
.LFE2912:
	.size	_ZN11idGameLocal14RequirementMetEP8idEntityRK5idStri, .-_ZN11idGameLocal14RequirementMetEP8idEntityRK5idStri
	.align 2
	.globl _ZN11idGameLocal7KillBoxEP8idEntityb
	.type	_ZN11idGameLocal7KillBoxEP8idEntityb, @function
_ZN11idGameLocal7KillBoxEP8idEntityb:
.LFB2911:
	.loc 2 1114 0
.LVL121:
	mflr 0
.LCFI137:
	stwu 1,-8(1)
.LCFI138:
	.loc 2 1115 0
	lis 3,.LC29@ha
.LVL122:
	la 3,.LC29@l(3)
	.loc 2 1114 0
	stw 0,12(1)
.LCFI139:
	.loc 2 1115 0
	crxor 6,6,6
	bl _Z10Sys_PrintfPKcz
.LVL123:
	.loc 2 1116 0
	lwz 0,12(1)
	addi 1,1,8
	mtlr 0
	blr
.LFE2911:
	.size	_ZN11idGameLocal7KillBoxEP8idEntityb, .-_ZN11idGameLocal7KillBoxEP8idEntityb
	.align 2
	.globl _ZNK11idGameLocal20EntitiesWithinRadiusE6idVec3fPP8idEntityi
	.type	_ZNK11idGameLocal20EntitiesWithinRadiusE6idVec3fPP8idEntityi, @function
_ZNK11idGameLocal20EntitiesWithinRadiusE6idVec3fPP8idEntityi:
.LFB2910:
	.loc 2 1097 0
.LVL124:
	mflr 0
.LCFI140:
	stwu 1,-8(1)
.LCFI141:
.LBB214:
	.loc 2 1100 0
	lis 3,.LC30@ha
.LVL125:
	la 3,.LC30@l(3)
.LBE214:
	.loc 2 1097 0
	stw 0,12(1)
.LCFI142:
.LBB215:
	.loc 2 1100 0
	crxor 6,6,6
	bl _Z10Sys_PrintfPKcz
.LVL126:
.LBE215:
	.loc 2 1102 0
	lwz 0,12(1)
	li 3,0
	addi 1,1,8
	mtlr 0
	blr
.LFE2910:
	.size	_ZNK11idGameLocal20EntitiesWithinRadiusE6idVec3fPP8idEntityi, .-_ZNK11idGameLocal20EntitiesWithinRadiusE6idVec3fPP8idEntityi
	.align 2
	.globl _ZNK11idGameLocal15FindTraceEntityE6idVec3S0_RK10idTypeInfoPK8idEntity
	.type	_ZNK11idGameLocal15FindTraceEntityE6idVec3S0_RK10idTypeInfoPK8idEntity, @function
_ZNK11idGameLocal15FindTraceEntityE6idVec3S0_RK10idTypeInfoPK8idEntity:
.LFB2909:
	.loc 2 1086 0
.LVL127:
	mflr 0
.LCFI143:
	stwu 1,-8(1)
.LCFI144:
	.loc 2 1087 0
	lis 3,.LC31@ha
.LVL128:
	la 3,.LC31@l(3)
	.loc 2 1086 0
	stw 0,12(1)
.LCFI145:
	.loc 2 1087 0
	crxor 6,6,6
	bl _Z10Sys_PrintfPKcz
.LVL129:
	.loc 2 1089 0
	lwz 0,12(1)
	li 3,0
	addi 1,1,8
	mtlr 0
	blr
.LFE2909:
	.size	_ZNK11idGameLocal15FindTraceEntityE6idVec3S0_RK10idTypeInfoPK8idEntity, .-_ZNK11idGameLocal15FindTraceEntityE6idVec3S0_RK10idTypeInfoPK8idEntity
	.align 2
	.globl _ZNK11idGameLocal18FindEntityUsingDefEP8idEntityPKc
	.type	_ZNK11idGameLocal18FindEntityUsingDefEP8idEntityPKc, @function
_ZNK11idGameLocal18FindEntityUsingDefEP8idEntityPKc:
.LFB2908:
	.loc 2 1072 0
.LVL130:
	mflr 0
.LCFI146:
	stwu 1,-8(1)
.LCFI147:
	.loc 2 1073 0
	lis 3,.LC32@ha
.LVL131:
	la 3,.LC32@l(3)
	.loc 2 1072 0
	stw 0,12(1)
.LCFI148:
	.loc 2 1073 0
	crxor 6,6,6
	bl _Z10Sys_PrintfPKcz
.LVL132:
	.loc 2 1075 0
	lwz 0,12(1)
	li 3,0
	addi 1,1,8
	mtlr 0
	blr
.LFE2908:
	.size	_ZNK11idGameLocal18FindEntityUsingDefEP8idEntityPKc, .-_ZNK11idGameLocal18FindEntityUsingDefEP8idEntityPKc
	.align 2
	.globl _ZNK11idGameLocal10FindEntityEPKc
	.type	_ZNK11idGameLocal10FindEntityEPKc, @function
_ZNK11idGameLocal10FindEntityEPKc:
.LFB2907:
	.loc 2 1056 0
.LVL133:
	mflr 0
.LCFI149:
	stwu 1,-8(1)
.LCFI150:
	.loc 2 1057 0
	lis 3,.LC33@ha
.LVL134:
	la 3,.LC33@l(3)
	.loc 2 1056 0
	stw 0,12(1)
.LCFI151:
	.loc 2 1057 0
	crxor 6,6,6
	bl _Z10Sys_PrintfPKcz
.LVL135:
	.loc 2 1059 0
	lwz 0,12(1)
	li 3,0
	addi 1,1,8
	mtlr 0
	blr
.LFE2907:
	.size	_ZNK11idGameLocal10FindEntityEPKc, .-_ZNK11idGameLocal10FindEntityEPKc
	.align 2
	.globl _ZNK11idGameLocal14GetTraceEntityERK7trace_s
	.type	_ZNK11idGameLocal14GetTraceEntityERK7trace_s, @function
_ZNK11idGameLocal14GetTraceEntityERK7trace_s:
.LFB2905:
	.loc 2 1026 0
.LVL136:
	mflr 0
.LCFI152:
	stwu 1,-8(1)
.LCFI153:
	.loc 2 1027 0
	lis 3,.LC34@ha
.LVL137:
	la 3,.LC34@l(3)
	.loc 2 1026 0
	stw 0,12(1)
.LCFI154:
	.loc 2 1027 0
	crxor 6,6,6
	bl _Z10Sys_PrintfPKcz
.LVL138:
	.loc 2 1029 0
	lwz 0,12(1)
	li 3,0
	addi 1,1,8
	mtlr 0
	blr
.LFE2905:
	.size	_ZNK11idGameLocal14GetTraceEntityERK7trace_s, .-_ZNK11idGameLocal14GetTraceEntityERK7trace_s
	.align 2
	.globl _ZNK11idGameLocal10GetTargetsERK6idDictR6idListI11idEntityPtrI8idEntityEEPKc
	.type	_ZNK11idGameLocal10GetTargetsERK6idDictR6idListI11idEntityPtrI8idEntityEEPKc, @function
_ZNK11idGameLocal10GetTargetsERK6idDictR6idListI11idEntityPtrI8idEntityEEPKc:
.LFB2904:
	.loc 2 1011 0
.LVL139:
	mflr 0
.LCFI155:
	stwu 1,-8(1)
.LCFI156:
.LBB216:
	.loc 2 1014 0
	lis 3,.LC35@ha
.LVL140:
	la 3,.LC35@l(3)
.LBE216:
	.loc 2 1011 0
	stw 0,12(1)
.LCFI157:
.LBB217:
	.loc 2 1014 0
	crxor 6,6,6
	bl _Z10Sys_PrintfPKcz
.LVL141:
.LBE217:
	.loc 2 1016 0
	lwz 0,12(1)
	li 3,0
	addi 1,1,8
	mtlr 0
	blr
.LFE2904:
	.size	_ZNK11idGameLocal10GetTargetsERK6idDictR6idListI11idEntityPtrI8idEntityEEPKc, .-_ZNK11idGameLocal10GetTargetsERK6idDictR6idListI11idEntityPtrI8idEntityEEPKc
	.align 2
	.globl _ZN11idGameLocal20RemoveEntityFromHashEPKcP8idEntity
	.type	_ZN11idGameLocal20RemoveEntityFromHashEPKcP8idEntity, @function
_ZN11idGameLocal20RemoveEntityFromHashEPKcP8idEntity:
.LFB2903:
	.loc 2 998 0
.LVL142:
	mflr 0
.LCFI158:
	stwu 1,-8(1)
.LCFI159:
.LBB218:
	.loc 2 1001 0
	lis 3,.LC36@ha
.LVL143:
	la 3,.LC36@l(3)
.LBE218:
	.loc 2 998 0
	stw 0,12(1)
.LCFI160:
.LBB219:
	.loc 2 1001 0
	crxor 6,6,6
	bl _Z10Sys_PrintfPKcz
.LVL144:
.LBE219:
	.loc 2 1003 0
	lwz 0,12(1)
	li 3,0
	addi 1,1,8
	mtlr 0
	blr
.LFE2903:
	.size	_ZN11idGameLocal20RemoveEntityFromHashEPKcP8idEntity, .-_ZN11idGameLocal20RemoveEntityFromHashEPKcP8idEntity
	.align 2
	.globl _ZN11idGameLocal15AddEntityToHashEPKcP8idEntity
	.type	_ZN11idGameLocal15AddEntityToHashEPKcP8idEntity, @function
_ZN11idGameLocal15AddEntityToHashEPKcP8idEntity:
.LFB2902:
	.loc 2 988 0
.LVL145:
	mflr 0
.LCFI161:
	stwu 1,-8(1)
.LCFI162:
	.loc 2 989 0
	lis 3,.LC37@ha
.LVL146:
	la 3,.LC37@l(3)
	.loc 2 988 0
	stw 0,12(1)
.LCFI163:
	.loc 2 989 0
	crxor 6,6,6
	bl _Z10Sys_PrintfPKcz
.LVL147:
	.loc 2 990 0
	lwz 0,12(1)
	addi 1,1,8
	mtlr 0
	blr
.LFE2902:
	.size	_ZN11idGameLocal15AddEntityToHashEPKcP8idEntity, .-_ZN11idGameLocal15AddEntityToHashEPKcP8idEntity
	.align 2
	.globl _ZN11idGameLocal16SpawnMapEntitiesEv
	.type	_ZN11idGameLocal16SpawnMapEntitiesEv, @function
_ZN11idGameLocal16SpawnMapEntitiesEv:
.LFB2901:
	.loc 2 978 0
.LVL148:
	mflr 0
.LCFI164:
	stwu 1,-8(1)
.LCFI165:
	.loc 2 979 0
	lis 3,.LC38@ha
.LVL149:
	la 3,.LC38@l(3)
	.loc 2 978 0
	stw 0,12(1)
.LCFI166:
	.loc 2 979 0
	crxor 6,6,6
	bl _Z10Sys_PrintfPKcz
	.loc 2 980 0
	lwz 0,12(1)
	addi 1,1,8
	mtlr 0
	blr
.LFE2901:
	.size	_ZN11idGameLocal16SpawnMapEntitiesEv, .-_ZN11idGameLocal16SpawnMapEntitiesEv
	.align 2
	.globl _ZNK11idGameLocal9GameStateEv
	.type	_ZNK11idGameLocal9GameStateEv, @function
_ZNK11idGameLocal9GameStateEv:
.LFB2900:
	.loc 2 963 0
.LVL150:
	mflr 0
.LCFI167:
	stwu 1,-8(1)
.LCFI168:
.LBB220:
	.loc 2 966 0
	lis 3,.LC39@ha
.LVL151:
	la 3,.LC39@l(3)
.LBE220:
	.loc 2 963 0
	stw 0,12(1)
.LCFI169:
.LBB221:
	.loc 2 966 0
	crxor 6,6,6
	bl _Z10Sys_PrintfPKcz
.LBE221:
	.loc 2 968 0
	lwz 0,12(1)
	li 3,0
	addi 1,1,8
	mtlr 0
	blr
.LFE2900:
	.size	_ZNK11idGameLocal9GameStateEv, .-_ZNK11idGameLocal9GameStateEv
	.align 2
	.globl _ZN11idGameLocal8SetSkillEi
	.type	_ZN11idGameLocal8SetSkillEi, @function
_ZN11idGameLocal8SetSkillEi:
.LFB2899:
	.loc 2 951 0
.LVL152:
	mflr 0
.LCFI170:
	stwu 1,-8(1)
.LCFI171:
	.loc 2 952 0
	lis 3,.LC40@ha
.LVL153:
	la 3,.LC40@l(3)
	.loc 2 951 0
	stw 0,12(1)
.LCFI172:
	.loc 2 952 0
	crxor 6,6,6
	bl _Z10Sys_PrintfPKcz
.LVL154:
	.loc 2 953 0
	lwz 0,12(1)
	addi 1,1,8
	mtlr 0
	blr
.LFE2899:
	.size	_ZN11idGameLocal8SetSkillEi, .-_ZN11idGameLocal8SetSkillEi
	.align 2
	.globl _ZN11idGameLocal18InhibitEntitySpawnER6idDict
	.type	_ZN11idGameLocal18InhibitEntitySpawnER6idDict, @function
_ZN11idGameLocal18InhibitEntitySpawnER6idDict:
.LFB2898:
	.loc 2 938 0
.LVL155:
	mflr 0
.LCFI173:
	stwu 1,-8(1)
.LCFI174:
.LBB222:
	.loc 2 941 0
	lis 3,.LC41@ha
.LVL156:
	la 3,.LC41@l(3)
.LBE222:
	.loc 2 938 0
	stw 0,12(1)
.LCFI175:
.LBB223:
	.loc 2 941 0
	crxor 6,6,6
	bl _Z10Sys_PrintfPKcz
.LVL157:
.LBE223:
	.loc 2 943 0
	lwz 0,12(1)
	li 3,0
	addi 1,1,8
	mtlr 0
	blr
.LFE2898:
	.size	_ZN11idGameLocal18InhibitEntitySpawnER6idDict, .-_ZN11idGameLocal18InhibitEntitySpawnER6idDict
	.align 2
	.globl _ZNK11idGameLocal17FindEntityDefDictEPKcb
	.type	_ZNK11idGameLocal17FindEntityDefDictEPKcb, @function
_ZNK11idGameLocal17FindEntityDefDictEPKcb:
.LFB2897:
	.loc 2 927 0
.LVL158:
	mflr 0
.LCFI176:
	stwu 1,-8(1)
.LCFI177:
	.loc 2 928 0
	lis 3,.LC42@ha
.LVL159:
	la 3,.LC42@l(3)
	.loc 2 927 0
	stw 0,12(1)
.LCFI178:
	.loc 2 928 0
	crxor 6,6,6
	bl _Z10Sys_PrintfPKcz
.LVL160:
	.loc 2 930 0
	lwz 0,12(1)
	li 3,0
	addi 1,1,8
	mtlr 0
	blr
.LFE2897:
	.size	_ZNK11idGameLocal17FindEntityDefDictEPKcb, .-_ZNK11idGameLocal17FindEntityDefDictEPKcb
	.align 2
	.globl _ZNK11idGameLocal13FindEntityDefEPKcb
	.type	_ZNK11idGameLocal13FindEntityDefEPKcb, @function
_ZNK11idGameLocal13FindEntityDefEPKcb:
.LFB2896:
	.loc 2 916 0
.LVL161:
	mflr 0
.LCFI179:
	stwu 1,-8(1)
.LCFI180:
	.loc 2 917 0
	lis 3,.LC43@ha
.LVL162:
	la 3,.LC43@l(3)
	.loc 2 916 0
	stw 0,12(1)
.LCFI181:
	.loc 2 917 0
	crxor 6,6,6
	bl _Z10Sys_PrintfPKcz
.LVL163:
	.loc 2 919 0
	lwz 0,12(1)
	li 3,0
	addi 1,1,8
	mtlr 0
	blr
.LFE2896:
	.size	_ZNK11idGameLocal13FindEntityDefEPKcb, .-_ZNK11idGameLocal13FindEntityDefEPKcb
	.align 2
	.globl _ZN11idGameLocal14SpawnEntityDefERK6idDictPP8idEntityb
	.type	_ZN11idGameLocal14SpawnEntityDefERK6idDictPP8idEntityb, @function
_ZN11idGameLocal14SpawnEntityDefERK6idDictPP8idEntityb:
.LFB2895:
	.loc 2 903 0
.LVL164:
	mflr 0
.LCFI182:
	stwu 1,-8(1)
.LCFI183:
.LBB224:
	.loc 2 906 0
	lis 3,.LC44@ha
.LVL165:
	la 3,.LC44@l(3)
.LBE224:
	.loc 2 903 0
	stw 0,12(1)
.LCFI184:
.LBB225:
	.loc 2 906 0
	crxor 6,6,6
	bl _Z10Sys_PrintfPKcz
.LVL166:
.LBE225:
	.loc 2 908 0
	lwz 0,12(1)
	li 3,0
	addi 1,1,8
	mtlr 0
	blr
.LFE2895:
	.size	_ZN11idGameLocal14SpawnEntityDefERK6idDictPP8idEntityb, .-_ZN11idGameLocal14SpawnEntityDefERK6idDictPP8idEntityb
	.align 2
	.globl _ZN11idGameLocal15SpawnEntityTypeERK10idTypeInfoPK6idDictb
	.type	_ZN11idGameLocal15SpawnEntityTypeERK10idTypeInfoPK6idDictb, @function
_ZN11idGameLocal15SpawnEntityTypeERK10idTypeInfoPK6idDictb:
.LFB2894:
	.loc 2 889 0
.LVL167:
	mflr 0
.LCFI185:
	stwu 1,-8(1)
.LCFI186:
	.loc 2 890 0
	lis 3,.LC45@ha
.LVL168:
	la 3,.LC45@l(3)
	.loc 2 889 0
	stw 0,12(1)
.LCFI187:
	.loc 2 890 0
	crxor 6,6,6
	bl _Z10Sys_PrintfPKcz
.LVL169:
	.loc 2 892 0
	lwz 0,12(1)
	li 3,0
	addi 1,1,8
	mtlr 0
	blr
.LFE2894:
	.size	_ZN11idGameLocal15SpawnEntityTypeERK10idTypeInfoPK6idDictb, .-_ZN11idGameLocal15SpawnEntityTypeERK10idTypeInfoPK6idDictb
	.align 2
	.globl _ZN11idGameLocal16UnregisterEntityEP8idEntity
	.type	_ZN11idGameLocal16UnregisterEntityEP8idEntity, @function
_ZN11idGameLocal16UnregisterEntityEP8idEntity:
.LFB2893:
	.loc 2 879 0
.LVL170:
	mflr 0
.LCFI188:
	stwu 1,-8(1)
.LCFI189:
	.loc 2 880 0
	lis 3,.LC46@ha
.LVL171:
	la 3,.LC46@l(3)
	.loc 2 879 0
	stw 0,12(1)
.LCFI190:
	.loc 2 880 0
	crxor 6,6,6
	bl _Z10Sys_PrintfPKcz
.LVL172:
	.loc 2 881 0
	lwz 0,12(1)
	addi 1,1,8
	mtlr 0
	blr
.LFE2893:
	.size	_ZN11idGameLocal16UnregisterEntityEP8idEntity, .-_ZN11idGameLocal16UnregisterEntityEP8idEntity
	.align 2
	.globl _ZN11idGameLocal14RegisterEntityEP8idEntity
	.type	_ZN11idGameLocal14RegisterEntityEP8idEntity, @function
_ZN11idGameLocal14RegisterEntityEP8idEntity:
.LFB2892:
	.loc 2 869 0
.LVL173:
	mflr 0
.LCFI191:
	stwu 1,-8(1)
.LCFI192:
	.loc 2 870 0
	lis 3,.LC47@ha
.LVL174:
	la 3,.LC47@l(3)
	.loc 2 869 0
	stw 0,12(1)
.LCFI193:
	.loc 2 870 0
	crxor 6,6,6
	bl _Z10Sys_PrintfPKcz
.LVL175:
	.loc 2 871 0
	lwz 0,12(1)
	addi 1,1,8
	mtlr 0
	blr
.LFE2892:
	.size	_ZN11idGameLocal14RegisterEntityEP8idEntity, .-_ZN11idGameLocal14RegisterEntityEP8idEntity
	.align 2
	.globl _ZN11idGameLocal8CheatsOkEb
	.type	_ZN11idGameLocal8CheatsOkEb, @function
_ZN11idGameLocal8CheatsOkEb:
.LFB2891:
	.loc 2 856 0
.LVL176:
	mflr 0
.LCFI194:
	stwu 1,-8(1)
.LCFI195:
.LBB226:
	.loc 2 859 0
	lis 3,.LC48@ha
.LVL177:
	la 3,.LC48@l(3)
.LBE226:
	.loc 2 856 0
	stw 0,12(1)
.LCFI196:
.LBB227:
	.loc 2 859 0
	crxor 6,6,6
	bl _Z10Sys_PrintfPKcz
.LVL178:
.LBE227:
	.loc 2 861 0
	lwz 0,12(1)
	li 3,0
	addi 1,1,8
	mtlr 0
	blr
.LFE2891:
	.size	_ZN11idGameLocal8CheatsOkEb, .-_ZN11idGameLocal8CheatsOkEb
	.align 2
	.globl _ZN11idGameLocal21RemoveAllAASObstaclesEv
	.type	_ZN11idGameLocal21RemoveAllAASObstaclesEv, @function
_ZN11idGameLocal21RemoveAllAASObstaclesEv:
.LFB2890:
	.loc 2 846 0
.LVL179:
	mflr 0
.LCFI197:
	stwu 1,-8(1)
.LCFI198:
	.loc 2 847 0
	lis 3,.LC49@ha
.LVL180:
	la 3,.LC49@l(3)
	.loc 2 846 0
	stw 0,12(1)
.LCFI199:
	.loc 2 847 0
	crxor 6,6,6
	bl _Z10Sys_PrintfPKcz
	.loc 2 848 0
	lwz 0,12(1)
	addi 1,1,8
	mtlr 0
	blr
.LFE2890:
	.size	_ZN11idGameLocal21RemoveAllAASObstaclesEv, .-_ZN11idGameLocal21RemoveAllAASObstaclesEv
	.align 2
	.globl _ZN11idGameLocal17RemoveAASObstacleEi
	.type	_ZN11idGameLocal17RemoveAASObstacleEi, @function
_ZN11idGameLocal17RemoveAASObstacleEi:
.LFB2889:
	.loc 2 836 0
.LVL181:
	mflr 0
.LCFI200:
	stwu 1,-8(1)
.LCFI201:
	.loc 2 837 0
	lis 3,.LC50@ha
.LVL182:
	la 3,.LC50@l(3)
	.loc 2 836 0
	stw 0,12(1)
.LCFI202:
	.loc 2 837 0
	crxor 6,6,6
	bl _Z10Sys_PrintfPKcz
.LVL183:
	.loc 2 838 0
	lwz 0,12(1)
	addi 1,1,8
	mtlr 0
	blr
.LFE2889:
	.size	_ZN11idGameLocal17RemoveAASObstacleEi, .-_ZN11idGameLocal17RemoveAASObstacleEi
	.align 2
	.globl _ZN11idGameLocal14AddAASObstacleERK8idBounds
	.type	_ZN11idGameLocal14AddAASObstacleERK8idBounds, @function
_ZN11idGameLocal14AddAASObstacleERK8idBounds:
.LFB2888:
	.loc 2 823 0
.LVL184:
	mflr 0
.LCFI203:
	stwu 1,-8(1)
.LCFI204:
.LBB228:
	.loc 2 826 0
	lis 3,.LC51@ha
.LVL185:
	la 3,.LC51@l(3)
.LBE228:
	.loc 2 823 0
	stw 0,12(1)
.LCFI205:
.LBB229:
	.loc 2 826 0
	crxor 6,6,6
	bl _Z10Sys_PrintfPKcz
.LVL186:
.LBE229:
	.loc 2 828 0
	lwz 0,12(1)
	li 3,0
	addi 1,1,8
	mtlr 0
	blr
.LFE2888:
	.size	_ZN11idGameLocal14AddAASObstacleERK8idBounds, .-_ZN11idGameLocal14AddAASObstacleERK8idBounds
	.align 2
	.globl _ZN11idGameLocal15SetAASAreaStateERK8idBoundsib
	.type	_ZN11idGameLocal15SetAASAreaStateERK8idBoundsib, @function
_ZN11idGameLocal15SetAASAreaStateERK8idBoundsib:
.LFB2887:
	.loc 2 813 0
.LVL187:
	mflr 0
.LCFI206:
	stwu 1,-8(1)
.LCFI207:
	.loc 2 814 0
	lis 3,.LC52@ha
.LVL188:
	la 3,.LC52@l(3)
	.loc 2 813 0
	stw 0,12(1)
.LCFI208:
	.loc 2 814 0
	crxor 6,6,6
	bl _Z10Sys_PrintfPKcz
.LVL189:
	.loc 2 815 0
	lwz 0,12(1)
	addi 1,1,8
	mtlr 0
	blr
.LFE2887:
	.size	_ZN11idGameLocal15SetAASAreaStateERK8idBoundsib, .-_ZN11idGameLocal15SetAASAreaStateERK8idBoundsib
	.align 2
	.globl _ZNK11idGameLocal6GetAASEPKc
	.type	_ZNK11idGameLocal6GetAASEPKc, @function
_ZNK11idGameLocal6GetAASEPKc:
.LFB2886:
	.loc 2 802 0
.LVL190:
	mflr 0
.LCFI209:
	stwu 1,-8(1)
.LCFI210:
	.loc 2 803 0
	lis 3,.LC53@ha
.LVL191:
	la 3,.LC53@l(3)
	.loc 2 802 0
	stw 0,12(1)
.LCFI211:
	.loc 2 803 0
	crxor 6,6,6
	bl _Z10Sys_PrintfPKcz
.LVL192:
	.loc 2 805 0
	lwz 0,12(1)
	li 3,0
	addi 1,1,8
	mtlr 0
	blr
.LFE2886:
	.size	_ZNK11idGameLocal6GetAASEPKc, .-_ZNK11idGameLocal6GetAASEPKc
	.align 2
	.globl _ZNK11idGameLocal6GetAASEi
	.type	_ZNK11idGameLocal6GetAASEi, @function
_ZNK11idGameLocal6GetAASEi:
.LFB2885:
	.loc 2 791 0
.LVL193:
	mflr 0
.LCFI212:
	stwu 1,-8(1)
.LCFI213:
	.loc 2 792 0
	lis 3,.LC54@ha
.LVL194:
	la 3,.LC54@l(3)
	.loc 2 791 0
	stw 0,12(1)
.LCFI214:
	.loc 2 792 0
	crxor 6,6,6
	bl _Z10Sys_PrintfPKcz
.LVL195:
	.loc 2 794 0
	lwz 0,12(1)
	li 3,0
	addi 1,1,8
	mtlr 0
	blr
.LFE2885:
	.size	_ZNK11idGameLocal6GetAASEi, .-_ZNK11idGameLocal6GetAASEi
	.align 2
	.globl _ZNK11idGameLocal6NumAASEv
	.type	_ZNK11idGameLocal6NumAASEv, @function
_ZNK11idGameLocal6NumAASEv:
.LFB2884:
	.loc 2 778 0
.LVL196:
	mflr 0
.LCFI215:
	stwu 1,-8(1)
.LCFI216:
.LBB230:
	.loc 2 781 0
	lis 3,.LC55@ha
.LVL197:
	la 3,.LC55@l(3)
.LBE230:
	.loc 2 778 0
	stw 0,12(1)
.LCFI217:
.LBB231:
	.loc 2 781 0
	crxor 6,6,6
	bl _Z10Sys_PrintfPKcz
.LBE231:
	.loc 2 783 0
	lwz 0,12(1)
	li 3,0
	addi 1,1,8
	mtlr 0
	blr
.LFE2884:
	.size	_ZNK11idGameLocal6NumAASEv, .-_ZNK11idGameLocal6NumAASEv
	.align 2
	.globl _ZN11idGameLocal12RunDebugInfoEv
	.type	_ZN11idGameLocal12RunDebugInfoEv, @function
_ZN11idGameLocal12RunDebugInfoEv:
.LFB2883:
	.loc 2 768 0
.LVL198:
	mflr 0
.LCFI218:
	stwu 1,-8(1)
.LCFI219:
	.loc 2 769 0
	lis 3,.LC56@ha
.LVL199:
	la 3,.LC56@l(3)
	.loc 2 768 0
	stw 0,12(1)
.LCFI220:
	.loc 2 769 0
	crxor 6,6,6
	bl _Z10Sys_PrintfPKcz
	.loc 2 770 0
	lwz 0,12(1)
	addi 1,1,8
	mtlr 0
	blr
.LFE2883:
	.size	_ZN11idGameLocal12RunDebugInfoEv, .-_ZN11idGameLocal12RunDebugInfoEv
	.align 2
	.globl _ZN11idGameLocal11ShowTargetsEv
	.type	_ZN11idGameLocal11ShowTargetsEv, @function
_ZN11idGameLocal11ShowTargetsEv:
.LFB2882:
	.loc 2 758 0
.LVL200:
	mflr 0
.LCFI221:
	stwu 1,-8(1)
.LCFI222:
	.loc 2 759 0
	lis 3,.LC57@ha
.LVL201:
	la 3,.LC57@l(3)
	.loc 2 758 0
	stw 0,12(1)
.LCFI223:
	.loc 2 759 0
	crxor 6,6,6
	bl _Z10Sys_PrintfPKcz
	.loc 2 760 0
	lwz 0,12(1)
	addi 1,1,8
	mtlr 0
	blr
.LFE2882:
	.size	_ZN11idGameLocal11ShowTargetsEv, .-_ZN11idGameLocal11ShowTargetsEv
	.align 2
	.globl _ZN11idGameLocal22CallObjectFrameCommandEP8idEntityPKc
	.type	_ZN11idGameLocal22CallObjectFrameCommandEP8idEntityPKc, @function
_ZN11idGameLocal22CallObjectFrameCommandEP8idEntityPKc:
.LFB2881:
	.loc 2 748 0
.LVL202:
	mflr 0
.LCFI224:
	stwu 1,-8(1)
.LCFI225:
	.loc 2 749 0
	lis 3,.LC58@ha
.LVL203:
	la 3,.LC58@l(3)
	.loc 2 748 0
	stw 0,12(1)
.LCFI226:
	.loc 2 749 0
	crxor 6,6,6
	bl _Z10Sys_PrintfPKcz
.LVL204:
	.loc 2 750 0
	lwz 0,12(1)
	addi 1,1,8
	mtlr 0
	blr
.LFE2881:
	.size	_ZN11idGameLocal22CallObjectFrameCommandEP8idEntityPKc, .-_ZN11idGameLocal22CallObjectFrameCommandEP8idEntityPKc
	.align 2
	.globl _ZN11idGameLocal16CallFrameCommandEP8idEntityPK10function_t
	.type	_ZN11idGameLocal16CallFrameCommandEP8idEntityPK10function_t, @function
_ZN11idGameLocal16CallFrameCommandEP8idEntityPK10function_t:
.LFB2880:
	.loc 2 738 0
.LVL205:
	mflr 0
.LCFI227:
	stwu 1,-8(1)
.LCFI228:
	.loc 2 739 0
	lis 3,.LC59@ha
.LVL206:
	la 3,.LC59@l(3)
	.loc 2 738 0
	stw 0,12(1)
.LCFI229:
	.loc 2 739 0
	crxor 6,6,6
	bl _Z10Sys_PrintfPKcz
.LVL207:
	.loc 2 740 0
	lwz 0,12(1)
	addi 1,1,8
	mtlr 0
	blr
.LFE2880:
	.size	_ZN11idGameLocal16CallFrameCommandEP8idEntityPK10function_t, .-_ZN11idGameLocal16CallFrameCommandEP8idEntityPK10function_t
	.align 2
	.globl _ZNK11idGameLocal10GetMapNameEv
	.type	_ZNK11idGameLocal10GetMapNameEv, @function
_ZNK11idGameLocal10GetMapNameEv:
.LFB2879:
	.loc 2 727 0
.LVL208:
	mflr 0
.LCFI230:
	stwu 1,-8(1)
.LCFI231:
	.loc 2 728 0
	lis 3,.LC60@ha
.LVL209:
	la 3,.LC60@l(3)
	.loc 2 727 0
	stw 0,12(1)
.LCFI232:
	.loc 2 728 0
	crxor 6,6,6
	bl _Z10Sys_PrintfPKcz
	.loc 2 730 0
	lwz 0,12(1)
	li 3,0
	addi 1,1,8
	mtlr 0
	blr
.LFE2879:
	.size	_ZNK11idGameLocal10GetMapNameEv, .-_ZNK11idGameLocal10GetMapNameEv
	.align 2
	.globl _ZN11idGameLocal11GetLevelMapEv
	.type	_ZN11idGameLocal11GetLevelMapEv, @function
_ZN11idGameLocal11GetLevelMapEv:
.LFB2878:
	.loc 2 716 0
.LVL210:
	mflr 0
.LCFI233:
	stwu 1,-8(1)
.LCFI234:
	.loc 2 717 0
	lis 3,.LC61@ha
.LVL211:
	la 3,.LC61@l(3)
	.loc 2 716 0
	stw 0,12(1)
.LCFI235:
	.loc 2 717 0
	crxor 6,6,6
	bl _Z10Sys_PrintfPKcz
	.loc 2 719 0
	lwz 0,12(1)
	li 3,0
	addi 1,1,8
	mtlr 0
	blr
.LFE2878:
	.size	_ZN11idGameLocal11GetLevelMapEv, .-_ZN11idGameLocal11GetLevelMapEv
	.align 2
	.globl _ZN11idGameLocal22HandleMainMenuCommandsEPKcP15idUserInterface
	.type	_ZN11idGameLocal22HandleMainMenuCommandsEPKcP15idUserInterface, @function
_ZN11idGameLocal22HandleMainMenuCommandsEPKcP15idUserInterface:
.LFB2877:
	.loc 2 704 0
.LVL212:
	mflr 0
.LCFI236:
	stwu 1,-8(1)
.LCFI237:
	.loc 2 705 0
	lis 3,.LC62@ha
.LVL213:
	la 3,.LC62@l(3)
	.loc 2 704 0
	stw 0,12(1)
.LCFI238:
	.loc 2 705 0
	crxor 6,6,6
	bl _Z10Sys_PrintfPKcz
.LVL214:
	.loc 2 706 0
	lwz 0,12(1)
	addi 1,1,8
	mtlr 0
	blr
.LFE2877:
	.size	_ZN11idGameLocal22HandleMainMenuCommandsEPKcP15idUserInterface, .-_ZN11idGameLocal22HandleMainMenuCommandsEPKcP15idUserInterface
	.align 2
	.globl _ZN11idGameLocal17HandleGuiCommandsEPKc
	.type	_ZN11idGameLocal17HandleGuiCommandsEPKc, @function
_ZN11idGameLocal17HandleGuiCommandsEPKc:
.LFB2876:
	.loc 2 693 0
.LVL215:
	mflr 0
.LCFI239:
	stwu 1,-8(1)
.LCFI240:
	.loc 2 694 0
	lis 3,.LC63@ha
.LVL216:
	la 3,.LC63@l(3)
	.loc 2 693 0
	stw 0,12(1)
.LCFI241:
	.loc 2 694 0
	crxor 6,6,6
	bl _Z10Sys_PrintfPKcz
.LVL217:
	.loc 2 696 0
	lwz 0,12(1)
	li 3,0
	addi 1,1,8
	mtlr 0
	blr
.LFE2876:
	.size	_ZN11idGameLocal17HandleGuiCommandsEPKc, .-_ZN11idGameLocal17HandleGuiCommandsEPKc
	.align 2
	.globl _ZN11idGameLocal9StartMenuEv
	.type	_ZN11idGameLocal9StartMenuEv, @function
_ZN11idGameLocal9StartMenuEv:
.LFB2875:
	.loc 2 682 0
.LVL218:
	mflr 0
.LCFI242:
	stwu 1,-8(1)
.LCFI243:
	.loc 2 683 0
	lis 3,.LC64@ha
.LVL219:
	la 3,.LC64@l(3)
	.loc 2 682 0
	stw 0,12(1)
.LCFI244:
	.loc 2 683 0
	crxor 6,6,6
	bl _Z10Sys_PrintfPKcz
	.loc 2 685 0
	lwz 0,12(1)
	li 3,0
	addi 1,1,8
	mtlr 0
	blr
.LFE2875:
	.size	_ZN11idGameLocal9StartMenuEv, .-_ZN11idGameLocal9StartMenuEv
	.align 2
	.globl _ZN11idGameLocal9HandleESCEPP15idUserInterface
	.type	_ZN11idGameLocal9HandleESCEPP15idUserInterface, @function
_ZN11idGameLocal9HandleESCEPP15idUserInterface:
.LFB2874:
	.loc 2 669 0
.LVL220:
	mflr 0
.LCFI245:
	stwu 1,-8(1)
.LCFI246:
.LBB232:
	.loc 2 672 0
	lis 3,.LC65@ha
.LVL221:
	la 3,.LC65@l(3)
.LBE232:
	.loc 2 669 0
	stw 0,12(1)
.LCFI247:
.LBB233:
	.loc 2 672 0
	crxor 6,6,6
	bl _Z10Sys_PrintfPKcz
.LVL222:
.LBE233:
	.loc 2 674 0
	lwz 0,12(1)
	li 3,0
	addi 1,1,8
	mtlr 0
	blr
.LFE2874:
	.size	_ZN11idGameLocal9HandleESCEPP15idUserInterface, .-_ZN11idGameLocal9HandleESCEPP15idUserInterface
	.align 2
	.globl _ZN11idGameLocal4DrawEi
	.type	_ZN11idGameLocal4DrawEi, @function
_ZN11idGameLocal4DrawEi:
.LFB2873:
	.loc 2 656 0
.LVL223:
	mflr 0
.LCFI248:
	stwu 1,-8(1)
.LCFI249:
.LBB234:
	.loc 2 659 0
	lis 3,.LC66@ha
.LVL224:
	la 3,.LC66@l(3)
.LBE234:
	.loc 2 656 0
	stw 0,12(1)
.LCFI250:
.LBB235:
	.loc 2 659 0
	crxor 6,6,6
	bl _Z10Sys_PrintfPKcz
.LVL225:
.LBE235:
	.loc 2 661 0
	lwz 0,12(1)
	li 3,0
	addi 1,1,8
	mtlr 0
	blr
.LFE2873:
	.size	_ZN11idGameLocal4DrawEi, .-_ZN11idGameLocal4DrawEi
	.align 2
	.globl _ZNK11idGameLocal7CalcFovEfRfS0_
	.type	_ZNK11idGameLocal7CalcFovEfRfS0_, @function
_ZNK11idGameLocal7CalcFovEfRfS0_:
.LFB2872:
	.loc 2 644 0
.LVL226:
	mflr 0
.LCFI251:
	stwu 1,-8(1)
.LCFI252:
	.loc 2 645 0
	lis 3,.LC67@ha
.LVL227:
	la 3,.LC67@l(3)
	.loc 2 644 0
	stw 0,12(1)
.LCFI253:
	.loc 2 645 0
	crxor 6,6,6
	bl _Z10Sys_PrintfPKcz
.LVL228:
	.loc 2 646 0
	lwz 0,12(1)
	addi 1,1,8
	mtlr 0
	blr
.LFE2872:
	.size	_ZNK11idGameLocal7CalcFovEfRfS0_, .-_ZNK11idGameLocal7CalcFovEfRfS0_
	.align 2
	.globl _ZN11idGameLocal20SortActiveEntityListEv
	.type	_ZN11idGameLocal20SortActiveEntityListEv, @function
_ZN11idGameLocal20SortActiveEntityListEv:
.LFB2870:
	.loc 2 610 0
.LVL229:
	mflr 0
.LCFI254:
	stwu 1,-8(1)
.LCFI255:
	.loc 2 611 0
	lis 3,.LC68@ha
.LVL230:
	la 3,.LC68@l(3)
	.loc 2 610 0
	stw 0,12(1)
.LCFI256:
	.loc 2 611 0
	crxor 6,6,6
	bl _Z10Sys_PrintfPKcz
	.loc 2 612 0
	lwz 0,12(1)
	addi 1,1,8
	mtlr 0
	blr
.LFE2870:
	.size	_ZN11idGameLocal20SortActiveEntityListEv, .-_ZN11idGameLocal20SortActiveEntityListEv
	.align 2
	.globl _ZN11idGameLocal13UpdateGravityEv
	.type	_ZN11idGameLocal13UpdateGravityEv, @function
_ZN11idGameLocal13UpdateGravityEv:
.LFB2868:
	.loc 2 588 0
.LVL231:
	mflr 0
.LCFI257:
	stwu 1,-8(1)
.LCFI258:
	.loc 2 589 0
	lis 3,.LC69@ha
.LVL232:
	la 3,.LC69@l(3)
	.loc 2 588 0
	stw 0,12(1)
.LCFI259:
	.loc 2 589 0
	crxor 6,6,6
	bl _Z10Sys_PrintfPKcz
	.loc 2 590 0
	lwz 0,12(1)
	addi 1,1,8
	mtlr 0
	blr
.LFE2868:
	.size	_ZN11idGameLocal13UpdateGravityEv, .-_ZN11idGameLocal13UpdateGravityEv
	.align 2
	.globl _ZNK11idGameLocal21InPlayerConnectedAreaEP8idEntity
	.type	_ZNK11idGameLocal21InPlayerConnectedAreaEP8idEntity, @function
_ZNK11idGameLocal21InPlayerConnectedAreaEP8idEntity:
.LFB2867:
	.loc 2 575 0
.LVL233:
	mflr 0
.LCFI260:
	stwu 1,-8(1)
.LCFI261:
.LBB236:
	.loc 2 578 0
	lis 3,.LC70@ha
.LVL234:
	la 3,.LC70@l(3)
.LBE236:
	.loc 2 575 0
	stw 0,12(1)
.LCFI262:
.LBB237:
	.loc 2 578 0
	crxor 6,6,6
	bl _Z10Sys_PrintfPKcz
.LVL235:
.LBE237:
	.loc 2 580 0
	lwz 0,12(1)
	li 3,0
	addi 1,1,8
	mtlr 0
	blr
.LFE2867:
	.size	_ZNK11idGameLocal21InPlayerConnectedAreaEP8idEntity, .-_ZNK11idGameLocal21InPlayerConnectedAreaEP8idEntity
	.align 2
	.globl _ZNK11idGameLocal11InPlayerPVSEP8idEntity
	.type	_ZNK11idGameLocal11InPlayerPVSEP8idEntity, @function
_ZNK11idGameLocal11InPlayerPVSEP8idEntity:
.LFB2866:
	.loc 2 560 0
.LVL236:
	mflr 0
.LCFI263:
	stwu 1,-8(1)
.LCFI264:
.LBB238:
	.loc 2 563 0
	lis 3,.LC71@ha
.LVL237:
	la 3,.LC71@l(3)
.LBE238:
	.loc 2 560 0
	stw 0,12(1)
.LCFI265:
.LBB239:
	.loc 2 563 0
	crxor 6,6,6
	bl _Z10Sys_PrintfPKcz
.LVL238:
.LBE239:
	.loc 2 565 0
	lwz 0,12(1)
	li 3,0
	addi 1,1,8
	mtlr 0
	blr
.LFE2866:
	.size	_ZNK11idGameLocal11InPlayerPVSEP8idEntity, .-_ZNK11idGameLocal11InPlayerPVSEP8idEntity
	.align 2
	.globl _ZN11idGameLocal13FreePlayerPVSEv
	.type	_ZN11idGameLocal13FreePlayerPVSEv, @function
_ZN11idGameLocal13FreePlayerPVSEv:
.LFB2865:
	.loc 2 548 0
.LVL239:
	mflr 0
.LCFI266:
	stwu 1,-8(1)
.LCFI267:
	.loc 2 549 0
	lis 3,.LC72@ha
.LVL240:
	la 3,.LC72@l(3)
	.loc 2 548 0
	stw 0,12(1)
.LCFI268:
	.loc 2 549 0
	crxor 6,6,6
	bl _Z10Sys_PrintfPKcz
	.loc 2 550 0
	lwz 0,12(1)
	addi 1,1,8
	mtlr 0
	blr
.LFE2865:
	.size	_ZN11idGameLocal13FreePlayerPVSEv, .-_ZN11idGameLocal13FreePlayerPVSEv
	.align 2
	.globl _ZN11idGameLocal14SetupPlayerPVSEv
	.type	_ZN11idGameLocal14SetupPlayerPVSEv, @function
_ZN11idGameLocal14SetupPlayerPVSEv:
.LFB2864:
	.loc 2 538 0
.LVL241:
	mflr 0
.LCFI269:
	stwu 1,-8(1)
.LCFI270:
	.loc 2 539 0
	lis 3,.LC73@ha
.LVL242:
	la 3,.LC73@l(3)
	.loc 2 538 0
	stw 0,12(1)
.LCFI271:
	.loc 2 539 0
	crxor 6,6,6
	bl _Z10Sys_PrintfPKcz
	.loc 2 540 0
	lwz 0,12(1)
	addi 1,1,8
	mtlr 0
	blr
.LFE2864:
	.size	_ZN11idGameLocal14SetupPlayerPVSEv, .-_ZN11idGameLocal14SetupPlayerPVSEv
	.align 2
	.globl _ZNK11idGameLocal14GetLocalPlayerEv
	.type	_ZNK11idGameLocal14GetLocalPlayerEv, @function
_ZNK11idGameLocal14GetLocalPlayerEv:
.LFB2862:
	.loc 2 514 0
.LVL243:
	mflr 0
.LCFI272:
	stwu 1,-8(1)
.LCFI273:
	.loc 2 515 0
	lis 3,.LC74@ha
.LVL244:
	la 3,.LC74@l(3)
	.loc 2 514 0
	stw 0,12(1)
.LCFI274:
	.loc 2 515 0
	crxor 6,6,6
	bl _Z10Sys_PrintfPKcz
	.loc 2 517 0
	lwz 0,12(1)
	li 3,0
	addi 1,1,8
	mtlr 0
	blr
.LFE2862:
	.size	_ZNK11idGameLocal14GetLocalPlayerEv, .-_ZNK11idGameLocal14GetLocalPlayerEv
	.align 2
	.globl _ZNK11idGameLocal16GetNextClientNumEi
	.type	_ZNK11idGameLocal16GetNextClientNumEi, @function
_ZNK11idGameLocal16GetNextClientNumEi:
.LFB2861:
	.loc 2 496 0
.LVL245:
	mflr 0
.LCFI275:
	stwu 1,-8(1)
.LCFI276:
.LBB240:
	.loc 2 499 0
	lis 3,.LC75@ha
.LVL246:
	la 3,.LC75@l(3)
.LBE240:
	.loc 2 496 0
	stw 0,12(1)
.LCFI277:
.LBB241:
	.loc 2 499 0
	crxor 6,6,6
	bl _Z10Sys_PrintfPKcz
.LVL247:
.LBE241:
	.loc 2 501 0
	lwz 0,12(1)
	li 3,0
	addi 1,1,8
	mtlr 0
	blr
.LFE2861:
	.size	_ZNK11idGameLocal16GetNextClientNumEi, .-_ZNK11idGameLocal16GetNextClientNumEi
	.align 2
	.globl _ZNK11idGameLocal18GetClientByCmdArgsERK9idCmdArgs
	.type	_ZNK11idGameLocal18GetClientByCmdArgsERK9idCmdArgs, @function
_ZNK11idGameLocal18GetClientByCmdArgsERK9idCmdArgs:
.LFB2860:
	.loc 2 485 0
.LVL248:
	mflr 0
.LCFI278:
	stwu 1,-8(1)
.LCFI279:
	.loc 2 486 0
	lis 3,.LC76@ha
.LVL249:
	la 3,.LC76@l(3)
	.loc 2 485 0
	stw 0,12(1)
.LCFI280:
	.loc 2 486 0
	crxor 6,6,6
	bl _Z10Sys_PrintfPKcz
.LVL250:
	.loc 2 488 0
	lwz 0,12(1)
	li 3,0
	addi 1,1,8
	mtlr 0
	blr
.LFE2860:
	.size	_ZNK11idGameLocal18GetClientByCmdArgsERK9idCmdArgs, .-_ZNK11idGameLocal18GetClientByCmdArgsERK9idCmdArgs
	.align 2
	.globl _ZNK11idGameLocal15GetClientByNameEPKc
	.type	_ZNK11idGameLocal15GetClientByNameEPKc, @function
_ZNK11idGameLocal15GetClientByNameEPKc:
.LFB2859:
	.loc 2 474 0
.LVL251:
	mflr 0
.LCFI281:
	stwu 1,-8(1)
.LCFI282:
	.loc 2 475 0
	lis 3,.LC77@ha
.LVL252:
	la 3,.LC77@l(3)
	.loc 2 474 0
	stw 0,12(1)
.LCFI283:
	.loc 2 475 0
	crxor 6,6,6
	bl _Z10Sys_PrintfPKcz
.LVL253:
	.loc 2 477 0
	lwz 0,12(1)
	li 3,0
	addi 1,1,8
	mtlr 0
	blr
.LFE2859:
	.size	_ZNK11idGameLocal15GetClientByNameEPKc, .-_ZNK11idGameLocal15GetClientByNameEPKc
	.align 2
	.globl _ZNK11idGameLocal14GetClientByNumEi
	.type	_ZNK11idGameLocal14GetClientByNumEi, @function
_ZNK11idGameLocal14GetClientByNumEi:
.LFB2858:
	.loc 2 463 0
.LVL254:
	mflr 0
.LCFI284:
	stwu 1,-8(1)
.LCFI285:
	.loc 2 464 0
	lis 3,.LC78@ha
.LVL255:
	la 3,.LC78@l(3)
	.loc 2 463 0
	stw 0,12(1)
.LCFI286:
	.loc 2 464 0
	crxor 6,6,6
	bl _Z10Sys_PrintfPKcz
.LVL256:
	.loc 2 466 0
	lwz 0,12(1)
	li 3,0
	addi 1,1,8
	mtlr 0
	blr
.LFE2858:
	.size	_ZNK11idGameLocal14GetClientByNumEi, .-_ZNK11idGameLocal14GetClientByNumEi
	.align 2
	.globl _ZN11idGameLocal11SpawnPlayerEi
	.type	_ZN11idGameLocal11SpawnPlayerEi, @function
_ZN11idGameLocal11SpawnPlayerEi:
.LFB2857:
	.loc 2 453 0
.LVL257:
	mflr 0
.LCFI287:
	stwu 1,-8(1)
.LCFI288:
	.loc 2 454 0
	lis 3,.LC79@ha
.LVL258:
	la 3,.LC79@l(3)
	.loc 2 453 0
	stw 0,12(1)
.LCFI289:
	.loc 2 454 0
	crxor 6,6,6
	bl _Z10Sys_PrintfPKcz
.LVL259:
	.loc 2 455 0
	lwz 0,12(1)
	addi 1,1,8
	mtlr 0
	blr
.LFE2857:
	.size	_ZN11idGameLocal11SpawnPlayerEi, .-_ZN11idGameLocal11SpawnPlayerEi
	.align 2
	.globl _ZN11idGameLocal16InitScriptForMapEv
	.type	_ZN11idGameLocal16InitScriptForMapEv, @function
_ZN11idGameLocal16InitScriptForMapEv:
.LFB2856:
	.loc 2 443 0
.LVL260:
	mflr 0
.LCFI290:
	stwu 1,-8(1)
.LCFI291:
	.loc 2 444 0
	lis 3,.LC80@ha
.LVL261:
	la 3,.LC80@l(3)
	.loc 2 443 0
	stw 0,12(1)
.LCFI292:
	.loc 2 444 0
	crxor 6,6,6
	bl _Z10Sys_PrintfPKcz
	.loc 2 445 0
	lwz 0,12(1)
	addi 1,1,8
	mtlr 0
	blr
.LFE2856:
	.size	_ZN11idGameLocal16InitScriptForMapEv, .-_ZN11idGameLocal16InitScriptForMapEv
	.align 2
	.globl _ZN11idGameLocal20CacheDictionaryMediaEPK6idDict
	.type	_ZN11idGameLocal20CacheDictionaryMediaEPK6idDict, @function
_ZN11idGameLocal20CacheDictionaryMediaEPK6idDict:
.LFB2855:
	.loc 2 433 0
.LVL262:
	mflr 0
.LCFI293:
	stwu 1,-8(1)
.LCFI294:
	.loc 2 434 0
	lis 3,.LC81@ha
.LVL263:
	la 3,.LC81@l(3)
	.loc 2 433 0
	stw 0,12(1)
.LCFI295:
	.loc 2 434 0
	crxor 6,6,6
	bl _Z10Sys_PrintfPKcz
.LVL264:
	.loc 2 435 0
	lwz 0,12(1)
	addi 1,1,8
	mtlr 0
	blr
.LFE2855:
	.size	_ZN11idGameLocal20CacheDictionaryMediaEPK6idDict, .-_ZN11idGameLocal20CacheDictionaryMediaEPK6idDict
	.align 2
	.globl _ZN11idGameLocal14GetShakeSoundsEPK6idDict
	.type	_ZN11idGameLocal14GetShakeSoundsEPK6idDict, @function
_ZN11idGameLocal14GetShakeSoundsEPK6idDict:
.LFB2854:
	.loc 2 419 0
.LVL265:
	mflr 0
.LCFI296:
	stwu 1,-8(1)
.LCFI297:
	.loc 2 420 0
	lis 3,.LC82@ha
.LVL266:
	la 3,.LC82@l(3)
	.loc 2 419 0
	stw 0,12(1)
.LCFI298:
	.loc 2 420 0
	crxor 6,6,6
	bl _Z10Sys_PrintfPKcz
.LVL267:
	.loc 2 421 0
	lwz 0,12(1)
	addi 1,1,8
	mtlr 0
	blr
.LFE2854:
	.size	_ZN11idGameLocal14GetShakeSoundsEPK6idDict, .-_ZN11idGameLocal14GetShakeSoundsEPK6idDict
	.align 2
	.globl _ZN11idGameLocal13DumpOggSoundsEv
	.type	_ZN11idGameLocal13DumpOggSoundsEv, @function
_ZN11idGameLocal13DumpOggSoundsEv:
.LFB2853:
	.loc 2 409 0
.LVL268:
	mflr 0
.LCFI299:
	stwu 1,-8(1)
.LCFI300:
	.loc 2 410 0
	lis 3,.LC83@ha
.LVL269:
	la 3,.LC83@l(3)
	.loc 2 409 0
	stw 0,12(1)
.LCFI301:
	.loc 2 410 0
	crxor 6,6,6
	bl _Z10Sys_PrintfPKcz
	.loc 2 411 0
	lwz 0,12(1)
	addi 1,1,8
	mtlr 0
	blr
.LFE2853:
	.size	_ZN11idGameLocal13DumpOggSoundsEv, .-_ZN11idGameLocal13DumpOggSoundsEv
	.align 2
	.globl _ZN11idGameLocal11MapShutdownEv
	.type	_ZN11idGameLocal11MapShutdownEv, @function
_ZN11idGameLocal11MapShutdownEv:
.LFB2852:
	.loc 2 399 0
.LVL270:
	mflr 0
.LCFI302:
	stwu 1,-8(1)
.LCFI303:
	.loc 2 400 0
	lis 3,.LC84@ha
.LVL271:
	la 3,.LC84@l(3)
	.loc 2 399 0
	stw 0,12(1)
.LCFI304:
	.loc 2 400 0
	crxor 6,6,6
	bl _Z10Sys_PrintfPKcz
	.loc 2 401 0
	lwz 0,12(1)
	addi 1,1,8
	mtlr 0
	blr
.LFE2852:
	.size	_ZN11idGameLocal11MapShutdownEv, .-_ZN11idGameLocal11MapShutdownEv
	.align 2
	.globl _ZN11idGameLocal8MapClearEb
	.type	_ZN11idGameLocal8MapClearEb, @function
_ZN11idGameLocal8MapClearEb:
.LFB2851:
	.loc 2 389 0
.LVL272:
	mflr 0
.LCFI305:
	stwu 1,-8(1)
.LCFI306:
	.loc 2 390 0
	lis 3,.LC85@ha
.LVL273:
	la 3,.LC85@l(3)
	.loc 2 389 0
	stw 0,12(1)
.LCFI307:
	.loc 2 390 0
	crxor 6,6,6
	bl _Z10Sys_PrintfPKcz
.LVL274:
	.loc 2 391 0
	lwz 0,12(1)
	addi 1,1,8
	mtlr 0
	blr
.LFE2851:
	.size	_ZN11idGameLocal8MapClearEb, .-_ZN11idGameLocal8MapClearEb
	.align 2
	.globl _ZN11idGameLocal16InitFromSaveGameEPKcP13idRenderWorldP12idSoundWorldP6idFile
	.type	_ZN11idGameLocal16InitFromSaveGameEPKcP13idRenderWorldP12idSoundWorldP6idFile, @function
_ZN11idGameLocal16InitFromSaveGameEPKcP13idRenderWorldP12idSoundWorldP6idFile:
.LFB2850:
	.loc 2 376 0
.LVL275:
	mflr 0
.LCFI308:
	stwu 1,-8(1)
.LCFI309:
.LBB242:
	.loc 2 379 0
	lis 3,.LC86@ha
.LVL276:
	la 3,.LC86@l(3)
.LBE242:
	.loc 2 376 0
	stw 0,12(1)
.LCFI310:
.LBB243:
	.loc 2 379 0
	crxor 6,6,6
	bl _Z10Sys_PrintfPKcz
.LVL277:
.LBE243:
	.loc 2 381 0
	lwz 0,12(1)
	li 3,0
	addi 1,1,8
	mtlr 0
	blr
.LFE2850:
	.size	_ZN11idGameLocal16InitFromSaveGameEPKcP13idRenderWorldP12idSoundWorldP6idFile, .-_ZN11idGameLocal16InitFromSaveGameEPKcP13idRenderWorldP12idSoundWorldP6idFile
	.align 2
	.globl _ZN11idGameLocal14InitFromNewMapEPKcP13idRenderWorldP12idSoundWorldbbi
	.type	_ZN11idGameLocal14InitFromNewMapEPKcP13idRenderWorldP12idSoundWorldbbi, @function
_ZN11idGameLocal14InitFromNewMapEPKcP13idRenderWorldP12idSoundWorldbbi:
.LFB2849:
	.loc 2 366 0
.LVL278:
	mflr 0
.LCFI311:
	stwu 1,-8(1)
.LCFI312:
	.loc 2 367 0
	lis 3,.LC87@ha
.LVL279:
	la 3,.LC87@l(3)
	.loc 2 366 0
	stw 0,12(1)
.LCFI313:
	.loc 2 367 0
	crxor 6,6,6
	bl _Z10Sys_PrintfPKcz
.LVL280:
	.loc 2 368 0
	lwz 0,12(1)
	addi 1,1,8
	mtlr 0
	blr
.LFE2849:
	.size	_ZN11idGameLocal14InitFromNewMapEPKcP13idRenderWorldP12idSoundWorldbbi, .-_ZN11idGameLocal14InitFromNewMapEPKcP13idRenderWorldP12idSoundWorldbbi
	.align 2
	.globl _ZN11idGameLocal11MapPopulateEv
	.type	_ZN11idGameLocal11MapPopulateEv, @function
_ZN11idGameLocal11MapPopulateEv:
.LFB2848:
	.loc 2 356 0
.LVL281:
	mflr 0
.LCFI314:
	stwu 1,-8(1)
.LCFI315:
	.loc 2 357 0
	lis 3,.LC88@ha
.LVL282:
	la 3,.LC88@l(3)
	.loc 2 356 0
	stw 0,12(1)
.LCFI316:
	.loc 2 357 0
	crxor 6,6,6
	bl _Z10Sys_PrintfPKcz
	.loc 2 358 0
	lwz 0,12(1)
	addi 1,1,8
	mtlr 0
	blr
.LFE2848:
	.size	_ZN11idGameLocal11MapPopulateEv, .-_ZN11idGameLocal11MapPopulateEv
	.align 2
	.globl _ZN11idGameLocal9NextMap_fERK9idCmdArgs
	.type	_ZN11idGameLocal9NextMap_fERK9idCmdArgs, @function
_ZN11idGameLocal9NextMap_fERK9idCmdArgs:
.LFB2847:
	.loc 2 346 0
.LVL283:
	mflr 0
.LCFI317:
	stwu 1,-8(1)
.LCFI318:
	.loc 2 347 0
	lis 3,.LC89@ha
.LVL284:
	la 3,.LC89@l(3)
	.loc 2 346 0
	stw 0,12(1)
.LCFI319:
	.loc 2 347 0
	crxor 6,6,6
	bl _Z10Sys_PrintfPKcz
	.loc 2 348 0
	lwz 0,12(1)
	addi 1,1,8
	mtlr 0
	blr
.LFE2847:
	.size	_ZN11idGameLocal9NextMap_fERK9idCmdArgs, .-_ZN11idGameLocal9NextMap_fERK9idCmdArgs
	.align 2
	.globl _ZN11idGameLocal7NextMapEv
	.type	_ZN11idGameLocal7NextMapEv, @function
_ZN11idGameLocal7NextMapEv:
.LFB2846:
	.loc 2 333 0
.LVL285:
	mflr 0
.LCFI320:
	stwu 1,-8(1)
.LCFI321:
.LBB244:
	.loc 2 336 0
	lis 3,.LC90@ha
.LVL286:
	la 3,.LC90@l(3)
.LBE244:
	.loc 2 333 0
	stw 0,12(1)
.LCFI322:
.LBB245:
	.loc 2 336 0
	crxor 6,6,6
	bl _Z10Sys_PrintfPKcz
.LBE245:
	.loc 2 338 0
	lwz 0,12(1)
	li 3,0
	addi 1,1,8
	mtlr 0
	blr
.LFE2846:
	.size	_ZN11idGameLocal7NextMapEv, .-_ZN11idGameLocal7NextMapEv
	.align 2
	.globl _ZN11idGameLocal12MapRestart_fERK9idCmdArgs
	.type	_ZN11idGameLocal12MapRestart_fERK9idCmdArgs, @function
_ZN11idGameLocal12MapRestart_fERK9idCmdArgs:
.LFB2845:
	.loc 2 323 0
.LVL287:
	mflr 0
.LCFI323:
	stwu 1,-8(1)
.LCFI324:
	.loc 2 324 0
	lis 3,.LC91@ha
.LVL288:
	la 3,.LC91@l(3)
	.loc 2 323 0
	stw 0,12(1)
.LCFI325:
	.loc 2 324 0
	crxor 6,6,6
	bl _Z10Sys_PrintfPKcz
	.loc 2 325 0
	lwz 0,12(1)
	addi 1,1,8
	mtlr 0
	blr
.LFE2845:
	.size	_ZN11idGameLocal12MapRestart_fERK9idCmdArgs, .-_ZN11idGameLocal12MapRestart_fERK9idCmdArgs
	.align 2
	.globl _ZN11idGameLocal10MapRestartEv
	.type	_ZN11idGameLocal10MapRestartEv, @function
_ZN11idGameLocal10MapRestartEv:
.LFB2844:
	.loc 2 313 0
.LVL289:
	mflr 0
.LCFI326:
	stwu 1,-8(1)
.LCFI327:
	.loc 2 314 0
	lis 3,.LC92@ha
.LVL290:
	la 3,.LC92@l(3)
	.loc 2 313 0
	stw 0,12(1)
.LCFI328:
	.loc 2 314 0
	crxor 6,6,6
	bl _Z10Sys_PrintfPKcz
	.loc 2 315 0
	lwz 0,12(1)
	addi 1,1,8
	mtlr 0
	blr
.LFE2844:
	.size	_ZN11idGameLocal10MapRestartEv, .-_ZN11idGameLocal10MapRestartEv
	.align 2
	.globl _ZN11idGameLocal15LocalMapRestartEv
	.type	_ZN11idGameLocal15LocalMapRestartEv, @function
_ZN11idGameLocal15LocalMapRestartEv:
.LFB2843:
	.loc 2 303 0
.LVL291:
	mflr 0
.LCFI329:
	stwu 1,-8(1)
.LCFI330:
	.loc 2 304 0
	lis 3,.LC93@ha
.LVL292:
	la 3,.LC93@l(3)
	.loc 2 303 0
	stw 0,12(1)
.LCFI331:
	.loc 2 304 0
	crxor 6,6,6
	bl _Z10Sys_PrintfPKcz
	.loc 2 305 0
	lwz 0,12(1)
	addi 1,1,8
	mtlr 0
	blr
.LFE2843:
	.size	_ZN11idGameLocal15LocalMapRestartEv, .-_ZN11idGameLocal15LocalMapRestartEv
	.align 2
	.globl _ZN11idGameLocal7LoadMapEPKci
	.type	_ZN11idGameLocal7LoadMapEPKci, @function
_ZN11idGameLocal7LoadMapEPKci:
.LFB2842:
	.loc 2 293 0
.LVL293:
	mflr 0
.LCFI332:
	stwu 1,-8(1)
.LCFI333:
	.loc 2 294 0
	lis 3,.LC94@ha
.LVL294:
	la 3,.LC94@l(3)
	.loc 2 293 0
	stw 0,12(1)
.LCFI334:
	.loc 2 294 0
	crxor 6,6,6
	bl _Z10Sys_PrintfPKcz
.LVL295:
	.loc 2 295 0
	lwz 0,12(1)
	addi 1,1,8
	mtlr 0
	blr
.LFE2842:
	.size	_ZN11idGameLocal7LoadMapEPKci, .-_ZN11idGameLocal7LoadMapEPKci
	.align 2
	.globl _ZN11idGameLocal13SetServerInfoERK6idDict
	.type	_ZN11idGameLocal13SetServerInfoERK6idDict, @function
_ZN11idGameLocal13SetServerInfoERK6idDict:
.LFB2841:
	.loc 2 280 0
.LVL296:
	mflr 0
.LCFI335:
	stwu 1,-8(1)
.LCFI336:
	.loc 2 281 0
	lis 3,.LC95@ha
.LVL297:
	la 3,.LC95@l(3)
	.loc 2 280 0
	stw 0,12(1)
.LCFI337:
	.loc 2 281 0
	crxor 6,6,6
	bl _Z10Sys_PrintfPKcz
.LVL298:
	.loc 2 282 0
	lwz 0,12(1)
	addi 1,1,8
	mtlr 0
	blr
.LFE2841:
	.size	_ZN11idGameLocal13SetServerInfoERK6idDict, .-_ZN11idGameLocal13SetServerInfoERK6idDict
	.align 2
	.globl _ZN11idGameLocal11GetUserInfoEi
	.type	_ZN11idGameLocal11GetUserInfoEi, @function
_ZN11idGameLocal11GetUserInfoEi:
.LFB2840:
	.loc 2 269 0
.LVL299:
	mflr 0
.LCFI338:
	stwu 1,-8(1)
.LCFI339:
	.loc 2 270 0
	lis 3,.LC96@ha
.LVL300:
	la 3,.LC96@l(3)
	.loc 2 269 0
	stw 0,12(1)
.LCFI340:
	.loc 2 270 0
	crxor 6,6,6
	bl _Z10Sys_PrintfPKcz
.LVL301:
	.loc 2 272 0
	lwz 0,12(1)
	li 3,0
	addi 1,1,8
	mtlr 0
	blr
.LFE2840:
	.size	_ZN11idGameLocal11GetUserInfoEi, .-_ZN11idGameLocal11GetUserInfoEi
	.align 2
	.globl _ZN11idGameLocal11SetUserInfoEiRK6idDictbb
	.type	_ZN11idGameLocal11SetUserInfoEiRK6idDictbb, @function
_ZN11idGameLocal11SetUserInfoEiRK6idDictbb:
.LFB2839:
	.loc 2 258 0
.LVL302:
	mflr 0
.LCFI341:
	stwu 1,-8(1)
.LCFI342:
	.loc 2 259 0
	lis 3,.LC97@ha
.LVL303:
	la 3,.LC97@l(3)
	.loc 2 258 0
	stw 0,12(1)
.LCFI343:
	.loc 2 259 0
	crxor 6,6,6
	bl _Z10Sys_PrintfPKcz
.LVL304:
	.loc 2 261 0
	lwz 0,12(1)
	li 3,0
	addi 1,1,8
	mtlr 0
	blr
.LFE2839:
	.size	_ZN11idGameLocal11SetUserInfoEiRK6idDictbb, .-_ZN11idGameLocal11SetUserInfoEiRK6idDictbb
	.align 2
	.globl _ZN11idGameLocal14SetLocalClientEi
	.type	_ZN11idGameLocal14SetLocalClientEi, @function
_ZN11idGameLocal14SetLocalClientEi:
.LFB2838:
	.loc 2 248 0
.LVL305:
	mflr 0
.LCFI344:
	stwu 1,-8(1)
.LCFI345:
	.loc 2 249 0
	lis 3,.LC98@ha
.LVL306:
	la 3,.LC98@l(3)
	.loc 2 248 0
	stw 0,12(1)
.LCFI346:
	.loc 2 249 0
	crxor 6,6,6
	bl _Z10Sys_PrintfPKcz
.LVL307:
	.loc 2 250 0
	lwz 0,12(1)
	addi 1,1,8
	mtlr 0
	blr
.LFE2838:
	.size	_ZN11idGameLocal14SetLocalClientEi, .-_ZN11idGameLocal14SetLocalClientEi
	.align 2
	.globl _Z9gameErrorPKcz
	.type	_Z9gameErrorPKcz, @function
_Z9gameErrorPKcz:
.LFB2837:
	.loc 2 238 0
.LVL308:
	mflr 0
.LCFI347:
	stwu 1,-8(1)
.LCFI348:
	.loc 2 239 0
	lis 3,.LC99@ha
.LVL309:
	la 3,.LC99@l(3)
	.loc 2 238 0
	stw 0,12(1)
.LCFI349:
	.loc 2 239 0
	crxor 6,6,6
	bl _Z10Sys_PrintfPKcz
	.loc 2 240 0
	lwz 0,12(1)
	addi 1,1,8
	mtlr 0
	blr
.LFE2837:
	.size	_Z9gameErrorPKcz, .-_Z9gameErrorPKcz
	.align 2
	.globl _ZNK11idGameLocal5ErrorEPKcz
	.type	_ZNK11idGameLocal5ErrorEPKcz, @function
_ZNK11idGameLocal5ErrorEPKcz:
.LFB2836:
	.loc 2 228 0
.LVL310:
	mflr 0
.LCFI350:
	stwu 1,-8(1)
.LCFI351:
	.loc 2 229 0
	lis 3,.LC100@ha
.LVL311:
	la 3,.LC100@l(3)
	.loc 2 228 0
	stw 0,12(1)
.LCFI352:
	.loc 2 229 0
	crxor 6,6,6
	bl _Z10Sys_PrintfPKcz
.LVL312:
	.loc 2 230 0
	lwz 0,12(1)
	addi 1,1,8
	mtlr 0
	blr
.LFE2836:
	.size	_ZNK11idGameLocal5ErrorEPKcz, .-_ZNK11idGameLocal5ErrorEPKcz
	.align 2
	.globl _ZNK11idGameLocal8DWarningEPKcz
	.type	_ZNK11idGameLocal8DWarningEPKcz, @function
_ZNK11idGameLocal8DWarningEPKcz:
.LFB2835:
	.loc 2 218 0
.LVL313:
	mflr 0
.LCFI353:
	stwu 1,-8(1)
.LCFI354:
	.loc 2 219 0
	lis 3,.LC101@ha
.LVL314:
	la 3,.LC101@l(3)
	.loc 2 218 0
	stw 0,12(1)
.LCFI355:
	.loc 2 219 0
	crxor 6,6,6
	bl _Z10Sys_PrintfPKcz
.LVL315:
	.loc 2 220 0
	lwz 0,12(1)
	addi 1,1,8
	mtlr 0
	blr
.LFE2835:
	.size	_ZNK11idGameLocal8DWarningEPKcz, .-_ZNK11idGameLocal8DWarningEPKcz
	.align 2
	.globl _ZNK11idGameLocal7WarningEPKcz
	.type	_ZNK11idGameLocal7WarningEPKcz, @function
_ZNK11idGameLocal7WarningEPKcz:
.LFB2834:
	.loc 2 208 0
.LVL316:
	mflr 0
.LCFI356:
	stwu 1,-8(1)
.LCFI357:
	.loc 2 209 0
	lis 3,.LC102@ha
.LVL317:
	la 3,.LC102@l(3)
	.loc 2 208 0
	stw 0,12(1)
.LCFI358:
	.loc 2 209 0
	crxor 6,6,6
	bl _Z10Sys_PrintfPKcz
.LVL318:
	.loc 2 210 0
	lwz 0,12(1)
	addi 1,1,8
	mtlr 0
	blr
.LFE2834:
	.size	_ZNK11idGameLocal7WarningEPKcz, .-_ZNK11idGameLocal7WarningEPKcz
	.align 2
	.globl _ZNK11idGameLocal7DPrintfEPKcz
	.type	_ZNK11idGameLocal7DPrintfEPKcz, @function
_ZNK11idGameLocal7DPrintfEPKcz:
.LFB2833:
	.loc 2 198 0
.LVL319:
	mflr 0
.LCFI359:
	stwu 1,-8(1)
.LCFI360:
	.loc 2 199 0
	lis 3,.LC103@ha
.LVL320:
	la 3,.LC103@l(3)
	.loc 2 198 0
	stw 0,12(1)
.LCFI361:
	.loc 2 199 0
	crxor 6,6,6
	bl _Z10Sys_PrintfPKcz
.LVL321:
	.loc 2 200 0
	lwz 0,12(1)
	addi 1,1,8
	mtlr 0
	blr
.LFE2833:
	.size	_ZNK11idGameLocal7DPrintfEPKcz, .-_ZNK11idGameLocal7DPrintfEPKcz
	.align 2
	.globl _ZNK11idGameLocal6PrintfEPKcz
	.type	_ZNK11idGameLocal6PrintfEPKcz, @function
_ZNK11idGameLocal6PrintfEPKcz:
.LFB2832:
	.loc 2 188 0
.LVL322:
	mflr 0
.LCFI362:
	stwu 1,-8(1)
.LCFI363:
	.loc 2 189 0
	lis 3,.LC104@ha
.LVL323:
	la 3,.LC104@l(3)
	.loc 2 188 0
	stw 0,12(1)
.LCFI364:
	.loc 2 189 0
	crxor 6,6,6
	bl _Z10Sys_PrintfPKcz
.LVL324:
	.loc 2 190 0
	lwz 0,12(1)
	addi 1,1,8
	mtlr 0
	blr
.LFE2832:
	.size	_ZNK11idGameLocal6PrintfEPKcz, .-_ZNK11idGameLocal6PrintfEPKcz
	.align 2
	.globl _ZN11idGameLocal23SetPersistentPlayerInfoEiRK6idDict
	.type	_ZN11idGameLocal23SetPersistentPlayerInfoEiRK6idDict, @function
_ZN11idGameLocal23SetPersistentPlayerInfoEiRK6idDict:
.LFB2831:
	.loc 2 178 0
.LVL325:
	mflr 0
.LCFI365:
	stwu 1,-8(1)
.LCFI366:
	.loc 2 179 0
	lis 3,.LC105@ha
.LVL326:
	la 3,.LC105@l(3)
	.loc 2 178 0
	stw 0,12(1)
.LCFI367:
	.loc 2 179 0
	crxor 6,6,6
	bl _Z10Sys_PrintfPKcz
.LVL327:
	.loc 2 180 0
	lwz 0,12(1)
	addi 1,1,8
	mtlr 0
	blr
.LFE2831:
	.size	_ZN11idGameLocal23SetPersistentPlayerInfoEiRK6idDict, .-_ZN11idGameLocal23SetPersistentPlayerInfoEiRK6idDict
	.align 2
	.globl _ZN11idGameLocal23GetPersistentPlayerInfoEi
	.type	_ZN11idGameLocal23GetPersistentPlayerInfoEi, @function
_ZN11idGameLocal23GetPersistentPlayerInfoEi:
.LFB2830:
	.loc 2 163 0
.LVL328:
	stwu 1,-24(1)
.LCFI368:
.LBB246:
	.loc 2 166 0
	mulli 4,4,44
.LVL329:
.LBE246:
	.loc 2 163 0
	mflr 0
.LCFI369:
	stw 29,12(1)
.LCFI370:
.LBB247:
	.loc 2 166 0
	add 29,3,4
	addi 29,29,2484
	mr 3,29
.LVL330:
.LBE247:
	.loc 2 163 0
	stw 0,28(1)
.LCFI371:
.LBB248:
	.loc 2 166 0
	bl _ZN6idDict5ClearEv
	.loc 2 168 0
	lis 3,.LC106@ha
	la 3,.LC106@l(3)
	crxor 6,6,6
	bl _Z10Sys_PrintfPKcz
.LBE248:
	.loc 2 171 0
	lwz 0,28(1)
	mr 3,29
	lwz 29,12(1)
	mtlr 0
	addi 1,1,24
	blr
.LFE2830:
	.size	_ZN11idGameLocal23GetPersistentPlayerInfoEi, .-_ZN11idGameLocal23GetPersistentPlayerInfoEi
	.align 2
	.globl _ZN11idGameLocal8SaveGameEP6idFile
	.type	_ZN11idGameLocal8SaveGameEP6idFile, @function
_ZN11idGameLocal8SaveGameEP6idFile:
.LFB2829:
	.loc 2 153 0
.LVL331:
	mflr 0
.LCFI372:
	stwu 1,-8(1)
.LCFI373:
	.loc 2 154 0
	lis 3,.LC107@ha
.LVL332:
	la 3,.LC107@l(3)
	.loc 2 153 0
	stw 0,12(1)
.LCFI374:
	.loc 2 154 0
	crxor 6,6,6
	bl _Z10Sys_PrintfPKcz
.LVL333:
	.loc 2 155 0
	lwz 0,12(1)
	addi 1,1,8
	mtlr 0
	blr
.LFE2829:
	.size	_ZN11idGameLocal8SaveGameEP6idFile, .-_ZN11idGameLocal8SaveGameEP6idFile
	.align 2
	.globl _ZN11idGameLocal8ShutdownEv
	.type	_ZN11idGameLocal8ShutdownEv, @function
_ZN11idGameLocal8ShutdownEv:
.LFB2828:
	.loc 2 140 0
.LVL334:
	mflr 0
.LCFI375:
	stwu 1,-8(1)
.LCFI376:
	.loc 2 141 0
	lis 3,.LC108@ha
.LVL335:
	la 3,.LC108@l(3)
	.loc 2 140 0
	stw 0,12(1)
.LCFI377:
	.loc 2 141 0
	crxor 6,6,6
	bl _Z10Sys_PrintfPKcz
	.loc 2 142 0
	lwz 0,12(1)
	addi 1,1,8
	mtlr 0
	blr
.LFE2828:
	.size	_ZN11idGameLocal8ShutdownEv, .-_ZN11idGameLocal8ShutdownEv
	.align 2
	.globl _ZN11idGameLocal4InitEv
	.type	_ZN11idGameLocal4InitEv, @function
_ZN11idGameLocal4InitEv:
.LFB2827:
	.loc 2 128 0
.LVL336:
	mflr 0
.LCFI378:
	stwu 1,-8(1)
.LCFI379:
	.loc 2 129 0
	lis 3,.LC109@ha
.LVL337:
	la 3,.LC109@l(3)
	.loc 2 128 0
	stw 0,12(1)
.LCFI380:
	.loc 2 129 0
	crxor 6,6,6
	bl _Z10Sys_PrintfPKcz
	.loc 2 130 0
	lwz 0,12(1)
	addi 1,1,8
	mtlr 0
	blr
.LFE2827:
	.size	_ZN11idGameLocal4InitEv, .-_ZN11idGameLocal4InitEv
	.align 2
	.globl _ZN11idGameLocal5ClearEv
	.type	_ZN11idGameLocal5ClearEv, @function
_ZN11idGameLocal5ClearEv:
.LFB2826:
	.loc 2 116 0
.LVL338:
	mflr 0
.LCFI381:
	stwu 1,-8(1)
.LCFI382:
	.loc 2 117 0
	lis 3,.LC110@ha
.LVL339:
	la 3,.LC110@l(3)
	.loc 2 116 0
	stw 0,12(1)
.LCFI383:
	.loc 2 117 0
	crxor 6,6,6
	bl _Z10Sys_PrintfPKcz
	.loc 2 118 0
	lwz 0,12(1)
	addi 1,1,8
	mtlr 0
	blr
.LFE2826:
	.size	_ZN11idGameLocal5ClearEv, .-_ZN11idGameLocal5ClearEv
	.align 2
	.globl _Z11TestGameAPIv
	.type	_Z11TestGameAPIv, @function
_Z11TestGameAPIv:
.LFB2801:
	.loc 2 97 0
	mflr 0
.LCFI384:
	stwu 1,-8(1)
.LCFI385:
	.loc 2 98 0
	lis 3,.LC111@ha
	la 3,.LC111@l(3)
	.loc 2 97 0
	stw 0,12(1)
.LCFI386:
	.loc 2 98 0
	crxor 6,6,6
	bl _Z10Sys_PrintfPKcz
	.loc 2 99 0
	lwz 0,12(1)
	addi 1,1,8
	mtlr 0
	blr
.LFE2801:
	.size	_Z11TestGameAPIv, .-_Z11TestGameAPIv
	.align 2
	.globl GetGameAPI
	.type	GetGameAPI, @function
GetGameAPI:
.LFB2800:
	.loc 2 83 0
.LVL340:
	mflr 0
.LCFI387:
	stwu 1,-8(1)
.LCFI388:
	.loc 2 84 0
	lis 3,.LC112@ha
.LVL341:
	la 3,.LC112@l(3)
	.loc 2 83 0
	stw 0,12(1)
.LCFI389:
	.loc 2 84 0
	crxor 6,6,6
	bl _Z10Sys_PrintfPKcz
	.loc 2 86 0
	lwz 0,12(1)
	li 3,0
	addi 1,1,8
	mtlr 0
	blr
.LFE2800:
	.size	GetGameAPI, .-GetGameAPI
	.align 2
	.globl _ZN11idGameLocal24ArgCompletion_EntityNameERK9idCmdArgsPFvPKcE
	.type	_ZN11idGameLocal24ArgCompletion_EntityNameERK9idCmdArgsPFvPKcE, @function
_ZN11idGameLocal24ArgCompletion_EntityNameERK9idCmdArgsPFvPKcE:
.LFB2906:
	.loc 2 1039 0
.LVL342:
	mflr 0
.LCFI390:
	stwu 1,-40(1)
.LCFI391:
.LBB254:
	.loc 2 1042 0
	lis 9,.LANCHOR0@ha
.LBE254:
	.loc 2 1039 0
	stw 25,12(1)
.LCFI392:
.LBB263:
	.loc 2 1042 0
	la 9,.LANCHOR0@l(9)
.LBE263:
	.loc 2 1039 0
	stw 28,24(1)
.LCFI393:
.LBB264:
	.loc 2 1042 0
	addis 25,9,0x1
.LBE264:
	.loc 2 1039 0
	stw 29,28(1)
.LCFI394:
	mr 28,4
	stw 26,16(1)
.LCFI395:
	mr 29,3
	stw 27,20(1)
.LCFI396:
	stw 30,32(1)
.LCFI397:
	stw 31,36(1)
.LCFI398:
	stw 0,44(1)
.LCFI399:
.LBB265:
	.loc 2 1042 0
	lwz 0,-28812(25)
	cmpwi 7,0,0
	ble- 7,.L318
.LVL343:
	addi 30,9,3952
.LBB255:
.LBB257:
	.file 6 "d:/Data/Nintendo/DoomGX/src/game/../idlib/../idlib/CmdArgs.h"
	.loc 6 50 0
	lis 11,.LC113@ha
.LBE257:
.LBE255:
	.loc 2 1044 0
	lis 9,.LC114@ha
.LBB260:
.LBB258:
	.loc 6 50 0
	la 27,.LC113@l(11)
.LBE258:
.LBE260:
	.loc 2 1044 0
	la 26,.LC114@l(9)
	.loc 2 1042 0
	li 31,0
.LVL344:
.L312:
	.loc 2 1043 0
	lwz 9,0(30)
	.loc 2 1042 0
	addi 31,31,1
	.loc 2 1044 0
	mr 3,26
	.loc 2 1042 0
	addi 30,30,4
	.loc 2 1043 0
	cmpwi 7,9,0
.LBB261:
.LBB256:
	.loc 6 50 0
	mr 4,27
.LBE256:
.LBE261:
	.loc 2 1043 0
	beq- 7,.L313
.LBB262:
.LBB259:
	.loc 6 50 0
	lwz 0,0(29)
	cmpwi 7,0,0
	ble- 7,.L317
	lwz 4,4(29)
.L317:
.LBE259:
.LBE262:
	.loc 2 1044 0
	lwz 5,72(9)
	crxor 6,6,6
	bl _Z2vaPKcz
	mtctr 28
	bctrl
.L313:
	.loc 2 1042 0
	lwz 0,-28812(25)
	cmpw 7,0,31
	bgt+ 7,.L312
.LVL345:
.L318:
.LBE265:
	.loc 2 1047 0
	lwz 0,44(1)
	lwz 25,12(1)
	lwz 26,16(1)
	mtlr 0
	lwz 27,20(1)
	lwz 28,24(1)
.LVL346:
	lwz 29,28(1)
.LVL347:
	lwz 30,32(1)
	lwz 31,36(1)
.LVL348:
	addi 1,1,40
	blr
.LFE2906:
	.size	_ZN11idGameLocal24ArgCompletion_EntityNameERK9idCmdArgsPFvPKcE, .-_ZN11idGameLocal24ArgCompletion_EntityNameERK9idCmdArgsPFvPKcE
	.align 2
	.globl _ZN11idGameLocal8RunFrameEPK9usercmd_t
	.type	_ZN11idGameLocal8RunFrameEPK9usercmd_t, @function
_ZN11idGameLocal8RunFrameEPK9usercmd_t:
.LFB2871:
	.loc 2 620 0
.LVL349:
	mflr 0
.LCFI400:
	stwu 1,-24(1)
.LCFI401:
.LBB266:
	.loc 2 622 0
	li 4,0
.LVL350:
	li 5,1048
.LVL351:
.LBE266:
	.loc 2 620 0
	stw 29,12(1)
.LCFI402:
	mr 29,3
	stw 0,28(1)
.LCFI403:
.LBB267:
	.loc 2 622 0
	bl memset
	.loc 2 623 0
	lis 3,.LC115@ha
	la 3,.LC115@l(3)
	crxor 6,6,6
	bl _Z10Sys_PrintfPKcz
.LBE267:
	.loc 2 625 0
	lwz 0,28(1)
	mr 3,29
	lwz 29,12(1)
	mtlr 0
	addi 1,1,24
	blr
.LFE2871:
	.size	_ZN11idGameLocal8RunFrameEPK9usercmd_t, .-_ZN11idGameLocal8RunFrameEPK9usercmd_t
	.align 2
	.globl _ZN11idGameLocal12GetClientPVSEP8idPlayer9pvsType_t
	.type	_ZN11idGameLocal12GetClientPVSEP8idPlayer9pvsType_t, @function
_ZN11idGameLocal12GetClientPVSEP8idPlayer9pvsType_t:
.LFB2863:
	.loc 2 525 0
.LVL352:
	mflr 0
.LCFI404:
	stwu 1,-24(1)
.LCFI405:
.LBB268:
	.loc 2 528 0
	lis 3,.LC116@ha
.LVL353:
	la 3,.LC116@l(3)
.LBE268:
	.loc 2 525 0
	stw 0,28(1)
.LCFI406:
.LBB269:
	.loc 2 527 0
	li 0,0
	stw 0,12(1)
	stw 0,8(1)
	.loc 2 528 0
	crxor 6,6,6
	bl _Z10Sys_PrintfPKcz
.LVL354:
.LBE269:
	.loc 2 530 0
	lwz 0,28(1)
	lwz 3,8(1)
	lwz 4,12(1)
	mtlr 0
	addi 1,1,24
	blr
.LFE2863:
	.size	_ZN11idGameLocal12GetClientPVSEP8idPlayer9pvsType_t, .-_ZN11idGameLocal12GetClientPVSEP8idPlayer9pvsType_t
	.section	.text._ZN14idFixedWindingD1Ev,"axG",@progbits,_ZN14idFixedWindingD1Ev,comdat
	.align 2
	.weak	_ZN14idFixedWindingD1Ev
	.type	_ZN14idFixedWindingD1Ev, @function
_ZN14idFixedWindingD1Ev:
.LFB1501:
	.loc 1 380 0
.LVL355:
.LBB272:
.LBB273:
	.loc 1 183 0
	lis 9,_ZTV9idWinding+8@ha
	.loc 1 185 0
	li 0,0
	.loc 1 183 0
	la 9,_ZTV9idWinding+8@l(9)
	.loc 1 185 0
	stw 0,8(3)
	.loc 1 183 0
	stw 9,0(3)
.LBE273:
.LBE272:
	.loc 1 382 0
	blr
.LFE1501:
	.size	_ZN14idFixedWindingD1Ev, .-_ZN14idFixedWindingD1Ev
	.globl _Unwind_Resume
	.section	.text._ZN6idDictC1Ev,"axG",@progbits,_ZN6idDictC1Ev,comdat
	.align 2
	.weak	_ZN6idDictC1Ev
	.type	_ZN6idDictC1Ev, @function
_ZN6idDictC1Ev:
.LFB1932:
	.file 7 "d:/Data/Nintendo/DoomGX/src/game/../idlib/../idlib/Dict.h"
	.loc 7 163 0
.LVL356:
	stwu 1,-32(1)
.LCFI407:
	mflr 0
.LCFI408:
.LBB319:
.LBB346:
.LBB347:
.LBB348:
	.file 8 "d:/Data/Nintendo/DoomGX/src/game/../idlib/../idlib/containers/HashIndex.h"
	.loc 8 112 0
	li 4,1024
	li 5,1024
.LBE348:
.LBE347:
.LBE346:
.LBE319:
	.loc 7 163 0
	stw 28,16(1)
.LCFI409:
.LBB372:
.LBB351:
.LBB353:
.LBB355:
	.file 9 "d:/Data/Nintendo/DoomGX/src/game/../idlib/../idlib/containers/List.h"
	.loc 9 151 0
	li 28,16
.LBE355:
.LBE353:
.LBE351:
.LBE372:
	.loc 7 163 0
	stw 29,20(1)
.LCFI410:
.LBB373:
.LBB345:
.LBB362:
.LBB360:
	.loc 9 150 0
	li 29,0
.LBE360:
.LBE362:
.LBE345:
.LBE373:
	.loc 7 163 0
	stw 27,12(1)
.LCFI411:
.LBB374:
.LBB364:
.LBB352:
.LBB354:
.LBB356:
.LBB357:
	.loc 9 191 0
	addi 27,3,16
.LVL357:
.LBE357:
.LBE356:
.LBE354:
.LBE352:
.LBE364:
.LBE374:
	.loc 7 163 0
	stw 31,28(1)
.LCFI412:
	mr 31,3
	stw 30,24(1)
.LCFI413:
	stw 0,36(1)
.LCFI414:
.LBB375:
.LBB344:
.LBB363:
.LBB361:
	.loc 9 151 0
	stw 28,8(3)
.LBB359:
.LBB358:
	.loc 9 189 0
	stw 29,12(3)
	.loc 9 190 0
	stw 29,0(3)
	.loc 9 191 0
	stw 29,4(3)
.LBE358:
.LBE359:
.LBE361:
.LBE363:
.LBE344:
.LBB343:
.LBB350:
.LBB349:
	.loc 8 112 0
	mr 3,27
.LVL358:
.LEHB0:
	bl _ZN11idHashIndex4InitEii
.LEHE0:
.LBE349:
.LBE350:
.LBE343:
.LBB328:
.LBB329:
.LBB330:
	.loc 9 311 0
	lwz 30,12(31)
	.loc 9 309 0
	stw 28,8(31)
	.loc 9 311 0
	cmpwi 7,30,0
	beq- 7,.L333
	.loc 9 313 0
	lwz 11,0(31)
	.loc 9 315 0
	lwz 0,4(31)
	.loc 9 313 0
	addi 9,11,15
.LVL359:
	.loc 9 314 0
	srawi 9,9,4
	addze 9,9
.LVL360:
	slwi 9,9,4
.LVL361:
	.loc 9 315 0
	cmpw 7,0,9
	beq- 7,.L333
.LBB331:
.LBB333:
.LBB335:
	.loc 9 367 0
	cmpwi 7,9,0
	ble- 7,.L351
	.loc 9 379 0
	cmpw 7,9,11
	.loc 9 378 0
	stw 9,4(31)
	.loc 9 379 0
	blt- 7,.L352
.L338:
.LBE335:
.LBE333:
	.loc 9 384 0
	lwz 3,4(31)
	slwi 3,3,3
.LEHB1:
	bl _Znaj
.LVL362:
.LBB332:
.LBB334:
	.loc 9 385 0
	lwz 0,0(31)
	.loc 9 384 0
	stw 3,12(31)
	.loc 9 385 0
	cmpwi 7,0,0
	ble- 7,.L340
	li 7,0
.LVL363:
	li 8,0
.L342:
	.loc 9 386 0
	lwz 11,12(31)
	add 9,30,8
	lwzx 0,8,30
	.loc 9 385 0
	addi 7,7,1
	.loc 9 386 0
	lwz 10,4(9)
	add 9,8,11
	stwx 0,8,11
	.loc 9 385 0
	addi 8,8,8
	.loc 9 386 0
	stw 10,4(9)
	.loc 9 385 0
	lwz 0,0(31)
	cmpw 7,0,7
	bgt+ 7,.L342
.L340:
	.loc 9 391 0
	mr 3,30
	bl _ZdaPv
.LVL364:
.L333:
.LBE334:
.LBE332:
.LBE331:
.LBE330:
.LBE329:
.LBE328:
.LBB325:
.LBB326:
	.loc 8 371 0
	li 30,16
.LBE326:
.LBE325:
.LBB322:
.LBB323:
	.loc 8 341 0
	mr 3,27
.LBE323:
.LBE322:
.LBB321:
.LBB327:
	.loc 8 371 0
	stw 30,32(31)
.LBE327:
.LBE321:
.LBB320:
.LBB324:
	.loc 8 341 0
	bl _ZN11idHashIndex4FreeEv
.LEHE1:
.LVL365:
	.loc 8 342 0
	li 0,128
	.loc 8 343 0
	stw 30,24(31)
	.loc 8 342 0
	stw 0,16(31)
.LBE324:
.LBE320:
.LBE375:
	.loc 7 167 0
	lwz 0,36(1)
	lwz 27,12(1)
.LVL366:
	lwz 28,16(1)
	mtlr 0
	lwz 29,20(1)
	lwz 30,24(1)
	lwz 31,28(1)
.LVL367:
	addi 1,1,32
	blr
.LVL368:
.L352:
.LBB376:
.LBB365:
.LBB342:
.LBB341:
.LBB340:
.LBB339:
.LBB338:
	.loc 9 380 0
	stw 9,0(31)
	b .L338
.L351:
.LBB336:
.LBB337:
	.loc 9 186 0
	mr 3,30
	bl _ZdaPv
.LVL369:
	.loc 9 191 0
	stw 29,4(31)
	.loc 9 189 0
	stw 29,12(31)
	.loc 9 190 0
	stw 29,0(31)
	b .L333
.L348:
.L343:
	mr 30,3
.LBE337:
.LBE336:
.LBE338:
.LBE339:
.LBE340:
.LBE341:
.LBE342:
.LBE365:
.LBB366:
.LBB367:
	.loc 8 130 0
	mr 3,27
	bl _ZN11idHashIndex4FreeEv
.L344:
.LBE367:
.LBE366:
.LBB368:
.LBB369:
.LBB370:
.LBB371:
	.loc 9 185 0
	lwz 3,12(31)
	cmpwi 7,3,0
	beq- 7,.L345
	.loc 9 186 0
	bl _ZdaPv
.L345:
	.loc 9 189 0
	li 0,0
	.loc 9 191 0
	mr 3,30
	stw 0,4(31)
	.loc 9 189 0
	stw 0,12(31)
	.loc 9 190 0
	stw 0,0(31)
.LEHB2:
	.loc 9 191 0
	bl _Unwind_Resume
.LEHE2:
.L349:
	mr 30,3
	b .L344
.LBE371:
.LBE370:
.LBE369:
.LBE368:
.LBE376:
.LFE1932:
	.size	_ZN6idDictC1Ev, .-_ZN6idDictC1Ev
	.section	.gcc_except_table,"a",@progbits
.LLSDA1932:
	.byte	0xff
	.byte	0xff
	.byte	0x1
	.uleb128 .LLSDACSE1932-.LLSDACSB1932
.LLSDACSB1932:
	.uleb128 .LEHB0-.LFB1932
	.uleb128 .LEHE0-.LEHB0
	.uleb128 .L349-.LFB1932
	.uleb128 0x0
	.uleb128 .LEHB1-.LFB1932
	.uleb128 .LEHE1-.LEHB1
	.uleb128 .L348-.LFB1932
	.uleb128 0x0
	.uleb128 .LEHB2-.LFB1932
	.uleb128 .LEHE2-.LEHB2
	.uleb128 0x0
	.uleb128 0x0
.LLSDACSE1932:
	.section	.text._ZN6idDictC1Ev,"axG",@progbits,_ZN6idDictC1Ev,comdat
	.section	.text._ZN6idDictD1Ev,"axG",@progbits,_ZN6idDictD1Ev,comdat
	.align 2
	.weak	_ZN6idDictD1Ev
	.type	_ZN6idDictD1Ev, @function
_ZN6idDictD1Ev:
.LFB1938:
	.loc 7 173 0
.LVL370:
	mflr 0
.LCFI415:
	stwu 1,-16(1)
.LCFI416:
	stw 31,12(1)
.LCFI417:
	mr 31,3
	stw 30,8(1)
.LCFI418:
	stw 0,20(1)
.LCFI419:
.LEHB3:
	.loc 7 174 0
	bl _ZN6idDict5ClearEv
.LEHE3:
.LVL371:
.LBB405:
.LBB406:
	.loc 8 130 0
	addi 3,31,16
.LEHB4:
	bl _ZN11idHashIndex4FreeEv
.LEHE4:
.LBE406:
.LBE405:
.LBB407:
.LBB408:
.LBB409:
.LBB410:
	.loc 9 185 0
	lwz 3,12(31)
	cmpwi 7,3,0
	beq- 7,.L360
	.loc 9 186 0
	bl _ZdaPv
.L360:
	.loc 9 189 0
	li 0,0
	.loc 9 191 0
	stw 0,4(31)
	.loc 9 189 0
	stw 0,12(31)
	.loc 9 190 0
	stw 0,0(31)
.LBE410:
.LBE409:
.LBE408:
.LBE407:
	.loc 7 175 0
	lwz 0,20(1)
	lwz 30,8(1)
	lwz 31,12(1)
.LVL372:
	mtlr 0
	addi 1,1,16
	blr
.LVL373:
.L364:
.L355:
	mr 30,3
.LBB411:
.LBB412:
	.loc 8 130 0
	addi 3,31,16
	bl _ZN11idHashIndex4FreeEv
.L357:
.LBE412:
.LBE411:
.LBB413:
.LBB414:
.LBB415:
.LBB416:
	.loc 9 185 0
	lwz 3,12(31)
	cmpwi 7,3,0
	beq- 7,.L358
	.loc 9 186 0
	bl _ZdaPv
.L358:
	.loc 9 189 0
	li 0,0
	.loc 9 191 0
	mr 3,30
	stw 0,4(31)
	.loc 9 189 0
	stw 0,12(31)
	.loc 9 190 0
	stw 0,0(31)
.LEHB5:
	.loc 9 191 0
	bl _Unwind_Resume
.LEHE5:
.L365:
	mr 30,3
	b .L357
.LBE416:
.LBE415:
.LBE414:
.LBE413:
.LFE1938:
	.size	_ZN6idDictD1Ev, .-_ZN6idDictD1Ev
	.section	.gcc_except_table
.LLSDA1938:
	.byte	0xff
	.byte	0xff
	.byte	0x1
	.uleb128 .LLSDACSE1938-.LLSDACSB1938
.LLSDACSB1938:
	.uleb128 .LEHB3-.LFB1938
	.uleb128 .LEHE3-.LEHB3
	.uleb128 .L364-.LFB1938
	.uleb128 0x0
	.uleb128 .LEHB4-.LFB1938
	.uleb128 .LEHE4-.LEHB4
	.uleb128 .L365-.LFB1938
	.uleb128 0x0
	.uleb128 .LEHB5-.LFB1938
	.uleb128 .LEHE5-.LEHB5
	.uleb128 0x0
	.uleb128 0x0
.LLSDACSE1938:
	.section	.text._ZN6idDictD1Ev,"axG",@progbits,_ZN6idDictD1Ev,comdat
	.section	".text"
	.align 2
	.globl _ZN11idGameLocalC1Ev
	.type	_ZN11idGameLocalC1Ev, @function
_ZN11idGameLocalC1Ev:
.LFB2825:
	.loc 2 107 0
.LVL374:
	stwu 1,-96(1)
.LCFI420:
	mflr 0
.LCFI421:
.LBB700:
	lis 9,_ZTV11idGameLocal+8@ha
.LBB1125:
.LBB1131:
.LBB1137:
.LBB1159:
.LBB1161:
.LBB1163:
	.loc 8 112 0
	li 4,1024
.LBE1163:
.LBE1161:
.LBE1159:
.LBE1137:
.LBE1131:
.LBE1125:
.LBE700:
	.loc 2 107 0
	stw 28,80(1)
.LCFI422:
.LBB1311:
	la 9,_ZTV11idGameLocal+8@l(9)
.LBE1311:
	stw 30,88(1)
.LCFI423:
.LBB1312:
.LBB1208:
.LBB1130:
.LBB1136:
.LBB1148:
.LBB1150:
.LBB1152:
	.loc 9 151 0
	li 28,16
	.loc 9 150 0
	li 30,0
.LBE1152:
.LBE1150:
.LBE1148:
.LBE1136:
.LBE1130:
.LBE1208:
.LBE1312:
	.loc 2 107 0
	stw 23,60(1)
.LCFI424:
	stw 29,84(1)
.LCFI425:
.LBB1313:
.LBB1124:
.LBB1203:
.LBB1198:
.LBB1166:
.LBB1149:
.LBB1151:
.LBB1153:
.LBB1154:
	.loc 9 191 0
	addi 29,3,20
.LVL375:
.LBE1154:
.LBE1153:
.LBE1151:
.LBE1149:
.LBE1166:
.LBE1198:
.LBE1203:
.LBE1124:
.LBE1313:
	.loc 2 107 0
	stw 14,24(1)
.LCFI426:
	mr 23,3
	stw 15,28(1)
.LCFI427:
.LBB1314:
.LBB1209:
.LBB1129:
.LBB1135:
.LBB1147:
.LBB1160:
.LBB1162:
	.loc 8 112 0
	li 5,1024
.LBE1162:
.LBE1160:
.LBE1147:
.LBE1135:
.LBE1129:
.LBE1209:
.LBE1314:
	.loc 2 107 0
	stw 16,32(1)
.LCFI428:
	stw 17,36(1)
.LCFI429:
	stw 18,40(1)
.LCFI430:
	stw 19,44(1)
.LCFI431:
	stw 20,48(1)
.LCFI432:
	stw 21,52(1)
.LCFI433:
	stw 22,56(1)
.LCFI434:
	stw 24,64(1)
.LCFI435:
	stw 25,68(1)
.LCFI436:
	stw 26,72(1)
.LCFI437:
	stw 27,76(1)
.LCFI438:
	stw 31,92(1)
.LCFI439:
	stw 0,100(1)
.LCFI440:
.LBB1315:
	.loc 2 107 0
	stw 9,0(3)
.LBB1123:
.LBB1204:
.LBB1199:
.LBB1167:
.LBB1158:
.LBB1157:
	.loc 9 151 0
	stw 28,12(3)
.LBB1156:
.LBB1155:
	.loc 9 189 0
	stw 30,16(3)
	.loc 9 190 0
	stw 30,4(3)
	.loc 9 191 0
	stw 30,8(3)
.LBE1155:
.LBE1156:
.LBE1157:
.LBE1158:
.LBE1167:
.LBB1168:
.LBB1165:
.LBB1164:
	.loc 8 112 0
	mr 3,29
.LVL376:
.LEHB6:
	bl _ZN11idHashIndex4InitEii
.LEHE6:
.LBE1164:
.LBE1165:
.LBE1168:
.LBB1169:
.LBB1170:
.LBB1171:
	.loc 9 311 0
	lwz 31,16(23)
	.loc 9 309 0
	stw 28,12(23)
	.loc 9 311 0
	cmpwi 7,31,0
	beq- 7,.L372
	.loc 9 313 0
	lwz 11,4(23)
	.loc 9 315 0
	lwz 0,8(23)
	.loc 9 313 0
	addi 9,11,15
.LVL377:
	.loc 9 314 0
	srawi 9,9,4
	addze 9,9
.LVL378:
	slwi 9,9,4
.LVL379:
	.loc 9 315 0
	cmpw 7,0,9
	beq- 7,.L372
.LBB1172:
.LBB1174:
.LBB1176:
	.loc 9 367 0
	cmpwi 7,9,0
	ble- 7,.L621
	.loc 9 379 0
	cmpw 7,9,11
	.loc 9 378 0
	stw 9,8(23)
	.loc 9 379 0
	blt- 7,.L622
.L377:
.LBE1176:
.LBE1174:
	.loc 9 384 0
	lwz 3,8(23)
	slwi 3,3,3
.LEHB7:
	bl _Znaj
.LVL380:
.LBB1173:
.LBB1175:
	.loc 9 385 0
	lwz 0,4(23)
	.loc 9 384 0
	stw 3,16(23)
	.loc 9 385 0
	cmpwi 7,0,0
	ble- 7,.L379
	li 7,0
.LVL381:
	li 8,0
.L381:
	.loc 9 386 0
	lwz 11,16(23)
	add 9,31,8
	lwzx 0,8,31
	.loc 9 385 0
	addi 7,7,1
	.loc 9 386 0
	lwz 10,4(9)
	add 9,8,11
	stwx 0,8,11
	.loc 9 385 0
	addi 8,8,8
	.loc 9 386 0
	stw 10,4(9)
	.loc 9 385 0
	lwz 0,4(23)
	cmpw 7,0,7
	bgt+ 7,.L381
.L379:
	.loc 9 391 0
	mr 3,31
	bl _ZdaPv
.LVL382:
.L372:
.LBE1175:
.LBE1173:
.LBE1172:
.LBE1171:
.LBE1170:
.LBE1169:
.LBB1184:
.LBB1185:
	.loc 8 371 0
	li 30,16
.LBE1185:
.LBE1184:
.LBB1187:
.LBB1189:
	.loc 8 341 0
	mr 3,29
.LBE1189:
.LBE1187:
.LBB1192:
.LBB1186:
	.loc 8 371 0
	stw 30,36(23)
.LBE1186:
.LBE1192:
.LBB1193:
.LBB1190:
	.loc 8 341 0
	bl _ZN11idHashIndex4FreeEv
.LEHE7:
.LVL383:
	.loc 8 342 0
	li 0,128
.LBE1190:
.LBE1193:
.LBE1199:
.LBE1204:
.LBE1123:
	.loc 2 107 0
	addi 21,23,52
.LVL384:
.LBB1122:
.LBB1128:
.LBB1134:
.LBB1146:
.LBB1188:
	.loc 8 342 0
	stw 0,20(23)
.LBE1188:
.LBE1146:
.LBE1134:
.LBE1128:
.LBE1122:
	.loc 2 107 0
	mr 26,21
.LBB1121:
.LBB1205:
.LBB1200:
.LBB1194:
.LBB1191:
	.loc 8 343 0
	stw 30,28(23)
.LBE1191:
.LBE1194:
.LBE1200:
.LBE1205:
.LBE1121:
	.loc 2 107 0
	mr 31,21
	li 25,31
	li 24,30
.LVL385:
.L382:
.LBB1038:
.LBB1042:
.LBB1046:
.LBB1064:
.LBB1066:
.LBB1068:
	.loc 9 150 0
	li 29,0
.LVL386:
	.loc 9 151 0
	li 28,16
	stw 28,8(31)
.LBB1070:
.LBB1072:
	.loc 9 191 0
	addi 27,31,16
	.loc 9 189 0
	stw 29,12(31)
.LBE1072:
.LBE1070:
.LBE1068:
.LBE1066:
.LBE1064:
.LBB1077:
.LBB1079:
.LBB1081:
	.loc 8 112 0
	mr 3,27
.LBE1081:
.LBE1079:
.LBE1077:
.LBB1084:
.LBB1065:
.LBB1067:
.LBB1069:
.LBB1071:
	.loc 9 190 0
	stw 29,0(31)
.LBE1071:
.LBE1069:
.LBE1067:
.LBE1065:
.LBE1084:
.LBB1085:
.LBB1078:
.LBB1080:
	.loc 8 112 0
	li 4,1024
.LBE1080:
.LBE1078:
.LBE1085:
.LBB1086:
.LBB1076:
.LBB1075:
.LBB1074:
.LBB1073:
	.loc 9 191 0
	stw 29,4(31)
.LBE1073:
.LBE1074:
.LBE1075:
.LBE1076:
.LBE1086:
.LBB1087:
.LBB1083:
.LBB1082:
	.loc 8 112 0
	li 5,1024
.LEHB8:
	bl _ZN11idHashIndex4InitEii
.LEHE8:
.LBE1082:
.LBE1083:
.LBE1087:
.LBB1088:
.LBB1089:
.LBB1090:
	.loc 9 311 0
	lwz 30,12(31)
	.loc 9 309 0
	stw 28,8(31)
	.loc 9 311 0
	cmpwi 7,30,0
	beq- 7,.L391
	.loc 9 313 0
	lwz 11,0(31)
	.loc 9 315 0
	lwz 0,4(31)
	.loc 9 313 0
	addi 9,11,15
.LVL387:
	.loc 9 314 0
	srawi 9,9,4
	addze 9,9
.LVL388:
	slwi 9,9,4
.LVL389:
	.loc 9 315 0
	cmpw 7,0,9
	beq- 7,.L391
.LBB1091:
.LBB1093:
.LBB1095:
	.loc 9 367 0
	cmpwi 7,9,0
	ble- 7,.L623
	.loc 9 379 0
	cmpw 7,9,11
	.loc 9 378 0
	stw 9,4(31)
	.loc 9 379 0
	bge- 7,.L396
	.loc 9 380 0
	stw 9,0(31)
.L396:
.LBE1095:
.LBE1093:
	.loc 9 384 0
	lwz 3,4(31)
	slwi 3,3,3
.LEHB9:
	bl _Znaj
.LVL390:
.LBB1092:
.LBB1094:
	.loc 9 385 0
	lwz 0,0(31)
	.loc 9 384 0
	stw 3,12(31)
	.loc 9 385 0
	cmpwi 7,0,0
	ble- 7,.L398
	li 7,0
.LVL391:
	li 8,0
.L400:
	.loc 9 386 0
	lwz 11,12(31)
	add 9,30,8
	lwzx 0,8,30
	.loc 9 385 0
	addi 7,7,1
	.loc 9 386 0
	lwz 10,4(9)
	add 9,8,11
	stwx 0,8,11
	.loc 9 385 0
	addi 8,8,8
	.loc 9 386 0
	stw 10,4(9)
	.loc 9 385 0
	lwz 0,0(31)
	cmpw 7,0,7
	bgt+ 7,.L400
.L398:
	.loc 9 391 0
	mr 3,30
	bl _ZdaPv
.LVL392:
.L391:
.LBE1094:
.LBE1092:
.LBE1091:
.LBE1090:
.LBE1089:
.LBE1088:
.LBB1103:
.LBB1104:
	.loc 8 371 0
	li 30,16
.LBE1104:
.LBE1103:
.LBB1106:
.LBB1108:
	.loc 8 341 0
	mr 3,27
.LBE1108:
.LBE1106:
.LBB1110:
.LBB1105:
	.loc 8 371 0
	stw 30,32(31)
.LBE1105:
.LBE1110:
.LBB1111:
.LBB1107:
	.loc 8 341 0
	bl _ZN11idHashIndex4FreeEv
.LEHE9:
.LVL393:
.LBE1107:
.LBE1111:
.LBE1046:
.LBE1042:
.LBE1038:
	.loc 2 107 0
	cmpwi 7,24,-1
.LBB1037:
.LBB1041:
.LBB1045:
.LBB1063:
.LBB1109:
	.loc 8 342 0
	li 0,128
	.loc 8 343 0
	mr 25,24
	stw 30,24(31)
	.loc 8 342 0
	stw 0,16(31)
	.loc 8 343 0
	addi 26,26,44
.LBE1109:
.LBE1063:
.LBE1045:
.LBE1041:
.LBE1037:
	.loc 2 107 0
	addi 24,24,-1
	beq- 7,.L624
.LBB1036:
.LBB1127:
.LBB1133:
.LBB1139:
.LBB1140:
.LBB1141:
.LBB1142:
	.loc 9 191 0
	mr 31,26
	b .L382
.LVL394:
.L623:
.LBE1142:
.LBE1141:
.LBE1140:
.LBE1139:
.LBE1133:
.LBE1127:
.LBE1036:
.LBB1035:
.LBB1118:
.LBB1115:
.LBB1112:
.LBB1102:
.LBB1101:
.LBB1100:
.LBB1099:
.LBB1098:
.LBB1096:
.LBB1097:
	.loc 9 186 0
	mr 3,30
	bl _ZdaPv
.LVL395:
	.loc 9 191 0
	stw 29,4(31)
	.loc 9 189 0
	stw 29,12(31)
	.loc 9 190 0
	stw 29,0(31)
	b .L391
.L624:
.LBE1097:
.LBE1096:
.LBE1098:
.LBE1099:
.LBE1100:
.LBE1101:
.LBE1102:
.LBE1112:
.LBE1115:
.LBE1118:
.LBE1035:
	.loc 2 107 0
	addi 22,23,2484
.LVL396:
	li 25,31
	mr 26,22
	mr 31,22
.LVL397:
	li 24,30
.LVL398:
.L409:
.LBB950:
.LBB954:
.LBB958:
.LBB997:
.LBB999:
.LBB1001:
	.loc 9 150 0
	li 29,0
	.loc 9 151 0
	li 28,16
	stw 28,8(31)
.LBB1003:
.LBB1005:
	.loc 9 191 0
	addi 27,31,16
.LVL399:
	.loc 9 189 0
	stw 29,12(31)
.LBE1005:
.LBE1003:
.LBE1001:
.LBE999:
.LBE997:
.LBB990:
.LBB992:
.LBB994:
	.loc 8 112 0
	mr 3,27
.LBE994:
.LBE992:
.LBE990:
.LBB989:
.LBB998:
.LBB1000:
.LBB1002:
.LBB1004:
	.loc 9 190 0
	stw 29,0(31)
.LBE1004:
.LBE1002:
.LBE1000:
.LBE998:
.LBE989:
.LBB988:
.LBB991:
.LBB993:
	.loc 8 112 0
	li 4,1024
.LBE993:
.LBE991:
.LBE988:
.LBB987:
.LBB1009:
.LBB1008:
.LBB1007:
.LBB1006:
	.loc 9 191 0
	stw 29,4(31)
.LBE1006:
.LBE1007:
.LBE1008:
.LBE1009:
.LBE987:
.LBB986:
.LBB996:
.LBB995:
	.loc 8 112 0
	li 5,1024
.LEHB10:
	bl _ZN11idHashIndex4InitEii
.LEHE10:
.LBE995:
.LBE996:
.LBE986:
.LBB971:
.LBB972:
.LBB973:
	.loc 9 311 0
	lwz 30,12(31)
	.loc 9 309 0
	stw 28,8(31)
	.loc 9 311 0
	cmpwi 7,30,0
	beq- 7,.L413
	.loc 9 313 0
	lwz 11,0(31)
	.loc 9 315 0
	lwz 0,4(31)
	.loc 9 313 0
	addi 9,11,15
.LVL400:
	.loc 9 314 0
	srawi 9,9,4
	addze 9,9
.LVL401:
	slwi 9,9,4
.LVL402:
	.loc 9 315 0
	cmpw 7,0,9
	beq- 7,.L413
.LBB974:
.LBB976:
.LBB978:
	.loc 9 367 0
	cmpwi 7,9,0
	ble- 7,.L625
	.loc 9 379 0
	cmpw 7,9,11
	.loc 9 378 0
	stw 9,4(31)
	.loc 9 379 0
	bge- 7,.L418
	.loc 9 380 0
	stw 9,0(31)
.L418:
.LBE978:
.LBE976:
	.loc 9 384 0
	lwz 3,4(31)
	slwi 3,3,3
.LEHB11:
	bl _Znaj
.LVL403:
.LBB975:
.LBB977:
	.loc 9 385 0
	lwz 0,0(31)
	.loc 9 384 0
	stw 3,12(31)
	.loc 9 385 0
	cmpwi 7,0,0
	ble- 7,.L420
	li 7,0
.LVL404:
	li 8,0
.L422:
	.loc 9 386 0
	lwz 11,12(31)
	add 9,30,8
	lwzx 0,8,30
	.loc 9 385 0
	addi 7,7,1
	.loc 9 386 0
	lwz 10,4(9)
	add 9,8,11
	stwx 0,8,11
	.loc 9 385 0
	addi 8,8,8
	.loc 9 386 0
	stw 10,4(9)
	.loc 9 385 0
	lwz 0,0(31)
	cmpw 7,0,7
	bgt+ 7,.L422
.L420:
	.loc 9 391 0
	mr 3,30
	bl _ZdaPv
.LVL405:
.L413:
.LBE977:
.LBE975:
.LBE974:
.LBE973:
.LBE972:
.LBE971:
.LBB968:
.LBB969:
	.loc 8 371 0
	li 30,16
.LBE969:
.LBE968:
.LBB964:
.LBB966:
	.loc 8 341 0
	mr 3,27
.LBE966:
.LBE964:
.LBB963:
.LBB970:
	.loc 8 371 0
	stw 30,32(31)
.LBE970:
.LBE963:
.LBB962:
.LBB965:
	.loc 8 341 0
	bl _ZN11idHashIndex4FreeEv
.LEHE11:
.LVL406:
.LBE965:
.LBE962:
.LBE958:
.LBE954:
.LBE950:
	.loc 2 107 0
	cmpwi 7,24,-1
.LBB949:
.LBB1031:
.LBB1027:
.LBB1010:
.LBB967:
	.loc 8 342 0
	li 0,128
	.loc 8 343 0
	mr 25,24
	.loc 8 342 0
	stw 0,16(31)
	.loc 8 343 0
	stw 30,24(31)
	addi 26,26,44
.LBE967:
.LBE1010:
.LBE1027:
.LBE1031:
.LBE949:
	.loc 2 107 0
	addi 24,24,-1
	beq- 7,.L423
	mr 31,26
	b .L409
.LVL407:
.L625:
.LBB948:
.LBB953:
.LBB957:
.LBB961:
.LBB985:
.LBB984:
.LBB983:
.LBB982:
.LBB981:
.LBB979:
.LBB980:
	.loc 9 186 0
	mr 3,30
	bl _ZdaPv
.LVL408:
	.loc 9 191 0
	stw 29,4(31)
	.loc 9 189 0
	stw 29,12(31)
	.loc 9 190 0
	stw 29,0(31)
	b .L413
.L423:
.LBE980:
.LBE979:
.LBE981:
.LBE982:
.LBE983:
.LBE984:
.LBE985:
.LBE961:
.LBE957:
.LBE953:
.LBE948:
	.loc 2 107 0
	addis 27,23,0x1
.LVL409:
.LBB943:
.LBB944:
.LBB945:
	.loc 8 112 0
	li 4,1024
.LBE945:
.LBE944:
.LBE943:
	.loc 2 107 0
	addi 25,27,-28868
.LVL410:
.LBB942:
.LBB947:
.LBB946:
	.loc 8 112 0
	li 5,1024
	mr 3,25
.LEHB12:
	bl _ZN11idHashIndex4InitEii
.LEHE12:
.LBE946:
.LBE947:
.LBE942:
	.loc 2 107 0
	addi 0,27,-28836
	addi 9,27,-28820
	mr 3,0
	stw 0,12(1)
	stw 9,8(1)
	bl _ZN10idLinkListI8idEntityEC1Ev
	lwz 3,8(1)
.LBB866:
.LBB869:
.LBB872:
.LBB914:
.LBB916:
.LBB918:
	.loc 9 150 0
	li 29,0
.LBB920:
.LBB922:
	.loc 9 191 0
	addi 28,27,-28780
.LVL411:
.LBE922:
.LBE920:
.LBE918:
.LBE916:
.LBE914:
.LBE872:
.LBE869:
.LBE866:
	.loc 2 107 0
	bl _ZN10idLinkListI8idEntityEC1Ev
.LBB865:
.LBB868:
.LBB871:
.LBB913:
.LBB929:
.LBB927:
	.loc 9 151 0
	stw 30,-28788(27)
.LBB925:
.LBB923:
	.loc 9 189 0
	stw 29,-28784(27)
.LBE923:
.LBE925:
.LBE927:
.LBE929:
.LBE913:
.LBB906:
.LBB908:
.LBB910:
	.loc 8 112 0
	mr 3,28
.LBE910:
.LBE908:
.LBE906:
.LBB905:
.LBB915:
.LBB917:
.LBB919:
.LBB921:
	.loc 9 190 0
	stw 29,-28796(27)
.LBE921:
.LBE919:
.LBE917:
.LBE915:
.LBE905:
.LBB904:
.LBB907:
.LBB909:
	.loc 8 112 0
	li 4,1024
.LBE909:
.LBE907:
.LBE904:
.LBB903:
.LBB930:
.LBB928:
.LBB926:
.LBB924:
	.loc 9 191 0
	stw 29,-28792(27)
.LBE924:
.LBE926:
.LBE928:
.LBE930:
.LBE903:
.LBB902:
.LBB912:
.LBB911:
	.loc 8 112 0
	li 5,1024
.LEHB13:
	bl _ZN11idHashIndex4InitEii
.LEHE13:
.LBE911:
.LBE912:
.LBE902:
.LBB882:
.LBB884:
.LBB886:
	.loc 9 311 0
	lwz 31,-28784(27)
.LVL412:
	.loc 9 309 0
	stw 30,-28788(27)
	.loc 9 311 0
	cmpwi 7,31,0
	beq- 7,.L436
	.loc 9 313 0
	lwz 11,-28796(27)
	.loc 9 315 0
	lwz 0,-28792(27)
	.loc 9 313 0
	addi 9,11,15
.LVL413:
	.loc 9 314 0
	srawi 9,9,4
	addze 9,9
.LVL414:
	slwi 9,9,4
.LVL415:
	.loc 9 315 0
	cmpw 7,0,9
	beq- 7,.L436
.LBB888:
.LBB890:
.LBB892:
	.loc 9 367 0
	cmpwi 7,9,0
	ble- 7,.L626
	.loc 9 379 0
	cmpw 7,9,11
	.loc 9 378 0
	stw 9,-28792(27)
	.loc 9 379 0
	blt- 7,.L627
.L441:
.LBE892:
.LBE890:
	.loc 9 384 0
	lwz 3,-28792(27)
	slwi 3,3,3
.LEHB14:
	bl _Znaj
.LVL416:
.LBB897:
.LBB895:
	.loc 9 385 0
	lwz 0,-28796(27)
	.loc 9 384 0
	stw 3,-28784(27)
	.loc 9 385 0
	cmpwi 7,0,0
	ble- 7,.L443
	li 7,0
.LVL417:
	li 8,0
.L445:
	.loc 9 386 0
	lwz 11,-28784(27)
	add 9,31,8
	lwzx 0,8,31
	.loc 9 385 0
	addi 7,7,1
	.loc 9 386 0
	lwz 10,4(9)
	add 9,8,11
	stwx 0,8,11
	.loc 9 385 0
	addi 8,8,8
	.loc 9 386 0
	stw 10,4(9)
	.loc 9 385 0
	lwz 0,-28796(27)
	cmpw 7,0,7
	bgt+ 7,.L445
.L443:
	.loc 9 391 0
	mr 3,31
	bl _ZdaPv
.LVL418:
.L436:
.LBE895:
.LBE897:
.LBE888:
.LBE886:
.LBE884:
.LBE882:
.LBB879:
.LBB880:
	.loc 8 371 0
	li 31,16
.LBE880:
.LBE879:
.LBB876:
.LBB877:
	.loc 8 341 0
	mr 3,28
.LBE877:
.LBE876:
.LBB875:
.LBB881:
	.loc 8 371 0
	stw 31,-28764(27)
.LBE881:
.LBE875:
.LBB874:
.LBB878:
	.loc 8 341 0
	bl _ZN11idHashIndex4FreeEv
.LEHE14:
.LVL419:
	.loc 8 342 0
	li 0,128
	.loc 8 343 0
	stw 31,-28772(27)
	.loc 8 342 0
	stw 0,-28780(27)
.LBE878:
.LBE874:
.LBE871:
.LBE868:
.LBE865:
.LBB862:
.LBB863:
.LBB864:
	.file 10 "d:/Data/Nintendo/DoomGX/src/game/../idlib/../idlib/math/Random.h"
	.loc 10 59 0
	li 0,0
	stw 0,-28704(27)
.LBE864:
.LBE863:
.LBE862:
	.loc 2 107 0
	addi 14,27,-28700
	mr 3,14
.LEHB15:
	bl _ZN9idProgramC1Ev
.LEHE15:
	addis 9,23,0x23
	stw 9,16(1)
	addi 3,9,20632
.LEHB16:
	bl _ZN6idClipC1Ev
.LEHE16:
	addis 29,23,0x25
	addi 15,29,4596
	mr 3,15
.LEHB17:
	bl _ZN5idPVSC1Ev
.LEHE17:
.LBB853:
.LBB854:
.LBB855:
.LBB856:
.LBB857:
	.file 11 "d:/Data/Nintendo/DoomGX/src/game/../idlib/../idlib/Str.h"
	.loc 11 356 0
	li 30,0
	.loc 11 357 0
	li 31,20
	.loc 11 358 0
	addi 0,29,4756
	.loc 11 356 0
	stw 30,4744(29)
	.loc 11 358 0
	stw 0,4748(29)
.LBE857:
.LBE856:
.LBE855:
.LBE854:
.LBE853:
	.loc 2 107 0
	addi 3,29,4776
.LBB852:
.LBB861:
.LBB860:
.LBB859:
.LBB858:
	.loc 11 357 0
	stw 31,4752(29)
	.loc 11 359 0
	stb 30,4756(29)
.LEHB18:
.LBE858:
.LBE859:
.LBE860:
.LBE861:
.LBE852:
	.loc 2 107 0
	bl _ZN17idMultiplayerGameC1Ev
.LEHE18:
	addi 16,29,6280
.LBB845:
.LBB846:
.LBB847:
	.loc 9 151 0
	li 26,16
.LBE847:
.LBE846:
.LBE845:
	.loc 2 107 0
	mr 3,16
.LBB768:
.LBB772:
.LBB776:
.LBB788:
.LBB789:
.LBB790:
.LBB791:
.LBB792:
	.loc 9 191 0
	addi 28,29,6436
.LVL420:
.LBE792:
.LBE791:
.LBE790:
.LBE789:
.LBE788:
.LBE776:
.LBE772:
.LBE768:
	.loc 2 107 0
	bl _ZN10idLinkListI8idEntityEC1Ev
.LBB755:
.LBB757:
.LBB759:
.LBB761:
.LBB763:
	.loc 11 358 0
	addi 0,29,6332
	.loc 11 357 0
	stw 31,6328(29)
.LBE763:
.LBE761:
.LBE759:
.LBE757:
.LBE755:
.LBB754:
.LBB771:
.LBB775:
.LBB779:
.LBB781:
.LBB783:
	.loc 8 112 0
	mr 3,28
.LBE783:
.LBE781:
.LBE779:
.LBE775:
.LBE771:
.LBE754:
.LBB753:
.LBB756:
.LBB758:
.LBB760:
.LBB762:
	.loc 11 358 0
	stw 0,6324(29)
.LBE762:
.LBE760:
.LBE758:
.LBE756:
.LBE753:
.LBB752:
.LBB842:
.LBB839:
.LBB797:
.LBB786:
.LBB784:
	.loc 8 112 0
	li 4,1024
.LBE784:
.LBE786:
.LBE797:
.LBE839:
.LBE842:
.LBE752:
.LBB749:
.LBB750:
.LBB751:
	.file 12 "d:/Data/Nintendo/DoomGX/src/game/Game_local.h"
	.loc 12 585 0
	stw 30,6312(29)
.LBE751:
.LBE750:
.LBE749:
.LBB748:
.LBB770:
.LBB774:
.LBB778:
.LBB780:
.LBB782:
	.loc 8 112 0
	li 5,1024
.LBE782:
.LBE780:
.LBE778:
.LBE774:
.LBE770:
.LBE748:
.LBB747:
.LBB767:
.LBB766:
.LBB765:
.LBB764:
	.loc 11 356 0
	stw 30,6320(29)
	.loc 11 359 0
	stb 30,6332(29)
.LBE764:
.LBE765:
.LBE766:
.LBE767:
.LBE747:
.LBB746:
.LBB851:
.LBB850:
	.loc 9 151 0
	stw 26,6388(29)
.LBB848:
.LBB849:
	.loc 9 189 0
	stw 30,6392(29)
	.loc 9 190 0
	stw 30,6380(29)
	.loc 9 191 0
	stw 30,6384(29)
.LBE849:
.LBE848:
.LBE850:
.LBE851:
.LBE746:
.LBB741:
.LBB742:
.LBB743:
	.loc 9 151 0
	stw 26,6404(29)
.LBB744:
.LBB745:
	.loc 9 189 0
	stw 30,6408(29)
	.loc 9 190 0
	stw 30,6396(29)
	.loc 9 191 0
	stw 30,6400(29)
.LBE745:
.LBE744:
.LBE743:
.LBE742:
.LBE741:
.LBB738:
.LBB739:
.LBB740:
	.loc 12 585 0
	stw 30,6412(29)
.LBE740:
.LBE739:
.LBE738:
.LBB737:
.LBB843:
.LBB840:
.LBB798:
.LBB796:
.LBB795:
	.loc 9 151 0
	stw 26,6428(29)
.LBB794:
.LBB793:
	.loc 9 189 0
	stw 30,6432(29)
	.loc 9 190 0
	stw 30,6420(29)
	.loc 9 191 0
	stw 30,6424(29)
.LEHB19:
.LBE793:
.LBE794:
.LBE795:
.LBE796:
.LBE798:
.LBB799:
.LBB787:
.LBB785:
	.loc 8 112 0
	bl _ZN11idHashIndex4InitEii
.LEHE19:
.LBE785:
.LBE787:
.LBE799:
.LBB800:
.LBB802:
.LBB804:
	.loc 9 311 0
	lwz 31,6432(29)
	.loc 9 309 0
	stw 26,6428(29)
	.loc 9 311 0
	cmpwi 7,31,0
	beq- 7,.L463
	.loc 9 313 0
	lwz 11,6420(29)
	.loc 9 315 0
	lwz 0,6424(29)
	.loc 9 313 0
	addi 9,11,15
.LVL421:
	.loc 9 314 0
	srawi 9,9,4
	addze 9,9
.LVL422:
	slwi 9,9,4
.LVL423:
	.loc 9 315 0
	cmpw 7,0,9
	beq- 7,.L463
.LBB806:
.LBB808:
.LBB810:
	.loc 9 367 0
	cmpwi 7,9,0
	ble- 7,.L628
	.loc 9 379 0
	cmpw 7,9,11
	.loc 9 378 0
	stw 9,6424(29)
	.loc 9 379 0
	blt- 7,.L629
.L468:
.LBE810:
.LBE808:
	.loc 9 384 0
	lwz 3,6424(29)
	slwi 3,3,3
.LEHB20:
	bl _Znaj
.LVL424:
.LBB815:
.LBB813:
	.loc 9 385 0
	lwz 0,6420(29)
	.loc 9 384 0
	stw 3,6432(29)
	.loc 9 385 0
	cmpwi 7,0,0
	ble- 7,.L470
	li 7,0
.LVL425:
	li 8,0
.L472:
	.loc 9 386 0
	lwz 11,6432(29)
	add 9,8,31
	lwzx 0,8,31
	.loc 9 385 0
	addi 7,7,1
	.loc 9 386 0
	lwz 10,4(9)
	add 9,8,11
	stwx 0,8,11
	.loc 9 385 0
	addi 8,8,8
	.loc 9 386 0
	stw 10,4(9)
	.loc 9 385 0
	lwz 0,6420(29)
	cmpw 7,0,7
	bgt+ 7,.L472
.L470:
	.loc 9 391 0
	mr 3,31
	bl _ZdaPv
.LVL426:
.L463:
.LBE813:
.LBE815:
.LBE806:
.LBE804:
.LBE802:
.LBE800:
.LBB820:
.LBB821:
	.loc 8 371 0
	li 31,16
.LBE821:
.LBE820:
.LBB823:
.LBB824:
	.loc 8 341 0
	mr 3,28
.LBE824:
.LBE823:
.LBB826:
.LBB822:
	.loc 8 371 0
	stw 31,6452(29)
.LBE822:
.LBE826:
.LBB827:
.LBB825:
	.loc 8 341 0
	bl _ZN11idHashIndex4FreeEv
.LEHE20:
.LVL427:
	.loc 8 342 0
	li 0,128
	.loc 8 343 0
	stw 31,6444(29)
	.loc 8 342 0
	stw 0,6436(29)
	.loc 8 343 0
	addi 10,29,6504
	li 8,0
.L473:
.LBE825:
.LBE827:
.LBB828:
.LBB829:
.LBB830:
.LBB831:
	.loc 9 191 0
	li 0,32
	li 11,0
	mtctr 0
.L478:
	.loc 2 107 0
	add 9,10,11
.LBE831:
.LBE830:
.LBE829:
.LBE828:
.LBE840:
.LBE843:
.LBE737:
.LBB730:
.LBB731:
.LBB732:
	.loc 9 150 0
	li 31,0
	.loc 9 151 0
	li 30,16
.LBB733:
.LBB734:
	.loc 9 190 0
	stwx 31,11,10
	.loc 9 191 0
	stw 31,4(9)
	addi 11,11,16
.LBE734:
.LBE733:
	.loc 9 151 0
	stw 30,8(9)
.LBB736:
.LBB735:
	.loc 9 189 0
	stw 31,12(9)
.LBE735:
.LBE736:
.LBE732:
.LBE731:
.LBE730:
	.loc 2 107 0
	bdnz .L478
	cmpwi 7,8,31
	addi 10,10,512
	addi 8,8,1
	bne+ 7,.L473
	addis 28,23,0x2e
.LVL428:
	addi 17,28,-26136
	addi 18,28,-26120
	mr 3,17
.LBB723:
.LBB725:
.LBB727:
	.loc 12 195 0
	addi 24,28,-26096
.LBE727:
.LBE725:
.LBE723:
	.loc 2 107 0
	bl _ZN12idBlockAllocI13entityState_sLi256EEC1Ev
	mr 3,18
	bl _ZN12idBlockAllocI10snapshot_sLi64EEC1Ev
.LBB722:
.LBB724:
.LBB726:
	.loc 12 195 0
	stw 31,-26104(28)
	stw 31,-26100(28)
	mr 3,24
.LBE726:
.LBE724:
.LBE722:
.LBB717:
.LBB718:
.LBB719:
	addi 20,28,-26072
.LBE719:
.LBE718:
.LBE717:
	.loc 2 107 0
	addi 19,28,23108
.LBB716:
.LBB729:
.LBB728:
	.loc 12 195 0
	bl _ZN12idBlockAllocI16entityNetEvent_sLi32EEC1Ev
.LBE728:
.LBE729:
.LBE716:
.LBB715:
.LBB721:
.LBB720:
	stw 31,-26080(28)
	stw 31,-26076(28)
	mr 3,20
	bl _ZN12idBlockAllocI16entityNetEvent_sLi32EEC1Ev
.LBE720:
.LBE721:
.LBE715:
.LBB712:
.LBB713:
.LBB714:
	.file 13 "d:/Data/Nintendo/DoomGX/src/game/../idlib/../idlib/containers/StaticList.h"
	.loc 13 89 0
	stw 31,-26056(28)
.LBE714:
.LBE713:
.LBE712:
.LBB709:
.LBB710:
.LBB711:
	stw 31,6716(28)
.LBE711:
.LBE710:
.LBE709:
	.loc 2 107 0
	mr 3,19
.LEHB21:
	bl _ZN6idDictC1Ev
.LEHE21:
.LBB702:
.LBB703:
.LBB704:
	.loc 9 151 0
	stw 30,23160(28)
.LBE704:
.LBE703:
.LBE702:
	.loc 2 108 0
	mr 3,23
.LBB701:
.LBB708:
.LBB707:
.LBB705:
.LBB706:
	.loc 9 191 0
	stw 31,23156(28)
	.loc 9 189 0
	stw 31,23164(28)
	.loc 9 190 0
	stw 31,23152(28)
.LEHB22:
.LBE706:
.LBE705:
.LBE707:
.LBE708:
.LBE701:
	.loc 2 108 0
	bl _ZN11idGameLocal5ClearEv
.LEHE22:
.LBE1315:
	.loc 2 109 0
	lwz 0,100(1)
	lwz 14,24(1)
	lwz 15,28(1)
	mtlr 0
	lwz 16,32(1)
	lwz 17,36(1)
	lwz 18,40(1)
	lwz 19,44(1)
	lwz 20,48(1)
	lwz 21,52(1)
.LVL429:
	lwz 22,56(1)
.LVL430:
	lwz 23,60(1)
.LVL431:
	lwz 24,64(1)
	lwz 25,68(1)
.LVL432:
	lwz 26,72(1)
	lwz 27,76(1)
	lwz 28,80(1)
	lwz 29,84(1)
	lwz 30,88(1)
	lwz 31,92(1)
	addi 1,1,96
	blr
.LVL433:
.L629:
.LBB1316:
.LBB1210:
.LBB769:
.LBB773:
.LBB777:
.LBB801:
.LBB803:
.LBB805:
.LBB807:
.LBB809:
	.loc 9 380 0
	stw 9,6420(29)
	b .L468
.LVL434:
.L627:
.LBE809:
.LBE807:
.LBE805:
.LBE803:
.LBE801:
.LBE777:
.LBE773:
.LBE769:
.LBE1210:
.LBB1211:
.LBB940:
.LBB938:
.LBB931:
.LBB883:
.LBB885:
.LBB887:
.LBB889:
.LBB891:
	stw 9,-28796(27)
	b .L441
.LVL435:
.L622:
.LBE891:
.LBE889:
.LBE887:
.LBE885:
.LBE883:
.LBE931:
.LBE938:
.LBE940:
.LBE1211:
.LBB1212:
.LBB1206:
.LBB1201:
.LBB1195:
.LBB1183:
.LBB1182:
.LBB1181:
.LBB1180:
.LBB1179:
	stw 9,4(23)
	b .L377
.L621:
.LBB1177:
.LBB1178:
	.loc 9 186 0
	mr 3,31
	bl _ZdaPv
.LVL436:
	.loc 9 191 0
	stw 30,8(23)
	.loc 9 189 0
	stw 30,16(23)
	.loc 9 190 0
	stw 30,4(23)
	b .L372
.LVL437:
.L626:
.LBE1178:
.LBE1177:
.LBE1179:
.LBE1180:
.LBE1181:
.LBE1182:
.LBE1183:
.LBE1195:
.LBE1201:
.LBE1206:
.LBE1212:
.LBB1213:
.LBB867:
.LBB870:
.LBB873:
.LBB901:
.LBB900:
.LBB899:
.LBB898:
.LBB896:
.LBB893:
.LBB894:
	.loc 9 186 0
	mr 3,31
	bl _ZdaPv
.LVL438:
	.loc 9 191 0
	stw 29,-28792(27)
	.loc 9 189 0
	stw 29,-28784(27)
	.loc 9 190 0
	stw 29,-28796(27)
	b .L436
.LVL439:
.L628:
.LBE894:
.LBE893:
.LBE896:
.LBE898:
.LBE899:
.LBE900:
.LBE901:
.LBE873:
.LBE870:
.LBE867:
.LBE1213:
.LBB1214:
.LBB844:
.LBB841:
.LBB835:
.LBB819:
.LBB818:
.LBB817:
.LBB816:
.LBB814:
.LBB811:
.LBB812:
	.loc 9 186 0
	mr 3,31
	bl _ZdaPv
.LVL440:
	.loc 9 191 0
	stw 30,6424(29)
	.loc 9 189 0
	stw 30,6432(29)
	.loc 9 190 0
	stw 30,6420(29)
	b .L463
.L554:
.L474:
	mr 26,3
.LBE812:
.LBE811:
.LBE814:
.LBE816:
.LBE817:
.LBE818:
.LBE819:
.LBE835:
.LBB836:
.LBB837:
	.loc 8 130 0
	mr 3,28
	bl _ZN11idHashIndex4FreeEv
.L475:
.LBE837:
.LBE836:
.LBB838:
.LBB834:
.LBB833:
.LBB832:
	.loc 9 185 0
	lwz 3,6432(29)
	cmpwi 7,3,0
	beq- 7,.L476
	.loc 9 186 0
	bl _ZdaPv
.L476:
	.loc 9 189 0
	li 0,0
	.loc 9 191 0
	stw 0,6424(29)
	.loc 9 189 0
	stw 0,6432(29)
	.loc 9 190 0
	stw 0,6420(29)
.L574:
.LVL441:
.L510:
.LBE832:
.LBE833:
.LBE834:
.LBE838:
.LBE841:
.LBE844:
.LBE1214:
.LBB1215:
.LBB1217:
.LBB1219:
.LBB1221:
	.loc 9 185 0
	lwz 9,6408(29)
	cmpwi 7,9,0
	beq- 7,.L511
	.loc 9 186 0
	lwz 0,-4(9)
	slwi 0,0,5
	add 31,9,0
.LVL442:
	cmpw 7,9,31
	mr 3,31
	beq- 7,.L515
.LVL443:
.L596:
	addi 31,31,-32
.LVL444:
.LBB1222:
.LBB1223:
	.loc 11 501 0
	mr 3,31
	bl _ZN5idStr8FreeDataEv
.LBE1223:
.LBE1222:
	.loc 9 186 0
	lwz 3,6408(29)
.LVL445:
	cmpw 7,3,31
	bne+ 7,.L596
.L515:
	addi 3,3,-4
.LVL446:
	bl _ZdaPv
.LVL447:
.L511:
.L575:
.L516:
.LBE1221:
.LBE1219:
.LBE1217:
.LBE1215:
.LBB1227:
.LBB1229:
.LBB1231:
.LBB1233:
	.loc 9 185 0
	lwz 3,6392(29)
.LBE1233:
.LBE1231:
.LBE1229:
.LBE1227:
.LBB1240:
.LBB1216:
.LBB1218:
.LBB1220:
	.loc 9 189 0
	li 31,0
.LVL448:
	stw 31,6408(29)
.LBE1220:
.LBE1218:
.LBE1216:
.LBE1240:
.LBB1241:
.LBB1238:
.LBB1236:
.LBB1234:
	.loc 9 185 0
	cmpwi 7,3,0
.LBE1234:
.LBE1236:
.LBE1238:
.LBE1241:
.LBB1242:
.LBB1226:
.LBB1225:
.LBB1224:
	.loc 9 190 0
	stw 31,6396(29)
	.loc 9 191 0
	stw 31,6400(29)
.LBE1224:
.LBE1225:
.LBE1226:
.LBE1242:
.LBB1243:
.LBB1228:
.LBB1230:
.LBB1232:
	.loc 9 185 0
	beq- 7,.L517
	.loc 9 186 0
	bl _ZdaPv
.L517:
.L576:
.L519:
.L577:
.L520:
.L578:
.L521:
	.loc 9 189 0
	li 0,0
	stw 31,6392(29)
	.loc 9 191 0
	stw 0,6384(29)
.LBE1232:
.LBE1230:
.LBE1228:
.LBE1243:
.LBB1244:
.LBB1245:
	.loc 11 501 0
	addi 3,29,6320
.LBE1245:
.LBE1244:
.LBB1247:
.LBB1239:
.LBB1237:
.LBB1235:
	.loc 9 190 0
	stw 0,6380(29)
.LBE1235:
.LBE1237:
.LBE1239:
.LBE1247:
.LBB1248:
.LBB1250:
	.file 14 "d:/Data/Nintendo/DoomGX/src/game/MultiplayerGame.h"
	.loc 14 95 0
	addi 31,29,6048
.LVL449:
	addi 30,29,5868
.LBE1250:
.LBE1248:
.LBB1266:
.LBB1246:
	.loc 11 501 0
	bl _ZN5idStr8FreeDataEv
.LBE1246:
.LBE1266:
	.loc 2 109 0
	mr 3,16
	bl _ZN10idLinkListI8idEntityED1Ev
.L522:
.LBB1267:
.LBB1249:
	.loc 14 95 0
	cmpw 7,31,30
	beq- 7,.L523
	addi 31,31,-36
.LBB1251:
.LBB1252:
.LBB1253:
.LBB1254:
	.loc 11 501 0
	mr 3,31
.LEHB23:
	bl _ZN5idStr8FreeDataEv
.LEHE23:
	b .L522
.LVL450:
.L566:
	mr 26,3
.LVL451:
.L497:
.L567:
.L498:
.L568:
.L499:
.L569:
.L500:
.L570:
.L501:
.L571:
.L502:
.L572:
.L503:
.LBE1254:
.LBE1253:
.LBE1252:
.LBE1251:
.LBE1249:
.LBE1267:
.LBB1268:
.LBB1269:
	.loc 12 187 0
	mr 3,20
.LBE1269:
.LBE1268:
	.loc 2 109 0
	addi 30,29,6504
.LBB1271:
.LBB1270:
	.loc 12 187 0
	bl _ZN12idBlockAllocI16entityNetEvent_sLi32EED1Ev
.LBE1270:
.LBE1271:
.LBB1272:
.LBB1273:
	mr 3,24
	bl _ZN12idBlockAllocI16entityNetEvent_sLi32EED1Ev
.LBE1273:
.LBE1272:
	.loc 2 109 0
	mr 3,18
	bl _ZN12idBlockAllocI10snapshot_sLi64EED1Ev
	mr 3,17
	bl _ZN12idBlockAllocI13entityState_sLi256EED1Ev
	addi 0,29,22888
.LVL452:
	cmpw 7,0,30
	beq- 7,.L504
	mr 31,0
.LVL453:
.L506:
.LBB1274:
.LBB1275:
.LBB1276:
.LBB1277:
	.loc 9 185 0
	lwz 3,-4(31)
	cmpwi 7,3,0
	beq- 7,.L507
	.loc 9 186 0
	bl _ZdaPv
.LVL454:
.L507:
	.loc 9 189 0
	li 0,0
.LVL455:
	.loc 9 191 0
	stw 0,-12(31)
	.loc 9 189 0
	stw 0,-4(31)
	.loc 9 190 0
	stw 0,-16(31)
	.loc 9 191 0
	addi 31,31,-16
.LBE1277:
.LBE1276:
.LBE1275:
.LBE1274:
	.loc 2 109 0
	cmpw 7,31,30
	bne+ 7,.L506
.LVL456:
.L504:
.L573:
.L509:
	addi 3,29,6420
	bl _ZN6idDictD1Ev
.LVL457:
	b .L510
.LVL458:
.L564:
.L490:
.LBB1278:
.LBB1279:
.LBB1280:
.LBB1281:
	.loc 9 185 0
	lwz 9,23164(28)
	mr 26,3
	cmpwi 7,9,0
	beq- 7,.L491
	.loc 9 186 0
	lwz 0,-4(9)
	slwi 0,0,5
	add 31,9,0
.LVL459:
	cmpw 7,9,31
	mr 3,31
	beq- 7,.L495
.LVL460:
.L595:
	addi 31,31,-32
.LVL461:
.LBB1282:
.LBB1283:
	.loc 11 501 0
	mr 3,31
	bl _ZN5idStr8FreeDataEv
.LBE1283:
.LBE1282:
	.loc 9 186 0
	lwz 3,23164(28)
.LVL462:
	cmpw 7,3,31
	bne+ 7,.L595
.L495:
	addi 3,3,-4
.LVL463:
	bl _ZdaPv
.L491:
.L565:
.L496:
	.loc 9 189 0
	li 0,0
.LBE1281:
.LBE1280:
.LBE1279:
.LBE1278:
	.loc 2 109 0
	mr 3,19
.LBB1287:
.LBB1286:
.LBB1285:
.LBB1284:
	.loc 9 191 0
	stw 0,23156(28)
	.loc 9 189 0
	stw 0,23164(28)
	.loc 9 190 0
	stw 0,23152(28)
.LBE1284:
.LBE1285:
.LBE1286:
.LBE1287:
	.loc 2 109 0
	bl _ZN6idDictD1Ev
	b .L497
.LVL464:
.L563:
	mr 26,3
.L384:
.LBB1288:
.LBB1126:
.LBB1132:
.LBB1138:
.LBB1145:
.LBB1144:
.LBB1143:
	.loc 9 185 0
	lwz 3,16(23)
	cmpwi 7,3,0
	beq- 7,.L385
	.loc 9 186 0
	bl _ZdaPv
.L385:
	.loc 9 189 0
	li 0,0
	.loc 9 191 0
	stw 0,8(23)
	.loc 9 189 0
	stw 0,16(23)
	.loc 9 190 0
	stw 0,4(23)
.L592:
.LVL465:
.L547:
.LBE1143:
.LBE1144:
.LBE1145:
.LBE1138:
.LBE1132:
.LBE1126:
.LBE1288:
.LBB1289:
.LBB1290:
	.loc 5 74 0
	lis 9,_ZTV6idGame+8@ha
	mr 3,26
	la 9,_ZTV6idGame+8@l(9)
	stw 9,0(23)
.LEHB24:
	bl _Unwind_Resume
.LEHE24:
.LVL466:
.L583:
	mr 26,3
.LVL467:
.L536:
.LBE1290:
.LBE1289:
	.loc 2 109 0
	addi 3,27,-28796
	bl _ZN6idDictD1Ev
.L584:
.LVL468:
.L537:
.L585:
.L538:
.L586:
.L539:
	lwz 3,8(1)
	bl _ZN10idLinkListI8idEntityED1Ev
	lwz 3,12(1)
	bl _ZN10idLinkListI8idEntityED1Ev
.LBB1291:
.LBB1292:
	.loc 8 130 0
	mr 3,25
	bl _ZN11idHashIndex4FreeEv
.L540:
.LBE1292:
.LBE1291:
	.loc 2 109 0
	addi 31,23,3892
.LVL469:
	cmpw 7,22,31
	beq- 7,.L543
.L597:
	addi 31,31,-44
	mr 3,31
	bl _ZN6idDictD1Ev
	cmpw 7,22,31
	bne+ 7,.L597
.L589:
.LVL470:
.L543:
	addi 31,23,1460
	cmpw 7,21,31
	beq- 7,.L546
.L598:
	addi 31,31,-44
	mr 3,31
	bl _ZN6idDictD1Ev
	cmpw 7,21,31
	bne+ 7,.L598
.L591:
.LVL471:
.L546:
	addi 3,23,4
	bl _ZN6idDictD1Ev
	b .L547
.LVL472:
.L587:
	mr 26,3
	b .L540
.LVL473:
.L579:
	mr 26,3
.LVL474:
.L530:
.L580:
.L531:
.LBB1293:
.LBB1294:
	.loc 11 501 0
	addi 3,29,4744
	bl _ZN5idStr8FreeDataEv
.LBE1294:
.LBE1293:
	.loc 2 109 0
	mr 3,15
	bl _ZN5idPVSD1Ev
.L532:
.LBB1295:
.LBB1296:
	.file 15 "d:/Data/Nintendo/DoomGX/src/game/physics/Clip.h"
	.loc 15 248 0
	lwz 9,16(1)
	addi 3,9,20804
.LEHB25:
	bl _ZN11idClipModelD1Ev
.LEHE25:
	lwz 9,16(1)
	addi 3,9,20664
	bl _ZN11idClipModelD1Ev
.L535:
.LBE1296:
.LBE1295:
	.loc 2 109 0
	mr 3,14
	bl _ZN9idProgramD1Ev
	b .L536
.LVL475:
.L560:
.L402:
	mr 26,3
.LBB1298:
.LBB1040:
.LBB1044:
.LBB1061:
.LBB1062:
	.loc 8 130 0
	mr 3,27
	bl _ZN11idHashIndex4FreeEv
.L403:
.LBE1062:
.LBE1061:
.LBB1048:
.LBB1050:
.LBB1052:
.LBB1054:
	.loc 9 185 0
	lwz 3,12(31)
	cmpwi 7,3,0
	beq- 7,.L404
	.loc 9 186 0
	bl _ZdaPv
.L404:
.L590:
.L406:
.LBE1054:
.LBE1052:
.LBE1050:
.LBE1048:
.LBE1044:
.LBE1040:
.LBE1298:
	.loc 2 107 0
	subfic 0,25,31
.LBB1299:
.LBB1119:
.LBB1116:
.LBB1113:
.LBB1059:
.LBB1057:
.LBB1055:
	.loc 9 189 0
	li 9,0
.LBE1055:
.LBE1057:
.LBE1059:
.LBE1113:
.LBE1116:
.LBE1119:
.LBE1299:
	.loc 2 107 0
	mulli 0,0,44
.LBB1300:
.LBB1039:
.LBB1043:
.LBB1047:
.LBB1049:
.LBB1051:
.LBB1053:
	.loc 9 191 0
	stw 9,4(31)
	.loc 9 189 0
	stw 9,12(31)
.LBE1053:
.LBE1051:
.LBE1049:
.LBE1047:
.LBE1043:
.LBE1039:
.LBE1300:
	.loc 2 107 0
	add 30,0,21
.LBB1301:
.LBB1120:
.LBB1117:
.LBB1114:
.LBB1060:
.LBB1058:
.LBB1056:
	.loc 9 190 0
	stw 9,0(31)
.LBE1056:
.LBE1058:
.LBE1060:
.LBE1114:
.LBE1117:
.LBE1120:
.LBE1301:
	.loc 2 107 0
	cmpw 7,21,30
	beq- 7,.L546
.LVL476:
.L593:
	addi 30,30,-44
	mr 3,30
	bl _ZN6idDictD1Ev
	cmpw 7,21,30
	bne+ 7,.L593
	b .L546
.LVL477:
.L550:
.L534:
.LBB1302:
.LBB1297:
	.loc 15 248 0
	lwz 9,16(1)
	mr 26,3
	addi 3,9,20664
	bl _ZN11idClipModelD1Ev
	b .L535
.LVL478:
.L559:
	mr 26,3
.L426:
.LBE1297:
.LBE1302:
.LBB1303:
.LBB1032:
.LBB1028:
.LBB1011:
.LBB1013:
.LBB1015:
.LBB1017:
	.loc 9 185 0
	lwz 3,12(31)
	cmpwi 7,3,0
	beq- 7,.L427
	.loc 9 186 0
	bl _ZdaPv
.L427:
.L588:
.L429:
.LBE1017:
.LBE1015:
.LBE1013:
.LBE1011:
.LBE1028:
.LBE1032:
.LBE1303:
	.loc 2 107 0
	subfic 0,25,31
.LBB1304:
.LBB952:
.LBB956:
.LBB960:
.LBB1022:
.LBB1020:
.LBB1018:
	.loc 9 189 0
	li 9,0
.LBE1018:
.LBE1020:
.LBE1022:
.LBE960:
.LBE956:
.LBE952:
.LBE1304:
	.loc 2 107 0
	mulli 0,0,44
.LBB1305:
.LBB1033:
.LBB1029:
.LBB1024:
.LBB1012:
.LBB1014:
.LBB1016:
	.loc 9 191 0
	stw 9,4(31)
	.loc 9 189 0
	stw 9,12(31)
.LBE1016:
.LBE1014:
.LBE1012:
.LBE1024:
.LBE1029:
.LBE1033:
.LBE1305:
	.loc 2 107 0
	add 30,0,22
.LBB1306:
.LBB951:
.LBB955:
.LBB959:
.LBB1023:
.LBB1021:
.LBB1019:
	.loc 9 190 0
	stw 9,0(31)
.LBE1019:
.LBE1021:
.LBE1023:
.LBE959:
.LBE955:
.LBE951:
.LBE1306:
	.loc 2 107 0
	cmpw 7,22,30
	beq- 7,.L543
.LVL479:
.L594:
	addi 30,30,-44
	mr 3,30
	bl _ZN6idDictD1Ev
	cmpw 7,22,30
	bne+ 7,.L594
	b .L543
.LVL480:
.L558:
.L425:
	mr 26,3
.LBB1307:
.LBB1034:
.LBB1030:
.LBB1025:
.LBB1026:
	.loc 8 130 0
	mr 3,27
	bl _ZN11idHashIndex4FreeEv
	b .L426
.LVL481:
.L582:
	mr 26,3
	b .L535
.L581:
	mr 26,3
	b .L532
.LVL482:
.L561:
	mr 26,3
	b .L403
.LVL483:
.L557:
	mr 26,3
.LVL484:
.L448:
.LBE1026:
.LBE1025:
.LBE1030:
.LBE1034:
.LBE1307:
.LBB1308:
.LBB941:
.LBB939:
.LBB932:
.LBB933:
.LBB934:
.LBB935:
	.loc 9 185 0
	lwz 3,-28784(27)
	cmpwi 7,3,0
	beq- 7,.L449
	.loc 9 186 0
	bl _ZdaPv
.L449:
	.loc 9 189 0
	li 0,0
	.loc 9 191 0
	stw 0,-28792(27)
	.loc 9 189 0
	stw 0,-28784(27)
	.loc 9 190 0
	stw 0,-28796(27)
	b .L537
.LVL485:
.L556:
.L447:
	mr 26,3
.LBE935:
.LBE934:
.LBE933:
.LBE932:
.LBB936:
.LBB937:
	.loc 8 130 0
	mr 3,28
	bl _ZN11idHashIndex4FreeEv
	b .L448
.LVL486:
.L562:
.L383:
	mr 26,3
.LBE937:
.LBE936:
.LBE939:
.LBE941:
.LBE1308:
.LBB1309:
.LBB1207:
.LBB1202:
.LBB1196:
.LBB1197:
	mr 3,29
	bl _ZN11idHashIndex4FreeEv
	b .L384
.LVL487:
.L555:
	mr 26,3
	b .L475
.LVL488:
.L551:
.L525:
	mr 26,3
.LBE1197:
.LBE1196:
.LBE1202:
.LBE1207:
.LBE1309:
.LBB1310:
.LBB1265:
.LBB1255:
.LBB1256:
	.loc 11 501 0
	addi 3,29,5796
	bl _ZN5idStr8FreeDataEv
.L527:
.LBE1256:
.LBE1255:
.LBB1257:
.LBB1258:
	addi 3,29,5608
	bl _ZN5idStr8FreeDataEv
.L619:
.LBE1258:
.LBE1257:
.LBB1259:
.LBB1260:
	addi 3,29,5576
	bl _ZN5idStr8FreeDataEv
	b .L530
.L523:
.LBE1260:
.LBE1259:
.LBB1261:
.LBB1262:
	addi 3,29,5796
.LEHB26:
	bl _ZN5idStr8FreeDataEv
.LEHE26:
.LBE1262:
.LBE1261:
.LBB1263:
.LBB1264:
	addi 3,29,5608
.LEHB27:
	bl _ZN5idStr8FreeDataEv
.LEHE27:
	b .L619
.L552:
	mr 26,3
	b .L527
.L553:
.L529:
	mr 26,3
	b .L619
.LBE1264:
.LBE1263:
.LBE1265:
.LBE1310:
.LBE1316:
.LFE2825:
	.size	_ZN11idGameLocalC1Ev, .-_ZN11idGameLocalC1Ev
	.section	.gcc_except_table
.LLSDA2825:
	.byte	0xff
	.byte	0xff
	.byte	0x1
	.uleb128 .LLSDACSE2825-.LLSDACSB2825
.LLSDACSB2825:
	.uleb128 .LEHB6-.LFB2825
	.uleb128 .LEHE6-.LEHB6
	.uleb128 .L563-.LFB2825
	.uleb128 0x0
	.uleb128 .LEHB7-.LFB2825
	.uleb128 .LEHE7-.LEHB7
	.uleb128 .L562-.LFB2825
	.uleb128 0x0
	.uleb128 .LEHB8-.LFB2825
	.uleb128 .LEHE8-.LEHB8
	.uleb128 .L561-.LFB2825
	.uleb128 0x0
	.uleb128 .LEHB9-.LFB2825
	.uleb128 .LEHE9-.LEHB9
	.uleb128 .L560-.LFB2825
	.uleb128 0x0
	.uleb128 .LEHB10-.LFB2825
	.uleb128 .LEHE10-.LEHB10
	.uleb128 .L559-.LFB2825
	.uleb128 0x0
	.uleb128 .LEHB11-.LFB2825
	.uleb128 .LEHE11-.LEHB11
	.uleb128 .L558-.LFB2825
	.uleb128 0x0
	.uleb128 .LEHB12-.LFB2825
	.uleb128 .LEHE12-.LEHB12
	.uleb128 .L587-.LFB2825
	.uleb128 0x0
	.uleb128 .LEHB13-.LFB2825
	.uleb128 .LEHE13-.LEHB13
	.uleb128 .L557-.LFB2825
	.uleb128 0x0
	.uleb128 .LEHB14-.LFB2825
	.uleb128 .LEHE14-.LEHB14
	.uleb128 .L556-.LFB2825
	.uleb128 0x0
	.uleb128 .LEHB15-.LFB2825
	.uleb128 .LEHE15-.LEHB15
	.uleb128 .L583-.LFB2825
	.uleb128 0x0
	.uleb128 .LEHB16-.LFB2825
	.uleb128 .LEHE16-.LEHB16
	.uleb128 .L582-.LFB2825
	.uleb128 0x0
	.uleb128 .LEHB17-.LFB2825
	.uleb128 .LEHE17-.LEHB17
	.uleb128 .L581-.LFB2825
	.uleb128 0x0
	.uleb128 .LEHB18-.LFB2825
	.uleb128 .LEHE18-.LEHB18
	.uleb128 .L579-.LFB2825
	.uleb128 0x0
	.uleb128 .LEHB19-.LFB2825
	.uleb128 .LEHE19-.LEHB19
	.uleb128 .L555-.LFB2825
	.uleb128 0x0
	.uleb128 .LEHB20-.LFB2825
	.uleb128 .LEHE20-.LEHB20
	.uleb128 .L554-.LFB2825
	.uleb128 0x0
	.uleb128 .LEHB21-.LFB2825
	.uleb128 .LEHE21-.LEHB21
	.uleb128 .L566-.LFB2825
	.uleb128 0x0
	.uleb128 .LEHB22-.LFB2825
	.uleb128 .LEHE22-.LEHB22
	.uleb128 .L564-.LFB2825
	.uleb128 0x0
	.uleb128 .LEHB23-.LFB2825
	.uleb128 .LEHE23-.LEHB23
	.uleb128 .L551-.LFB2825
	.uleb128 0x0
	.uleb128 .LEHB24-.LFB2825
	.uleb128 .LEHE24-.LEHB24
	.uleb128 0x0
	.uleb128 0x0
	.uleb128 .LEHB25-.LFB2825
	.uleb128 .LEHE25-.LEHB25
	.uleb128 .L550-.LFB2825
	.uleb128 0x0
	.uleb128 .LEHB26-.LFB2825
	.uleb128 .LEHE26-.LEHB26
	.uleb128 .L552-.LFB2825
	.uleb128 0x0
	.uleb128 .LEHB27-.LFB2825
	.uleb128 .LEHE27-.LEHB27
	.uleb128 .L553-.LFB2825
	.uleb128 0x0
.LLSDACSE2825:
	.section	".text"
	.align 2
	.type	_Z41__static_initialization_and_destruction_0ii, @function
_Z41__static_initialization_and_destruction_0ii:
.LFB3255:
	.loc 2 1443 0
.LVL489:
	cmpwi 7,3,1
	mflr 0
.LCFI441:
	stwu 1,-40(1)
.LCFI442:
	stw 28,24(1)
.LCFI443:
	stw 29,28(1)
.LCFI444:
	stw 0,44(1)
.LCFI445:
	.loc 2 1443 0
	beq- 7,.L635
.L634:
	lwz 0,44(1)
	lwz 28,24(1)
	lwz 29,28(1)
	mtlr 0
	addi 1,1,40
	blr
.L635:
	xoris 0,4,0xffff
	cmpwi 7,0,-1
	bne 7,.L634
	.loc 12 689 0
	lis 9,_ZN6idMath8M_SEC2MSE@ha
	.loc 12 116 0
	lis 28,.LANCHOR0@ha
	.loc 12 689 0
	lfs 0,_ZN6idMath8M_SEC2MSE@l(9)
	.loc 2 1443 0
	lis 9,.LC117@ha
	lfs 13,.LC117@l(9)
	.loc 12 689 0
	lis 9,.LC119@ha
	fadds 0,0,0
	.loc 12 116 0
	la 28,.LANCHOR0@l(28)
	.loc 2 1443 0
	stfs 13,8(1)
.LVL490:
	.loc 12 116 0
	addis 11,28,0x2f
	.loc 12 689 0
	lfs 13,.LC119@l(9)
.LBB1330:
.LBB1333:
.LBB1336:
	.file 16 "d:/Data/Nintendo/DoomGX/src/game/../idlib/../idlib/math/Vector.h"
	.loc 16 396 0
	li 0,0
.LBE1336:
.LBE1333:
.LBE1330:
	.loc 12 116 0
	lwz 10,8(1)
	.loc 12 689 0
	fctiwz 12,0
	stfs 13,8(1)
.LVL491:
	.loc 2 61 0
	mr 3,28
.LVL492:
	.loc 12 116 0
	rlwinm 10,10,9,24,31
	.loc 2 61 0
	lis 29,__dso_handle@ha
	.file 17 "d:/Data/Nintendo/DoomGX/src/game/Player.h"
	.loc 17 69 0
	lwz 9,8(1)
	.loc 12 116 0
	addi 10,10,-126
.LBB1341:
.LBB1332:
.LBB1335:
	.loc 16 397 0
	stw 0,-25916(11)
.LBE1335:
.LBE1332:
.LBE1341:
	.loc 2 61 0
	la 29,__dso_handle@l(29)
	.loc 17 69 0
	rlwinm 9,9,9,24,31
.LBB1342:
.LBB1339:
.LBB1337:
	.loc 16 396 0
	stw 0,-25920(11)
.LBE1337:
.LBE1339:
.LBE1342:
	.loc 17 69 0
	addi 9,9,-126
	.loc 12 116 0
	stw 10,-25924(11)
	.loc 17 69 0
	stw 9,-25904(11)
.LBB1343:
.LBB1331:
.LBB1334:
	.loc 16 398 0
	lis 9,.LC118@ha
	lfs 0,.LC118@l(9)
.LBE1334:
.LBE1331:
.LBE1343:
	.loc 12 689 0
	addi 9,11,-25908
	stfiwx 12,0,9
.LBB1344:
.LBB1340:
.LBB1338:
	.loc 16 398 0
	stfs 0,-25912(11)
.LBE1338:
.LBE1340:
.LBE1344:
	.loc 2 61 0
	bl _ZN13idAnimManagerC1Ev
.LVL493:
	lis 3,__tcf_0@ha
	mr 5,29
	li 4,0
	la 3,__tcf_0@l(3)
	bl __cxa_atexit
	.loc 2 64 0
	addi 3,28,60
	bl _ZN11idGameLocalC1Ev
	lis 3,__tcf_1@ha
	mr 5,29
	la 3,__tcf_1@l(3)
	li 4,0
	bl __cxa_atexit
	.loc 2 1443 0
	lwz 0,44(1)
	lwz 28,24(1)
	lwz 29,28(1)
	mtlr 0
	addi 1,1,40
	blr
.LFE3255:
	.size	_Z41__static_initialization_and_destruction_0ii, .-_Z41__static_initialization_and_destruction_0ii
	.align 2
	.type	_GLOBAL__I_gameRenderWorld, @function
_GLOBAL__I_gameRenderWorld:
.LFB3285:
	.loc 2 1444 0
	.loc 2 1444 0
	li 4,0
	li 3,1
	ori 4,4,65535
	b _Z41__static_initialization_and_destruction_0ii
.LFE3285:
	.size	_GLOBAL__I_gameRenderWorld, .-_GLOBAL__I_gameRenderWorld
	.align 2
	.globl _ZN11idGameLocalC2Ev
	.type	_ZN11idGameLocalC2Ev, @function
_ZN11idGameLocalC2Ev:
.LFB2824:
	.loc 2 107 0
.LVL494:
	stwu 1,-96(1)
.LCFI446:
	mflr 0
.LCFI447:
.LBB1671:
	lis 9,_ZTV11idGameLocal+8@ha
.LBB2195:
.LBB2201:
.LBB2207:
.LBB2229:
.LBB2231:
.LBB2233:
	.loc 8 112 0
	li 4,1024
.LBE2233:
.LBE2231:
.LBE2229:
.LBE2207:
.LBE2201:
.LBE2195:
.LBE1671:
	.loc 2 107 0
	stw 28,80(1)
.LCFI448:
.LBB2417:
	la 9,_ZTV11idGameLocal+8@l(9)
.LBE2417:
	stw 30,88(1)
.LCFI449:
.LBB2418:
.LBB2284:
.LBB2200:
.LBB2206:
.LBB2218:
.LBB2220:
.LBB2222:
	.loc 9 151 0
	li 28,16
	.loc 9 150 0
	li 30,0
.LBE2222:
.LBE2220:
.LBE2218:
.LBE2206:
.LBE2200:
.LBE2284:
.LBE2418:
	.loc 2 107 0
	stw 23,60(1)
.LCFI450:
	stw 29,84(1)
.LCFI451:
.LBB2419:
.LBB2194:
.LBB2279:
.LBB2274:
.LBB2236:
.LBB2219:
.LBB2221:
.LBB2223:
.LBB2224:
	.loc 9 191 0
	addi 29,3,20
.LVL495:
.LBE2224:
.LBE2223:
.LBE2221:
.LBE2219:
.LBE2236:
.LBE2274:
.LBE2279:
.LBE2194:
.LBE2419:
	.loc 2 107 0
	stw 14,24(1)
.LCFI452:
	mr 23,3
	stw 15,28(1)
.LCFI453:
.LBB2420:
.LBB2285:
.LBB2199:
.LBB2205:
.LBB2217:
.LBB2230:
.LBB2232:
	.loc 8 112 0
	li 5,1024
.LBE2232:
.LBE2230:
.LBE2217:
.LBE2205:
.LBE2199:
.LBE2285:
.LBE2420:
	.loc 2 107 0
	stw 16,32(1)
.LCFI454:
	stw 17,36(1)
.LCFI455:
	stw 18,40(1)
.LCFI456:
	stw 19,44(1)
.LCFI457:
	stw 20,48(1)
.LCFI458:
	stw 21,52(1)
.LCFI459:
	stw 22,56(1)
.LCFI460:
	stw 24,64(1)
.LCFI461:
	stw 25,68(1)
.LCFI462:
	stw 26,72(1)
.LCFI463:
	stw 27,76(1)
.LCFI464:
	stw 31,92(1)
.LCFI465:
	stw 0,100(1)
.LCFI466:
.LBB2421:
	.loc 2 107 0
	stw 9,0(3)
.LBB2193:
.LBB2280:
.LBB2275:
.LBB2237:
.LBB2228:
.LBB2227:
	.loc 9 151 0
	stw 28,12(3)
.LBB2226:
.LBB2225:
	.loc 9 189 0
	stw 30,16(3)
	.loc 9 190 0
	stw 30,4(3)
	.loc 9 191 0
	stw 30,8(3)
.LBE2225:
.LBE2226:
.LBE2227:
.LBE2228:
.LBE2237:
.LBB2238:
.LBB2235:
.LBB2234:
	.loc 8 112 0
	mr 3,29
.LVL496:
.LEHB28:
	bl _ZN11idHashIndex4InitEii
.LEHE28:
.LBE2234:
.LBE2235:
.LBE2238:
.LBB2239:
.LBB2241:
.LBB2243:
	.loc 9 311 0
	lwz 31,16(23)
	.loc 9 309 0
	stw 28,12(23)
	.loc 9 311 0
	cmpwi 7,31,0
	beq- 7,.L642
	.loc 9 313 0
	lwz 11,4(23)
	.loc 9 315 0
	lwz 0,8(23)
	.loc 9 313 0
	addi 9,11,15
.LVL497:
	.loc 9 314 0
	srawi 9,9,4
	addze 9,9
.LVL498:
	slwi 9,9,4
.LVL499:
	.loc 9 315 0
	cmpw 7,0,9
	beq- 7,.L642
.LBB2245:
.LBB2247:
.LBB2249:
	.loc 9 367 0
	cmpwi 7,9,0
	ble- 7,.L925
	.loc 9 379 0
	cmpw 7,9,11
	.loc 9 378 0
	stw 9,8(23)
	.loc 9 379 0
	blt- 7,.L926
.L647:
.LBE2249:
.LBE2247:
	.loc 9 384 0
	lwz 3,8(23)
	slwi 3,3,3
.LEHB29:
	bl _Znaj
.LVL500:
.LBB2254:
.LBB2252:
	.loc 9 385 0
	lwz 0,4(23)
	.loc 9 384 0
	stw 3,16(23)
	.loc 9 385 0
	cmpwi 7,0,0
	ble- 7,.L649
	li 7,0
.LVL501:
	li 8,0
.L651:
	.loc 9 386 0
	lwz 11,16(23)
	add 9,31,8
	lwzx 0,8,31
	.loc 9 385 0
	addi 7,7,1
	.loc 9 386 0
	lwz 10,4(9)
	add 9,8,11
	stwx 0,8,11
	.loc 9 385 0
	addi 8,8,8
	.loc 9 386 0
	stw 10,4(9)
	.loc 9 385 0
	lwz 0,4(23)
	cmpw 7,0,7
	bgt+ 7,.L651
.L649:
	.loc 9 391 0
	mr 3,31
	bl _ZdaPv
.LVL502:
.L642:
.LBE2252:
.LBE2254:
.LBE2245:
.LBE2243:
.LBE2241:
.LBE2239:
.LBB2259:
.LBB2260:
	.loc 8 371 0
	li 30,16
.LBE2260:
.LBE2259:
.LBB2262:
.LBB2264:
	.loc 8 341 0
	mr 3,29
.LBE2264:
.LBE2262:
.LBB2267:
.LBB2261:
	.loc 8 371 0
	stw 30,36(23)
.LBE2261:
.LBE2267:
.LBB2268:
.LBB2265:
	.loc 8 341 0
	bl _ZN11idHashIndex4FreeEv
.LEHE29:
.LVL503:
	.loc 8 342 0
	li 0,128
.LBE2265:
.LBE2268:
.LBE2275:
.LBE2280:
.LBE2193:
	.loc 2 107 0
	addi 18,23,52
.LVL504:
.LBB2192:
.LBB2198:
.LBB2204:
.LBB2216:
.LBB2263:
	.loc 8 342 0
	stw 0,20(23)
.LBE2263:
.LBE2216:
.LBE2204:
.LBE2198:
.LBE2192:
	.loc 2 107 0
	mr 26,18
.LBB2191:
.LBB2281:
.LBB2276:
.LBB2269:
.LBB2266:
	.loc 8 343 0
	stw 30,28(23)
.LBE2266:
.LBE2269:
.LBE2276:
.LBE2281:
.LBE2191:
	.loc 2 107 0
	mr 31,18
	li 25,31
	li 24,30
.LVL505:
.L652:
.LBB2106:
.LBB2110:
.LBB2114:
.LBB2153:
.LBB2155:
.LBB2157:
	.loc 9 150 0
	li 29,0
.LVL506:
	.loc 9 151 0
	li 28,16
	stw 28,8(31)
.LBB2159:
.LBB2161:
	.loc 9 191 0
	addi 27,31,16
	.loc 9 189 0
	stw 29,12(31)
.LBE2161:
.LBE2159:
.LBE2157:
.LBE2155:
.LBE2153:
.LBB2146:
.LBB2148:
.LBB2150:
	.loc 8 112 0
	mr 3,27
.LBE2150:
.LBE2148:
.LBE2146:
.LBB2145:
.LBB2154:
.LBB2156:
.LBB2158:
.LBB2160:
	.loc 9 190 0
	stw 29,0(31)
.LBE2160:
.LBE2158:
.LBE2156:
.LBE2154:
.LBE2145:
.LBB2144:
.LBB2147:
.LBB2149:
	.loc 8 112 0
	li 4,1024
.LBE2149:
.LBE2147:
.LBE2144:
.LBB2143:
.LBB2165:
.LBB2164:
.LBB2163:
.LBB2162:
	.loc 9 191 0
	stw 29,4(31)
.LBE2162:
.LBE2163:
.LBE2164:
.LBE2165:
.LBE2143:
.LBB2142:
.LBB2152:
.LBB2151:
	.loc 8 112 0
	li 5,1024
.LEHB30:
	bl _ZN11idHashIndex4InitEii
.LEHE30:
.LBE2151:
.LBE2152:
.LBE2142:
.LBB2127:
.LBB2128:
.LBB2129:
	.loc 9 311 0
	lwz 30,12(31)
	.loc 9 309 0
	stw 28,8(31)
	.loc 9 311 0
	cmpwi 7,30,0
	beq- 7,.L661
	.loc 9 313 0
	lwz 11,0(31)
	.loc 9 315 0
	lwz 0,4(31)
	.loc 9 313 0
	addi 9,11,15
.LVL507:
	.loc 9 314 0
	srawi 9,9,4
	addze 9,9
.LVL508:
	slwi 9,9,4
.LVL509:
	.loc 9 315 0
	cmpw 7,0,9
	beq- 7,.L661
.LBB2130:
.LBB2132:
.LBB2134:
	.loc 9 367 0
	cmpwi 7,9,0
	ble- 7,.L927
	.loc 9 379 0
	cmpw 7,9,11
	.loc 9 378 0
	stw 9,4(31)
	.loc 9 379 0
	bge- 7,.L666
	.loc 9 380 0
	stw 9,0(31)
.L666:
.LBE2134:
.LBE2132:
	.loc 9 384 0
	lwz 3,4(31)
	slwi 3,3,3
.LEHB31:
	bl _Znaj
.LVL510:
.LBB2131:
.LBB2133:
	.loc 9 385 0
	lwz 0,0(31)
	.loc 9 384 0
	stw 3,12(31)
	.loc 9 385 0
	cmpwi 7,0,0
	ble- 7,.L668
	li 7,0
.LVL511:
	li 8,0
.L670:
	.loc 9 386 0
	lwz 11,12(31)
	add 9,30,8
	lwzx 0,8,30
	.loc 9 385 0
	addi 7,7,1
	.loc 9 386 0
	lwz 10,4(9)
	add 9,8,11
	stwx 0,8,11
	.loc 9 385 0
	addi 8,8,8
	.loc 9 386 0
	stw 10,4(9)
	.loc 9 385 0
	lwz 0,0(31)
	cmpw 7,0,7
	bgt+ 7,.L670
.L668:
	.loc 9 391 0
	mr 3,30
	bl _ZdaPv
.LVL512:
.L661:
.LBE2133:
.LBE2131:
.LBE2130:
.LBE2129:
.LBE2128:
.LBE2127:
.LBB2124:
.LBB2125:
	.loc 8 371 0
	li 30,16
.LBE2125:
.LBE2124:
.LBB2120:
.LBB2122:
	.loc 8 341 0
	mr 3,27
.LBE2122:
.LBE2120:
.LBB2119:
.LBB2126:
	.loc 8 371 0
	stw 30,32(31)
.LBE2126:
.LBE2119:
.LBB2118:
.LBB2121:
	.loc 8 341 0
	bl _ZN11idHashIndex4FreeEv
.LEHE31:
.LVL513:
.LBE2121:
.LBE2118:
.LBE2114:
.LBE2110:
.LBE2106:
	.loc 2 107 0
	cmpwi 7,24,-1
.LBB2105:
.LBB2187:
.LBB2183:
.LBB2166:
.LBB2123:
	.loc 8 342 0
	li 0,128
	.loc 8 343 0
	mr 25,24
	stw 30,24(31)
	.loc 8 342 0
	stw 0,16(31)
	.loc 8 343 0
	addi 26,26,44
.LBE2123:
.LBE2166:
.LBE2183:
.LBE2187:
.LBE2105:
	.loc 2 107 0
	addi 24,24,-1
	beq- 7,.L928
.LBB2104:
.LBB2197:
.LBB2203:
.LBB2209:
.LBB2210:
.LBB2211:
.LBB2212:
	.loc 9 191 0
	mr 31,26
	b .L652
.LVL514:
.L927:
.LBE2212:
.LBE2211:
.LBE2210:
.LBE2209:
.LBE2203:
.LBE2197:
.LBE2104:
.LBB2103:
.LBB2109:
.LBB2113:
.LBB2117:
.LBB2141:
.LBB2140:
.LBB2139:
.LBB2138:
.LBB2137:
.LBB2135:
.LBB2136:
	.loc 9 186 0
	mr 3,30
	bl _ZdaPv
.LVL515:
	.loc 9 191 0
	stw 29,4(31)
	.loc 9 189 0
	stw 29,12(31)
	.loc 9 190 0
	stw 29,0(31)
	b .L661
.L928:
.LBE2136:
.LBE2135:
.LBE2137:
.LBE2138:
.LBE2139:
.LBE2140:
.LBE2141:
.LBE2117:
.LBE2113:
.LBE2109:
.LBE2103:
	.loc 2 107 0
	addi 19,23,2484
.LVL516:
	li 25,31
	mr 26,19
	mr 31,19
.LVL517:
	li 24,30
.LVL518:
.L687:
.LBB2020:
.LBB2024:
.LBB2028:
.LBB2046:
.LBB2048:
.LBB2050:
	.loc 9 150 0
	li 29,0
	.loc 9 151 0
	li 28,16
	stw 28,8(31)
.LBB2052:
.LBB2054:
	.loc 9 191 0
	addi 27,31,16
.LVL519:
	.loc 9 189 0
	stw 29,12(31)
.LBE2054:
.LBE2052:
.LBE2050:
.LBE2048:
.LBE2046:
.LBB2059:
.LBB2061:
.LBB2063:
	.loc 8 112 0
	mr 3,27
.LBE2063:
.LBE2061:
.LBE2059:
.LBB2066:
.LBB2047:
.LBB2049:
.LBB2051:
.LBB2053:
	.loc 9 190 0
	stw 29,0(31)
.LBE2053:
.LBE2051:
.LBE2049:
.LBE2047:
.LBE2066:
.LBB2067:
.LBB2060:
.LBB2062:
	.loc 8 112 0
	li 4,1024
.LBE2062:
.LBE2060:
.LBE2067:
.LBB2068:
.LBB2058:
.LBB2057:
.LBB2056:
.LBB2055:
	.loc 9 191 0
	stw 29,4(31)
.LBE2055:
.LBE2056:
.LBE2057:
.LBE2058:
.LBE2068:
.LBB2069:
.LBB2065:
.LBB2064:
	.loc 8 112 0
	li 5,1024
.LEHB32:
	bl _ZN11idHashIndex4InitEii
.LEHE32:
.LBE2064:
.LBE2065:
.LBE2069:
.LBB2070:
.LBB2071:
.LBB2072:
	.loc 9 311 0
	lwz 30,12(31)
	.loc 9 309 0
	stw 28,8(31)
	.loc 9 311 0
	cmpwi 7,30,0
	beq- 7,.L691
	.loc 9 313 0
	lwz 11,0(31)
	.loc 9 315 0
	lwz 0,4(31)
	.loc 9 313 0
	addi 9,11,15
.LVL520:
	.loc 9 314 0
	srawi 9,9,4
	addze 9,9
.LVL521:
	slwi 9,9,4
.LVL522:
	.loc 9 315 0
	cmpw 7,0,9
	beq- 7,.L691
.LBB2073:
.LBB2075:
.LBB2077:
	.loc 9 367 0
	cmpwi 7,9,0
	ble- 7,.L929
	.loc 9 379 0
	cmpw 7,9,11
	.loc 9 378 0
	stw 9,4(31)
	.loc 9 379 0
	bge- 7,.L696
	.loc 9 380 0
	stw 9,0(31)
.L696:
.LBE2077:
.LBE2075:
	.loc 9 384 0
	lwz 3,4(31)
	slwi 3,3,3
.LEHB33:
	bl _Znaj
.LVL523:
.LBB2074:
.LBB2076:
	.loc 9 385 0
	lwz 0,0(31)
	.loc 9 384 0
	stw 3,12(31)
	.loc 9 385 0
	cmpwi 7,0,0
	ble- 7,.L698
	li 7,0
.LVL524:
	li 8,0
.L700:
	.loc 9 386 0
	lwz 11,12(31)
	add 9,30,8
	lwzx 0,8,30
	.loc 9 385 0
	addi 7,7,1
	.loc 9 386 0
	lwz 10,4(9)
	add 9,8,11
	stwx 0,8,11
	.loc 9 385 0
	addi 8,8,8
	.loc 9 386 0
	stw 10,4(9)
	.loc 9 385 0
	lwz 0,0(31)
	cmpw 7,0,7
	bgt+ 7,.L700
.L698:
	.loc 9 391 0
	mr 3,30
	bl _ZdaPv
.LVL525:
.L691:
.LBE2076:
.LBE2074:
.LBE2073:
.LBE2072:
.LBE2071:
.LBE2070:
.LBB2085:
.LBB2086:
	.loc 8 371 0
	li 30,16
.LBE2086:
.LBE2085:
.LBB2088:
.LBB2090:
	.loc 8 341 0
	mr 3,27
.LBE2090:
.LBE2088:
.LBB2092:
.LBB2087:
	.loc 8 371 0
	stw 30,32(31)
.LBE2087:
.LBE2092:
.LBB2093:
.LBB2089:
	.loc 8 341 0
	bl _ZN11idHashIndex4FreeEv
.LEHE33:
.LVL526:
.LBE2089:
.LBE2093:
.LBE2028:
.LBE2024:
.LBE2020:
	.loc 2 107 0
	cmpwi 7,24,-1
.LBB2019:
.LBB2023:
.LBB2027:
.LBB2045:
.LBB2091:
	.loc 8 342 0
	li 0,128
	.loc 8 343 0
	mr 25,24
	.loc 8 342 0
	stw 0,16(31)
	.loc 8 343 0
	stw 30,24(31)
	addi 26,26,44
.LBE2091:
.LBE2045:
.LBE2027:
.LBE2023:
.LBE2019:
	.loc 2 107 0
	addi 24,24,-1
	beq- 7,.L701
	mr 31,26
	b .L687
.LVL527:
.L929:
.LBB2018:
.LBB2100:
.LBB2097:
.LBB2094:
.LBB2084:
.LBB2083:
.LBB2082:
.LBB2081:
.LBB2080:
.LBB2078:
.LBB2079:
	.loc 9 186 0
	mr 3,30
	bl _ZdaPv
.LVL528:
	.loc 9 191 0
	stw 29,4(31)
	.loc 9 189 0
	stw 29,12(31)
	.loc 9 190 0
	stw 29,0(31)
	b .L691
.L701:
.LBE2079:
.LBE2078:
.LBE2080:
.LBE2081:
.LBE2082:
.LBE2083:
.LBE2084:
.LBE2094:
.LBE2097:
.LBE2100:
.LBE2018:
	.loc 2 107 0
	addis 26,23,0x1
.LBB2013:
.LBB2014:
.LBB2015:
	.loc 8 112 0
	li 4,1024
.LBE2015:
.LBE2014:
.LBE2013:
	.loc 2 107 0
	addi 22,26,-28868
.LVL529:
.LBB2012:
.LBB2017:
.LBB2016:
	.loc 8 112 0
	li 5,1024
	mr 3,22
.LEHB34:
	bl _ZN11idHashIndex4InitEii
.LEHE34:
.LBE2016:
.LBE2017:
.LBE2012:
	.loc 2 107 0
	addi 0,26,-28836
	addi 9,26,-28820
	mr 3,0
	stw 0,16(1)
	stw 9,12(1)
	bl _ZN10idLinkListI8idEntityEC1Ev
	lwz 3,12(1)
.LBB1936:
.LBB1939:
.LBB1942:
.LBB1984:
.LBB1986:
.LBB1988:
	.loc 9 150 0
	li 29,0
.LBB1990:
.LBB1992:
	.loc 9 191 0
	addi 28,26,-28780
.LVL530:
.LBE1992:
.LBE1990:
.LBE1988:
.LBE1986:
.LBE1984:
.LBE1942:
.LBE1939:
.LBE1936:
	.loc 2 107 0
	bl _ZN10idLinkListI8idEntityEC1Ev
.LBB1935:
.LBB1938:
.LBB1941:
.LBB1983:
.LBB1999:
.LBB1997:
	.loc 9 151 0
	stw 30,-28788(26)
.LBB1995:
.LBB1993:
	.loc 9 189 0
	stw 29,-28784(26)
.LBE1993:
.LBE1995:
.LBE1997:
.LBE1999:
.LBE1983:
.LBB1976:
.LBB1978:
.LBB1980:
	.loc 8 112 0
	mr 3,28
.LBE1980:
.LBE1978:
.LBE1976:
.LBB1975:
.LBB1985:
.LBB1987:
.LBB1989:
.LBB1991:
	.loc 9 190 0
	stw 29,-28796(26)
.LBE1991:
.LBE1989:
.LBE1987:
.LBE1985:
.LBE1975:
.LBB1974:
.LBB1977:
.LBB1979:
	.loc 8 112 0
	li 4,1024
.LBE1979:
.LBE1977:
.LBE1974:
.LBB1973:
.LBB2000:
.LBB1998:
.LBB1996:
.LBB1994:
	.loc 9 191 0
	stw 29,-28792(26)
.LBE1994:
.LBE1996:
.LBE1998:
.LBE2000:
.LBE1973:
.LBB1972:
.LBB1982:
.LBB1981:
	.loc 8 112 0
	li 5,1024
.LEHB35:
	bl _ZN11idHashIndex4InitEii
.LEHE35:
.LBE1981:
.LBE1982:
.LBE1972:
.LBB1952:
.LBB1954:
.LBB1956:
	.loc 9 311 0
	lwz 31,-28784(26)
.LVL531:
	.loc 9 309 0
	stw 30,-28788(26)
	.loc 9 311 0
	cmpwi 7,31,0
	beq- 7,.L714
	.loc 9 313 0
	lwz 11,-28796(26)
	.loc 9 315 0
	lwz 0,-28792(26)
	.loc 9 313 0
	addi 9,11,15
.LVL532:
	.loc 9 314 0
	srawi 9,9,4
	addze 9,9
.LVL533:
	slwi 9,9,4
.LVL534:
	.loc 9 315 0
	cmpw 7,0,9
	beq- 7,.L714
.LBB1958:
.LBB1960:
.LBB1962:
	.loc 9 367 0
	cmpwi 7,9,0
	ble- 7,.L930
	.loc 9 379 0
	cmpw 7,9,11
	.loc 9 378 0
	stw 9,-28792(26)
	.loc 9 379 0
	blt- 7,.L931
.L719:
.LBE1962:
.LBE1960:
	.loc 9 384 0
	lwz 3,-28792(26)
	slwi 3,3,3
.LEHB36:
	bl _Znaj
.LVL535:
.LBB1967:
.LBB1965:
	.loc 9 385 0
	lwz 0,-28796(26)
	.loc 9 384 0
	stw 3,-28784(26)
	.loc 9 385 0
	cmpwi 7,0,0
	ble- 7,.L721
	li 7,0
.LVL536:
	li 8,0
.L723:
	.loc 9 386 0
	lwz 11,-28784(26)
	add 9,31,8
	lwzx 0,8,31
	.loc 9 385 0
	addi 7,7,1
	.loc 9 386 0
	lwz 10,4(9)
	add 9,8,11
	stwx 0,8,11
	.loc 9 385 0
	addi 8,8,8
	.loc 9 386 0
	stw 10,4(9)
	.loc 9 385 0
	lwz 0,-28796(26)
	cmpw 7,0,7
	bgt+ 7,.L723
.L721:
	.loc 9 391 0
	mr 3,31
	bl _ZdaPv
.LVL537:
.L714:
.LBE1965:
.LBE1967:
.LBE1958:
.LBE1956:
.LBE1954:
.LBE1952:
.LBB1949:
.LBB1950:
	.loc 8 371 0
	li 31,16
.LBE1950:
.LBE1949:
.LBB1946:
.LBB1947:
	.loc 8 341 0
	mr 3,28
.LBE1947:
.LBE1946:
.LBB1945:
.LBB1951:
	.loc 8 371 0
	stw 31,-28764(26)
.LBE1951:
.LBE1945:
.LBB1944:
.LBB1948:
	.loc 8 341 0
	bl _ZN11idHashIndex4FreeEv
.LEHE36:
.LVL538:
	.loc 8 342 0
	li 0,128
	.loc 8 343 0
	stw 31,-28772(26)
	.loc 8 342 0
	stw 0,-28780(26)
.LBE1948:
.LBE1944:
.LBE1941:
.LBE1938:
.LBE1935:
.LBB1932:
.LBB1933:
.LBB1934:
	.loc 10 59 0
	li 0,0
	stw 0,-28704(26)
.LBE1934:
.LBE1933:
.LBE1932:
	.loc 2 107 0
	addi 0,26,-28700
	stw 0,8(1)
	mr 3,0
.LEHB37:
	bl _ZN9idProgramC1Ev
.LEHE37:
	addis 9,23,0x23
	stw 9,20(1)
	addi 3,9,20632
.LEHB38:
	bl _ZN6idClipC1Ev
.LEHE38:
	addis 28,23,0x25
.LVL539:
	addi 14,28,4596
	mr 3,14
.LEHB39:
	bl _ZN5idPVSC1Ev
.LEHE39:
.LBB1923:
.LBB1924:
.LBB1925:
.LBB1926:
.LBB1927:
	.loc 11 356 0
	li 30,0
	.loc 11 357 0
	li 31,20
	.loc 11 358 0
	addi 0,28,4756
	.loc 11 356 0
	stw 30,4744(28)
	.loc 11 358 0
	stw 0,4748(28)
.LBE1927:
.LBE1926:
.LBE1925:
.LBE1924:
.LBE1923:
	.loc 2 107 0
	addi 3,28,4776
.LBB1922:
.LBB1931:
.LBB1930:
.LBB1929:
.LBB1928:
	.loc 11 357 0
	stw 31,4752(28)
	.loc 11 359 0
	stb 30,4756(28)
.LEHB40:
.LBE1928:
.LBE1929:
.LBE1930:
.LBE1931:
.LBE1922:
	.loc 2 107 0
	bl _ZN17idMultiplayerGameC1Ev
.LEHE40:
	addi 15,28,6280
.LBB1915:
.LBB1916:
.LBB1917:
	.loc 9 151 0
	li 27,16
.LVL540:
.LBE1917:
.LBE1916:
.LBE1915:
	.loc 2 107 0
	mr 3,15
.LBB1834:
.LBB1839:
.LBB1844:
.LBB1857:
.LBB1858:
.LBB1859:
.LBB1860:
.LBB1861:
	.loc 9 191 0
	addi 29,28,6436
.LVL541:
.LBE1861:
.LBE1860:
.LBE1859:
.LBE1858:
.LBE1857:
.LBE1844:
.LBE1839:
.LBE1834:
	.loc 2 107 0
	bl _ZN10idLinkListI8idEntityEC1Ev
.LBB1821:
.LBB1823:
.LBB1825:
.LBB1827:
.LBB1829:
	.loc 11 358 0
	addi 0,28,6332
	.loc 11 357 0
	stw 31,6328(28)
.LBE1829:
.LBE1827:
.LBE1825:
.LBE1823:
.LBE1821:
.LBB1820:
.LBB1838:
.LBB1843:
.LBB1848:
.LBB1850:
.LBB1852:
	.loc 8 112 0
	mr 3,29
.LBE1852:
.LBE1850:
.LBE1848:
.LBE1843:
.LBE1838:
.LBE1820:
.LBB1819:
.LBB1822:
.LBB1824:
.LBB1826:
.LBB1828:
	.loc 11 358 0
	stw 0,6324(28)
.LBE1828:
.LBE1826:
.LBE1824:
.LBE1822:
.LBE1819:
.LBB1818:
.LBB1911:
.LBB1907:
.LBB1866:
.LBB1855:
.LBB1853:
	.loc 8 112 0
	li 4,1024
.LBE1853:
.LBE1855:
.LBE1866:
.LBE1907:
.LBE1911:
.LBE1818:
.LBB1815:
.LBB1816:
.LBB1817:
	.loc 12 585 0
	stw 30,6312(28)
.LBE1817:
.LBE1816:
.LBE1815:
.LBB1814:
.LBB1837:
.LBB1842:
.LBB1847:
.LBB1849:
.LBB1851:
	.loc 8 112 0
	li 5,1024
.LBE1851:
.LBE1849:
.LBE1847:
.LBE1842:
.LBE1837:
.LBE1814:
.LBB1813:
.LBB1833:
.LBB1832:
.LBB1831:
.LBB1830:
	.loc 11 356 0
	stw 30,6320(28)
	.loc 11 359 0
	stb 30,6332(28)
.LBE1830:
.LBE1831:
.LBE1832:
.LBE1833:
.LBE1813:
.LBB1812:
.LBB1921:
.LBB1920:
	.loc 9 151 0
	stw 27,6388(28)
.LBB1918:
.LBB1919:
	.loc 9 189 0
	stw 30,6392(28)
	.loc 9 190 0
	stw 30,6380(28)
	.loc 9 191 0
	stw 30,6384(28)
.LBE1919:
.LBE1918:
.LBE1920:
.LBE1921:
.LBE1812:
.LBB1807:
.LBB1808:
.LBB1809:
	.loc 9 151 0
	stw 27,6404(28)
.LBB1810:
.LBB1811:
	.loc 9 189 0
	stw 30,6408(28)
	.loc 9 190 0
	stw 30,6396(28)
	.loc 9 191 0
	stw 30,6400(28)
.LBE1811:
.LBE1810:
.LBE1809:
.LBE1808:
.LBE1807:
.LBB1804:
.LBB1805:
.LBB1806:
	.loc 12 585 0
	stw 30,6412(28)
.LBE1806:
.LBE1805:
.LBE1804:
.LBB1803:
.LBB1912:
.LBB1908:
.LBB1867:
.LBB1865:
.LBB1864:
	.loc 9 151 0
	stw 27,6428(28)
.LBB1863:
.LBB1862:
	.loc 9 189 0
	stw 30,6432(28)
	.loc 9 190 0
	stw 30,6420(28)
	.loc 9 191 0
	stw 30,6424(28)
.LEHB41:
.LBE1862:
.LBE1863:
.LBE1864:
.LBE1865:
.LBE1867:
.LBB1868:
.LBB1856:
.LBB1854:
	.loc 8 112 0
	bl _ZN11idHashIndex4InitEii
.LEHE41:
.LBE1854:
.LBE1856:
.LBE1868:
.LBB1869:
.LBB1871:
.LBB1873:
	.loc 9 311 0
	lwz 31,6432(28)
	.loc 9 309 0
	stw 27,6428(28)
	.loc 9 311 0
	cmpwi 7,31,0
	beq- 7,.L741
	.loc 9 313 0
	lwz 11,6420(28)
	.loc 9 315 0
	lwz 0,6424(28)
	.loc 9 313 0
	addi 9,11,15
.LVL542:
	.loc 9 314 0
	srawi 9,9,4
	addze 9,9
.LVL543:
	slwi 9,9,4
.LVL544:
	.loc 9 315 0
	cmpw 7,0,9
	beq- 7,.L741
.LBB1875:
.LBB1877:
.LBB1879:
	.loc 9 367 0
	cmpwi 7,9,0
	ble- 7,.L932
	.loc 9 379 0
	cmpw 7,9,11
	.loc 9 378 0
	stw 9,6424(28)
	.loc 9 379 0
	blt- 7,.L933
.L746:
.LBE1879:
.LBE1877:
	.loc 9 384 0
	lwz 3,6424(28)
	slwi 3,3,3
.LEHB42:
	bl _Znaj
.LVL545:
.LBB1884:
.LBB1882:
	.loc 9 385 0
	lwz 0,6420(28)
	.loc 9 384 0
	stw 3,6432(28)
	.loc 9 385 0
	cmpwi 7,0,0
	ble- 7,.L748
	li 7,0
.LVL546:
	li 8,0
.L750:
	.loc 9 386 0
	lwz 11,6432(28)
	add 9,31,8
	lwzx 0,8,31
	.loc 9 385 0
	addi 7,7,1
	.loc 9 386 0
	lwz 10,4(9)
	add 9,8,11
	stwx 0,8,11
	.loc 9 385 0
	addi 8,8,8
	.loc 9 386 0
	stw 10,4(9)
	.loc 9 385 0
	lwz 0,6420(28)
	cmpw 7,0,7
	bgt+ 7,.L750
.L748:
	.loc 9 391 0
	mr 3,31
	bl _ZdaPv
.LVL547:
.L741:
.LBE1882:
.LBE1884:
.LBE1875:
.LBE1873:
.LBE1871:
.LBE1869:
.LBB1889:
.LBB1890:
	.loc 8 371 0
	li 31,16
.LBE1890:
.LBE1889:
.LBB1892:
.LBB1893:
	.loc 8 341 0
	mr 3,29
.LBE1893:
.LBE1892:
.LBB1895:
.LBB1891:
	.loc 8 371 0
	stw 31,6452(28)
.LBE1891:
.LBE1895:
.LBB1896:
.LBB1894:
	.loc 8 341 0
	bl _ZN11idHashIndex4FreeEv
.LEHE42:
.LVL548:
	.loc 8 342 0
	li 0,128
	.loc 8 343 0
	stw 31,6444(28)
	.loc 8 342 0
	stw 0,6436(28)
	.loc 8 343 0
	addi 10,28,6504
	li 8,0
.L751:
.LBE1894:
.LBE1896:
.LBB1897:
.LBB1898:
.LBB1899:
.LBB1900:
	.loc 9 191 0
	li 0,32
	li 11,0
	mtctr 0
.L756:
	.loc 2 107 0
	add 9,11,10
.LBE1900:
.LBE1899:
.LBE1898:
.LBE1897:
.LBE1908:
.LBE1912:
.LBE1803:
.LBB1796:
.LBB1797:
.LBB1798:
	.loc 9 150 0
	li 31,0
	.loc 9 151 0
	li 30,16
.LBB1799:
.LBB1800:
	.loc 9 190 0
	stwx 31,11,10
	.loc 9 191 0
	stw 31,4(9)
	addi 11,11,16
.LBE1800:
.LBE1799:
	.loc 9 151 0
	stw 30,8(9)
.LBB1802:
.LBB1801:
	.loc 9 189 0
	stw 31,12(9)
.LBE1801:
.LBE1802:
.LBE1798:
.LBE1797:
.LBE1796:
	.loc 2 107 0
	bdnz .L756
	cmpwi 7,8,31
	addi 10,10,512
	addi 8,8,1
	bne+ 7,.L751
	addis 29,23,0x2e
.LVL549:
	addi 16,29,-26136
	addi 17,29,-26120
	mr 3,16
.LBB1789:
.LBB1791:
.LBB1793:
	.loc 12 195 0
	addi 21,29,-26096
.LBE1793:
.LBE1791:
.LBE1789:
	.loc 2 107 0
	bl _ZN12idBlockAllocI13entityState_sLi256EEC1Ev
	mr 3,17
	bl _ZN12idBlockAllocI10snapshot_sLi64EEC1Ev
.LBB1788:
.LBB1790:
.LBB1792:
	.loc 12 195 0
	stw 31,-26104(29)
	stw 31,-26100(29)
	mr 3,21
.LBE1792:
.LBE1790:
.LBE1788:
.LBB1783:
.LBB1784:
.LBB1785:
	addi 20,29,-26072
.LBE1785:
.LBE1784:
.LBE1783:
.LBB1696:
.LBB1700:
.LBB1704:
.LBB1711:
.LBB1713:
.LBB1715:
.LBB1717:
.LBB1719:
	.loc 9 191 0
	addi 25,29,23124
.LVL550:
.LBE1719:
.LBE1717:
.LBE1715:
.LBE1713:
.LBE1711:
.LBE1704:
.LBE1700:
.LBE1696:
.LBB1695:
.LBB1795:
.LBB1794:
	.loc 12 195 0
	bl _ZN12idBlockAllocI16entityNetEvent_sLi32EEC1Ev
.LBE1794:
.LBE1795:
.LBE1695:
.LBB1694:
.LBB1787:
.LBB1786:
	stw 31,-26080(29)
	stw 31,-26076(29)
	mr 3,20
	bl _ZN12idBlockAllocI16entityNetEvent_sLi32EEC1Ev
.LBE1786:
.LBE1787:
.LBE1694:
.LBB1691:
.LBB1692:
.LBB1693:
	.loc 13 89 0
	stw 31,-26056(29)
.LBE1693:
.LBE1692:
.LBE1691:
.LBB1688:
.LBB1689:
.LBB1690:
	stw 31,6716(29)
.LBE1690:
.LBE1689:
.LBE1688:
.LBB1687:
.LBB1779:
.LBB1775:
.LBB1726:
.LBB1728:
.LBB1730:
	.loc 8 112 0
	mr 3,25
.LBE1730:
.LBE1728:
.LBE1726:
.LBB1735:
.LBB1724:
.LBB1722:
	.loc 9 151 0
	stw 30,23116(29)
.LBE1722:
.LBE1724:
.LBE1735:
.LBB1736:
.LBB1733:
.LBB1731:
	.loc 8 112 0
	li 4,1024
.LBE1731:
.LBE1733:
.LBE1736:
.LBB1737:
.LBB1712:
.LBB1714:
.LBB1716:
.LBB1718:
	.loc 9 189 0
	stw 31,23120(29)
.LBE1718:
.LBE1716:
.LBE1714:
.LBE1712:
.LBE1737:
.LBB1738:
.LBB1727:
.LBB1729:
	.loc 8 112 0
	li 5,1024
.LBE1729:
.LBE1727:
.LBE1738:
.LBB1739:
.LBB1725:
.LBB1723:
.LBB1721:
.LBB1720:
	.loc 9 190 0
	stw 31,23108(29)
	.loc 9 191 0
	stw 31,23112(29)
.LEHB43:
.LBE1720:
.LBE1721:
.LBE1723:
.LBE1725:
.LBE1739:
.LBB1740:
.LBB1734:
.LBB1732:
	.loc 8 112 0
	bl _ZN11idHashIndex4InitEii
.LEHE43:
.LBE1732:
.LBE1734:
.LBE1740:
.LBB1741:
.LBB1743:
.LBB1745:
	.loc 9 311 0
	lwz 27,23120(29)
	.loc 9 309 0
	stw 30,23116(29)
	.loc 9 311 0
	cmpwi 7,27,0
	beq- 7,.L764
	.loc 9 313 0
	lwz 11,23108(29)
	.loc 9 315 0
	lwz 0,23112(29)
	.loc 9 313 0
	addi 9,11,15
.LVL551:
	.loc 9 314 0
	srawi 9,9,4
	addze 9,9
.LVL552:
	slwi 9,9,4
.LVL553:
	.loc 9 315 0
	cmpw 7,0,9
	beq- 7,.L764
.LBB1747:
.LBB1749:
.LBB1751:
	.loc 9 367 0
	cmpwi 7,9,0
	ble- 7,.L934
	.loc 9 379 0
	cmpw 7,9,11
	.loc 9 378 0
	stw 9,23112(29)
	.loc 9 379 0
	blt- 7,.L935
.L769:
.LBE1751:
.LBE1749:
	.loc 9 384 0
	lwz 3,23112(29)
	slwi 3,3,3
.LEHB44:
	bl _Znaj
.LVL554:
.LBB1756:
.LBB1754:
	.loc 9 385 0
	lwz 0,23108(29)
	.loc 9 384 0
	stw 3,23120(29)
	.loc 9 385 0
	cmpwi 7,0,0
	ble- 7,.L771
	li 7,0
.LVL555:
	li 8,0
.L773:
	.loc 9 386 0
	lwz 11,23120(29)
	add 9,8,27
	lwzx 0,8,27
	.loc 9 385 0
	addi 7,7,1
	.loc 9 386 0
	lwz 10,4(9)
	add 9,8,11
	stwx 0,8,11
	.loc 9 385 0
	addi 8,8,8
	.loc 9 386 0
	stw 10,4(9)
	.loc 9 385 0
	lwz 0,23108(29)
	cmpw 7,0,7
	bgt+ 7,.L773
.L771:
	.loc 9 391 0
	mr 3,27
	bl _ZdaPv
.LVL556:
.L764:
.LBE1754:
.LBE1756:
.LBE1747:
.LBE1745:
.LBE1743:
.LBE1741:
.LBB1761:
.LBB1762:
	.loc 8 371 0
	li 31,16
.LBE1762:
.LBE1761:
.LBB1764:
.LBB1766:
	.loc 8 341 0
	mr 3,25
.LBE1766:
.LBE1764:
.LBB1769:
.LBB1763:
	.loc 8 371 0
	stw 31,23140(29)
.LBE1763:
.LBE1769:
.LBB1770:
.LBB1767:
	.loc 8 341 0
	bl _ZN11idHashIndex4FreeEv
.LEHE44:
.LVL557:
.LBE1767:
.LBE1770:
.LBE1775:
.LBE1779:
.LBE1687:
.LBB1676:
.LBB1678:
.LBB1680:
	.loc 9 150 0
	li 9,0
.LBE1680:
.LBE1678:
.LBE1676:
.LBB1675:
.LBB1699:
.LBB1703:
.LBB1710:
.LBB1765:
	.loc 8 342 0
	li 0,128
	stw 0,23124(29)
.LBE1765:
.LBE1710:
.LBE1703:
.LBE1699:
.LBE1675:
	.loc 2 108 0
	mr 3,23
.LBB1674:
.LBB1677:
.LBB1679:
	.loc 9 151 0
	stw 31,23160(29)
.LBB1681:
.LBB1682:
	.loc 9 191 0
	stw 9,23156(29)
.LBE1682:
.LBE1681:
.LBE1679:
.LBE1677:
.LBE1674:
.LBB1673:
.LBB1780:
.LBB1776:
.LBB1771:
.LBB1768:
	.loc 8 343 0
	stw 31,23132(29)
.LBE1768:
.LBE1771:
.LBE1776:
.LBE1780:
.LBE1673:
.LBB1672:
.LBB1686:
.LBB1685:
.LBB1684:
.LBB1683:
	.loc 9 189 0
	stw 9,23164(29)
	.loc 9 190 0
	stw 9,23152(29)
.LEHB45:
.LBE1683:
.LBE1684:
.LBE1685:
.LBE1686:
.LBE1672:
	.loc 2 108 0
	bl _ZN11idGameLocal5ClearEv
.LEHE45:
.LBE2421:
	.loc 2 109 0
	lwz 0,100(1)
	lwz 14,24(1)
	lwz 15,28(1)
	mtlr 0
	lwz 16,32(1)
	lwz 17,36(1)
	lwz 18,40(1)
.LVL558:
	lwz 19,44(1)
.LVL559:
	lwz 20,48(1)
	lwz 21,52(1)
	lwz 22,56(1)
.LVL560:
	lwz 23,60(1)
.LVL561:
	lwz 24,64(1)
	lwz 25,68(1)
.LVL562:
	lwz 26,72(1)
	lwz 27,76(1)
	lwz 28,80(1)
	lwz 29,84(1)
	lwz 30,88(1)
	lwz 31,92(1)
	addi 1,1,96
	blr
.LVL563:
.L935:
.LBB2422:
.LBB2286:
.LBB1698:
.LBB1702:
.LBB1709:
.LBB1742:
.LBB1744:
.LBB1746:
.LBB1748:
.LBB1750:
	.loc 9 380 0
	stw 9,23108(29)
	b .L769
.LVL564:
.L933:
.LBE1750:
.LBE1748:
.LBE1746:
.LBE1744:
.LBE1742:
.LBE1709:
.LBE1702:
.LBE1698:
.LBE2286:
.LBB2287:
.LBB1836:
.LBB1841:
.LBB1846:
.LBB1870:
.LBB1872:
.LBB1874:
.LBB1876:
.LBB1878:
	stw 9,6420(28)
	b .L746
.LVL565:
.L931:
.LBE1878:
.LBE1876:
.LBE1874:
.LBE1872:
.LBE1870:
.LBE1846:
.LBE1841:
.LBE1836:
.LBE2287:
.LBB2288:
.LBB2010:
.LBB2008:
.LBB2001:
.LBB1953:
.LBB1955:
.LBB1957:
.LBB1959:
.LBB1961:
	stw 9,-28796(26)
	b .L719
.LVL566:
.L926:
.LBE1961:
.LBE1959:
.LBE1957:
.LBE1955:
.LBE1953:
.LBE2001:
.LBE2008:
.LBE2010:
.LBE2288:
.LBB2289:
.LBB2282:
.LBB2277:
.LBB2270:
.LBB2240:
.LBB2242:
.LBB2244:
.LBB2246:
.LBB2248:
	stw 9,4(23)
	b .L647
.LVL567:
.L930:
.LBE2248:
.LBE2246:
.LBE2244:
.LBE2242:
.LBE2240:
.LBE2270:
.LBE2277:
.LBE2282:
.LBE2289:
.LBB2290:
.LBB1937:
.LBB1940:
.LBB1943:
.LBB1971:
.LBB1970:
.LBB1969:
.LBB1968:
.LBB1966:
.LBB1963:
.LBB1964:
	.loc 9 186 0
	mr 3,31
	bl _ZdaPv
.LVL568:
	.loc 9 191 0
	stw 29,-28792(26)
	.loc 9 189 0
	stw 29,-28784(26)
	.loc 9 190 0
	stw 29,-28796(26)
	b .L714
.LVL569:
.L932:
.LBE1964:
.LBE1963:
.LBE1966:
.LBE1968:
.LBE1969:
.LBE1970:
.LBE1971:
.LBE1943:
.LBE1940:
.LBE1937:
.LBE2290:
.LBB2291:
.LBB1913:
.LBB1909:
.LBB1904:
.LBB1888:
.LBB1887:
.LBB1886:
.LBB1885:
.LBB1883:
.LBB1880:
.LBB1881:
	.loc 9 186 0
	mr 3,31
	bl _ZdaPv
.LVL570:
	.loc 9 191 0
	stw 30,6424(28)
	.loc 9 189 0
	stw 30,6432(28)
	.loc 9 190 0
	stw 30,6420(28)
	b .L741
.LVL571:
.L934:
.LBE1881:
.LBE1880:
.LBE1883:
.LBE1885:
.LBE1886:
.LBE1887:
.LBE1888:
.LBE1904:
.LBE1909:
.LBE1913:
.LBE2291:
.LBB2292:
.LBB1781:
.LBB1777:
.LBB1772:
.LBB1760:
.LBB1759:
.LBB1758:
.LBB1757:
.LBB1755:
.LBB1752:
.LBB1753:
	.loc 9 186 0
	mr 3,27
	bl _ZdaPv
.LVL572:
	.loc 9 191 0
	stw 31,23112(29)
	.loc 9 189 0
	stw 31,23120(29)
	.loc 9 190 0
	stw 31,23108(29)
	b .L764
.LVL573:
.L925:
.LBE1753:
.LBE1752:
.LBE1755:
.LBE1757:
.LBE1758:
.LBE1759:
.LBE1760:
.LBE1772:
.LBE1777:
.LBE1781:
.LBE2292:
.LBB2293:
.LBB2196:
.LBB2202:
.LBB2208:
.LBB2258:
.LBB2257:
.LBB2256:
.LBB2255:
.LBB2253:
.LBB2250:
.LBB2251:
	.loc 9 186 0
	mr 3,31
	bl _ZdaPv
.LVL574:
	.loc 9 191 0
	stw 30,8(23)
	.loc 9 189 0
	stw 30,16(23)
	.loc 9 190 0
	stw 30,4(23)
	b .L642
.LVL575:
.L860:
	mr 24,3
.L673:
.LBE2251:
.LBE2250:
.LBE2253:
.LBE2255:
.LBE2256:
.LBE2257:
.LBE2258:
.LBE2208:
.LBE2202:
.LBE2196:
.LBE2293:
.LBB2294:
.LBB2188:
.LBB2184:
.LBB2167:
.LBB2169:
.LBB2171:
.LBB2173:
	.loc 9 185 0
	lwz 3,12(31)
	cmpwi 7,3,0
	beq- 7,.L674
	.loc 9 186 0
	bl _ZdaPv
.L674:
.L889:
.L676:
.LBE2173:
.LBE2171:
.LBE2169:
.LBE2167:
.LBE2184:
.LBE2188:
.LBE2294:
	.loc 2 107 0
	subfic 0,25,31
.LBB2295:
.LBB2108:
.LBB2112:
.LBB2116:
.LBB2178:
.LBB2176:
.LBB2174:
	.loc 9 189 0
	li 9,0
.LBE2174:
.LBE2176:
.LBE2178:
.LBE2116:
.LBE2112:
.LBE2108:
.LBE2295:
	.loc 2 107 0
	mulli 0,0,44
.LBB2296:
.LBB2189:
.LBB2185:
.LBB2180:
.LBB2168:
.LBB2170:
.LBB2172:
	.loc 9 191 0
	stw 9,4(31)
	.loc 9 189 0
	stw 9,12(31)
.LBE2172:
.LBE2170:
.LBE2168:
.LBE2180:
.LBE2185:
.LBE2189:
.LBE2296:
	.loc 2 107 0
	add 30,0,18
.LVL576:
.LBB2297:
.LBB2107:
.LBB2111:
.LBB2115:
.LBB2179:
.LBB2177:
.LBB2175:
	.loc 9 190 0
	stw 9,0(31)
.LBE2175:
.LBE2177:
.LBE2179:
.LBE2115:
.LBE2111:
.LBE2107:
.LBE2297:
	.loc 2 107 0
	cmpw 7,18,30
	beq- 7,.L841
.LVL577:
.L893:
	addi 30,30,-44
.LBB2298:
.LBB2300:
	.loc 7 174 0
	mr 3,30
.LEHB46:
	bl _ZN6idDict5ClearEv
.LEHE46:
.LBB2312:
.LBB2313:
	.loc 8 130 0
	addi 3,30,16
.LEHB47:
	bl _ZN11idHashIndex4FreeEv
.LEHE47:
.LBE2313:
.LBE2312:
.LBB2305:
.LBB2306:
.LBB2307:
.LBB2308:
	.loc 9 185 0
	lwz 3,12(30)
	cmpwi 7,3,0
	beq- 7,.L685
	.loc 9 186 0
	bl _ZdaPv
.L685:
.LBE2308:
.LBE2307:
.LBE2306:
.LBE2305:
.LBE2300:
.LBE2298:
	.loc 2 107 0
	cmpw 7,18,30
.LBB2319:
.LBB2317:
.LBB2314:
.LBB2311:
.LBB2310:
.LBB2309:
	.loc 9 189 0
	li 0,0
	.loc 9 191 0
	stw 0,4(30)
	.loc 9 189 0
	stw 0,12(30)
	.loc 9 190 0
	stw 0,0(30)
.LBE2309:
.LBE2310:
.LBE2311:
.LBE2314:
.LBE2317:
.LBE2319:
	.loc 2 107 0
	bne+ 7,.L893
	b .L841
.L858:
	mr 24,3
.L682:
.LBB2320:
.LBB2299:
.LBB2301:
.LBB2302:
.LBB2303:
.LBB2304:
	.loc 9 185 0
	lwz 3,12(30)
	cmpwi 7,3,0
	beq- 7,.L683
	.loc 9 186 0
	bl _ZdaPv
.L683:
	.loc 9 189 0
	li 0,0
	.loc 9 191 0
	stw 0,4(30)
	.loc 9 189 0
	stw 0,12(30)
	.loc 9 190 0
	stw 0,0(30)
.L890:
.LVL578:
.L841:
.LBE2304:
.LBE2303:
.LBE2302:
.LBE2301:
.LBE2299:
.LBE2320:
	.loc 2 109 0
	addi 3,23,4
	bl _ZN6idDictD1Ev
.L891:
.LVL579:
.L842:
.LBB2321:
.LBB2322:
	.loc 5 74 0
	lis 9,_ZTV6idGame+8@ha
	mr 3,24
	la 9,_ZTV6idGame+8@l(9)
	stw 9,0(23)
.LEHB48:
	bl _Unwind_Resume
.LEHE48:
.LVL580:
.L857:
.L680:
	mr 24,3
.LBE2322:
.LBE2321:
.LBB2323:
.LBB2318:
.LBB2315:
.LBB2316:
	.loc 8 130 0
	addi 3,30,16
	bl _ZN11idHashIndex4FreeEv
	b .L682
.LVL581:
.L850:
	mr 24,3
.L777:
.LBE2316:
.LBE2315:
.LBE2318:
.LBE2323:
.LBB2324:
.LBB1697:
.LBB1701:
.LBB1705:
.LBB1706:
.LBB1707:
.LBB1708:
	.loc 9 185 0
	lwz 3,23120(29)
	cmpwi 7,3,0
	beq- 7,.L778
	.loc 9 186 0
	bl _ZdaPv
.L778:
	.loc 9 189 0
	li 0,0
	.loc 9 191 0
	stw 0,23112(29)
	.loc 9 189 0
	stw 0,23120(29)
	.loc 9 190 0
	stw 0,23108(29)
.L865:
.LVL582:
.L792:
.L866:
.L793:
.L867:
.L794:
.L868:
.L795:
.L869:
.L796:
.L870:
.L797:
.L871:
.L798:
.LBE1708:
.LBE1707:
.LBE1706:
.LBE1705:
.LBE1701:
.LBE1697:
.LBE2324:
.LBB2325:
.LBB2326:
	.loc 12 187 0
	mr 3,20
.LBE2326:
.LBE2325:
	.loc 2 109 0
	addi 30,28,6504
.LBB2328:
.LBB2327:
	.loc 12 187 0
	bl _ZN12idBlockAllocI16entityNetEvent_sLi32EED1Ev
.LBE2327:
.LBE2328:
.LBB2329:
.LBB2330:
	mr 3,21
	bl _ZN12idBlockAllocI16entityNetEvent_sLi32EED1Ev
.LBE2330:
.LBE2329:
	.loc 2 109 0
	mr 3,17
	bl _ZN12idBlockAllocI10snapshot_sLi64EED1Ev
	mr 3,16
	bl _ZN12idBlockAllocI13entityState_sLi256EED1Ev
	addi 0,28,22888
.LVL583:
	cmpw 7,0,30
	beq- 7,.L799
	mr 31,0
.LVL584:
.L801:
.LBB2331:
.LBB2332:
.LBB2333:
.LBB2334:
	.loc 9 185 0
	lwz 3,-4(31)
	cmpwi 7,3,0
	beq- 7,.L802
	.loc 9 186 0
	bl _ZdaPv
.LVL585:
.L802:
	.loc 9 189 0
	li 0,0
.LVL586:
	.loc 9 191 0
	stw 0,-12(31)
	.loc 9 189 0
	stw 0,-4(31)
	.loc 9 190 0
	stw 0,-16(31)
	.loc 9 191 0
	addi 31,31,-16
.LBE2334:
.LBE2333:
.LBE2332:
.LBE2331:
	.loc 2 109 0
	cmpw 7,31,30
	bne+ 7,.L801
.LVL587:
.L799:
.L872:
.L804:
	addi 3,28,6420
	bl _ZN6idDictD1Ev
.LVL588:
.L873:
.LVL589:
.L805:
.LBB2335:
.LBB2337:
.LBB2339:
.LBB2341:
	.loc 9 185 0
	lwz 9,6408(28)
	cmpwi 7,9,0
	beq- 7,.L806
	.loc 9 186 0
	lwz 0,-4(9)
	slwi 0,0,5
	add 31,9,0
.LVL590:
	cmpw 7,9,31
	mr 3,31
	beq- 7,.L810
.LVL591:
.L896:
	addi 31,31,-32
.LVL592:
.LBB2342:
.LBB2343:
	.loc 11 501 0
	mr 3,31
	bl _ZN5idStr8FreeDataEv
.LBE2343:
.LBE2342:
	.loc 9 186 0
	lwz 3,6408(28)
.LVL593:
	cmpw 7,3,31
	bne+ 7,.L896
.L810:
	addi 3,3,-4
.LVL594:
	bl _ZdaPv
.LVL595:
.L806:
.L874:
.L811:
.LBE2341:
.LBE2339:
.LBE2337:
.LBE2335:
.LBB2347:
.LBB2349:
.LBB2351:
.LBB2353:
	.loc 9 185 0
	lwz 3,6392(28)
.LBE2353:
.LBE2351:
.LBE2349:
.LBE2347:
.LBB2360:
.LBB2336:
.LBB2338:
.LBB2340:
	.loc 9 189 0
	li 31,0
.LVL596:
	stw 31,6408(28)
.LBE2340:
.LBE2338:
.LBE2336:
.LBE2360:
.LBB2361:
.LBB2358:
.LBB2356:
.LBB2354:
	.loc 9 185 0
	cmpwi 7,3,0
.LBE2354:
.LBE2356:
.LBE2358:
.LBE2361:
.LBB2362:
.LBB2346:
.LBB2345:
.LBB2344:
	.loc 9 190 0
	stw 31,6396(28)
	.loc 9 191 0
	stw 31,6400(28)
.LBE2344:
.LBE2345:
.LBE2346:
.LBE2362:
.LBB2363:
.LBB2348:
.LBB2350:
.LBB2352:
	.loc 9 185 0
	beq- 7,.L812
	.loc 9 186 0
	bl _ZdaPv
.L812:
.L875:
.L814:
.L876:
.L815:
.L877:
.L816:
	.loc 9 189 0
	li 0,0
	stw 31,6392(28)
	.loc 9 191 0
	stw 0,6384(28)
.LBE2352:
.LBE2350:
.LBE2348:
.LBE2363:
.LBB2364:
.LBB2365:
	.loc 11 501 0
	addi 3,28,6320
.LBE2365:
.LBE2364:
.LBB2367:
.LBB2359:
.LBB2357:
.LBB2355:
	.loc 9 190 0
	stw 0,6380(28)
.LBE2355:
.LBE2357:
.LBE2359:
.LBE2367:
.LBB2368:
.LBB2370:
	.loc 14 95 0
	addi 31,28,6048
.LVL597:
	addi 30,28,5868
.LBE2370:
.LBE2368:
.LBB2386:
.LBB2366:
	.loc 11 501 0
	bl _ZN5idStr8FreeDataEv
.LBE2366:
.LBE2386:
	.loc 2 109 0
	mr 3,15
	bl _ZN10idLinkListI8idEntityED1Ev
.L817:
.LBB2387:
.LBB2369:
	.loc 14 95 0
	cmpw 7,31,30
	beq- 7,.L818
	addi 31,31,-36
.LBB2371:
.LBB2372:
.LBB2373:
.LBB2374:
	.loc 11 501 0
	mr 3,31
.LEHB49:
	bl _ZN5idStr8FreeDataEv
.LEHE49:
	b .L817
.LVL598:
.L859:
.L672:
	mr 24,3
.LBE2374:
.LBE2373:
.LBE2372:
.LBE2371:
.LBE2369:
.LBE2387:
.LBB2388:
.LBB2190:
.LBB2186:
.LBB2181:
.LBB2182:
	.loc 8 130 0
	mr 3,27
	bl _ZN11idHashIndex4FreeEv
	b .L673
.LVL599:
.L853:
.L725:
	mr 24,3
.LBE2182:
.LBE2181:
.LBE2186:
.LBE2190:
.LBE2388:
.LBB2389:
.LBB2011:
.LBB2009:
.LBB2002:
.LBB2003:
	mr 3,28
	bl _ZN11idHashIndex4FreeEv
.LVL600:
.L726:
.LBE2003:
.LBE2002:
.LBB2004:
.LBB2005:
.LBB2006:
.LBB2007:
	.loc 9 185 0
	lwz 3,-28784(26)
	cmpwi 7,3,0
	beq- 7,.L727
	.loc 9 186 0
	bl _ZdaPv
.L727:
	.loc 9 189 0
	li 0,0
	.loc 9 191 0
	stw 0,-28792(26)
	.loc 9 189 0
	stw 0,-28784(26)
	.loc 9 190 0
	stw 0,-28796(26)
.L883:
.LVL601:
.L832:
.L884:
.L833:
.L885:
.L834:
.LBE2007:
.LBE2006:
.LBE2005:
.LBE2004:
.LBE2009:
.LBE2011:
.LBE2389:
	.loc 2 109 0
	lwz 3,12(1)
	bl _ZN10idLinkListI8idEntityED1Ev
	lwz 3,16(1)
	bl _ZN10idLinkListI8idEntityED1Ev
.LBB2390:
.LBB2391:
	.loc 8 130 0
	mr 3,22
	bl _ZN11idHashIndex4FreeEv
.L835:
.LBE2391:
.LBE2390:
	.loc 2 109 0
	addi 31,23,3892
.LVL602:
	cmpw 7,19,31
	beq- 7,.L838
.L897:
	addi 31,31,-44
	mr 3,31
	bl _ZN6idDictD1Ev
	cmpw 7,19,31
	bne+ 7,.L897
.L888:
.LVL603:
.L838:
	addi 31,23,1460
	cmpw 7,18,31
	beq- 7,.L841
.L898:
	addi 31,31,-44
	mr 3,31
	bl _ZN6idDictD1Ev
	cmpw 7,18,31
	bne+ 7,.L898
	b .L841
.LVL604:
.L863:
.L785:
.LBB2392:
.LBB2393:
.LBB2394:
.LBB2395:
	.loc 9 185 0
	lwz 9,23164(29)
	mr 24,3
	cmpwi 7,9,0
	beq- 7,.L786
	.loc 9 186 0
	lwz 0,-4(9)
	slwi 0,0,5
	add 31,9,0
.LVL605:
	cmpw 7,9,31
	mr 3,31
	beq- 7,.L790
.LVL606:
.L895:
	addi 31,31,-32
.LVL607:
.LBB2396:
.LBB2397:
	.loc 11 501 0
	mr 3,31
	bl _ZN5idStr8FreeDataEv
.LBE2397:
.LBE2396:
	.loc 9 186 0
	lwz 3,23164(29)
.LVL608:
	cmpw 7,3,31
	bne+ 7,.L895
.L790:
	addi 3,3,-4
.LVL609:
	bl _ZdaPv
.L786:
.L864:
.L791:
	.loc 9 189 0
	li 0,0
.LBE2395:
.LBE2394:
.LBE2393:
.LBE2392:
	.loc 2 109 0
	addi 3,29,23108
.LBB2401:
.LBB2400:
.LBB2399:
.LBB2398:
	.loc 9 191 0
	stw 0,23156(29)
	.loc 9 189 0
	stw 0,23164(29)
	.loc 9 190 0
	stw 0,23152(29)
.LBE2398:
.LBE2399:
.LBE2400:
.LBE2401:
	.loc 2 109 0
	bl _ZN6idDictD1Ev
	b .L792
.LVL610:
.L855:
.L703:
	mr 24,3
.LBB2402:
.LBB2022:
.LBB2026:
.LBB2043:
.LBB2044:
	.loc 8 130 0
	mr 3,27
	bl _ZN11idHashIndex4FreeEv
.L704:
.LBE2044:
.LBE2043:
.LBB2030:
.LBB2032:
.LBB2034:
.LBB2036:
	.loc 9 185 0
	lwz 3,12(31)
	cmpwi 7,3,0
	beq- 7,.L705
	.loc 9 186 0
	bl _ZdaPv
.L705:
.L887:
.L707:
.LBE2036:
.LBE2034:
.LBE2032:
.LBE2030:
.LBE2026:
.LBE2022:
.LBE2402:
	.loc 2 107 0
	subfic 0,25,31
.LBB2403:
.LBB2101:
.LBB2098:
.LBB2095:
.LBB2041:
.LBB2039:
.LBB2037:
	.loc 9 189 0
	li 9,0
.LBE2037:
.LBE2039:
.LBE2041:
.LBE2095:
.LBE2098:
.LBE2101:
.LBE2403:
	.loc 2 107 0
	mulli 0,0,44
.LBB2404:
.LBB2021:
.LBB2025:
.LBB2029:
.LBB2031:
.LBB2033:
.LBB2035:
	.loc 9 191 0
	stw 9,4(31)
	.loc 9 189 0
	stw 9,12(31)
.LBE2035:
.LBE2033:
.LBE2031:
.LBE2029:
.LBE2025:
.LBE2021:
.LBE2404:
	.loc 2 107 0
	add 30,0,19
.LBB2405:
.LBB2102:
.LBB2099:
.LBB2096:
.LBB2042:
.LBB2040:
.LBB2038:
	.loc 9 190 0
	stw 9,0(31)
.LBE2038:
.LBE2040:
.LBE2042:
.LBE2096:
.LBE2099:
.LBE2102:
.LBE2405:
	.loc 2 107 0
	cmpw 7,19,30
	beq- 7,.L838
.LVL611:
.L894:
	addi 30,30,-44
	mr 3,30
	bl _ZN6idDictD1Ev
	cmpw 7,19,30
	bne+ 7,.L894
	b .L838
.LVL612:
.L886:
	mr 24,3
	b .L835
.LVL613:
.L880:
	mr 24,3
.LVL614:
.L827:
.LBB2406:
.LBB2407:
	.loc 15 248 0
	lwz 9,20(1)
	addi 3,9,20804
.LEHB50:
	bl _ZN11idClipModelD1Ev
.LEHE50:
	lwz 9,20(1)
	addi 3,9,20664
	bl _ZN11idClipModelD1Ev
.LVL615:
.L830:
.LBE2407:
.LBE2406:
	.loc 2 109 0
	lwz 3,8(1)
	bl _ZN9idProgramD1Ev
.L831:
	addi 3,26,-28796
	bl _ZN6idDictD1Ev
	b .L832
.LVL616:
.L878:
	mr 24,3
.LVL617:
.L825:
.L879:
.L826:
.LBB2409:
.LBB2410:
	.loc 11 501 0
	addi 3,28,4744
	bl _ZN5idStr8FreeDataEv
.LBE2410:
.LBE2409:
	.loc 2 109 0
	mr 3,14
	bl _ZN5idPVSD1Ev
	b .L827
.L845:
.L829:
.LBB2411:
.LBB2408:
	.loc 15 248 0
	lwz 9,20(1)
	mr 24,3
	addi 3,9,20664
	bl _ZN11idClipModelD1Ev
	b .L830
.LVL618:
.L852:
	mr 24,3
.L753:
.LBE2408:
.LBE2411:
.LBB2412:
.LBB1835:
.LBB1840:
.LBB1845:
.LBB1903:
.LBB1902:
.LBB1901:
	.loc 9 185 0
	lwz 3,6432(28)
	cmpwi 7,3,0
	beq- 7,.L754
	.loc 9 186 0
	bl _ZdaPv
.L754:
	.loc 9 189 0
	li 0,0
	.loc 9 191 0
	stw 0,6424(28)
	.loc 9 189 0
	stw 0,6432(28)
	.loc 9 190 0
	stw 0,6420(28)
	b .L805
.LVL619:
.L856:
	mr 24,3
	b .L704
.LVL620:
.L861:
.L653:
	mr 24,3
.LBE1901:
.LBE1902:
.LBE1903:
.LBE1845:
.LBE1840:
.LBE1835:
.LBE2412:
.LBB2413:
.LBB2283:
.LBB2278:
.LBB2271:
.LBB2272:
	.loc 8 130 0
	mr 3,29
	bl _ZN11idHashIndex4FreeEv
.L654:
.LBE2272:
.LBE2271:
.LBB2273:
.LBB2215:
.LBB2214:
.LBB2213:
	.loc 9 185 0
	lwz 3,16(23)
	cmpwi 7,3,0
	beq- 7,.L655
	.loc 9 186 0
	bl _ZdaPv
.L655:
	.loc 9 189 0
	li 0,0
	.loc 9 191 0
	stw 0,8(23)
	.loc 9 189 0
	stw 0,16(23)
	.loc 9 190 0
	stw 0,4(23)
	b .L842
.LVL621:
.L881:
	mr 24,3
	b .L830
.LVL622:
.L862:
	mr 24,3
	b .L654
.LVL623:
.L882:
	mr 24,3
	b .L831
.LVL624:
.L849:
.L776:
	mr 24,3
.LBE2213:
.LBE2214:
.LBE2215:
.LBE2273:
.LBE2278:
.LBE2283:
.LBE2413:
.LBB2414:
.LBB1782:
.LBB1778:
.LBB1773:
.LBB1774:
	.loc 8 130 0
	mr 3,25
	bl _ZN11idHashIndex4FreeEv
	b .L777
.LVL625:
.L854:
	mr 24,3
	b .L726
.LVL626:
.L851:
.L752:
	mr 24,3
.LBE1774:
.LBE1773:
.LBE1778:
.LBE1782:
.LBE2414:
.LBB2415:
.LBB1914:
.LBB1910:
.LBB1905:
.LBB1906:
	mr 3,29
	bl _ZN11idHashIndex4FreeEv
	b .L753
.LVL627:
.L846:
.L820:
	mr 24,3
.LBE1906:
.LBE1905:
.LBE1910:
.LBE1914:
.LBE2415:
.LBB2416:
.LBB2385:
.LBB2375:
.LBB2376:
	.loc 11 501 0
	addi 3,28,5796
	bl _ZN5idStr8FreeDataEv
.L822:
.LBE2376:
.LBE2375:
.LBB2377:
.LBB2378:
	addi 3,28,5608
	bl _ZN5idStr8FreeDataEv
.L923:
.LBE2378:
.LBE2377:
.LBB2379:
.LBB2380:
	addi 3,28,5576
	bl _ZN5idStr8FreeDataEv
	b .L825
.L818:
.LBE2380:
.LBE2379:
.LBB2381:
.LBB2382:
	addi 3,28,5796
.LEHB51:
	bl _ZN5idStr8FreeDataEv
.LEHE51:
.LBE2382:
.LBE2381:
.LBB2383:
.LBB2384:
	addi 3,28,5608
.LEHB52:
	bl _ZN5idStr8FreeDataEv
.LEHE52:
	b .L923
.L847:
	mr 24,3
	b .L822
.L848:
.L824:
	mr 24,3
	b .L923
.LBE2384:
.LBE2383:
.LBE2385:
.LBE2416:
.LBE2422:
.LFE2824:
	.size	_ZN11idGameLocalC2Ev, .-_ZN11idGameLocalC2Ev
	.section	.gcc_except_table
.LLSDA2824:
	.byte	0xff
	.byte	0xff
	.byte	0x1
	.uleb128 .LLSDACSE2824-.LLSDACSB2824
.LLSDACSB2824:
	.uleb128 .LEHB28-.LFB2824
	.uleb128 .LEHE28-.LEHB28
	.uleb128 .L862-.LFB2824
	.uleb128 0x0
	.uleb128 .LEHB29-.LFB2824
	.uleb128 .LEHE29-.LEHB29
	.uleb128 .L861-.LFB2824
	.uleb128 0x0
	.uleb128 .LEHB30-.LFB2824
	.uleb128 .LEHE30-.LEHB30
	.uleb128 .L860-.LFB2824
	.uleb128 0x0
	.uleb128 .LEHB31-.LFB2824
	.uleb128 .LEHE31-.LEHB31
	.uleb128 .L859-.LFB2824
	.uleb128 0x0
	.uleb128 .LEHB32-.LFB2824
	.uleb128 .LEHE32-.LEHB32
	.uleb128 .L856-.LFB2824
	.uleb128 0x0
	.uleb128 .LEHB33-.LFB2824
	.uleb128 .LEHE33-.LEHB33
	.uleb128 .L855-.LFB2824
	.uleb128 0x0
	.uleb128 .LEHB34-.LFB2824
	.uleb128 .LEHE34-.LEHB34
	.uleb128 .L886-.LFB2824
	.uleb128 0x0
	.uleb128 .LEHB35-.LFB2824
	.uleb128 .LEHE35-.LEHB35
	.uleb128 .L854-.LFB2824
	.uleb128 0x0
	.uleb128 .LEHB36-.LFB2824
	.uleb128 .LEHE36-.LEHB36
	.uleb128 .L853-.LFB2824
	.uleb128 0x0
	.uleb128 .LEHB37-.LFB2824
	.uleb128 .LEHE37-.LEHB37
	.uleb128 .L882-.LFB2824
	.uleb128 0x0
	.uleb128 .LEHB38-.LFB2824
	.uleb128 .LEHE38-.LEHB38
	.uleb128 .L881-.LFB2824
	.uleb128 0x0
	.uleb128 .LEHB39-.LFB2824
	.uleb128 .LEHE39-.LEHB39
	.uleb128 .L880-.LFB2824
	.uleb128 0x0
	.uleb128 .LEHB40-.LFB2824
	.uleb128 .LEHE40-.LEHB40
	.uleb128 .L878-.LFB2824
	.uleb128 0x0
	.uleb128 .LEHB41-.LFB2824
	.uleb128 .LEHE41-.LEHB41
	.uleb128 .L852-.LFB2824
	.uleb128 0x0
	.uleb128 .LEHB42-.LFB2824
	.uleb128 .LEHE42-.LEHB42
	.uleb128 .L851-.LFB2824
	.uleb128 0x0
	.uleb128 .LEHB43-.LFB2824
	.uleb128 .LEHE43-.LEHB43
	.uleb128 .L850-.LFB2824
	.uleb128 0x0
	.uleb128 .LEHB44-.LFB2824
	.uleb128 .LEHE44-.LEHB44
	.uleb128 .L849-.LFB2824
	.uleb128 0x0
	.uleb128 .LEHB45-.LFB2824
	.uleb128 .LEHE45-.LEHB45
	.uleb128 .L863-.LFB2824
	.uleb128 0x0
	.uleb128 .LEHB46-.LFB2824
	.uleb128 .LEHE46-.LEHB46
	.uleb128 .L857-.LFB2824
	.uleb128 0x0
	.uleb128 .LEHB47-.LFB2824
	.uleb128 .LEHE47-.LEHB47
	.uleb128 .L858-.LFB2824
	.uleb128 0x0
	.uleb128 .LEHB48-.LFB2824
	.uleb128 .LEHE48-.LEHB48
	.uleb128 0x0
	.uleb128 0x0
	.uleb128 .LEHB49-.LFB2824
	.uleb128 .LEHE49-.LEHB49
	.uleb128 .L846-.LFB2824
	.uleb128 0x0
	.uleb128 .LEHB50-.LFB2824
	.uleb128 .LEHE50-.LEHB50
	.uleb128 .L845-.LFB2824
	.uleb128 0x0
	.uleb128 .LEHB51-.LFB2824
	.uleb128 .LEHE51-.LEHB51
	.uleb128 .L847-.LFB2824
	.uleb128 0x0
	.uleb128 .LEHB52-.LFB2824
	.uleb128 .LEHE52-.LEHB52
	.uleb128 .L848-.LFB2824
	.uleb128 0x0
.LLSDACSE2824:
	.section	".text"
	.section	.text._ZN11idGameLocalD0Ev,"axG",@progbits,_ZN11idGameLocalD0Ev,comdat
	.align 2
	.weak	_ZN11idGameLocalD0Ev
	.type	_ZN11idGameLocalD0Ev, @function
_ZN11idGameLocalD0Ev:
.LFB3261:
	.loc 12 242 0
.LVL628:
	mflr 0
.LCFI467:
	stwu 1,-32(1)
.LCFI468:
	lis 9,_ZTV11idGameLocal+8@ha
	stw 28,16(1)
.LCFI469:
	la 9,_ZTV11idGameLocal+8@l(9)
	stw 30,24(1)
.LCFI470:
.LBB2627:
.LBB2629:
.LBB2631:
.LBB2633:
	.loc 9 185 0
	addis 30,3,0x2e
.LBE2633:
.LBE2631:
.LBE2629:
.LBE2627:
	.loc 12 242 0
	stw 27,12(1)
.LCFI471:
	mr 28,3
	stw 29,20(1)
.LCFI472:
	stw 31,28(1)
.LCFI473:
	stw 0,36(1)
.LCFI474:
	.loc 12 242 0
	stw 9,0(3)
.LBB2639:
.LBB2628:
.LBB2630:
.LBB2632:
	.loc 9 185 0
	lwz 11,23164(30)
.LVL629:
	cmpwi 7,11,0
	beq- 7,.L937
	.loc 9 186 0
	lwz 0,-4(11)
	slwi 0,0,5
	add 31,11,0
.LVL630:
	b .L939
.LVL631:
.L1194:
	addi 31,31,-32
.LVL632:
.LBB2634:
.LBB2635:
	.loc 11 501 0
	mr 3,31
.LVL633:
.LEHB53:
	bl _ZN5idStr8FreeDataEv
.LEHE53:
	lwz 11,23164(30)
.LVL634:
.L939:
.LBE2635:
.LBE2634:
	.loc 9 186 0
	cmpw 7,31,11
	bne+ 7,.L1194
.LVL635:
	addi 3,31,-4
.LVL636:
	bl _ZdaPv
.LVL637:
.L937:
	.loc 9 189 0
	li 0,0
.LBE2632:
.LBE2630:
.LBE2628:
.LBE2639:
.LBB2640:
.LBB2644:
	.loc 7 174 0
	addi 3,30,23108
.LBE2644:
.LBE2640:
.LBB2677:
.LBB2638:
.LBB2637:
.LBB2636:
	.loc 9 191 0
	stw 0,23156(30)
	.loc 9 189 0
	stw 0,23164(30)
	.loc 9 190 0
	stw 0,23152(30)
.LEHB54:
.LBE2636:
.LBE2637:
.LBE2638:
.LBE2677:
.LBB2678:
.LBB2673:
	.loc 7 174 0
	bl _ZN6idDict5ClearEv
.LEHE54:
.LVL638:
.LBB2657:
.LBB2658:
	.loc 8 130 0
	addi 3,30,23124
.LEHB55:
	bl _ZN11idHashIndex4FreeEv
.LEHE55:
.LBE2658:
.LBE2657:
.LBB2659:
.LBB2661:
.LBB2663:
.LBB2665:
	.loc 9 185 0
	lwz 3,23120(30)
	cmpwi 7,3,0
	beq- 7,.L958
	.loc 9 186 0
	bl _ZdaPv
.L958:
	.loc 9 189 0
	li 0,0
.LBE2665:
.LBE2663:
.LBE2661:
.LBE2659:
.LBE2673:
.LBE2678:
.LBB2679:
.LBB2680:
	.loc 12 187 0
	addi 3,30,-26072
.LBE2680:
.LBE2679:
.LBB2682:
.LBB2643:
.LBB2656:
.LBB2660:
.LBB2662:
.LBB2664:
	.loc 9 191 0
	stw 0,23112(30)
.LBE2664:
.LBE2662:
.LBE2660:
.LBE2656:
.LBE2643:
.LBE2682:
	.loc 12 242 0
	addis 29,28,0x25
.LBB2683:
.LBB2674:
.LBB2669:
.LBB2668:
.LBB2667:
.LBB2666:
	.loc 9 189 0
	stw 0,23120(30)
	.loc 9 190 0
	stw 0,23108(30)
.LBE2666:
.LBE2667:
.LBE2668:
.LBE2669:
.LBE2674:
.LBE2683:
.LBB2684:
.LBB2681:
	.loc 12 187 0
	bl _ZN12idBlockAllocI16entityNetEvent_sLi32EED1Ev
.LBE2681:
.LBE2684:
.LBB2685:
.LBB2686:
	addi 3,30,-26096
	bl _ZN12idBlockAllocI16entityNetEvent_sLi32EED1Ev
.LBE2686:
.LBE2685:
	.loc 12 242 0
	addi 3,30,-26120
	bl _ZN12idBlockAllocI10snapshot_sLi64EED1Ev
	addi 3,30,-26136
	bl _ZN12idBlockAllocI13entityState_sLi256EED1Ev
	addi 30,29,6504
	addi 0,29,22888
.LVL639:
	cmpw 7,0,30
.LVL640:
	mr 31,0
.LVL641:
	beq- 7,.L960
.L974:
.LBB2687:
.LBB2688:
.LBB2689:
.LBB2690:
	.loc 9 185 0
	lwz 3,-4(31)
	cmpwi 7,3,0
	beq- 7,.L975
	.loc 9 186 0
	bl _ZdaPv
.LVL642:
.L975:
	.loc 9 189 0
	li 0,0
.LVL643:
	.loc 9 191 0
	stw 0,-12(31)
	.loc 9 189 0
	stw 0,-4(31)
	.loc 9 190 0
	stw 0,-16(31)
	.loc 9 191 0
	addi 31,31,-16
.LBE2690:
.LBE2689:
.LBE2688:
.LBE2687:
	.loc 12 242 0
	cmpw 7,31,30
	bne+ 7,.L974
.L981:
.LVL644:
.L960:
.LBB2691:
.LBB2695:
	.loc 7 174 0
	addi 3,29,6420
.LEHB56:
	bl _ZN6idDict5ClearEv
.LEHE56:
.LVL645:
.LBB2708:
.LBB2709:
	.loc 8 130 0
	addi 3,29,6436
.LEHB57:
	bl _ZN11idHashIndex4FreeEv
.LEHE57:
.LBE2709:
.LBE2708:
.LBB2710:
.LBB2712:
.LBB2714:
.LBB2716:
	.loc 9 185 0
	lwz 3,6432(29)
	cmpwi 7,3,0
	beq- 7,.L992
	.loc 9 186 0
	bl _ZdaPv
.L992:
.LBE2716:
.LBE2714:
.LBE2712:
.LBE2710:
.LBE2695:
.LBE2691:
.LBB2727:
.LBB2730:
.LBB2733:
.LBB2736:
	.loc 9 185 0
	lwz 9,6408(29)
.LVL646:
.LBE2736:
.LBE2733:
.LBE2730:
.LBE2727:
.LBB2745:
.LBB2694:
.LBB2707:
.LBB2711:
.LBB2713:
.LBB2715:
	.loc 9 189 0
	li 0,0
	.loc 9 191 0
	stw 0,6424(29)
.LBE2715:
.LBE2713:
.LBE2711:
.LBE2707:
.LBE2694:
.LBE2745:
.LBB2746:
.LBB2729:
.LBB2732:
.LBB2735:
	.loc 9 185 0
	cmpwi 7,9,0
.LBE2735:
.LBE2732:
.LBE2729:
.LBE2746:
.LBB2747:
.LBB2724:
.LBB2720:
.LBB2719:
.LBB2718:
.LBB2717:
	.loc 9 189 0
	stw 0,6432(29)
	.loc 9 190 0
	stw 0,6420(29)
.LBE2717:
.LBE2718:
.LBE2719:
.LBE2720:
.LBE2724:
.LBE2747:
.LBB2748:
.LBB2743:
.LBB2741:
.LBB2739:
	.loc 9 185 0
	beq- 7,.L995
	.loc 9 186 0
	lwz 0,-4(9)
	slwi 0,0,5
	add 31,9,0
.LVL647:
	b .L1002
.LVL648:
.L1195:
	addi 31,31,-32
.LVL649:
.LBB2737:
.LBB2738:
	.loc 11 501 0
	mr 3,31
.LEHB58:
	bl _ZN5idStr8FreeDataEv
.LEHE58:
	lwz 9,6408(29)
.LVL650:
.L1002:
.LBE2738:
.LBE2737:
	.loc 9 186 0
	cmpw 7,31,9
	bne+ 7,.L1195
	addi 3,31,-4
	bl _ZdaPv
.LVL651:
.L995:
.LBE2739:
.LBE2741:
.LBE2743:
.LBE2748:
.LBB2749:
.LBB2751:
.LBB2753:
.LBB2755:
	.loc 9 185 0
	lwz 3,6392(29)
.LBE2755:
.LBE2753:
.LBE2751:
.LBE2749:
.LBB2762:
.LBB2728:
.LBB2731:
.LBB2734:
	.loc 9 189 0
	li 0,0
	.loc 9 191 0
	stw 0,6400(29)
.LBE2734:
.LBE2731:
.LBE2728:
.LBE2762:
.LBB2763:
.LBB2760:
.LBB2758:
.LBB2756:
	.loc 9 185 0
	cmpwi 7,3,0
.LBE2756:
.LBE2758:
.LBE2760:
.LBE2763:
.LBB2764:
.LBB2744:
.LBB2742:
.LBB2740:
	.loc 9 189 0
	stw 0,6408(29)
	.loc 9 190 0
	stw 0,6396(29)
.LBE2740:
.LBE2742:
.LBE2744:
.LBE2764:
.LBB2765:
.LBB2750:
.LBB2752:
.LBB2754:
	.loc 9 185 0
	beq- 7,.L1007
	.loc 9 186 0
	bl _ZdaPv
.LVL652:
.L1007:
	.loc 9 189 0
	li 0,0
.LBE2754:
.LBE2752:
.LBE2750:
.LBE2765:
.LBB2766:
.LBB2767:
	.loc 11 501 0
	addi 3,29,6320
.LBE2767:
.LBE2766:
.LBB2769:
.LBB2761:
.LBB2759:
.LBB2757:
	.loc 9 191 0
	stw 0,6384(29)
	.loc 9 189 0
	stw 0,6392(29)
	.loc 9 190 0
	stw 0,6380(29)
.LEHB59:
.LBE2757:
.LBE2759:
.LBE2761:
.LBE2769:
.LBB2770:
.LBB2768:
	.loc 11 501 0
	bl _ZN5idStr8FreeDataEv
.LEHE59:
.LBE2768:
.LBE2770:
	.loc 12 242 0
	addi 3,29,6280
.LBB2771:
.LBB2773:
	.loc 14 95 0
	addi 31,29,6048
.LVL653:
.LBE2773:
.LBE2771:
	.loc 12 242 0
	bl _ZN10idLinkListI8idEntityED1Ev
.LBB2791:
.LBB2772:
	.loc 14 95 0
	addi 30,29,5868
	b .L1014
.L1196:
	addi 31,31,-36
.LBB2780:
.LBB2781:
.LBB2782:
.LBB2783:
	.loc 11 501 0
	mr 3,31
.LEHB60:
	bl _ZN5idStr8FreeDataEv
.LEHE60:
.L1023:
.L1014:
.LBE2783:
.LBE2782:
.LBE2781:
.LBE2780:
	.loc 14 95 0
	cmpw 7,31,30
	bne+ 7,.L1196
.LBB2778:
.LBB2779:
	.loc 11 501 0
	addi 3,29,5796
.LEHB61:
	bl _ZN5idStr8FreeDataEv
.LEHE61:
.LBE2779:
.LBE2778:
.LBB2776:
.LBB2777:
	addi 3,29,5608
.LEHB62:
	bl _ZN5idStr8FreeDataEv
.LEHE62:
.LBE2777:
.LBE2776:
.LBB2774:
.LBB2775:
	addi 3,29,5576
.LEHB63:
	bl _ZN5idStr8FreeDataEv
.LEHE63:
.LBE2775:
.LBE2774:
.LBE2772:
.LBE2791:
.LBB2792:
.LBB2793:
	addi 3,29,4744
.LEHB64:
	bl _ZN5idStr8FreeDataEv
.LEHE64:
.LBE2793:
.LBE2792:
	.loc 12 242 0
	addi 3,29,4596
.LEHB65:
	bl _ZN5idPVSD1Ev
.LEHE65:
.L1038:
.LBB2794:
.LBB2795:
	.loc 15 248 0
	addis 31,28,0x23
.LVL654:
	addi 3,31,20804
.LEHB66:
	bl _ZN11idClipModelD1Ev
.LEHE66:
	addi 3,31,20664
.LEHB67:
	bl _ZN11idClipModelD1Ev
.LEHE67:
.LBE2795:
.LBE2794:
	.loc 12 242 0
	addis 31,28,0x1
	addi 3,31,-28700
.LEHB68:
	bl _ZN9idProgramD1Ev
.LEHE68:
.L1048:
.LBB2797:
.LBB2800:
	.loc 7 174 0
	addi 3,31,-28796
.LEHB69:
	bl _ZN6idDict5ClearEv
.LEHE69:
.LBB2803:
.LBB2804:
	.loc 8 130 0
	addi 3,31,-28780
.LEHB70:
	bl _ZN11idHashIndex4FreeEv
.LEHE70:
.LBE2804:
.LBE2803:
.LBB2805:
.LBB2806:
.LBB2807:
.LBB2808:
	.loc 9 185 0
	lwz 3,-28784(31)
	cmpwi 7,3,0
	beq- 7,.L1059
	.loc 9 186 0
	bl _ZdaPv
.L1059:
	.loc 9 189 0
	li 0,0
.LBE2808:
.LBE2807:
.LBE2806:
.LBE2805:
.LBE2800:
.LBE2797:
	.loc 12 242 0
	addi 3,31,-28820
.LBB2823:
.LBB2799:
.LBB2802:
.LBB2811:
.LBB2810:
.LBB2809:
	.loc 9 191 0
	stw 0,-28792(31)
	.loc 9 189 0
	stw 0,-28784(31)
	.loc 9 190 0
	stw 0,-28796(31)
.LBE2809:
.LBE2810:
.LBE2811:
.LBE2802:
.LBE2799:
.LBE2823:
	.loc 12 242 0
	bl _ZN10idLinkListI8idEntityED1Ev
	addi 3,31,-28836
	bl _ZN10idLinkListI8idEntityED1Ev
.LBB2824:
.LBB2825:
	.loc 8 130 0
	addi 3,31,-28868
.LEHB71:
	bl _ZN11idHashIndex4FreeEv
.LEHE71:
.LBE2825:
.LBE2824:
	.loc 12 242 0
	addi 31,28,3892
	addi 30,28,2484
	b .L1076
.L1197:
	addi 31,31,-44
	mr 3,31
.LEHB72:
	bl _ZN6idDictD1Ev
.LEHE72:
.L1076:
	cmpw 7,31,30
	bne+ 7,.L1197
	addi 31,28,1460
	addi 30,28,52
	b .L1082
.L1198:
	addi 31,31,-44
	mr 3,31
.LEHB73:
	bl _ZN6idDictD1Ev
.LEHE73:
.L1082:
	cmpw 7,31,30
	bne+ 7,.L1198
	addi 3,28,4
.LEHB74:
	bl _ZN6idDictD1Ev
.LEHE74:
.LBB2826:
.LBB2827:
	.loc 5 74 0
	lis 9,_ZTV6idGame+8@ha
.LBE2827:
.LBE2826:
	.loc 12 242 0
	mr 3,28
.LBB2829:
.LBB2828:
	.loc 5 74 0
	la 9,_ZTV6idGame+8@l(9)
	stw 9,0(28)
.LBE2828:
.LBE2829:
	.loc 12 242 0
	bl _ZdlPv
	lwz 0,36(1)
	lwz 27,12(1)
	lwz 28,16(1)
.LVL655:
	mtlr 0
	lwz 29,20(1)
	lwz 30,24(1)
	lwz 31,28(1)
	addi 1,1,32
	blr
.LVL656:
.L1113:
.L944:
	mr 27,3
.LBB2830:
.LBB2831:
	.loc 7 174 0
	addi 3,30,23108
.LEHB75:
	bl _ZN6idDict5ClearEv
.LEHE75:
.L946:
.LBB2832:
.LBB2833:
	.loc 8 130 0
	addi 3,30,23124
.LEHB76:
	bl _ZN11idHashIndex4FreeEv
.LEHE76:
.L955:
.LBE2833:
.LBE2832:
.LBE2831:
.LBE2830:
.LBB2834:
.LBB2642:
.LBB2646:
.LBB2648:
.LBB2650:
.LBB2652:
	.loc 9 185 0
	lwz 3,23120(30)
	cmpwi 7,3,0
	beq- 7,.L956
	.loc 9 186 0
	bl _ZdaPv
.L1114:
.L956:
.L962:
.L1115:
.L963:
.L1116:
.L964:
.L1117:
.L965:
.L1118:
.L966:
.L1119:
.L967:
.L1120:
.L968:
	.loc 9 189 0
	li 0,0
.LBE2652:
.LBE2650:
.LBE2648:
.LBE2646:
.LBE2642:
.LBE2834:
.LBB2835:
.LBB2836:
	.loc 12 187 0
	addi 3,30,-26072
.LBE2836:
.LBE2835:
.LBB2838:
.LBB2675:
.LBB2670:
.LBB2647:
.LBB2649:
.LBB2651:
	.loc 9 191 0
	stw 0,23112(30)
.LBE2651:
.LBE2649:
.LBE2647:
.LBE2670:
.LBE2675:
.LBE2838:
	.loc 12 242 0
	addis 29,28,0x25
.LBB2839:
.LBB2641:
.LBB2645:
.LBB2655:
.LBB2654:
.LBB2653:
	.loc 9 189 0
	stw 0,23120(30)
	.loc 9 190 0
	stw 0,23108(30)
.LBE2653:
.LBE2654:
.LBE2655:
.LBE2645:
.LBE2641:
.LBE2839:
.LBB2840:
.LBB2837:
	.loc 12 187 0
	bl _ZN12idBlockAllocI16entityNetEvent_sLi32EED1Ev
.LBE2837:
.LBE2840:
.LBB2841:
.LBB2842:
	addi 3,30,-26096
	bl _ZN12idBlockAllocI16entityNetEvent_sLi32EED1Ev
.LBE2842:
.LBE2841:
	.loc 12 242 0
	addi 3,30,-26120
	bl _ZN12idBlockAllocI10snapshot_sLi64EED1Ev
	addi 3,30,-26136
	bl _ZN12idBlockAllocI13entityState_sLi256EED1Ev
	addi 30,29,6504
	addi 0,29,22888
.LVL657:
	cmpw 7,0,30
	beq- 7,.L969
	mr 31,0
.LVL658:
.L971:
.LBB2843:
.LBB2844:
.LBB2845:
.LBB2846:
	.loc 9 185 0
	lwz 3,-4(31)
	cmpwi 7,3,0
	beq- 7,.L972
	.loc 9 186 0
	bl _ZdaPv
.LVL659:
.L972:
	.loc 9 189 0
	li 0,0
.LVL660:
	.loc 9 191 0
	stw 0,-12(31)
	.loc 9 189 0
	stw 0,-4(31)
	.loc 9 190 0
	stw 0,-16(31)
	.loc 9 191 0
	addi 31,31,-16
.LBE2846:
.LBE2845:
.LBE2844:
.LBE2843:
	.loc 12 242 0
	cmpw 7,31,30
	bne+ 7,.L971
.L1121:
.LVL661:
.L969:
.L977:
.LBB2847:
.LBB2848:
	.loc 7 174 0
	addi 3,29,6420
.LEHB77:
	bl _ZN6idDict5ClearEv
.LEHE77:
.LVL662:
.L979:
.LBB2849:
.LBB2850:
	.loc 8 130 0
	addi 3,29,6436
.LEHB78:
	bl _ZN11idHashIndex4FreeEv
.LEHE78:
.L989:
.LBE2850:
.LBE2849:
.LBE2848:
.LBE2847:
.LBB2851:
.LBB2693:
.LBB2697:
.LBB2699:
.LBB2701:
.LBB2703:
	.loc 9 185 0
	lwz 3,6432(29)
	cmpwi 7,3,0
	beq- 7,.L990
	.loc 9 186 0
	bl _ZdaPv
.L1122:
.L990:
.L996:
.LBE2703:
.LBE2701:
.LBE2699:
.LBE2697:
.LBE2693:
.LBE2851:
.LBB2852:
.LBB2854:
.LBB2856:
.LBB2858:
	.loc 9 185 0
	lwz 9,6408(29)
.LBE2858:
.LBE2856:
.LBE2854:
.LBE2852:
.LBB2864:
.LBB2725:
.LBB2721:
.LBB2698:
.LBB2700:
.LBB2702:
	.loc 9 189 0
	li 0,0
	.loc 9 191 0
	stw 0,6424(29)
.LBE2702:
.LBE2700:
.LBE2698:
.LBE2721:
.LBE2725:
.LBE2864:
.LBB2865:
.LBB2853:
.LBB2855:
.LBB2857:
	.loc 9 185 0
	cmpwi 7,9,0
.LBE2857:
.LBE2855:
.LBE2853:
.LBE2865:
.LBB2866:
.LBB2692:
.LBB2696:
.LBB2706:
.LBB2705:
.LBB2704:
	.loc 9 189 0
	stw 0,6432(29)
	.loc 9 190 0
	stw 0,6420(29)
.LBE2704:
.LBE2705:
.LBE2706:
.LBE2696:
.LBE2692:
.LBE2866:
.LBB2867:
.LBB2863:
.LBB2862:
.LBB2861:
	.loc 9 185 0
	beq- 7,.L997
	.loc 9 186 0
	lwz 0,-4(9)
	slwi 0,0,5
	add 3,9,0
.LVL663:
	cmpw 7,9,3
	beq- 7,.L999
	mr 31,3
.LVL664:
.L1001:
	addi 31,31,-32
.LBB2859:
.LBB2860:
	.loc 11 501 0
	mr 3,31
	bl _ZN5idStr8FreeDataEv
.LBE2860:
.LBE2859:
	.loc 9 186 0
	lwz 3,6408(29)
.LVL665:
	cmpw 7,3,31
	bne+ 7,.L1001
.LVL666:
.L999:
	addi 3,3,-4
.LVL667:
	bl _ZdaPv
.L997:
	.loc 9 189 0
	li 0,0
	.loc 9 191 0
	stw 0,6400(29)
	.loc 9 189 0
	stw 0,6408(29)
	.loc 9 190 0
	stw 0,6396(29)
.LVL668:
.L1008:
.LBE2861:
.LBE2862:
.LBE2863:
.LBE2867:
.LBB2868:
.LBB2869:
.LBB2870:
.LBB2871:
	.loc 9 185 0
	lwz 3,6392(29)
	cmpwi 7,3,0
	beq- 7,.L1009
	.loc 9 186 0
	bl _ZdaPv
.L1009:
.L1012:
	.loc 9 189 0
	li 0,0
.LBE2871:
.LBE2870:
.LBE2869:
.LBE2868:
.LBB2875:
.LBB2876:
	.loc 11 501 0
	addi 3,29,6320
.LBE2876:
.LBE2875:
.LBB2878:
.LBB2874:
.LBB2873:
.LBB2872:
	.loc 9 191 0
	stw 0,6384(29)
	.loc 9 189 0
	stw 0,6392(29)
	.loc 9 190 0
	stw 0,6380(29)
.LBE2872:
.LBE2873:
.LBE2874:
.LBE2878:
.LBB2879:
.LBB2877:
	.loc 11 501 0
	bl _ZN5idStr8FreeDataEv
.L1126:
.L1013:
.L1015:
.LBE2877:
.LBE2879:
	.loc 12 242 0
	addi 3,29,6280
.LBB2880:
.LBB2882:
	.loc 14 95 0
	addi 31,29,6048
.LVL669:
.LBE2882:
.LBE2880:
	.loc 12 242 0
	bl _ZN10idLinkListI8idEntityED1Ev
.LBB2892:
.LBB2881:
	.loc 14 95 0
	addi 30,29,5868
.L1016:
	cmpw 7,31,30
	beq- 7,.L1017
	addi 31,31,-36
.LBB2883:
.LBB2884:
.LBB2885:
.LBB2886:
	.loc 11 501 0
	mr 3,31
.LEHB79:
	bl _ZN5idStr8FreeDataEv
.LEHE79:
	b .L1016
.LVL670:
.L1108:
.L1190:
	mr 27,3
	b .L989
.L1107:
.L1191:
.L987:
	mr 27,3
.LBE2886:
.LBE2885:
.LBE2884:
.LBE2883:
.LBE2881:
.LBE2892:
.LBB2893:
.LBB2726:
.LBB2722:
.LBB2723:
	.loc 8 130 0
	addi 3,29,6436
	bl _ZN11idHashIndex4FreeEv
	b .L989
.L1112:
.L1188:
	mr 27,3
	b .L955
.LVL671:
.L1137:
	mr 27,3
.L1085:
.LBE2723:
.LBE2722:
.LBE2726:
.LBE2893:
	.loc 12 242 0
	addi 3,28,4
	bl _ZN6idDictD1Ev
.L1087:
.LBB2894:
.LBB2895:
	.loc 5 74 0
	lis 9,_ZTV6idGame+8@ha
	mr 3,27
	la 9,_ZTV6idGame+8@l(9)
	stw 9,0(28)
.LEHB80:
	bl _Unwind_Resume
.LEHE80:
.L1136:
	mr 27,3
.LVL672:
.L1079:
.LBE2895:
.LBE2894:
	.loc 12 242 0
	addi 30,28,52
	addi 31,28,1460
.LVL673:
	cmpw 7,31,30
	beq- 7,.L1085
.L1140:
	addi 31,31,-44
	mr 3,31
	bl _ZN6idDictD1Ev
	cmpw 7,31,30
	bne+ 7,.L1140
	b .L1085
.L1132:
.L1135:
	mr 27,3
.L1065:
	addi 30,28,2484
	addi 31,28,3892
.LVL674:
	cmpw 7,31,30
	beq- 7,.L1079
.L1139:
	addi 31,31,-44
.LBB2896:
.LBB2898:
	.loc 7 174 0
	mr 3,31
.LEHB81:
	bl _ZN6idDict5ClearEv
.LEHE81:
.LBB2900:
.LBB2901:
	.loc 8 130 0
	addi 3,31,16
.LEHB82:
	bl _ZN11idHashIndex4FreeEv
.LEHE82:
.LBE2901:
.LBE2900:
.LBB2902:
.LBB2903:
.LBB2904:
.LBB2905:
	.loc 9 185 0
	lwz 3,12(31)
	cmpwi 7,3,0
	beq- 7,.L1074
	.loc 9 186 0
	bl _ZdaPv
.L1074:
.LBE2905:
.LBE2904:
.LBE2903:
.LBE2902:
.LBE2898:
.LBE2896:
	.loc 12 242 0
	cmpw 7,31,30
.LBB2916:
.LBB2897:
.LBB2899:
.LBB2908:
.LBB2907:
.LBB2906:
	.loc 9 189 0
	li 0,0
	.loc 9 191 0
	stw 0,4(31)
	.loc 9 189 0
	stw 0,12(31)
	.loc 9 190 0
	stw 0,0(31)
.LBE2906:
.LBE2907:
.LBE2908:
.LBE2899:
.LBE2897:
.LBE2916:
	.loc 12 242 0
	bne+ 7,.L1139
	b .L1079
.L1092:
	mr 27,3
.L1071:
.LBB2917:
.LBB2915:
.LBB2909:
.LBB2910:
.LBB2911:
.LBB2912:
	.loc 9 185 0
	lwz 3,12(31)
	cmpwi 7,3,0
	beq- 7,.L1072
	.loc 9 186 0
	bl _ZdaPv
.L1072:
	.loc 9 189 0
	li 0,0
	.loc 9 191 0
	stw 0,4(31)
	.loc 9 189 0
	stw 0,12(31)
	.loc 9 190 0
	stw 0,0(31)
	b .L1079
.L1091:
.L1069:
	mr 27,3
.LBE2912:
.LBE2911:
.LBE2910:
.LBE2909:
.LBB2913:
.LBB2914:
	.loc 8 130 0
	addi 3,31,16
	bl _ZN11idHashIndex4FreeEv
	b .L1071
.LVL675:
.L1094:
.L1192:
	mr 27,3
.L1056:
.LBE2914:
.LBE2913:
.LBE2915:
.LBE2917:
.LBB2918:
.LBB2821:
.LBB2812:
.LBB2813:
.LBB2814:
.LBB2815:
	.loc 9 185 0
	lwz 3,-28784(31)
	cmpwi 7,3,0
	beq- 7,.L1057
	.loc 9 186 0
	bl _ZdaPv
.L1057:
.L1062:
.L1133:
.L1063:
.L1134:
.L1064:
	.loc 9 189 0
	li 0,0
.LBE2815:
.LBE2814:
.LBE2813:
.LBE2812:
.LBE2821:
.LBE2918:
	.loc 12 242 0
	addi 3,31,-28820
.LBB2919:
.LBB2798:
.LBB2801:
.LBB2818:
.LBB2817:
.LBB2816:
	.loc 9 191 0
	stw 0,-28792(31)
	.loc 9 189 0
	stw 0,-28784(31)
	.loc 9 190 0
	stw 0,-28796(31)
.LBE2816:
.LBE2817:
.LBE2818:
.LBE2801:
.LBE2798:
.LBE2919:
	.loc 12 242 0
	bl _ZN10idLinkListI8idEntityED1Ev
	addi 3,31,-28836
	bl _ZN10idLinkListI8idEntityED1Ev
.LBB2920:
.LBB2921:
	.loc 8 130 0
	addi 3,31,-28868
	bl _ZN11idHashIndex4FreeEv
	b .L1065
.LVL676:
.L1111:
.L1189:
.L953:
	mr 27,3
.LBE2921:
.LBE2920:
.LBB2922:
.LBB2676:
.LBB2671:
.LBB2672:
	addi 3,30,23124
	bl _ZN11idHashIndex4FreeEv
	b .L955
.LVL677:
.L1138:
	mr 27,3
	b .L1087
.LVL678:
.L1102:
.LVL679:
.L1185:
.L1026:
	mr 27,3
.LBE2672:
.LBE2671:
.LBE2676:
.LBE2922:
.LBB2923:
.LBB2790:
.LBB2784:
.LBB2785:
	.loc 11 501 0
	addi 3,29,5796
	bl _ZN5idStr8FreeDataEv
.L1028:
.LBE2785:
.LBE2784:
.LBB2786:
.LBB2787:
	addi 3,29,5608
	bl _ZN5idStr8FreeDataEv
.L1030:
.LBE2787:
.LBE2786:
.LBB2788:
.LBB2789:
	addi 3,29,5576
	bl _ZN5idStr8FreeDataEv
.L1032:
.LBE2789:
.LBE2788:
.LBE2790:
.LBE2923:
.LBB2924:
.LBB2925:
	addi 3,29,4744
	bl _ZN5idStr8FreeDataEv
.L1034:
.LBE2925:
.LBE2924:
	.loc 12 242 0
	addi 3,29,4596
	bl _ZN5idPVSD1Ev
.L1036:
.LBB2926:
.LBB2927:
	.loc 15 248 0
	addis 31,28,0x23
.LVL680:
	addi 3,31,20804
.LEHB83:
	bl _ZN11idClipModelD1Ev
.LEHE83:
.L1175:
.LBE2927:
.LBE2926:
.LBB2928:
.LBB2796:
	addi 3,31,20664
	bl _ZN11idClipModelD1Ev
.L1042:
.LBE2796:
.LBE2928:
	.loc 12 242 0
	addis 31,28,0x1
	addi 3,31,-28700
	bl _ZN9idProgramD1Ev
.L1044:
.LBB2929:
.LBB2930:
	.loc 7 174 0
	addi 3,31,-28796
.LEHB84:
	bl _ZN6idDict5ClearEv
.LEHE84:
.L1046:
.LBB2931:
.LBB2932:
	.loc 8 130 0
	addi 3,31,-28780
.LEHB85:
	bl _ZN11idHashIndex4FreeEv
.LEHE85:
	b .L1056
.L1019:
.LVL681:
.L1017:
.LBE2932:
.LBE2931:
.LBE2930:
.LBE2929:
.LBB2933:
.LBB2891:
.LBB2887:
.LBB2888:
	.loc 11 501 0
	addi 3,29,5796
.LEHB86:
	bl _ZN5idStr8FreeDataEv
.LEHE86:
.L1021:
.LBE2888:
.LBE2887:
.LBB2889:
.LBB2890:
	addi 3,29,5608
.LEHB87:
	bl _ZN5idStr8FreeDataEv
.LEHE87:
	b .L1030
.LVL682:
.L1096:
	b .L1192
.LVL683:
.L1104:
.LVL684:
.L1178:
	mr 27,3
	b .L1030
.LVL685:
.L1103:
.LVL686:
.L1184:
	mr 27,3
	b .L1028
.LVL687:
.L1095:
.L1193:
.L1054:
	mr 27,3
.LBE2890:
.LBE2889:
.LBE2891:
.LBE2933:
.LBB2934:
.LBB2822:
.LBB2819:
.LBB2820:
	.loc 8 130 0
	addi 3,31,-28780
	bl _ZN11idHashIndex4FreeEv
	b .L1056
.L1098:
.L1174:
.L1040:
	mr 27,3
	b .L1175
.L1093:
	b .L1193
.L1131:
	mr 27,3
	b .L1044
.L1130:
	mr 27,3
	b .L1042
.L1097:
	b .L1174
.LVL688:
.L1129:
	mr 27,3
	b .L1036
.L1128:
	mr 27,3
	b .L1034
.L1127:
	mr 27,3
	b .L1032
.L1101:
	b .L1178
.L1100:
	b .L1184
.L1099:
	b .L1185
.L1124:
.LVL689:
.L1125:
	mr 27,3
	b .L1013
.L1123:
	mr 27,3
	b .L1008
.LVL690:
.L1106:
	b .L1190
.L1105:
	b .L1191
.LVL691:
.L1110:
	b .L1188
.L948:
.L1109:
	b .L1189
.LBE2820:
.LBE2819:
.LBE2822:
.LBE2934:
.LFE3261:
	.size	_ZN11idGameLocalD0Ev, .-_ZN11idGameLocalD0Ev
	.section	.gcc_except_table
.LLSDA3261:
	.byte	0xff
	.byte	0xff
	.byte	0x1
	.uleb128 .LLSDACSE3261-.LLSDACSB3261
.LLSDACSB3261:
	.uleb128 .LEHB53-.LFB3261
	.uleb128 .LEHE53-.LEHB53
	.uleb128 .L1113-.LFB3261
	.uleb128 0x0
	.uleb128 .LEHB54-.LFB3261
	.uleb128 .LEHE54-.LEHB54
	.uleb128 .L1109-.LFB3261
	.uleb128 0x0
	.uleb128 .LEHB55-.LFB3261
	.uleb128 .LEHE55-.LEHB55
	.uleb128 .L1110-.LFB3261
	.uleb128 0x0
	.uleb128 .LEHB56-.LFB3261
	.uleb128 .LEHE56-.LEHB56
	.uleb128 .L1105-.LFB3261
	.uleb128 0x0
	.uleb128 .LEHB57-.LFB3261
	.uleb128 .LEHE57-.LEHB57
	.uleb128 .L1106-.LFB3261
	.uleb128 0x0
	.uleb128 .LEHB58-.LFB3261
	.uleb128 .LEHE58-.LEHB58
	.uleb128 .L1123-.LFB3261
	.uleb128 0x0
	.uleb128 .LEHB59-.LFB3261
	.uleb128 .LEHE59-.LEHB59
	.uleb128 .L1125-.LFB3261
	.uleb128 0x0
	.uleb128 .LEHB60-.LFB3261
	.uleb128 .LEHE60-.LEHB60
	.uleb128 .L1099-.LFB3261
	.uleb128 0x0
	.uleb128 .LEHB61-.LFB3261
	.uleb128 .LEHE61-.LEHB61
	.uleb128 .L1100-.LFB3261
	.uleb128 0x0
	.uleb128 .LEHB62-.LFB3261
	.uleb128 .LEHE62-.LEHB62
	.uleb128 .L1101-.LFB3261
	.uleb128 0x0
	.uleb128 .LEHB63-.LFB3261
	.uleb128 .LEHE63-.LEHB63
	.uleb128 .L1127-.LFB3261
	.uleb128 0x0
	.uleb128 .LEHB64-.LFB3261
	.uleb128 .LEHE64-.LEHB64
	.uleb128 .L1128-.LFB3261
	.uleb128 0x0
	.uleb128 .LEHB65-.LFB3261
	.uleb128 .LEHE65-.LEHB65
	.uleb128 .L1129-.LFB3261
	.uleb128 0x0
	.uleb128 .LEHB66-.LFB3261
	.uleb128 .LEHE66-.LEHB66
	.uleb128 .L1097-.LFB3261
	.uleb128 0x0
	.uleb128 .LEHB67-.LFB3261
	.uleb128 .LEHE67-.LEHB67
	.uleb128 .L1130-.LFB3261
	.uleb128 0x0
	.uleb128 .LEHB68-.LFB3261
	.uleb128 .LEHE68-.LEHB68
	.uleb128 .L1131-.LFB3261
	.uleb128 0x0
	.uleb128 .LEHB69-.LFB3261
	.uleb128 .LEHE69-.LEHB69
	.uleb128 .L1093-.LFB3261
	.uleb128 0x0
	.uleb128 .LEHB70-.LFB3261
	.uleb128 .LEHE70-.LEHB70
	.uleb128 .L1094-.LFB3261
	.uleb128 0x0
	.uleb128 .LEHB71-.LFB3261
	.uleb128 .LEHE71-.LEHB71
	.uleb128 .L1135-.LFB3261
	.uleb128 0x0
	.uleb128 .LEHB72-.LFB3261
	.uleb128 .LEHE72-.LEHB72
	.uleb128 .L1136-.LFB3261
	.uleb128 0x0
	.uleb128 .LEHB73-.LFB3261
	.uleb128 .LEHE73-.LEHB73
	.uleb128 .L1137-.LFB3261
	.uleb128 0x0
	.uleb128 .LEHB74-.LFB3261
	.uleb128 .LEHE74-.LEHB74
	.uleb128 .L1138-.LFB3261
	.uleb128 0x0
	.uleb128 .LEHB75-.LFB3261
	.uleb128 .LEHE75-.LEHB75
	.uleb128 .L1111-.LFB3261
	.uleb128 0x0
	.uleb128 .LEHB76-.LFB3261
	.uleb128 .LEHE76-.LEHB76
	.uleb128 .L1112-.LFB3261
	.uleb128 0x0
	.uleb128 .LEHB77-.LFB3261
	.uleb128 .LEHE77-.LEHB77
	.uleb128 .L1107-.LFB3261
	.uleb128 0x0
	.uleb128 .LEHB78-.LFB3261
	.uleb128 .LEHE78-.LEHB78
	.uleb128 .L1108-.LFB3261
	.uleb128 0x0
	.uleb128 .LEHB79-.LFB3261
	.uleb128 .LEHE79-.LEHB79
	.uleb128 .L1102-.LFB3261
	.uleb128 0x0
	.uleb128 .LEHB80-.LFB3261
	.uleb128 .LEHE80-.LEHB80
	.uleb128 0x0
	.uleb128 0x0
	.uleb128 .LEHB81-.LFB3261
	.uleb128 .LEHE81-.LEHB81
	.uleb128 .L1091-.LFB3261
	.uleb128 0x0
	.uleb128 .LEHB82-.LFB3261
	.uleb128 .LEHE82-.LEHB82
	.uleb128 .L1092-.LFB3261
	.uleb128 0x0
	.uleb128 .LEHB83-.LFB3261
	.uleb128 .LEHE83-.LEHB83
	.uleb128 .L1098-.LFB3261
	.uleb128 0x0
	.uleb128 .LEHB84-.LFB3261
	.uleb128 .LEHE84-.LEHB84
	.uleb128 .L1095-.LFB3261
	.uleb128 0x0
	.uleb128 .LEHB85-.LFB3261
	.uleb128 .LEHE85-.LEHB85
	.uleb128 .L1096-.LFB3261
	.uleb128 0x0
	.uleb128 .LEHB86-.LFB3261
	.uleb128 .LEHE86-.LEHB86
	.uleb128 .L1103-.LFB3261
	.uleb128 0x0
	.uleb128 .LEHB87-.LFB3261
	.uleb128 .LEHE87-.LEHB87
	.uleb128 .L1104-.LFB3261
	.uleb128 0x0
.LLSDACSE3261:
	.section	.text._ZN11idGameLocalD0Ev,"axG",@progbits,_ZN11idGameLocalD0Ev,comdat
	.section	.text._ZN11idGameLocalD1Ev,"axG",@progbits,_ZN11idGameLocalD1Ev,comdat
	.align 2
	.weak	_ZN11idGameLocalD1Ev
	.type	_ZN11idGameLocalD1Ev, @function
_ZN11idGameLocalD1Ev:
.LFB3260:
	.loc 12 242 0
.LVL692:
	mflr 0
.LCFI475:
	stwu 1,-32(1)
.LCFI476:
	lis 9,_ZTV11idGameLocal+8@ha
	stw 28,16(1)
.LCFI477:
	la 9,_ZTV11idGameLocal+8@l(9)
	stw 30,24(1)
.LCFI478:
.LBB3125:
.LBB3127:
.LBB3129:
.LBB3131:
	.loc 9 185 0
	addis 30,3,0x2e
.LBE3131:
.LBE3129:
.LBE3127:
.LBE3125:
	.loc 12 242 0
	stw 27,12(1)
.LCFI479:
	mr 28,3
	stw 29,20(1)
.LCFI480:
	stw 31,28(1)
.LCFI481:
	stw 0,36(1)
.LCFI482:
	.loc 12 242 0
	stw 9,0(3)
.LBB3137:
.LBB3126:
.LBB3128:
.LBB3130:
	.loc 9 185 0
	lwz 11,23164(30)
.LVL693:
	cmpwi 7,11,0
	beq- 7,.L1200
	.loc 9 186 0
	lwz 0,-4(11)
	slwi 0,0,5
	add 31,11,0
.LVL694:
	b .L1202
.LVL695:
.L1445:
	addi 31,31,-32
.LVL696:
.LBB3132:
.LBB3133:
	.loc 11 501 0
	mr 3,31
.LVL697:
.LEHB88:
	bl _ZN5idStr8FreeDataEv
.LEHE88:
	lwz 11,23164(30)
.LVL698:
.L1202:
.LBE3133:
.LBE3132:
	.loc 9 186 0
	cmpw 7,31,11
	bne+ 7,.L1445
.LVL699:
	addi 3,31,-4
.LVL700:
	bl _ZdaPv
.LVL701:
.L1200:
	.loc 9 189 0
	li 0,0
.LBE3130:
.LBE3128:
.LBE3126:
.LBE3137:
.LBB3138:
.LBB3142:
	.loc 7 174 0
	addi 3,30,23108
.LBE3142:
.LBE3138:
.LBB3175:
.LBB3136:
.LBB3135:
.LBB3134:
	.loc 9 191 0
	stw 0,23156(30)
	.loc 9 189 0
	stw 0,23164(30)
	.loc 9 190 0
	stw 0,23152(30)
.LEHB89:
.LBE3134:
.LBE3135:
.LBE3136:
.LBE3175:
.LBB3176:
.LBB3171:
	.loc 7 174 0
	bl _ZN6idDict5ClearEv
.LEHE89:
.LVL702:
.LBB3155:
.LBB3156:
	.loc 8 130 0
	addi 3,30,23124
.LEHB90:
	bl _ZN11idHashIndex4FreeEv
.LEHE90:
.LBE3156:
.LBE3155:
.LBB3157:
.LBB3159:
.LBB3161:
.LBB3163:
	.loc 9 185 0
	lwz 3,23120(30)
	cmpwi 7,3,0
	beq- 7,.L1221
	.loc 9 186 0
	bl _ZdaPv
.L1221:
	.loc 9 189 0
	li 0,0
.LBE3163:
.LBE3161:
.LBE3159:
.LBE3157:
.LBE3171:
.LBE3176:
.LBB3177:
.LBB3178:
	.loc 12 187 0
	addi 3,30,-26072
.LBE3178:
.LBE3177:
.LBB3180:
.LBB3141:
.LBB3154:
.LBB3158:
.LBB3160:
.LBB3162:
	.loc 9 191 0
	stw 0,23112(30)
.LBE3162:
.LBE3160:
.LBE3158:
.LBE3154:
.LBE3141:
.LBE3180:
	.loc 12 242 0
	addis 29,28,0x25
.LBB3181:
.LBB3172:
.LBB3167:
.LBB3166:
.LBB3165:
.LBB3164:
	.loc 9 189 0
	stw 0,23120(30)
	.loc 9 190 0
	stw 0,23108(30)
.LBE3164:
.LBE3165:
.LBE3166:
.LBE3167:
.LBE3172:
.LBE3181:
.LBB3182:
.LBB3179:
	.loc 12 187 0
	bl _ZN12idBlockAllocI16entityNetEvent_sLi32EED1Ev
.LBE3179:
.LBE3182:
.LBB3183:
.LBB3184:
	addi 3,30,-26096
	bl _ZN12idBlockAllocI16entityNetEvent_sLi32EED1Ev
.LBE3184:
.LBE3183:
	.loc 12 242 0
	addi 3,30,-26120
	bl _ZN12idBlockAllocI10snapshot_sLi64EED1Ev
	addi 3,30,-26136
	bl _ZN12idBlockAllocI13entityState_sLi256EED1Ev
	addi 30,29,6504
	addi 0,29,22888
.LVL703:
	cmpw 7,0,30
.LVL704:
	mr 31,0
.LVL705:
	beq- 7,.L1223
.L1237:
.LBB3185:
.LBB3186:
.LBB3187:
.LBB3188:
	.loc 9 185 0
	lwz 3,-4(31)
	cmpwi 7,3,0
	beq- 7,.L1238
	.loc 9 186 0
	bl _ZdaPv
.LVL706:
.L1238:
	.loc 9 189 0
	li 0,0
.LVL707:
	.loc 9 191 0
	stw 0,-12(31)
	.loc 9 189 0
	stw 0,-4(31)
	.loc 9 190 0
	stw 0,-16(31)
	.loc 9 191 0
	addi 31,31,-16
.LBE3188:
.LBE3187:
.LBE3186:
.LBE3185:
	.loc 12 242 0
	cmpw 7,31,30
	bne+ 7,.L1237
.L1244:
.LVL708:
.L1223:
.LBB3189:
.LBB3193:
	.loc 7 174 0
	addi 3,29,6420
.LEHB91:
	bl _ZN6idDict5ClearEv
.LEHE91:
.LVL709:
.LBB3206:
.LBB3207:
	.loc 8 130 0
	addi 3,29,6436
.LEHB92:
	bl _ZN11idHashIndex4FreeEv
.LEHE92:
.LBE3207:
.LBE3206:
.LBB3208:
.LBB3210:
.LBB3212:
.LBB3214:
	.loc 9 185 0
	lwz 3,6432(29)
	cmpwi 7,3,0
	beq- 7,.L1255
	.loc 9 186 0
	bl _ZdaPv
.L1255:
.LBE3214:
.LBE3212:
.LBE3210:
.LBE3208:
.LBE3193:
.LBE3189:
.LBB3225:
.LBB3228:
.LBB3231:
.LBB3234:
	.loc 9 185 0
	lwz 9,6408(29)
.LVL710:
.LBE3234:
.LBE3231:
.LBE3228:
.LBE3225:
.LBB3243:
.LBB3192:
.LBB3205:
.LBB3209:
.LBB3211:
.LBB3213:
	.loc 9 189 0
	li 0,0
	.loc 9 191 0
	stw 0,6424(29)
.LBE3213:
.LBE3211:
.LBE3209:
.LBE3205:
.LBE3192:
.LBE3243:
.LBB3244:
.LBB3227:
.LBB3230:
.LBB3233:
	.loc 9 185 0
	cmpwi 7,9,0
.LBE3233:
.LBE3230:
.LBE3227:
.LBE3244:
.LBB3245:
.LBB3222:
.LBB3218:
.LBB3217:
.LBB3216:
.LBB3215:
	.loc 9 189 0
	stw 0,6432(29)
	.loc 9 190 0
	stw 0,6420(29)
.LBE3215:
.LBE3216:
.LBE3217:
.LBE3218:
.LBE3222:
.LBE3245:
.LBB3246:
.LBB3241:
.LBB3239:
.LBB3237:
	.loc 9 185 0
	beq- 7,.L1258
	.loc 9 186 0
	lwz 0,-4(9)
	slwi 0,0,5
	add 31,9,0
.LVL711:
	b .L1265
.LVL712:
.L1446:
	addi 31,31,-32
.LVL713:
.LBB3235:
.LBB3236:
	.loc 11 501 0
	mr 3,31
.LEHB93:
	bl _ZN5idStr8FreeDataEv
.LEHE93:
	lwz 9,6408(29)
.LVL714:
.L1265:
.LBE3236:
.LBE3235:
	.loc 9 186 0
	cmpw 7,31,9
	bne+ 7,.L1446
	addi 3,31,-4
	bl _ZdaPv
.LVL715:
.L1258:
.LBE3237:
.LBE3239:
.LBE3241:
.LBE3246:
.LBB3247:
.LBB3249:
.LBB3251:
.LBB3253:
	.loc 9 185 0
	lwz 3,6392(29)
.LBE3253:
.LBE3251:
.LBE3249:
.LBE3247:
.LBB3260:
.LBB3226:
.LBB3229:
.LBB3232:
	.loc 9 189 0
	li 0,0
	.loc 9 191 0
	stw 0,6400(29)
.LBE3232:
.LBE3229:
.LBE3226:
.LBE3260:
.LBB3261:
.LBB3258:
.LBB3256:
.LBB3254:
	.loc 9 185 0
	cmpwi 7,3,0
.LBE3254:
.LBE3256:
.LBE3258:
.LBE3261:
.LBB3262:
.LBB3242:
.LBB3240:
.LBB3238:
	.loc 9 189 0
	stw 0,6408(29)
	.loc 9 190 0
	stw 0,6396(29)
.LBE3238:
.LBE3240:
.LBE3242:
.LBE3262:
.LBB3263:
.LBB3248:
.LBB3250:
.LBB3252:
	.loc 9 185 0
	beq- 7,.L1270
	.loc 9 186 0
	bl _ZdaPv
.LVL716:
.L1270:
	.loc 9 189 0
	li 0,0
.LBE3252:
.LBE3250:
.LBE3248:
.LBE3263:
.LBB3264:
.LBB3265:
	.loc 11 501 0
	addi 3,29,6320
.LBE3265:
.LBE3264:
.LBB3267:
.LBB3259:
.LBB3257:
.LBB3255:
	.loc 9 191 0
	stw 0,6384(29)
	.loc 9 189 0
	stw 0,6392(29)
	.loc 9 190 0
	stw 0,6380(29)
.LEHB94:
.LBE3255:
.LBE3257:
.LBE3259:
.LBE3267:
.LBB3268:
.LBB3266:
	.loc 11 501 0
	bl _ZN5idStr8FreeDataEv
.LEHE94:
.LBE3266:
.LBE3268:
	.loc 12 242 0
	addi 3,29,6280
.LBB3269:
.LBB3271:
	.loc 14 95 0
	addi 31,29,6048
.LVL717:
.LBE3271:
.LBE3269:
	.loc 12 242 0
	bl _ZN10idLinkListI8idEntityED1Ev
.LBB3289:
.LBB3270:
	.loc 14 95 0
	addi 30,29,5868
	b .L1277
.L1447:
	addi 31,31,-36
.LBB3278:
.LBB3279:
.LBB3280:
.LBB3281:
	.loc 11 501 0
	mr 3,31
.LEHB95:
	bl _ZN5idStr8FreeDataEv
.LEHE95:
.L1286:
.L1277:
.LBE3281:
.LBE3280:
.LBE3279:
.LBE3278:
	.loc 14 95 0
	cmpw 7,31,30
	bne+ 7,.L1447
.LBB3276:
.LBB3277:
	.loc 11 501 0
	addi 3,29,5796
.LEHB96:
	bl _ZN5idStr8FreeDataEv
.LEHE96:
.LBE3277:
.LBE3276:
.LBB3274:
.LBB3275:
	addi 3,29,5608
.LEHB97:
	bl _ZN5idStr8FreeDataEv
.LEHE97:
.LBE3275:
.LBE3274:
.LBB3272:
.LBB3273:
	addi 3,29,5576
.LEHB98:
	bl _ZN5idStr8FreeDataEv
.LEHE98:
.LBE3273:
.LBE3272:
.LBE3270:
.LBE3289:
.LBB3290:
.LBB3291:
	addi 3,29,4744
.LEHB99:
	bl _ZN5idStr8FreeDataEv
.LEHE99:
.LBE3291:
.LBE3290:
	.loc 12 242 0
	addi 3,29,4596
.LEHB100:
	bl _ZN5idPVSD1Ev
.LEHE100:
.L1301:
.LBB3292:
.LBB3293:
	.loc 15 248 0
	addis 31,28,0x23
.LVL718:
	addi 3,31,20804
.LEHB101:
	bl _ZN11idClipModelD1Ev
.LEHE101:
	addi 3,31,20664
.LEHB102:
	bl _ZN11idClipModelD1Ev
.LEHE102:
.LBE3293:
.LBE3292:
	.loc 12 242 0
	addis 31,28,0x1
	addi 3,31,-28700
.LEHB103:
	bl _ZN9idProgramD1Ev
.LEHE103:
.L1311:
.LBB3295:
.LBB3298:
	.loc 7 174 0
	addi 3,31,-28796
.LEHB104:
	bl _ZN6idDict5ClearEv
.LEHE104:
.LBB3301:
.LBB3302:
	.loc 8 130 0
	addi 3,31,-28780
.LEHB105:
	bl _ZN11idHashIndex4FreeEv
.LEHE105:
.LBE3302:
.LBE3301:
.LBB3303:
.LBB3304:
.LBB3305:
.LBB3306:
	.loc 9 185 0
	lwz 3,-28784(31)
	cmpwi 7,3,0
	beq- 7,.L1322
	.loc 9 186 0
	bl _ZdaPv
.L1322:
	.loc 9 189 0
	li 0,0
.LBE3306:
.LBE3305:
.LBE3304:
.LBE3303:
.LBE3298:
.LBE3295:
	.loc 12 242 0
	addi 3,31,-28820
.LBB3321:
.LBB3297:
.LBB3300:
.LBB3309:
.LBB3308:
.LBB3307:
	.loc 9 191 0
	stw 0,-28792(31)
	.loc 9 189 0
	stw 0,-28784(31)
	.loc 9 190 0
	stw 0,-28796(31)
.LBE3307:
.LBE3308:
.LBE3309:
.LBE3300:
.LBE3297:
.LBE3321:
	.loc 12 242 0
	bl _ZN10idLinkListI8idEntityED1Ev
	addi 3,31,-28836
	bl _ZN10idLinkListI8idEntityED1Ev
.LBB3322:
.LBB3323:
	.loc 8 130 0
	addi 3,31,-28868
.LEHB106:
	bl _ZN11idHashIndex4FreeEv
.LEHE106:
.LBE3323:
.LBE3322:
	.loc 12 242 0
	addi 31,28,3892
	addi 30,28,2484
	b .L1331
.L1448:
	addi 31,31,-44
	mr 3,31
.LEHB107:
	bl _ZN6idDictD1Ev
.LEHE107:
.L1331:
	cmpw 7,31,30
	bne+ 7,.L1448
	addi 31,28,1460
	addi 30,28,52
	b .L1337
.L1449:
	addi 31,31,-44
	mr 3,31
.LEHB108:
	bl _ZN6idDictD1Ev
.LEHE108:
.L1337:
	cmpw 7,31,30
	bne+ 7,.L1449
	addi 3,28,4
.LEHB109:
	bl _ZN6idDictD1Ev
.LEHE109:
.LBB3324:
.LBB3325:
	.loc 5 74 0
	lis 9,_ZTV6idGame+8@ha
	la 9,_ZTV6idGame+8@l(9)
	stw 9,0(28)
.LBE3325:
.LBE3324:
	.loc 12 242 0
	lwz 0,36(1)
	lwz 27,12(1)
	lwz 28,16(1)
.LVL719:
	mtlr 0
	lwz 29,20(1)
	lwz 30,24(1)
	lwz 31,28(1)
	addi 1,1,32
	blr
.LVL720:
.L1366:
.L1207:
	mr 27,3
.LBB3326:
.LBB3327:
	.loc 7 174 0
	addi 3,30,23108
.LEHB110:
	bl _ZN6idDict5ClearEv
.LEHE110:
.L1209:
.LBB3328:
.LBB3329:
	.loc 8 130 0
	addi 3,30,23124
.LEHB111:
	bl _ZN11idHashIndex4FreeEv
.LEHE111:
.L1218:
.LBE3329:
.LBE3328:
.LBE3327:
.LBE3326:
.LBB3330:
.LBB3140:
.LBB3144:
.LBB3146:
.LBB3148:
.LBB3150:
	.loc 9 185 0
	lwz 3,23120(30)
	cmpwi 7,3,0
	beq- 7,.L1219
	.loc 9 186 0
	bl _ZdaPv
.L1367:
.L1219:
.L1225:
.L1368:
.L1226:
.L1369:
.L1227:
.L1370:
.L1228:
.L1371:
.L1229:
.L1372:
.L1230:
.L1373:
.L1231:
	.loc 9 189 0
	li 0,0
.LBE3150:
.LBE3148:
.LBE3146:
.LBE3144:
.LBE3140:
.LBE3330:
.LBB3331:
.LBB3332:
	.loc 12 187 0
	addi 3,30,-26072
.LBE3332:
.LBE3331:
.LBB3334:
.LBB3173:
.LBB3168:
.LBB3145:
.LBB3147:
.LBB3149:
	.loc 9 191 0
	stw 0,23112(30)
.LBE3149:
.LBE3147:
.LBE3145:
.LBE3168:
.LBE3173:
.LBE3334:
	.loc 12 242 0
	addis 29,28,0x25
.LBB3335:
.LBB3139:
.LBB3143:
.LBB3153:
.LBB3152:
.LBB3151:
	.loc 9 189 0
	stw 0,23120(30)
	.loc 9 190 0
	stw 0,23108(30)
.LBE3151:
.LBE3152:
.LBE3153:
.LBE3143:
.LBE3139:
.LBE3335:
.LBB3336:
.LBB3333:
	.loc 12 187 0
	bl _ZN12idBlockAllocI16entityNetEvent_sLi32EED1Ev
.LBE3333:
.LBE3336:
.LBB3337:
.LBB3338:
	addi 3,30,-26096
	bl _ZN12idBlockAllocI16entityNetEvent_sLi32EED1Ev
.LBE3338:
.LBE3337:
	.loc 12 242 0
	addi 3,30,-26120
	bl _ZN12idBlockAllocI10snapshot_sLi64EED1Ev
	addi 3,30,-26136
	bl _ZN12idBlockAllocI13entityState_sLi256EED1Ev
	addi 30,29,6504
	addi 0,29,22888
.LVL721:
	cmpw 7,0,30
	beq- 7,.L1232
	mr 31,0
.LVL722:
.L1234:
.LBB3339:
.LBB3340:
.LBB3341:
.LBB3342:
	.loc 9 185 0
	lwz 3,-4(31)
	cmpwi 7,3,0
	beq- 7,.L1235
	.loc 9 186 0
	bl _ZdaPv
.LVL723:
.L1235:
	.loc 9 189 0
	li 0,0
.LVL724:
	.loc 9 191 0
	stw 0,-12(31)
	.loc 9 189 0
	stw 0,-4(31)
	.loc 9 190 0
	stw 0,-16(31)
	.loc 9 191 0
	addi 31,31,-16
.LBE3342:
.LBE3341:
.LBE3340:
.LBE3339:
	.loc 12 242 0
	cmpw 7,31,30
	bne+ 7,.L1234
.L1374:
.LVL725:
.L1232:
.L1240:
.LBB3343:
.LBB3344:
	.loc 7 174 0
	addi 3,29,6420
.LEHB112:
	bl _ZN6idDict5ClearEv
.LEHE112:
.LVL726:
.L1242:
.LBB3345:
.LBB3346:
	.loc 8 130 0
	addi 3,29,6436
.LEHB113:
	bl _ZN11idHashIndex4FreeEv
.LEHE113:
.L1252:
.LBE3346:
.LBE3345:
.LBE3344:
.LBE3343:
.LBB3347:
.LBB3191:
.LBB3195:
.LBB3197:
.LBB3199:
.LBB3201:
	.loc 9 185 0
	lwz 3,6432(29)
	cmpwi 7,3,0
	beq- 7,.L1253
	.loc 9 186 0
	bl _ZdaPv
.L1375:
.L1253:
.L1259:
.LBE3201:
.LBE3199:
.LBE3197:
.LBE3195:
.LBE3191:
.LBE3347:
.LBB3348:
.LBB3350:
.LBB3352:
.LBB3354:
	.loc 9 185 0
	lwz 9,6408(29)
.LBE3354:
.LBE3352:
.LBE3350:
.LBE3348:
.LBB3360:
.LBB3223:
.LBB3219:
.LBB3196:
.LBB3198:
.LBB3200:
	.loc 9 189 0
	li 0,0
	.loc 9 191 0
	stw 0,6424(29)
.LBE3200:
.LBE3198:
.LBE3196:
.LBE3219:
.LBE3223:
.LBE3360:
.LBB3361:
.LBB3349:
.LBB3351:
.LBB3353:
	.loc 9 185 0
	cmpwi 7,9,0
.LBE3353:
.LBE3351:
.LBE3349:
.LBE3361:
.LBB3362:
.LBB3190:
.LBB3194:
.LBB3204:
.LBB3203:
.LBB3202:
	.loc 9 189 0
	stw 0,6432(29)
	.loc 9 190 0
	stw 0,6420(29)
.LBE3202:
.LBE3203:
.LBE3204:
.LBE3194:
.LBE3190:
.LBE3362:
.LBB3363:
.LBB3359:
.LBB3358:
.LBB3357:
	.loc 9 185 0
	beq- 7,.L1260
	.loc 9 186 0
	lwz 0,-4(9)
	slwi 0,0,5
	add 3,9,0
.LVL727:
	cmpw 7,9,3
	beq- 7,.L1262
	mr 31,3
.LVL728:
.L1264:
	addi 31,31,-32
.LBB3355:
.LBB3356:
	.loc 11 501 0
	mr 3,31
	bl _ZN5idStr8FreeDataEv
.LBE3356:
.LBE3355:
	.loc 9 186 0
	lwz 3,6408(29)
.LVL729:
	cmpw 7,3,31
	bne+ 7,.L1264
.LVL730:
.L1262:
	addi 3,3,-4
.LVL731:
	bl _ZdaPv
.L1260:
	.loc 9 189 0
	li 0,0
	.loc 9 191 0
	stw 0,6400(29)
	.loc 9 189 0
	stw 0,6408(29)
	.loc 9 190 0
	stw 0,6396(29)
.LVL732:
.L1271:
.LBE3357:
.LBE3358:
.LBE3359:
.LBE3363:
.LBB3364:
.LBB3365:
.LBB3366:
.LBB3367:
	.loc 9 185 0
	lwz 3,6392(29)
	cmpwi 7,3,0
	beq- 7,.L1272
	.loc 9 186 0
	bl _ZdaPv
.L1272:
.L1275:
	.loc 9 189 0
	li 0,0
.LBE3367:
.LBE3366:
.LBE3365:
.LBE3364:
.LBB3371:
.LBB3372:
	.loc 11 501 0
	addi 3,29,6320
.LBE3372:
.LBE3371:
.LBB3374:
.LBB3370:
.LBB3369:
.LBB3368:
	.loc 9 191 0
	stw 0,6384(29)
	.loc 9 189 0
	stw 0,6392(29)
	.loc 9 190 0
	stw 0,6380(29)
.LBE3368:
.LBE3369:
.LBE3370:
.LBE3374:
.LBB3375:
.LBB3373:
	.loc 11 501 0
	bl _ZN5idStr8FreeDataEv
.L1379:
.L1276:
.L1278:
.LBE3373:
.LBE3375:
	.loc 12 242 0
	addi 3,29,6280
.LBB3376:
.LBB3378:
	.loc 14 95 0
	addi 31,29,6048
.LVL733:
.LBE3378:
.LBE3376:
	.loc 12 242 0
	bl _ZN10idLinkListI8idEntityED1Ev
.LBB3388:
.LBB3377:
	.loc 14 95 0
	addi 30,29,5868
.L1279:
	cmpw 7,31,30
	beq- 7,.L1280
	addi 31,31,-36
.LBB3379:
.LBB3380:
.LBB3381:
.LBB3382:
	.loc 11 501 0
	mr 3,31
.LEHB114:
	bl _ZN5idStr8FreeDataEv
.LEHE114:
	b .L1279
.LVL734:
.L1361:
.L1441:
	mr 27,3
	b .L1252
.L1360:
.L1442:
.L1250:
	mr 27,3
.LBE3382:
.LBE3381:
.LBE3380:
.LBE3379:
.LBE3377:
.LBE3388:
.LBB3389:
.LBB3224:
.LBB3220:
.LBB3221:
	.loc 8 130 0
	addi 3,29,6436
	bl _ZN11idHashIndex4FreeEv
	b .L1252
.L1365:
.L1439:
	mr 27,3
	b .L1218
.LVL735:
.L1390:
	mr 27,3
.L1340:
.LBE3221:
.LBE3220:
.LBE3224:
.LBE3389:
	.loc 12 242 0
	addi 3,28,4
	bl _ZN6idDictD1Ev
.L1342:
.LBB3390:
.LBB3391:
	.loc 5 74 0
	lis 9,_ZTV6idGame+8@ha
	mr 3,27
	la 9,_ZTV6idGame+8@l(9)
	stw 9,0(28)
.LEHB115:
	bl _Unwind_Resume
.LEHE115:
.L1389:
	mr 27,3
.L1334:
.LBE3391:
.LBE3390:
	.loc 12 242 0
	addi 30,28,52
	addi 31,28,1460
	cmpw 7,31,30
	beq- 7,.L1340
.L1393:
	addi 31,31,-44
	mr 3,31
	bl _ZN6idDictD1Ev
	cmpw 7,31,30
	bne+ 7,.L1393
	b .L1340
.L1385:
.L1388:
	mr 27,3
.L1328:
	addi 30,28,2484
	addi 31,28,3892
	cmpw 7,31,30
	beq- 7,.L1334
.L1392:
	addi 31,31,-44
	mr 3,31
	bl _ZN6idDictD1Ev
	cmpw 7,31,30
	bne+ 7,.L1392
	b .L1334
.L1347:
.L1443:
	mr 27,3
.L1319:
.LBB3392:
.LBB3319:
.LBB3310:
.LBB3311:
.LBB3312:
.LBB3313:
	.loc 9 185 0
	lwz 3,-28784(31)
	cmpwi 7,3,0
	beq- 7,.L1320
	.loc 9 186 0
	bl _ZdaPv
.L1320:
.L1325:
.L1386:
.L1326:
.L1387:
.L1327:
	.loc 9 189 0
	li 0,0
.LBE3313:
.LBE3312:
.LBE3311:
.LBE3310:
.LBE3319:
.LBE3392:
	.loc 12 242 0
	addi 3,31,-28820
.LBB3393:
.LBB3296:
.LBB3299:
.LBB3316:
.LBB3315:
.LBB3314:
	.loc 9 191 0
	stw 0,-28792(31)
	.loc 9 189 0
	stw 0,-28784(31)
	.loc 9 190 0
	stw 0,-28796(31)
.LBE3314:
.LBE3315:
.LBE3316:
.LBE3299:
.LBE3296:
.LBE3393:
	.loc 12 242 0
	bl _ZN10idLinkListI8idEntityED1Ev
	addi 3,31,-28836
	bl _ZN10idLinkListI8idEntityED1Ev
.LBB3394:
.LBB3395:
	.loc 8 130 0
	addi 3,31,-28868
	bl _ZN11idHashIndex4FreeEv
	b .L1328
.LVL736:
.L1364:
.L1440:
.L1216:
	mr 27,3
.LBE3395:
.LBE3394:
.LBB3396:
.LBB3174:
.LBB3169:
.LBB3170:
	addi 3,30,23124
	bl _ZN11idHashIndex4FreeEv
	b .L1218
.LVL737:
.L1391:
	mr 27,3
	b .L1342
.LVL738:
.L1355:
.LVL739:
.L1436:
.L1289:
	mr 27,3
.LBE3170:
.LBE3169:
.LBE3174:
.LBE3396:
.LBB3397:
.LBB3288:
.LBB3282:
.LBB3283:
	.loc 11 501 0
	addi 3,29,5796
	bl _ZN5idStr8FreeDataEv
.L1291:
.LBE3283:
.LBE3282:
.LBB3284:
.LBB3285:
	addi 3,29,5608
	bl _ZN5idStr8FreeDataEv
.L1293:
.LBE3285:
.LBE3284:
.LBB3286:
.LBB3287:
	addi 3,29,5576
	bl _ZN5idStr8FreeDataEv
.L1295:
.LBE3287:
.LBE3286:
.LBE3288:
.LBE3397:
.LBB3398:
.LBB3399:
	addi 3,29,4744
	bl _ZN5idStr8FreeDataEv
.L1297:
.LBE3399:
.LBE3398:
	.loc 12 242 0
	addi 3,29,4596
	bl _ZN5idPVSD1Ev
.L1299:
.LBB3400:
.LBB3401:
	.loc 15 248 0
	addis 31,28,0x23
.LVL740:
	addi 3,31,20804
.LEHB116:
	bl _ZN11idClipModelD1Ev
.LEHE116:
.L1426:
.LBE3401:
.LBE3400:
.LBB3402:
.LBB3294:
	addi 3,31,20664
	bl _ZN11idClipModelD1Ev
.L1305:
.LBE3294:
.LBE3402:
	.loc 12 242 0
	addis 31,28,0x1
	addi 3,31,-28700
	bl _ZN9idProgramD1Ev
.L1307:
.LBB3403:
.LBB3404:
	.loc 7 174 0
	addi 3,31,-28796
.LEHB117:
	bl _ZN6idDict5ClearEv
.LEHE117:
.L1309:
.LBB3405:
.LBB3406:
	.loc 8 130 0
	addi 3,31,-28780
.LEHB118:
	bl _ZN11idHashIndex4FreeEv
.LEHE118:
	b .L1319
.L1282:
.LVL741:
.L1280:
.LBE3406:
.LBE3405:
.LBE3404:
.LBE3403:
.LBB3407:
.LBB3387:
.LBB3383:
.LBB3384:
	.loc 11 501 0
	addi 3,29,5796
.LEHB119:
	bl _ZN5idStr8FreeDataEv
.LEHE119:
.L1284:
.LBE3384:
.LBE3383:
.LBB3385:
.LBB3386:
	addi 3,29,5608
.LEHB120:
	bl _ZN5idStr8FreeDataEv
.LEHE120:
	b .L1293
.LVL742:
.L1349:
	b .L1443
.LVL743:
.L1357:
.LVL744:
.L1429:
	mr 27,3
	b .L1293
.LVL745:
.L1356:
.LVL746:
.L1435:
	mr 27,3
	b .L1291
.LVL747:
.L1348:
.L1444:
.L1317:
	mr 27,3
.LBE3386:
.LBE3385:
.LBE3387:
.LBE3407:
.LBB3408:
.LBB3320:
.LBB3317:
.LBB3318:
	.loc 8 130 0
	addi 3,31,-28780
	bl _ZN11idHashIndex4FreeEv
	b .L1319
.L1351:
.L1425:
.L1303:
	mr 27,3
	b .L1426
.L1346:
	b .L1444
.L1384:
	mr 27,3
	b .L1307
.L1383:
	mr 27,3
	b .L1305
.L1350:
	b .L1425
.LVL748:
.L1382:
	mr 27,3
	b .L1299
.L1381:
	mr 27,3
	b .L1297
.L1380:
	mr 27,3
	b .L1295
.L1354:
	b .L1429
.L1353:
	b .L1435
.L1352:
	b .L1436
.L1377:
.LVL749:
.L1378:
	mr 27,3
	b .L1276
.L1376:
	mr 27,3
	b .L1271
.LVL750:
.L1359:
	b .L1441
.L1358:
	b .L1442
.LVL751:
.L1363:
	b .L1439
.L1211:
.L1362:
	b .L1440
.LBE3318:
.LBE3317:
.LBE3320:
.LBE3408:
.LFE3260:
	.size	_ZN11idGameLocalD1Ev, .-_ZN11idGameLocalD1Ev
	.section	.gcc_except_table
.LLSDA3260:
	.byte	0xff
	.byte	0xff
	.byte	0x1
	.uleb128 .LLSDACSE3260-.LLSDACSB3260
.LLSDACSB3260:
	.uleb128 .LEHB88-.LFB3260
	.uleb128 .LEHE88-.LEHB88
	.uleb128 .L1366-.LFB3260
	.uleb128 0x0
	.uleb128 .LEHB89-.LFB3260
	.uleb128 .LEHE89-.LEHB89
	.uleb128 .L1362-.LFB3260
	.uleb128 0x0
	.uleb128 .LEHB90-.LFB3260
	.uleb128 .LEHE90-.LEHB90
	.uleb128 .L1363-.LFB3260
	.uleb128 0x0
	.uleb128 .LEHB91-.LFB3260
	.uleb128 .LEHE91-.LEHB91
	.uleb128 .L1358-.LFB3260
	.uleb128 0x0
	.uleb128 .LEHB92-.LFB3260
	.uleb128 .LEHE92-.LEHB92
	.uleb128 .L1359-.LFB3260
	.uleb128 0x0
	.uleb128 .LEHB93-.LFB3260
	.uleb128 .LEHE93-.LEHB93
	.uleb128 .L1376-.LFB3260
	.uleb128 0x0
	.uleb128 .LEHB94-.LFB3260
	.uleb128 .LEHE94-.LEHB94
	.uleb128 .L1378-.LFB3260
	.uleb128 0x0
	.uleb128 .LEHB95-.LFB3260
	.uleb128 .LEHE95-.LEHB95
	.uleb128 .L1352-.LFB3260
	.uleb128 0x0
	.uleb128 .LEHB96-.LFB3260
	.uleb128 .LEHE96-.LEHB96
	.uleb128 .L1353-.LFB3260
	.uleb128 0x0
	.uleb128 .LEHB97-.LFB3260
	.uleb128 .LEHE97-.LEHB97
	.uleb128 .L1354-.LFB3260
	.uleb128 0x0
	.uleb128 .LEHB98-.LFB3260
	.uleb128 .LEHE98-.LEHB98
	.uleb128 .L1380-.LFB3260
	.uleb128 0x0
	.uleb128 .LEHB99-.LFB3260
	.uleb128 .LEHE99-.LEHB99
	.uleb128 .L1381-.LFB3260
	.uleb128 0x0
	.uleb128 .LEHB100-.LFB3260
	.uleb128 .LEHE100-.LEHB100
	.uleb128 .L1382-.LFB3260
	.uleb128 0x0
	.uleb128 .LEHB101-.LFB3260
	.uleb128 .LEHE101-.LEHB101
	.uleb128 .L1350-.LFB3260
	.uleb128 0x0
	.uleb128 .LEHB102-.LFB3260
	.uleb128 .LEHE102-.LEHB102
	.uleb128 .L1383-.LFB3260
	.uleb128 0x0
	.uleb128 .LEHB103-.LFB3260
	.uleb128 .LEHE103-.LEHB103
	.uleb128 .L1384-.LFB3260
	.uleb128 0x0
	.uleb128 .LEHB104-.LFB3260
	.uleb128 .LEHE104-.LEHB104
	.uleb128 .L1346-.LFB3260
	.uleb128 0x0
	.uleb128 .LEHB105-.LFB3260
	.uleb128 .LEHE105-.LEHB105
	.uleb128 .L1347-.LFB3260
	.uleb128 0x0
	.uleb128 .LEHB106-.LFB3260
	.uleb128 .LEHE106-.LEHB106
	.uleb128 .L1388-.LFB3260
	.uleb128 0x0
	.uleb128 .LEHB107-.LFB3260
	.uleb128 .LEHE107-.LEHB107
	.uleb128 .L1389-.LFB3260
	.uleb128 0x0
	.uleb128 .LEHB108-.LFB3260
	.uleb128 .LEHE108-.LEHB108
	.uleb128 .L1390-.LFB3260
	.uleb128 0x0
	.uleb128 .LEHB109-.LFB3260
	.uleb128 .LEHE109-.LEHB109
	.uleb128 .L1391-.LFB3260
	.uleb128 0x0
	.uleb128 .LEHB110-.LFB3260
	.uleb128 .LEHE110-.LEHB110
	.uleb128 .L1364-.LFB3260
	.uleb128 0x0
	.uleb128 .LEHB111-.LFB3260
	.uleb128 .LEHE111-.LEHB111
	.uleb128 .L1365-.LFB3260
	.uleb128 0x0
	.uleb128 .LEHB112-.LFB3260
	.uleb128 .LEHE112-.LEHB112
	.uleb128 .L1360-.LFB3260
	.uleb128 0x0
	.uleb128 .LEHB113-.LFB3260
	.uleb128 .LEHE113-.LEHB113
	.uleb128 .L1361-.LFB3260
	.uleb128 0x0
	.uleb128 .LEHB114-.LFB3260
	.uleb128 .LEHE114-.LEHB114
	.uleb128 .L1355-.LFB3260
	.uleb128 0x0
	.uleb128 .LEHB115-.LFB3260
	.uleb128 .LEHE115-.LEHB115
	.uleb128 0x0
	.uleb128 0x0
	.uleb128 .LEHB116-.LFB3260
	.uleb128 .LEHE116-.LEHB116
	.uleb128 .L1351-.LFB3260
	.uleb128 0x0
	.uleb128 .LEHB117-.LFB3260
	.uleb128 .LEHE117-.LEHB117
	.uleb128 .L1348-.LFB3260
	.uleb128 0x0
	.uleb128 .LEHB118-.LFB3260
	.uleb128 .LEHE118-.LEHB118
	.uleb128 .L1349-.LFB3260
	.uleb128 0x0
	.uleb128 .LEHB119-.LFB3260
	.uleb128 .LEHE119-.LEHB119
	.uleb128 .L1356-.LFB3260
	.uleb128 0x0
	.uleb128 .LEHB120-.LFB3260
	.uleb128 .LEHE120-.LEHB120
	.uleb128 .L1357-.LFB3260
	.uleb128 0x0
.LLSDACSE3260:
	.section	.text._ZN11idGameLocalD1Ev,"axG",@progbits,_ZN11idGameLocalD1Ev,comdat
	.section	".text"
	.align 2
	.type	__tcf_1, @function
__tcf_1:
.LFB3257:
	.loc 2 64 0
	mflr 0
.LCFI483:
	lis 3,.LANCHOR0@ha
	stwu 1,-8(1)
.LCFI484:
	la 3,.LANCHOR0@l(3)
	addi 3,3,60
	stw 0,12(1)
.LCFI485:
	.loc 2 64 0
	bl _ZN11idGameLocalD1Ev
	lwz 0,12(1)
	addi 1,1,8
	mtlr 0
	blr
.LFE3257:
	.size	__tcf_1, .-__tcf_1
	.globl gameRenderWorld
	.globl gameSoundWorld
	.globl animationLib
	.globl gameLocal
	.globl game
	.globl _ZN11idGameLocal15sufaceTypeNamesE
	.weak	_ZTV11idGameLocal
	.section	.rodata._ZTV11idGameLocal,"aG",@progbits,_ZTV11idGameLocal,comdat
	.align 3
	.type	_ZTV11idGameLocal, @object
	.size	_ZTV11idGameLocal, 176
_ZTV11idGameLocal:
	.long	0
	.long	_ZTI11idGameLocal
	.long	_ZN11idGameLocalD1Ev
	.long	_ZN11idGameLocalD0Ev
	.long	_ZN11idGameLocal4InitEv
	.long	_ZN11idGameLocal8ShutdownEv
	.long	_ZN11idGameLocal14SetLocalClientEi
	.long	_ZN11idGameLocal11SetUserInfoEiRK6idDictbb
	.long	_ZN11idGameLocal11GetUserInfoEi
	.long	_ZN11idGameLocal16ThrottleUserInfoEv
	.long	_ZN11idGameLocal13SetServerInfoERK6idDict
	.long	_ZN11idGameLocal23GetPersistentPlayerInfoEi
	.long	_ZN11idGameLocal23SetPersistentPlayerInfoEiRK6idDict
	.long	_ZN11idGameLocal14InitFromNewMapEPKcP13idRenderWorldP12idSoundWorldbbi
	.long	_ZN11idGameLocal16InitFromSaveGameEPKcP13idRenderWorldP12idSoundWorldP6idFile
	.long	_ZN11idGameLocal8SaveGameEP6idFile
	.long	_ZN11idGameLocal11MapShutdownEv
	.long	_ZN11idGameLocal20CacheDictionaryMediaEPK6idDict
	.long	_ZN11idGameLocal11SpawnPlayerEi
	.long	_ZN11idGameLocal8RunFrameEPK9usercmd_t
	.long	_ZN11idGameLocal4DrawEi
	.long	_ZN11idGameLocal9HandleESCEPP15idUserInterface
	.long	_ZN11idGameLocal9StartMenuEv
	.long	_ZN11idGameLocal17HandleGuiCommandsEPKc
	.long	_ZN11idGameLocal22HandleMainMenuCommandsEPKcP15idUserInterface
	.long	_ZN11idGameLocal17ServerAllowClientEiPKcS1_S1_Pc
	.long	_ZN11idGameLocal19ServerClientConnectEiPKc
	.long	_ZN11idGameLocal17ServerClientBeginEi
	.long	_ZN11idGameLocal22ServerClientDisconnectEi
	.long	_ZN11idGameLocal34ServerWriteInitialReliableMessagesEi
	.long	_ZN11idGameLocal19ServerWriteSnapshotEiiR8idBitMsgPhi
	.long	_ZN11idGameLocal19ServerApplySnapshotEii
	.long	_ZN11idGameLocal28ServerProcessReliableMessageEiRK8idBitMsg
	.long	_ZN11idGameLocal18ClientReadSnapshotEiiiiiiRK8idBitMsg
	.long	_ZN11idGameLocal19ClientApplySnapshotEii
	.long	_ZN11idGameLocal28ClientProcessReliableMessageEiRK8idBitMsg
	.long	_ZN11idGameLocal16ClientPredictionEiPK9usercmd_tb
	.long	_ZN11idGameLocal15SelectTimeGroupEi
	.long	_ZN11idGameLocal16GetTimeGroupTimeEi
	.long	_ZN11idGameLocal15GetBestGameTypeEPKcS1_Pc
	.long	_ZN11idGameLocal14GetClientStatsEiPci
	.long	_ZN11idGameLocal10SwitchTeamEii
	.long	_ZN11idGameLocal15DownloadRequestEPKcS1_S1_Pc
	.long	_ZN11idGameLocal16GetMapLoadingGUIEPc
	.weak	_ZTV14idFixedWinding
	.section	.rodata._ZTV14idFixedWinding,"aG",@progbits,_ZTV14idFixedWinding,comdat
	.align 3
	.type	_ZTV14idFixedWinding, @object
	.size	_ZTV14idFixedWinding, 24
_ZTV14idFixedWinding:
	.long	0
	.long	_ZTI14idFixedWinding
	.long	_ZN14idFixedWindingD1Ev
	.long	_ZN14idFixedWindingD0Ev
	.long	_ZN14idFixedWinding5ClearEv
	.long	_ZN14idFixedWinding10ReAllocateEib
	.weak	_ZTV9idWinding
	.section	.rodata._ZTV9idWinding,"aG",@progbits,_ZTV9idWinding,comdat
	.align 3
	.type	_ZTV9idWinding, @object
	.size	_ZTV9idWinding, 24
_ZTV9idWinding:
	.long	0
	.long	_ZTI9idWinding
	.long	_ZN9idWindingD1Ev
	.long	_ZN9idWindingD0Ev
	.long	_ZN9idWinding5ClearEv
	.long	_ZN9idWinding10ReAllocateEib
	.weak	_ZTS11idGameLocal
	.section	.rodata._ZTS11idGameLocal,"aG",@progbits,_ZTS11idGameLocal,comdat
	.align 2
	.type	_ZTS11idGameLocal, @object
	.size	_ZTS11idGameLocal, 14
_ZTS11idGameLocal:
	.string	"11idGameLocal"
	.weak	_ZTI11idGameLocal
	.section	.rodata._ZTI11idGameLocal,"aG",@progbits,_ZTI11idGameLocal,comdat
	.align 2
	.type	_ZTI11idGameLocal, @object
	.size	_ZTI11idGameLocal, 12
_ZTI11idGameLocal:
	.long	_ZTVN10__cxxabiv120__si_class_type_infoE+8
	.long	_ZTS11idGameLocal
	.long	_ZTI6idGame
	.weak	_ZTS14idFixedWinding
	.section	.rodata._ZTS14idFixedWinding,"aG",@progbits,_ZTS14idFixedWinding,comdat
	.align 2
	.type	_ZTS14idFixedWinding, @object
	.size	_ZTS14idFixedWinding, 17
_ZTS14idFixedWinding:
	.string	"14idFixedWinding"
	.weak	_ZTI14idFixedWinding
	.section	.rodata._ZTI14idFixedWinding,"aG",@progbits,_ZTI14idFixedWinding,comdat
	.align 2
	.type	_ZTI14idFixedWinding, @object
	.size	_ZTI14idFixedWinding, 12
_ZTI14idFixedWinding:
	.long	_ZTVN10__cxxabiv120__si_class_type_infoE+8
	.long	_ZTS14idFixedWinding
	.long	_ZTI9idWinding
	.weak	_ZTS9idWinding
	.section	.rodata._ZTS9idWinding,"aG",@progbits,_ZTS9idWinding,comdat
	.align 2
	.type	_ZTS9idWinding, @object
	.size	_ZTS9idWinding, 11
_ZTS9idWinding:
	.string	"9idWinding"
	.weak	_ZTI9idWinding
	.section	.sdata._ZTI9idWinding,"aG",@progbits,_ZTI9idWinding,comdat
	.align 2
	.type	_ZTI9idWinding, @object
	.size	_ZTI9idWinding, 8
_ZTI9idWinding:
	.long	_ZTVN10__cxxabiv117__class_type_infoE+8
	.long	_ZTS9idWinding
	.weak	_ZTI6idGame
	.section	.sdata._ZTI6idGame,"aG",@progbits,_ZTI6idGame,comdat
	.align 2
	.type	_ZTI6idGame, @object
	.size	_ZTI6idGame, 8
_ZTI6idGame:
	.long	_ZTVN10__cxxabiv117__class_type_infoE+8
	.long	_ZTS6idGame
	.weak	_ZTS6idGame
	.section	.sdata._ZTS6idGame,"aG",@progbits,_ZTS6idGame,comdat
	.align 2
	.type	_ZTS6idGame, @object
	.size	_ZTS6idGame, 8
_ZTS6idGame:
	.string	"6idGame"
	.weak	_ZTV6idGame
	.section	.rodata._ZTV6idGame,"aG",@progbits,_ZTV6idGame,comdat
	.align 3
	.type	_ZTV6idGame, @object
	.size	_ZTV6idGame, 176
_ZTV6idGame:
	.long	0
	.long	_ZTI6idGame
	.long	_ZN6idGameD1Ev
	.long	_ZN6idGameD0Ev
	.long	__cxa_pure_virtual
	.long	__cxa_pure_virtual
	.long	__cxa_pure_virtual
	.long	__cxa_pure_virtual
	.long	__cxa_pure_virtual
	.long	__cxa_pure_virtual
	.long	__cxa_pure_virtual
	.long	__cxa_pure_virtual
	.long	__cxa_pure_virtual
	.long	__cxa_pure_virtual
	.long	__cxa_pure_virtual
	.long	__cxa_pure_virtual
	.long	__cxa_pure_virtual
	.long	__cxa_pure_virtual
	.long	__cxa_pure_virtual
	.long	__cxa_pure_virtual
	.long	__cxa_pure_virtual
	.long	__cxa_pure_virtual
	.long	__cxa_pure_virtual
	.long	__cxa_pure_virtual
	.long	__cxa_pure_virtual
	.long	__cxa_pure_virtual
	.long	__cxa_pure_virtual
	.long	__cxa_pure_virtual
	.long	__cxa_pure_virtual
	.long	__cxa_pure_virtual
	.long	__cxa_pure_virtual
	.long	__cxa_pure_virtual
	.long	__cxa_pure_virtual
	.long	__cxa_pure_virtual
	.long	__cxa_pure_virtual
	.long	__cxa_pure_virtual
	.long	__cxa_pure_virtual
	.long	__cxa_pure_virtual
	.long	__cxa_pure_virtual
	.long	__cxa_pure_virtual
	.long	__cxa_pure_virtual
	.long	__cxa_pure_virtual
	.long	__cxa_pure_virtual
	.long	__cxa_pure_virtual
	.section	.rodata.cst4,"aM",@progbits,4
	.align 2
.LC117:
	.4byte	1088421888
.LC118:
	.4byte	-997900288
.LC119:
	.4byte	1148829696
	.section	".data"
	.align 2
	.type	_ZN11idGameLocal15sufaceTypeNamesE, @object
	.size	_ZN11idGameLocal15sufaceTypeNamesE, 64
_ZN11idGameLocal15sufaceTypeNamesE:
	.long	.LC127
	.long	.LC128
	.long	.LC129
	.long	.LC130
	.long	.LC131
	.long	.LC132
	.long	.LC133
	.long	.LC134
	.long	.LC135
	.long	.LC136
	.long	.LC137
	.long	.LC138
	.long	.LC139
	.long	.LC140
	.long	.LC141
	.long	.LC142
	.section	.rodata.str1.4,"aMS",@progbits,1
	.align 2
.LC0:
	.string	"void idGameLocal::GetMapLoadingGUI( char gui[ MAX_STRING_CHARS ] )\r\n"
	.zero	3
.LC1:
	.string	"void idGameLocal::SwitchTeam( int clientNum, int team )\r\n"
	.zero	2
.LC2:
	.string	"void idGameLocal::GetClientStats( int clientNum, char *data, const int len )\r\n"
	.zero	1
.LC3:
	.string	"bool idGameLocal::NeedRestart()\r\n"
	.zero	2
.LC4:
	.string	"void idGameLocal::GetBestGameType( const char* map, const char* gametype, char buf[ MAX_STRING_CHARS ] )\r\n"
	.zero	1
.LC5:
	.string	"int idGameLocal::GetTimeGroupTime( int timeGroup )\r\n"
	.zero	3
.LC6:
	.string	"void idGameLocal::SelectTimeGroup( int timeGroup )\r\n"
	.zero	3
.LC7:
	.string	"void idGameLocal::ThrottleUserInfo( void )\r\n"
	.zero	3
.LC8:
	.string	"int idGameLocal::GetSpawnId( const idEntity* ent )\r\n"
	.zero	3
.LC9:
	.string	"idMaterial *idGameLocal::GetGlobalMaterial()\r\n"
	.zero	1
.LC10:
	.string	"void idGameLocal::SetGlobalMaterial( const idMaterial *mat )\r\n"
	.zero	1
.LC11:
	.string	"void idGameLocal::UpdateServerInfoFlags()\r\n"
.LC12:
	.string	"idEntity *idGameLocal::SelectInitialSpawnPoint( idPlayer *player )\r\n"
	.zero	3
.LC13:
	.string	"void idGameLocal::RandomizeInitialSpawns( void )\r\n"
	.zero	1
.LC14:
	.string	"int idGameLocal::sortSpawnPoints( const void *ptr1, const void *ptr2 )\r\n"
	.zero	3
.LC15:
	.string	"void idGameLocal::SetPortalState( qhandle_t portal, int blockingBits )\r\n"
	.zero	3
.LC16:
	.string	"idLocationEntity *idGameLocal::LocationForPoint( const idVec3 &point )\r\n"
	.zero	3
.LC17:
	.string	"void idGameLocal::SpreadLocations()\r\n"
	.zero	2
.LC18:
	.string	"bool idGameLocal::SkipCinematic( void )\r\n"
	.zero	2
.LC19:
	.string	"idCamera *idGameLocal::GetCamera( void )\r\n"
	.zero	1
.LC20:
	.string	"void idGameLocal::SetCamera( idCamera *cam )\r\n"
	.zero	1
.LC21:
	.string	"void idGameLocal::BloodSplat( const idVec3 &origin, const idVec3 &dir, float size, const char *material )\r\n"
.LC22:
	.string	"void idGameLocal::ProjectDecal( const idVec3 &origin, const idVec3 &dir, float depth, bool parallel, float size, const char *material, float angle )\r\n"
	.zero	1
.LC23:
	.string	"void idGameLocal::RadiusPushClipModel( const idVec3 &origin, const float push, const idClipModel *clipModel )\r\n"
.LC24:
	.string	"void idGameLocal::RadiusPush( const idVec3 &origin, const float radius, const float push, const idEntity *inflictor, const idEntity *ignore, float inflictorScale, const bool quake )\r\n"
.LC25:
	.string	"void idGameLocal::RadiusDamage( const idVec3 &origin, idEntity *inflictor, idEntity *attacker, idEntity *ignoreDamage, idEntity *ignorePush, const char *damageDefName, float dmgPower )\r\n"
	.zero	1
.LC26:
	.string	"idActor *idGameLocal::GetAlertEntity( void )\r\n"
	.zero	1
.LC27:
	.string	"void idGameLocal::AlertAI( idEntity *ent )\r\n"
	.zero	3
.LC28:
	.string	"bool idGameLocal::RequirementMet( idEntity *activator, const idStr &requires, int removeItem )\r\n"
	.zero	3
.LC29:
	.string	"void idGameLocal::KillBox( idEntity *ent, bool catch_teleport )\r\n"
	.zero	2
.LC30:
	.string	"int idGameLocal::EntitiesWithinRadius( const idVec3 org, float radius, idEntity **entityList, int maxCount )\r\n"
	.zero	1
.LC31:
	.string	"idEntity *idGameLocal::FindTraceEntity( idVec3 start, idVec3 end, const idTypeInfo &c, const idEntity *skip )\r\n"
.LC32:
	.string	"idEntity *idGameLocal::FindEntityUsingDef( idEntity *from, const char *match )\r\n"
	.zero	3
.LC33:
	.string	"idEntity *idGameLocal::FindEntity( const char *name )\r\n"
.LC34:
	.string	"idEntity *idGameLocal::GetTraceEntity( const trace_t &trace )\r\n"
.LC35:
	.string	"int idGameLocal::GetTargets( const idDict &args, idList< idEntityPtr<idEntity> > &list, const char *ref )\r\n"
.LC36:
	.string	"bool idGameLocal::RemoveEntityFromHash( const char *name, idEntity *ent )\r\n"
.LC37:
	.string	"void idGameLocal::AddEntityToHash( const char *name, idEntity *ent )\r\n"
	.zero	1
.LC38:
	.string	"void idGameLocal::SpawnMapEntities( void )\r\n"
	.zero	3
.LC39:
	.string	"gameState_tidGameLocal::GameState( void )\r\n"
.LC40:
	.string	"void idGameLocal::SetSkill( int value )\r\n"
	.zero	2
.LC41:
	.string	"bool idGameLocal::InhibitEntitySpawn( idDict &spawnArgs )\r\n"
.LC42:
	.string	"idDict *idGameLocal::FindEntityDefDict( const char *name, bool makeDefault )\r\n"
	.zero	1
.LC43:
	.string	"idDeclEntityDef *idGameLocal::FindEntityDef( const char *name, bool makeDefault )\r\n"
.LC44:
	.string	"bool idGameLocal::SpawnEntityDef( const idDict &args, idEntity **ent, bool setDefaults )\r\n"
	.zero	1
.LC45:
	.string	"idEntity *idGameLocal::SpawnEntityType( const idTypeInfo &classdef, const idDict *args, bool bIsClientReadSnapshot )\r\n"
	.zero	1
.LC46:
	.string	"void idGameLocal::UnregisterEntity( idEntity *ent )\r\n"
	.zero	2
.LC47:
	.string	"void idGameLocal::RegisterEntity( idEntity *ent )\r\n"
.LC48:
	.string	"bool idGameLocal::CheatsOk( bool requirePlayer )\r\n"
	.zero	1
.LC49:
	.string	"void idGameLocal::RemoveAllAASObstacles( void )\r\n"
	.zero	2
.LC50:
	.string	"void idGameLocal::RemoveAASObstacle( const aasHandle_t handle )\r\n"
	.zero	2
.LC51:
	.string	"aasHandle_t idGameLocal::AddAASObstacle( const idBounds &bounds )\r\n"
.LC52:
	.string	"void idGameLocal::SetAASAreaState( const idBounds &bounds, const int areaContents, bool closed )\r\n"
	.zero	1
.LC53:
	.string	"idAAS *idGameLocal::GetAAS( const char *name )\r\n"
	.zero	3
.LC54:
	.string	"idAAS *idGameLocal::GetAAS( int num )\r\n"
.LC55:
	.string	"intidGameLocal::NumAAS( void )\r\n"
	.zero	3
.LC56:
	.string	"void idGameLocal::RunDebugInfo( void )\r\n"
	.zero	3
.LC57:
	.string	"void idGameLocal::ShowTargets( void )\r\n"
.LC58:
	.string	"void idGameLocal::CallObjectFrameCommand( idEntity *ent, const char *frameCommand )\r\n"
	.zero	2
.LC59:
	.string	"void idGameLocal::CallFrameCommand( idEntity *ent, const function_t *frameCommand )\r\n"
	.zero	2
.LC60:
	.string	"char *idGameLocal::GetMapName( void )\r\n"
.LC61:
	.string	"idMapFile *idGameLocal::GetLevelMap( void )\r\n"
	.zero	2
.LC62:
	.string	"void idGameLocal::HandleMainMenuCommands( const char *menuCommand, idUserInterface *gui )\r\n"
.LC63:
	.string	"char* idGameLocal::HandleGuiCommands( const char *menuCommand )\r\n"
	.zero	2
.LC64:
	.string	"idUserInterface* idGameLocal::StartMenu( void )\r\n"
	.zero	2
.LC65:
	.string	"escReply_t idGameLocal::HandleESC( idUserInterface **gui )\r\n"
	.zero	3
.LC66:
	.string	"bool idGameLocal::Draw( int clientNum )\r\n"
	.zero	2
.LC67:
	.string	"void idGameLocal::CalcFov( float base_fov, float &fov_x, float &fov_y )\r\n"
	.zero	2
.LC68:
	.string	"void idGameLocal::SortActiveEntityList( void )\r\n"
	.zero	3
.LC69:
	.string	"void idGameLocal::UpdateGravity( void )\r\n"
	.zero	2
.LC70:
	.string	"bool idGameLocal::InPlayerConnectedArea( idEntity *ent )\r\n"
	.zero	1
.LC71:
	.string	"bool idGameLocal::InPlayerPVS( idEntity *ent )\r\n"
	.zero	3
.LC72:
	.string	"void idGameLocal::FreePlayerPVS( void )\r\n"
	.zero	2
.LC73:
	.string	"void idGameLocal::SetupPlayerPVS( void )\r\n"
	.zero	1
.LC74:
	.string	"idPlayer *idGameLocal::GetLocalPlayer()\r\n"
	.zero	2
.LC75:
	.string	"int idGameLocal::GetNextClientNum( int _current )\r\n"
.LC76:
	.string	"idPlayer *idGameLocal::GetClientByCmdArgs( const idCmdArgs &args )\r\n"
	.zero	3
.LC77:
	.string	"idPlayer *idGameLocal::GetClientByName( const char *name )\r\n"
	.zero	3
.LC78:
	.string	"idPlayer *idGameLocal::GetClientByNum( int current )\r\n"
	.zero	1
.LC79:
	.string	"void idGameLocal::SpawnPlayer( int clientNum )\r\n"
	.zero	3
.LC80:
	.string	"void idGameLocal::InitScriptForMap( void )\r\n"
	.zero	3
.LC81:
	.string	"void idGameLocal::CacheDictionaryMedia( const idDict *dict )\r\n"
	.zero	1
.LC82:
	.string	"void idGameLocal::GetShakeSounds( const idDict *dict )\r\n"
	.zero	3
.LC83:
	.string	"void idGameLocal::DumpOggSounds( void )\r\n"
	.zero	2
.LC84:
	.string	"void idGameLocal::MapShutdown( void )\r\n"
.LC85:
	.string	"void idGameLocal::MapClear( bool clearClients )\r\n"
	.zero	2
.LC86:
	.string	"bool idGameLocal::InitFromSaveGame( const char *mapName, idRenderWorld *renderWorld, idSoundWorld *soundWorld, idFile *saveGameFile )\r\n"
.LC87:
	.string	"void idGameLocal::InitFromNewMap( const char *mapName, idRenderWorld *renderWorld, idSoundWorld *soundWorld, bool isServer, bool isClient, int randseed )\r\n"
.LC88:
	.string	"void idGameLocal::MapPopulate( void )\r\n"
.LC89:
	.string	"void idGameLocal::NextMap_f( const idCmdArgs &args )\r\n"
	.zero	1
.LC90:
	.string	"bool idGameLocal::NextMap( void )\r\n"
.LC91:
	.string	"void idGameLocal::MapRestart_f( const idCmdArgs &args )\r\n"
	.zero	2
.LC92:
	.string	"void idGameLocal::MapRestart( )\r\n"
	.zero	2
.LC93:
	.string	"void idGameLocal::LocalMapRestart( )\r\n"
	.zero	1
.LC94:
	.string	"void idGameLocal::LoadMap( const char *mapName, int randseed )\r\n"
	.zero	3
.LC95:
	.string	"void idGameLocal::SetServerInfo( const idDict &_serverInfo )\r\n"
	.zero	1
.LC96:
	.string	"idDict* idGameLocal::GetUserInfo( int clientNum )\r\n"
.LC97:
	.string	"idDict* idGameLocal::SetUserInfo( int clientNum, const idDict &userInfo, bool isClient, bool canModify )\r\n"
	.zero	1
.LC98:
	.string	"void idGameLocal::SetLocalClient( int clientNum )\r\n"
.LC99:
	.string	"void gameError( const char *fmt, ... )\r\n"
	.zero	3
.LC100:
	.string	"void idGameLocal::Error( const char *fmt, ... )\r\n"
	.zero	2
.LC101:
	.string	"void idGameLocal::DWarning( const char *fmt, ... )\r\n"
	.zero	3
.LC102:
	.string	"void idGameLocal::Warning( const char *fmt, ... )\r\n"
.LC103:
	.string	"void idGameLocal::DPrintf( const char *fmt, ... )\r\n"
.LC104:
	.string	"void idGameLocal::Printf( const char *fmt, ... )\r\n"
	.zero	1
.LC105:
	.string	"void idGameLocal::SetPersistentPlayerInfo( int clientNum, const idDict &playerInfo )\r\n"
	.zero	1
.LC106:
	.string	"idDict &idGameLocal::GetPersistentPlayerInfo( int clientNum )\r\n"
.LC107:
	.string	"void idGameLocal::SaveGame( idFile *f )\r\n"
	.zero	2
.LC108:
	.string	"void idGameLocal::Shutdown( void )\r\n"
	.zero	3
.LC109:
	.string	"void idGameLocal::Init( void )\r\n"
	.zero	3
.LC110:
	.string	"void idGameLocal::Clear( void )\r\n"
	.zero	2
.LC111:
	.string	"void TestGameAPI( void )\r\n"
	.zero	1
.LC112:
	.string	"gameExport_t *GetGameAPI( gameImport_t *import )\r\n"
	.zero	1
.LC113:
	.string	""
	.zero	3
.LC114:
	.string	"%s %s"
	.zero	2
.LC115:
	.string	"gameReturn_t idGameLocal::RunFrame( const usercmd_t *clientCmds )\r\n"
.LC116:
	.string	"pvsHandle_t idGameLocal::GetClientPVS( idPlayer *player, pvsType_t type )\r\n"
.LC127:
	.string	"none"
	.zero	3
.LC128:
	.string	"metal"
	.zero	2
.LC129:
	.string	"stone"
	.zero	2
.LC130:
	.string	"flesh"
	.zero	2
.LC131:
	.string	"wood"
	.zero	3
.LC132:
	.string	"cardboard"
	.zero	2
.LC133:
	.string	"liquid"
	.zero	1
.LC134:
	.string	"glass"
	.zero	2
.LC135:
	.string	"plastic"
.LC136:
	.string	"ricochet"
	.zero	3
.LC137:
	.string	"surftype10"
	.zero	1
.LC138:
	.string	"surftype11"
	.zero	1
.LC139:
	.string	"surftype12"
	.zero	1
.LC140:
	.string	"surftype13"
	.zero	1
.LC141:
	.string	"surftype14"
	.zero	1
.LC142:
	.string	"surftype15"
	.zero	1
.LC143:
	.string	"<RESULT>"
	.section	.sbss,"aw",@nobits
	.align 2
	.type	gameRenderWorld, @object
	.size	gameRenderWorld, 4
gameRenderWorld:
	.zero	4
	.type	gameSoundWorld, @object
	.size	gameSoundWorld, 4
gameSoundWorld:
	.zero	4
	.section	.sdata,"aw",@progbits
	.align 2
	.type	game, @object
	.size	game, 4
game:
	.long	gameLocal
	.section	".bss"
	.align 2
	.set	.LANCHOR0,. + 0
	.type	animationLib, @object
	.size	animationLib, 60
animationLib:
	.zero	60
	.type	gameLocal, @object
	.size	gameLocal, 3054208
gameLocal:
	.zero	3054208
	.type	NUM_RENDER_PORTAL_BITS, @object
	.size	NUM_RENDER_PORTAL_BITS, 4
NUM_RENDER_PORTAL_BITS:
	.zero	4
	.type	DEFAULT_GRAVITY_VEC3, @object
	.size	DEFAULT_GRAVITY_VEC3, 12
DEFAULT_GRAVITY_VEC3:
	.zero	12
	.type	CINEMATIC_SKIP_DELAY, @object
	.size	CINEMATIC_SKIP_DELAY, 4
CINEMATIC_SKIP_DELAY:
	.zero	4
	.type	ASYNC_PLAYER_INV_AMMO_BITS, @object
	.size	ASYNC_PLAYER_INV_AMMO_BITS, 4
ASYNC_PLAYER_INV_AMMO_BITS:
	.zero	4
	.section	.debug_frame,"",@progbits
.Lframe0:
	.4byte	.LECIE0-.LSCIE0
.LSCIE0:
	.4byte	0xffffffff
	.byte	0x1
	.string	""
	.uleb128 0x1
	.sleb128 -4
	.byte	0x41
	.byte	0xc
	.uleb128 0x1
	.uleb128 0x0
	.align 2
.LECIE0:
.LSFDE0:
	.4byte	.LEFDE0-.LASFDE0
.LASFDE0:
	.4byte	.Lframe0
	.4byte	.LFB1504
	.4byte	.LFE1504-.LFB1504
	.align 2
.LEFDE0:
.LSFDE2:
	.4byte	.LEFDE2-.LASFDE2
.LASFDE2:
	.4byte	.Lframe0
	.4byte	.LFB2869
	.4byte	.LFE2869-.LFB2869
	.align 2
.LEFDE2:
.LSFDE4:
	.4byte	.LEFDE4-.LASFDE4
.LASFDE4:
	.4byte	.Lframe0
	.4byte	.LFB3117
	.4byte	.LFE3117-.LFB3117
	.align 2
.LEFDE4:
.LSFDE6:
	.4byte	.LEFDE6-.LASFDE6
.LASFDE6:
	.4byte	.Lframe0
	.4byte	.LFB3149
	.4byte	.LFE3149-.LFB3149
	.align 2
.LEFDE6:
.LSFDE8:
	.4byte	.LEFDE8-.LASFDE8
.LASFDE8:
	.4byte	.Lframe0
	.4byte	.LFB3167
	.4byte	.LFE3167-.LFB3167
	.align 2
.LEFDE8:
.LSFDE10:
	.4byte	.LEFDE10-.LASFDE10
.LASFDE10:
	.4byte	.Lframe0
	.4byte	.LFB3173
	.4byte	.LFE3173-.LFB3173
	.align 2
.LEFDE10:
.LSFDE12:
	.4byte	.LEFDE12-.LASFDE12
.LASFDE12:
	.4byte	.Lframe0
	.4byte	.LFB3254
	.4byte	.LFE3254-.LFB3254
	.align 2
.LEFDE12:
.LSFDE14:
	.4byte	.LEFDE14-.LASFDE14
.LASFDE14:
	.4byte	.Lframe0
	.4byte	.LFB3239
	.4byte	.LFE3239-.LFB3239
	.byte	0x4
	.4byte	.LCFI1-.LFB3239
	.byte	0xe
	.uleb128 0x10
	.byte	0x4
	.4byte	.LCFI3-.LCFI1
	.byte	0x9f
	.uleb128 0x1
	.byte	0x11
	.uleb128 0x41
	.sleb128 -1
	.align 2
.LEFDE14:
.LSFDE16:
	.4byte	.LEFDE16-.LASFDE16
.LASFDE16:
	.4byte	.Lframe0
	.4byte	.LFB3152
	.4byte	.LFE3152-.LFB3152
	.byte	0x4
	.4byte	.LCFI5-.LFB3152
	.byte	0xe
	.uleb128 0x8
	.byte	0x4
	.4byte	.LCFI6-.LCFI5
	.byte	0x11
	.uleb128 0x41
	.sleb128 -1
	.align 2
.LEFDE16:
.LSFDE18:
	.4byte	.LEFDE18-.LASFDE18
.LASFDE18:
	.4byte	.Lframe0
	.4byte	.LFB1475
	.4byte	.LFE1475-.LFB1475
	.byte	0x4
	.4byte	.LCFI8-.LFB1475
	.byte	0xe
	.uleb128 0x10
	.byte	0x4
	.4byte	.LCFI9-.LCFI8
	.byte	0x9e
	.uleb128 0x2
	.byte	0x9
	.uleb128 0x41
	.uleb128 0x0
	.byte	0x4
	.4byte	.LCFI10-.LCFI9
	.byte	0x9f
	.uleb128 0x1
	.byte	0x4
	.4byte	.LCFI11-.LCFI10
	.byte	0x11
	.uleb128 0x41
	.sleb128 -1
	.align 2
.LEFDE18:
.LSFDE20:
	.4byte	.LEFDE20-.LASFDE20
.LASFDE20:
	.4byte	.Lframe0
	.4byte	.LFB3251
	.4byte	.LFE3251-.LFB3251
	.byte	0x4
	.4byte	.LCFI13-.LFB3251
	.byte	0xe
	.uleb128 0x10
	.byte	0x4
	.4byte	.LCFI14-.LCFI13
	.byte	0x9f
	.uleb128 0x1
	.byte	0x9
	.uleb128 0x41
	.uleb128 0x0
	.byte	0x4
	.4byte	.LCFI15-.LCFI14
	.byte	0x11
	.uleb128 0x41
	.sleb128 -1
	.align 2
.LEFDE20:
.LSFDE22:
	.4byte	.LEFDE22-.LASFDE22
.LASFDE22:
	.4byte	.Lframe0
	.4byte	.LFB3176
	.4byte	.LFE3176-.LFB3176
	.byte	0x4
	.4byte	.LCFI17-.LFB3176
	.byte	0xe
	.uleb128 0x8
	.byte	0x4
	.4byte	.LCFI18-.LCFI17
	.byte	0x11
	.uleb128 0x41
	.sleb128 -1
	.align 2
.LEFDE22:
.LSFDE24:
	.4byte	.LEFDE24-.LASFDE24
.LASFDE24:
	.4byte	.Lframe0
	.4byte	.LFB3241
	.4byte	.LFE3241-.LFB3241
	.byte	0x4
	.4byte	.LCFI20-.LFB3241
	.byte	0xe
	.uleb128 0x10
	.byte	0x4
	.4byte	.LCFI21-.LCFI20
	.byte	0x9f
	.uleb128 0x1
	.byte	0x9
	.uleb128 0x41
	.uleb128 0x0
	.byte	0x4
	.4byte	.LCFI22-.LCFI21
	.byte	0x11
	.uleb128 0x41
	.sleb128 -1
	.align 2
.LEFDE24:
.LSFDE26:
	.4byte	.LEFDE26-.LASFDE26
.LASFDE26:
	.4byte	.Lframe0
	.4byte	.LFB3170
	.4byte	.LFE3170-.LFB3170
	.byte	0x4
	.4byte	.LCFI24-.LFB3170
	.byte	0xe
	.uleb128 0x8
	.byte	0x4
	.4byte	.LCFI25-.LCFI24
	.byte	0x11
	.uleb128 0x41
	.sleb128 -1
	.align 2
.LEFDE26:
.LSFDE28:
	.4byte	.LEFDE28-.LASFDE28
.LASFDE28:
	.4byte	.Lframe0
	.4byte	.LFB3225
	.4byte	.LFE3225-.LFB3225
	.byte	0x4
	.4byte	.LCFI27-.LFB3225
	.byte	0xe
	.uleb128 0x10
	.byte	0x4
	.4byte	.LCFI28-.LCFI27
	.byte	0x9f
	.uleb128 0x1
	.byte	0x9
	.uleb128 0x41
	.uleb128 0x0
	.byte	0x4
	.4byte	.LCFI29-.LCFI28
	.byte	0x11
	.uleb128 0x41
	.sleb128 -1
	.align 2
.LEFDE28:
.LSFDE30:
	.4byte	.LEFDE30-.LASFDE30
.LASFDE30:
	.4byte	.Lframe0
	.4byte	.LFB3120
	.4byte	.LFE3120-.LFB3120
	.byte	0x4
	.4byte	.LCFI31-.LFB3120
	.byte	0xe
	.uleb128 0x8
	.byte	0x4
	.4byte	.LCFI32-.LCFI31
	.byte	0x11
	.uleb128 0x41
	.sleb128 -1
	.align 2
.LEFDE30:
.LSFDE32:
	.4byte	.LEFDE32-.LASFDE32
.LASFDE32:
	.4byte	.Lframe0
	.4byte	.LFB2494
	.4byte	.LFE2494-.LFB2494
	.byte	0x4
	.4byte	.LCFI34-.LFB2494
	.byte	0xe
	.uleb128 0x8
	.byte	0x4
	.4byte	.LCFI35-.LCFI34
	.byte	0x11
	.uleb128 0x41
	.sleb128 -1
	.align 2
.LEFDE32:
.LSFDE34:
	.4byte	.LEFDE34-.LASFDE34
.LASFDE34:
	.4byte	.Lframe0
	.4byte	.LFB2493
	.4byte	.LFE2493-.LFB2493
	.align 2
.LEFDE34:
.LSFDE36:
	.4byte	.LEFDE36-.LASFDE36
.LASFDE36:
	.4byte	.Lframe0
	.4byte	.LFB1465
	.4byte	.LFE1465-.LFB1465
	.byte	0x4
	.4byte	.LCFI37-.LFB1465
	.byte	0xe
	.uleb128 0x10
	.byte	0x4
	.4byte	.LCFI38-.LCFI37
	.byte	0x9f
	.uleb128 0x1
	.byte	0x9
	.uleb128 0x41
	.uleb128 0x0
	.byte	0x4
	.4byte	.LCFI39-.LCFI38
	.byte	0x11
	.uleb128 0x41
	.sleb128 -1
	.align 2
.LEFDE36:
.LSFDE38:
	.4byte	.LEFDE38-.LASFDE38
.LASFDE38:
	.4byte	.Lframe0
	.4byte	.LFB1464
	.4byte	.LFE1464-.LFB1464
	.byte	0x4
	.4byte	.LCFI41-.LFB1464
	.byte	0xe
	.uleb128 0x10
	.byte	0x4
	.4byte	.LCFI42-.LCFI41
	.byte	0x9f
	.uleb128 0x1
	.byte	0x9
	.uleb128 0x41
	.uleb128 0x0
	.byte	0x4
	.4byte	.LCFI43-.LCFI42
	.byte	0x11
	.uleb128 0x41
	.sleb128 -1
	.align 2
.LEFDE38:
.LSFDE40:
	.4byte	.LEFDE40-.LASFDE40
.LASFDE40:
	.4byte	.Lframe0
	.4byte	.LFB1502
	.4byte	.LFE1502-.LFB1502
	.byte	0x4
	.4byte	.LCFI45-.LFB1502
	.byte	0xe
	.uleb128 0x8
	.byte	0x4
	.4byte	.LCFI46-.LCFI45
	.byte	0x11
	.uleb128 0x41
	.sleb128 -1
	.align 2
.LEFDE40:
.LSFDE42:
	.4byte	.LEFDE42-.LASFDE42
.LASFDE42:
	.4byte	.Lframe0
	.4byte	.LFB3256
	.4byte	.LFE3256-.LFB3256
	.byte	0x4
	.4byte	.LCFI48-.LFB3256
	.byte	0xe
	.uleb128 0x8
	.byte	0x4
	.4byte	.LCFI49-.LCFI48
	.byte	0x11
	.uleb128 0x41
	.sleb128 -1
	.align 2
.LEFDE42:
.LSFDE44:
	.4byte	.LEFDE44-.LASFDE44
.LASFDE44:
	.4byte	.Lframe0
	.4byte	.LFB2940
	.4byte	.LFE2940-.LFB2940
	.byte	0x4
	.4byte	.LCFI51-.LFB2940
	.byte	0xe
	.uleb128 0x8
	.byte	0x4
	.4byte	.LCFI52-.LCFI51
	.byte	0x11
	.uleb128 0x41
	.sleb128 -1
	.align 2
.LEFDE44:
.LSFDE46:
	.4byte	.LEFDE46-.LASFDE46
.LASFDE46:
	.4byte	.Lframe0
	.4byte	.LFB2939
	.4byte	.LFE2939-.LFB2939
	.byte	0x4
	.4byte	.LCFI54-.LFB2939
	.byte	0xe
	.uleb128 0x8
	.byte	0x4
	.4byte	.LCFI55-.LCFI54
	.byte	0x11
	.uleb128 0x41
	.sleb128 -1
	.align 2
.LEFDE46:
.LSFDE48:
	.4byte	.LEFDE48-.LASFDE48
.LASFDE48:
	.4byte	.Lframe0
	.4byte	.LFB2938
	.4byte	.LFE2938-.LFB2938
	.byte	0x4
	.4byte	.LCFI57-.LFB2938
	.byte	0xe
	.uleb128 0x8
	.byte	0x4
	.4byte	.LCFI58-.LCFI57
	.byte	0x11
	.uleb128 0x41
	.sleb128 -1
	.align 2
.LEFDE48:
.LSFDE50:
	.4byte	.LEFDE50-.LASFDE50
.LASFDE50:
	.4byte	.Lframe0
	.4byte	.LFB2937
	.4byte	.LFE2937-.LFB2937
	.byte	0x4
	.4byte	.LCFI60-.LFB2937
	.byte	0xe
	.uleb128 0x8
	.byte	0x4
	.4byte	.LCFI61-.LCFI60
	.byte	0x11
	.uleb128 0x41
	.sleb128 -1
	.align 2
.LEFDE50:
.LSFDE52:
	.4byte	.LEFDE52-.LASFDE52
.LASFDE52:
	.4byte	.Lframe0
	.4byte	.LFB2936
	.4byte	.LFE2936-.LFB2936
	.byte	0x4
	.4byte	.LCFI63-.LFB2936
	.byte	0xe
	.uleb128 0x8
	.byte	0x4
	.4byte	.LCFI64-.LCFI63
	.byte	0x11
	.uleb128 0x41
	.sleb128 -1
	.align 2
.LEFDE52:
.LSFDE54:
	.4byte	.LEFDE54-.LASFDE54
.LASFDE54:
	.4byte	.Lframe0
	.4byte	.LFB2935
	.4byte	.LFE2935-.LFB2935
	.byte	0x4
	.4byte	.LCFI66-.LFB2935
	.byte	0xe
	.uleb128 0x8
	.byte	0x4
	.4byte	.LCFI67-.LCFI66
	.byte	0x11
	.uleb128 0x41
	.sleb128 -1
	.align 2
.LEFDE54:
.LSFDE56:
	.4byte	.LEFDE56-.LASFDE56
.LASFDE56:
	.4byte	.Lframe0
	.4byte	.LFB2934
	.4byte	.LFE2934-.LFB2934
	.byte	0x4
	.4byte	.LCFI69-.LFB2934
	.byte	0xe
	.uleb128 0x8
	.byte	0x4
	.4byte	.LCFI70-.LCFI69
	.byte	0x11
	.uleb128 0x41
	.sleb128 -1
	.align 2
.LEFDE56:
.LSFDE58:
	.4byte	.LEFDE58-.LASFDE58
.LASFDE58:
	.4byte	.Lframe0
	.4byte	.LFB2933
	.4byte	.LFE2933-.LFB2933
	.byte	0x4
	.4byte	.LCFI72-.LFB2933
	.byte	0xe
	.uleb128 0x8
	.byte	0x4
	.4byte	.LCFI73-.LCFI72
	.byte	0x11
	.uleb128 0x41
	.sleb128 -1
	.align 2
.LEFDE58:
.LSFDE60:
	.4byte	.LEFDE60-.LASFDE60
.LASFDE60:
	.4byte	.Lframe0
	.4byte	.LFB2932
	.4byte	.LFE2932-.LFB2932
	.byte	0x4
	.4byte	.LCFI75-.LFB2932
	.byte	0xe
	.uleb128 0x8
	.byte	0x4
	.4byte	.LCFI76-.LCFI75
	.byte	0x11
	.uleb128 0x41
	.sleb128 -1
	.align 2
.LEFDE60:
.LSFDE62:
	.4byte	.LEFDE62-.LASFDE62
.LASFDE62:
	.4byte	.Lframe0
	.4byte	.LFB2931
	.4byte	.LFE2931-.LFB2931
	.byte	0x4
	.4byte	.LCFI78-.LFB2931
	.byte	0xe
	.uleb128 0x8
	.byte	0x4
	.4byte	.LCFI79-.LCFI78
	.byte	0x11
	.uleb128 0x41
	.sleb128 -1
	.align 2
.LEFDE62:
.LSFDE64:
	.4byte	.LEFDE64-.LASFDE64
.LASFDE64:
	.4byte	.Lframe0
	.4byte	.LFB2930
	.4byte	.LFE2930-.LFB2930
	.byte	0x4
	.4byte	.LCFI81-.LFB2930
	.byte	0xe
	.uleb128 0x8
	.byte	0x4
	.4byte	.LCFI82-.LCFI81
	.byte	0x11
	.uleb128 0x41
	.sleb128 -1
	.align 2
.LEFDE64:
.LSFDE66:
	.4byte	.LEFDE66-.LASFDE66
.LASFDE66:
	.4byte	.Lframe0
	.4byte	.LFB2929
	.4byte	.LFE2929-.LFB2929
	.byte	0x4
	.4byte	.LCFI84-.LFB2929
	.byte	0xe
	.uleb128 0x8
	.byte	0x4
	.4byte	.LCFI85-.LCFI84
	.byte	0x11
	.uleb128 0x41
	.sleb128 -1
	.align 2
.LEFDE66:
.LSFDE68:
	.4byte	.LEFDE68-.LASFDE68
.LASFDE68:
	.4byte	.Lframe0
	.4byte	.LFB2928
	.4byte	.LFE2928-.LFB2928
	.byte	0x4
	.4byte	.LCFI87-.LFB2928
	.byte	0xe
	.uleb128 0x8
	.byte	0x4
	.4byte	.LCFI88-.LCFI87
	.byte	0x11
	.uleb128 0x41
	.sleb128 -1
	.align 2
.LEFDE68:
.LSFDE70:
	.4byte	.LEFDE70-.LASFDE70
.LASFDE70:
	.4byte	.Lframe0
	.4byte	.LFB2927
	.4byte	.LFE2927-.LFB2927
	.byte	0x4
	.4byte	.LCFI90-.LFB2927
	.byte	0xe
	.uleb128 0x8
	.byte	0x4
	.4byte	.LCFI91-.LCFI90
	.byte	0x11
	.uleb128 0x41
	.sleb128 -1
	.align 2
.LEFDE70:
.LSFDE72:
	.4byte	.LEFDE72-.LASFDE72
.LASFDE72:
	.4byte	.Lframe0
	.4byte	.LFB2926
	.4byte	.LFE2926-.LFB2926
	.byte	0x4
	.4byte	.LCFI93-.LFB2926
	.byte	0xe
	.uleb128 0x8
	.byte	0x4
	.4byte	.LCFI94-.LCFI93
	.byte	0x11
	.uleb128 0x41
	.sleb128 -1
	.align 2
.LEFDE72:
.LSFDE74:
	.4byte	.LEFDE74-.LASFDE74
.LASFDE74:
	.4byte	.Lframe0
	.4byte	.LFB2925
	.4byte	.LFE2925-.LFB2925
	.byte	0x4
	.4byte	.LCFI96-.LFB2925
	.byte	0xe
	.uleb128 0x8
	.byte	0x4
	.4byte	.LCFI97-.LCFI96
	.byte	0x11
	.uleb128 0x41
	.sleb128 -1
	.align 2
.LEFDE74:
.LSFDE76:
	.4byte	.LEFDE76-.LASFDE76
.LASFDE76:
	.4byte	.Lframe0
	.4byte	.LFB2924
	.4byte	.LFE2924-.LFB2924
	.byte	0x4
	.4byte	.LCFI99-.LFB2924
	.byte	0xe
	.uleb128 0x8
	.byte	0x4
	.4byte	.LCFI100-.LCFI99
	.byte	0x11
	.uleb128 0x41
	.sleb128 -1
	.align 2
.LEFDE76:
.LSFDE78:
	.4byte	.LEFDE78-.LASFDE78
.LASFDE78:
	.4byte	.Lframe0
	.4byte	.LFB2923
	.4byte	.LFE2923-.LFB2923
	.byte	0x4
	.4byte	.LCFI102-.LFB2923
	.byte	0xe
	.uleb128 0x8
	.byte	0x4
	.4byte	.LCFI103-.LCFI102
	.byte	0x11
	.uleb128 0x41
	.sleb128 -1
	.align 2
.LEFDE78:
.LSFDE80:
	.4byte	.LEFDE80-.LASFDE80
.LASFDE80:
	.4byte	.Lframe0
	.4byte	.LFB2922
	.4byte	.LFE2922-.LFB2922
	.byte	0x4
	.4byte	.LCFI105-.LFB2922
	.byte	0xe
	.uleb128 0x8
	.byte	0x4
	.4byte	.LCFI106-.LCFI105
	.byte	0x11
	.uleb128 0x41
	.sleb128 -1
	.align 2
.LEFDE80:
.LSFDE82:
	.4byte	.LEFDE82-.LASFDE82
.LASFDE82:
	.4byte	.Lframe0
	.4byte	.LFB2921
	.4byte	.LFE2921-.LFB2921
	.byte	0x4
	.4byte	.LCFI108-.LFB2921
	.byte	0xe
	.uleb128 0x8
	.byte	0x4
	.4byte	.LCFI109-.LCFI108
	.byte	0x11
	.uleb128 0x41
	.sleb128 -1
	.align 2
.LEFDE82:
.LSFDE84:
	.4byte	.LEFDE84-.LASFDE84
.LASFDE84:
	.4byte	.Lframe0
	.4byte	.LFB2920
	.4byte	.LFE2920-.LFB2920
	.byte	0x4
	.4byte	.LCFI111-.LFB2920
	.byte	0xe
	.uleb128 0x8
	.byte	0x4
	.4byte	.LCFI112-.LCFI111
	.byte	0x11
	.uleb128 0x41
	.sleb128 -1
	.align 2
.LEFDE84:
.LSFDE86:
	.4byte	.LEFDE86-.LASFDE86
.LASFDE86:
	.4byte	.Lframe0
	.4byte	.LFB2919
	.4byte	.LFE2919-.LFB2919
	.byte	0x4
	.4byte	.LCFI114-.LFB2919
	.byte	0xe
	.uleb128 0x8
	.byte	0x4
	.4byte	.LCFI115-.LCFI114
	.byte	0x11
	.uleb128 0x41
	.sleb128 -1
	.align 2
.LEFDE86:
.LSFDE88:
	.4byte	.LEFDE88-.LASFDE88
.LASFDE88:
	.4byte	.Lframe0
	.4byte	.LFB2918
	.4byte	.LFE2918-.LFB2918
	.byte	0x4
	.4byte	.LCFI117-.LFB2918
	.byte	0xe
	.uleb128 0x8
	.byte	0x4
	.4byte	.LCFI118-.LCFI117
	.byte	0x11
	.uleb128 0x41
	.sleb128 -1
	.align 2
.LEFDE88:
.LSFDE90:
	.4byte	.LEFDE90-.LASFDE90
.LASFDE90:
	.4byte	.Lframe0
	.4byte	.LFB2917
	.4byte	.LFE2917-.LFB2917
	.byte	0x4
	.4byte	.LCFI120-.LFB2917
	.byte	0xe
	.uleb128 0x8
	.byte	0x4
	.4byte	.LCFI121-.LCFI120
	.byte	0x11
	.uleb128 0x41
	.sleb128 -1
	.align 2
.LEFDE90:
.LSFDE92:
	.4byte	.LEFDE92-.LASFDE92
.LASFDE92:
	.4byte	.Lframe0
	.4byte	.LFB2916
	.4byte	.LFE2916-.LFB2916
	.byte	0x4
	.4byte	.LCFI123-.LFB2916
	.byte	0xe
	.uleb128 0x8
	.byte	0x4
	.4byte	.LCFI124-.LCFI123
	.byte	0x11
	.uleb128 0x41
	.sleb128 -1
	.align 2
.LEFDE92:
.LSFDE94:
	.4byte	.LEFDE94-.LASFDE94
.LASFDE94:
	.4byte	.Lframe0
	.4byte	.LFB2915
	.4byte	.LFE2915-.LFB2915
	.byte	0x4
	.4byte	.LCFI126-.LFB2915
	.byte	0xe
	.uleb128 0x8
	.byte	0x4
	.4byte	.LCFI127-.LCFI126
	.byte	0x11
	.uleb128 0x41
	.sleb128 -1
	.align 2
.LEFDE94:
.LSFDE96:
	.4byte	.LEFDE96-.LASFDE96
.LASFDE96:
	.4byte	.Lframe0
	.4byte	.LFB2914
	.4byte	.LFE2914-.LFB2914
	.byte	0x4
	.4byte	.LCFI129-.LFB2914
	.byte	0xe
	.uleb128 0x8
	.byte	0x4
	.4byte	.LCFI130-.LCFI129
	.byte	0x11
	.uleb128 0x41
	.sleb128 -1
	.align 2
.LEFDE96:
.LSFDE98:
	.4byte	.LEFDE98-.LASFDE98
.LASFDE98:
	.4byte	.Lframe0
	.4byte	.LFB2913
	.4byte	.LFE2913-.LFB2913
	.byte	0x4
	.4byte	.LCFI132-.LFB2913
	.byte	0xe
	.uleb128 0x8
	.byte	0x4
	.4byte	.LCFI133-.LCFI132
	.byte	0x11
	.uleb128 0x41
	.sleb128 -1
	.align 2
.LEFDE98:
.LSFDE100:
	.4byte	.LEFDE100-.LASFDE100
.LASFDE100:
	.4byte	.Lframe0
	.4byte	.LFB2912
	.4byte	.LFE2912-.LFB2912
	.byte	0x4
	.4byte	.LCFI135-.LFB2912
	.byte	0xe
	.uleb128 0x8
	.byte	0x4
	.4byte	.LCFI136-.LCFI135
	.byte	0x11
	.uleb128 0x41
	.sleb128 -1
	.align 2
.LEFDE100:
.LSFDE102:
	.4byte	.LEFDE102-.LASFDE102
.LASFDE102:
	.4byte	.Lframe0
	.4byte	.LFB2911
	.4byte	.LFE2911-.LFB2911
	.byte	0x4
	.4byte	.LCFI138-.LFB2911
	.byte	0xe
	.uleb128 0x8
	.byte	0x4
	.4byte	.LCFI139-.LCFI138
	.byte	0x11
	.uleb128 0x41
	.sleb128 -1
	.align 2
.LEFDE102:
.LSFDE104:
	.4byte	.LEFDE104-.LASFDE104
.LASFDE104:
	.4byte	.Lframe0
	.4byte	.LFB2910
	.4byte	.LFE2910-.LFB2910
	.byte	0x4
	.4byte	.LCFI141-.LFB2910
	.byte	0xe
	.uleb128 0x8
	.byte	0x4
	.4byte	.LCFI142-.LCFI141
	.byte	0x11
	.uleb128 0x41
	.sleb128 -1
	.align 2
.LEFDE104:
.LSFDE106:
	.4byte	.LEFDE106-.LASFDE106
.LASFDE106:
	.4byte	.Lframe0
	.4byte	.LFB2909
	.4byte	.LFE2909-.LFB2909
	.byte	0x4
	.4byte	.LCFI144-.LFB2909
	.byte	0xe
	.uleb128 0x8
	.byte	0x4
	.4byte	.LCFI145-.LCFI144
	.byte	0x11
	.uleb128 0x41
	.sleb128 -1
	.align 2
.LEFDE106:
.LSFDE108:
	.4byte	.LEFDE108-.LASFDE108
.LASFDE108:
	.4byte	.Lframe0
	.4byte	.LFB2908
	.4byte	.LFE2908-.LFB2908
	.byte	0x4
	.4byte	.LCFI147-.LFB2908
	.byte	0xe
	.uleb128 0x8
	.byte	0x4
	.4byte	.LCFI148-.LCFI147
	.byte	0x11
	.uleb128 0x41
	.sleb128 -1
	.align 2
.LEFDE108:
.LSFDE110:
	.4byte	.LEFDE110-.LASFDE110
.LASFDE110:
	.4byte	.Lframe0
	.4byte	.LFB2907
	.4byte	.LFE2907-.LFB2907
	.byte	0x4
	.4byte	.LCFI150-.LFB2907
	.byte	0xe
	.uleb128 0x8
	.byte	0x4
	.4byte	.LCFI151-.LCFI150
	.byte	0x11
	.uleb128 0x41
	.sleb128 -1
	.align 2
.LEFDE110:
.LSFDE112:
	.4byte	.LEFDE112-.LASFDE112
.LASFDE112:
	.4byte	.Lframe0
	.4byte	.LFB2905
	.4byte	.LFE2905-.LFB2905
	.byte	0x4
	.4byte	.LCFI153-.LFB2905
	.byte	0xe
	.uleb128 0x8
	.byte	0x4
	.4byte	.LCFI154-.LCFI153
	.byte	0x11
	.uleb128 0x41
	.sleb128 -1
	.align 2
.LEFDE112:
.LSFDE114:
	.4byte	.LEFDE114-.LASFDE114
.LASFDE114:
	.4byte	.Lframe0
	.4byte	.LFB2904
	.4byte	.LFE2904-.LFB2904
	.byte	0x4
	.4byte	.LCFI156-.LFB2904
	.byte	0xe
	.uleb128 0x8
	.byte	0x4
	.4byte	.LCFI157-.LCFI156
	.byte	0x11
	.uleb128 0x41
	.sleb128 -1
	.align 2
.LEFDE114:
.LSFDE116:
	.4byte	.LEFDE116-.LASFDE116
.LASFDE116:
	.4byte	.Lframe0
	.4byte	.LFB2903
	.4byte	.LFE2903-.LFB2903
	.byte	0x4
	.4byte	.LCFI159-.LFB2903
	.byte	0xe
	.uleb128 0x8
	.byte	0x4
	.4byte	.LCFI160-.LCFI159
	.byte	0x11
	.uleb128 0x41
	.sleb128 -1
	.align 2
.LEFDE116:
.LSFDE118:
	.4byte	.LEFDE118-.LASFDE118
.LASFDE118:
	.4byte	.Lframe0
	.4byte	.LFB2902
	.4byte	.LFE2902-.LFB2902
	.byte	0x4
	.4byte	.LCFI162-.LFB2902
	.byte	0xe
	.uleb128 0x8
	.byte	0x4
	.4byte	.LCFI163-.LCFI162
	.byte	0x11
	.uleb128 0x41
	.sleb128 -1
	.align 2
.LEFDE118:
.LSFDE120:
	.4byte	.LEFDE120-.LASFDE120
.LASFDE120:
	.4byte	.Lframe0
	.4byte	.LFB2901
	.4byte	.LFE2901-.LFB2901
	.byte	0x4
	.4byte	.LCFI165-.LFB2901
	.byte	0xe
	.uleb128 0x8
	.byte	0x4
	.4byte	.LCFI166-.LCFI165
	.byte	0x11
	.uleb128 0x41
	.sleb128 -1
	.align 2
.LEFDE120:
.LSFDE122:
	.4byte	.LEFDE122-.LASFDE122
.LASFDE122:
	.4byte	.Lframe0
	.4byte	.LFB2900
	.4byte	.LFE2900-.LFB2900
	.byte	0x4
	.4byte	.LCFI168-.LFB2900
	.byte	0xe
	.uleb128 0x8
	.byte	0x4
	.4byte	.LCFI169-.LCFI168
	.byte	0x11
	.uleb128 0x41
	.sleb128 -1
	.align 2
.LEFDE122:
.LSFDE124:
	.4byte	.LEFDE124-.LASFDE124
.LASFDE124:
	.4byte	.Lframe0
	.4byte	.LFB2899
	.4byte	.LFE2899-.LFB2899
	.byte	0x4
	.4byte	.LCFI171-.LFB2899
	.byte	0xe
	.uleb128 0x8
	.byte	0x4
	.4byte	.LCFI172-.LCFI171
	.byte	0x11
	.uleb128 0x41
	.sleb128 -1
	.align 2
.LEFDE124:
.LSFDE126:
	.4byte	.LEFDE126-.LASFDE126
.LASFDE126:
	.4byte	.Lframe0
	.4byte	.LFB2898
	.4byte	.LFE2898-.LFB2898
	.byte	0x4
	.4byte	.LCFI174-.LFB2898
	.byte	0xe
	.uleb128 0x8
	.byte	0x4
	.4byte	.LCFI175-.LCFI174
	.byte	0x11
	.uleb128 0x41
	.sleb128 -1
	.align 2
.LEFDE126:
.LSFDE128:
	.4byte	.LEFDE128-.LASFDE128
.LASFDE128:
	.4byte	.Lframe0
	.4byte	.LFB2897
	.4byte	.LFE2897-.LFB2897
	.byte	0x4
	.4byte	.LCFI177-.LFB2897
	.byte	0xe
	.uleb128 0x8
	.byte	0x4
	.4byte	.LCFI178-.LCFI177
	.byte	0x11
	.uleb128 0x41
	.sleb128 -1
	.align 2
.LEFDE128:
.LSFDE130:
	.4byte	.LEFDE130-.LASFDE130
.LASFDE130:
	.4byte	.Lframe0
	.4byte	.LFB2896
	.4byte	.LFE2896-.LFB2896
	.byte	0x4
	.4byte	.LCFI180-.LFB2896
	.byte	0xe
	.uleb128 0x8
	.byte	0x4
	.4byte	.LCFI181-.LCFI180
	.byte	0x11
	.uleb128 0x41
	.sleb128 -1
	.align 2
.LEFDE130:
.LSFDE132:
	.4byte	.LEFDE132-.LASFDE132
.LASFDE132:
	.4byte	.Lframe0
	.4byte	.LFB2895
	.4byte	.LFE2895-.LFB2895
	.byte	0x4
	.4byte	.LCFI183-.LFB2895
	.byte	0xe
	.uleb128 0x8
	.byte	0x4
	.4byte	.LCFI184-.LCFI183
	.byte	0x11
	.uleb128 0x41
	.sleb128 -1
	.align 2
.LEFDE132:
.LSFDE134:
	.4byte	.LEFDE134-.LASFDE134
.LASFDE134:
	.4byte	.Lframe0
	.4byte	.LFB2894
	.4byte	.LFE2894-.LFB2894
	.byte	0x4
	.4byte	.LCFI186-.LFB2894
	.byte	0xe
	.uleb128 0x8
	.byte	0x4
	.4byte	.LCFI187-.LCFI186
	.byte	0x11
	.uleb128 0x41
	.sleb128 -1
	.align 2
.LEFDE134:
.LSFDE136:
	.4byte	.LEFDE136-.LASFDE136
.LASFDE136:
	.4byte	.Lframe0
	.4byte	.LFB2893
	.4byte	.LFE2893-.LFB2893
	.byte	0x4
	.4byte	.LCFI189-.LFB2893
	.byte	0xe
	.uleb128 0x8
	.byte	0x4
	.4byte	.LCFI190-.LCFI189
	.byte	0x11
	.uleb128 0x41
	.sleb128 -1
	.align 2
.LEFDE136:
.LSFDE138:
	.4byte	.LEFDE138-.LASFDE138
.LASFDE138:
	.4byte	.Lframe0
	.4byte	.LFB2892
	.4byte	.LFE2892-.LFB2892
	.byte	0x4
	.4byte	.LCFI192-.LFB2892
	.byte	0xe
	.uleb128 0x8
	.byte	0x4
	.4byte	.LCFI193-.LCFI192
	.byte	0x11
	.uleb128 0x41
	.sleb128 -1
	.align 2
.LEFDE138:
.LSFDE140:
	.4byte	.LEFDE140-.LASFDE140
.LASFDE140:
	.4byte	.Lframe0
	.4byte	.LFB2891
	.4byte	.LFE2891-.LFB2891
	.byte	0x4
	.4byte	.LCFI195-.LFB2891
	.byte	0xe
	.uleb128 0x8
	.byte	0x4
	.4byte	.LCFI196-.LCFI195
	.byte	0x11
	.uleb128 0x41
	.sleb128 -1
	.align 2
.LEFDE140:
.LSFDE142:
	.4byte	.LEFDE142-.LASFDE142
.LASFDE142:
	.4byte	.Lframe0
	.4byte	.LFB2890
	.4byte	.LFE2890-.LFB2890
	.byte	0x4
	.4byte	.LCFI198-.LFB2890
	.byte	0xe
	.uleb128 0x8
	.byte	0x4
	.4byte	.LCFI199-.LCFI198
	.byte	0x11
	.uleb128 0x41
	.sleb128 -1
	.align 2
.LEFDE142:
.LSFDE144:
	.4byte	.LEFDE144-.LASFDE144
.LASFDE144:
	.4byte	.Lframe0
	.4byte	.LFB2889
	.4byte	.LFE2889-.LFB2889
	.byte	0x4
	.4byte	.LCFI201-.LFB2889
	.byte	0xe
	.uleb128 0x8
	.byte	0x4
	.4byte	.LCFI202-.LCFI201
	.byte	0x11
	.uleb128 0x41
	.sleb128 -1
	.align 2
.LEFDE144:
.LSFDE146:
	.4byte	.LEFDE146-.LASFDE146
.LASFDE146:
	.4byte	.Lframe0
	.4byte	.LFB2888
	.4byte	.LFE2888-.LFB2888
	.byte	0x4
	.4byte	.LCFI204-.LFB2888
	.byte	0xe
	.uleb128 0x8
	.byte	0x4
	.4byte	.LCFI205-.LCFI204
	.byte	0x11
	.uleb128 0x41
	.sleb128 -1
	.align 2
.LEFDE146:
.LSFDE148:
	.4byte	.LEFDE148-.LASFDE148
.LASFDE148:
	.4byte	.Lframe0
	.4byte	.LFB2887
	.4byte	.LFE2887-.LFB2887
	.byte	0x4
	.4byte	.LCFI207-.LFB2887
	.byte	0xe
	.uleb128 0x8
	.byte	0x4
	.4byte	.LCFI208-.LCFI207
	.byte	0x11
	.uleb128 0x41
	.sleb128 -1
	.align 2
.LEFDE148:
.LSFDE150:
	.4byte	.LEFDE150-.LASFDE150
.LASFDE150:
	.4byte	.Lframe0
	.4byte	.LFB2886
	.4byte	.LFE2886-.LFB2886
	.byte	0x4
	.4byte	.LCFI210-.LFB2886
	.byte	0xe
	.uleb128 0x8
	.byte	0x4
	.4byte	.LCFI211-.LCFI210
	.byte	0x11
	.uleb128 0x41
	.sleb128 -1
	.align 2
.LEFDE150:
.LSFDE152:
	.4byte	.LEFDE152-.LASFDE152
.LASFDE152:
	.4byte	.Lframe0
	.4byte	.LFB2885
	.4byte	.LFE2885-.LFB2885
	.byte	0x4
	.4byte	.LCFI213-.LFB2885
	.byte	0xe
	.uleb128 0x8
	.byte	0x4
	.4byte	.LCFI214-.LCFI213
	.byte	0x11
	.uleb128 0x41
	.sleb128 -1
	.align 2
.LEFDE152:
.LSFDE154:
	.4byte	.LEFDE154-.LASFDE154
.LASFDE154:
	.4byte	.Lframe0
	.4byte	.LFB2884
	.4byte	.LFE2884-.LFB2884
	.byte	0x4
	.4byte	.LCFI216-.LFB2884
	.byte	0xe
	.uleb128 0x8
	.byte	0x4
	.4byte	.LCFI217-.LCFI216
	.byte	0x11
	.uleb128 0x41
	.sleb128 -1
	.align 2
.LEFDE154:
.LSFDE156:
	.4byte	.LEFDE156-.LASFDE156
.LASFDE156:
	.4byte	.Lframe0
	.4byte	.LFB2883
	.4byte	.LFE2883-.LFB2883
	.byte	0x4
	.4byte	.LCFI219-.LFB2883
	.byte	0xe
	.uleb128 0x8
	.byte	0x4
	.4byte	.LCFI220-.LCFI219
	.byte	0x11
	.uleb128 0x41
	.sleb128 -1
	.align 2
.LEFDE156:
.LSFDE158:
	.4byte	.LEFDE158-.LASFDE158
.LASFDE158:
	.4byte	.Lframe0
	.4byte	.LFB2882
	.4byte	.LFE2882-.LFB2882
	.byte	0x4
	.4byte	.LCFI222-.LFB2882
	.byte	0xe
	.uleb128 0x8
	.byte	0x4
	.4byte	.LCFI223-.LCFI222
	.byte	0x11
	.uleb128 0x41
	.sleb128 -1
	.align 2
.LEFDE158:
.LSFDE160:
	.4byte	.LEFDE160-.LASFDE160
.LASFDE160:
	.4byte	.Lframe0
	.4byte	.LFB2881
	.4byte	.LFE2881-.LFB2881
	.byte	0x4
	.4byte	.LCFI225-.LFB2881
	.byte	0xe
	.uleb128 0x8
	.byte	0x4
	.4byte	.LCFI226-.LCFI225
	.byte	0x11
	.uleb128 0x41
	.sleb128 -1
	.align 2
.LEFDE160:
.LSFDE162:
	.4byte	.LEFDE162-.LASFDE162
.LASFDE162:
	.4byte	.Lframe0
	.4byte	.LFB2880
	.4byte	.LFE2880-.LFB2880
	.byte	0x4
	.4byte	.LCFI228-.LFB2880
	.byte	0xe
	.uleb128 0x8
	.byte	0x4
	.4byte	.LCFI229-.LCFI228
	.byte	0x11
	.uleb128 0x41
	.sleb128 -1
	.align 2
.LEFDE162:
.LSFDE164:
	.4byte	.LEFDE164-.LASFDE164
.LASFDE164:
	.4byte	.Lframe0
	.4byte	.LFB2879
	.4byte	.LFE2879-.LFB2879
	.byte	0x4
	.4byte	.LCFI231-.LFB2879
	.byte	0xe
	.uleb128 0x8
	.byte	0x4
	.4byte	.LCFI232-.LCFI231
	.byte	0x11
	.uleb128 0x41
	.sleb128 -1
	.align 2
.LEFDE164:
.LSFDE166:
	.4byte	.LEFDE166-.LASFDE166
.LASFDE166:
	.4byte	.Lframe0
	.4byte	.LFB2878
	.4byte	.LFE2878-.LFB2878
	.byte	0x4
	.4byte	.LCFI234-.LFB2878
	.byte	0xe
	.uleb128 0x8
	.byte	0x4
	.4byte	.LCFI235-.LCFI234
	.byte	0x11
	.uleb128 0x41
	.sleb128 -1
	.align 2
.LEFDE166:
.LSFDE168:
	.4byte	.LEFDE168-.LASFDE168
.LASFDE168:
	.4byte	.Lframe0
	.4byte	.LFB2877
	.4byte	.LFE2877-.LFB2877
	.byte	0x4
	.4byte	.LCFI237-.LFB2877
	.byte	0xe
	.uleb128 0x8
	.byte	0x4
	.4byte	.LCFI238-.LCFI237
	.byte	0x11
	.uleb128 0x41
	.sleb128 -1
	.align 2
.LEFDE168:
.LSFDE170:
	.4byte	.LEFDE170-.LASFDE170
.LASFDE170:
	.4byte	.Lframe0
	.4byte	.LFB2876
	.4byte	.LFE2876-.LFB2876
	.byte	0x4
	.4byte	.LCFI240-.LFB2876
	.byte	0xe
	.uleb128 0x8
	.byte	0x4
	.4byte	.LCFI241-.LCFI240
	.byte	0x11
	.uleb128 0x41
	.sleb128 -1
	.align 2
.LEFDE170:
.LSFDE172:
	.4byte	.LEFDE172-.LASFDE172
.LASFDE172:
	.4byte	.Lframe0
	.4byte	.LFB2875
	.4byte	.LFE2875-.LFB2875
	.byte	0x4
	.4byte	.LCFI243-.LFB2875
	.byte	0xe
	.uleb128 0x8
	.byte	0x4
	.4byte	.LCFI244-.LCFI243
	.byte	0x11
	.uleb128 0x41
	.sleb128 -1
	.align 2
.LEFDE172:
.LSFDE174:
	.4byte	.LEFDE174-.LASFDE174
.LASFDE174:
	.4byte	.Lframe0
	.4byte	.LFB2874
	.4byte	.LFE2874-.LFB2874
	.byte	0x4
	.4byte	.LCFI246-.LFB2874
	.byte	0xe
	.uleb128 0x8
	.byte	0x4
	.4byte	.LCFI247-.LCFI246
	.byte	0x11
	.uleb128 0x41
	.sleb128 -1
	.align 2
.LEFDE174:
.LSFDE176:
	.4byte	.LEFDE176-.LASFDE176
.LASFDE176:
	.4byte	.Lframe0
	.4byte	.LFB2873
	.4byte	.LFE2873-.LFB2873
	.byte	0x4
	.4byte	.LCFI249-.LFB2873
	.byte	0xe
	.uleb128 0x8
	.byte	0x4
	.4byte	.LCFI250-.LCFI249
	.byte	0x11
	.uleb128 0x41
	.sleb128 -1
	.align 2
.LEFDE176:
.LSFDE178:
	.4byte	.LEFDE178-.LASFDE178
.LASFDE178:
	.4byte	.Lframe0
	.4byte	.LFB2872
	.4byte	.LFE2872-.LFB2872
	.byte	0x4
	.4byte	.LCFI252-.LFB2872
	.byte	0xe
	.uleb128 0x8
	.byte	0x4
	.4byte	.LCFI253-.LCFI252
	.byte	0x11
	.uleb128 0x41
	.sleb128 -1
	.align 2
.LEFDE178:
.LSFDE180:
	.4byte	.LEFDE180-.LASFDE180
.LASFDE180:
	.4byte	.Lframe0
	.4byte	.LFB2870
	.4byte	.LFE2870-.LFB2870
	.byte	0x4
	.4byte	.LCFI255-.LFB2870
	.byte	0xe
	.uleb128 0x8
	.byte	0x4
	.4byte	.LCFI256-.LCFI255
	.byte	0x11
	.uleb128 0x41
	.sleb128 -1
	.align 2
.LEFDE180:
.LSFDE182:
	.4byte	.LEFDE182-.LASFDE182
.LASFDE182:
	.4byte	.Lframe0
	.4byte	.LFB2868
	.4byte	.LFE2868-.LFB2868
	.byte	0x4
	.4byte	.LCFI258-.LFB2868
	.byte	0xe
	.uleb128 0x8
	.byte	0x4
	.4byte	.LCFI259-.LCFI258
	.byte	0x11
	.uleb128 0x41
	.sleb128 -1
	.align 2
.LEFDE182:
.LSFDE184:
	.4byte	.LEFDE184-.LASFDE184
.LASFDE184:
	.4byte	.Lframe0
	.4byte	.LFB2867
	.4byte	.LFE2867-.LFB2867
	.byte	0x4
	.4byte	.LCFI261-.LFB2867
	.byte	0xe
	.uleb128 0x8
	.byte	0x4
	.4byte	.LCFI262-.LCFI261
	.byte	0x11
	.uleb128 0x41
	.sleb128 -1
	.align 2
.LEFDE184:
.LSFDE186:
	.4byte	.LEFDE186-.LASFDE186
.LASFDE186:
	.4byte	.Lframe0
	.4byte	.LFB2866
	.4byte	.LFE2866-.LFB2866
	.byte	0x4
	.4byte	.LCFI264-.LFB2866
	.byte	0xe
	.uleb128 0x8
	.byte	0x4
	.4byte	.LCFI265-.LCFI264
	.byte	0x11
	.uleb128 0x41
	.sleb128 -1
	.align 2
.LEFDE186:
.LSFDE188:
	.4byte	.LEFDE188-.LASFDE188
.LASFDE188:
	.4byte	.Lframe0
	.4byte	.LFB2865
	.4byte	.LFE2865-.LFB2865
	.byte	0x4
	.4byte	.LCFI267-.LFB2865
	.byte	0xe
	.uleb128 0x8
	.byte	0x4
	.4byte	.LCFI268-.LCFI267
	.byte	0x11
	.uleb128 0x41
	.sleb128 -1
	.align 2
.LEFDE188:
.LSFDE190:
	.4byte	.LEFDE190-.LASFDE190
.LASFDE190:
	.4byte	.Lframe0
	.4byte	.LFB2864
	.4byte	.LFE2864-.LFB2864
	.byte	0x4
	.4byte	.LCFI270-.LFB2864
	.byte	0xe
	.uleb128 0x8
	.byte	0x4
	.4byte	.LCFI271-.LCFI270
	.byte	0x11
	.uleb128 0x41
	.sleb128 -1
	.align 2
.LEFDE190:
.LSFDE192:
	.4byte	.LEFDE192-.LASFDE192
.LASFDE192:
	.4byte	.Lframe0
	.4byte	.LFB2862
	.4byte	.LFE2862-.LFB2862
	.byte	0x4
	.4byte	.LCFI273-.LFB2862
	.byte	0xe
	.uleb128 0x8
	.byte	0x4
	.4byte	.LCFI274-.LCFI273
	.byte	0x11
	.uleb128 0x41
	.sleb128 -1
	.align 2
.LEFDE192:
.LSFDE194:
	.4byte	.LEFDE194-.LASFDE194
.LASFDE194:
	.4byte	.Lframe0
	.4byte	.LFB2861
	.4byte	.LFE2861-.LFB2861
	.byte	0x4
	.4byte	.LCFI276-.LFB2861
	.byte	0xe
	.uleb128 0x8
	.byte	0x4
	.4byte	.LCFI277-.LCFI276
	.byte	0x11
	.uleb128 0x41
	.sleb128 -1
	.align 2
.LEFDE194:
.LSFDE196:
	.4byte	.LEFDE196-.LASFDE196
.LASFDE196:
	.4byte	.Lframe0
	.4byte	.LFB2860
	.4byte	.LFE2860-.LFB2860
	.byte	0x4
	.4byte	.LCFI279-.LFB2860
	.byte	0xe
	.uleb128 0x8
	.byte	0x4
	.4byte	.LCFI280-.LCFI279
	.byte	0x11
	.uleb128 0x41
	.sleb128 -1
	.align 2
.LEFDE196:
.LSFDE198:
	.4byte	.LEFDE198-.LASFDE198
.LASFDE198:
	.4byte	.Lframe0
	.4byte	.LFB2859
	.4byte	.LFE2859-.LFB2859
	.byte	0x4
	.4byte	.LCFI282-.LFB2859
	.byte	0xe
	.uleb128 0x8
	.byte	0x4
	.4byte	.LCFI283-.LCFI282
	.byte	0x11
	.uleb128 0x41
	.sleb128 -1
	.align 2
.LEFDE198:
.LSFDE200:
	.4byte	.LEFDE200-.LASFDE200
.LASFDE200:
	.4byte	.Lframe0
	.4byte	.LFB2858
	.4byte	.LFE2858-.LFB2858
	.byte	0x4
	.4byte	.LCFI285-.LFB2858
	.byte	0xe
	.uleb128 0x8
	.byte	0x4
	.4byte	.LCFI286-.LCFI285
	.byte	0x11
	.uleb128 0x41
	.sleb128 -1
	.align 2
.LEFDE200:
.LSFDE202:
	.4byte	.LEFDE202-.LASFDE202
.LASFDE202:
	.4byte	.Lframe0
	.4byte	.LFB2857
	.4byte	.LFE2857-.LFB2857
	.byte	0x4
	.4byte	.LCFI288-.LFB2857
	.byte	0xe
	.uleb128 0x8
	.byte	0x4
	.4byte	.LCFI289-.LCFI288
	.byte	0x11
	.uleb128 0x41
	.sleb128 -1
	.align 2
.LEFDE202:
.LSFDE204:
	.4byte	.LEFDE204-.LASFDE204
.LASFDE204:
	.4byte	.Lframe0
	.4byte	.LFB2856
	.4byte	.LFE2856-.LFB2856
	.byte	0x4
	.4byte	.LCFI291-.LFB2856
	.byte	0xe
	.uleb128 0x8
	.byte	0x4
	.4byte	.LCFI292-.LCFI291
	.byte	0x11
	.uleb128 0x41
	.sleb128 -1
	.align 2
.LEFDE204:
.LSFDE206:
	.4byte	.LEFDE206-.LASFDE206
.LASFDE206:
	.4byte	.Lframe0
	.4byte	.LFB2855
	.4byte	.LFE2855-.LFB2855
	.byte	0x4
	.4byte	.LCFI294-.LFB2855
	.byte	0xe
	.uleb128 0x8
	.byte	0x4
	.4byte	.LCFI295-.LCFI294
	.byte	0x11
	.uleb128 0x41
	.sleb128 -1
	.align 2
.LEFDE206:
.LSFDE208:
	.4byte	.LEFDE208-.LASFDE208
.LASFDE208:
	.4byte	.Lframe0
	.4byte	.LFB2854
	.4byte	.LFE2854-.LFB2854
	.byte	0x4
	.4byte	.LCFI297-.LFB2854
	.byte	0xe
	.uleb128 0x8
	.byte	0x4
	.4byte	.LCFI298-.LCFI297
	.byte	0x11
	.uleb128 0x41
	.sleb128 -1
	.align 2
.LEFDE208:
.LSFDE210:
	.4byte	.LEFDE210-.LASFDE210
.LASFDE210:
	.4byte	.Lframe0
	.4byte	.LFB2853
	.4byte	.LFE2853-.LFB2853
	.byte	0x4
	.4byte	.LCFI300-.LFB2853
	.byte	0xe
	.uleb128 0x8
	.byte	0x4
	.4byte	.LCFI301-.LCFI300
	.byte	0x11
	.uleb128 0x41
	.sleb128 -1
	.align 2
.LEFDE210:
.LSFDE212:
	.4byte	.LEFDE212-.LASFDE212
.LASFDE212:
	.4byte	.Lframe0
	.4byte	.LFB2852
	.4byte	.LFE2852-.LFB2852
	.byte	0x4
	.4byte	.LCFI303-.LFB2852
	.byte	0xe
	.uleb128 0x8
	.byte	0x4
	.4byte	.LCFI304-.LCFI303
	.byte	0x11
	.uleb128 0x41
	.sleb128 -1
	.align 2
.LEFDE212:
.LSFDE214:
	.4byte	.LEFDE214-.LASFDE214
.LASFDE214:
	.4byte	.Lframe0
	.4byte	.LFB2851
	.4byte	.LFE2851-.LFB2851
	.byte	0x4
	.4byte	.LCFI306-.LFB2851
	.byte	0xe
	.uleb128 0x8
	.byte	0x4
	.4byte	.LCFI307-.LCFI306
	.byte	0x11
	.uleb128 0x41
	.sleb128 -1
	.align 2
.LEFDE214:
.LSFDE216:
	.4byte	.LEFDE216-.LASFDE216
.LASFDE216:
	.4byte	.Lframe0
	.4byte	.LFB2850
	.4byte	.LFE2850-.LFB2850
	.byte	0x4
	.4byte	.LCFI309-.LFB2850
	.byte	0xe
	.uleb128 0x8
	.byte	0x4
	.4byte	.LCFI310-.LCFI309
	.byte	0x11
	.uleb128 0x41
	.sleb128 -1
	.align 2
.LEFDE216:
.LSFDE218:
	.4byte	.LEFDE218-.LASFDE218
.LASFDE218:
	.4byte	.Lframe0
	.4byte	.LFB2849
	.4byte	.LFE2849-.LFB2849
	.byte	0x4
	.4byte	.LCFI312-.LFB2849
	.byte	0xe
	.uleb128 0x8
	.byte	0x4
	.4byte	.LCFI313-.LCFI312
	.byte	0x11
	.uleb128 0x41
	.sleb128 -1
	.align 2
.LEFDE218:
.LSFDE220:
	.4byte	.LEFDE220-.LASFDE220
.LASFDE220:
	.4byte	.Lframe0
	.4byte	.LFB2848
	.4byte	.LFE2848-.LFB2848
	.byte	0x4
	.4byte	.LCFI315-.LFB2848
	.byte	0xe
	.uleb128 0x8
	.byte	0x4
	.4byte	.LCFI316-.LCFI315
	.byte	0x11
	.uleb128 0x41
	.sleb128 -1
	.align 2
.LEFDE220:
.LSFDE222:
	.4byte	.LEFDE222-.LASFDE222
.LASFDE222:
	.4byte	.Lframe0
	.4byte	.LFB2847
	.4byte	.LFE2847-.LFB2847
	.byte	0x4
	.4byte	.LCFI318-.LFB2847
	.byte	0xe
	.uleb128 0x8
	.byte	0x4
	.4byte	.LCFI319-.LCFI318
	.byte	0x11
	.uleb128 0x41
	.sleb128 -1
	.align 2
.LEFDE222:
.LSFDE224:
	.4byte	.LEFDE224-.LASFDE224
.LASFDE224:
	.4byte	.Lframe0
	.4byte	.LFB2846
	.4byte	.LFE2846-.LFB2846
	.byte	0x4
	.4byte	.LCFI321-.LFB2846
	.byte	0xe
	.uleb128 0x8
	.byte	0x4
	.4byte	.LCFI322-.LCFI321
	.byte	0x11
	.uleb128 0x41
	.sleb128 -1
	.align 2
.LEFDE224:
.LSFDE226:
	.4byte	.LEFDE226-.LASFDE226
.LASFDE226:
	.4byte	.Lframe0
	.4byte	.LFB2845
	.4byte	.LFE2845-.LFB2845
	.byte	0x4
	.4byte	.LCFI324-.LFB2845
	.byte	0xe
	.uleb128 0x8
	.byte	0x4
	.4byte	.LCFI325-.LCFI324
	.byte	0x11
	.uleb128 0x41
	.sleb128 -1
	.align 2
.LEFDE226:
.LSFDE228:
	.4byte	.LEFDE228-.LASFDE228
.LASFDE228:
	.4byte	.Lframe0
	.4byte	.LFB2844
	.4byte	.LFE2844-.LFB2844
	.byte	0x4
	.4byte	.LCFI327-.LFB2844
	.byte	0xe
	.uleb128 0x8
	.byte	0x4
	.4byte	.LCFI328-.LCFI327
	.byte	0x11
	.uleb128 0x41
	.sleb128 -1
	.align 2
.LEFDE228:
.LSFDE230:
	.4byte	.LEFDE230-.LASFDE230
.LASFDE230:
	.4byte	.Lframe0
	.4byte	.LFB2843
	.4byte	.LFE2843-.LFB2843
	.byte	0x4
	.4byte	.LCFI330-.LFB2843
	.byte	0xe
	.uleb128 0x8
	.byte	0x4
	.4byte	.LCFI331-.LCFI330
	.byte	0x11
	.uleb128 0x41
	.sleb128 -1
	.align 2
.LEFDE230:
.LSFDE232:
	.4byte	.LEFDE232-.LASFDE232
.LASFDE232:
	.4byte	.Lframe0
	.4byte	.LFB2842
	.4byte	.LFE2842-.LFB2842
	.byte	0x4
	.4byte	.LCFI333-.LFB2842
	.byte	0xe
	.uleb128 0x8
	.byte	0x4
	.4byte	.LCFI334-.LCFI333
	.byte	0x11
	.uleb128 0x41
	.sleb128 -1
	.align 2
.LEFDE232:
.LSFDE234:
	.4byte	.LEFDE234-.LASFDE234
.LASFDE234:
	.4byte	.Lframe0
	.4byte	.LFB2841
	.4byte	.LFE2841-.LFB2841
	.byte	0x4
	.4byte	.LCFI336-.LFB2841
	.byte	0xe
	.uleb128 0x8
	.byte	0x4
	.4byte	.LCFI337-.LCFI336
	.byte	0x11
	.uleb128 0x41
	.sleb128 -1
	.align 2
.LEFDE234:
.LSFDE236:
	.4byte	.LEFDE236-.LASFDE236
.LASFDE236:
	.4byte	.Lframe0
	.4byte	.LFB2840
	.4byte	.LFE2840-.LFB2840
	.byte	0x4
	.4byte	.LCFI339-.LFB2840
	.byte	0xe
	.uleb128 0x8
	.byte	0x4
	.4byte	.LCFI340-.LCFI339
	.byte	0x11
	.uleb128 0x41
	.sleb128 -1
	.align 2
.LEFDE236:
.LSFDE238:
	.4byte	.LEFDE238-.LASFDE238
.LASFDE238:
	.4byte	.Lframe0
	.4byte	.LFB2839
	.4byte	.LFE2839-.LFB2839
	.byte	0x4
	.4byte	.LCFI342-.LFB2839
	.byte	0xe
	.uleb128 0x8
	.byte	0x4
	.4byte	.LCFI343-.LCFI342
	.byte	0x11
	.uleb128 0x41
	.sleb128 -1
	.align 2
.LEFDE238:
.LSFDE240:
	.4byte	.LEFDE240-.LASFDE240
.LASFDE240:
	.4byte	.Lframe0
	.4byte	.LFB2838
	.4byte	.LFE2838-.LFB2838
	.byte	0x4
	.4byte	.LCFI345-.LFB2838
	.byte	0xe
	.uleb128 0x8
	.byte	0x4
	.4byte	.LCFI346-.LCFI345
	.byte	0x11
	.uleb128 0x41
	.sleb128 -1
	.align 2
.LEFDE240:
.LSFDE242:
	.4byte	.LEFDE242-.LASFDE242
.LASFDE242:
	.4byte	.Lframe0
	.4byte	.LFB2837
	.4byte	.LFE2837-.LFB2837
	.byte	0x4
	.4byte	.LCFI348-.LFB2837
	.byte	0xe
	.uleb128 0x8
	.byte	0x4
	.4byte	.LCFI349-.LCFI348
	.byte	0x11
	.uleb128 0x41
	.sleb128 -1
	.align 2
.LEFDE242:
.LSFDE244:
	.4byte	.LEFDE244-.LASFDE244
.LASFDE244:
	.4byte	.Lframe0
	.4byte	.LFB2836
	.4byte	.LFE2836-.LFB2836
	.byte	0x4
	.4byte	.LCFI351-.LFB2836
	.byte	0xe
	.uleb128 0x8
	.byte	0x4
	.4byte	.LCFI352-.LCFI351
	.byte	0x11
	.uleb128 0x41
	.sleb128 -1
	.align 2
.LEFDE244:
.LSFDE246:
	.4byte	.LEFDE246-.LASFDE246
.LASFDE246:
	.4byte	.Lframe0
	.4byte	.LFB2835
	.4byte	.LFE2835-.LFB2835
	.byte	0x4
	.4byte	.LCFI354-.LFB2835
	.byte	0xe
	.uleb128 0x8
	.byte	0x4
	.4byte	.LCFI355-.LCFI354
	.byte	0x11
	.uleb128 0x41
	.sleb128 -1
	.align 2
.LEFDE246:
.LSFDE248:
	.4byte	.LEFDE248-.LASFDE248
.LASFDE248:
	.4byte	.Lframe0
	.4byte	.LFB2834
	.4byte	.LFE2834-.LFB2834
	.byte	0x4
	.4byte	.LCFI357-.LFB2834
	.byte	0xe
	.uleb128 0x8
	.byte	0x4
	.4byte	.LCFI358-.LCFI357
	.byte	0x11
	.uleb128 0x41
	.sleb128 -1
	.align 2
.LEFDE248:
.LSFDE250:
	.4byte	.LEFDE250-.LASFDE250
.LASFDE250:
	.4byte	.Lframe0
	.4byte	.LFB2833
	.4byte	.LFE2833-.LFB2833
	.byte	0x4
	.4byte	.LCFI360-.LFB2833
	.byte	0xe
	.uleb128 0x8
	.byte	0x4
	.4byte	.LCFI361-.LCFI360
	.byte	0x11
	.uleb128 0x41
	.sleb128 -1
	.align 2
.LEFDE250:
.LSFDE252:
	.4byte	.LEFDE252-.LASFDE252
.LASFDE252:
	.4byte	.Lframe0
	.4byte	.LFB2832
	.4byte	.LFE2832-.LFB2832
	.byte	0x4
	.4byte	.LCFI363-.LFB2832
	.byte	0xe
	.uleb128 0x8
	.byte	0x4
	.4byte	.LCFI364-.LCFI363
	.byte	0x11
	.uleb128 0x41
	.sleb128 -1
	.align 2
.LEFDE252:
.LSFDE254:
	.4byte	.LEFDE254-.LASFDE254
.LASFDE254:
	.4byte	.Lframe0
	.4byte	.LFB2831
	.4byte	.LFE2831-.LFB2831
	.byte	0x4
	.4byte	.LCFI366-.LFB2831
	.byte	0xe
	.uleb128 0x8
	.byte	0x4
	.4byte	.LCFI367-.LCFI366
	.byte	0x11
	.uleb128 0x41
	.sleb128 -1
	.align 2
.LEFDE254:
.LSFDE256:
	.4byte	.LEFDE256-.LASFDE256
.LASFDE256:
	.4byte	.Lframe0
	.4byte	.LFB2830
	.4byte	.LFE2830-.LFB2830
	.byte	0x4
	.4byte	.LCFI368-.LFB2830
	.byte	0xe
	.uleb128 0x18
	.byte	0x4
	.4byte	.LCFI370-.LCFI368
	.byte	0x9d
	.uleb128 0x3
	.byte	0x9
	.uleb128 0x41
	.uleb128 0x0
	.byte	0x4
	.4byte	.LCFI371-.LCFI370
	.byte	0x11
	.uleb128 0x41
	.sleb128 -1
	.align 2
.LEFDE256:
.LSFDE258:
	.4byte	.LEFDE258-.LASFDE258
.LASFDE258:
	.4byte	.Lframe0
	.4byte	.LFB2829
	.4byte	.LFE2829-.LFB2829
	.byte	0x4
	.4byte	.LCFI373-.LFB2829
	.byte	0xe
	.uleb128 0x8
	.byte	0x4
	.4byte	.LCFI374-.LCFI373
	.byte	0x11
	.uleb128 0x41
	.sleb128 -1
	.align 2
.LEFDE258:
.LSFDE260:
	.4byte	.LEFDE260-.LASFDE260
.LASFDE260:
	.4byte	.Lframe0
	.4byte	.LFB2828
	.4byte	.LFE2828-.LFB2828
	.byte	0x4
	.4byte	.LCFI376-.LFB2828
	.byte	0xe
	.uleb128 0x8
	.byte	0x4
	.4byte	.LCFI377-.LCFI376
	.byte	0x11
	.uleb128 0x41
	.sleb128 -1
	.align 2
.LEFDE260:
.LSFDE262:
	.4byte	.LEFDE262-.LASFDE262
.LASFDE262:
	.4byte	.Lframe0
	.4byte	.LFB2827
	.4byte	.LFE2827-.LFB2827
	.byte	0x4
	.4byte	.LCFI379-.LFB2827
	.byte	0xe
	.uleb128 0x8
	.byte	0x4
	.4byte	.LCFI380-.LCFI379
	.byte	0x11
	.uleb128 0x41
	.sleb128 -1
	.align 2
.LEFDE262:
.LSFDE264:
	.4byte	.LEFDE264-.LASFDE264
.LASFDE264:
	.4byte	.Lframe0
	.4byte	.LFB2826
	.4byte	.LFE2826-.LFB2826
	.byte	0x4
	.4byte	.LCFI382-.LFB2826
	.byte	0xe
	.uleb128 0x8
	.byte	0x4
	.4byte	.LCFI383-.LCFI382
	.byte	0x11
	.uleb128 0x41
	.sleb128 -1
	.align 2
.LEFDE264:
.LSFDE266:
	.4byte	.LEFDE266-.LASFDE266
.LASFDE266:
	.4byte	.Lframe0
	.4byte	.LFB2801
	.4byte	.LFE2801-.LFB2801
	.byte	0x4
	.4byte	.LCFI385-.LFB2801
	.byte	0xe
	.uleb128 0x8
	.byte	0x4
	.4byte	.LCFI386-.LCFI385
	.byte	0x11
	.uleb128 0x41
	.sleb128 -1
	.align 2
.LEFDE266:
.LSFDE268:
	.4byte	.LEFDE268-.LASFDE268
.LASFDE268:
	.4byte	.Lframe0
	.4byte	.LFB2800
	.4byte	.LFE2800-.LFB2800
	.byte	0x4
	.4byte	.LCFI388-.LFB2800
	.byte	0xe
	.uleb128 0x8
	.byte	0x4
	.4byte	.LCFI389-.LCFI388
	.byte	0x11
	.uleb128 0x41
	.sleb128 -1
	.align 2
.LEFDE268:
.LSFDE270:
	.4byte	.LEFDE270-.LASFDE270
.LASFDE270:
	.4byte	.Lframe0
	.4byte	.LFB2906
	.4byte	.LFE2906-.LFB2906
	.byte	0x4
	.4byte	.LCFI391-.LFB2906
	.byte	0xe
	.uleb128 0x28
	.byte	0x4
	.4byte	.LCFI393-.LCFI391
	.byte	0x9c
	.uleb128 0x4
	.byte	0x99
	.uleb128 0x7
	.byte	0x9
	.uleb128 0x41
	.uleb128 0x0
	.byte	0x4
	.4byte	.LCFI395-.LCFI393
	.byte	0x9a
	.uleb128 0x6
	.byte	0x9d
	.uleb128 0x3
	.byte	0x4
	.4byte	.LCFI399-.LCFI395
	.byte	0x11
	.uleb128 0x41
	.sleb128 -1
	.byte	0x9f
	.uleb128 0x1
	.byte	0x9e
	.uleb128 0x2
	.byte	0x9b
	.uleb128 0x5
	.align 2
.LEFDE270:
.LSFDE272:
	.4byte	.LEFDE272-.LASFDE272
.LASFDE272:
	.4byte	.Lframe0
	.4byte	.LFB2871
	.4byte	.LFE2871-.LFB2871
	.byte	0x4
	.4byte	.LCFI401-.LFB2871
	.byte	0xe
	.uleb128 0x18
	.byte	0x4
	.4byte	.LCFI402-.LCFI401
	.byte	0x9d
	.uleb128 0x3
	.byte	0x9
	.uleb128 0x41
	.uleb128 0x0
	.byte	0x4
	.4byte	.LCFI403-.LCFI402
	.byte	0x11
	.uleb128 0x41
	.sleb128 -1
	.align 2
.LEFDE272:
.LSFDE274:
	.4byte	.LEFDE274-.LASFDE274
.LASFDE274:
	.4byte	.Lframe0
	.4byte	.LFB2863
	.4byte	.LFE2863-.LFB2863
	.byte	0x4
	.4byte	.LCFI405-.LFB2863
	.byte	0xe
	.uleb128 0x18
	.byte	0x4
	.4byte	.LCFI406-.LCFI405
	.byte	0x11
	.uleb128 0x41
	.sleb128 -1
	.align 2
.LEFDE274:
.LSFDE276:
	.4byte	.LEFDE276-.LASFDE276
.LASFDE276:
	.4byte	.Lframe0
	.4byte	.LFB1501
	.4byte	.LFE1501-.LFB1501
	.align 2
.LEFDE276:
.LSFDE278:
	.4byte	.LEFDE278-.LASFDE278
.LASFDE278:
	.4byte	.Lframe0
	.4byte	.LFB1932
	.4byte	.LFE1932-.LFB1932
	.byte	0x4
	.4byte	.LCFI407-.LFB1932
	.byte	0xe
	.uleb128 0x20
	.byte	0x4
	.4byte	.LCFI409-.LCFI407
	.byte	0x9c
	.uleb128 0x4
	.byte	0x9
	.uleb128 0x41
	.uleb128 0x0
	.byte	0x4
	.4byte	.LCFI410-.LCFI409
	.byte	0x9d
	.uleb128 0x3
	.byte	0x4
	.4byte	.LCFI411-.LCFI410
	.byte	0x9b
	.uleb128 0x5
	.byte	0x4
	.4byte	.LCFI412-.LCFI411
	.byte	0x9f
	.uleb128 0x1
	.byte	0x4
	.4byte	.LCFI414-.LCFI412
	.byte	0x11
	.uleb128 0x41
	.sleb128 -1
	.byte	0x9e
	.uleb128 0x2
	.align 2
.LEFDE278:
.LSFDE280:
	.4byte	.LEFDE280-.LASFDE280
.LASFDE280:
	.4byte	.Lframe0
	.4byte	.LFB1938
	.4byte	.LFE1938-.LFB1938
	.byte	0x4
	.4byte	.LCFI416-.LFB1938
	.byte	0xe
	.uleb128 0x10
	.byte	0x4
	.4byte	.LCFI417-.LCFI416
	.byte	0x9f
	.uleb128 0x1
	.byte	0x9
	.uleb128 0x41
	.uleb128 0x0
	.byte	0x4
	.4byte	.LCFI419-.LCFI417
	.byte	0x11
	.uleb128 0x41
	.sleb128 -1
	.byte	0x9e
	.uleb128 0x2
	.align 2
.LEFDE280:
.LSFDE282:
	.4byte	.LEFDE282-.LASFDE282
.LASFDE282:
	.4byte	.Lframe0
	.4byte	.LFB2825
	.4byte	.LFE2825-.LFB2825
	.byte	0x4
	.4byte	.LCFI420-.LFB2825
	.byte	0xe
	.uleb128 0x60
	.byte	0x4
	.4byte	.LCFI423-.LCFI420
	.byte	0x9e
	.uleb128 0x2
	.byte	0x9c
	.uleb128 0x4
	.byte	0x9
	.uleb128 0x41
	.uleb128 0x0
	.byte	0x4
	.4byte	.LCFI425-.LCFI423
	.byte	0x9d
	.uleb128 0x3
	.byte	0x97
	.uleb128 0x9
	.byte	0x4
	.4byte	.LCFI440-.LCFI425
	.byte	0x11
	.uleb128 0x41
	.sleb128 -1
	.byte	0x9f
	.uleb128 0x1
	.byte	0x9b
	.uleb128 0x5
	.byte	0x9a
	.uleb128 0x6
	.byte	0x99
	.uleb128 0x7
	.byte	0x98
	.uleb128 0x8
	.byte	0x96
	.uleb128 0xa
	.byte	0x95
	.uleb128 0xb
	.byte	0x94
	.uleb128 0xc
	.byte	0x93
	.uleb128 0xd
	.byte	0x92
	.uleb128 0xe
	.byte	0x91
	.uleb128 0xf
	.byte	0x90
	.uleb128 0x10
	.byte	0x8f
	.uleb128 0x11
	.byte	0x8e
	.uleb128 0x12
	.align 2
.LEFDE282:
.LSFDE284:
	.4byte	.LEFDE284-.LASFDE284
.LASFDE284:
	.4byte	.Lframe0
	.4byte	.LFB3255
	.4byte	.LFE3255-.LFB3255
	.byte	0x4
	.4byte	.LCFI442-.LFB3255
	.byte	0xe
	.uleb128 0x28
	.byte	0x4
	.4byte	.LCFI445-.LCFI442
	.byte	0x9d
	.uleb128 0x3
	.byte	0x9c
	.uleb128 0x4
	.byte	0x11
	.uleb128 0x41
	.sleb128 -1
	.align 2
.LEFDE284:
.LSFDE286:
	.4byte	.LEFDE286-.LASFDE286
.LASFDE286:
	.4byte	.Lframe0
	.4byte	.LFB3285
	.4byte	.LFE3285-.LFB3285
	.align 2
.LEFDE286:
.LSFDE288:
	.4byte	.LEFDE288-.LASFDE288
.LASFDE288:
	.4byte	.Lframe0
	.4byte	.LFB2824
	.4byte	.LFE2824-.LFB2824
	.byte	0x4
	.4byte	.LCFI446-.LFB2824
	.byte	0xe
	.uleb128 0x60
	.byte	0x4
	.4byte	.LCFI449-.LCFI446
	.byte	0x9e
	.uleb128 0x2
	.byte	0x9c
	.uleb128 0x4
	.byte	0x9
	.uleb128 0x41
	.uleb128 0x0
	.byte	0x4
	.4byte	.LCFI451-.LCFI449
	.byte	0x9d
	.uleb128 0x3
	.byte	0x97
	.uleb128 0x9
	.byte	0x4
	.4byte	.LCFI466-.LCFI451
	.byte	0x11
	.uleb128 0x41
	.sleb128 -1
	.byte	0x9f
	.uleb128 0x1
	.byte	0x9b
	.uleb128 0x5
	.byte	0x9a
	.uleb128 0x6
	.byte	0x99
	.uleb128 0x7
	.byte	0x98
	.uleb128 0x8
	.byte	0x96
	.uleb128 0xa
	.byte	0x95
	.uleb128 0xb
	.byte	0x94
	.uleb128 0xc
	.byte	0x93
	.uleb128 0xd
	.byte	0x92
	.uleb128 0xe
	.byte	0x91
	.uleb128 0xf
	.byte	0x90
	.uleb128 0x10
	.byte	0x8f
	.uleb128 0x11
	.byte	0x8e
	.uleb128 0x12
	.align 2
.LEFDE288:
.LSFDE290:
	.4byte	.LEFDE290-.LASFDE290
.LASFDE290:
	.4byte	.Lframe0
	.4byte	.LFB3261
	.4byte	.LFE3261-.LFB3261
	.byte	0x4
	.4byte	.LCFI468-.LFB3261
	.byte	0xe
	.uleb128 0x20
	.byte	0x4
	.4byte	.LCFI470-.LCFI468
	.byte	0x9e
	.uleb128 0x2
	.byte	0x9c
	.uleb128 0x4
	.byte	0x9
	.uleb128 0x41
	.uleb128 0x0
	.byte	0x4
	.4byte	.LCFI474-.LCFI470
	.byte	0x11
	.uleb128 0x41
	.sleb128 -1
	.byte	0x9f
	.uleb128 0x1
	.byte	0x9d
	.uleb128 0x3
	.byte	0x9b
	.uleb128 0x5
	.align 2
.LEFDE290:
.LSFDE292:
	.4byte	.LEFDE292-.LASFDE292
.LASFDE292:
	.4byte	.Lframe0
	.4byte	.LFB3260
	.4byte	.LFE3260-.LFB3260
	.byte	0x4
	.4byte	.LCFI476-.LFB3260
	.byte	0xe
	.uleb128 0x20
	.byte	0x4
	.4byte	.LCFI478-.LCFI476
	.byte	0x9e
	.uleb128 0x2
	.byte	0x9c
	.uleb128 0x4
	.byte	0x9
	.uleb128 0x41
	.uleb128 0x0
	.byte	0x4
	.4byte	.LCFI482-.LCFI478
	.byte	0x11
	.uleb128 0x41
	.sleb128 -1
	.byte	0x9f
	.uleb128 0x1
	.byte	0x9d
	.uleb128 0x3
	.byte	0x9b
	.uleb128 0x5
	.align 2
.LEFDE292:
.LSFDE294:
	.4byte	.LEFDE294-.LASFDE294
.LASFDE294:
	.4byte	.Lframe0
	.4byte	.LFB3257
	.4byte	.LFE3257-.LFB3257
	.byte	0x4
	.4byte	.LCFI484-.LFB3257
	.byte	0xe
	.uleb128 0x8
	.byte	0x4
	.4byte	.LCFI485-.LCFI484
	.byte	0x11
	.uleb128 0x41
	.sleb128 -1
	.align 2
.LEFDE294:
	.section	.eh_frame,"a",@progbits
.Lframe1:
	.4byte	.LECIE1-.LSCIE1
.LSCIE1:
	.4byte	0x0
	.byte	0x1
	.string	"zPL"
	.uleb128 0x1
	.sleb128 -4
	.byte	0x41
	.uleb128 0x6
	.byte	0x0
	.4byte	__gxx_personality_v0
	.byte	0x0
	.byte	0xc
	.uleb128 0x1
	.uleb128 0x0
	.align 2
.LECIE1:
.LSFDE43:
	.4byte	.LEFDE43-.LASFDE43
.LASFDE43:
	.4byte	.LASFDE43-.Lframe1
	.4byte	.LFB3256
	.4byte	.LFE3256-.LFB3256
	.uleb128 0x4
	.4byte	0x0
	.byte	0x4
	.4byte	.LCFI48-.LFB3256
	.byte	0xe
	.uleb128 0x8
	.byte	0x4
	.4byte	.LCFI49-.LCFI48
	.byte	0x11
	.uleb128 0x41
	.sleb128 -1
	.align 2
.LEFDE43:
.LSFDE45:
	.4byte	.LEFDE45-.LASFDE45
.LASFDE45:
	.4byte	.LASFDE45-.Lframe1
	.4byte	.LFB2940
	.4byte	.LFE2940-.LFB2940
	.uleb128 0x4
	.4byte	0x0
	.byte	0x4
	.4byte	.LCFI51-.LFB2940
	.byte	0xe
	.uleb128 0x8
	.byte	0x4
	.4byte	.LCFI52-.LCFI51
	.byte	0x11
	.uleb128 0x41
	.sleb128 -1
	.align 2
.LEFDE45:
.LSFDE47:
	.4byte	.LEFDE47-.LASFDE47
.LASFDE47:
	.4byte	.LASFDE47-.Lframe1
	.4byte	.LFB2939
	.4byte	.LFE2939-.LFB2939
	.uleb128 0x4
	.4byte	0x0
	.byte	0x4
	.4byte	.LCFI54-.LFB2939
	.byte	0xe
	.uleb128 0x8
	.byte	0x4
	.4byte	.LCFI55-.LCFI54
	.byte	0x11
	.uleb128 0x41
	.sleb128 -1
	.align 2
.LEFDE47:
.LSFDE49:
	.4byte	.LEFDE49-.LASFDE49
.LASFDE49:
	.4byte	.LASFDE49-.Lframe1
	.4byte	.LFB2938
	.4byte	.LFE2938-.LFB2938
	.uleb128 0x4
	.4byte	0x0
	.byte	0x4
	.4byte	.LCFI57-.LFB2938
	.byte	0xe
	.uleb128 0x8
	.byte	0x4
	.4byte	.LCFI58-.LCFI57
	.byte	0x11
	.uleb128 0x41
	.sleb128 -1
	.align 2
.LEFDE49:
.LSFDE51:
	.4byte	.LEFDE51-.LASFDE51
.LASFDE51:
	.4byte	.LASFDE51-.Lframe1
	.4byte	.LFB2937
	.4byte	.LFE2937-.LFB2937
	.uleb128 0x4
	.4byte	0x0
	.byte	0x4
	.4byte	.LCFI60-.LFB2937
	.byte	0xe
	.uleb128 0x8
	.byte	0x4
	.4byte	.LCFI61-.LCFI60
	.byte	0x11
	.uleb128 0x41
	.sleb128 -1
	.align 2
.LEFDE51:
.LSFDE53:
	.4byte	.LEFDE53-.LASFDE53
.LASFDE53:
	.4byte	.LASFDE53-.Lframe1
	.4byte	.LFB2936
	.4byte	.LFE2936-.LFB2936
	.uleb128 0x4
	.4byte	0x0
	.byte	0x4
	.4byte	.LCFI63-.LFB2936
	.byte	0xe
	.uleb128 0x8
	.byte	0x4
	.4byte	.LCFI64-.LCFI63
	.byte	0x11
	.uleb128 0x41
	.sleb128 -1
	.align 2
.LEFDE53:
.LSFDE55:
	.4byte	.LEFDE55-.LASFDE55
.LASFDE55:
	.4byte	.LASFDE55-.Lframe1
	.4byte	.LFB2935
	.4byte	.LFE2935-.LFB2935
	.uleb128 0x4
	.4byte	0x0
	.byte	0x4
	.4byte	.LCFI66-.LFB2935
	.byte	0xe
	.uleb128 0x8
	.byte	0x4
	.4byte	.LCFI67-.LCFI66
	.byte	0x11
	.uleb128 0x41
	.sleb128 -1
	.align 2
.LEFDE55:
.LSFDE57:
	.4byte	.LEFDE57-.LASFDE57
.LASFDE57:
	.4byte	.LASFDE57-.Lframe1
	.4byte	.LFB2934
	.4byte	.LFE2934-.LFB2934
	.uleb128 0x4
	.4byte	0x0
	.byte	0x4
	.4byte	.LCFI69-.LFB2934
	.byte	0xe
	.uleb128 0x8
	.byte	0x4
	.4byte	.LCFI70-.LCFI69
	.byte	0x11
	.uleb128 0x41
	.sleb128 -1
	.align 2
.LEFDE57:
.LSFDE59:
	.4byte	.LEFDE59-.LASFDE59
.LASFDE59:
	.4byte	.LASFDE59-.Lframe1
	.4byte	.LFB2933
	.4byte	.LFE2933-.LFB2933
	.uleb128 0x4
	.4byte	0x0
	.byte	0x4
	.4byte	.LCFI72-.LFB2933
	.byte	0xe
	.uleb128 0x8
	.byte	0x4
	.4byte	.LCFI73-.LCFI72
	.byte	0x11
	.uleb128 0x41
	.sleb128 -1
	.align 2
.LEFDE59:
.LSFDE61:
	.4byte	.LEFDE61-.LASFDE61
.LASFDE61:
	.4byte	.LASFDE61-.Lframe1
	.4byte	.LFB2932
	.4byte	.LFE2932-.LFB2932
	.uleb128 0x4
	.4byte	0x0
	.byte	0x4
	.4byte	.LCFI75-.LFB2932
	.byte	0xe
	.uleb128 0x8
	.byte	0x4
	.4byte	.LCFI76-.LCFI75
	.byte	0x11
	.uleb128 0x41
	.sleb128 -1
	.align 2
.LEFDE61:
.LSFDE63:
	.4byte	.LEFDE63-.LASFDE63
.LASFDE63:
	.4byte	.LASFDE63-.Lframe1
	.4byte	.LFB2931
	.4byte	.LFE2931-.LFB2931
	.uleb128 0x4
	.4byte	0x0
	.byte	0x4
	.4byte	.LCFI78-.LFB2931
	.byte	0xe
	.uleb128 0x8
	.byte	0x4
	.4byte	.LCFI79-.LCFI78
	.byte	0x11
	.uleb128 0x41
	.sleb128 -1
	.align 2
.LEFDE63:
.LSFDE65:
	.4byte	.LEFDE65-.LASFDE65
.LASFDE65:
	.4byte	.LASFDE65-.Lframe1
	.4byte	.LFB2930
	.4byte	.LFE2930-.LFB2930
	.uleb128 0x4
	.4byte	0x0
	.byte	0x4
	.4byte	.LCFI81-.LFB2930
	.byte	0xe
	.uleb128 0x8
	.byte	0x4
	.4byte	.LCFI82-.LCFI81
	.byte	0x11
	.uleb128 0x41
	.sleb128 -1
	.align 2
.LEFDE65:
.LSFDE67:
	.4byte	.LEFDE67-.LASFDE67
.LASFDE67:
	.4byte	.LASFDE67-.Lframe1
	.4byte	.LFB2929
	.4byte	.LFE2929-.LFB2929
	.uleb128 0x4
	.4byte	0x0
	.byte	0x4
	.4byte	.LCFI84-.LFB2929
	.byte	0xe
	.uleb128 0x8
	.byte	0x4
	.4byte	.LCFI85-.LCFI84
	.byte	0x11
	.uleb128 0x41
	.sleb128 -1
	.align 2
.LEFDE67:
.LSFDE69:
	.4byte	.LEFDE69-.LASFDE69
.LASFDE69:
	.4byte	.LASFDE69-.Lframe1
	.4byte	.LFB2928
	.4byte	.LFE2928-.LFB2928
	.uleb128 0x4
	.4byte	0x0
	.byte	0x4
	.4byte	.LCFI87-.LFB2928
	.byte	0xe
	.uleb128 0x8
	.byte	0x4
	.4byte	.LCFI88-.LCFI87
	.byte	0x11
	.uleb128 0x41
	.sleb128 -1
	.align 2
.LEFDE69:
.LSFDE71:
	.4byte	.LEFDE71-.LASFDE71
.LASFDE71:
	.4byte	.LASFDE71-.Lframe1
	.4byte	.LFB2927
	.4byte	.LFE2927-.LFB2927
	.uleb128 0x4
	.4byte	0x0
	.byte	0x4
	.4byte	.LCFI90-.LFB2927
	.byte	0xe
	.uleb128 0x8
	.byte	0x4
	.4byte	.LCFI91-.LCFI90
	.byte	0x11
	.uleb128 0x41
	.sleb128 -1
	.align 2
.LEFDE71:
.LSFDE73:
	.4byte	.LEFDE73-.LASFDE73
.LASFDE73:
	.4byte	.LASFDE73-.Lframe1
	.4byte	.LFB2926
	.4byte	.LFE2926-.LFB2926
	.uleb128 0x4
	.4byte	0x0
	.byte	0x4
	.4byte	.LCFI93-.LFB2926
	.byte	0xe
	.uleb128 0x8
	.byte	0x4
	.4byte	.LCFI94-.LCFI93
	.byte	0x11
	.uleb128 0x41
	.sleb128 -1
	.align 2
.LEFDE73:
.LSFDE75:
	.4byte	.LEFDE75-.LASFDE75
.LASFDE75:
	.4byte	.LASFDE75-.Lframe1
	.4byte	.LFB2925
	.4byte	.LFE2925-.LFB2925
	.uleb128 0x4
	.4byte	0x0
	.byte	0x4
	.4byte	.LCFI96-.LFB2925
	.byte	0xe
	.uleb128 0x8
	.byte	0x4
	.4byte	.LCFI97-.LCFI96
	.byte	0x11
	.uleb128 0x41
	.sleb128 -1
	.align 2
.LEFDE75:
.LSFDE77:
	.4byte	.LEFDE77-.LASFDE77
.LASFDE77:
	.4byte	.LASFDE77-.Lframe1
	.4byte	.LFB2924
	.4byte	.LFE2924-.LFB2924
	.uleb128 0x4
	.4byte	0x0
	.byte	0x4
	.4byte	.LCFI99-.LFB2924
	.byte	0xe
	.uleb128 0x8
	.byte	0x4
	.4byte	.LCFI100-.LCFI99
	.byte	0x11
	.uleb128 0x41
	.sleb128 -1
	.align 2
.LEFDE77:
.LSFDE79:
	.4byte	.LEFDE79-.LASFDE79
.LASFDE79:
	.4byte	.LASFDE79-.Lframe1
	.4byte	.LFB2923
	.4byte	.LFE2923-.LFB2923
	.uleb128 0x4
	.4byte	0x0
	.byte	0x4
	.4byte	.LCFI102-.LFB2923
	.byte	0xe
	.uleb128 0x8
	.byte	0x4
	.4byte	.LCFI103-.LCFI102
	.byte	0x11
	.uleb128 0x41
	.sleb128 -1
	.align 2
.LEFDE79:
.LSFDE81:
	.4byte	.LEFDE81-.LASFDE81
.LASFDE81:
	.4byte	.LASFDE81-.Lframe1
	.4byte	.LFB2922
	.4byte	.LFE2922-.LFB2922
	.uleb128 0x4
	.4byte	0x0
	.byte	0x4
	.4byte	.LCFI105-.LFB2922
	.byte	0xe
	.uleb128 0x8
	.byte	0x4
	.4byte	.LCFI106-.LCFI105
	.byte	0x11
	.uleb128 0x41
	.sleb128 -1
	.align 2
.LEFDE81:
.LSFDE83:
	.4byte	.LEFDE83-.LASFDE83
.LASFDE83:
	.4byte	.LASFDE83-.Lframe1
	.4byte	.LFB2921
	.4byte	.LFE2921-.LFB2921
	.uleb128 0x4
	.4byte	0x0
	.byte	0x4
	.4byte	.LCFI108-.LFB2921
	.byte	0xe
	.uleb128 0x8
	.byte	0x4
	.4byte	.LCFI109-.LCFI108
	.byte	0x11
	.uleb128 0x41
	.sleb128 -1
	.align 2
.LEFDE83:
.LSFDE85:
	.4byte	.LEFDE85-.LASFDE85
.LASFDE85:
	.4byte	.LASFDE85-.Lframe1
	.4byte	.LFB2920
	.4byte	.LFE2920-.LFB2920
	.uleb128 0x4
	.4byte	0x0
	.byte	0x4
	.4byte	.LCFI111-.LFB2920
	.byte	0xe
	.uleb128 0x8
	.byte	0x4
	.4byte	.LCFI112-.LCFI111
	.byte	0x11
	.uleb128 0x41
	.sleb128 -1
	.align 2
.LEFDE85:
.LSFDE87:
	.4byte	.LEFDE87-.LASFDE87
.LASFDE87:
	.4byte	.LASFDE87-.Lframe1
	.4byte	.LFB2919
	.4byte	.LFE2919-.LFB2919
	.uleb128 0x4
	.4byte	0x0
	.byte	0x4
	.4byte	.LCFI114-.LFB2919
	.byte	0xe
	.uleb128 0x8
	.byte	0x4
	.4byte	.LCFI115-.LCFI114
	.byte	0x11
	.uleb128 0x41
	.sleb128 -1
	.align 2
.LEFDE87:
.LSFDE89:
	.4byte	.LEFDE89-.LASFDE89
.LASFDE89:
	.4byte	.LASFDE89-.Lframe1
	.4byte	.LFB2918
	.4byte	.LFE2918-.LFB2918
	.uleb128 0x4
	.4byte	0x0
	.byte	0x4
	.4byte	.LCFI117-.LFB2918
	.byte	0xe
	.uleb128 0x8
	.byte	0x4
	.4byte	.LCFI118-.LCFI117
	.byte	0x11
	.uleb128 0x41
	.sleb128 -1
	.align 2
.LEFDE89:
.LSFDE91:
	.4byte	.LEFDE91-.LASFDE91
.LASFDE91:
	.4byte	.LASFDE91-.Lframe1
	.4byte	.LFB2917
	.4byte	.LFE2917-.LFB2917
	.uleb128 0x4
	.4byte	0x0
	.byte	0x4
	.4byte	.LCFI120-.LFB2917
	.byte	0xe
	.uleb128 0x8
	.byte	0x4
	.4byte	.LCFI121-.LCFI120
	.byte	0x11
	.uleb128 0x41
	.sleb128 -1
	.align 2
.LEFDE91:
.LSFDE93:
	.4byte	.LEFDE93-.LASFDE93
.LASFDE93:
	.4byte	.LASFDE93-.Lframe1
	.4byte	.LFB2916
	.4byte	.LFE2916-.LFB2916
	.uleb128 0x4
	.4byte	0x0
	.byte	0x4
	.4byte	.LCFI123-.LFB2916
	.byte	0xe
	.uleb128 0x8
	.byte	0x4
	.4byte	.LCFI124-.LCFI123
	.byte	0x11
	.uleb128 0x41
	.sleb128 -1
	.align 2
.LEFDE93:
.LSFDE95:
	.4byte	.LEFDE95-.LASFDE95
.LASFDE95:
	.4byte	.LASFDE95-.Lframe1
	.4byte	.LFB2915
	.4byte	.LFE2915-.LFB2915
	.uleb128 0x4
	.4byte	0x0
	.byte	0x4
	.4byte	.LCFI126-.LFB2915
	.byte	0xe
	.uleb128 0x8
	.byte	0x4
	.4byte	.LCFI127-.LCFI126
	.byte	0x11
	.uleb128 0x41
	.sleb128 -1
	.align 2
.LEFDE95:
.LSFDE97:
	.4byte	.LEFDE97-.LASFDE97
.LASFDE97:
	.4byte	.LASFDE97-.Lframe1
	.4byte	.LFB2914
	.4byte	.LFE2914-.LFB2914
	.uleb128 0x4
	.4byte	0x0
	.byte	0x4
	.4byte	.LCFI129-.LFB2914
	.byte	0xe
	.uleb128 0x8
	.byte	0x4
	.4byte	.LCFI130-.LCFI129
	.byte	0x11
	.uleb128 0x41
	.sleb128 -1
	.align 2
.LEFDE97:
.LSFDE99:
	.4byte	.LEFDE99-.LASFDE99
.LASFDE99:
	.4byte	.LASFDE99-.Lframe1
	.4byte	.LFB2913
	.4byte	.LFE2913-.LFB2913
	.uleb128 0x4
	.4byte	0x0
	.byte	0x4
	.4byte	.LCFI132-.LFB2913
	.byte	0xe
	.uleb128 0x8
	.byte	0x4
	.4byte	.LCFI133-.LCFI132
	.byte	0x11
	.uleb128 0x41
	.sleb128 -1
	.align 2
.LEFDE99:
.LSFDE101:
	.4byte	.LEFDE101-.LASFDE101
.LASFDE101:
	.4byte	.LASFDE101-.Lframe1
	.4byte	.LFB2912
	.4byte	.LFE2912-.LFB2912
	.uleb128 0x4
	.4byte	0x0
	.byte	0x4
	.4byte	.LCFI135-.LFB2912
	.byte	0xe
	.uleb128 0x8
	.byte	0x4
	.4byte	.LCFI136-.LCFI135
	.byte	0x11
	.uleb128 0x41
	.sleb128 -1
	.align 2
.LEFDE101:
.LSFDE103:
	.4byte	.LEFDE103-.LASFDE103
.LASFDE103:
	.4byte	.LASFDE103-.Lframe1
	.4byte	.LFB2911
	.4byte	.LFE2911-.LFB2911
	.uleb128 0x4
	.4byte	0x0
	.byte	0x4
	.4byte	.LCFI138-.LFB2911
	.byte	0xe
	.uleb128 0x8
	.byte	0x4
	.4byte	.LCFI139-.LCFI138
	.byte	0x11
	.uleb128 0x41
	.sleb128 -1
	.align 2
.LEFDE103:
.LSFDE105:
	.4byte	.LEFDE105-.LASFDE105
.LASFDE105:
	.4byte	.LASFDE105-.Lframe1
	.4byte	.LFB2910
	.4byte	.LFE2910-.LFB2910
	.uleb128 0x4
	.4byte	0x0
	.byte	0x4
	.4byte	.LCFI141-.LFB2910
	.byte	0xe
	.uleb128 0x8
	.byte	0x4
	.4byte	.LCFI142-.LCFI141
	.byte	0x11
	.uleb128 0x41
	.sleb128 -1
	.align 2
.LEFDE105:
.LSFDE107:
	.4byte	.LEFDE107-.LASFDE107
.LASFDE107:
	.4byte	.LASFDE107-.Lframe1
	.4byte	.LFB2909
	.4byte	.LFE2909-.LFB2909
	.uleb128 0x4
	.4byte	0x0
	.byte	0x4
	.4byte	.LCFI144-.LFB2909
	.byte	0xe
	.uleb128 0x8
	.byte	0x4
	.4byte	.LCFI145-.LCFI144
	.byte	0x11
	.uleb128 0x41
	.sleb128 -1
	.align 2
.LEFDE107:
.LSFDE109:
	.4byte	.LEFDE109-.LASFDE109
.LASFDE109:
	.4byte	.LASFDE109-.Lframe1
	.4byte	.LFB2908
	.4byte	.LFE2908-.LFB2908
	.uleb128 0x4
	.4byte	0x0
	.byte	0x4
	.4byte	.LCFI147-.LFB2908
	.byte	0xe
	.uleb128 0x8
	.byte	0x4
	.4byte	.LCFI148-.LCFI147
	.byte	0x11
	.uleb128 0x41
	.sleb128 -1
	.align 2
.LEFDE109:
.LSFDE111:
	.4byte	.LEFDE111-.LASFDE111
.LASFDE111:
	.4byte	.LASFDE111-.Lframe1
	.4byte	.LFB2907
	.4byte	.LFE2907-.LFB2907
	.uleb128 0x4
	.4byte	0x0
	.byte	0x4
	.4byte	.LCFI150-.LFB2907
	.byte	0xe
	.uleb128 0x8
	.byte	0x4
	.4byte	.LCFI151-.LCFI150
	.byte	0x11
	.uleb128 0x41
	.sleb128 -1
	.align 2
.LEFDE111:
.LSFDE113:
	.4byte	.LEFDE113-.LASFDE113
.LASFDE113:
	.4byte	.LASFDE113-.Lframe1
	.4byte	.LFB2905
	.4byte	.LFE2905-.LFB2905
	.uleb128 0x4
	.4byte	0x0
	.byte	0x4
	.4byte	.LCFI153-.LFB2905
	.byte	0xe
	.uleb128 0x8
	.byte	0x4
	.4byte	.LCFI154-.LCFI153
	.byte	0x11
	.uleb128 0x41
	.sleb128 -1
	.align 2
.LEFDE113:
.LSFDE115:
	.4byte	.LEFDE115-.LASFDE115
.LASFDE115:
	.4byte	.LASFDE115-.Lframe1
	.4byte	.LFB2904
	.4byte	.LFE2904-.LFB2904
	.uleb128 0x4
	.4byte	0x0
	.byte	0x4
	.4byte	.LCFI156-.LFB2904
	.byte	0xe
	.uleb128 0x8
	.byte	0x4
	.4byte	.LCFI157-.LCFI156
	.byte	0x11
	.uleb128 0x41
	.sleb128 -1
	.align 2
.LEFDE115:
.LSFDE117:
	.4byte	.LEFDE117-.LASFDE117
.LASFDE117:
	.4byte	.LASFDE117-.Lframe1
	.4byte	.LFB2903
	.4byte	.LFE2903-.LFB2903
	.uleb128 0x4
	.4byte	0x0
	.byte	0x4
	.4byte	.LCFI159-.LFB2903
	.byte	0xe
	.uleb128 0x8
	.byte	0x4
	.4byte	.LCFI160-.LCFI159
	.byte	0x11
	.uleb128 0x41
	.sleb128 -1
	.align 2
.LEFDE117:
.LSFDE119:
	.4byte	.LEFDE119-.LASFDE119
.LASFDE119:
	.4byte	.LASFDE119-.Lframe1
	.4byte	.LFB2902
	.4byte	.LFE2902-.LFB2902
	.uleb128 0x4
	.4byte	0x0
	.byte	0x4
	.4byte	.LCFI162-.LFB2902
	.byte	0xe
	.uleb128 0x8
	.byte	0x4
	.4byte	.LCFI163-.LCFI162
	.byte	0x11
	.uleb128 0x41
	.sleb128 -1
	.align 2
.LEFDE119:
.LSFDE121:
	.4byte	.LEFDE121-.LASFDE121
.LASFDE121:
	.4byte	.LASFDE121-.Lframe1
	.4byte	.LFB2901
	.4byte	.LFE2901-.LFB2901
	.uleb128 0x4
	.4byte	0x0
	.byte	0x4
	.4byte	.LCFI165-.LFB2901
	.byte	0xe
	.uleb128 0x8
	.byte	0x4
	.4byte	.LCFI166-.LCFI165
	.byte	0x11
	.uleb128 0x41
	.sleb128 -1
	.align 2
.LEFDE121:
.LSFDE123:
	.4byte	.LEFDE123-.LASFDE123
.LASFDE123:
	.4byte	.LASFDE123-.Lframe1
	.4byte	.LFB2900
	.4byte	.LFE2900-.LFB2900
	.uleb128 0x4
	.4byte	0x0
	.byte	0x4
	.4byte	.LCFI168-.LFB2900
	.byte	0xe
	.uleb128 0x8
	.byte	0x4
	.4byte	.LCFI169-.LCFI168
	.byte	0x11
	.uleb128 0x41
	.sleb128 -1
	.align 2
.LEFDE123:
.LSFDE125:
	.4byte	.LEFDE125-.LASFDE125
.LASFDE125:
	.4byte	.LASFDE125-.Lframe1
	.4byte	.LFB2899
	.4byte	.LFE2899-.LFB2899
	.uleb128 0x4
	.4byte	0x0
	.byte	0x4
	.4byte	.LCFI171-.LFB2899
	.byte	0xe
	.uleb128 0x8
	.byte	0x4
	.4byte	.LCFI172-.LCFI171
	.byte	0x11
	.uleb128 0x41
	.sleb128 -1
	.align 2
.LEFDE125:
.LSFDE127:
	.4byte	.LEFDE127-.LASFDE127
.LASFDE127:
	.4byte	.LASFDE127-.Lframe1
	.4byte	.LFB2898
	.4byte	.LFE2898-.LFB2898
	.uleb128 0x4
	.4byte	0x0
	.byte	0x4
	.4byte	.LCFI174-.LFB2898
	.byte	0xe
	.uleb128 0x8
	.byte	0x4
	.4byte	.LCFI175-.LCFI174
	.byte	0x11
	.uleb128 0x41
	.sleb128 -1
	.align 2
.LEFDE127:
.LSFDE129:
	.4byte	.LEFDE129-.LASFDE129
.LASFDE129:
	.4byte	.LASFDE129-.Lframe1
	.4byte	.LFB2897
	.4byte	.LFE2897-.LFB2897
	.uleb128 0x4
	.4byte	0x0
	.byte	0x4
	.4byte	.LCFI177-.LFB2897
	.byte	0xe
	.uleb128 0x8
	.byte	0x4
	.4byte	.LCFI178-.LCFI177
	.byte	0x11
	.uleb128 0x41
	.sleb128 -1
	.align 2
.LEFDE129:
.LSFDE131:
	.4byte	.LEFDE131-.LASFDE131
.LASFDE131:
	.4byte	.LASFDE131-.Lframe1
	.4byte	.LFB2896
	.4byte	.LFE2896-.LFB2896
	.uleb128 0x4
	.4byte	0x0
	.byte	0x4
	.4byte	.LCFI180-.LFB2896
	.byte	0xe
	.uleb128 0x8
	.byte	0x4
	.4byte	.LCFI181-.LCFI180
	.byte	0x11
	.uleb128 0x41
	.sleb128 -1
	.align 2
.LEFDE131:
.LSFDE133:
	.4byte	.LEFDE133-.LASFDE133
.LASFDE133:
	.4byte	.LASFDE133-.Lframe1
	.4byte	.LFB2895
	.4byte	.LFE2895-.LFB2895
	.uleb128 0x4
	.4byte	0x0
	.byte	0x4
	.4byte	.LCFI183-.LFB2895
	.byte	0xe
	.uleb128 0x8
	.byte	0x4
	.4byte	.LCFI184-.LCFI183
	.byte	0x11
	.uleb128 0x41
	.sleb128 -1
	.align 2
.LEFDE133:
.LSFDE135:
	.4byte	.LEFDE135-.LASFDE135
.LASFDE135:
	.4byte	.LASFDE135-.Lframe1
	.4byte	.LFB2894
	.4byte	.LFE2894-.LFB2894
	.uleb128 0x4
	.4byte	0x0
	.byte	0x4
	.4byte	.LCFI186-.LFB2894
	.byte	0xe
	.uleb128 0x8
	.byte	0x4
	.4byte	.LCFI187-.LCFI186
	.byte	0x11
	.uleb128 0x41
	.sleb128 -1
	.align 2
.LEFDE135:
.LSFDE137:
	.4byte	.LEFDE137-.LASFDE137
.LASFDE137:
	.4byte	.LASFDE137-.Lframe1
	.4byte	.LFB2893
	.4byte	.LFE2893-.LFB2893
	.uleb128 0x4
	.4byte	0x0
	.byte	0x4
	.4byte	.LCFI189-.LFB2893
	.byte	0xe
	.uleb128 0x8
	.byte	0x4
	.4byte	.LCFI190-.LCFI189
	.byte	0x11
	.uleb128 0x41
	.sleb128 -1
	.align 2
.LEFDE137:
.LSFDE139:
	.4byte	.LEFDE139-.LASFDE139
.LASFDE139:
	.4byte	.LASFDE139-.Lframe1
	.4byte	.LFB2892
	.4byte	.LFE2892-.LFB2892
	.uleb128 0x4
	.4byte	0x0
	.byte	0x4
	.4byte	.LCFI192-.LFB2892
	.byte	0xe
	.uleb128 0x8
	.byte	0x4
	.4byte	.LCFI193-.LCFI192
	.byte	0x11
	.uleb128 0x41
	.sleb128 -1
	.align 2
.LEFDE139:
.LSFDE141:
	.4byte	.LEFDE141-.LASFDE141
.LASFDE141:
	.4byte	.LASFDE141-.Lframe1
	.4byte	.LFB2891
	.4byte	.LFE2891-.LFB2891
	.uleb128 0x4
	.4byte	0x0
	.byte	0x4
	.4byte	.LCFI195-.LFB2891
	.byte	0xe
	.uleb128 0x8
	.byte	0x4
	.4byte	.LCFI196-.LCFI195
	.byte	0x11
	.uleb128 0x41
	.sleb128 -1
	.align 2
.LEFDE141:
.LSFDE143:
	.4byte	.LEFDE143-.LASFDE143
.LASFDE143:
	.4byte	.LASFDE143-.Lframe1
	.4byte	.LFB2890
	.4byte	.LFE2890-.LFB2890
	.uleb128 0x4
	.4byte	0x0
	.byte	0x4
	.4byte	.LCFI198-.LFB2890
	.byte	0xe
	.uleb128 0x8
	.byte	0x4
	.4byte	.LCFI199-.LCFI198
	.byte	0x11
	.uleb128 0x41
	.sleb128 -1
	.align 2
.LEFDE143:
.LSFDE145:
	.4byte	.LEFDE145-.LASFDE145
.LASFDE145:
	.4byte	.LASFDE145-.Lframe1
	.4byte	.LFB2889
	.4byte	.LFE2889-.LFB2889
	.uleb128 0x4
	.4byte	0x0
	.byte	0x4
	.4byte	.LCFI201-.LFB2889
	.byte	0xe
	.uleb128 0x8
	.byte	0x4
	.4byte	.LCFI202-.LCFI201
	.byte	0x11
	.uleb128 0x41
	.sleb128 -1
	.align 2
.LEFDE145:
.LSFDE147:
	.4byte	.LEFDE147-.LASFDE147
.LASFDE147:
	.4byte	.LASFDE147-.Lframe1
	.4byte	.LFB2888
	.4byte	.LFE2888-.LFB2888
	.uleb128 0x4
	.4byte	0x0
	.byte	0x4
	.4byte	.LCFI204-.LFB2888
	.byte	0xe
	.uleb128 0x8
	.byte	0x4
	.4byte	.LCFI205-.LCFI204
	.byte	0x11
	.uleb128 0x41
	.sleb128 -1
	.align 2
.LEFDE147:
.LSFDE149:
	.4byte	.LEFDE149-.LASFDE149
.LASFDE149:
	.4byte	.LASFDE149-.Lframe1
	.4byte	.LFB2887
	.4byte	.LFE2887-.LFB2887
	.uleb128 0x4
	.4byte	0x0
	.byte	0x4
	.4byte	.LCFI207-.LFB2887
	.byte	0xe
	.uleb128 0x8
	.byte	0x4
	.4byte	.LCFI208-.LCFI207
	.byte	0x11
	.uleb128 0x41
	.sleb128 -1
	.align 2
.LEFDE149:
.LSFDE151:
	.4byte	.LEFDE151-.LASFDE151
.LASFDE151:
	.4byte	.LASFDE151-.Lframe1
	.4byte	.LFB2886
	.4byte	.LFE2886-.LFB2886
	.uleb128 0x4
	.4byte	0x0
	.byte	0x4
	.4byte	.LCFI210-.LFB2886
	.byte	0xe
	.uleb128 0x8
	.byte	0x4
	.4byte	.LCFI211-.LCFI210
	.byte	0x11
	.uleb128 0x41
	.sleb128 -1
	.align 2
.LEFDE151:
.LSFDE153:
	.4byte	.LEFDE153-.LASFDE153
.LASFDE153:
	.4byte	.LASFDE153-.Lframe1
	.4byte	.LFB2885
	.4byte	.LFE2885-.LFB2885
	.uleb128 0x4
	.4byte	0x0
	.byte	0x4
	.4byte	.LCFI213-.LFB2885
	.byte	0xe
	.uleb128 0x8
	.byte	0x4
	.4byte	.LCFI214-.LCFI213
	.byte	0x11
	.uleb128 0x41
	.sleb128 -1
	.align 2
.LEFDE153:
.LSFDE155:
	.4byte	.LEFDE155-.LASFDE155
.LASFDE155:
	.4byte	.LASFDE155-.Lframe1
	.4byte	.LFB2884
	.4byte	.LFE2884-.LFB2884
	.uleb128 0x4
	.4byte	0x0
	.byte	0x4
	.4byte	.LCFI216-.LFB2884
	.byte	0xe
	.uleb128 0x8
	.byte	0x4
	.4byte	.LCFI217-.LCFI216
	.byte	0x11
	.uleb128 0x41
	.sleb128 -1
	.align 2
.LEFDE155:
.LSFDE157:
	.4byte	.LEFDE157-.LASFDE157
.LASFDE157:
	.4byte	.LASFDE157-.Lframe1
	.4byte	.LFB2883
	.4byte	.LFE2883-.LFB2883
	.uleb128 0x4
	.4byte	0x0
	.byte	0x4
	.4byte	.LCFI219-.LFB2883
	.byte	0xe
	.uleb128 0x8
	.byte	0x4
	.4byte	.LCFI220-.LCFI219
	.byte	0x11
	.uleb128 0x41
	.sleb128 -1
	.align 2
.LEFDE157:
.LSFDE159:
	.4byte	.LEFDE159-.LASFDE159
.LASFDE159:
	.4byte	.LASFDE159-.Lframe1
	.4byte	.LFB2882
	.4byte	.LFE2882-.LFB2882
	.uleb128 0x4
	.4byte	0x0
	.byte	0x4
	.4byte	.LCFI222-.LFB2882
	.byte	0xe
	.uleb128 0x8
	.byte	0x4
	.4byte	.LCFI223-.LCFI222
	.byte	0x11
	.uleb128 0x41
	.sleb128 -1
	.align 2
.LEFDE159:
.LSFDE161:
	.4byte	.LEFDE161-.LASFDE161
.LASFDE161:
	.4byte	.LASFDE161-.Lframe1
	.4byte	.LFB2881
	.4byte	.LFE2881-.LFB2881
	.uleb128 0x4
	.4byte	0x0
	.byte	0x4
	.4byte	.LCFI225-.LFB2881
	.byte	0xe
	.uleb128 0x8
	.byte	0x4
	.4byte	.LCFI226-.LCFI225
	.byte	0x11
	.uleb128 0x41
	.sleb128 -1
	.align 2
.LEFDE161:
.LSFDE163:
	.4byte	.LEFDE163-.LASFDE163
.LASFDE163:
	.4byte	.LASFDE163-.Lframe1
	.4byte	.LFB2880
	.4byte	.LFE2880-.LFB2880
	.uleb128 0x4
	.4byte	0x0
	.byte	0x4
	.4byte	.LCFI228-.LFB2880
	.byte	0xe
	.uleb128 0x8
	.byte	0x4
	.4byte	.LCFI229-.LCFI228
	.byte	0x11
	.uleb128 0x41
	.sleb128 -1
	.align 2
.LEFDE163:
.LSFDE165:
	.4byte	.LEFDE165-.LASFDE165
.LASFDE165:
	.4byte	.LASFDE165-.Lframe1
	.4byte	.LFB2879
	.4byte	.LFE2879-.LFB2879
	.uleb128 0x4
	.4byte	0x0
	.byte	0x4
	.4byte	.LCFI231-.LFB2879
	.byte	0xe
	.uleb128 0x8
	.byte	0x4
	.4byte	.LCFI232-.LCFI231
	.byte	0x11
	.uleb128 0x41
	.sleb128 -1
	.align 2
.LEFDE165:
.LSFDE167:
	.4byte	.LEFDE167-.LASFDE167
.LASFDE167:
	.4byte	.LASFDE167-.Lframe1
	.4byte	.LFB2878
	.4byte	.LFE2878-.LFB2878
	.uleb128 0x4
	.4byte	0x0
	.byte	0x4
	.4byte	.LCFI234-.LFB2878
	.byte	0xe
	.uleb128 0x8
	.byte	0x4
	.4byte	.LCFI235-.LCFI234
	.byte	0x11
	.uleb128 0x41
	.sleb128 -1
	.align 2
.LEFDE167:
.LSFDE169:
	.4byte	.LEFDE169-.LASFDE169
.LASFDE169:
	.4byte	.LASFDE169-.Lframe1
	.4byte	.LFB2877
	.4byte	.LFE2877-.LFB2877
	.uleb128 0x4
	.4byte	0x0
	.byte	0x4
	.4byte	.LCFI237-.LFB2877
	.byte	0xe
	.uleb128 0x8
	.byte	0x4
	.4byte	.LCFI238-.LCFI237
	.byte	0x11
	.uleb128 0x41
	.sleb128 -1
	.align 2
.LEFDE169:
.LSFDE171:
	.4byte	.LEFDE171-.LASFDE171
.LASFDE171:
	.4byte	.LASFDE171-.Lframe1
	.4byte	.LFB2876
	.4byte	.LFE2876-.LFB2876
	.uleb128 0x4
	.4byte	0x0
	.byte	0x4
	.4byte	.LCFI240-.LFB2876
	.byte	0xe
	.uleb128 0x8
	.byte	0x4
	.4byte	.LCFI241-.LCFI240
	.byte	0x11
	.uleb128 0x41
	.sleb128 -1
	.align 2
.LEFDE171:
.LSFDE173:
	.4byte	.LEFDE173-.LASFDE173
.LASFDE173:
	.4byte	.LASFDE173-.Lframe1
	.4byte	.LFB2875
	.4byte	.LFE2875-.LFB2875
	.uleb128 0x4
	.4byte	0x0
	.byte	0x4
	.4byte	.LCFI243-.LFB2875
	.byte	0xe
	.uleb128 0x8
	.byte	0x4
	.4byte	.LCFI244-.LCFI243
	.byte	0x11
	.uleb128 0x41
	.sleb128 -1
	.align 2
.LEFDE173:
.LSFDE175:
	.4byte	.LEFDE175-.LASFDE175
.LASFDE175:
	.4byte	.LASFDE175-.Lframe1
	.4byte	.LFB2874
	.4byte	.LFE2874-.LFB2874
	.uleb128 0x4
	.4byte	0x0
	.byte	0x4
	.4byte	.LCFI246-.LFB2874
	.byte	0xe
	.uleb128 0x8
	.byte	0x4
	.4byte	.LCFI247-.LCFI246
	.byte	0x11
	.uleb128 0x41
	.sleb128 -1
	.align 2
.LEFDE175:
.LSFDE177:
	.4byte	.LEFDE177-.LASFDE177
.LASFDE177:
	.4byte	.LASFDE177-.Lframe1
	.4byte	.LFB2873
	.4byte	.LFE2873-.LFB2873
	.uleb128 0x4
	.4byte	0x0
	.byte	0x4
	.4byte	.LCFI249-.LFB2873
	.byte	0xe
	.uleb128 0x8
	.byte	0x4
	.4byte	.LCFI250-.LCFI249
	.byte	0x11
	.uleb128 0x41
	.sleb128 -1
	.align 2
.LEFDE177:
.LSFDE179:
	.4byte	.LEFDE179-.LASFDE179
.LASFDE179:
	.4byte	.LASFDE179-.Lframe1
	.4byte	.LFB2872
	.4byte	.LFE2872-.LFB2872
	.uleb128 0x4
	.4byte	0x0
	.byte	0x4
	.4byte	.LCFI252-.LFB2872
	.byte	0xe
	.uleb128 0x8
	.byte	0x4
	.4byte	.LCFI253-.LCFI252
	.byte	0x11
	.uleb128 0x41
	.sleb128 -1
	.align 2
.LEFDE179:
.LSFDE181:
	.4byte	.LEFDE181-.LASFDE181
.LASFDE181:
	.4byte	.LASFDE181-.Lframe1
	.4byte	.LFB2870
	.4byte	.LFE2870-.LFB2870
	.uleb128 0x4
	.4byte	0x0
	.byte	0x4
	.4byte	.LCFI255-.LFB2870
	.byte	0xe
	.uleb128 0x8
	.byte	0x4
	.4byte	.LCFI256-.LCFI255
	.byte	0x11
	.uleb128 0x41
	.sleb128 -1
	.align 2
.LEFDE181:
.LSFDE183:
	.4byte	.LEFDE183-.LASFDE183
.LASFDE183:
	.4byte	.LASFDE183-.Lframe1
	.4byte	.LFB2868
	.4byte	.LFE2868-.LFB2868
	.uleb128 0x4
	.4byte	0x0
	.byte	0x4
	.4byte	.LCFI258-.LFB2868
	.byte	0xe
	.uleb128 0x8
	.byte	0x4
	.4byte	.LCFI259-.LCFI258
	.byte	0x11
	.uleb128 0x41
	.sleb128 -1
	.align 2
.LEFDE183:
.LSFDE185:
	.4byte	.LEFDE185-.LASFDE185
.LASFDE185:
	.4byte	.LASFDE185-.Lframe1
	.4byte	.LFB2867
	.4byte	.LFE2867-.LFB2867
	.uleb128 0x4
	.4byte	0x0
	.byte	0x4
	.4byte	.LCFI261-.LFB2867
	.byte	0xe
	.uleb128 0x8
	.byte	0x4
	.4byte	.LCFI262-.LCFI261
	.byte	0x11
	.uleb128 0x41
	.sleb128 -1
	.align 2
.LEFDE185:
.LSFDE187:
	.4byte	.LEFDE187-.LASFDE187
.LASFDE187:
	.4byte	.LASFDE187-.Lframe1
	.4byte	.LFB2866
	.4byte	.LFE2866-.LFB2866
	.uleb128 0x4
	.4byte	0x0
	.byte	0x4
	.4byte	.LCFI264-.LFB2866
	.byte	0xe
	.uleb128 0x8
	.byte	0x4
	.4byte	.LCFI265-.LCFI264
	.byte	0x11
	.uleb128 0x41
	.sleb128 -1
	.align 2
.LEFDE187:
.LSFDE189:
	.4byte	.LEFDE189-.LASFDE189
.LASFDE189:
	.4byte	.LASFDE189-.Lframe1
	.4byte	.LFB2865
	.4byte	.LFE2865-.LFB2865
	.uleb128 0x4
	.4byte	0x0
	.byte	0x4
	.4byte	.LCFI267-.LFB2865
	.byte	0xe
	.uleb128 0x8
	.byte	0x4
	.4byte	.LCFI268-.LCFI267
	.byte	0x11
	.uleb128 0x41
	.sleb128 -1
	.align 2
.LEFDE189:
.LSFDE191:
	.4byte	.LEFDE191-.LASFDE191
.LASFDE191:
	.4byte	.LASFDE191-.Lframe1
	.4byte	.LFB2864
	.4byte	.LFE2864-.LFB2864
	.uleb128 0x4
	.4byte	0x0
	.byte	0x4
	.4byte	.LCFI270-.LFB2864
	.byte	0xe
	.uleb128 0x8
	.byte	0x4
	.4byte	.LCFI271-.LCFI270
	.byte	0x11
	.uleb128 0x41
	.sleb128 -1
	.align 2
.LEFDE191:
.LSFDE193:
	.4byte	.LEFDE193-.LASFDE193
.LASFDE193:
	.4byte	.LASFDE193-.Lframe1
	.4byte	.LFB2862
	.4byte	.LFE2862-.LFB2862
	.uleb128 0x4
	.4byte	0x0
	.byte	0x4
	.4byte	.LCFI273-.LFB2862
	.byte	0xe
	.uleb128 0x8
	.byte	0x4
	.4byte	.LCFI274-.LCFI273
	.byte	0x11
	.uleb128 0x41
	.sleb128 -1
	.align 2
.LEFDE193:
.LSFDE195:
	.4byte	.LEFDE195-.LASFDE195
.LASFDE195:
	.4byte	.LASFDE195-.Lframe1
	.4byte	.LFB2861
	.4byte	.LFE2861-.LFB2861
	.uleb128 0x4
	.4byte	0x0
	.byte	0x4
	.4byte	.LCFI276-.LFB2861
	.byte	0xe
	.uleb128 0x8
	.byte	0x4
	.4byte	.LCFI277-.LCFI276
	.byte	0x11
	.uleb128 0x41
	.sleb128 -1
	.align 2
.LEFDE195:
.LSFDE197:
	.4byte	.LEFDE197-.LASFDE197
.LASFDE197:
	.4byte	.LASFDE197-.Lframe1
	.4byte	.LFB2860
	.4byte	.LFE2860-.LFB2860
	.uleb128 0x4
	.4byte	0x0
	.byte	0x4
	.4byte	.LCFI279-.LFB2860
	.byte	0xe
	.uleb128 0x8
	.byte	0x4
	.4byte	.LCFI280-.LCFI279
	.byte	0x11
	.uleb128 0x41
	.sleb128 -1
	.align 2
.LEFDE197:
.LSFDE199:
	.4byte	.LEFDE199-.LASFDE199
.LASFDE199:
	.4byte	.LASFDE199-.Lframe1
	.4byte	.LFB2859
	.4byte	.LFE2859-.LFB2859
	.uleb128 0x4
	.4byte	0x0
	.byte	0x4
	.4byte	.LCFI282-.LFB2859
	.byte	0xe
	.uleb128 0x8
	.byte	0x4
	.4byte	.LCFI283-.LCFI282
	.byte	0x11
	.uleb128 0x41
	.sleb128 -1
	.align 2
.LEFDE199:
.LSFDE201:
	.4byte	.LEFDE201-.LASFDE201
.LASFDE201:
	.4byte	.LASFDE201-.Lframe1
	.4byte	.LFB2858
	.4byte	.LFE2858-.LFB2858
	.uleb128 0x4
	.4byte	0x0
	.byte	0x4
	.4byte	.LCFI285-.LFB2858
	.byte	0xe
	.uleb128 0x8
	.byte	0x4
	.4byte	.LCFI286-.LCFI285
	.byte	0x11
	.uleb128 0x41
	.sleb128 -1
	.align 2
.LEFDE201:
.LSFDE203:
	.4byte	.LEFDE203-.LASFDE203
.LASFDE203:
	.4byte	.LASFDE203-.Lframe1
	.4byte	.LFB2857
	.4byte	.LFE2857-.LFB2857
	.uleb128 0x4
	.4byte	0x0
	.byte	0x4
	.4byte	.LCFI288-.LFB2857
	.byte	0xe
	.uleb128 0x8
	.byte	0x4
	.4byte	.LCFI289-.LCFI288
	.byte	0x11
	.uleb128 0x41
	.sleb128 -1
	.align 2
.LEFDE203:
.LSFDE205:
	.4byte	.LEFDE205-.LASFDE205
.LASFDE205:
	.4byte	.LASFDE205-.Lframe1
	.4byte	.LFB2856
	.4byte	.LFE2856-.LFB2856
	.uleb128 0x4
	.4byte	0x0
	.byte	0x4
	.4byte	.LCFI291-.LFB2856
	.byte	0xe
	.uleb128 0x8
	.byte	0x4
	.4byte	.LCFI292-.LCFI291
	.byte	0x11
	.uleb128 0x41
	.sleb128 -1
	.align 2
.LEFDE205:
.LSFDE207:
	.4byte	.LEFDE207-.LASFDE207
.LASFDE207:
	.4byte	.LASFDE207-.Lframe1
	.4byte	.LFB2855
	.4byte	.LFE2855-.LFB2855
	.uleb128 0x4
	.4byte	0x0
	.byte	0x4
	.4byte	.LCFI294-.LFB2855
	.byte	0xe
	.uleb128 0x8
	.byte	0x4
	.4byte	.LCFI295-.LCFI294
	.byte	0x11
	.uleb128 0x41
	.sleb128 -1
	.align 2
.LEFDE207:
.LSFDE209:
	.4byte	.LEFDE209-.LASFDE209
.LASFDE209:
	.4byte	.LASFDE209-.Lframe1
	.4byte	.LFB2854
	.4byte	.LFE2854-.LFB2854
	.uleb128 0x4
	.4byte	0x0
	.byte	0x4
	.4byte	.LCFI297-.LFB2854
	.byte	0xe
	.uleb128 0x8
	.byte	0x4
	.4byte	.LCFI298-.LCFI297
	.byte	0x11
	.uleb128 0x41
	.sleb128 -1
	.align 2
.LEFDE209:
.LSFDE211:
	.4byte	.LEFDE211-.LASFDE211
.LASFDE211:
	.4byte	.LASFDE211-.Lframe1
	.4byte	.LFB2853
	.4byte	.LFE2853-.LFB2853
	.uleb128 0x4
	.4byte	0x0
	.byte	0x4
	.4byte	.LCFI300-.LFB2853
	.byte	0xe
	.uleb128 0x8
	.byte	0x4
	.4byte	.LCFI301-.LCFI300
	.byte	0x11
	.uleb128 0x41
	.sleb128 -1
	.align 2
.LEFDE211:
.LSFDE213:
	.4byte	.LEFDE213-.LASFDE213
.LASFDE213:
	.4byte	.LASFDE213-.Lframe1
	.4byte	.LFB2852
	.4byte	.LFE2852-.LFB2852
	.uleb128 0x4
	.4byte	0x0
	.byte	0x4
	.4byte	.LCFI303-.LFB2852
	.byte	0xe
	.uleb128 0x8
	.byte	0x4
	.4byte	.LCFI304-.LCFI303
	.byte	0x11
	.uleb128 0x41
	.sleb128 -1
	.align 2
.LEFDE213:
.LSFDE215:
	.4byte	.LEFDE215-.LASFDE215
.LASFDE215:
	.4byte	.LASFDE215-.Lframe1
	.4byte	.LFB2851
	.4byte	.LFE2851-.LFB2851
	.uleb128 0x4
	.4byte	0x0
	.byte	0x4
	.4byte	.LCFI306-.LFB2851
	.byte	0xe
	.uleb128 0x8
	.byte	0x4
	.4byte	.LCFI307-.LCFI306
	.byte	0x11
	.uleb128 0x41
	.sleb128 -1
	.align 2
.LEFDE215:
.LSFDE217:
	.4byte	.LEFDE217-.LASFDE217
.LASFDE217:
	.4byte	.LASFDE217-.Lframe1
	.4byte	.LFB2850
	.4byte	.LFE2850-.LFB2850
	.uleb128 0x4
	.4byte	0x0
	.byte	0x4
	.4byte	.LCFI309-.LFB2850
	.byte	0xe
	.uleb128 0x8
	.byte	0x4
	.4byte	.LCFI310-.LCFI309
	.byte	0x11
	.uleb128 0x41
	.sleb128 -1
	.align 2
.LEFDE217:
.LSFDE219:
	.4byte	.LEFDE219-.LASFDE219
.LASFDE219:
	.4byte	.LASFDE219-.Lframe1
	.4byte	.LFB2849
	.4byte	.LFE2849-.LFB2849
	.uleb128 0x4
	.4byte	0x0
	.byte	0x4
	.4byte	.LCFI312-.LFB2849
	.byte	0xe
	.uleb128 0x8
	.byte	0x4
	.4byte	.LCFI313-.LCFI312
	.byte	0x11
	.uleb128 0x41
	.sleb128 -1
	.align 2
.LEFDE219:
.LSFDE221:
	.4byte	.LEFDE221-.LASFDE221
.LASFDE221:
	.4byte	.LASFDE221-.Lframe1
	.4byte	.LFB2848
	.4byte	.LFE2848-.LFB2848
	.uleb128 0x4
	.4byte	0x0
	.byte	0x4
	.4byte	.LCFI315-.LFB2848
	.byte	0xe
	.uleb128 0x8
	.byte	0x4
	.4byte	.LCFI316-.LCFI315
	.byte	0x11
	.uleb128 0x41
	.sleb128 -1
	.align 2
.LEFDE221:
.LSFDE223:
	.4byte	.LEFDE223-.LASFDE223
.LASFDE223:
	.4byte	.LASFDE223-.Lframe1
	.4byte	.LFB2847
	.4byte	.LFE2847-.LFB2847
	.uleb128 0x4
	.4byte	0x0
	.byte	0x4
	.4byte	.LCFI318-.LFB2847
	.byte	0xe
	.uleb128 0x8
	.byte	0x4
	.4byte	.LCFI319-.LCFI318
	.byte	0x11
	.uleb128 0x41
	.sleb128 -1
	.align 2
.LEFDE223:
.LSFDE225:
	.4byte	.LEFDE225-.LASFDE225
.LASFDE225:
	.4byte	.LASFDE225-.Lframe1
	.4byte	.LFB2846
	.4byte	.LFE2846-.LFB2846
	.uleb128 0x4
	.4byte	0x0
	.byte	0x4
	.4byte	.LCFI321-.LFB2846
	.byte	0xe
	.uleb128 0x8
	.byte	0x4
	.4byte	.LCFI322-.LCFI321
	.byte	0x11
	.uleb128 0x41
	.sleb128 -1
	.align 2
.LEFDE225:
.LSFDE227:
	.4byte	.LEFDE227-.LASFDE227
.LASFDE227:
	.4byte	.LASFDE227-.Lframe1
	.4byte	.LFB2845
	.4byte	.LFE2845-.LFB2845
	.uleb128 0x4
	.4byte	0x0
	.byte	0x4
	.4byte	.LCFI324-.LFB2845
	.byte	0xe
	.uleb128 0x8
	.byte	0x4
	.4byte	.LCFI325-.LCFI324
	.byte	0x11
	.uleb128 0x41
	.sleb128 -1
	.align 2
.LEFDE227:
.LSFDE229:
	.4byte	.LEFDE229-.LASFDE229
.LASFDE229:
	.4byte	.LASFDE229-.Lframe1
	.4byte	.LFB2844
	.4byte	.LFE2844-.LFB2844
	.uleb128 0x4
	.4byte	0x0
	.byte	0x4
	.4byte	.LCFI327-.LFB2844
	.byte	0xe
	.uleb128 0x8
	.byte	0x4
	.4byte	.LCFI328-.LCFI327
	.byte	0x11
	.uleb128 0x41
	.sleb128 -1
	.align 2
.LEFDE229:
.LSFDE231:
	.4byte	.LEFDE231-.LASFDE231
.LASFDE231:
	.4byte	.LASFDE231-.Lframe1
	.4byte	.LFB2843
	.4byte	.LFE2843-.LFB2843
	.uleb128 0x4
	.4byte	0x0
	.byte	0x4
	.4byte	.LCFI330-.LFB2843
	.byte	0xe
	.uleb128 0x8
	.byte	0x4
	.4byte	.LCFI331-.LCFI330
	.byte	0x11
	.uleb128 0x41
	.sleb128 -1
	.align 2
.LEFDE231:
.LSFDE233:
	.4byte	.LEFDE233-.LASFDE233
.LASFDE233:
	.4byte	.LASFDE233-.Lframe1
	.4byte	.LFB2842
	.4byte	.LFE2842-.LFB2842
	.uleb128 0x4
	.4byte	0x0
	.byte	0x4
	.4byte	.LCFI333-.LFB2842
	.byte	0xe
	.uleb128 0x8
	.byte	0x4
	.4byte	.LCFI334-.LCFI333
	.byte	0x11
	.uleb128 0x41
	.sleb128 -1
	.align 2
.LEFDE233:
.LSFDE235:
	.4byte	.LEFDE235-.LASFDE235
.LASFDE235:
	.4byte	.LASFDE235-.Lframe1
	.4byte	.LFB2841
	.4byte	.LFE2841-.LFB2841
	.uleb128 0x4
	.4byte	0x0
	.byte	0x4
	.4byte	.LCFI336-.LFB2841
	.byte	0xe
	.uleb128 0x8
	.byte	0x4
	.4byte	.LCFI337-.LCFI336
	.byte	0x11
	.uleb128 0x41
	.sleb128 -1
	.align 2
.LEFDE235:
.LSFDE237:
	.4byte	.LEFDE237-.LASFDE237
.LASFDE237:
	.4byte	.LASFDE237-.Lframe1
	.4byte	.LFB2840
	.4byte	.LFE2840-.LFB2840
	.uleb128 0x4
	.4byte	0x0
	.byte	0x4
	.4byte	.LCFI339-.LFB2840
	.byte	0xe
	.uleb128 0x8
	.byte	0x4
	.4byte	.LCFI340-.LCFI339
	.byte	0x11
	.uleb128 0x41
	.sleb128 -1
	.align 2
.LEFDE237:
.LSFDE239:
	.4byte	.LEFDE239-.LASFDE239
.LASFDE239:
	.4byte	.LASFDE239-.Lframe1
	.4byte	.LFB2839
	.4byte	.LFE2839-.LFB2839
	.uleb128 0x4
	.4byte	0x0
	.byte	0x4
	.4byte	.LCFI342-.LFB2839
	.byte	0xe
	.uleb128 0x8
	.byte	0x4
	.4byte	.LCFI343-.LCFI342
	.byte	0x11
	.uleb128 0x41
	.sleb128 -1
	.align 2
.LEFDE239:
.LSFDE241:
	.4byte	.LEFDE241-.LASFDE241
.LASFDE241:
	.4byte	.LASFDE241-.Lframe1
	.4byte	.LFB2838
	.4byte	.LFE2838-.LFB2838
	.uleb128 0x4
	.4byte	0x0
	.byte	0x4
	.4byte	.LCFI345-.LFB2838
	.byte	0xe
	.uleb128 0x8
	.byte	0x4
	.4byte	.LCFI346-.LCFI345
	.byte	0x11
	.uleb128 0x41
	.sleb128 -1
	.align 2
.LEFDE241:
.LSFDE243:
	.4byte	.LEFDE243-.LASFDE243
.LASFDE243:
	.4byte	.LASFDE243-.Lframe1
	.4byte	.LFB2837
	.4byte	.LFE2837-.LFB2837
	.uleb128 0x4
	.4byte	0x0
	.byte	0x4
	.4byte	.LCFI348-.LFB2837
	.byte	0xe
	.uleb128 0x8
	.byte	0x4
	.4byte	.LCFI349-.LCFI348
	.byte	0x11
	.uleb128 0x41
	.sleb128 -1
	.align 2
.LEFDE243:
.LSFDE245:
	.4byte	.LEFDE245-.LASFDE245
.LASFDE245:
	.4byte	.LASFDE245-.Lframe1
	.4byte	.LFB2836
	.4byte	.LFE2836-.LFB2836
	.uleb128 0x4
	.4byte	0x0
	.byte	0x4
	.4byte	.LCFI351-.LFB2836
	.byte	0xe
	.uleb128 0x8
	.byte	0x4
	.4byte	.LCFI352-.LCFI351
	.byte	0x11
	.uleb128 0x41
	.sleb128 -1
	.align 2
.LEFDE245:
.LSFDE247:
	.4byte	.LEFDE247-.LASFDE247
.LASFDE247:
	.4byte	.LASFDE247-.Lframe1
	.4byte	.LFB2835
	.4byte	.LFE2835-.LFB2835
	.uleb128 0x4
	.4byte	0x0
	.byte	0x4
	.4byte	.LCFI354-.LFB2835
	.byte	0xe
	.uleb128 0x8
	.byte	0x4
	.4byte	.LCFI355-.LCFI354
	.byte	0x11
	.uleb128 0x41
	.sleb128 -1
	.align 2
.LEFDE247:
.LSFDE249:
	.4byte	.LEFDE249-.LASFDE249
.LASFDE249:
	.4byte	.LASFDE249-.Lframe1
	.4byte	.LFB2834
	.4byte	.LFE2834-.LFB2834
	.uleb128 0x4
	.4byte	0x0
	.byte	0x4
	.4byte	.LCFI357-.LFB2834
	.byte	0xe
	.uleb128 0x8
	.byte	0x4
	.4byte	.LCFI358-.LCFI357
	.byte	0x11
	.uleb128 0x41
	.sleb128 -1
	.align 2
.LEFDE249:
.LSFDE251:
	.4byte	.LEFDE251-.LASFDE251
.LASFDE251:
	.4byte	.LASFDE251-.Lframe1
	.4byte	.LFB2833
	.4byte	.LFE2833-.LFB2833
	.uleb128 0x4
	.4byte	0x0
	.byte	0x4
	.4byte	.LCFI360-.LFB2833
	.byte	0xe
	.uleb128 0x8
	.byte	0x4
	.4byte	.LCFI361-.LCFI360
	.byte	0x11
	.uleb128 0x41
	.sleb128 -1
	.align 2
.LEFDE251:
.LSFDE253:
	.4byte	.LEFDE253-.LASFDE253
.LASFDE253:
	.4byte	.LASFDE253-.Lframe1
	.4byte	.LFB2832
	.4byte	.LFE2832-.LFB2832
	.uleb128 0x4
	.4byte	0x0
	.byte	0x4
	.4byte	.LCFI363-.LFB2832
	.byte	0xe
	.uleb128 0x8
	.byte	0x4
	.4byte	.LCFI364-.LCFI363
	.byte	0x11
	.uleb128 0x41
	.sleb128 -1
	.align 2
.LEFDE253:
.LSFDE255:
	.4byte	.LEFDE255-.LASFDE255
.LASFDE255:
	.4byte	.LASFDE255-.Lframe1
	.4byte	.LFB2831
	.4byte	.LFE2831-.LFB2831
	.uleb128 0x4
	.4byte	0x0
	.byte	0x4
	.4byte	.LCFI366-.LFB2831
	.byte	0xe
	.uleb128 0x8
	.byte	0x4
	.4byte	.LCFI367-.LCFI366
	.byte	0x11
	.uleb128 0x41
	.sleb128 -1
	.align 2
.LEFDE255:
.LSFDE257:
	.4byte	.LEFDE257-.LASFDE257
.LASFDE257:
	.4byte	.LASFDE257-.Lframe1
	.4byte	.LFB2830
	.4byte	.LFE2830-.LFB2830
	.uleb128 0x4
	.4byte	0x0
	.byte	0x4
	.4byte	.LCFI368-.LFB2830
	.byte	0xe
	.uleb128 0x18
	.byte	0x4
	.4byte	.LCFI370-.LCFI368
	.byte	0x9d
	.uleb128 0x3
	.byte	0x9
	.uleb128 0x41
	.uleb128 0x0
	.byte	0x4
	.4byte	.LCFI371-.LCFI370
	.byte	0x11
	.uleb128 0x41
	.sleb128 -1
	.align 2
.LEFDE257:
.LSFDE259:
	.4byte	.LEFDE259-.LASFDE259
.LASFDE259:
	.4byte	.LASFDE259-.Lframe1
	.4byte	.LFB2829
	.4byte	.LFE2829-.LFB2829
	.uleb128 0x4
	.4byte	0x0
	.byte	0x4
	.4byte	.LCFI373-.LFB2829
	.byte	0xe
	.uleb128 0x8
	.byte	0x4
	.4byte	.LCFI374-.LCFI373
	.byte	0x11
	.uleb128 0x41
	.sleb128 -1
	.align 2
.LEFDE259:
.LSFDE261:
	.4byte	.LEFDE261-.LASFDE261
.LASFDE261:
	.4byte	.LASFDE261-.Lframe1
	.4byte	.LFB2828
	.4byte	.LFE2828-.LFB2828
	.uleb128 0x4
	.4byte	0x0
	.byte	0x4
	.4byte	.LCFI376-.LFB2828
	.byte	0xe
	.uleb128 0x8
	.byte	0x4
	.4byte	.LCFI377-.LCFI376
	.byte	0x11
	.uleb128 0x41
	.sleb128 -1
	.align 2
.LEFDE261:
.LSFDE263:
	.4byte	.LEFDE263-.LASFDE263
.LASFDE263:
	.4byte	.LASFDE263-.Lframe1
	.4byte	.LFB2827
	.4byte	.LFE2827-.LFB2827
	.uleb128 0x4
	.4byte	0x0
	.byte	0x4
	.4byte	.LCFI379-.LFB2827
	.byte	0xe
	.uleb128 0x8
	.byte	0x4
	.4byte	.LCFI380-.LCFI379
	.byte	0x11
	.uleb128 0x41
	.sleb128 -1
	.align 2
.LEFDE263:
.LSFDE265:
	.4byte	.LEFDE265-.LASFDE265
.LASFDE265:
	.4byte	.LASFDE265-.Lframe1
	.4byte	.LFB2826
	.4byte	.LFE2826-.LFB2826
	.uleb128 0x4
	.4byte	0x0
	.byte	0x4
	.4byte	.LCFI382-.LFB2826
	.byte	0xe
	.uleb128 0x8
	.byte	0x4
	.4byte	.LCFI383-.LCFI382
	.byte	0x11
	.uleb128 0x41
	.sleb128 -1
	.align 2
.LEFDE265:
.LSFDE267:
	.4byte	.LEFDE267-.LASFDE267
.LASFDE267:
	.4byte	.LASFDE267-.Lframe1
	.4byte	.LFB2801
	.4byte	.LFE2801-.LFB2801
	.uleb128 0x4
	.4byte	0x0
	.byte	0x4
	.4byte	.LCFI385-.LFB2801
	.byte	0xe
	.uleb128 0x8
	.byte	0x4
	.4byte	.LCFI386-.LCFI385
	.byte	0x11
	.uleb128 0x41
	.sleb128 -1
	.align 2
.LEFDE267:
.LSFDE269:
	.4byte	.LEFDE269-.LASFDE269
.LASFDE269:
	.4byte	.LASFDE269-.Lframe1
	.4byte	.LFB2800
	.4byte	.LFE2800-.LFB2800
	.uleb128 0x4
	.4byte	0x0
	.byte	0x4
	.4byte	.LCFI388-.LFB2800
	.byte	0xe
	.uleb128 0x8
	.byte	0x4
	.4byte	.LCFI389-.LCFI388
	.byte	0x11
	.uleb128 0x41
	.sleb128 -1
	.align 2
.LEFDE269:
.LSFDE271:
	.4byte	.LEFDE271-.LASFDE271
.LASFDE271:
	.4byte	.LASFDE271-.Lframe1
	.4byte	.LFB2906
	.4byte	.LFE2906-.LFB2906
	.uleb128 0x4
	.4byte	0x0
	.byte	0x4
	.4byte	.LCFI391-.LFB2906
	.byte	0xe
	.uleb128 0x28
	.byte	0x4
	.4byte	.LCFI393-.LCFI391
	.byte	0x9c
	.uleb128 0x4
	.byte	0x99
	.uleb128 0x7
	.byte	0x9
	.uleb128 0x41
	.uleb128 0x0
	.byte	0x4
	.4byte	.LCFI395-.LCFI393
	.byte	0x9a
	.uleb128 0x6
	.byte	0x9d
	.uleb128 0x3
	.byte	0x4
	.4byte	.LCFI399-.LCFI395
	.byte	0x11
	.uleb128 0x41
	.sleb128 -1
	.byte	0x9f
	.uleb128 0x1
	.byte	0x9e
	.uleb128 0x2
	.byte	0x9b
	.uleb128 0x5
	.align 2
.LEFDE271:
.LSFDE273:
	.4byte	.LEFDE273-.LASFDE273
.LASFDE273:
	.4byte	.LASFDE273-.Lframe1
	.4byte	.LFB2871
	.4byte	.LFE2871-.LFB2871
	.uleb128 0x4
	.4byte	0x0
	.byte	0x4
	.4byte	.LCFI401-.LFB2871
	.byte	0xe
	.uleb128 0x18
	.byte	0x4
	.4byte	.LCFI402-.LCFI401
	.byte	0x9d
	.uleb128 0x3
	.byte	0x9
	.uleb128 0x41
	.uleb128 0x0
	.byte	0x4
	.4byte	.LCFI403-.LCFI402
	.byte	0x11
	.uleb128 0x41
	.sleb128 -1
	.align 2
.LEFDE273:
.LSFDE275:
	.4byte	.LEFDE275-.LASFDE275
.LASFDE275:
	.4byte	.LASFDE275-.Lframe1
	.4byte	.LFB2863
	.4byte	.LFE2863-.LFB2863
	.uleb128 0x4
	.4byte	0x0
	.byte	0x4
	.4byte	.LCFI405-.LFB2863
	.byte	0xe
	.uleb128 0x18
	.byte	0x4
	.4byte	.LCFI406-.LCFI405
	.byte	0x11
	.uleb128 0x41
	.sleb128 -1
	.align 2
.LEFDE275:
.LSFDE279:
	.4byte	.LEFDE279-.LASFDE279
.LASFDE279:
	.4byte	.LASFDE279-.Lframe1
	.4byte	.LFB1932
	.4byte	.LFE1932-.LFB1932
	.uleb128 0x4
	.4byte	.LLSDA1932
	.byte	0x4
	.4byte	.LCFI407-.LFB1932
	.byte	0xe
	.uleb128 0x20
	.byte	0x4
	.4byte	.LCFI409-.LCFI407
	.byte	0x9c
	.uleb128 0x4
	.byte	0x9
	.uleb128 0x41
	.uleb128 0x0
	.byte	0x4
	.4byte	.LCFI410-.LCFI409
	.byte	0x9d
	.uleb128 0x3
	.byte	0x4
	.4byte	.LCFI411-.LCFI410
	.byte	0x9b
	.uleb128 0x5
	.byte	0x4
	.4byte	.LCFI412-.LCFI411
	.byte	0x9f
	.uleb128 0x1
	.byte	0x4
	.4byte	.LCFI414-.LCFI412
	.byte	0x11
	.uleb128 0x41
	.sleb128 -1
	.byte	0x9e
	.uleb128 0x2
	.align 2
.LEFDE279:
.LSFDE281:
	.4byte	.LEFDE281-.LASFDE281
.LASFDE281:
	.4byte	.LASFDE281-.Lframe1
	.4byte	.LFB1938
	.4byte	.LFE1938-.LFB1938
	.uleb128 0x4
	.4byte	.LLSDA1938
	.byte	0x4
	.4byte	.LCFI416-.LFB1938
	.byte	0xe
	.uleb128 0x10
	.byte	0x4
	.4byte	.LCFI417-.LCFI416
	.byte	0x9f
	.uleb128 0x1
	.byte	0x9
	.uleb128 0x41
	.uleb128 0x0
	.byte	0x4
	.4byte	.LCFI419-.LCFI417
	.byte	0x11
	.uleb128 0x41
	.sleb128 -1
	.byte	0x9e
	.uleb128 0x2
	.align 2
.LEFDE281:
.LSFDE283:
	.4byte	.LEFDE283-.LASFDE283
.LASFDE283:
	.4byte	.LASFDE283-.Lframe1
	.4byte	.LFB2825
	.4byte	.LFE2825-.LFB2825
	.uleb128 0x4
	.4byte	.LLSDA2825
	.byte	0x4
	.4byte	.LCFI420-.LFB2825
	.byte	0xe
	.uleb128 0x60
	.byte	0x4
	.4byte	.LCFI423-.LCFI420
	.byte	0x9e
	.uleb128 0x2
	.byte	0x9c
	.uleb128 0x4
	.byte	0x9
	.uleb128 0x41
	.uleb128 0x0
	.byte	0x4
	.4byte	.LCFI425-.LCFI423
	.byte	0x9d
	.uleb128 0x3
	.byte	0x97
	.uleb128 0x9
	.byte	0x4
	.4byte	.LCFI440-.LCFI425
	.byte	0x11
	.uleb128 0x41
	.sleb128 -1
	.byte	0x9f
	.uleb128 0x1
	.byte	0x9b
	.uleb128 0x5
	.byte	0x9a
	.uleb128 0x6
	.byte	0x99
	.uleb128 0x7
	.byte	0x98
	.uleb128 0x8
	.byte	0x96
	.uleb128 0xa
	.byte	0x95
	.uleb128 0xb
	.byte	0x94
	.uleb128 0xc
	.byte	0x93
	.uleb128 0xd
	.byte	0x92
	.uleb128 0xe
	.byte	0x91
	.uleb128 0xf
	.byte	0x90
	.uleb128 0x10
	.byte	0x8f
	.uleb128 0x11
	.byte	0x8e
	.uleb128 0x12
	.align 2
.LEFDE283:
.LSFDE285:
	.4byte	.LEFDE285-.LASFDE285
.LASFDE285:
	.4byte	.LASFDE285-.Lframe1
	.4byte	.LFB3255
	.4byte	.LFE3255-.LFB3255
	.uleb128 0x4
	.4byte	0x0
	.byte	0x4
	.4byte	.LCFI442-.LFB3255
	.byte	0xe
	.uleb128 0x28
	.byte	0x4
	.4byte	.LCFI445-.LCFI442
	.byte	0x9d
	.uleb128 0x3
	.byte	0x9c
	.uleb128 0x4
	.byte	0x11
	.uleb128 0x41
	.sleb128 -1
	.align 2
.LEFDE285:
.LSFDE289:
	.4byte	.LEFDE289-.LASFDE289
.LASFDE289:
	.4byte	.LASFDE289-.Lframe1
	.4byte	.LFB2824
	.4byte	.LFE2824-.LFB2824
	.uleb128 0x4
	.4byte	.LLSDA2824
	.byte	0x4
	.4byte	.LCFI446-.LFB2824
	.byte	0xe
	.uleb128 0x60
	.byte	0x4
	.4byte	.LCFI449-.LCFI446
	.byte	0x9e
	.uleb128 0x2
	.byte	0x9c
	.uleb128 0x4
	.byte	0x9
	.uleb128 0x41
	.uleb128 0x0
	.byte	0x4
	.4byte	.LCFI451-.LCFI449
	.byte	0x9d
	.uleb128 0x3
	.byte	0x97
	.uleb128 0x9
	.byte	0x4
	.4byte	.LCFI466-.LCFI451
	.byte	0x11
	.uleb128 0x41
	.sleb128 -1
	.byte	0x9f
	.uleb128 0x1
	.byte	0x9b
	.uleb128 0x5
	.byte	0x9a
	.uleb128 0x6
	.byte	0x99
	.uleb128 0x7
	.byte	0x98
	.uleb128 0x8
	.byte	0x96
	.uleb128 0xa
	.byte	0x95
	.uleb128 0xb
	.byte	0x94
	.uleb128 0xc
	.byte	0x93
	.uleb128 0xd
	.byte	0x92
	.uleb128 0xe
	.byte	0x91
	.uleb128 0xf
	.byte	0x90
	.uleb128 0x10
	.byte	0x8f
	.uleb128 0x11
	.byte	0x8e
	.uleb128 0x12
	.align 2
.LEFDE289:
.LSFDE291:
	.4byte	.LEFDE291-.LASFDE291
.LASFDE291:
	.4byte	.LASFDE291-.Lframe1
	.4byte	.LFB3261
	.4byte	.LFE3261-.LFB3261
	.uleb128 0x4
	.4byte	.LLSDA3261
	.byte	0x4
	.4byte	.LCFI468-.LFB3261
	.byte	0xe
	.uleb128 0x20
	.byte	0x4
	.4byte	.LCFI470-.LCFI468
	.byte	0x9e
	.uleb128 0x2
	.byte	0x9c
	.uleb128 0x4
	.byte	0x9
	.uleb128 0x41
	.uleb128 0x0
	.byte	0x4
	.4byte	.LCFI474-.LCFI470
	.byte	0x11
	.uleb128 0x41
	.sleb128 -1
	.byte	0x9f
	.uleb128 0x1
	.byte	0x9d
	.uleb128 0x3
	.byte	0x9b
	.uleb128 0x5
	.align 2
.LEFDE291:
.LSFDE293:
	.4byte	.LEFDE293-.LASFDE293
.LASFDE293:
	.4byte	.LASFDE293-.Lframe1
	.4byte	.LFB3260
	.4byte	.LFE3260-.LFB3260
	.uleb128 0x4
	.4byte	.LLSDA3260
	.byte	0x4
	.4byte	.LCFI476-.LFB3260
	.byte	0xe
	.uleb128 0x20
	.byte	0x4
	.4byte	.LCFI478-.LCFI476
	.byte	0x9e
	.uleb128 0x2
	.byte	0x9c
	.uleb128 0x4
	.byte	0x9
	.uleb128 0x41
	.uleb128 0x0
	.byte	0x4
	.4byte	.LCFI482-.LCFI478
	.byte	0x11
	.uleb128 0x41
	.sleb128 -1
	.byte	0x9f
	.uleb128 0x1
	.byte	0x9d
	.uleb128 0x3
	.byte	0x9b
	.uleb128 0x5
	.align 2
.LEFDE293:
.LSFDE295:
	.4byte	.LEFDE295-.LASFDE295
.LASFDE295:
	.4byte	.LASFDE295-.Lframe1
	.4byte	.LFB3257
	.4byte	.LFE3257-.LFB3257
	.uleb128 0x4
	.4byte	0x0
	.byte	0x4
	.4byte	.LCFI484-.LFB3257
	.byte	0xe
	.uleb128 0x8
	.byte	0x4
	.4byte	.LCFI485-.LCFI484
	.byte	0x11
	.uleb128 0x41
	.sleb128 -1
	.align 2
.LEFDE295:
	.section	".text"
.Letext0:
	.section	.debug_loc,"",@progbits
.Ldebug_loc0:
.LLST2:
	.4byte	.LVL1
	.4byte	.LVL2
	.2byte	0x1
	.byte	0x53
	.4byte	0x0
	.4byte	0x0
.LLST8:
	.4byte	.LFB3239
	.4byte	.LCFI1
	.2byte	0x1
	.byte	0x51
	.4byte	.LCFI1
	.4byte	.LFE3239
	.2byte	0x2
	.byte	0x71
	.sleb128 16
	.4byte	0x0
	.4byte	0x0
.LLST9:
	.4byte	.LVL8
	.4byte	.LVL9
	.2byte	0x1
	.byte	0x53
	.4byte	.LVL10
	.4byte	.LVL11
	.2byte	0x1
	.byte	0x53
	.4byte	0x0
	.4byte	0x0
.LLST10:
	.4byte	.LFB3152
	.4byte	.LCFI5
	.2byte	0x1
	.byte	0x51
	.4byte	.LCFI5
	.4byte	.LFE3152
	.2byte	0x2
	.byte	0x71
	.sleb128 8
	.4byte	0x0
	.4byte	0x0
.LLST11:
	.4byte	.LVL12
	.4byte	.LVL13
	.2byte	0x1
	.byte	0x53
	.4byte	0x0
	.4byte	0x0
.LLST12:
	.4byte	.LFB1475
	.4byte	.LCFI8
	.2byte	0x1
	.byte	0x51
	.4byte	.LCFI8
	.4byte	.LFE1475
	.2byte	0x2
	.byte	0x71
	.sleb128 16
	.4byte	0x0
	.4byte	0x0
.LLST13:
	.4byte	.LVL14
	.4byte	.LVL15
	.2byte	0x1
	.byte	0x53
	.4byte	.LVL15
	.4byte	.LVL16
	.2byte	0x1
	.byte	0x6f
	.4byte	0x0
	.4byte	0x0
.LLST14:
	.4byte	.LFB3251
	.4byte	.LCFI13
	.2byte	0x1
	.byte	0x51
	.4byte	.LCFI13
	.4byte	.LFE3251
	.2byte	0x2
	.byte	0x71
	.sleb128 16
	.4byte	0x0
	.4byte	0x0
.LLST15:
	.4byte	.LVL17
	.4byte	.LVL18
	.2byte	0x1
	.byte	0x53
	.4byte	.LVL18
	.4byte	.LVL19
	.2byte	0x1
	.byte	0x6f
	.4byte	0x0
	.4byte	0x0
.LLST16:
	.4byte	.LFB3176
	.4byte	.LCFI17
	.2byte	0x1
	.byte	0x51
	.4byte	.LCFI17
	.4byte	.LFE3176
	.2byte	0x2
	.byte	0x71
	.sleb128 8
	.4byte	0x0
	.4byte	0x0
.LLST17:
	.4byte	.LVL20
	.4byte	.LVL21
	.2byte	0x1
	.byte	0x53
	.4byte	0x0
	.4byte	0x0
.LLST18:
	.4byte	.LFB3241
	.4byte	.LCFI20
	.2byte	0x1
	.byte	0x51
	.4byte	.LCFI20
	.4byte	.LFE3241
	.2byte	0x2
	.byte	0x71
	.sleb128 16
	.4byte	0x0
	.4byte	0x0
.LLST19:
	.4byte	.LVL22
	.4byte	.LVL23
	.2byte	0x1
	.byte	0x53
	.4byte	.LVL23
	.4byte	.LVL24
	.2byte	0x1
	.byte	0x6f
	.4byte	0x0
	.4byte	0x0
.LLST20:
	.4byte	.LFB3170
	.4byte	.LCFI24
	.2byte	0x1
	.byte	0x51
	.4byte	.LCFI24
	.4byte	.LFE3170
	.2byte	0x2
	.byte	0x71
	.sleb128 8
	.4byte	0x0
	.4byte	0x0
.LLST21:
	.4byte	.LVL25
	.4byte	.LVL26
	.2byte	0x1
	.byte	0x53
	.4byte	0x0
	.4byte	0x0
.LLST22:
	.4byte	.LFB3225
	.4byte	.LCFI27
	.2byte	0x1
	.byte	0x51
	.4byte	.LCFI27
	.4byte	.LFE3225
	.2byte	0x2
	.byte	0x71
	.sleb128 16
	.4byte	0x0
	.4byte	0x0
.LLST23:
	.4byte	.LVL27
	.4byte	.LVL28
	.2byte	0x1
	.byte	0x53
	.4byte	.LVL28
	.4byte	.LVL29
	.2byte	0x1
	.byte	0x6f
	.4byte	0x0
	.4byte	0x0
.LLST24:
	.4byte	.LFB3120
	.4byte	.LCFI31
	.2byte	0x1
	.byte	0x51
	.4byte	.LCFI31
	.4byte	.LFE3120
	.2byte	0x2
	.byte	0x71
	.sleb128 8
	.4byte	0x0
	.4byte	0x0
.LLST25:
	.4byte	.LVL30
	.4byte	.LVL31
	.2byte	0x1
	.byte	0x53
	.4byte	0x0
	.4byte	0x0
.LLST26:
	.4byte	.LFB2494
	.4byte	.LCFI34
	.2byte	0x1
	.byte	0x51
	.4byte	.LCFI34
	.4byte	.LFE2494
	.2byte	0x2
	.byte	0x71
	.sleb128 8
	.4byte	0x0
	.4byte	0x0
.LLST27:
	.4byte	.LVL32
	.4byte	.LVL33
	.2byte	0x1
	.byte	0x53
	.4byte	0x0
	.4byte	0x0
.LLST29:
	.4byte	.LFB1465
	.4byte	.LCFI37
	.2byte	0x1
	.byte	0x51
	.4byte	.LCFI37
	.4byte	.LFE1465
	.2byte	0x2
	.byte	0x71
	.sleb128 16
	.4byte	0x0
	.4byte	0x0
.LLST30:
	.4byte	.LVL35
	.4byte	.LVL36
	.2byte	0x1
	.byte	0x53
	.4byte	.LVL36
	.4byte	.LVL37
	.2byte	0x1
	.byte	0x6f
	.4byte	0x0
	.4byte	0x0
.LLST31:
	.4byte	.LFB1464
	.4byte	.LCFI41
	.2byte	0x1
	.byte	0x51
	.4byte	.LCFI41
	.4byte	.LFE1464
	.2byte	0x2
	.byte	0x71
	.sleb128 16
	.4byte	0x0
	.4byte	0x0
.LLST32:
	.4byte	.LVL38
	.4byte	.LVL39
	.2byte	0x1
	.byte	0x53
	.4byte	.LVL39
	.4byte	.LVL40
	.2byte	0x1
	.byte	0x6f
	.4byte	0x0
	.4byte	0x0
.LLST33:
	.4byte	.LFB1502
	.4byte	.LCFI45
	.2byte	0x1
	.byte	0x51
	.4byte	.LCFI45
	.4byte	.LFE1502
	.2byte	0x2
	.byte	0x71
	.sleb128 8
	.4byte	0x0
	.4byte	0x0
.LLST34:
	.4byte	.LVL41
	.4byte	.LVL42
	.2byte	0x1
	.byte	0x53
	.4byte	0x0
	.4byte	0x0
.LLST35:
	.4byte	.LFB3256
	.4byte	.LCFI48
	.2byte	0x1
	.byte	0x51
	.4byte	.LCFI48
	.4byte	.LFE3256
	.2byte	0x2
	.byte	0x71
	.sleb128 8
	.4byte	0x0
	.4byte	0x0
.LLST36:
	.4byte	.LFB2940
	.4byte	.LCFI51
	.2byte	0x1
	.byte	0x51
	.4byte	.LCFI51
	.4byte	.LFE2940
	.2byte	0x2
	.byte	0x71
	.sleb128 8
	.4byte	0x0
	.4byte	0x0
.LLST37:
	.4byte	.LVL43
	.4byte	.LVL44
	.2byte	0x1
	.byte	0x53
	.4byte	0x0
	.4byte	0x0
.LLST38:
	.4byte	.LVL43
	.4byte	.LVL45
	.2byte	0x1
	.byte	0x54
	.4byte	0x0
	.4byte	0x0
.LLST39:
	.4byte	.LFB2939
	.4byte	.LCFI54
	.2byte	0x1
	.byte	0x51
	.4byte	.LCFI54
	.4byte	.LFE2939
	.2byte	0x2
	.byte	0x71
	.sleb128 8
	.4byte	0x0
	.4byte	0x0
.LLST40:
	.4byte	.LVL46
	.4byte	.LVL47
	.2byte	0x1
	.byte	0x53
	.4byte	0x0
	.4byte	0x0
.LLST41:
	.4byte	.LVL46
	.4byte	.LVL48
	.2byte	0x1
	.byte	0x54
	.4byte	0x0
	.4byte	0x0
.LLST42:
	.4byte	.LVL46
	.4byte	.LVL48
	.2byte	0x1
	.byte	0x55
	.4byte	0x0
	.4byte	0x0
.LLST43:
	.4byte	.LFB2938
	.4byte	.LCFI57
	.2byte	0x1
	.byte	0x51
	.4byte	.LCFI57
	.4byte	.LFE2938
	.2byte	0x2
	.byte	0x71
	.sleb128 8
	.4byte	0x0
	.4byte	0x0
.LLST44:
	.4byte	.LVL49
	.4byte	.LVL50
	.2byte	0x1
	.byte	0x53
	.4byte	0x0
	.4byte	0x0
.LLST45:
	.4byte	.LVL49
	.4byte	.LVL51
	.2byte	0x1
	.byte	0x54
	.4byte	0x0
	.4byte	0x0
.LLST46:
	.4byte	.LVL49
	.4byte	.LVL51
	.2byte	0x1
	.byte	0x55
	.4byte	0x0
	.4byte	0x0
.LLST47:
	.4byte	.LVL49
	.4byte	.LVL51
	.2byte	0x1
	.byte	0x56
	.4byte	0x0
	.4byte	0x0
.LLST48:
	.4byte	.LFB2937
	.4byte	.LCFI60
	.2byte	0x1
	.byte	0x51
	.4byte	.LCFI60
	.4byte	.LFE2937
	.2byte	0x2
	.byte	0x71
	.sleb128 8
	.4byte	0x0
	.4byte	0x0
.LLST49:
	.4byte	.LVL52
	.4byte	.LVL53
	.2byte	0x1
	.byte	0x53
	.4byte	0x0
	.4byte	0x0
.LLST50:
	.4byte	.LFB2936
	.4byte	.LCFI63
	.2byte	0x1
	.byte	0x51
	.4byte	.LCFI63
	.4byte	.LFE2936
	.2byte	0x2
	.byte	0x71
	.sleb128 8
	.4byte	0x0
	.4byte	0x0
.LLST51:
	.4byte	.LVL54
	.4byte	.LVL55
	.2byte	0x1
	.byte	0x53
	.4byte	0x0
	.4byte	0x0
.LLST52:
	.4byte	.LVL54
	.4byte	.LVL56
	.2byte	0x1
	.byte	0x54
	.4byte	0x0
	.4byte	0x0
.LLST53:
	.4byte	.LVL54
	.4byte	.LVL56
	.2byte	0x1
	.byte	0x55
	.4byte	0x0
	.4byte	0x0
.LLST54:
	.4byte	.LVL54
	.4byte	.LVL56
	.2byte	0x1
	.byte	0x56
	.4byte	0x0
	.4byte	0x0
.LLST55:
	.4byte	.LFB2935
	.4byte	.LCFI66
	.2byte	0x1
	.byte	0x51
	.4byte	.LCFI66
	.4byte	.LFE2935
	.2byte	0x2
	.byte	0x71
	.sleb128 8
	.4byte	0x0
	.4byte	0x0
.LLST56:
	.4byte	.LVL57
	.4byte	.LVL58
	.2byte	0x1
	.byte	0x53
	.4byte	0x0
	.4byte	0x0
.LLST57:
	.4byte	.LVL57
	.4byte	.LVL59
	.2byte	0x1
	.byte	0x54
	.4byte	0x0
	.4byte	0x0
.LLST58:
	.4byte	.LFB2934
	.4byte	.LCFI69
	.2byte	0x1
	.byte	0x51
	.4byte	.LCFI69
	.4byte	.LFE2934
	.2byte	0x2
	.byte	0x71
	.sleb128 8
	.4byte	0x0
	.4byte	0x0
.LLST59:
	.4byte	.LVL60
	.4byte	.LVL61
	.2byte	0x1
	.byte	0x53
	.4byte	0x0
	.4byte	0x0
.LLST60:
	.4byte	.LVL60
	.4byte	.LVL62
	.2byte	0x1
	.byte	0x54
	.4byte	0x0
	.4byte	0x0
.LLST61:
	.4byte	.LFB2933
	.4byte	.LCFI72
	.2byte	0x1
	.byte	0x51
	.4byte	.LCFI72
	.4byte	.LFE2933
	.2byte	0x2
	.byte	0x71
	.sleb128 8
	.4byte	0x0
	.4byte	0x0
.LLST62:
	.4byte	.LVL63
	.4byte	.LVL64
	.2byte	0x1
	.byte	0x53
	.4byte	0x0
	.4byte	0x0
.LLST63:
	.4byte	.LFB2932
	.4byte	.LCFI75
	.2byte	0x1
	.byte	0x51
	.4byte	.LCFI75
	.4byte	.LFE2932
	.2byte	0x2
	.byte	0x71
	.sleb128 8
	.4byte	0x0
	.4byte	0x0
.LLST64:
	.4byte	.LVL65
	.4byte	.LVL66
	.2byte	0x1
	.byte	0x53
	.4byte	0x0
	.4byte	0x0
.LLST65:
	.4byte	.LVL65
	.4byte	.LVL67
	.2byte	0x1
	.byte	0x54
	.4byte	0x0
	.4byte	0x0
.LLST66:
	.4byte	.LFB2931
	.4byte	.LCFI78
	.2byte	0x1
	.byte	0x51
	.4byte	.LCFI78
	.4byte	.LFE2931
	.2byte	0x2
	.byte	0x71
	.sleb128 8
	.4byte	0x0
	.4byte	0x0
.LLST67:
	.4byte	.LVL68
	.4byte	.LVL69
	.2byte	0x1
	.byte	0x53
	.4byte	0x0
	.4byte	0x0
.LLST68:
	.4byte	.LFB2930
	.4byte	.LCFI81
	.2byte	0x1
	.byte	0x51
	.4byte	.LCFI81
	.4byte	.LFE2930
	.2byte	0x2
	.byte	0x71
	.sleb128 8
	.4byte	0x0
	.4byte	0x0
.LLST69:
	.4byte	.LVL70
	.4byte	.LVL71
	.2byte	0x1
	.byte	0x53
	.4byte	0x0
	.4byte	0x0
.LLST70:
	.4byte	.LVL70
	.4byte	.LVL72
	.2byte	0x1
	.byte	0x54
	.4byte	0x0
	.4byte	0x0
.LLST71:
	.4byte	.LFB2929
	.4byte	.LCFI84
	.2byte	0x1
	.byte	0x51
	.4byte	.LCFI84
	.4byte	.LFE2929
	.2byte	0x2
	.byte	0x71
	.sleb128 8
	.4byte	0x0
	.4byte	0x0
.LLST72:
	.4byte	.LVL73
	.4byte	.LVL74
	.2byte	0x1
	.byte	0x53
	.4byte	0x0
	.4byte	0x0
.LLST73:
	.4byte	.LFB2928
	.4byte	.LCFI87
	.2byte	0x1
	.byte	0x51
	.4byte	.LCFI87
	.4byte	.LFE2928
	.2byte	0x2
	.byte	0x71
	.sleb128 8
	.4byte	0x0
	.4byte	0x0
.LLST74:
	.4byte	.LVL75
	.4byte	.LVL76
	.2byte	0x1
	.byte	0x53
	.4byte	0x0
	.4byte	0x0
.LLST75:
	.4byte	.LVL75
	.4byte	.LVL77
	.2byte	0x1
	.byte	0x54
	.4byte	0x0
	.4byte	0x0
.LLST76:
	.4byte	.LFB2927
	.4byte	.LCFI90
	.2byte	0x1
	.byte	0x51
	.4byte	.LCFI90
	.4byte	.LFE2927
	.2byte	0x2
	.byte	0x71
	.sleb128 8
	.4byte	0x0
	.4byte	0x0
.LLST77:
	.4byte	.LVL78
	.4byte	.LVL79
	.2byte	0x1
	.byte	0x53
	.4byte	0x0
	.4byte	0x0
.LLST78:
	.4byte	.LFB2926
	.4byte	.LCFI93
	.2byte	0x1
	.byte	0x51
	.4byte	.LCFI93
	.4byte	.LFE2926
	.2byte	0x2
	.byte	0x71
	.sleb128 8
	.4byte	0x0
	.4byte	0x0
.LLST79:
	.4byte	.LVL80
	.4byte	.LVL81
	.2byte	0x1
	.byte	0x53
	.4byte	0x0
	.4byte	0x0
.LLST80:
	.4byte	.LVL80
	.4byte	.LVL82
	.2byte	0x1
	.byte	0x54
	.4byte	0x0
	.4byte	0x0
.LLST81:
	.4byte	.LFB2925
	.4byte	.LCFI96
	.2byte	0x1
	.byte	0x51
	.4byte	.LCFI96
	.4byte	.LFE2925
	.2byte	0x2
	.byte	0x71
	.sleb128 8
	.4byte	0x0
	.4byte	0x0
.LLST82:
	.4byte	.LVL83
	.4byte	.LVL84
	.2byte	0x1
	.byte	0x53
	.4byte	0x0
	.4byte	0x0
.LLST83:
	.4byte	.LVL83
	.4byte	.LVL85
	.2byte	0x1
	.byte	0x54
	.4byte	0x0
	.4byte	0x0
.LLST84:
	.4byte	.LVL83
	.4byte	.LVL85
	.2byte	0x1
	.byte	0x55
	.4byte	0x0
	.4byte	0x0
.LLST85:
	.4byte	.LFB2924
	.4byte	.LCFI99
	.2byte	0x1
	.byte	0x51
	.4byte	.LCFI99
	.4byte	.LFE2924
	.2byte	0x2
	.byte	0x71
	.sleb128 8
	.4byte	0x0
	.4byte	0x0
.LLST86:
	.4byte	.LVL86
	.4byte	.LVL87
	.2byte	0x1
	.byte	0x53
	.4byte	0x0
	.4byte	0x0
.LLST87:
	.4byte	.LVL86
	.4byte	.LVL88
	.2byte	0x1
	.byte	0x54
	.4byte	0x0
	.4byte	0x0
.LLST88:
	.4byte	.LFB2923
	.4byte	.LCFI102
	.2byte	0x1
	.byte	0x51
	.4byte	.LCFI102
	.4byte	.LFE2923
	.2byte	0x2
	.byte	0x71
	.sleb128 8
	.4byte	0x0
	.4byte	0x0
.LLST89:
	.4byte	.LVL89
	.4byte	.LVL90
	.2byte	0x1
	.byte	0x53
	.4byte	0x0
	.4byte	0x0
.LLST90:
	.4byte	.LFB2922
	.4byte	.LCFI105
	.2byte	0x1
	.byte	0x51
	.4byte	.LCFI105
	.4byte	.LFE2922
	.2byte	0x2
	.byte	0x71
	.sleb128 8
	.4byte	0x0
	.4byte	0x0
.LLST91:
	.4byte	.LVL91
	.4byte	.LVL92
	.2byte	0x1
	.byte	0x53
	.4byte	0x0
	.4byte	0x0
.LLST92:
	.4byte	.LFB2921
	.4byte	.LCFI108
	.2byte	0x1
	.byte	0x51
	.4byte	.LCFI108
	.4byte	.LFE2921
	.2byte	0x2
	.byte	0x71
	.sleb128 8
	.4byte	0x0
	.4byte	0x0
.LLST93:
	.4byte	.LVL93
	.4byte	.LVL94
	.2byte	0x1
	.byte	0x53
	.4byte	0x0
	.4byte	0x0
.LLST94:
	.4byte	.LFB2920
	.4byte	.LCFI111
	.2byte	0x1
	.byte	0x51
	.4byte	.LCFI111
	.4byte	.LFE2920
	.2byte	0x2
	.byte	0x71
	.sleb128 8
	.4byte	0x0
	.4byte	0x0
.LLST95:
	.4byte	.LVL95
	.4byte	.LVL96
	.2byte	0x1
	.byte	0x53
	.4byte	0x0
	.4byte	0x0
.LLST96:
	.4byte	.LVL95
	.4byte	.LVL97
	.2byte	0x1
	.byte	0x54
	.4byte	0x0
	.4byte	0x0
.LLST97:
	.4byte	.LFB2919
	.4byte	.LCFI114
	.2byte	0x1
	.byte	0x51
	.4byte	.LCFI114
	.4byte	.LFE2919
	.2byte	0x2
	.byte	0x71
	.sleb128 8
	.4byte	0x0
	.4byte	0x0
.LLST98:
	.4byte	.LVL98
	.4byte	.LVL99
	.2byte	0x1
	.byte	0x53
	.4byte	0x0
	.4byte	0x0
.LLST99:
	.4byte	.LVL98
	.4byte	.LVL100
	.2byte	0x1
	.byte	0x54
	.4byte	0x0
	.4byte	0x0
.LLST100:
	.4byte	.LVL98
	.4byte	.LVL100
	.2byte	0x1
	.byte	0x55
	.4byte	0x0
	.4byte	0x0
.LLST101:
	.4byte	.LVL98
	.4byte	.LVL100
	.2byte	0x2
	.byte	0x90
	.uleb128 0x21
	.4byte	0x0
	.4byte	0x0
.LLST102:
	.4byte	.LVL98
	.4byte	.LVL100
	.2byte	0x1
	.byte	0x56
	.4byte	0x0
	.4byte	0x0
.LLST103:
	.4byte	.LFB2918
	.4byte	.LCFI117
	.2byte	0x1
	.byte	0x51
	.4byte	.LCFI117
	.4byte	.LFE2918
	.2byte	0x2
	.byte	0x71
	.sleb128 8
	.4byte	0x0
	.4byte	0x0
.LLST104:
	.4byte	.LVL101
	.4byte	.LVL102
	.2byte	0x1
	.byte	0x53
	.4byte	0x0
	.4byte	0x0
.LLST105:
	.4byte	.LVL101
	.4byte	.LVL103
	.2byte	0x1
	.byte	0x54
	.4byte	0x0
	.4byte	0x0
.LLST106:
	.4byte	.LVL101
	.4byte	.LVL103
	.2byte	0x1
	.byte	0x55
	.4byte	0x0
	.4byte	0x0
.LLST107:
	.4byte	.LVL101
	.4byte	.LVL103
	.2byte	0x2
	.byte	0x90
	.uleb128 0x21
	.4byte	0x0
	.4byte	0x0
.LLST108:
	.4byte	.LVL101
	.4byte	.LVL103
	.2byte	0x1
	.byte	0x56
	.4byte	0x0
	.4byte	0x0
.LLST109:
	.4byte	.LVL101
	.4byte	.LVL103
	.2byte	0x2
	.byte	0x90
	.uleb128 0x22
	.4byte	0x0
	.4byte	0x0
.LLST110:
	.4byte	.LVL101
	.4byte	.LVL103
	.2byte	0x1
	.byte	0x57
	.4byte	0x0
	.4byte	0x0
.LLST111:
	.4byte	.LVL101
	.4byte	.LVL103
	.2byte	0x2
	.byte	0x90
	.uleb128 0x23
	.4byte	0x0
	.4byte	0x0
.LLST112:
	.4byte	.LFB2917
	.4byte	.LCFI120
	.2byte	0x1
	.byte	0x51
	.4byte	.LCFI120
	.4byte	.LFE2917
	.2byte	0x2
	.byte	0x71
	.sleb128 8
	.4byte	0x0
	.4byte	0x0
.LLST113:
	.4byte	.LVL104
	.4byte	.LVL105
	.2byte	0x1
	.byte	0x53
	.4byte	0x0
	.4byte	0x0
.LLST114:
	.4byte	.LVL104
	.4byte	.LVL106
	.2byte	0x1
	.byte	0x54
	.4byte	0x0
	.4byte	0x0
.LLST115:
	.4byte	.LVL104
	.4byte	.LVL106
	.2byte	0x2
	.byte	0x90
	.uleb128 0x21
	.4byte	0x0
	.4byte	0x0
.LLST116:
	.4byte	.LVL104
	.4byte	.LVL106
	.2byte	0x1
	.byte	0x55
	.4byte	0x0
	.4byte	0x0
.LLST117:
	.4byte	.LFB2916
	.4byte	.LCFI123
	.2byte	0x1
	.byte	0x51
	.4byte	.LCFI123
	.4byte	.LFE2916
	.2byte	0x2
	.byte	0x71
	.sleb128 8
	.4byte	0x0
	.4byte	0x0
.LLST118:
	.4byte	.LVL107
	.4byte	.LVL108
	.2byte	0x1
	.byte	0x53
	.4byte	0x0
	.4byte	0x0
.LLST119:
	.4byte	.LVL107
	.4byte	.LVL109
	.2byte	0x1
	.byte	0x54
	.4byte	0x0
	.4byte	0x0
.LLST120:
	.4byte	.LVL107
	.4byte	.LVL109
	.2byte	0x2
	.byte	0x90
	.uleb128 0x21
	.4byte	0x0
	.4byte	0x0
.LLST121:
	.4byte	.LVL107
	.4byte	.LVL109
	.2byte	0x2
	.byte	0x90
	.uleb128 0x22
	.4byte	0x0
	.4byte	0x0
.LLST122:
	.4byte	.LVL107
	.4byte	.LVL109
	.2byte	0x1
	.byte	0x55
	.4byte	0x0
	.4byte	0x0
.LLST123:
	.4byte	.LVL107
	.4byte	.LVL109
	.2byte	0x1
	.byte	0x56
	.4byte	0x0
	.4byte	0x0
.LLST124:
	.4byte	.LVL107
	.4byte	.LVL109
	.2byte	0x2
	.byte	0x90
	.uleb128 0x23
	.4byte	0x0
	.4byte	0x0
.LLST125:
	.4byte	.LVL107
	.4byte	.LVL109
	.2byte	0x1
	.byte	0x57
	.4byte	0x0
	.4byte	0x0
.LLST126:
	.4byte	.LFB2915
	.4byte	.LCFI126
	.2byte	0x1
	.byte	0x51
	.4byte	.LCFI126
	.4byte	.LFE2915
	.2byte	0x2
	.byte	0x71
	.sleb128 8
	.4byte	0x0
	.4byte	0x0
.LLST127:
	.4byte	.LVL110
	.4byte	.LVL111
	.2byte	0x1
	.byte	0x53
	.4byte	0x0
	.4byte	0x0
.LLST128:
	.4byte	.LVL110
	.4byte	.LVL112
	.2byte	0x1
	.byte	0x54
	.4byte	0x0
	.4byte	0x0
.LLST129:
	.4byte	.LVL110
	.4byte	.LVL112
	.2byte	0x1
	.byte	0x55
	.4byte	0x0
	.4byte	0x0
.LLST130:
	.4byte	.LVL110
	.4byte	.LVL112
	.2byte	0x1
	.byte	0x56
	.4byte	0x0
	.4byte	0x0
.LLST131:
	.4byte	.LVL110
	.4byte	.LVL112
	.2byte	0x1
	.byte	0x57
	.4byte	0x0
	.4byte	0x0
.LLST132:
	.4byte	.LVL110
	.4byte	.LVL112
	.2byte	0x1
	.byte	0x58
	.4byte	0x0
	.4byte	0x0
.LLST133:
	.4byte	.LVL110
	.4byte	.LVL112
	.2byte	0x1
	.byte	0x59
	.4byte	0x0
	.4byte	0x0
.LLST134:
	.4byte	.LVL110
	.4byte	.LVL112
	.2byte	0x2
	.byte	0x90
	.uleb128 0x21
	.4byte	0x0
	.4byte	0x0
.LLST135:
	.4byte	.LFB2914
	.4byte	.LCFI129
	.2byte	0x1
	.byte	0x51
	.4byte	.LCFI129
	.4byte	.LFE2914
	.2byte	0x2
	.byte	0x71
	.sleb128 8
	.4byte	0x0
	.4byte	0x0
.LLST136:
	.4byte	.LVL113
	.4byte	.LVL114
	.2byte	0x1
	.byte	0x53
	.4byte	0x0
	.4byte	0x0
.LLST137:
	.4byte	.LFB2913
	.4byte	.LCFI132
	.2byte	0x1
	.byte	0x51
	.4byte	.LCFI132
	.4byte	.LFE2913
	.2byte	0x2
	.byte	0x71
	.sleb128 8
	.4byte	0x0
	.4byte	0x0
.LLST138:
	.4byte	.LVL115
	.4byte	.LVL116
	.2byte	0x1
	.byte	0x53
	.4byte	0x0
	.4byte	0x0
.LLST139:
	.4byte	.LVL115
	.4byte	.LVL117
	.2byte	0x1
	.byte	0x54
	.4byte	0x0
	.4byte	0x0
.LLST140:
	.4byte	.LFB2912
	.4byte	.LCFI135
	.2byte	0x1
	.byte	0x51
	.4byte	.LCFI135
	.4byte	.LFE2912
	.2byte	0x2
	.byte	0x71
	.sleb128 8
	.4byte	0x0
	.4byte	0x0
.LLST141:
	.4byte	.LVL118
	.4byte	.LVL119
	.2byte	0x1
	.byte	0x53
	.4byte	0x0
	.4byte	0x0
.LLST142:
	.4byte	.LVL118
	.4byte	.LVL120
	.2byte	0x1
	.byte	0x54
	.4byte	0x0
	.4byte	0x0
.LLST143:
	.4byte	.LVL118
	.4byte	.LVL120
	.2byte	0x1
	.byte	0x55
	.4byte	0x0
	.4byte	0x0
.LLST144:
	.4byte	.LVL118
	.4byte	.LVL120
	.2byte	0x1
	.byte	0x56
	.4byte	0x0
	.4byte	0x0
.LLST145:
	.4byte	.LFB2911
	.4byte	.LCFI138
	.2byte	0x1
	.byte	0x51
	.4byte	.LCFI138
	.4byte	.LFE2911
	.2byte	0x2
	.byte	0x71
	.sleb128 8
	.4byte	0x0
	.4byte	0x0
.LLST146:
	.4byte	.LVL121
	.4byte	.LVL122
	.2byte	0x1
	.byte	0x53
	.4byte	0x0
	.4byte	0x0
.LLST147:
	.4byte	.LVL121
	.4byte	.LVL123
	.2byte	0x1
	.byte	0x54
	.4byte	0x0
	.4byte	0x0
.LLST148:
	.4byte	.LVL121
	.4byte	.LVL123
	.2byte	0x1
	.byte	0x55
	.4byte	0x0
	.4byte	0x0
.LLST149:
	.4byte	.LFB2910
	.4byte	.LCFI141
	.2byte	0x1
	.byte	0x51
	.4byte	.LCFI141
	.4byte	.LFE2910
	.2byte	0x2
	.byte	0x71
	.sleb128 8
	.4byte	0x0
	.4byte	0x0
.LLST150:
	.4byte	.LVL124
	.4byte	.LVL125
	.2byte	0x1
	.byte	0x53
	.4byte	0x0
	.4byte	0x0
.LLST151:
	.4byte	.LVL124
	.4byte	.LVL126
	.2byte	0x2
	.byte	0x90
	.uleb128 0x21
	.4byte	0x0
	.4byte	0x0
.LLST152:
	.4byte	.LVL124
	.4byte	.LVL126
	.2byte	0x1
	.byte	0x55
	.4byte	0x0
	.4byte	0x0
.LLST153:
	.4byte	.LVL124
	.4byte	.LVL126
	.2byte	0x1
	.byte	0x56
	.4byte	0x0
	.4byte	0x0
.LLST154:
	.4byte	.LFB2909
	.4byte	.LCFI144
	.2byte	0x1
	.byte	0x51
	.4byte	.LCFI144
	.4byte	.LFE2909
	.2byte	0x2
	.byte	0x71
	.sleb128 8
	.4byte	0x0
	.4byte	0x0
.LLST155:
	.4byte	.LVL127
	.4byte	.LVL128
	.2byte	0x1
	.byte	0x53
	.4byte	0x0
	.4byte	0x0
.LLST156:
	.4byte	.LVL127
	.4byte	.LVL129
	.2byte	0x1
	.byte	0x56
	.4byte	0x0
	.4byte	0x0
.LLST157:
	.4byte	.LVL127
	.4byte	.LVL129
	.2byte	0x1
	.byte	0x57
	.4byte	0x0
	.4byte	0x0
.LLST158:
	.4byte	.LFB2908
	.4byte	.LCFI147
	.2byte	0x1
	.byte	0x51
	.4byte	.LCFI147
	.4byte	.LFE2908
	.2byte	0x2
	.byte	0x71
	.sleb128 8
	.4byte	0x0
	.4byte	0x0
.LLST159:
	.4byte	.LVL130
	.4byte	.LVL131
	.2byte	0x1
	.byte	0x53
	.4byte	0x0
	.4byte	0x0
.LLST160:
	.4byte	.LVL130
	.4byte	.LVL132
	.2byte	0x1
	.byte	0x54
	.4byte	0x0
	.4byte	0x0
.LLST161:
	.4byte	.LVL130
	.4byte	.LVL132
	.2byte	0x1
	.byte	0x55
	.4byte	0x0
	.4byte	0x0
.LLST162:
	.4byte	.LFB2907
	.4byte	.LCFI150
	.2byte	0x1
	.byte	0x51
	.4byte	.LCFI150
	.4byte	.LFE2907
	.2byte	0x2
	.byte	0x71
	.sleb128 8
	.4byte	0x0
	.4byte	0x0
.LLST163:
	.4byte	.LVL133
	.4byte	.LVL134
	.2byte	0x1
	.byte	0x53
	.4byte	0x0
	.4byte	0x0
.LLST164:
	.4byte	.LVL133
	.4byte	.LVL135
	.2byte	0x1
	.byte	0x54
	.4byte	0x0
	.4byte	0x0
.LLST165:
	.4byte	.LFB2905
	.4byte	.LCFI153
	.2byte	0x1
	.byte	0x51
	.4byte	.LCFI153
	.4byte	.LFE2905
	.2byte	0x2
	.byte	0x71
	.sleb128 8
	.4byte	0x0
	.4byte	0x0
.LLST166:
	.4byte	.LVL136
	.4byte	.LVL137
	.2byte	0x1
	.byte	0x53
	.4byte	0x0
	.4byte	0x0
.LLST167:
	.4byte	.LVL136
	.4byte	.LVL138
	.2byte	0x1
	.byte	0x54
	.4byte	0x0
	.4byte	0x0
.LLST168:
	.4byte	.LFB2904
	.4byte	.LCFI156
	.2byte	0x1
	.byte	0x51
	.4byte	.LCFI156
	.4byte	.LFE2904
	.2byte	0x2
	.byte	0x71
	.sleb128 8
	.4byte	0x0
	.4byte	0x0
.LLST169:
	.4byte	.LVL139
	.4byte	.LVL140
	.2byte	0x1
	.byte	0x53
	.4byte	0x0
	.4byte	0x0
.LLST170:
	.4byte	.LVL139
	.4byte	.LVL141
	.2byte	0x1
	.byte	0x54
	.4byte	0x0
	.4byte	0x0
.LLST171:
	.4byte	.LVL139
	.4byte	.LVL141
	.2byte	0x1
	.byte	0x55
	.4byte	0x0
	.4byte	0x0
.LLST172:
	.4byte	.LVL139
	.4byte	.LVL141
	.2byte	0x1
	.byte	0x56
	.4byte	0x0
	.4byte	0x0
.LLST173:
	.4byte	.LFB2903
	.4byte	.LCFI159
	.2byte	0x1
	.byte	0x51
	.4byte	.LCFI159
	.4byte	.LFE2903
	.2byte	0x2
	.byte	0x71
	.sleb128 8
	.4byte	0x0
	.4byte	0x0
.LLST174:
	.4byte	.LVL142
	.4byte	.LVL143
	.2byte	0x1
	.byte	0x53
	.4byte	0x0
	.4byte	0x0
.LLST175:
	.4byte	.LVL142
	.4byte	.LVL144
	.2byte	0x1
	.byte	0x54
	.4byte	0x0
	.4byte	0x0
.LLST176:
	.4byte	.LVL142
	.4byte	.LVL144
	.2byte	0x1
	.byte	0x55
	.4byte	0x0
	.4byte	0x0
.LLST177:
	.4byte	.LFB2902
	.4byte	.LCFI162
	.2byte	0x1
	.byte	0x51
	.4byte	.LCFI162
	.4byte	.LFE2902
	.2byte	0x2
	.byte	0x71
	.sleb128 8
	.4byte	0x0
	.4byte	0x0
.LLST178:
	.4byte	.LVL145
	.4byte	.LVL146
	.2byte	0x1
	.byte	0x53
	.4byte	0x0
	.4byte	0x0
.LLST179:
	.4byte	.LVL145
	.4byte	.LVL147
	.2byte	0x1
	.byte	0x54
	.4byte	0x0
	.4byte	0x0
.LLST180:
	.4byte	.LVL145
	.4byte	.LVL147
	.2byte	0x1
	.byte	0x55
	.4byte	0x0
	.4byte	0x0
.LLST181:
	.4byte	.LFB2901
	.4byte	.LCFI165
	.2byte	0x1
	.byte	0x51
	.4byte	.LCFI165
	.4byte	.LFE2901
	.2byte	0x2
	.byte	0x71
	.sleb128 8
	.4byte	0x0
	.4byte	0x0
.LLST182:
	.4byte	.LVL148
	.4byte	.LVL149
	.2byte	0x1
	.byte	0x53
	.4byte	0x0
	.4byte	0x0
.LLST183:
	.4byte	.LFB2900
	.4byte	.LCFI168
	.2byte	0x1
	.byte	0x51
	.4byte	.LCFI168
	.4byte	.LFE2900
	.2byte	0x2
	.byte	0x71
	.sleb128 8
	.4byte	0x0
	.4byte	0x0
.LLST184:
	.4byte	.LVL150
	.4byte	.LVL151
	.2byte	0x1
	.byte	0x53
	.4byte	0x0
	.4byte	0x0
.LLST185:
	.4byte	.LFB2899
	.4byte	.LCFI171
	.2byte	0x1
	.byte	0x51
	.4byte	.LCFI171
	.4byte	.LFE2899
	.2byte	0x2
	.byte	0x71
	.sleb128 8
	.4byte	0x0
	.4byte	0x0
.LLST186:
	.4byte	.LVL152
	.4byte	.LVL153
	.2byte	0x1
	.byte	0x53
	.4byte	0x0
	.4byte	0x0
.LLST187:
	.4byte	.LVL152
	.4byte	.LVL154
	.2byte	0x1
	.byte	0x54
	.4byte	0x0
	.4byte	0x0
.LLST188:
	.4byte	.LFB2898
	.4byte	.LCFI174
	.2byte	0x1
	.byte	0x51
	.4byte	.LCFI174
	.4byte	.LFE2898
	.2byte	0x2
	.byte	0x71
	.sleb128 8
	.4byte	0x0
	.4byte	0x0
.LLST189:
	.4byte	.LVL155
	.4byte	.LVL156
	.2byte	0x1
	.byte	0x53
	.4byte	0x0
	.4byte	0x0
.LLST190:
	.4byte	.LVL155
	.4byte	.LVL157
	.2byte	0x1
	.byte	0x54
	.4byte	0x0
	.4byte	0x0
.LLST191:
	.4byte	.LFB2897
	.4byte	.LCFI177
	.2byte	0x1
	.byte	0x51
	.4byte	.LCFI177
	.4byte	.LFE2897
	.2byte	0x2
	.byte	0x71
	.sleb128 8
	.4byte	0x0
	.4byte	0x0
.LLST192:
	.4byte	.LVL158
	.4byte	.LVL159
	.2byte	0x1
	.byte	0x53
	.4byte	0x0
	.4byte	0x0
.LLST193:
	.4byte	.LVL158
	.4byte	.LVL160
	.2byte	0x1
	.byte	0x54
	.4byte	0x0
	.4byte	0x0
.LLST194:
	.4byte	.LVL158
	.4byte	.LVL160
	.2byte	0x1
	.byte	0x55
	.4byte	0x0
	.4byte	0x0
.LLST195:
	.4byte	.LFB2896
	.4byte	.LCFI180
	.2byte	0x1
	.byte	0x51
	.4byte	.LCFI180
	.4byte	.LFE2896
	.2byte	0x2
	.byte	0x71
	.sleb128 8
	.4byte	0x0
	.4byte	0x0
.LLST196:
	.4byte	.LVL161
	.4byte	.LVL162
	.2byte	0x1
	.byte	0x53
	.4byte	0x0
	.4byte	0x0
.LLST197:
	.4byte	.LVL161
	.4byte	.LVL163
	.2byte	0x1
	.byte	0x54
	.4byte	0x0
	.4byte	0x0
.LLST198:
	.4byte	.LVL161
	.4byte	.LVL163
	.2byte	0x1
	.byte	0x55
	.4byte	0x0
	.4byte	0x0
.LLST199:
	.4byte	.LFB2895
	.4byte	.LCFI183
	.2byte	0x1
	.byte	0x51
	.4byte	.LCFI183
	.4byte	.LFE2895
	.2byte	0x2
	.byte	0x71
	.sleb128 8
	.4byte	0x0
	.4byte	0x0
.LLST200:
	.4byte	.LVL164
	.4byte	.LVL165
	.2byte	0x1
	.byte	0x53
	.4byte	0x0
	.4byte	0x0
.LLST201:
	.4byte	.LVL164
	.4byte	.LVL166
	.2byte	0x1
	.byte	0x54
	.4byte	0x0
	.4byte	0x0
.LLST202:
	.4byte	.LVL164
	.4byte	.LVL166
	.2byte	0x1
	.byte	0x55
	.4byte	0x0
	.4byte	0x0
.LLST203:
	.4byte	.LVL164
	.4byte	.LVL166
	.2byte	0x1
	.byte	0x56
	.4byte	0x0
	.4byte	0x0
.LLST204:
	.4byte	.LFB2894
	.4byte	.LCFI186
	.2byte	0x1
	.byte	0x51
	.4byte	.LCFI186
	.4byte	.LFE2894
	.2byte	0x2
	.byte	0x71
	.sleb128 8
	.4byte	0x0
	.4byte	0x0
.LLST205:
	.4byte	.LVL167
	.4byte	.LVL168
	.2byte	0x1
	.byte	0x53
	.4byte	0x0
	.4byte	0x0
.LLST206:
	.4byte	.LVL167
	.4byte	.LVL169
	.2byte	0x1
	.byte	0x54
	.4byte	0x0
	.4byte	0x0
.LLST207:
	.4byte	.LVL167
	.4byte	.LVL169
	.2byte	0x1
	.byte	0x55
	.4byte	0x0
	.4byte	0x0
.LLST208:
	.4byte	.LVL167
	.4byte	.LVL169
	.2byte	0x1
	.byte	0x56
	.4byte	0x0
	.4byte	0x0
.LLST209:
	.4byte	.LFB2893
	.4byte	.LCFI189
	.2byte	0x1
	.byte	0x51
	.4byte	.LCFI189
	.4byte	.LFE2893
	.2byte	0x2
	.byte	0x71
	.sleb128 8
	.4byte	0x0
	.4byte	0x0
.LLST210:
	.4byte	.LVL170
	.4byte	.LVL171
	.2byte	0x1
	.byte	0x53
	.4byte	0x0
	.4byte	0x0
.LLST211:
	.4byte	.LVL170
	.4byte	.LVL172
	.2byte	0x1
	.byte	0x54
	.4byte	0x0
	.4byte	0x0
.LLST212:
	.4byte	.LFB2892
	.4byte	.LCFI192
	.2byte	0x1
	.byte	0x51
	.4byte	.LCFI192
	.4byte	.LFE2892
	.2byte	0x2
	.byte	0x71
	.sleb128 8
	.4byte	0x0
	.4byte	0x0
.LLST213:
	.4byte	.LVL173
	.4byte	.LVL174
	.2byte	0x1
	.byte	0x53
	.4byte	0x0
	.4byte	0x0
.LLST214:
	.4byte	.LVL173
	.4byte	.LVL175
	.2byte	0x1
	.byte	0x54
	.4byte	0x0
	.4byte	0x0
.LLST215:
	.4byte	.LFB2891
	.4byte	.LCFI195
	.2byte	0x1
	.byte	0x51
	.4byte	.LCFI195
	.4byte	.LFE2891
	.2byte	0x2
	.byte	0x71
	.sleb128 8
	.4byte	0x0
	.4byte	0x0
.LLST216:
	.4byte	.LVL176
	.4byte	.LVL177
	.2byte	0x1
	.byte	0x53
	.4byte	0x0
	.4byte	0x0
.LLST217:
	.4byte	.LVL176
	.4byte	.LVL178
	.2byte	0x1
	.byte	0x54
	.4byte	0x0
	.4byte	0x0
.LLST218:
	.4byte	.LFB2890
	.4byte	.LCFI198
	.2byte	0x1
	.byte	0x51
	.4byte	.LCFI198
	.4byte	.LFE2890
	.2byte	0x2
	.byte	0x71
	.sleb128 8
	.4byte	0x0
	.4byte	0x0
.LLST219:
	.4byte	.LVL179
	.4byte	.LVL180
	.2byte	0x1
	.byte	0x53
	.4byte	0x0
	.4byte	0x0
.LLST220:
	.4byte	.LFB2889
	.4byte	.LCFI201
	.2byte	0x1
	.byte	0x51
	.4byte	.LCFI201
	.4byte	.LFE2889
	.2byte	0x2
	.byte	0x71
	.sleb128 8
	.4byte	0x0
	.4byte	0x0
.LLST221:
	.4byte	.LVL181
	.4byte	.LVL182
	.2byte	0x1
	.byte	0x53
	.4byte	0x0
	.4byte	0x0
.LLST222:
	.4byte	.LVL181
	.4byte	.LVL183
	.2byte	0x1
	.byte	0x54
	.4byte	0x0
	.4byte	0x0
.LLST223:
	.4byte	.LFB2888
	.4byte	.LCFI204
	.2byte	0x1
	.byte	0x51
	.4byte	.LCFI204
	.4byte	.LFE2888
	.2byte	0x2
	.byte	0x71
	.sleb128 8
	.4byte	0x0
	.4byte	0x0
.LLST224:
	.4byte	.LVL184
	.4byte	.LVL185
	.2byte	0x1
	.byte	0x53
	.4byte	0x0
	.4byte	0x0
.LLST225:
	.4byte	.LVL184
	.4byte	.LVL186
	.2byte	0x1
	.byte	0x54
	.4byte	0x0
	.4byte	0x0
.LLST226:
	.4byte	.LFB2887
	.4byte	.LCFI207
	.2byte	0x1
	.byte	0x51
	.4byte	.LCFI207
	.4byte	.LFE2887
	.2byte	0x2
	.byte	0x71
	.sleb128 8
	.4byte	0x0
	.4byte	0x0
.LLST227:
	.4byte	.LVL187
	.4byte	.LVL188
	.2byte	0x1
	.byte	0x53
	.4byte	0x0
	.4byte	0x0
.LLST228:
	.4byte	.LVL187
	.4byte	.LVL189
	.2byte	0x1
	.byte	0x54
	.4byte	0x0
	.4byte	0x0
.LLST229:
	.4byte	.LVL187
	.4byte	.LVL189
	.2byte	0x1
	.byte	0x55
	.4byte	0x0
	.4byte	0x0
.LLST230:
	.4byte	.LVL187
	.4byte	.LVL189
	.2byte	0x1
	.byte	0x56
	.4byte	0x0
	.4byte	0x0
.LLST231:
	.4byte	.LFB2886
	.4byte	.LCFI210
	.2byte	0x1
	.byte	0x51
	.4byte	.LCFI210
	.4byte	.LFE2886
	.2byte	0x2
	.byte	0x71
	.sleb128 8
	.4byte	0x0
	.4byte	0x0
.LLST232:
	.4byte	.LVL190
	.4byte	.LVL191
	.2byte	0x1
	.byte	0x53
	.4byte	0x0
	.4byte	0x0
.LLST233:
	.4byte	.LVL190
	.4byte	.LVL192
	.2byte	0x1
	.byte	0x54
	.4byte	0x0
	.4byte	0x0
.LLST234:
	.4byte	.LFB2885
	.4byte	.LCFI213
	.2byte	0x1
	.byte	0x51
	.4byte	.LCFI213
	.4byte	.LFE2885
	.2byte	0x2
	.byte	0x71
	.sleb128 8
	.4byte	0x0
	.4byte	0x0
.LLST235:
	.4byte	.LVL193
	.4byte	.LVL194
	.2byte	0x1
	.byte	0x53
	.4byte	0x0
	.4byte	0x0
.LLST236:
	.4byte	.LVL193
	.4byte	.LVL195
	.2byte	0x1
	.byte	0x54
	.4byte	0x0
	.4byte	0x0
.LLST237:
	.4byte	.LFB2884
	.4byte	.LCFI216
	.2byte	0x1
	.byte	0x51
	.4byte	.LCFI216
	.4byte	.LFE2884
	.2byte	0x2
	.byte	0x71
	.sleb128 8
	.4byte	0x0
	.4byte	0x0
.LLST238:
	.4byte	.LVL196
	.4byte	.LVL197
	.2byte	0x1
	.byte	0x53
	.4byte	0x0
	.4byte	0x0
.LLST239:
	.4byte	.LFB2883
	.4byte	.LCFI219
	.2byte	0x1
	.byte	0x51
	.4byte	.LCFI219
	.4byte	.LFE2883
	.2byte	0x2
	.byte	0x71
	.sleb128 8
	.4byte	0x0
	.4byte	0x0
.LLST240:
	.4byte	.LVL198
	.4byte	.LVL199
	.2byte	0x1
	.byte	0x53
	.4byte	0x0
	.4byte	0x0
.LLST241:
	.4byte	.LFB2882
	.4byte	.LCFI222
	.2byte	0x1
	.byte	0x51
	.4byte	.LCFI222
	.4byte	.LFE2882
	.2byte	0x2
	.byte	0x71
	.sleb128 8
	.4byte	0x0
	.4byte	0x0
.LLST242:
	.4byte	.LVL200
	.4byte	.LVL201
	.2byte	0x1
	.byte	0x53
	.4byte	0x0
	.4byte	0x0
.LLST243:
	.4byte	.LFB2881
	.4byte	.LCFI225
	.2byte	0x1
	.byte	0x51
	.4byte	.LCFI225
	.4byte	.LFE2881
	.2byte	0x2
	.byte	0x71
	.sleb128 8
	.4byte	0x0
	.4byte	0x0
.LLST244:
	.4byte	.LVL202
	.4byte	.LVL203
	.2byte	0x1
	.byte	0x53
	.4byte	0x0
	.4byte	0x0
.LLST245:
	.4byte	.LVL202
	.4byte	.LVL204
	.2byte	0x1
	.byte	0x54
	.4byte	0x0
	.4byte	0x0
.LLST246:
	.4byte	.LVL202
	.4byte	.LVL204
	.2byte	0x1
	.byte	0x55
	.4byte	0x0
	.4byte	0x0
.LLST247:
	.4byte	.LFB2880
	.4byte	.LCFI228
	.2byte	0x1
	.byte	0x51
	.4byte	.LCFI228
	.4byte	.LFE2880
	.2byte	0x2
	.byte	0x71
	.sleb128 8
	.4byte	0x0
	.4byte	0x0
.LLST248:
	.4byte	.LVL205
	.4byte	.LVL206
	.2byte	0x1
	.byte	0x53
	.4byte	0x0
	.4byte	0x0
.LLST249:
	.4byte	.LVL205
	.4byte	.LVL207
	.2byte	0x1
	.byte	0x54
	.4byte	0x0
	.4byte	0x0
.LLST250:
	.4byte	.LVL205
	.4byte	.LVL207
	.2byte	0x1
	.byte	0x55
	.4byte	0x0
	.4byte	0x0
.LLST251:
	.4byte	.LFB2879
	.4byte	.LCFI231
	.2byte	0x1
	.byte	0x51
	.4byte	.LCFI231
	.4byte	.LFE2879
	.2byte	0x2
	.byte	0x71
	.sleb128 8
	.4byte	0x0
	.4byte	0x0
.LLST252:
	.4byte	.LVL208
	.4byte	.LVL209
	.2byte	0x1
	.byte	0x53
	.4byte	0x0
	.4byte	0x0
.LLST253:
	.4byte	.LFB2878
	.4byte	.LCFI234
	.2byte	0x1
	.byte	0x51
	.4byte	.LCFI234
	.4byte	.LFE2878
	.2byte	0x2
	.byte	0x71
	.sleb128 8
	.4byte	0x0
	.4byte	0x0
.LLST254:
	.4byte	.LVL210
	.4byte	.LVL211
	.2byte	0x1
	.byte	0x53
	.4byte	0x0
	.4byte	0x0
.LLST255:
	.4byte	.LFB2877
	.4byte	.LCFI237
	.2byte	0x1
	.byte	0x51
	.4byte	.LCFI237
	.4byte	.LFE2877
	.2byte	0x2
	.byte	0x71
	.sleb128 8
	.4byte	0x0
	.4byte	0x0
.LLST256:
	.4byte	.LVL212
	.4byte	.LVL213
	.2byte	0x1
	.byte	0x53
	.4byte	0x0
	.4byte	0x0
.LLST257:
	.4byte	.LVL212
	.4byte	.LVL214
	.2byte	0x1
	.byte	0x54
	.4byte	0x0
	.4byte	0x0
.LLST258:
	.4byte	.LVL212
	.4byte	.LVL214
	.2byte	0x1
	.byte	0x55
	.4byte	0x0
	.4byte	0x0
.LLST259:
	.4byte	.LFB2876
	.4byte	.LCFI240
	.2byte	0x1
	.byte	0x51
	.4byte	.LCFI240
	.4byte	.LFE2876
	.2byte	0x2
	.byte	0x71
	.sleb128 8
	.4byte	0x0
	.4byte	0x0
.LLST260:
	.4byte	.LVL215
	.4byte	.LVL216
	.2byte	0x1
	.byte	0x53
	.4byte	0x0
	.4byte	0x0
.LLST261:
	.4byte	.LVL215
	.4byte	.LVL217
	.2byte	0x1
	.byte	0x54
	.4byte	0x0
	.4byte	0x0
.LLST262:
	.4byte	.LFB2875
	.4byte	.LCFI243
	.2byte	0x1
	.byte	0x51
	.4byte	.LCFI243
	.4byte	.LFE2875
	.2byte	0x2
	.byte	0x71
	.sleb128 8
	.4byte	0x0
	.4byte	0x0
.LLST263:
	.4byte	.LVL218
	.4byte	.LVL219
	.2byte	0x1
	.byte	0x53
	.4byte	0x0
	.4byte	0x0
.LLST264:
	.4byte	.LFB2874
	.4byte	.LCFI246
	.2byte	0x1
	.byte	0x51
	.4byte	.LCFI246
	.4byte	.LFE2874
	.2byte	0x2
	.byte	0x71
	.sleb128 8
	.4byte	0x0
	.4byte	0x0
.LLST265:
	.4byte	.LVL220
	.4byte	.LVL221
	.2byte	0x1
	.byte	0x53
	.4byte	0x0
	.4byte	0x0
.LLST266:
	.4byte	.LVL220
	.4byte	.LVL222
	.2byte	0x1
	.byte	0x54
	.4byte	0x0
	.4byte	0x0
.LLST267:
	.4byte	.LFB2873
	.4byte	.LCFI249
	.2byte	0x1
	.byte	0x51
	.4byte	.LCFI249
	.4byte	.LFE2873
	.2byte	0x2
	.byte	0x71
	.sleb128 8
	.4byte	0x0
	.4byte	0x0
.LLST268:
	.4byte	.LVL223
	.4byte	.LVL224
	.2byte	0x1
	.byte	0x53
	.4byte	0x0
	.4byte	0x0
.LLST269:
	.4byte	.LVL223
	.4byte	.LVL225
	.2byte	0x1
	.byte	0x54
	.4byte	0x0
	.4byte	0x0
.LLST270:
	.4byte	.LFB2872
	.4byte	.LCFI252
	.2byte	0x1
	.byte	0x51
	.4byte	.LCFI252
	.4byte	.LFE2872
	.2byte	0x2
	.byte	0x71
	.sleb128 8
	.4byte	0x0
	.4byte	0x0
.LLST271:
	.4byte	.LVL226
	.4byte	.LVL227
	.2byte	0x1
	.byte	0x53
	.4byte	0x0
	.4byte	0x0
.LLST272:
	.4byte	.LVL226
	.4byte	.LVL228
	.2byte	0x2
	.byte	0x90
	.uleb128 0x21
	.4byte	0x0
	.4byte	0x0
.LLST273:
	.4byte	.LVL226
	.4byte	.LVL228
	.2byte	0x1
	.byte	0x54
	.4byte	0x0
	.4byte	0x0
.LLST274:
	.4byte	.LVL226
	.4byte	.LVL228
	.2byte	0x1
	.byte	0x55
	.4byte	0x0
	.4byte	0x0
.LLST275:
	.4byte	.LFB2870
	.4byte	.LCFI255
	.2byte	0x1
	.byte	0x51
	.4byte	.LCFI255
	.4byte	.LFE2870
	.2byte	0x2
	.byte	0x71
	.sleb128 8
	.4byte	0x0
	.4byte	0x0
.LLST276:
	.4byte	.LVL229
	.4byte	.LVL230
	.2byte	0x1
	.byte	0x53
	.4byte	0x0
	.4byte	0x0
.LLST277:
	.4byte	.LFB2868
	.4byte	.LCFI258
	.2byte	0x1
	.byte	0x51
	.4byte	.LCFI258
	.4byte	.LFE2868
	.2byte	0x2
	.byte	0x71
	.sleb128 8
	.4byte	0x0
	.4byte	0x0
.LLST278:
	.4byte	.LVL231
	.4byte	.LVL232
	.2byte	0x1
	.byte	0x53
	.4byte	0x0
	.4byte	0x0
.LLST279:
	.4byte	.LFB2867
	.4byte	.LCFI261
	.2byte	0x1
	.byte	0x51
	.4byte	.LCFI261
	.4byte	.LFE2867
	.2byte	0x2
	.byte	0x71
	.sleb128 8
	.4byte	0x0
	.4byte	0x0
.LLST280:
	.4byte	.LVL233
	.4byte	.LVL234
	.2byte	0x1
	.byte	0x53
	.4byte	0x0
	.4byte	0x0
.LLST281:
	.4byte	.LVL233
	.4byte	.LVL235
	.2byte	0x1
	.byte	0x54
	.4byte	0x0
	.4byte	0x0
.LLST282:
	.4byte	.LFB2866
	.4byte	.LCFI264
	.2byte	0x1
	.byte	0x51
	.4byte	.LCFI264
	.4byte	.LFE2866
	.2byte	0x2
	.byte	0x71
	.sleb128 8
	.4byte	0x0
	.4byte	0x0
.LLST283:
	.4byte	.LVL236
	.4byte	.LVL237
	.2byte	0x1
	.byte	0x53
	.4byte	0x0
	.4byte	0x0
.LLST284:
	.4byte	.LVL236
	.4byte	.LVL238
	.2byte	0x1
	.byte	0x54
	.4byte	0x0
	.4byte	0x0
.LLST285:
	.4byte	.LFB2865
	.4byte	.LCFI267
	.2byte	0x1
	.byte	0x51
	.4byte	.LCFI267
	.4byte	.LFE2865
	.2byte	0x2
	.byte	0x71
	.sleb128 8
	.4byte	0x0
	.4byte	0x0
.LLST286:
	.4byte	.LVL239
	.4byte	.LVL240
	.2byte	0x1
	.byte	0x53
	.4byte	0x0
	.4byte	0x0
.LLST287:
	.4byte	.LFB2864
	.4byte	.LCFI270
	.2byte	0x1
	.byte	0x51
	.4byte	.LCFI270
	.4byte	.LFE2864
	.2byte	0x2
	.byte	0x71
	.sleb128 8
	.4byte	0x0
	.4byte	0x0
.LLST288:
	.4byte	.LVL241
	.4byte	.LVL242
	.2byte	0x1
	.byte	0x53
	.4byte	0x0
	.4byte	0x0
.LLST289:
	.4byte	.LFB2862
	.4byte	.LCFI273
	.2byte	0x1
	.byte	0x51
	.4byte	.LCFI273
	.4byte	.LFE2862
	.2byte	0x2
	.byte	0x71
	.sleb128 8
	.4byte	0x0
	.4byte	0x0
.LLST290:
	.4byte	.LVL243
	.4byte	.LVL244
	.2byte	0x1
	.byte	0x53
	.4byte	0x0
	.4byte	0x0
.LLST291:
	.4byte	.LFB2861
	.4byte	.LCFI276
	.2byte	0x1
	.byte	0x51
	.4byte	.LCFI276
	.4byte	.LFE2861
	.2byte	0x2
	.byte	0x71
	.sleb128 8
	.4byte	0x0
	.4byte	0x0
.LLST292:
	.4byte	.LVL245
	.4byte	.LVL246
	.2byte	0x1
	.byte	0x53
	.4byte	0x0
	.4byte	0x0
.LLST293:
	.4byte	.LVL245
	.4byte	.LVL247
	.2byte	0x1
	.byte	0x54
	.4byte	0x0
	.4byte	0x0
.LLST294:
	.4byte	.LFB2860
	.4byte	.LCFI279
	.2byte	0x1
	.byte	0x51
	.4byte	.LCFI279
	.4byte	.LFE2860
	.2byte	0x2
	.byte	0x71
	.sleb128 8
	.4byte	0x0
	.4byte	0x0
.LLST295:
	.4byte	.LVL248
	.4byte	.LVL249
	.2byte	0x1
	.byte	0x53
	.4byte	0x0
	.4byte	0x0
.LLST296:
	.4byte	.LVL248
	.4byte	.LVL250
	.2byte	0x1
	.byte	0x54
	.4byte	0x0
	.4byte	0x0
.LLST297:
	.4byte	.LFB2859
	.4byte	.LCFI282
	.2byte	0x1
	.byte	0x51
	.4byte	.LCFI282
	.4byte	.LFE2859
	.2byte	0x2
	.byte	0x71
	.sleb128 8
	.4byte	0x0
	.4byte	0x0
.LLST298:
	.4byte	.LVL251
	.4byte	.LVL252
	.2byte	0x1
	.byte	0x53
	.4byte	0x0
	.4byte	0x0
.LLST299:
	.4byte	.LVL251
	.4byte	.LVL253
	.2byte	0x1
	.byte	0x54
	.4byte	0x0
	.4byte	0x0
.LLST300:
	.4byte	.LFB2858
	.4byte	.LCFI285
	.2byte	0x1
	.byte	0x51
	.4byte	.LCFI285
	.4byte	.LFE2858
	.2byte	0x2
	.byte	0x71
	.sleb128 8
	.4byte	0x0
	.4byte	0x0
.LLST301:
	.4byte	.LVL254
	.4byte	.LVL255
	.2byte	0x1
	.byte	0x53
	.4byte	0x0
	.4byte	0x0
.LLST302:
	.4byte	.LVL254
	.4byte	.LVL256
	.2byte	0x1
	.byte	0x54
	.4byte	0x0
	.4byte	0x0
.LLST303:
	.4byte	.LFB2857
	.4byte	.LCFI288
	.2byte	0x1
	.byte	0x51
	.4byte	.LCFI288
	.4byte	.LFE2857
	.2byte	0x2
	.byte	0x71
	.sleb128 8
	.4byte	0x0
	.4byte	0x0
.LLST304:
	.4byte	.LVL257
	.4byte	.LVL258
	.2byte	0x1
	.byte	0x53
	.4byte	0x0
	.4byte	0x0
.LLST305:
	.4byte	.LVL257
	.4byte	.LVL259
	.2byte	0x1
	.byte	0x54
	.4byte	0x0
	.4byte	0x0
.LLST306:
	.4byte	.LFB2856
	.4byte	.LCFI291
	.2byte	0x1
	.byte	0x51
	.4byte	.LCFI291
	.4byte	.LFE2856
	.2byte	0x2
	.byte	0x71
	.sleb128 8
	.4byte	0x0
	.4byte	0x0
.LLST307:
	.4byte	.LVL260
	.4byte	.LVL261
	.2byte	0x1
	.byte	0x53
	.4byte	0x0
	.4byte	0x0
.LLST308:
	.4byte	.LFB2855
	.4byte	.LCFI294
	.2byte	0x1
	.byte	0x51
	.4byte	.LCFI294
	.4byte	.LFE2855
	.2byte	0x2
	.byte	0x71
	.sleb128 8
	.4byte	0x0
	.4byte	0x0
.LLST309:
	.4byte	.LVL262
	.4byte	.LVL263
	.2byte	0x1
	.byte	0x53
	.4byte	0x0
	.4byte	0x0
.LLST310:
	.4byte	.LVL262
	.4byte	.LVL264
	.2byte	0x1
	.byte	0x54
	.4byte	0x0
	.4byte	0x0
.LLST311:
	.4byte	.LFB2854
	.4byte	.LCFI297
	.2byte	0x1
	.byte	0x51
	.4byte	.LCFI297
	.4byte	.LFE2854
	.2byte	0x2
	.byte	0x71
	.sleb128 8
	.4byte	0x0
	.4byte	0x0
.LLST312:
	.4byte	.LVL265
	.4byte	.LVL266
	.2byte	0x1
	.byte	0x53
	.4byte	0x0
	.4byte	0x0
.LLST313:
	.4byte	.LVL265
	.4byte	.LVL267
	.2byte	0x1
	.byte	0x54
	.4byte	0x0
	.4byte	0x0
.LLST314:
	.4byte	.LFB2853
	.4byte	.LCFI300
	.2byte	0x1
	.byte	0x51
	.4byte	.LCFI300
	.4byte	.LFE2853
	.2byte	0x2
	.byte	0x71
	.sleb128 8
	.4byte	0x0
	.4byte	0x0
.LLST315:
	.4byte	.LVL268
	.4byte	.LVL269
	.2byte	0x1
	.byte	0x53
	.4byte	0x0
	.4byte	0x0
.LLST316:
	.4byte	.LFB2852
	.4byte	.LCFI303
	.2byte	0x1
	.byte	0x51
	.4byte	.LCFI303
	.4byte	.LFE2852
	.2byte	0x2
	.byte	0x71
	.sleb128 8
	.4byte	0x0
	.4byte	0x0
.LLST317:
	.4byte	.LVL270
	.4byte	.LVL271
	.2byte	0x1
	.byte	0x53
	.4byte	0x0
	.4byte	0x0
.LLST318:
	.4byte	.LFB2851
	.4byte	.LCFI306
	.2byte	0x1
	.byte	0x51
	.4byte	.LCFI306
	.4byte	.LFE2851
	.2byte	0x2
	.byte	0x71
	.sleb128 8
	.4byte	0x0
	.4byte	0x0
.LLST319:
	.4byte	.LVL272
	.4byte	.LVL273
	.2byte	0x1
	.byte	0x53
	.4byte	0x0
	.4byte	0x0
.LLST320:
	.4byte	.LVL272
	.4byte	.LVL274
	.2byte	0x1
	.byte	0x54
	.4byte	0x0
	.4byte	0x0
.LLST321:
	.4byte	.LFB2850
	.4byte	.LCFI309
	.2byte	0x1
	.byte	0x51
	.4byte	.LCFI309
	.4byte	.LFE2850
	.2byte	0x2
	.byte	0x71
	.sleb128 8
	.4byte	0x0
	.4byte	0x0
.LLST322:
	.4byte	.LVL275
	.4byte	.LVL276
	.2byte	0x1
	.byte	0x53
	.4byte	0x0
	.4byte	0x0
.LLST323:
	.4byte	.LVL275
	.4byte	.LVL277
	.2byte	0x1
	.byte	0x54
	.4byte	0x0
	.4byte	0x0
.LLST324:
	.4byte	.LVL275
	.4byte	.LVL277
	.2byte	0x1
	.byte	0x55
	.4byte	0x0
	.4byte	0x0
.LLST325:
	.4byte	.LVL275
	.4byte	.LVL277
	.2byte	0x1
	.byte	0x56
	.4byte	0x0
	.4byte	0x0
.LLST326:
	.4byte	.LVL275
	.4byte	.LVL277
	.2byte	0x1
	.byte	0x57
	.4byte	0x0
	.4byte	0x0
.LLST327:
	.4byte	.LFB2849
	.4byte	.LCFI312
	.2byte	0x1
	.byte	0x51
	.4byte	.LCFI312
	.4byte	.LFE2849
	.2byte	0x2
	.byte	0x71
	.sleb128 8
	.4byte	0x0
	.4byte	0x0
.LLST328:
	.4byte	.LVL278
	.4byte	.LVL279
	.2byte	0x1
	.byte	0x53
	.4byte	0x0
	.4byte	0x0
.LLST329:
	.4byte	.LVL278
	.4byte	.LVL280
	.2byte	0x1
	.byte	0x54
	.4byte	0x0
	.4byte	0x0
.LLST330:
	.4byte	.LVL278
	.4byte	.LVL280
	.2byte	0x1
	.byte	0x55
	.4byte	0x0
	.4byte	0x0
.LLST331:
	.4byte	.LVL278
	.4byte	.LVL280
	.2byte	0x1
	.byte	0x56
	.4byte	0x0
	.4byte	0x0
.LLST332:
	.4byte	.LVL278
	.4byte	.LVL280
	.2byte	0x1
	.byte	0x57
	.4byte	0x0
	.4byte	0x0
.LLST333:
	.4byte	.LVL278
	.4byte	.LVL280
	.2byte	0x1
	.byte	0x58
	.4byte	0x0
	.4byte	0x0
.LLST334:
	.4byte	.LVL278
	.4byte	.LVL280
	.2byte	0x1
	.byte	0x59
	.4byte	0x0
	.4byte	0x0
.LLST335:
	.4byte	.LFB2848
	.4byte	.LCFI315
	.2byte	0x1
	.byte	0x51
	.4byte	.LCFI315
	.4byte	.LFE2848
	.2byte	0x2
	.byte	0x71
	.sleb128 8
	.4byte	0x0
	.4byte	0x0
.LLST336:
	.4byte	.LVL281
	.4byte	.LVL282
	.2byte	0x1
	.byte	0x53
	.4byte	0x0
	.4byte	0x0
.LLST337:
	.4byte	.LFB2847
	.4byte	.LCFI318
	.2byte	0x1
	.byte	0x51
	.4byte	.LCFI318
	.4byte	.LFE2847
	.2byte	0x2
	.byte	0x71
	.sleb128 8
	.4byte	0x0
	.4byte	0x0
.LLST338:
	.4byte	.LVL283
	.4byte	.LVL284
	.2byte	0x1
	.byte	0x53
	.4byte	0x0
	.4byte	0x0
.LLST339:
	.4byte	.LFB2846
	.4byte	.LCFI321
	.2byte	0x1
	.byte	0x51
	.4byte	.LCFI321
	.4byte	.LFE2846
	.2byte	0x2
	.byte	0x71
	.sleb128 8
	.4byte	0x0
	.4byte	0x0
.LLST340:
	.4byte	.LVL285
	.4byte	.LVL286
	.2byte	0x1
	.byte	0x53
	.4byte	0x0
	.4byte	0x0
.LLST341:
	.4byte	.LFB2845
	.4byte	.LCFI324
	.2byte	0x1
	.byte	0x51
	.4byte	.LCFI324
	.4byte	.LFE2845
	.2byte	0x2
	.byte	0x71
	.sleb128 8
	.4byte	0x0
	.4byte	0x0
.LLST342:
	.4byte	.LVL287
	.4byte	.LVL288
	.2byte	0x1
	.byte	0x53
	.4byte	0x0
	.4byte	0x0
.LLST343:
	.4byte	.LFB2844
	.4byte	.LCFI327
	.2byte	0x1
	.byte	0x51
	.4byte	.LCFI327
	.4byte	.LFE2844
	.2byte	0x2
	.byte	0x71
	.sleb128 8
	.4byte	0x0
	.4byte	0x0
.LLST344:
	.4byte	.LVL289
	.4byte	.LVL290
	.2byte	0x1
	.byte	0x53
	.4byte	0x0
	.4byte	0x0
.LLST345:
	.4byte	.LFB2843
	.4byte	.LCFI330
	.2byte	0x1
	.byte	0x51
	.4byte	.LCFI330
	.4byte	.LFE2843
	.2byte	0x2
	.byte	0x71
	.sleb128 8
	.4byte	0x0
	.4byte	0x0
.LLST346:
	.4byte	.LVL291
	.4byte	.LVL292
	.2byte	0x1
	.byte	0x53
	.4byte	0x0
	.4byte	0x0
.LLST347:
	.4byte	.LFB2842
	.4byte	.LCFI333
	.2byte	0x1
	.byte	0x51
	.4byte	.LCFI333
	.4byte	.LFE2842
	.2byte	0x2
	.byte	0x71
	.sleb128 8
	.4byte	0x0
	.4byte	0x0
.LLST348:
	.4byte	.LVL293
	.4byte	.LVL294
	.2byte	0x1
	.byte	0x53
	.4byte	0x0
	.4byte	0x0
.LLST349:
	.4byte	.LVL293
	.4byte	.LVL295
	.2byte	0x1
	.byte	0x54
	.4byte	0x0
	.4byte	0x0
.LLST350:
	.4byte	.LVL293
	.4byte	.LVL295
	.2byte	0x1
	.byte	0x55
	.4byte	0x0
	.4byte	0x0
.LLST351:
	.4byte	.LFB2841
	.4byte	.LCFI336
	.2byte	0x1
	.byte	0x51
	.4byte	.LCFI336
	.4byte	.LFE2841
	.2byte	0x2
	.byte	0x71
	.sleb128 8
	.4byte	0x0
	.4byte	0x0
.LLST352:
	.4byte	.LVL296
	.4byte	.LVL297
	.2byte	0x1
	.byte	0x53
	.4byte	0x0
	.4byte	0x0
.LLST353:
	.4byte	.LVL296
	.4byte	.LVL298
	.2byte	0x1
	.byte	0x54
	.4byte	0x0
	.4byte	0x0
.LLST354:
	.4byte	.LFB2840
	.4byte	.LCFI339
	.2byte	0x1
	.byte	0x51
	.4byte	.LCFI339
	.4byte	.LFE2840
	.2byte	0x2
	.byte	0x71
	.sleb128 8
	.4byte	0x0
	.4byte	0x0
.LLST355:
	.4byte	.LVL299
	.4byte	.LVL300
	.2byte	0x1
	.byte	0x53
	.4byte	0x0
	.4byte	0x0
.LLST356:
	.4byte	.LVL299
	.4byte	.LVL301
	.2byte	0x1
	.byte	0x54
	.4byte	0x0
	.4byte	0x0
.LLST357:
	.4byte	.LFB2839
	.4byte	.LCFI342
	.2byte	0x1
	.byte	0x51
	.4byte	.LCFI342
	.4byte	.LFE2839
	.2byte	0x2
	.byte	0x71
	.sleb128 8
	.4byte	0x0
	.4byte	0x0
.LLST358:
	.4byte	.LVL302
	.4byte	.LVL303
	.2byte	0x1
	.byte	0x53
	.4byte	0x0
	.4byte	0x0
.LLST359:
	.4byte	.LVL302
	.4byte	.LVL304
	.2byte	0x1
	.byte	0x54
	.4byte	0x0
	.4byte	0x0
.LLST360:
	.4byte	.LVL302
	.4byte	.LVL304
	.2byte	0x1
	.byte	0x55
	.4byte	0x0
	.4byte	0x0
.LLST361:
	.4byte	.LVL302
	.4byte	.LVL304
	.2byte	0x1
	.byte	0x56
	.4byte	0x0
	.4byte	0x0
.LLST362:
	.4byte	.LVL302
	.4byte	.LVL304
	.2byte	0x1
	.byte	0x57
	.4byte	0x0
	.4byte	0x0
.LLST363:
	.4byte	.LFB2838
	.4byte	.LCFI345
	.2byte	0x1
	.byte	0x51
	.4byte	.LCFI345
	.4byte	.LFE2838
	.2byte	0x2
	.byte	0x71
	.sleb128 8
	.4byte	0x0
	.4byte	0x0
.LLST364:
	.4byte	.LVL305
	.4byte	.LVL306
	.2byte	0x1
	.byte	0x53
	.4byte	0x0
	.4byte	0x0
.LLST365:
	.4byte	.LVL305
	.4byte	.LVL307
	.2byte	0x1
	.byte	0x54
	.4byte	0x0
	.4byte	0x0
.LLST366:
	.4byte	.LFB2837
	.4byte	.LCFI348
	.2byte	0x1
	.byte	0x51
	.4byte	.LCFI348
	.4byte	.LFE2837
	.2byte	0x2
	.byte	0x71
	.sleb128 8
	.4byte	0x0
	.4byte	0x0
.LLST367:
	.4byte	.LVL308
	.4byte	.LVL309
	.2byte	0x1
	.byte	0x53
	.4byte	0x0
	.4byte	0x0
.LLST368:
	.4byte	.LFB2836
	.4byte	.LCFI351
	.2byte	0x1
	.byte	0x51
	.4byte	.LCFI351
	.4byte	.LFE2836
	.2byte	0x2
	.byte	0x71
	.sleb128 8
	.4byte	0x0
	.4byte	0x0
.LLST369:
	.4byte	.LVL310
	.4byte	.LVL311
	.2byte	0x1
	.byte	0x53
	.4byte	0x0
	.4byte	0x0
.LLST370:
	.4byte	.LVL310
	.4byte	.LVL312
	.2byte	0x1
	.byte	0x54
	.4byte	0x0
	.4byte	0x0
.LLST371:
	.4byte	.LFB2835
	.4byte	.LCFI354
	.2byte	0x1
	.byte	0x51
	.4byte	.LCFI354
	.4byte	.LFE2835
	.2byte	0x2
	.byte	0x71
	.sleb128 8
	.4byte	0x0
	.4byte	0x0
.LLST372:
	.4byte	.LVL313
	.4byte	.LVL314
	.2byte	0x1
	.byte	0x53
	.4byte	0x0
	.4byte	0x0
.LLST373:
	.4byte	.LVL313
	.4byte	.LVL315
	.2byte	0x1
	.byte	0x54
	.4byte	0x0
	.4byte	0x0
.LLST374:
	.4byte	.LFB2834
	.4byte	.LCFI357
	.2byte	0x1
	.byte	0x51
	.4byte	.LCFI357
	.4byte	.LFE2834
	.2byte	0x2
	.byte	0x71
	.sleb128 8
	.4byte	0x0
	.4byte	0x0
.LLST375:
	.4byte	.LVL316
	.4byte	.LVL317
	.2byte	0x1
	.byte	0x53
	.4byte	0x0
	.4byte	0x0
.LLST376:
	.4byte	.LVL316
	.4byte	.LVL318
	.2byte	0x1
	.byte	0x54
	.4byte	0x0
	.4byte	0x0
.LLST377:
	.4byte	.LFB2833
	.4byte	.LCFI360
	.2byte	0x1
	.byte	0x51
	.4byte	.LCFI360
	.4byte	.LFE2833
	.2byte	0x2
	.byte	0x71
	.sleb128 8
	.4byte	0x0
	.4byte	0x0
.LLST378:
	.4byte	.LVL319
	.4byte	.LVL320
	.2byte	0x1
	.byte	0x53
	.4byte	0x0
	.4byte	0x0
.LLST379:
	.4byte	.LVL319
	.4byte	.LVL321
	.2byte	0x1
	.byte	0x54
	.4byte	0x0
	.4byte	0x0
.LLST380:
	.4byte	.LFB2832
	.4byte	.LCFI363
	.2byte	0x1
	.byte	0x51
	.4byte	.LCFI363
	.4byte	.LFE2832
	.2byte	0x2
	.byte	0x71
	.sleb128 8
	.4byte	0x0
	.4byte	0x0
.LLST381:
	.4byte	.LVL322
	.4byte	.LVL323
	.2byte	0x1
	.byte	0x53
	.4byte	0x0
	.4byte	0x0
.LLST382:
	.4byte	.LVL322
	.4byte	.LVL324
	.2byte	0x1
	.byte	0x54
	.4byte	0x0
	.4byte	0x0
.LLST383:
	.4byte	.LFB2831
	.4byte	.LCFI366
	.2byte	0x1
	.byte	0x51
	.4byte	.LCFI366
	.4byte	.LFE2831
	.2byte	0x2
	.byte	0x71
	.sleb128 8
	.4byte	0x0
	.4byte	0x0
.LLST384:
	.4byte	.LVL325
	.4byte	.LVL326
	.2byte	0x1
	.byte	0x53
	.4byte	0x0
	.4byte	0x0
.LLST385:
	.4byte	.LVL325
	.4byte	.LVL327
	.2byte	0x1
	.byte	0x54
	.4byte	0x0
	.4byte	0x0
.LLST386:
	.4byte	.LVL325
	.4byte	.LVL327
	.2byte	0x1
	.byte	0x55
	.4byte	0x0
	.4byte	0x0
.LLST387:
	.4byte	.LFB2830
	.4byte	.LCFI368
	.2byte	0x1
	.byte	0x51
	.4byte	.LCFI368
	.4byte	.LFE2830
	.2byte	0x2
	.byte	0x71
	.sleb128 24
	.4byte	0x0
	.4byte	0x0
.LLST388:
	.4byte	.LVL328
	.4byte	.LVL330
	.2byte	0x1
	.byte	0x53
	.4byte	0x0
	.4byte	0x0
.LLST389:
	.4byte	.LVL328
	.4byte	.LVL329
	.2byte	0x1
	.byte	0x54
	.4byte	0x0
	.4byte	0x0
.LLST390:
	.4byte	.LFB2829
	.4byte	.LCFI373
	.2byte	0x1
	.byte	0x51
	.4byte	.LCFI373
	.4byte	.LFE2829
	.2byte	0x2
	.byte	0x71
	.sleb128 8
	.4byte	0x0
	.4byte	0x0
.LLST391:
	.4byte	.LVL331
	.4byte	.LVL332
	.2byte	0x1
	.byte	0x53
	.4byte	0x0
	.4byte	0x0
.LLST392:
	.4byte	.LVL331
	.4byte	.LVL333
	.2byte	0x1
	.byte	0x54
	.4byte	0x0
	.4byte	0x0
.LLST393:
	.4byte	.LFB2828
	.4byte	.LCFI376
	.2byte	0x1
	.byte	0x51
	.4byte	.LCFI376
	.4byte	.LFE2828
	.2byte	0x2
	.byte	0x71
	.sleb128 8
	.4byte	0x0
	.4byte	0x0
.LLST394:
	.4byte	.LVL334
	.4byte	.LVL335
	.2byte	0x1
	.byte	0x53
	.4byte	0x0
	.4byte	0x0
.LLST395:
	.4byte	.LFB2827
	.4byte	.LCFI379
	.2byte	0x1
	.byte	0x51
	.4byte	.LCFI379
	.4byte	.LFE2827
	.2byte	0x2
	.byte	0x71
	.sleb128 8
	.4byte	0x0
	.4byte	0x0
.LLST396:
	.4byte	.LVL336
	.4byte	.LVL337
	.2byte	0x1
	.byte	0x53
	.4byte	0x0
	.4byte	0x0
.LLST397:
	.4byte	.LFB2826
	.4byte	.LCFI382
	.2byte	0x1
	.byte	0x51
	.4byte	.LCFI382
	.4byte	.LFE2826
	.2byte	0x2
	.byte	0x71
	.sleb128 8
	.4byte	0x0
	.4byte	0x0
.LLST398:
	.4byte	.LVL338
	.4byte	.LVL339
	.2byte	0x1
	.byte	0x53
	.4byte	0x0
	.4byte	0x0
.LLST399:
	.4byte	.LFB2801
	.4byte	.LCFI385
	.2byte	0x1
	.byte	0x51
	.4byte	.LCFI385
	.4byte	.LFE2801
	.2byte	0x2
	.byte	0x71
	.sleb128 8
	.4byte	0x0
	.4byte	0x0
.LLST400:
	.4byte	.LFB2800
	.4byte	.LCFI388
	.2byte	0x1
	.byte	0x51
	.4byte	.LCFI388
	.4byte	.LFE2800
	.2byte	0x2
	.byte	0x71
	.sleb128 8
	.4byte	0x0
	.4byte	0x0
.LLST401:
	.4byte	.LVL340
	.4byte	.LVL341
	.2byte	0x1
	.byte	0x53
	.4byte	0x0
	.4byte	0x0
.LLST402:
	.4byte	.LFB2906
	.4byte	.LCFI391
	.2byte	0x1
	.byte	0x51
	.4byte	.LCFI391
	.4byte	.LFE2906
	.2byte	0x2
	.byte	0x71
	.sleb128 40
	.4byte	0x0
	.4byte	0x0
.LLST403:
	.4byte	.LVL342
	.4byte	.LVL343
	.2byte	0x1
	.byte	0x53
	.4byte	.LVL343
	.4byte	.LVL347
	.2byte	0x1
	.byte	0x6d
	.4byte	.LVL347
	.4byte	.LFE2906
	.2byte	0x1
	.byte	0x53
	.4byte	0x0
	.4byte	0x0
.LLST404:
	.4byte	.LVL342
	.4byte	.LVL343
	.2byte	0x1
	.byte	0x54
	.4byte	.LVL343
	.4byte	.LVL346
	.2byte	0x1
	.byte	0x6c
	.4byte	.LVL346
	.4byte	.LFE2906
	.2byte	0x1
	.byte	0x54
	.4byte	0x0
	.4byte	0x0
.LLST405:
	.4byte	.LVL344
	.4byte	.LVL348
	.2byte	0x1
	.byte	0x6f
	.4byte	0x0
	.4byte	0x0
.LLST406:
	.4byte	.LFB2871
	.4byte	.LCFI401
	.2byte	0x1
	.byte	0x51
	.4byte	.LCFI401
	.4byte	.LFE2871
	.2byte	0x2
	.byte	0x71
	.sleb128 24
	.4byte	0x0
	.4byte	0x0
.LLST407:
	.4byte	.LVL349
	.4byte	.LVL350
	.2byte	0x1
	.byte	0x54
	.4byte	0x0
	.4byte	0x0
.LLST408:
	.4byte	.LVL349
	.4byte	.LVL351
	.2byte	0x1
	.byte	0x55
	.4byte	0x0
	.4byte	0x0
.LLST409:
	.4byte	.LFB2863
	.4byte	.LCFI405
	.2byte	0x1
	.byte	0x51
	.4byte	.LCFI405
	.4byte	.LFE2863
	.2byte	0x2
	.byte	0x71
	.sleb128 24
	.4byte	0x0
	.4byte	0x0
.LLST410:
	.4byte	.LVL352
	.4byte	.LVL353
	.2byte	0x1
	.byte	0x53
	.4byte	0x0
	.4byte	0x0
.LLST411:
	.4byte	.LVL352
	.4byte	.LVL354
	.2byte	0x1
	.byte	0x54
	.4byte	0x0
	.4byte	0x0
.LLST412:
	.4byte	.LVL352
	.4byte	.LVL354
	.2byte	0x1
	.byte	0x55
	.4byte	0x0
	.4byte	0x0
.LLST414:
	.4byte	.LFB1932
	.4byte	.LCFI407
	.2byte	0x1
	.byte	0x51
	.4byte	.LCFI407
	.4byte	.LFE1932
	.2byte	0x2
	.byte	0x71
	.sleb128 32
	.4byte	0x0
	.4byte	0x0
.LLST415:
	.4byte	.LVL356
	.4byte	.LVL358
	.2byte	0x1
	.byte	0x53
	.4byte	.LVL358
	.4byte	.LVL367
	.2byte	0x1
	.byte	0x6f
	.4byte	.LVL368
	.4byte	.LFE1932
	.2byte	0x1
	.byte	0x6f
	.4byte	0x0
	.4byte	0x0
.LLST416:
	.4byte	.LVL359
	.4byte	.LVL360
	.2byte	0x1
	.byte	0x59
	.4byte	0x0
	.4byte	0x0
.LLST417:
	.4byte	.LVL361
	.4byte	.LVL362
	.2byte	0x1
	.byte	0x59
	.4byte	.LVL364
	.4byte	.LVL365
	.2byte	0x1
	.byte	0x59
	.4byte	.LVL368
	.4byte	.LVL369
	.2byte	0x1
	.byte	0x59
	.4byte	0x0
	.4byte	0x0
.LLST418:
	.4byte	.LVL363
	.4byte	.LVL364
	.2byte	0x1
	.byte	0x57
	.4byte	0x0
	.4byte	0x0
.LLST419:
	.4byte	.LVL357
	.4byte	.LVL366
	.2byte	0x1
	.byte	0x6b
	.4byte	.LVL368
	.4byte	.LFE1932
	.2byte	0x1
	.byte	0x6b
	.4byte	0x0
	.4byte	0x0
.LLST420:
	.4byte	.LFB1938
	.4byte	.LCFI416
	.2byte	0x1
	.byte	0x51
	.4byte	.LCFI416
	.4byte	.LFE1938
	.2byte	0x2
	.byte	0x71
	.sleb128 16
	.4byte	0x0
	.4byte	0x0
.LLST421:
	.4byte	.LVL370
	.4byte	.LVL371
	.2byte	0x1
	.byte	0x53
	.4byte	.LVL371
	.4byte	.LVL372
	.2byte	0x1
	.byte	0x6f
	.4byte	.LVL373
	.4byte	.LFE1938
	.2byte	0x1
	.byte	0x6f
	.4byte	0x0
	.4byte	0x0
.LLST422:
	.4byte	.LFB2825
	.4byte	.LCFI420
	.2byte	0x1
	.byte	0x51
	.4byte	.LCFI420
	.4byte	.LFE2825
	.2byte	0x3
	.byte	0x71
	.sleb128 96
	.4byte	0x0
	.4byte	0x0
.LLST423:
	.4byte	.LVL374
	.4byte	.LVL376
	.2byte	0x1
	.byte	0x53
	.4byte	.LVL376
	.4byte	.LVL431
	.2byte	0x1
	.byte	0x67
	.4byte	.LVL433
	.4byte	.LFE2825
	.2byte	0x1
	.byte	0x67
	.4byte	0x0
	.4byte	0x0
.LLST424:
	.4byte	.LVL421
	.4byte	.LVL422
	.2byte	0x1
	.byte	0x59
	.4byte	0x0
	.4byte	0x0
.LLST425:
	.4byte	.LVL423
	.4byte	.LVL424
	.2byte	0x1
	.byte	0x59
	.4byte	.LVL426
	.4byte	.LVL427
	.2byte	0x1
	.byte	0x59
	.4byte	.LVL433
	.4byte	.LVL434
	.2byte	0x1
	.byte	0x59
	.4byte	.LVL439
	.4byte	.LVL440
	.2byte	0x1
	.byte	0x59
	.4byte	0x0
	.4byte	0x0
.LLST426:
	.4byte	.LVL425
	.4byte	.LVL426
	.2byte	0x1
	.byte	0x57
	.4byte	0x0
	.4byte	0x0
.LLST427:
	.4byte	.LVL420
	.4byte	.LVL428
	.2byte	0x1
	.byte	0x6c
	.4byte	.LVL433
	.4byte	.LVL434
	.2byte	0x1
	.byte	0x6c
	.4byte	.LVL439
	.4byte	.LVL450
	.2byte	0x1
	.byte	0x6c
	.4byte	.LVL465
	.4byte	.LVL466
	.2byte	0x1
	.byte	0x6c
	.4byte	.LVL467
	.4byte	.LVL472
	.2byte	0x1
	.byte	0x6c
	.4byte	.LVL474
	.4byte	.LVL475
	.2byte	0x1
	.byte	0x6c
	.4byte	.LVL477
	.4byte	.LVL478
	.2byte	0x1
	.byte	0x6c
	.4byte	.LVL487
	.4byte	.LFE2825
	.2byte	0x1
	.byte	0x6c
	.4byte	0x0
	.4byte	0x0
.LLST428:
	.4byte	.LVL413
	.4byte	.LVL414
	.2byte	0x1
	.byte	0x59
	.4byte	0x0
	.4byte	0x0
.LLST429:
	.4byte	.LVL415
	.4byte	.LVL416
	.2byte	0x1
	.byte	0x59
	.4byte	.LVL418
	.4byte	.LVL419
	.2byte	0x1
	.byte	0x59
	.4byte	.LVL434
	.4byte	.LVL435
	.2byte	0x1
	.byte	0x59
	.4byte	.LVL437
	.4byte	.LVL438
	.2byte	0x1
	.byte	0x59
	.4byte	0x0
	.4byte	0x0
.LLST430:
	.4byte	.LVL417
	.4byte	.LVL418
	.2byte	0x1
	.byte	0x57
	.4byte	0x0
	.4byte	0x0
.LLST431:
	.4byte	.LVL411
	.4byte	.LVL420
	.2byte	0x1
	.byte	0x6c
	.4byte	.LVL434
	.4byte	.LVL435
	.2byte	0x1
	.byte	0x6c
	.4byte	.LVL437
	.4byte	.LVL439
	.2byte	0x1
	.byte	0x6c
	.4byte	.LVL465
	.4byte	.LVL472
	.2byte	0x1
	.byte	0x6c
	.4byte	.LVL473
	.4byte	.LVL475
	.2byte	0x1
	.byte	0x6c
	.4byte	.LVL477
	.4byte	.LVL478
	.2byte	0x1
	.byte	0x6c
	.4byte	.LVL481
	.4byte	.LVL482
	.2byte	0x1
	.byte	0x6c
	.4byte	.LVL483
	.4byte	.LVL486
	.2byte	0x1
	.byte	0x6c
	.4byte	0x0
	.4byte	0x0
.LLST432:
	.4byte	.LVL396
	.4byte	.LVL398
	.2byte	0x1
	.byte	0x66
	.4byte	.LVL398
	.4byte	.LVL412
	.2byte	0x1
	.byte	0x6f
	.4byte	.LVL412
	.4byte	.LVL430
	.2byte	0x1
	.byte	0x66
	.4byte	.LVL433
	.4byte	.LVL435
	.2byte	0x1
	.byte	0x66
	.4byte	.LVL437
	.4byte	.LVL464
	.2byte	0x1
	.byte	0x66
	.4byte	.LVL465
	.4byte	.LVL472
	.2byte	0x1
	.byte	0x66
	.4byte	.LVL472
	.4byte	.LVL473
	.2byte	0x1
	.byte	0x6f
	.4byte	.LVL473
	.4byte	.LVL475
	.2byte	0x1
	.byte	0x66
	.4byte	.LVL477
	.4byte	.LVL478
	.2byte	0x1
	.byte	0x66
	.4byte	.LVL478
	.4byte	.LVL479
	.2byte	0x1
	.byte	0x6f
	.4byte	.LVL479
	.4byte	.LVL480
	.2byte	0x1
	.byte	0x66
	.4byte	.LVL480
	.4byte	.LVL481
	.2byte	0x1
	.byte	0x6f
	.4byte	.LVL481
	.4byte	.LVL482
	.2byte	0x1
	.byte	0x66
	.4byte	.LVL483
	.4byte	.LVL484
	.2byte	0x1
	.byte	0x6f
	.4byte	.LVL484
	.4byte	.LVL486
	.2byte	0x1
	.byte	0x66
	.4byte	.LVL487
	.4byte	.LFE2825
	.2byte	0x1
	.byte	0x66
	.4byte	0x0
	.4byte	0x0
.LLST433:
	.4byte	.LVL400
	.4byte	.LVL401
	.2byte	0x1
	.byte	0x59
	.4byte	0x0
	.4byte	0x0
.LLST434:
	.4byte	.LVL402
	.4byte	.LVL403
	.2byte	0x1
	.byte	0x59
	.4byte	.LVL405
	.4byte	.LVL406
	.2byte	0x1
	.byte	0x59
	.4byte	.LVL407
	.4byte	.LVL408
	.2byte	0x1
	.byte	0x59
	.4byte	0x0
	.4byte	0x0
.LLST435:
	.4byte	.LVL404
	.4byte	.LVL405
	.2byte	0x1
	.byte	0x57
	.4byte	0x0
	.4byte	0x0
.LLST436:
	.4byte	.LVL398
	.4byte	.LVL409
	.2byte	0x1
	.byte	0x6b
	.4byte	.LVL465
	.4byte	.LVL466
	.2byte	0x1
	.byte	0x6b
	.4byte	.LVL470
	.4byte	.LVL472
	.2byte	0x1
	.byte	0x6b
	.4byte	.LVL478
	.4byte	.LVL481
	.2byte	0x1
	.byte	0x6b
	.4byte	0x0
	.4byte	0x0
.LLST437:
	.4byte	.LVL384
	.4byte	.LVL385
	.2byte	0x1
	.byte	0x65
	.4byte	.LVL385
	.4byte	.LVL397
	.2byte	0x1
	.byte	0x6f
	.4byte	.LVL397
	.4byte	.LVL429
	.2byte	0x1
	.byte	0x65
	.4byte	.LVL433
	.4byte	.LVL435
	.2byte	0x1
	.byte	0x65
	.4byte	.LVL437
	.4byte	.LVL464
	.2byte	0x1
	.byte	0x65
	.4byte	.LVL465
	.4byte	.LVL475
	.2byte	0x1
	.byte	0x65
	.4byte	.LVL475
	.4byte	.LVL476
	.2byte	0x1
	.byte	0x6f
	.4byte	.LVL476
	.4byte	.LVL482
	.2byte	0x1
	.byte	0x65
	.4byte	.LVL482
	.4byte	.LVL483
	.2byte	0x1
	.byte	0x6f
	.4byte	.LVL483
	.4byte	.LVL486
	.2byte	0x1
	.byte	0x65
	.4byte	.LVL487
	.4byte	.LFE2825
	.2byte	0x1
	.byte	0x65
	.4byte	0x0
	.4byte	0x0
.LLST438:
	.4byte	.LVL385
	.4byte	.LVL399
	.2byte	0x1
	.byte	0x6b
	.4byte	.LVL465
	.4byte	.LVL466
	.2byte	0x1
	.byte	0x6b
	.4byte	.LVL471
	.4byte	.LVL472
	.2byte	0x1
	.byte	0x6b
	.4byte	.LVL475
	.4byte	.LVL477
	.2byte	0x1
	.byte	0x6b
	.4byte	.LVL482
	.4byte	.LVL483
	.2byte	0x1
	.byte	0x6b
	.4byte	0x0
	.4byte	0x0
.LLST439:
	.4byte	.LVL387
	.4byte	.LVL388
	.2byte	0x1
	.byte	0x59
	.4byte	0x0
	.4byte	0x0
.LLST440:
	.4byte	.LVL389
	.4byte	.LVL390
	.2byte	0x1
	.byte	0x59
	.4byte	.LVL392
	.4byte	.LVL393
	.2byte	0x1
	.byte	0x59
	.4byte	.LVL394
	.4byte	.LVL395
	.2byte	0x1
	.byte	0x59
	.4byte	0x0
	.4byte	0x0
.LLST441:
	.4byte	.LVL391
	.4byte	.LVL392
	.2byte	0x1
	.byte	0x57
	.4byte	0x0
	.4byte	0x0
.LLST442:
	.4byte	.LVL377
	.4byte	.LVL378
	.2byte	0x1
	.byte	0x59
	.4byte	0x0
	.4byte	0x0
.LLST443:
	.4byte	.LVL379
	.4byte	.LVL380
	.2byte	0x1
	.byte	0x59
	.4byte	.LVL382
	.4byte	.LVL383
	.2byte	0x1
	.byte	0x59
	.4byte	.LVL435
	.4byte	.LVL436
	.2byte	0x1
	.byte	0x59
	.4byte	0x0
	.4byte	0x0
.LLST444:
	.4byte	.LVL381
	.4byte	.LVL382
	.2byte	0x1
	.byte	0x57
	.4byte	0x0
	.4byte	0x0
.LLST445:
	.4byte	.LVL375
	.4byte	.LVL386
	.2byte	0x1
	.byte	0x6d
	.4byte	.LVL435
	.4byte	.LVL437
	.2byte	0x1
	.byte	0x6d
	.4byte	.LVL464
	.4byte	.LVL466
	.2byte	0x1
	.byte	0x6d
	.4byte	.LVL486
	.4byte	.LVL487
	.2byte	0x1
	.byte	0x6d
	.4byte	0x0
	.4byte	0x0
.LLST446:
	.4byte	.LVL442
	.4byte	.LVL443
	.2byte	0x1
	.byte	0x6f
	.4byte	.LVL443
	.4byte	.LVL444
	.2byte	0x1
	.byte	0x53
	.4byte	.LVL444
	.4byte	.LVL445
	.2byte	0x1
	.byte	0x6f
	.4byte	.LVL445
	.4byte	.LVL446
	.2byte	0x1
	.byte	0x53
	.4byte	.LVL446
	.4byte	.LVL448
	.2byte	0x1
	.byte	0x6f
	.4byte	0x0
	.4byte	0x0
.LLST447:
	.4byte	.LVL449
	.4byte	.LVL450
	.2byte	0x1
	.byte	0x6f
	.4byte	.LVL467
	.4byte	.LVL469
	.2byte	0x1
	.byte	0x6f
	.4byte	.LVL474
	.4byte	.LVL475
	.2byte	0x1
	.byte	0x6f
	.4byte	.LVL477
	.4byte	.LVL478
	.2byte	0x1
	.byte	0x6f
	.4byte	.LVL488
	.4byte	.LFE2825
	.2byte	0x1
	.byte	0x6f
	.4byte	0x0
	.4byte	0x0
.LLST448:
	.4byte	.LVL452
	.4byte	.LVL454
	.2byte	0x1
	.byte	0x50
	.4byte	.LVL454
	.4byte	.LVL455
	.2byte	0x1
	.byte	0x50
	.4byte	.LVL456
	.4byte	.LVL457
	.2byte	0x1
	.byte	0x50
	.4byte	0x0
	.4byte	0x0
.LLST449:
	.4byte	.LVL441
	.4byte	.LVL442
	.2byte	0x1
	.byte	0x6f
	.4byte	.LVL447
	.4byte	.LVL448
	.2byte	0x1
	.byte	0x6f
	.4byte	.LVL451
	.4byte	.LVL453
	.2byte	0x1
	.byte	0x6f
	.4byte	.LVL456
	.4byte	.LVL458
	.2byte	0x1
	.byte	0x6f
	.4byte	.LVL459
	.4byte	.LVL460
	.2byte	0x1
	.byte	0x6f
	.4byte	.LVL460
	.4byte	.LVL461
	.2byte	0x1
	.byte	0x53
	.4byte	.LVL461
	.4byte	.LVL462
	.2byte	0x1
	.byte	0x6f
	.4byte	.LVL462
	.4byte	.LVL463
	.2byte	0x1
	.byte	0x53
	.4byte	.LVL463
	.4byte	.LVL464
	.2byte	0x1
	.byte	0x6f
	.4byte	0x0
	.4byte	0x0
.LLST450:
	.4byte	.LVL410
	.4byte	.LVL432
	.2byte	0x1
	.byte	0x69
	.4byte	.LVL433
	.4byte	.LVL435
	.2byte	0x1
	.byte	0x69
	.4byte	.LVL437
	.4byte	.LVL464
	.2byte	0x1
	.byte	0x69
	.4byte	.LVL465
	.4byte	.LVL475
	.2byte	0x1
	.byte	0x69
	.4byte	.LVL477
	.4byte	.LVL478
	.2byte	0x1
	.byte	0x69
	.4byte	.LVL481
	.4byte	.LVL482
	.2byte	0x1
	.byte	0x69
	.4byte	.LVL483
	.4byte	.LVL486
	.2byte	0x1
	.byte	0x69
	.4byte	.LVL487
	.4byte	.LFE2825
	.2byte	0x1
	.byte	0x69
	.4byte	0x0
	.4byte	0x0
.LLST451:
	.4byte	.LFB3255
	.4byte	.LCFI442
	.2byte	0x1
	.byte	0x51
	.4byte	.LCFI442
	.4byte	.LFE3255
	.2byte	0x2
	.byte	0x71
	.sleb128 40
	.4byte	0x0
	.4byte	0x0
.LLST452:
	.4byte	.LVL489
	.4byte	.LVL492
	.2byte	0x1
	.byte	0x53
	.4byte	0x0
	.4byte	0x0
.LLST453:
	.4byte	.LVL489
	.4byte	.LVL493
	.2byte	0x1
	.byte	0x54
	.4byte	0x0
	.4byte	0x0
.LLST455:
	.4byte	.LFB2824
	.4byte	.LCFI446
	.2byte	0x1
	.byte	0x51
	.4byte	.LCFI446
	.4byte	.LFE2824
	.2byte	0x3
	.byte	0x71
	.sleb128 96
	.4byte	0x0
	.4byte	0x0
.LLST456:
	.4byte	.LVL494
	.4byte	.LVL496
	.2byte	0x1
	.byte	0x53
	.4byte	.LVL496
	.4byte	.LVL561
	.2byte	0x1
	.byte	0x67
	.4byte	.LVL563
	.4byte	.LFE2824
	.2byte	0x1
	.byte	0x67
	.4byte	0x0
	.4byte	0x0
.LLST457:
	.4byte	.LVL551
	.4byte	.LVL552
	.2byte	0x1
	.byte	0x59
	.4byte	0x0
	.4byte	0x0
.LLST458:
	.4byte	.LVL553
	.4byte	.LVL554
	.2byte	0x1
	.byte	0x59
	.4byte	.LVL556
	.4byte	.LVL557
	.2byte	0x1
	.byte	0x59
	.4byte	.LVL563
	.4byte	.LVL564
	.2byte	0x1
	.byte	0x59
	.4byte	.LVL571
	.4byte	.LVL572
	.2byte	0x1
	.byte	0x59
	.4byte	0x0
	.4byte	0x0
.LLST459:
	.4byte	.LVL555
	.4byte	.LVL556
	.2byte	0x1
	.byte	0x57
	.4byte	0x0
	.4byte	0x0
.LLST460:
	.4byte	.LVL550
	.4byte	.LVL562
	.2byte	0x1
	.byte	0x69
	.4byte	.LVL563
	.4byte	.LVL564
	.2byte	0x1
	.byte	0x69
	.4byte	.LVL571
	.4byte	.LVL573
	.2byte	0x1
	.byte	0x69
	.4byte	.LVL578
	.4byte	.LVL580
	.2byte	0x1
	.byte	0x69
	.4byte	.LVL581
	.4byte	.LVL598
	.2byte	0x1
	.byte	0x69
	.4byte	.LVL601
	.4byte	.LVL610
	.2byte	0x1
	.byte	0x69
	.4byte	.LVL614
	.4byte	.LVL616
	.2byte	0x1
	.byte	0x69
	.4byte	.LVL617
	.4byte	.LVL618
	.2byte	0x1
	.byte	0x69
	.4byte	.LVL624
	.4byte	.LVL625
	.2byte	0x1
	.byte	0x69
	.4byte	.LVL627
	.4byte	.LFE2824
	.2byte	0x1
	.byte	0x69
	.4byte	0x0
	.4byte	0x0
.LLST461:
	.4byte	.LVL542
	.4byte	.LVL543
	.2byte	0x1
	.byte	0x59
	.4byte	0x0
	.4byte	0x0
.LLST462:
	.4byte	.LVL544
	.4byte	.LVL545
	.2byte	0x1
	.byte	0x59
	.4byte	.LVL547
	.4byte	.LVL548
	.2byte	0x1
	.byte	0x59
	.4byte	.LVL564
	.4byte	.LVL565
	.2byte	0x1
	.byte	0x59
	.4byte	.LVL569
	.4byte	.LVL570
	.2byte	0x1
	.byte	0x59
	.4byte	0x0
	.4byte	0x0
.LLST463:
	.4byte	.LVL546
	.4byte	.LVL547
	.2byte	0x1
	.byte	0x57
	.4byte	0x0
	.4byte	0x0
.LLST464:
	.4byte	.LVL541
	.4byte	.LVL549
	.2byte	0x1
	.byte	0x6d
	.4byte	.LVL564
	.4byte	.LVL565
	.2byte	0x1
	.byte	0x6d
	.4byte	.LVL569
	.4byte	.LVL571
	.2byte	0x1
	.byte	0x6d
	.4byte	.LVL578
	.4byte	.LVL580
	.2byte	0x1
	.byte	0x6d
	.4byte	.LVL589
	.4byte	.LVL598
	.2byte	0x1
	.byte	0x6d
	.4byte	.LVL601
	.4byte	.LVL604
	.2byte	0x1
	.byte	0x6d
	.4byte	.LVL614
	.4byte	.LVL616
	.2byte	0x1
	.byte	0x6d
	.4byte	.LVL617
	.4byte	.LVL619
	.2byte	0x1
	.byte	0x6d
	.4byte	.LVL626
	.4byte	.LFE2824
	.2byte	0x1
	.byte	0x6d
	.4byte	0x0
	.4byte	0x0
.LLST465:
	.4byte	.LVL532
	.4byte	.LVL533
	.2byte	0x1
	.byte	0x59
	.4byte	0x0
	.4byte	0x0
.LLST466:
	.4byte	.LVL534
	.4byte	.LVL535
	.2byte	0x1
	.byte	0x59
	.4byte	.LVL537
	.4byte	.LVL538
	.2byte	0x1
	.byte	0x59
	.4byte	.LVL565
	.4byte	.LVL566
	.2byte	0x1
	.byte	0x59
	.4byte	.LVL567
	.4byte	.LVL568
	.2byte	0x1
	.byte	0x59
	.4byte	0x0
	.4byte	0x0
.LLST467:
	.4byte	.LVL536
	.4byte	.LVL537
	.2byte	0x1
	.byte	0x57
	.4byte	0x0
	.4byte	0x0
.LLST468:
	.4byte	.LVL530
	.4byte	.LVL539
	.2byte	0x1
	.byte	0x6c
	.4byte	.LVL565
	.4byte	.LVL566
	.2byte	0x1
	.byte	0x6c
	.4byte	.LVL567
	.4byte	.LVL569
	.2byte	0x1
	.byte	0x6c
	.4byte	.LVL578
	.4byte	.LVL580
	.2byte	0x1
	.byte	0x6c
	.4byte	.LVL599
	.4byte	.LVL604
	.2byte	0x1
	.byte	0x6c
	.4byte	.LVL615
	.4byte	.LVL616
	.2byte	0x1
	.byte	0x6c
	.4byte	.LVL621
	.4byte	.LVL622
	.2byte	0x1
	.byte	0x6c
	.4byte	.LVL623
	.4byte	.LVL624
	.2byte	0x1
	.byte	0x6c
	.4byte	.LVL625
	.4byte	.LVL626
	.2byte	0x1
	.byte	0x6c
	.4byte	0x0
	.4byte	0x0
.LLST469:
	.4byte	.LVL516
	.4byte	.LVL518
	.2byte	0x1
	.byte	0x63
	.4byte	.LVL518
	.4byte	.LVL531
	.2byte	0x1
	.byte	0x6f
	.4byte	.LVL531
	.4byte	.LVL559
	.2byte	0x1
	.byte	0x63
	.4byte	.LVL563
	.4byte	.LVL566
	.2byte	0x1
	.byte	0x63
	.4byte	.LVL567
	.4byte	.LVL573
	.2byte	0x1
	.byte	0x63
	.4byte	.LVL578
	.4byte	.LVL580
	.2byte	0x1
	.byte	0x63
	.4byte	.LVL581
	.4byte	.LVL598
	.2byte	0x1
	.byte	0x63
	.4byte	.LVL599
	.4byte	.LVL610
	.2byte	0x1
	.byte	0x63
	.4byte	.LVL610
	.4byte	.LVL611
	.2byte	0x1
	.byte	0x6f
	.4byte	.LVL611
	.4byte	.LVL612
	.2byte	0x1
	.byte	0x63
	.4byte	.LVL612
	.4byte	.LVL613
	.2byte	0x1
	.byte	0x6f
	.4byte	.LVL613
	.4byte	.LVL619
	.2byte	0x1
	.byte	0x63
	.4byte	.LVL619
	.4byte	.LVL620
	.2byte	0x1
	.byte	0x6f
	.4byte	.LVL621
	.4byte	.LVL622
	.2byte	0x1
	.byte	0x63
	.4byte	.LVL623
	.4byte	.LVL625
	.2byte	0x1
	.byte	0x63
	.4byte	.LVL625
	.4byte	.LVL626
	.2byte	0x1
	.byte	0x6f
	.4byte	.LVL626
	.4byte	.LFE2824
	.2byte	0x1
	.byte	0x63
	.4byte	0x0
	.4byte	0x0
.LLST470:
	.4byte	.LVL518
	.4byte	.LVL540
	.2byte	0x1
	.byte	0x6b
	.4byte	.LVL565
	.4byte	.LVL566
	.2byte	0x1
	.byte	0x6b
	.4byte	.LVL567
	.4byte	.LVL569
	.2byte	0x1
	.byte	0x6b
	.4byte	.LVL578
	.4byte	.LVL580
	.2byte	0x1
	.byte	0x6b
	.4byte	.LVL599
	.4byte	.LVL604
	.2byte	0x1
	.byte	0x6b
	.4byte	.LVL610
	.4byte	.LVL618
	.2byte	0x1
	.byte	0x6b
	.4byte	.LVL619
	.4byte	.LVL620
	.2byte	0x1
	.byte	0x6b
	.4byte	.LVL621
	.4byte	.LVL622
	.2byte	0x1
	.byte	0x6b
	.4byte	.LVL623
	.4byte	.LVL624
	.2byte	0x1
	.byte	0x6b
	.4byte	.LVL625
	.4byte	.LVL626
	.2byte	0x1
	.byte	0x6b
	.4byte	0x0
	.4byte	0x0
.LLST471:
	.4byte	.LVL520
	.4byte	.LVL521
	.2byte	0x1
	.byte	0x59
	.4byte	0x0
	.4byte	0x0
.LLST472:
	.4byte	.LVL522
	.4byte	.LVL523
	.2byte	0x1
	.byte	0x59
	.4byte	.LVL525
	.4byte	.LVL526
	.2byte	0x1
	.byte	0x59
	.4byte	.LVL527
	.4byte	.LVL528
	.2byte	0x1
	.byte	0x59
	.4byte	0x0
	.4byte	0x0
.LLST473:
	.4byte	.LVL524
	.4byte	.LVL525
	.2byte	0x1
	.byte	0x57
	.4byte	0x0
	.4byte	0x0
.LLST474:
	.4byte	.LVL504
	.4byte	.LVL505
	.2byte	0x1
	.byte	0x62
	.4byte	.LVL505
	.4byte	.LVL517
	.2byte	0x1
	.byte	0x6f
	.4byte	.LVL517
	.4byte	.LVL558
	.2byte	0x1
	.byte	0x62
	.4byte	.LVL563
	.4byte	.LVL566
	.2byte	0x1
	.byte	0x62
	.4byte	.LVL567
	.4byte	.LVL573
	.2byte	0x1
	.byte	0x62
	.4byte	.LVL575
	.4byte	.LVL577
	.2byte	0x1
	.byte	0x6f
	.4byte	.LVL577
	.4byte	.LVL598
	.2byte	0x1
	.byte	0x62
	.4byte	.LVL598
	.4byte	.LVL599
	.2byte	0x1
	.byte	0x6f
	.4byte	.LVL599
	.4byte	.LVL620
	.2byte	0x1
	.byte	0x62
	.4byte	.LVL621
	.4byte	.LVL622
	.2byte	0x1
	.byte	0x62
	.4byte	.LVL623
	.4byte	.LFE2824
	.2byte	0x1
	.byte	0x62
	.4byte	0x0
	.4byte	0x0
.LLST475:
	.4byte	.LVL507
	.4byte	.LVL508
	.2byte	0x1
	.byte	0x59
	.4byte	0x0
	.4byte	0x0
.LLST476:
	.4byte	.LVL509
	.4byte	.LVL510
	.2byte	0x1
	.byte	0x59
	.4byte	.LVL512
	.4byte	.LVL513
	.2byte	0x1
	.byte	0x59
	.4byte	.LVL514
	.4byte	.LVL515
	.2byte	0x1
	.byte	0x59
	.4byte	0x0
	.4byte	0x0
.LLST477:
	.4byte	.LVL511
	.4byte	.LVL512
	.2byte	0x1
	.byte	0x57
	.4byte	0x0
	.4byte	0x0
.LLST478:
	.4byte	.LVL505
	.4byte	.LVL519
	.2byte	0x1
	.byte	0x6b
	.4byte	.LVL575
	.4byte	.LVL581
	.2byte	0x1
	.byte	0x6b
	.4byte	.LVL598
	.4byte	.LVL599
	.2byte	0x1
	.byte	0x6b
	.4byte	0x0
	.4byte	0x0
.LLST479:
	.4byte	.LVL497
	.4byte	.LVL498
	.2byte	0x1
	.byte	0x59
	.4byte	0x0
	.4byte	0x0
.LLST480:
	.4byte	.LVL499
	.4byte	.LVL500
	.2byte	0x1
	.byte	0x59
	.4byte	.LVL502
	.4byte	.LVL503
	.2byte	0x1
	.byte	0x59
	.4byte	.LVL566
	.4byte	.LVL567
	.2byte	0x1
	.byte	0x59
	.4byte	.LVL573
	.4byte	.LVL574
	.2byte	0x1
	.byte	0x59
	.4byte	0x0
	.4byte	0x0
.LLST481:
	.4byte	.LVL501
	.4byte	.LVL502
	.2byte	0x1
	.byte	0x57
	.4byte	0x0
	.4byte	0x0
.LLST482:
	.4byte	.LVL495
	.4byte	.LVL506
	.2byte	0x1
	.byte	0x6d
	.4byte	.LVL566
	.4byte	.LVL567
	.2byte	0x1
	.byte	0x6d
	.4byte	.LVL573
	.4byte	.LVL575
	.2byte	0x1
	.byte	0x6d
	.4byte	.LVL579
	.4byte	.LVL580
	.2byte	0x1
	.byte	0x6d
	.4byte	.LVL620
	.4byte	.LVL621
	.2byte	0x1
	.byte	0x6d
	.4byte	.LVL622
	.4byte	.LVL623
	.2byte	0x1
	.byte	0x6d
	.4byte	0x0
	.4byte	0x0
.LLST483:
	.4byte	.LVL576
	.4byte	.LVL581
	.2byte	0x1
	.byte	0x6e
	.4byte	0x0
	.4byte	0x0
.LLST484:
	.4byte	.LVL583
	.4byte	.LVL585
	.2byte	0x1
	.byte	0x50
	.4byte	.LVL585
	.4byte	.LVL586
	.2byte	0x1
	.byte	0x50
	.4byte	.LVL587
	.4byte	.LVL588
	.2byte	0x1
	.byte	0x50
	.4byte	0x0
	.4byte	0x0
.LLST485:
	.4byte	.LVL590
	.4byte	.LVL591
	.2byte	0x1
	.byte	0x6f
	.4byte	.LVL591
	.4byte	.LVL592
	.2byte	0x1
	.byte	0x53
	.4byte	.LVL592
	.4byte	.LVL593
	.2byte	0x1
	.byte	0x6f
	.4byte	.LVL593
	.4byte	.LVL594
	.2byte	0x1
	.byte	0x53
	.4byte	.LVL594
	.4byte	.LVL596
	.2byte	0x1
	.byte	0x6f
	.4byte	0x0
	.4byte	0x0
.LLST486:
	.4byte	.LVL597
	.4byte	.LVL598
	.2byte	0x1
	.byte	0x6f
	.4byte	.LVL601
	.4byte	.LVL602
	.2byte	0x1
	.byte	0x6f
	.4byte	.LVL614
	.4byte	.LVL616
	.2byte	0x1
	.byte	0x6f
	.4byte	.LVL617
	.4byte	.LVL618
	.2byte	0x1
	.byte	0x6f
	.4byte	.LVL627
	.4byte	.LFE2824
	.2byte	0x1
	.byte	0x6f
	.4byte	0x0
	.4byte	0x0
.LLST487:
	.4byte	.LVL529
	.4byte	.LVL560
	.2byte	0x1
	.byte	0x66
	.4byte	.LVL563
	.4byte	.LVL566
	.2byte	0x1
	.byte	0x66
	.4byte	.LVL567
	.4byte	.LVL573
	.2byte	0x1
	.byte	0x66
	.4byte	.LVL578
	.4byte	.LVL580
	.2byte	0x1
	.byte	0x66
	.4byte	.LVL581
	.4byte	.LVL598
	.2byte	0x1
	.byte	0x66
	.4byte	.LVL599
	.4byte	.LVL610
	.2byte	0x1
	.byte	0x66
	.4byte	.LVL612
	.4byte	.LVL619
	.2byte	0x1
	.byte	0x66
	.4byte	.LVL621
	.4byte	.LVL622
	.2byte	0x1
	.byte	0x66
	.4byte	.LVL623
	.4byte	.LFE2824
	.2byte	0x1
	.byte	0x66
	.4byte	0x0
	.4byte	0x0
.LLST488:
	.4byte	.LVL582
	.4byte	.LVL584
	.2byte	0x1
	.byte	0x6f
	.4byte	.LVL587
	.4byte	.LVL590
	.2byte	0x1
	.byte	0x6f
	.4byte	.LVL595
	.4byte	.LVL596
	.2byte	0x1
	.byte	0x6f
	.4byte	.LVL605
	.4byte	.LVL606
	.2byte	0x1
	.byte	0x6f
	.4byte	.LVL606
	.4byte	.LVL607
	.2byte	0x1
	.byte	0x53
	.4byte	.LVL607
	.4byte	.LVL608
	.2byte	0x1
	.byte	0x6f
	.4byte	.LVL608
	.4byte	.LVL609
	.2byte	0x1
	.byte	0x53
	.4byte	.LVL609
	.4byte	.LVL610
	.2byte	0x1
	.byte	0x6f
	.4byte	0x0
	.4byte	0x0
.LLST489:
	.4byte	.LFB3261
	.4byte	.LCFI468
	.2byte	0x1
	.byte	0x51
	.4byte	.LCFI468
	.4byte	.LFE3261
	.2byte	0x2
	.byte	0x71
	.sleb128 32
	.4byte	0x0
	.4byte	0x0
.LLST490:
	.4byte	.LVL628
	.4byte	.LVL633
	.2byte	0x1
	.byte	0x53
	.4byte	.LVL633
	.4byte	.LVL635
	.2byte	0x1
	.byte	0x6c
	.4byte	.LVL635
	.4byte	.LVL636
	.2byte	0x1
	.byte	0x53
	.4byte	.LVL636
	.4byte	.LVL655
	.2byte	0x1
	.byte	0x6c
	.4byte	.LVL656
	.4byte	.LFE3261
	.2byte	0x1
	.byte	0x6c
	.4byte	0x0
	.4byte	0x0
.LLST491:
	.4byte	.LVL629
	.4byte	.LVL630
	.2byte	0x1
	.byte	0x5b
	.4byte	.LVL630
	.4byte	.LVL631
	.2byte	0x1
	.byte	0x6f
	.4byte	.LVL631
	.4byte	.LVL632
	.2byte	0x1
	.byte	0x5b
	.4byte	.LVL632
	.4byte	.LVL634
	.2byte	0x1
	.byte	0x6f
	.4byte	.LVL634
	.4byte	.LVL637
	.2byte	0x1
	.byte	0x5b
	.4byte	.LVL637
	.4byte	.LVL637
	.2byte	0x1
	.byte	0x6f
	.4byte	.LVL637
	.4byte	.LVL638
	.2byte	0x1
	.byte	0x5b
	.4byte	.LVL638
	.4byte	.LVL641
	.2byte	0x1
	.byte	0x6f
	.4byte	.LVL656
	.4byte	.LVL658
	.2byte	0x1
	.byte	0x6f
	.4byte	.LVL661
	.4byte	.LVL664
	.2byte	0x1
	.byte	0x6f
	.4byte	.LVL666
	.4byte	.LVL669
	.2byte	0x1
	.byte	0x6f
	.4byte	.LVL670
	.4byte	.LVL671
	.2byte	0x1
	.byte	0x6f
	.4byte	.LVL676
	.4byte	.LVL677
	.2byte	0x1
	.byte	0x6f
	.4byte	.LVL691
	.4byte	.LFE3261
	.2byte	0x1
	.byte	0x6f
	.4byte	0x0
	.4byte	0x0
.LLST492:
	.4byte	.LVL639
	.4byte	.LVL640
	.2byte	0x1
	.byte	0x50
	.4byte	.LVL641
	.4byte	.LVL642
	.2byte	0x1
	.byte	0x50
	.4byte	.LVL642
	.4byte	.LVL643
	.2byte	0x1
	.byte	0x50
	.4byte	.LVL644
	.4byte	.LVL645
	.2byte	0x1
	.byte	0x50
	.4byte	0x0
	.4byte	0x0
.LLST493:
	.4byte	.LVL646
	.4byte	.LVL647
	.2byte	0x1
	.byte	0x59
	.4byte	.LVL647
	.4byte	.LVL648
	.2byte	0x1
	.byte	0x6f
	.4byte	.LVL648
	.4byte	.LVL649
	.2byte	0x1
	.byte	0x59
	.4byte	.LVL649
	.4byte	.LVL650
	.2byte	0x1
	.byte	0x6f
	.4byte	.LVL650
	.4byte	.LVL651
	.2byte	0x1
	.byte	0x59
	.4byte	.LVL651
	.4byte	.LVL653
	.2byte	0x1
	.byte	0x6f
	.4byte	.LVL668
	.4byte	.LVL669
	.2byte	0x1
	.byte	0x6f
	.4byte	.LVL689
	.4byte	.LVL690
	.2byte	0x1
	.byte	0x6f
	.4byte	0x0
	.4byte	0x0
.LLST494:
	.4byte	.LVL653
	.4byte	.LVL654
	.2byte	0x1
	.byte	0x6f
	.4byte	.LVL679
	.4byte	.LVL680
	.2byte	0x1
	.byte	0x6f
	.4byte	.LVL684
	.4byte	.LVL685
	.2byte	0x1
	.byte	0x6f
	.4byte	.LVL686
	.4byte	.LVL687
	.2byte	0x1
	.byte	0x6f
	.4byte	.LVL688
	.4byte	.LVL689
	.2byte	0x1
	.byte	0x6f
	.4byte	0x0
	.4byte	0x0
.LLST495:
	.4byte	.LVL657
	.4byte	.LVL659
	.2byte	0x1
	.byte	0x50
	.4byte	.LVL659
	.4byte	.LVL660
	.2byte	0x1
	.byte	0x50
	.4byte	.LVL661
	.4byte	.LVL662
	.2byte	0x1
	.byte	0x50
	.4byte	0x0
	.4byte	0x0
.LLST496:
	.4byte	.LVL663
	.4byte	.LVL664
	.2byte	0x1
	.byte	0x53
	.4byte	.LVL664
	.4byte	.LVL665
	.2byte	0x1
	.byte	0x6f
	.4byte	.LVL665
	.4byte	.LVL667
	.2byte	0x1
	.byte	0x53
	.4byte	.LVL667
	.4byte	.LVL669
	.2byte	0x1
	.byte	0x6f
	.4byte	0x0
	.4byte	0x0
.LLST497:
	.4byte	.LVL669
	.4byte	.LVL670
	.2byte	0x1
	.byte	0x6f
	.4byte	.LVL678
	.4byte	.LVL680
	.2byte	0x1
	.byte	0x6f
	.4byte	.LVL681
	.4byte	.LVL682
	.2byte	0x1
	.byte	0x6f
	.4byte	.LVL683
	.4byte	.LVL687
	.2byte	0x1
	.byte	0x6f
	.4byte	0x0
	.4byte	0x0
.LLST498:
	.4byte	.LVL672
	.4byte	.LVL673
	.2byte	0x1
	.byte	0x6f
	.4byte	.LVL674
	.4byte	.LVL675
	.2byte	0x1
	.byte	0x6f
	.4byte	0x0
	.4byte	0x0
.LLST499:
	.4byte	.LFB3260
	.4byte	.LCFI476
	.2byte	0x1
	.byte	0x51
	.4byte	.LCFI476
	.4byte	.LFE3260
	.2byte	0x2
	.byte	0x71
	.sleb128 32
	.4byte	0x0
	.4byte	0x0
.LLST500:
	.4byte	.LVL692
	.4byte	.LVL697
	.2byte	0x1
	.byte	0x53
	.4byte	.LVL697
	.4byte	.LVL699
	.2byte	0x1
	.byte	0x6c
	.4byte	.LVL699
	.4byte	.LVL700
	.2byte	0x1
	.byte	0x53
	.4byte	.LVL700
	.4byte	.LVL719
	.2byte	0x1
	.byte	0x6c
	.4byte	.LVL720
	.4byte	.LFE3260
	.2byte	0x1
	.byte	0x6c
	.4byte	0x0
	.4byte	0x0
.LLST501:
	.4byte	.LVL693
	.4byte	.LVL694
	.2byte	0x1
	.byte	0x5b
	.4byte	.LVL694
	.4byte	.LVL695
	.2byte	0x1
	.byte	0x6f
	.4byte	.LVL695
	.4byte	.LVL696
	.2byte	0x1
	.byte	0x5b
	.4byte	.LVL696
	.4byte	.LVL698
	.2byte	0x1
	.byte	0x6f
	.4byte	.LVL698
	.4byte	.LVL701
	.2byte	0x1
	.byte	0x5b
	.4byte	.LVL701
	.4byte	.LVL701
	.2byte	0x1
	.byte	0x6f
	.4byte	.LVL701
	.4byte	.LVL702
	.2byte	0x1
	.byte	0x5b
	.4byte	.LVL702
	.4byte	.LVL705
	.2byte	0x1
	.byte	0x6f
	.4byte	.LVL720
	.4byte	.LVL722
	.2byte	0x1
	.byte	0x6f
	.4byte	.LVL725
	.4byte	.LVL728
	.2byte	0x1
	.byte	0x6f
	.4byte	.LVL730
	.4byte	.LVL733
	.2byte	0x1
	.byte	0x6f
	.4byte	.LVL734
	.4byte	.LVL735
	.2byte	0x1
	.byte	0x6f
	.4byte	.LVL736
	.4byte	.LVL737
	.2byte	0x1
	.byte	0x6f
	.4byte	.LVL751
	.4byte	.LFE3260
	.2byte	0x1
	.byte	0x6f
	.4byte	0x0
	.4byte	0x0
.LLST502:
	.4byte	.LVL703
	.4byte	.LVL704
	.2byte	0x1
	.byte	0x50
	.4byte	.LVL705
	.4byte	.LVL706
	.2byte	0x1
	.byte	0x50
	.4byte	.LVL706
	.4byte	.LVL707
	.2byte	0x1
	.byte	0x50
	.4byte	.LVL708
	.4byte	.LVL709
	.2byte	0x1
	.byte	0x50
	.4byte	0x0
	.4byte	0x0
.LLST503:
	.4byte	.LVL710
	.4byte	.LVL711
	.2byte	0x1
	.byte	0x59
	.4byte	.LVL711
	.4byte	.LVL712
	.2byte	0x1
	.byte	0x6f
	.4byte	.LVL712
	.4byte	.LVL713
	.2byte	0x1
	.byte	0x59
	.4byte	.LVL713
	.4byte	.LVL714
	.2byte	0x1
	.byte	0x6f
	.4byte	.LVL714
	.4byte	.LVL715
	.2byte	0x1
	.byte	0x59
	.4byte	.LVL715
	.4byte	.LVL717
	.2byte	0x1
	.byte	0x6f
	.4byte	.LVL732
	.4byte	.LVL733
	.2byte	0x1
	.byte	0x6f
	.4byte	.LVL749
	.4byte	.LVL750
	.2byte	0x1
	.byte	0x6f
	.4byte	0x0
	.4byte	0x0
.LLST504:
	.4byte	.LVL717
	.4byte	.LVL718
	.2byte	0x1
	.byte	0x6f
	.4byte	.LVL739
	.4byte	.LVL740
	.2byte	0x1
	.byte	0x6f
	.4byte	.LVL744
	.4byte	.LVL745
	.2byte	0x1
	.byte	0x6f
	.4byte	.LVL746
	.4byte	.LVL747
	.2byte	0x1
	.byte	0x6f
	.4byte	.LVL748
	.4byte	.LVL749
	.2byte	0x1
	.byte	0x6f
	.4byte	0x0
	.4byte	0x0
.LLST505:
	.4byte	.LVL721
	.4byte	.LVL723
	.2byte	0x1
	.byte	0x50
	.4byte	.LVL723
	.4byte	.LVL724
	.2byte	0x1
	.byte	0x50
	.4byte	.LVL725
	.4byte	.LVL726
	.2byte	0x1
	.byte	0x50
	.4byte	0x0
	.4byte	0x0
.LLST506:
	.4byte	.LVL727
	.4byte	.LVL728
	.2byte	0x1
	.byte	0x53
	.4byte	.LVL728
	.4byte	.LVL729
	.2byte	0x1
	.byte	0x6f
	.4byte	.LVL729
	.4byte	.LVL731
	.2byte	0x1
	.byte	0x53
	.4byte	.LVL731
	.4byte	.LVL733
	.2byte	0x1
	.byte	0x6f
	.4byte	0x0
	.4byte	0x0
.LLST507:
	.4byte	.LVL733
	.4byte	.LVL734
	.2byte	0x1
	.byte	0x6f
	.4byte	.LVL738
	.4byte	.LVL740
	.2byte	0x1
	.byte	0x6f
	.4byte	.LVL741
	.4byte	.LVL742
	.2byte	0x1
	.byte	0x6f
	.4byte	.LVL743
	.4byte	.LVL747
	.2byte	0x1
	.byte	0x6f
	.4byte	0x0
	.4byte	0x0
.LLST508:
	.4byte	.LFB3257
	.4byte	.LCFI484
	.2byte	0x1
	.byte	0x51
	.4byte	.LCFI484
	.4byte	.LFE3257
	.2byte	0x2
	.byte	0x71
	.sleb128 8
	.4byte	0x0
	.4byte	0x0
	.file 18 "<built-in>"
	.file 19 "c:\\utils\\devkitpro\\devkitppc\\bin\\../lib/gcc/powerpc-gekko/4.2.4/include/stddef.h"
	.file 20 "c:\\utils\\devkitpro\\devkitppc\\bin\\../lib/gcc/powerpc-gekko/4.2.4/../../../../powerpc-gekko/include/sys/types.h"
	.file 21 "d:/Data/Nintendo/DoomGX/src/game/../idlib/../sys/sys_public.h"
	.file 22 "d:/Data/Nintendo/DoomGX/src/game/../idlib/../framework/Common.h"
	.file 23 "d:/Data/Nintendo/DoomGX/src/game/../idlib/../framework/CVarSystem.h"
	.file 24 "d:/Data/Nintendo/DoomGX/src/game/../idlib/../framework/FileSystem.h"
	.file 25 "d:/Data/Nintendo/DoomGX/src/game/../idlib/../idlib/Lib.h"
	.file 26 "d:/Data/Nintendo/DoomGX/src/game/../idlib/../idlib/math/Math.h"
	.file 27 "d:/Data/Nintendo/DoomGX/src/game/../idlib/../idlib/math/Angles.h"
	.file 28 "d:/Data/Nintendo/DoomGX/src/game/../idlib/../idlib/math/Matrix.h"
	.file 29 "d:/Data/Nintendo/DoomGX/src/game/../idlib/../idlib/math/Quat.h"
	.file 30 "d:/Data/Nintendo/DoomGX/src/game/../idlib/../idlib/math/Rotation.h"
	.file 31 "d:/Data/Nintendo/DoomGX/src/game/../idlib/../idlib/math/Plane.h"
	.file 32 "d:/Data/Nintendo/DoomGX/src/game/../idlib/../idlib/bv/Sphere.h"
	.file 33 "d:/Data/Nintendo/DoomGX/src/game/../idlib/../idlib/bv/Bounds.h"
	.file 34 "d:/Data/Nintendo/DoomGX/src/game/../idlib/../idlib/bv/Box.h"
	.file 35 "d:/Data/Nintendo/DoomGX/src/game/../idlib/../idlib/bv/Frustum.h"
	.file 36 "d:/Data/Nintendo/DoomGX/src/game/../idlib/../idlib/geometry/DrawVert.h"
	.file 37 "d:/Data/Nintendo/DoomGX/src/game/../idlib/../idlib/geometry/JointTransform.h"
	.file 38 "d:/Data/Nintendo/DoomGX/src/game/../idlib/../idlib/geometry/TraceModel.h"
	.file 39 "d:/Data/Nintendo/DoomGX/src/game/../idlib/../idlib/Token.h"
	.file 40 "d:/Data/Nintendo/DoomGX/src/game/../idlib/../idlib/Lexer.h"
	.file 41 "d:/Data/Nintendo/DoomGX/src/game/../idlib/../idlib/Parser.h"
	.file 42 "d:/Data/Nintendo/DoomGX/src/game/../idlib/../idlib/containers/StrList.h"
	.file 43 "d:/Data/Nintendo/DoomGX/src/game/../idlib/../idlib/containers/StrPool.h"
	.file 44 "d:/Data/Nintendo/DoomGX/src/game/../idlib/../idlib/containers/PlaneSet.h"
	.file 45 "d:/Data/Nintendo/DoomGX/src/game/../idlib/../idlib/LangDict.h"
	.file 46 "d:/Data/Nintendo/DoomGX/src/game/../idlib/../idlib/BitMsg.h"
	.file 47 "d:/Data/Nintendo/DoomGX/src/game/../idlib/../idlib/MapFile.h"
	.file 48 "d:/Data/Nintendo/DoomGX/src/game/../idlib/../framework/CmdSystem.h"
	.file 49 "d:/Data/Nintendo/DoomGX/src/game/../idlib/../framework/UsercmdGen.h"
	.file 50 "d:/Data/Nintendo/DoomGX/src/game/../idlib/../framework/DeclManager.h"
	.file 51 "d:/Data/Nintendo/DoomGX/src/game/../idlib/../framework/DeclParticle.h"
	.file 52 "d:/Data/Nintendo/DoomGX/src/game/../idlib/../renderer/RenderWorld.h"
	.file 53 "d:/Data/Nintendo/DoomGX/src/game/../idlib/../renderer/Cinematic.h"
	.file 54 "d:/Data/Nintendo/DoomGX/src/game/../idlib/../renderer/Model.h"
	.file 55 "d:/Data/Nintendo/DoomGX/src/game/../idlib/../renderer/RenderSystem.h"
	.file 56 "d:/Data/Nintendo/DoomGX/src/game/../idlib/../sound/sound.h"
	.file 57 "d:/Data/Nintendo/DoomGX/src/game/../idlib/../ui/UserInterface.h"
	.file 58 "d:/Data/Nintendo/DoomGX/src/game/../idlib/../cm/CollisionModel.h"
	.file 59 "d:/Data/Nintendo/DoomGX/src/game/../idlib/../tools/compilers/aas/AASFile.h"
	.file 60 "d:/Data/Nintendo/DoomGX/src/game/../idlib/../renderer/ModelManager.h"
	.file 61 "d:/Data/Nintendo/DoomGX/src/game/../idlib/../tools/compilers/aas/AASFileManager.h"
	.file 62 "d:/Data/Nintendo/DoomGX/src/game/../idlib/../framework/async/MsgChannel.h"
	.file 63 "d:/Data/Nintendo/DoomGX/src/game/../idlib/../framework/async/AsyncServer.h"
	.file 64 "d:/Data/Nintendo/DoomGX/src/game/../idlib/../framework/async/ServerScan.h"
	.file 65 "d:/Data/Nintendo/DoomGX/src/game/../idlib/../ui/ListGUI.h"
	.file 66 "d:/Data/Nintendo/DoomGX/src/game/../idlib/../framework/async/AsyncClient.h"
	.file 67 "d:/Data/Nintendo/DoomGX/src/game/gamesys/Event.h"
	.file 68 "d:/Data/Nintendo/DoomGX/src/game/gamesys/Class.h"
	.file 69 "d:/Data/Nintendo/DoomGX/src/game/gamesys/SaveGame.h"
	.file 70 "d:/Data/Nintendo/DoomGX/src/game/Entity.h"
	.file 71 "d:/Data/Nintendo/DoomGX/src/game/../idlib/../idlib/containers/Hierarchy.h"
	.file 72 "d:/Data/Nintendo/DoomGX/src/game/script/Script_Program.h"
	.file 73 "d:/Data/Nintendo/DoomGX/src/game/anim/Anim.h"
	.file 74 "d:/Data/Nintendo/DoomGX/src/game/../idlib/../idlib/containers/HashTable.h"
	.file 75 "d:/Data/Nintendo/DoomGX/src/game/ai/AAS.h"
	.file 76 "d:/Data/Nintendo/DoomGX/src/game/physics/Push.h"
	.file 77 "d:/Data/Nintendo/DoomGX/src/game/Pvs.h"
	.file 78 "d:/Data/Nintendo/DoomGX/src/game/SmokeParticles.h"
	.file 79 "d:/Data/Nintendo/DoomGX/src/game/GameEdit.h"
	.file 80 "d:/Data/Nintendo/DoomGX/src/game/script/Script_Thread.h"
	.file 81 "d:/Data/Nintendo/DoomGX/src/game/../idlib/../idlib/math/Simd.h"
	.file 82 "d:/Data/Nintendo/DoomGX/src/game/../idlib/../framework/BuildVersion.h"
	.file 83 "d:/Data/Nintendo/DoomGX/src/game/../idlib/precompiled.h"
	.file 84 "d:/Data/Nintendo/DoomGX/src/game/../idlib/../renderer/Material.h"
	.file 85 "d:/Data/Nintendo/DoomGX/src/game/../idlib/../framework/EventLoop.h"
	.file 86 "d:/Data/Nintendo/DoomGX/src/game/../idlib/../framework/EditField.h"
	.file 87 "d:/Data/Nintendo/DoomGX/src/game/../idlib/../framework/Session.h"
	.file 88 "d:/Data/Nintendo/DoomGX/src/game/../idlib/../framework/async/AsyncNetwork.h"
	.file 89 "d:/Data/Nintendo/DoomGX/src/game/AFEntity.h"
	.file 90 "d:/Data/Nintendo/DoomGX/src/game/Weapon.h"
	.file 91 "d:/Data/Nintendo/DoomGX/src/game/ai/AI.h"
	.file 92 "d:/Data/Nintendo/DoomGX/src/game/script/Script_Compiler.h"
	.file 93 "d:/Data/Nintendo/DoomGX/src/game/../idlib/../idlib/Timer.h"
	.file 94 "d:/Data/Nintendo/DoomGX/src/game/IK.h"
	.section	.debug_info
	.4byte	0x35101
	.2byte	0x2
	.4byte	.Ldebug_abbrev0
	.byte	0x4
	.uleb128 0x1
	.4byte	.LASF8268
	.byte	0x4
	.4byte	.LASF8269
	.4byte	.LASF8270
	.4byte	0x0
	.4byte	.Ldebug_line0
	.uleb128 0x2
	.4byte	.LASF13
	.byte	0x13
	.byte	0xd6
	.4byte	0x2c
	.uleb128 0x3
	.byte	0x4
	.byte	0x7
	.4byte	.LASF3
	.uleb128 0x4
	.byte	0x4
	.byte	0x7
	.uleb128 0x5
	.4byte	.LASF40
	.byte	0xc
	.byte	0x12
	.byte	0x0
	.4byte	0x89
	.uleb128 0x6
	.string	"gpr"
	.byte	0x12
	.byte	0x0
	.4byte	0x89
	.byte	0x2
	.byte	0x23
	.uleb128 0x0
	.uleb128 0x6
	.string	"fpr"
	.byte	0x12
	.byte	0x0
	.4byte	0x89
	.byte	0x2
	.byte	0x23
	.uleb128 0x1
	.uleb128 0x7
	.4byte	.LASF0
	.byte	0x12
	.byte	0x0
	.4byte	0x90
	.byte	0x2
	.byte	0x23
	.uleb128 0x2
	.uleb128 0x7
	.4byte	.LASF1
	.byte	0x12
	.byte	0x0
	.4byte	0x97
	.byte	0x2
	.byte	0x23
	.uleb128 0x4
	.uleb128 0x7
	.4byte	.LASF2
	.byte	0x12
	.byte	0x0
	.4byte	0x97
	.byte	0x2
	.byte	0x23
	.uleb128 0x8
	.byte	0x0
	.uleb128 0x3
	.byte	0x1
	.byte	0x8
	.4byte	.LASF4
	.uleb128 0x3
	.byte	0x2
	.byte	0x7
	.4byte	.LASF5
	.uleb128 0x8
	.byte	0x4
	.uleb128 0x3
	.byte	0x1
	.byte	0x6
	.4byte	.LASF6
	.uleb128 0x3
	.byte	0x2
	.byte	0x5
	.4byte	.LASF7
	.uleb128 0x9
	.byte	0x4
	.byte	0x5
	.string	"int"
	.uleb128 0x3
	.byte	0x8
	.byte	0x5
	.4byte	.LASF8
	.uleb128 0x3
	.byte	0x8
	.byte	0x7
	.4byte	.LASF9
	.uleb128 0xa
	.4byte	0x89
	.4byte	0xcc
	.uleb128 0xb
	.4byte	0x33
	.byte	0x3
	.byte	0x0
	.uleb128 0x3
	.byte	0x4
	.byte	0x7
	.4byte	.LASF10
	.uleb128 0xc
	.byte	0x4
	.4byte	0x89
	.uleb128 0xc
	.byte	0x4
	.4byte	0xdf
	.uleb128 0x3
	.byte	0x1
	.byte	0x8
	.4byte	.LASF11
	.uleb128 0xc
	.byte	0x4
	.4byte	0xec
	.uleb128 0xd
	.4byte	0xdf
	.uleb128 0x3
	.byte	0x4
	.byte	0x5
	.4byte	.LASF12
	.uleb128 0x2
	.4byte	.LASF14
	.byte	0x14
	.byte	0x6d
	.4byte	0xf1
	.uleb128 0x3
	.byte	0x8
	.byte	0x4
	.4byte	.LASF15
	.uleb128 0x3
	.byte	0x4
	.byte	0x4
	.4byte	.LASF16
	.uleb128 0x3
	.byte	0x8
	.byte	0x4
	.4byte	.LASF17
	.uleb128 0xe
	.string	"._9"
	.byte	0x4
	.byte	0x15
	.byte	0xad
	.4byte	0x18a
	.uleb128 0xf
	.4byte	.LASF18
	.sleb128 0
	.uleb128 0xf
	.4byte	.LASF19
	.sleb128 1
	.uleb128 0xf
	.4byte	.LASF20
	.sleb128 2
	.uleb128 0xf
	.4byte	.LASF21
	.sleb128 4
	.uleb128 0xf
	.4byte	.LASF22
	.sleb128 8
	.uleb128 0xf
	.4byte	.LASF23
	.sleb128 16
	.uleb128 0xf
	.4byte	.LASF24
	.sleb128 32
	.uleb128 0xf
	.4byte	.LASF25
	.sleb128 64
	.uleb128 0xf
	.4byte	.LASF26
	.sleb128 128
	.uleb128 0xf
	.4byte	.LASF27
	.sleb128 256
	.uleb128 0xf
	.4byte	.LASF28
	.sleb128 512
	.uleb128 0xf
	.4byte	.LASF29
	.sleb128 4096
	.uleb128 0xf
	.4byte	.LASF30
	.sleb128 8192
	.uleb128 0xf
	.4byte	.LASF31
	.sleb128 16384
	.uleb128 0xf
	.4byte	.LASF32
	.sleb128 32768
	.byte	0x0
	.uleb128 0x10
	.4byte	.LASF33
	.byte	0x4
	.byte	0x15
	.byte	0xdf
	.4byte	0x1bb
	.uleb128 0xf
	.4byte	.LASF34
	.sleb128 0
	.uleb128 0xf
	.4byte	.LASF35
	.sleb128 1
	.uleb128 0xf
	.4byte	.LASF36
	.sleb128 2
	.uleb128 0xf
	.4byte	.LASF37
	.sleb128 3
	.uleb128 0xf
	.4byte	.LASF38
	.sleb128 4
	.uleb128 0xf
	.4byte	.LASF39
	.sleb128 5
	.byte	0x0
	.uleb128 0x11
	.4byte	.LASF41
	.byte	0x18
	.byte	0x15
	.2byte	0x101
	.4byte	0x223
	.uleb128 0x12
	.4byte	.LASF42
	.byte	0x15
	.2byte	0x102
	.4byte	0xa7
	.byte	0x2
	.byte	0x23
	.uleb128 0x0
	.uleb128 0x12
	.4byte	.LASF43
	.byte	0x15
	.2byte	0x103
	.4byte	0x18a
	.byte	0x2
	.byte	0x23
	.uleb128 0x4
	.uleb128 0x12
	.4byte	.LASF44
	.byte	0x15
	.2byte	0x104
	.4byte	0xa7
	.byte	0x2
	.byte	0x23
	.uleb128 0x8
	.uleb128 0x12
	.4byte	.LASF45
	.byte	0x15
	.2byte	0x105
	.4byte	0xa7
	.byte	0x2
	.byte	0x23
	.uleb128 0xc
	.uleb128 0x12
	.4byte	.LASF46
	.byte	0x15
	.2byte	0x106
	.4byte	0xa7
	.byte	0x2
	.byte	0x23
	.uleb128 0x10
	.uleb128 0x12
	.4byte	.LASF47
	.byte	0x15
	.2byte	0x107
	.4byte	0x97
	.byte	0x2
	.byte	0x23
	.uleb128 0x14
	.byte	0x0
	.uleb128 0x13
	.4byte	.LASF48
	.byte	0x4
	.byte	0x15
	.2byte	0x1bb
	.4byte	0x249
	.uleb128 0xf
	.4byte	.LASF49
	.sleb128 0
	.uleb128 0xf
	.4byte	.LASF50
	.sleb128 1
	.uleb128 0xf
	.4byte	.LASF51
	.sleb128 2
	.uleb128 0xf
	.4byte	.LASF52
	.sleb128 3
	.byte	0x0
	.uleb128 0x11
	.4byte	.LASF53
	.byte	0xc
	.byte	0x15
	.2byte	0x1c2
	.4byte	0x283
	.uleb128 0x12
	.4byte	.LASF54
	.byte	0x15
	.2byte	0x1c3
	.4byte	0x223
	.byte	0x2
	.byte	0x23
	.uleb128 0x0
	.uleb128 0x14
	.string	"ip"
	.byte	0x15
	.2byte	0x1c4
	.4byte	0xbc
	.byte	0x2
	.byte	0x23
	.uleb128 0x4
	.uleb128 0x12
	.4byte	.LASF55
	.byte	0x15
	.2byte	0x1c5
	.4byte	0x90
	.byte	0x2
	.byte	0x23
	.uleb128 0x8
	.byte	0x0
	.uleb128 0x15
	.4byte	.LASF1842
	.byte	0x1
	.uleb128 0xc
	.byte	0x4
	.4byte	0x283
	.uleb128 0x16
	.4byte	.LASF114
	.byte	0x4
	.byte	0x16
	.byte	0x70
	.4byte	0x28f
	.4byte	0x721
	.uleb128 0x17
	.4byte	.LASF116
	.4byte	0x2d038
	.byte	0x2
	.byte	0x23
	.uleb128 0x0
	.byte	0x1
	.uleb128 0x18
	.byte	0x1
	.4byte	.LASF118
	.byte	0x16
	.byte	0x72
	.byte	0x1
	.4byte	0x28f
	.byte	0x1
	.4byte	0x2cb
	.uleb128 0x19
	.4byte	0x721
	.byte	0x1
	.uleb128 0x19
	.4byte	0xa7
	.byte	0x1
	.byte	0x0
	.uleb128 0x1a
	.byte	0x1
	.4byte	.LASF56
	.byte	0x16
	.byte	0x77
	.4byte	.LASF58
	.byte	0x1
	.byte	0x2
	.byte	0x10
	.uleb128 0x2
	.4byte	0x28f
	.byte	0x1
	.4byte	0x2fa
	.uleb128 0x19
	.4byte	0x721
	.byte	0x1
	.uleb128 0x1b
	.4byte	0xa7
	.uleb128 0x1b
	.4byte	0xe2a6
	.uleb128 0x1b
	.4byte	0xe6
	.byte	0x0
	.uleb128 0x1a
	.byte	0x1
	.4byte	.LASF57
	.byte	0x16
	.byte	0x7a
	.4byte	.LASF59
	.byte	0x1
	.byte	0x2
	.byte	0x10
	.uleb128 0x3
	.4byte	0x28f
	.byte	0x1
	.4byte	0x31a
	.uleb128 0x19
	.4byte	0x721
	.byte	0x1
	.byte	0x0
	.uleb128 0x1a
	.byte	0x1
	.4byte	.LASF60
	.byte	0x16
	.byte	0x7d
	.4byte	.LASF61
	.byte	0x1
	.byte	0x2
	.byte	0x10
	.uleb128 0x4
	.4byte	0x28f
	.byte	0x1
	.4byte	0x33a
	.uleb128 0x19
	.4byte	0x721
	.byte	0x1
	.byte	0x0
	.uleb128 0x1c
	.byte	0x1
	.4byte	.LASF102
	.byte	0x16
	.byte	0x80
	.4byte	.LASF104
	.4byte	0x13b9
	.byte	0x1
	.byte	0x2
	.byte	0x10
	.uleb128 0x5
	.4byte	0x28f
	.byte	0x1
	.4byte	0x35e
	.uleb128 0x19
	.4byte	0x2df92
	.byte	0x1
	.byte	0x0
	.uleb128 0x1a
	.byte	0x1
	.4byte	.LASF62
	.byte	0x16
	.byte	0x83
	.4byte	.LASF63
	.byte	0x1
	.byte	0x2
	.byte	0x10
	.uleb128 0x6
	.4byte	0x28f
	.byte	0x1
	.4byte	0x37e
	.uleb128 0x19
	.4byte	0x721
	.byte	0x1
	.byte	0x0
	.uleb128 0x1a
	.byte	0x1
	.4byte	.LASF64
	.byte	0x16
	.byte	0x86
	.4byte	.LASF65
	.byte	0x1
	.byte	0x2
	.byte	0x10
	.uleb128 0x7
	.4byte	0x28f
	.byte	0x1
	.4byte	0x3a8
	.uleb128 0x19
	.4byte	0x721
	.byte	0x1
	.uleb128 0x1b
	.4byte	0x13b9
	.uleb128 0x1b
	.4byte	0x13b9
	.byte	0x0
	.uleb128 0x1a
	.byte	0x1
	.4byte	.LASF66
	.byte	0x16
	.byte	0x8a
	.4byte	.LASF67
	.byte	0x1
	.byte	0x2
	.byte	0x10
	.uleb128 0x8
	.4byte	0x28f
	.byte	0x1
	.4byte	0x3c8
	.uleb128 0x19
	.4byte	0x721
	.byte	0x1
	.byte	0x0
	.uleb128 0x1a
	.byte	0x1
	.4byte	.LASF68
	.byte	0x16
	.byte	0x90
	.4byte	.LASF69
	.byte	0x1
	.byte	0x2
	.byte	0x10
	.uleb128 0x9
	.4byte	0x28f
	.byte	0x1
	.4byte	0x3f2
	.uleb128 0x19
	.4byte	0x721
	.byte	0x1
	.uleb128 0x1b
	.4byte	0xe6
	.uleb128 0x1b
	.4byte	0x13b9
	.byte	0x0
	.uleb128 0x1a
	.byte	0x1
	.4byte	.LASF70
	.byte	0x16
	.byte	0x93
	.4byte	.LASF71
	.byte	0x1
	.byte	0x2
	.byte	0x10
	.uleb128 0xa
	.4byte	0x28f
	.byte	0x1
	.4byte	0x41c
	.uleb128 0x19
	.4byte	0x721
	.byte	0x1
	.uleb128 0x1b
	.4byte	0x12f82
	.uleb128 0x1b
	.4byte	0x1064c
	.byte	0x0
	.uleb128 0x1a
	.byte	0x1
	.4byte	.LASF72
	.byte	0x16
	.byte	0x96
	.4byte	.LASF73
	.byte	0x1
	.byte	0x2
	.byte	0x10
	.uleb128 0xb
	.4byte	0x28f
	.byte	0x1
	.4byte	0x441
	.uleb128 0x19
	.4byte	0x721
	.byte	0x1
	.uleb128 0x1b
	.4byte	0x13b9
	.byte	0x0
	.uleb128 0x1a
	.byte	0x1
	.4byte	.LASF74
	.byte	0x16
	.byte	0x99
	.4byte	.LASF75
	.byte	0x1
	.byte	0x2
	.byte	0x10
	.uleb128 0xc
	.4byte	0x28f
	.byte	0x1
	.4byte	0x466
	.uleb128 0x19
	.4byte	0x721
	.byte	0x1
	.uleb128 0x1b
	.4byte	0xe6
	.byte	0x0
	.uleb128 0x1a
	.byte	0x1
	.4byte	.LASF76
	.byte	0x16
	.byte	0x9c
	.4byte	.LASF77
	.byte	0x1
	.byte	0x2
	.byte	0x10
	.uleb128 0xd
	.4byte	0x28f
	.byte	0x1
	.4byte	0x495
	.uleb128 0x19
	.4byte	0x721
	.byte	0x1
	.uleb128 0x1b
	.4byte	0xe6
	.uleb128 0x1b
	.4byte	0xa7
	.uleb128 0x1b
	.4byte	0xe6
	.byte	0x0
	.uleb128 0x1a
	.byte	0x1
	.4byte	.LASF78
	.byte	0x16
	.byte	0x9f
	.4byte	.LASF79
	.byte	0x1
	.byte	0x2
	.byte	0x10
	.uleb128 0xe
	.4byte	0x28f
	.byte	0x1
	.4byte	0x4c4
	.uleb128 0x19
	.4byte	0x721
	.byte	0x1
	.uleb128 0x1b
	.4byte	0xd9
	.uleb128 0x1b
	.4byte	0xa7
	.uleb128 0x1b
	.4byte	0x12f71
	.byte	0x0
	.uleb128 0x1a
	.byte	0x1
	.4byte	.LASF80
	.byte	0x16
	.byte	0xa2
	.4byte	.LASF81
	.byte	0x1
	.byte	0x2
	.byte	0x10
	.uleb128 0xf
	.4byte	0x28f
	.byte	0x1
	.4byte	0x4e4
	.uleb128 0x19
	.4byte	0x721
	.byte	0x1
	.byte	0x0
	.uleb128 0x1a
	.byte	0x1
	.4byte	.LASF82
	.byte	0x16
	.byte	0xa5
	.4byte	.LASF83
	.byte	0x1
	.byte	0x2
	.byte	0x10
	.uleb128 0x10
	.4byte	0x28f
	.byte	0x1
	.4byte	0x509
	.uleb128 0x19
	.4byte	0x721
	.byte	0x1
	.uleb128 0x1b
	.4byte	0x13b9
	.byte	0x0
	.uleb128 0x1a
	.byte	0x1
	.4byte	.LASF84
	.byte	0x16
	.byte	0xa8
	.4byte	.LASF85
	.byte	0x1
	.byte	0x2
	.byte	0x10
	.uleb128 0x11
	.4byte	0x28f
	.byte	0x1
	.4byte	0x52f
	.uleb128 0x19
	.4byte	0x721
	.byte	0x1
	.uleb128 0x1b
	.4byte	0xe6
	.uleb128 0x1d
	.byte	0x0
	.uleb128 0x1a
	.byte	0x1
	.4byte	.LASF86
	.byte	0x16
	.byte	0xab
	.4byte	.LASF87
	.byte	0x1
	.byte	0x2
	.byte	0x10
	.uleb128 0x12
	.4byte	0x28f
	.byte	0x1
	.4byte	0x559
	.uleb128 0x19
	.4byte	0x721
	.byte	0x1
	.uleb128 0x1b
	.4byte	0xe6
	.uleb128 0x1b
	.4byte	0xc88f
	.byte	0x0
	.uleb128 0x1a
	.byte	0x1
	.4byte	.LASF88
	.byte	0x16
	.byte	0xaf
	.4byte	.LASF89
	.byte	0x1
	.byte	0x2
	.byte	0x10
	.uleb128 0x13
	.4byte	0x28f
	.byte	0x1
	.4byte	0x57f
	.uleb128 0x19
	.4byte	0x721
	.byte	0x1
	.uleb128 0x1b
	.4byte	0xe6
	.uleb128 0x1d
	.byte	0x0
	.uleb128 0x1a
	.byte	0x1
	.4byte	.LASF90
	.byte	0x16
	.byte	0xb2
	.4byte	.LASF91
	.byte	0x1
	.byte	0x2
	.byte	0x10
	.uleb128 0x14
	.4byte	0x28f
	.byte	0x1
	.4byte	0x5a5
	.uleb128 0x19
	.4byte	0x721
	.byte	0x1
	.uleb128 0x1b
	.4byte	0xe6
	.uleb128 0x1d
	.byte	0x0
	.uleb128 0x1a
	.byte	0x1
	.4byte	.LASF92
	.byte	0x16
	.byte	0xb5
	.4byte	.LASF93
	.byte	0x1
	.byte	0x2
	.byte	0x10
	.uleb128 0x15
	.4byte	0x28f
	.byte	0x1
	.4byte	0x5cb
	.uleb128 0x19
	.4byte	0x721
	.byte	0x1
	.uleb128 0x1b
	.4byte	0xe6
	.uleb128 0x1d
	.byte	0x0
	.uleb128 0x1a
	.byte	0x1
	.4byte	.LASF94
	.byte	0x16
	.byte	0xb8
	.4byte	.LASF95
	.byte	0x1
	.byte	0x2
	.byte	0x10
	.uleb128 0x16
	.4byte	0x28f
	.byte	0x1
	.4byte	0x5eb
	.uleb128 0x19
	.4byte	0x721
	.byte	0x1
	.byte	0x0
	.uleb128 0x1a
	.byte	0x1
	.4byte	.LASF96
	.byte	0x16
	.byte	0xbb
	.4byte	.LASF97
	.byte	0x1
	.byte	0x2
	.byte	0x10
	.uleb128 0x17
	.4byte	0x28f
	.byte	0x1
	.4byte	0x610
	.uleb128 0x19
	.4byte	0x721
	.byte	0x1
	.uleb128 0x1b
	.4byte	0xe6
	.byte	0x0
	.uleb128 0x1a
	.byte	0x1
	.4byte	.LASF98
	.byte	0x16
	.byte	0xbf
	.4byte	.LASF99
	.byte	0x1
	.byte	0x2
	.byte	0x10
	.uleb128 0x18
	.4byte	0x28f
	.byte	0x1
	.4byte	0x636
	.uleb128 0x19
	.4byte	0x721
	.byte	0x1
	.uleb128 0x1b
	.4byte	0xe6
	.uleb128 0x1d
	.byte	0x0
	.uleb128 0x1a
	.byte	0x1
	.4byte	.LASF100
	.byte	0x16
	.byte	0xc3
	.4byte	.LASF101
	.byte	0x1
	.byte	0x2
	.byte	0x10
	.uleb128 0x19
	.4byte	0x28f
	.byte	0x1
	.4byte	0x65c
	.uleb128 0x19
	.4byte	0x721
	.byte	0x1
	.uleb128 0x1b
	.4byte	0xe6
	.uleb128 0x1d
	.byte	0x0
	.uleb128 0x1c
	.byte	0x1
	.4byte	.LASF103
	.byte	0x16
	.byte	0xc6
	.4byte	.LASF105
	.4byte	0x10daf
	.byte	0x1
	.byte	0x2
	.byte	0x10
	.uleb128 0x1a
	.4byte	0x28f
	.byte	0x1
	.4byte	0x680
	.uleb128 0x19
	.4byte	0x721
	.byte	0x1
	.byte	0x0
	.uleb128 0x1c
	.byte	0x1
	.4byte	.LASF106
	.byte	0x16
	.byte	0xc9
	.4byte	.LASF107
	.4byte	0xe6
	.byte	0x1
	.byte	0x2
	.byte	0x10
	.uleb128 0x1b
	.4byte	0x28f
	.byte	0x1
	.4byte	0x6a9
	.uleb128 0x19
	.4byte	0x721
	.byte	0x1
	.uleb128 0x1b
	.4byte	0xe6
	.byte	0x0
	.uleb128 0x1c
	.byte	0x1
	.4byte	.LASF108
	.byte	0x16
	.byte	0xcc
	.4byte	.LASF109
	.4byte	0xe6
	.byte	0x1
	.byte	0x2
	.byte	0x10
	.uleb128 0x1c
	.4byte	0x28f
	.byte	0x1
	.4byte	0x6d2
	.uleb128 0x19
	.4byte	0x721
	.byte	0x1
	.uleb128 0x1b
	.4byte	0xe6
	.byte	0x0
	.uleb128 0x1c
	.byte	0x1
	.4byte	.LASF110
	.byte	0x16
	.byte	0xcf
	.4byte	.LASF111
	.4byte	0xa7
	.byte	0x1
	.byte	0x2
	.byte	0x10
	.uleb128 0x1d
	.4byte	0x28f
	.byte	0x1
	.4byte	0x6fb
	.uleb128 0x19
	.4byte	0x721
	.byte	0x1
	.uleb128 0x1b
	.4byte	0xa7
	.byte	0x0
	.uleb128 0x1e
	.byte	0x1
	.4byte	.LASF112
	.byte	0x16
	.byte	0xd2
	.4byte	.LASF113
	.4byte	0xa7
	.byte	0x1
	.byte	0x2
	.byte	0x10
	.uleb128 0x1e
	.4byte	0x28f
	.byte	0x1
	.uleb128 0x19
	.4byte	0x721
	.byte	0x1
	.uleb128 0x1b
	.4byte	0xa7
	.byte	0x0
	.byte	0x0
	.uleb128 0xc
	.byte	0x4
	.4byte	0x28f
	.uleb128 0x16
	.4byte	.LASF115
	.byte	0x4
	.byte	0x17
	.byte	0xd0
	.4byte	0x727
	.4byte	0xb21
	.uleb128 0x17
	.4byte	.LASF117
	.4byte	0x2d038
	.byte	0x2
	.byte	0x23
	.uleb128 0x0
	.byte	0x1
	.uleb128 0x18
	.byte	0x1
	.4byte	.LASF119
	.byte	0x17
	.byte	0xd2
	.byte	0x1
	.4byte	0x727
	.byte	0x1
	.4byte	0x763
	.uleb128 0x19
	.4byte	0xb21
	.byte	0x1
	.uleb128 0x19
	.4byte	0xa7
	.byte	0x1
	.byte	0x0
	.uleb128 0x1a
	.byte	0x1
	.4byte	.LASF56
	.byte	0x17
	.byte	0xd4
	.4byte	.LASF120
	.byte	0x1
	.byte	0x2
	.byte	0x10
	.uleb128 0x2
	.4byte	0x727
	.byte	0x1
	.4byte	0x783
	.uleb128 0x19
	.4byte	0xb21
	.byte	0x1
	.byte	0x0
	.uleb128 0x1a
	.byte	0x1
	.4byte	.LASF57
	.byte	0x17
	.byte	0xd5
	.4byte	.LASF121
	.byte	0x1
	.byte	0x2
	.byte	0x10
	.uleb128 0x3
	.4byte	0x727
	.byte	0x1
	.4byte	0x7a3
	.uleb128 0x19
	.4byte	0xb21
	.byte	0x1
	.byte	0x0
	.uleb128 0x1c
	.byte	0x1
	.4byte	.LASF102
	.byte	0x17
	.byte	0xd6
	.4byte	.LASF122
	.4byte	0x13b9
	.byte	0x1
	.byte	0x2
	.byte	0x10
	.uleb128 0x4
	.4byte	0x727
	.byte	0x1
	.4byte	0x7c7
	.uleb128 0x19
	.4byte	0x2df9d
	.byte	0x1
	.byte	0x0
	.uleb128 0x1a
	.byte	0x1
	.4byte	.LASF123
	.byte	0x17
	.byte	0xd9
	.4byte	.LASF124
	.byte	0x1
	.byte	0x2
	.byte	0x10
	.uleb128 0x5
	.4byte	0x727
	.byte	0x1
	.4byte	0x7ec
	.uleb128 0x19
	.4byte	0xb21
	.byte	0x1
	.uleb128 0x1b
	.4byte	0x1dc8d
	.byte	0x0
	.uleb128 0x1c
	.byte	0x1
	.4byte	.LASF125
	.byte	0x17
	.byte	0xdd
	.4byte	.LASF126
	.4byte	0x1dc8d
	.byte	0x1
	.byte	0x2
	.byte	0x10
	.uleb128 0x6
	.4byte	0x727
	.byte	0x1
	.4byte	0x815
	.uleb128 0x19
	.4byte	0xb21
	.byte	0x1
	.uleb128 0x1b
	.4byte	0xe6
	.byte	0x0
	.uleb128 0x1a
	.byte	0x1
	.4byte	.LASF127
	.byte	0x17
	.byte	0xe0
	.4byte	.LASF128
	.byte	0x1
	.byte	0x2
	.byte	0x10
	.uleb128 0x7
	.4byte	0x727
	.byte	0x1
	.4byte	0x844
	.uleb128 0x19
	.4byte	0xb21
	.byte	0x1
	.uleb128 0x1b
	.4byte	0xe6
	.uleb128 0x1b
	.4byte	0xe6
	.uleb128 0x1b
	.4byte	0xa7
	.byte	0x0
	.uleb128 0x1a
	.byte	0x1
	.4byte	.LASF129
	.byte	0x17
	.byte	0xe1
	.4byte	.LASF130
	.byte	0x1
	.byte	0x2
	.byte	0x10
	.uleb128 0x8
	.4byte	0x727
	.byte	0x1
	.4byte	0x873
	.uleb128 0x19
	.4byte	0xb21
	.byte	0x1
	.uleb128 0x1b
	.4byte	0xe6
	.uleb128 0x1b
	.4byte	0x13b9
	.uleb128 0x1b
	.4byte	0xa7
	.byte	0x0
	.uleb128 0x1a
	.byte	0x1
	.4byte	.LASF131
	.byte	0x17
	.byte	0xe2
	.4byte	.LASF132
	.byte	0x1
	.byte	0x2
	.byte	0x10
	.uleb128 0x9
	.4byte	0x727
	.byte	0x1
	.4byte	0x8a2
	.uleb128 0x19
	.4byte	0xb21
	.byte	0x1
	.uleb128 0x1b
	.4byte	0xe6
	.uleb128 0x1b
	.4byte	0xa7
	.uleb128 0x1b
	.4byte	0xa7
	.byte	0x0
	.uleb128 0x1a
	.byte	0x1
	.4byte	.LASF133
	.byte	0x17
	.byte	0xe3
	.4byte	.LASF134
	.byte	0x1
	.byte	0x2
	.byte	0x10
	.uleb128 0xa
	.4byte	0x727
	.byte	0x1
	.4byte	0x8d1
	.uleb128 0x19
	.4byte	0xb21
	.byte	0x1
	.uleb128 0x1b
	.4byte	0xe6
	.uleb128 0x1b
	.4byte	0x10a
	.uleb128 0x1b
	.4byte	0xa7
	.byte	0x0
	.uleb128 0x1c
	.byte	0x1
	.4byte	.LASF135
	.byte	0x17
	.byte	0xe6
	.4byte	.LASF136
	.4byte	0xe6
	.byte	0x1
	.byte	0x2
	.byte	0x10
	.uleb128 0xb
	.4byte	0x727
	.byte	0x1
	.4byte	0x8fa
	.uleb128 0x19
	.4byte	0x2df9d
	.byte	0x1
	.uleb128 0x1b
	.4byte	0xe6
	.byte	0x0
	.uleb128 0x1c
	.byte	0x1
	.4byte	.LASF137
	.byte	0x17
	.byte	0xe7
	.4byte	.LASF138
	.4byte	0x13b9
	.byte	0x1
	.byte	0x2
	.byte	0x10
	.uleb128 0xc
	.4byte	0x727
	.byte	0x1
	.4byte	0x923
	.uleb128 0x19
	.4byte	0x2df9d
	.byte	0x1
	.uleb128 0x1b
	.4byte	0xe6
	.byte	0x0
	.uleb128 0x1c
	.byte	0x1
	.4byte	.LASF139
	.byte	0x17
	.byte	0xe8
	.4byte	.LASF140
	.4byte	0xa7
	.byte	0x1
	.byte	0x2
	.byte	0x10
	.uleb128 0xd
	.4byte	0x727
	.byte	0x1
	.4byte	0x94c
	.uleb128 0x19
	.4byte	0x2df9d
	.byte	0x1
	.uleb128 0x1b
	.4byte	0xe6
	.byte	0x0
	.uleb128 0x1c
	.byte	0x1
	.4byte	.LASF141
	.byte	0x17
	.byte	0xe9
	.4byte	.LASF142
	.4byte	0x10a
	.byte	0x1
	.byte	0x2
	.byte	0x10
	.uleb128 0xe
	.4byte	0x727
	.byte	0x1
	.4byte	0x975
	.uleb128 0x19
	.4byte	0x2df9d
	.byte	0x1
	.uleb128 0x1b
	.4byte	0xe6
	.byte	0x0
	.uleb128 0x1c
	.byte	0x1
	.4byte	.LASF143
	.byte	0x17
	.byte	0xed
	.4byte	.LASF144
	.4byte	0x13b9
	.byte	0x1
	.byte	0x2
	.byte	0x10
	.uleb128 0xf
	.4byte	0x727
	.byte	0x1
	.4byte	0x99e
	.uleb128 0x19
	.4byte	0xb21
	.byte	0x1
	.uleb128 0x1b
	.4byte	0x13c0
	.byte	0x0
	.uleb128 0x1a
	.byte	0x1
	.4byte	.LASF145
	.byte	0x17
	.byte	0xf0
	.4byte	.LASF146
	.byte	0x1
	.byte	0x2
	.byte	0x10
	.uleb128 0x10
	.4byte	0x727
	.byte	0x1
	.4byte	0x9c3
	.uleb128 0x19
	.4byte	0xb21
	.byte	0x1
	.uleb128 0x1b
	.4byte	0x12f71
	.byte	0x0
	.uleb128 0x1a
	.byte	0x1
	.4byte	.LASF147
	.byte	0x17
	.byte	0xf1
	.4byte	.LASF148
	.byte	0x1
	.byte	0x2
	.byte	0x10
	.uleb128 0x11
	.4byte	0x727
	.byte	0x1
	.4byte	0x9ed
	.uleb128 0x19
	.4byte	0xb21
	.byte	0x1
	.uleb128 0x1b
	.4byte	0xe6
	.uleb128 0x1b
	.4byte	0x12f71
	.byte	0x0
	.uleb128 0x1a
	.byte	0x1
	.4byte	.LASF149
	.byte	0x17
	.byte	0xf4
	.4byte	.LASF150
	.byte	0x1
	.byte	0x2
	.byte	0x10
	.uleb128 0x12
	.4byte	0x727
	.byte	0x1
	.4byte	0xa12
	.uleb128 0x19
	.4byte	0xb21
	.byte	0x1
	.uleb128 0x1b
	.4byte	0xa7
	.byte	0x0
	.uleb128 0x1c
	.byte	0x1
	.4byte	.LASF151
	.byte	0x17
	.byte	0xf5
	.4byte	.LASF152
	.4byte	0xa7
	.byte	0x1
	.byte	0x2
	.byte	0x10
	.uleb128 0x13
	.4byte	0x727
	.byte	0x1
	.4byte	0xa36
	.uleb128 0x19
	.4byte	0x2df9d
	.byte	0x1
	.byte	0x0
	.uleb128 0x1a
	.byte	0x1
	.4byte	.LASF153
	.byte	0x17
	.byte	0xf6
	.4byte	.LASF154
	.byte	0x1
	.byte	0x2
	.byte	0x10
	.uleb128 0x14
	.4byte	0x727
	.byte	0x1
	.4byte	0xa5b
	.uleb128 0x19
	.4byte	0xb21
	.byte	0x1
	.uleb128 0x1b
	.4byte	0xa7
	.byte	0x0
	.uleb128 0x1a
	.byte	0x1
	.4byte	.LASF155
	.byte	0x17
	.byte	0xf9
	.4byte	.LASF156
	.byte	0x1
	.byte	0x2
	.byte	0x10
	.uleb128 0x15
	.4byte	0x727
	.byte	0x1
	.4byte	0xa80
	.uleb128 0x19
	.4byte	0xb21
	.byte	0x1
	.uleb128 0x1b
	.4byte	0xa7
	.byte	0x0
	.uleb128 0x1a
	.byte	0x1
	.4byte	.LASF157
	.byte	0x17
	.byte	0xfc
	.4byte	.LASF158
	.byte	0x1
	.byte	0x2
	.byte	0x10
	.uleb128 0x16
	.4byte	0x727
	.byte	0x1
	.4byte	0xaa5
	.uleb128 0x19
	.4byte	0xb21
	.byte	0x1
	.uleb128 0x1b
	.4byte	0xa7
	.byte	0x0
	.uleb128 0x1a
	.byte	0x1
	.4byte	.LASF159
	.byte	0x17
	.byte	0xff
	.4byte	.LASF160
	.byte	0x1
	.byte	0x2
	.byte	0x10
	.uleb128 0x17
	.4byte	0x727
	.byte	0x1
	.4byte	0xad4
	.uleb128 0x19
	.4byte	0x2df9d
	.byte	0x1
	.uleb128 0x1b
	.4byte	0xa7
	.uleb128 0x1b
	.4byte	0xe6
	.uleb128 0x1b
	.4byte	0xe26d
	.byte	0x0
	.uleb128 0x1f
	.byte	0x1
	.4byte	.LASF161
	.byte	0x17
	.2byte	0x102
	.4byte	.LASF241
	.4byte	0x1064c
	.byte	0x1
	.byte	0x2
	.byte	0x10
	.uleb128 0x18
	.4byte	0x727
	.byte	0x1
	.4byte	0xafe
	.uleb128 0x19
	.4byte	0x2df9d
	.byte	0x1
	.uleb128 0x1b
	.4byte	0xa7
	.byte	0x0
	.uleb128 0x20
	.byte	0x1
	.4byte	.LASF1182
	.byte	0x17
	.2byte	0x103
	.4byte	.LASF1184
	.byte	0x1
	.byte	0x2
	.byte	0x10
	.uleb128 0x19
	.4byte	0x727
	.byte	0x1
	.uleb128 0x19
	.4byte	0xb21
	.byte	0x1
	.uleb128 0x1b
	.4byte	0x10635
	.byte	0x0
	.byte	0x0
	.uleb128 0xc
	.byte	0x4
	.4byte	0x727
	.uleb128 0x16
	.4byte	.LASF162
	.byte	0x4
	.byte	0x18
	.byte	0x94
	.4byte	0xb27
	.4byte	0x1381
	.uleb128 0x17
	.4byte	.LASF163
	.4byte	0x2d038
	.byte	0x2
	.byte	0x23
	.uleb128 0x0
	.byte	0x1
	.uleb128 0x18
	.byte	0x1
	.4byte	.LASF164
	.byte	0x18
	.byte	0x96
	.byte	0x1
	.4byte	0xb27
	.byte	0x1
	.4byte	0xb63
	.uleb128 0x19
	.4byte	0x1381
	.byte	0x1
	.uleb128 0x19
	.4byte	0xa7
	.byte	0x1
	.byte	0x0
	.uleb128 0x1a
	.byte	0x1
	.4byte	.LASF56
	.byte	0x18
	.byte	0x98
	.4byte	.LASF165
	.byte	0x1
	.byte	0x2
	.byte	0x10
	.uleb128 0x2
	.4byte	0xb27
	.byte	0x1
	.4byte	0xb83
	.uleb128 0x19
	.4byte	0x1381
	.byte	0x1
	.byte	0x0
	.uleb128 0x1a
	.byte	0x1
	.4byte	.LASF166
	.byte	0x18
	.byte	0x9a
	.4byte	.LASF167
	.byte	0x1
	.byte	0x2
	.byte	0x10
	.uleb128 0x3
	.4byte	0xb27
	.byte	0x1
	.4byte	0xba3
	.uleb128 0x19
	.4byte	0x1381
	.byte	0x1
	.byte	0x0
	.uleb128 0x1a
	.byte	0x1
	.4byte	.LASF57
	.byte	0x18
	.byte	0x9c
	.4byte	.LASF168
	.byte	0x1
	.byte	0x2
	.byte	0x10
	.uleb128 0x4
	.4byte	0xb27
	.byte	0x1
	.4byte	0xbc8
	.uleb128 0x19
	.4byte	0x1381
	.byte	0x1
	.uleb128 0x1b
	.4byte	0x13b9
	.byte	0x0
	.uleb128 0x1c
	.byte	0x1
	.4byte	.LASF102
	.byte	0x18
	.byte	0x9e
	.4byte	.LASF169
	.4byte	0x13b9
	.byte	0x1
	.byte	0x2
	.byte	0x10
	.uleb128 0x5
	.4byte	0xb27
	.byte	0x1
	.4byte	0xbec
	.uleb128 0x19
	.4byte	0x2df6f
	.byte	0x1
	.byte	0x0
	.uleb128 0x1c
	.byte	0x1
	.4byte	.LASF170
	.byte	0x18
	.byte	0xa0
	.4byte	.LASF171
	.4byte	0x13b9
	.byte	0x1
	.byte	0x2
	.byte	0x10
	.uleb128 0x6
	.4byte	0xb27
	.byte	0x1
	.4byte	0xc10
	.uleb128 0x19
	.4byte	0x2df6f
	.byte	0x1
	.byte	0x0
	.uleb128 0x1c
	.byte	0x1
	.4byte	.LASF172
	.byte	0x18
	.byte	0xa4
	.4byte	.LASF173
	.4byte	0x2df7a
	.byte	0x1
	.byte	0x2
	.byte	0x10
	.uleb128 0x7
	.4byte	0xb27
	.byte	0x1
	.4byte	0xc34
	.uleb128 0x19
	.4byte	0x1381
	.byte	0x1
	.byte	0x0
	.uleb128 0x1a
	.byte	0x1
	.4byte	.LASF174
	.byte	0x18
	.byte	0xa6
	.4byte	.LASF175
	.byte	0x1
	.byte	0x2
	.byte	0x10
	.uleb128 0x8
	.4byte	0xb27
	.byte	0x1
	.4byte	0xc59
	.uleb128 0x19
	.4byte	0x1381
	.byte	0x1
	.uleb128 0x1b
	.4byte	0x2df7a
	.byte	0x0
	.uleb128 0x1c
	.byte	0x1
	.4byte	.LASF176
	.byte	0x18
	.byte	0xac
	.4byte	.LASF177
	.4byte	0x2df80
	.byte	0x1
	.byte	0x2
	.byte	0x10
	.uleb128 0x9
	.4byte	0xb27
	.byte	0x1
	.4byte	0xc96
	.uleb128 0x19
	.4byte	0x1381
	.byte	0x1
	.uleb128 0x1b
	.4byte	0xe6
	.uleb128 0x1b
	.4byte	0xe6
	.uleb128 0x1b
	.4byte	0x13b9
	.uleb128 0x1b
	.4byte	0x13b9
	.uleb128 0x1b
	.4byte	0xe6
	.byte	0x0
	.uleb128 0x1c
	.byte	0x1
	.4byte	.LASF178
	.byte	0x18
	.byte	0xb1
	.4byte	.LASF179
	.4byte	0x2df80
	.byte	0x1
	.byte	0x2
	.byte	0x10
	.uleb128 0xa
	.4byte	0xb27
	.byte	0x1
	.4byte	0xcce
	.uleb128 0x19
	.4byte	0x1381
	.byte	0x1
	.uleb128 0x1b
	.4byte	0xe6
	.uleb128 0x1b
	.4byte	0xe6
	.uleb128 0x1b
	.4byte	0x13b9
	.uleb128 0x1b
	.4byte	0xe6
	.byte	0x0
	.uleb128 0x1a
	.byte	0x1
	.4byte	.LASF180
	.byte	0x18
	.byte	0xb3
	.4byte	.LASF181
	.byte	0x1
	.byte	0x2
	.byte	0x10
	.uleb128 0xb
	.4byte	0xb27
	.byte	0x1
	.4byte	0xcf3
	.uleb128 0x19
	.4byte	0x1381
	.byte	0x1
	.uleb128 0x1b
	.4byte	0x2df80
	.byte	0x0
	.uleb128 0x1c
	.byte	0x1
	.4byte	.LASF182
	.byte	0x18
	.byte	0xb5
	.4byte	.LASF183
	.4byte	0xe6
	.byte	0x1
	.byte	0x2
	.byte	0x10
	.uleb128 0xc
	.4byte	0xb27
	.byte	0x1
	.4byte	0xd1c
	.uleb128 0x19
	.4byte	0x1381
	.byte	0x1
	.uleb128 0x1b
	.4byte	0xe6
	.byte	0x0
	.uleb128 0x1c
	.byte	0x1
	.4byte	.LASF184
	.byte	0x18
	.byte	0xb7
	.4byte	.LASF185
	.4byte	0xe6
	.byte	0x1
	.byte	0x2
	.byte	0x10
	.uleb128 0xd
	.4byte	0xb27
	.byte	0x1
	.4byte	0xd4a
	.uleb128 0x19
	.4byte	0x1381
	.byte	0x1
	.uleb128 0x1b
	.4byte	0xe6
	.uleb128 0x1b
	.4byte	0xe6
	.byte	0x0
	.uleb128 0x1c
	.byte	0x1
	.4byte	.LASF186
	.byte	0x18
	.byte	0xb9
	.4byte	.LASF187
	.4byte	0xe6
	.byte	0x1
	.byte	0x2
	.byte	0x10
	.uleb128 0xe
	.4byte	0xb27
	.byte	0x1
	.4byte	0xd7d
	.uleb128 0x19
	.4byte	0x1381
	.byte	0x1
	.uleb128 0x1b
	.4byte	0xe6
	.uleb128 0x1b
	.4byte	0xe6
	.uleb128 0x1b
	.4byte	0xe6
	.byte	0x0
	.uleb128 0x1a
	.byte	0x1
	.4byte	.LASF188
	.byte	0x18
	.byte	0xbb
	.4byte	.LASF189
	.byte	0x1
	.byte	0x2
	.byte	0x10
	.uleb128 0xf
	.4byte	0xb27
	.byte	0x1
	.4byte	0xda2
	.uleb128 0x19
	.4byte	0x1381
	.byte	0x1
	.uleb128 0x1b
	.4byte	0xe6
	.byte	0x0
	.uleb128 0x1c
	.byte	0x1
	.4byte	.LASF190
	.byte	0x18
	.byte	0xbd
	.4byte	.LASF191
	.4byte	0x13b9
	.byte	0x1
	.byte	0x2
	.byte	0x10
	.uleb128 0x10
	.4byte	0xb27
	.byte	0x1
	.4byte	0xdcb
	.uleb128 0x19
	.4byte	0x1381
	.byte	0x1
	.uleb128 0x1b
	.4byte	0xe6
	.byte	0x0
	.uleb128 0x1a
	.byte	0x1
	.4byte	.LASF192
	.byte	0x18
	.byte	0xc0
	.4byte	.LASF193
	.byte	0x1
	.byte	0x2
	.byte	0x10
	.uleb128 0x11
	.4byte	0xb27
	.byte	0x1
	.4byte	0xdeb
	.uleb128 0x19
	.4byte	0x1381
	.byte	0x1
	.byte	0x0
	.uleb128 0x1c
	.byte	0x1
	.4byte	.LASF194
	.byte	0x18
	.byte	0xc2
	.4byte	.LASF195
	.4byte	0x13b9
	.byte	0x1
	.byte	0x2
	.byte	0x10
	.uleb128 0x12
	.4byte	0xb27
	.byte	0x1
	.4byte	0xe0f
	.uleb128 0x19
	.4byte	0x1381
	.byte	0x1
	.byte	0x0
	.uleb128 0x1c
	.byte	0x1
	.4byte	.LASF196
	.byte	0x18
	.byte	0xca
	.4byte	.LASF197
	.4byte	0x1308e
	.byte	0x1
	.byte	0x2
	.byte	0x10
	.uleb128 0x13
	.4byte	0xb27
	.byte	0x1
	.4byte	0xe47
	.uleb128 0x19
	.4byte	0x1381
	.byte	0x1
	.uleb128 0x1b
	.4byte	0x76c6
	.uleb128 0x1b
	.4byte	0xa7
	.uleb128 0x1b
	.4byte	0x76c0
	.uleb128 0x1b
	.4byte	0x76c0
	.byte	0x0
	.uleb128 0x1a
	.byte	0x1
	.4byte	.LASF198
	.byte	0x18
	.byte	0xcd
	.4byte	.LASF199
	.byte	0x1
	.byte	0x2
	.byte	0x10
	.uleb128 0x14
	.4byte	0xb27
	.byte	0x1
	.4byte	0xe76
	.uleb128 0x19
	.4byte	0x1381
	.byte	0x1
	.uleb128 0x1b
	.4byte	0x76c0
	.uleb128 0x1b
	.4byte	0xa7
	.uleb128 0x1b
	.4byte	0x76c0
	.byte	0x0
	.uleb128 0x1a
	.byte	0x1
	.4byte	.LASF200
	.byte	0x18
	.byte	0xd0
	.4byte	.LASF201
	.byte	0x1
	.byte	0x2
	.byte	0x10
	.uleb128 0x15
	.4byte	0xb27
	.byte	0x1
	.4byte	0xea0
	.uleb128 0x19
	.4byte	0x1381
	.byte	0x1
	.uleb128 0x1b
	.4byte	0x76c6
	.uleb128 0x1b
	.4byte	0xa7
	.byte	0x0
	.uleb128 0x1a
	.byte	0x1
	.4byte	.LASF202
	.byte	0x18
	.byte	0xd2
	.4byte	.LASF203
	.byte	0x1
	.byte	0x2
	.byte	0x10
	.uleb128 0x16
	.4byte	0xb27
	.byte	0x1
	.4byte	0xec0
	.uleb128 0x19
	.4byte	0x1381
	.byte	0x1
	.byte	0x0
	.uleb128 0x1c
	.byte	0x1
	.4byte	.LASF204
	.byte	0x18
	.byte	0xd4
	.4byte	.LASF205
	.4byte	0xa7
	.byte	0x1
	.byte	0x2
	.byte	0x10
	.uleb128 0x17
	.4byte	0xb27
	.byte	0x1
	.4byte	0xee4
	.uleb128 0x19
	.4byte	0x1381
	.byte	0x1
	.byte	0x0
	.uleb128 0x1c
	.byte	0x1
	.4byte	.LASF206
	.byte	0x18
	.byte	0xdc
	.4byte	.LASF207
	.4byte	0xa7
	.byte	0x1
	.byte	0x2
	.byte	0x10
	.uleb128 0x18
	.4byte	0xb27
	.byte	0x1
	.4byte	0xf17
	.uleb128 0x19
	.4byte	0x1381
	.byte	0x1
	.uleb128 0x1b
	.4byte	0xe6
	.uleb128 0x1b
	.4byte	0x2df86
	.uleb128 0x1b
	.4byte	0x2df8c
	.byte	0x0
	.uleb128 0x1a
	.byte	0x1
	.4byte	.LASF208
	.byte	0x18
	.byte	0xde
	.4byte	.LASF209
	.byte	0x1
	.byte	0x2
	.byte	0x10
	.uleb128 0x19
	.4byte	0xb27
	.byte	0x1
	.4byte	0xf3c
	.uleb128 0x19
	.4byte	0x1381
	.byte	0x1
	.uleb128 0x1b
	.4byte	0x97
	.byte	0x0
	.uleb128 0x1c
	.byte	0x1
	.4byte	.LASF210
	.byte	0x18
	.byte	0xe1
	.4byte	.LASF211
	.4byte	0xa7
	.byte	0x1
	.byte	0x2
	.byte	0x10
	.uleb128 0x1a
	.4byte	0xb27
	.byte	0x1
	.4byte	0xf74
	.uleb128 0x19
	.4byte	0x1381
	.byte	0x1
	.uleb128 0x1b
	.4byte	0xe6
	.uleb128 0x1b
	.4byte	0x826c
	.uleb128 0x1b
	.4byte	0xa7
	.uleb128 0x1b
	.4byte	0xe6
	.byte	0x0
	.uleb128 0x1a
	.byte	0x1
	.4byte	.LASF212
	.byte	0x18
	.byte	0xe3
	.4byte	.LASF213
	.byte	0x1
	.byte	0x2
	.byte	0x10
	.uleb128 0x1b
	.4byte	0xb27
	.byte	0x1
	.4byte	0xf99
	.uleb128 0x19
	.4byte	0x1381
	.byte	0x1
	.uleb128 0x1b
	.4byte	0xe6
	.byte	0x0
	.uleb128 0x1c
	.byte	0x1
	.4byte	.LASF214
	.byte	0x18
	.byte	0xe5
	.4byte	.LASF215
	.4byte	0xe26d
	.byte	0x1
	.byte	0x2
	.byte	0x10
	.uleb128 0x1c
	.4byte	0xb27
	.byte	0x1
	.4byte	0xfcc
	.uleb128 0x19
	.4byte	0x1381
	.byte	0x1
	.uleb128 0x1b
	.4byte	0xe6
	.uleb128 0x1b
	.4byte	0x13b9
	.uleb128 0x1b
	.4byte	0xe6
	.byte	0x0
	.uleb128 0x1c
	.byte	0x1
	.4byte	.LASF216
	.byte	0x18
	.byte	0xe7
	.4byte	.LASF217
	.4byte	0xe26d
	.byte	0x1
	.byte	0x2
	.byte	0x10
	.uleb128 0x1d
	.4byte	0xb27
	.byte	0x1
	.4byte	0xffa
	.uleb128 0x19
	.4byte	0x1381
	.byte	0x1
	.uleb128 0x1b
	.4byte	0xe6
	.uleb128 0x1b
	.4byte	0xe6
	.byte	0x0
	.uleb128 0x1c
	.byte	0x1
	.4byte	.LASF218
	.byte	0x18
	.byte	0xe9
	.4byte	.LASF219
	.4byte	0xe26d
	.byte	0x1
	.byte	0x2
	.byte	0x10
	.uleb128 0x1e
	.4byte	0xb27
	.byte	0x1
	.4byte	0x102d
	.uleb128 0x19
	.4byte	0x1381
	.byte	0x1
	.uleb128 0x1b
	.4byte	0xe6
	.uleb128 0x1b
	.4byte	0x13b9
	.uleb128 0x1b
	.4byte	0xe6
	.byte	0x0
	.uleb128 0x1c
	.byte	0x1
	.4byte	.LASF220
	.byte	0x18
	.byte	0xeb
	.4byte	.LASF221
	.4byte	0xe26d
	.byte	0x1
	.byte	0x2
	.byte	0x10
	.uleb128 0x1f
	.4byte	0xb27
	.byte	0x1
	.4byte	0x105b
	.uleb128 0x19
	.4byte	0x1381
	.byte	0x1
	.uleb128 0x1b
	.4byte	0xe6
	.uleb128 0x1b
	.4byte	0x1306f
	.byte	0x0
	.uleb128 0x1c
	.byte	0x1
	.4byte	.LASF222
	.byte	0x18
	.byte	0xed
	.4byte	.LASF223
	.4byte	0xe26d
	.byte	0x1
	.byte	0x2
	.byte	0x10
	.uleb128 0x20
	.4byte	0xb27
	.byte	0x1
	.4byte	0x1084
	.uleb128 0x19
	.4byte	0x1381
	.byte	0x1
	.uleb128 0x1b
	.4byte	0xe6
	.byte	0x0
	.uleb128 0x1c
	.byte	0x1
	.4byte	.LASF224
	.byte	0x18
	.byte	0xef
	.4byte	.LASF225
	.4byte	0xe26d
	.byte	0x1
	.byte	0x2
	.byte	0x10
	.uleb128 0x21
	.4byte	0xb27
	.byte	0x1
	.4byte	0x10ad
	.uleb128 0x19
	.4byte	0x1381
	.byte	0x1
	.uleb128 0x1b
	.4byte	0xe6
	.byte	0x0
	.uleb128 0x1a
	.byte	0x1
	.4byte	.LASF226
	.byte	0x18
	.byte	0xf1
	.4byte	.LASF227
	.byte	0x1
	.byte	0x2
	.byte	0x10
	.uleb128 0x22
	.4byte	0xb27
	.byte	0x1
	.4byte	0x10d2
	.uleb128 0x19
	.4byte	0x1381
	.byte	0x1
	.uleb128 0x1b
	.4byte	0xe26d
	.byte	0x0
	.uleb128 0x1a
	.byte	0x1
	.4byte	.LASF228
	.byte	0x18
	.byte	0xf3
	.4byte	.LASF229
	.byte	0x1
	.byte	0x2
	.byte	0x10
	.uleb128 0x23
	.4byte	0xb27
	.byte	0x1
	.4byte	0x10f7
	.uleb128 0x19
	.4byte	0x1381
	.byte	0x1
	.uleb128 0x1b
	.4byte	0x2d05f
	.byte	0x0
	.uleb128 0x1a
	.byte	0x1
	.4byte	.LASF230
	.byte	0x18
	.byte	0xf5
	.4byte	.LASF231
	.byte	0x1
	.byte	0x2
	.byte	0x10
	.uleb128 0x24
	.4byte	0xb27
	.byte	0x1
	.4byte	0x1117
	.uleb128 0x19
	.4byte	0x1381
	.byte	0x1
	.byte	0x0
	.uleb128 0x1c
	.byte	0x1
	.4byte	.LASF232
	.byte	0x18
	.byte	0xf7
	.4byte	.LASF233
	.4byte	0xa7
	.byte	0x1
	.byte	0x2
	.byte	0x10
	.uleb128 0x25
	.4byte	0xb27
	.byte	0x1
	.4byte	0x113b
	.uleb128 0x19
	.4byte	0x1381
	.byte	0x1
	.byte	0x0
	.uleb128 0x1a
	.byte	0x1
	.4byte	.LASF234
	.byte	0x18
	.byte	0xf9
	.4byte	.LASF235
	.byte	0x1
	.byte	0x2
	.byte	0x10
	.uleb128 0x26
	.4byte	0xb27
	.byte	0x1
	.4byte	0x1160
	.uleb128 0x19
	.4byte	0x1381
	.byte	0x1
	.uleb128 0x1b
	.4byte	0xa7
	.byte	0x0
	.uleb128 0x1a
	.byte	0x1
	.4byte	.LASF236
	.byte	0x18
	.byte	0xfb
	.4byte	.LASF237
	.byte	0x1
	.byte	0x2
	.byte	0x10
	.uleb128 0x27
	.4byte	0xb27
	.byte	0x1
	.4byte	0x118f
	.uleb128 0x19
	.4byte	0x1381
	.byte	0x1
	.uleb128 0x1b
	.4byte	0xe6
	.uleb128 0x1b
	.4byte	0xd9
	.uleb128 0x1b
	.4byte	0x13b9
	.byte	0x0
	.uleb128 0x1a
	.byte	0x1
	.4byte	.LASF238
	.byte	0x18
	.byte	0xff
	.4byte	.LASF239
	.byte	0x1
	.byte	0x2
	.byte	0x10
	.uleb128 0x28
	.4byte	0xb27
	.byte	0x1
	.4byte	0x11af
	.uleb128 0x19
	.4byte	0x1381
	.byte	0x1
	.byte	0x0
	.uleb128 0x1f
	.byte	0x1
	.4byte	.LASF240
	.byte	0x18
	.2byte	0x102
	.4byte	.LASF242
	.4byte	0x13b9
	.byte	0x1
	.byte	0x2
	.byte	0x10
	.uleb128 0x29
	.4byte	0xb27
	.byte	0x1
	.4byte	0x11d4
	.uleb128 0x19
	.4byte	0x1381
	.byte	0x1
	.byte	0x0
	.uleb128 0x1f
	.byte	0x1
	.4byte	.LASF243
	.byte	0x18
	.2byte	0x104
	.4byte	.LASF244
	.4byte	0x13b9
	.byte	0x1
	.byte	0x2
	.byte	0x10
	.uleb128 0x2a
	.4byte	0xb27
	.byte	0x1
	.4byte	0x11f9
	.uleb128 0x19
	.4byte	0x1381
	.byte	0x1
	.byte	0x0
	.uleb128 0x21
	.byte	0x1
	.4byte	.LASF245
	.byte	0x18
	.2byte	0x107
	.4byte	.LASF259
	.byte	0x1
	.byte	0x2
	.byte	0x10
	.uleb128 0x2b
	.4byte	0xb27
	.byte	0x1
	.4byte	0x1224
	.uleb128 0x19
	.4byte	0x1381
	.byte	0x1
	.uleb128 0x1b
	.4byte	0xe6
	.uleb128 0x1b
	.4byte	0xe6
	.byte	0x0
	.uleb128 0x1f
	.byte	0x1
	.4byte	.LASF246
	.byte	0x18
	.2byte	0x10a
	.4byte	.LASF247
	.4byte	0xa7
	.byte	0x1
	.byte	0x2
	.byte	0x10
	.uleb128 0x2c
	.4byte	0xb27
	.byte	0x1
	.4byte	0x1258
	.uleb128 0x19
	.4byte	0x1381
	.byte	0x1
	.uleb128 0x1b
	.4byte	0xa7
	.uleb128 0x1b
	.4byte	0xd9
	.uleb128 0x1b
	.4byte	0x13b9
	.byte	0x0
	.uleb128 0x1f
	.byte	0x1
	.4byte	.LASF248
	.byte	0x18
	.2byte	0x10c
	.4byte	.LASF249
	.4byte	0xe26d
	.byte	0x1
	.byte	0x2
	.byte	0x10
	.uleb128 0x2d
	.4byte	0xb27
	.byte	0x1
	.4byte	0x127d
	.uleb128 0x19
	.4byte	0x1381
	.byte	0x1
	.byte	0x0
	.uleb128 0x1f
	.byte	0x1
	.4byte	.LASF250
	.byte	0x18
	.2byte	0x10f
	.4byte	.LASF251
	.4byte	0xa7
	.byte	0x1
	.byte	0x2
	.byte	0x10
	.uleb128 0x2e
	.4byte	0xb27
	.byte	0x1
	.4byte	0x12a7
	.uleb128 0x19
	.4byte	0x1381
	.byte	0x1
	.uleb128 0x1b
	.4byte	0xe6
	.byte	0x0
	.uleb128 0x1f
	.byte	0x1
	.4byte	.LASF252
	.byte	0x18
	.2byte	0x113
	.4byte	.LASF253
	.4byte	0x13110
	.byte	0x1
	.byte	0x2
	.byte	0x10
	.uleb128 0x2f
	.4byte	0xb27
	.byte	0x1
	.4byte	0x12d6
	.uleb128 0x19
	.4byte	0x1381
	.byte	0x1
	.uleb128 0x1b
	.4byte	0xe6
	.uleb128 0x1b
	.4byte	0x13b9
	.byte	0x0
	.uleb128 0x1f
	.byte	0x1
	.4byte	.LASF254
	.byte	0x18
	.2byte	0x117
	.4byte	.LASF255
	.4byte	0xa7
	.byte	0x1
	.byte	0x2
	.byte	0x10
	.uleb128 0x30
	.4byte	0xb27
	.byte	0x1
	.4byte	0x12fb
	.uleb128 0x19
	.4byte	0x1381
	.byte	0x1
	.byte	0x0
	.uleb128 0x1f
	.byte	0x1
	.4byte	.LASF256
	.byte	0x18
	.2byte	0x118
	.4byte	.LASF257
	.4byte	0x1064c
	.byte	0x1
	.byte	0x2
	.byte	0x10
	.uleb128 0x31
	.4byte	0xb27
	.byte	0x1
	.4byte	0x1325
	.uleb128 0x19
	.4byte	0x1381
	.byte	0x1
	.uleb128 0x1b
	.4byte	0xa7
	.byte	0x0
	.uleb128 0x21
	.byte	0x1
	.4byte	.LASF258
	.byte	0x18
	.2byte	0x119
	.4byte	.LASF260
	.byte	0x1
	.byte	0x2
	.byte	0x10
	.uleb128 0x32
	.4byte	0xb27
	.byte	0x1
	.4byte	0x1355
	.uleb128 0x19
	.4byte	0x1381
	.byte	0x1
	.uleb128 0x1b
	.4byte	0xe6
	.uleb128 0x1b
	.4byte	0xd9
	.uleb128 0x1b
	.4byte	0xa7
	.byte	0x0
	.uleb128 0x22
	.byte	0x1
	.4byte	.LASF261
	.byte	0x18
	.2byte	0x11c
	.4byte	.LASF262
	.4byte	0x13b9
	.byte	0x1
	.byte	0x2
	.byte	0x10
	.uleb128 0x33
	.4byte	0xb27
	.byte	0x1
	.uleb128 0x19
	.4byte	0x2df6f
	.byte	0x1
	.uleb128 0x1b
	.4byte	0xe6
	.uleb128 0x1b
	.4byte	0xe6
	.byte	0x0
	.byte	0x0
	.uleb128 0xc
	.byte	0x4
	.4byte	0xb27
	.uleb128 0x2
	.4byte	.LASF263
	.byte	0x19
	.byte	0x4b
	.4byte	0x89
	.uleb128 0x2
	.4byte	.LASF264
	.byte	0x19
	.byte	0x4d
	.4byte	0x2c
	.uleb128 0x2
	.4byte	.LASF265
	.byte	0x19
	.byte	0x51
	.4byte	0xa7
	.uleb128 0xa
	.4byte	0xdf
	.4byte	0x13b9
	.uleb128 0x23
	.4byte	0x33
	.2byte	0x3ff
	.byte	0x0
	.uleb128 0x3
	.byte	0x1
	.byte	0x2
	.4byte	.LASF266
	.uleb128 0x24
	.byte	0x4
	.4byte	0x13c6
	.uleb128 0xd
	.4byte	0x13cb
	.uleb128 0x25
	.4byte	.LASF267
	.2byte	0x904
	.byte	0x6
	.byte	0x28
	.4byte	0x1559
	.uleb128 0x26
	.4byte	.LASF268
	.byte	0x6
	.byte	0x41
	.4byte	.LASF270
	.4byte	0x16c7
	.byte	0x1
	.byte	0x3
	.byte	0x1
	.byte	0x40
	.uleb128 0x27
	.4byte	.LASF269
	.byte	0x6
	.byte	0x42
	.4byte	.LASF271
	.4byte	0x16c7
	.byte	0x1
	.byte	0x3
	.byte	0x1
	.2byte	0x800
	.uleb128 0x28
	.4byte	.LASF272
	.byte	0x6
	.byte	0x44
	.4byte	0xa7
	.byte	0x2
	.byte	0x23
	.uleb128 0x0
	.byte	0x3
	.uleb128 0x28
	.4byte	.LASF273
	.byte	0x6
	.byte	0x45
	.4byte	0xe279
	.byte	0x2
	.byte	0x23
	.uleb128 0x4
	.byte	0x3
	.uleb128 0x28
	.4byte	.LASF274
	.byte	0x6
	.byte	0x46
	.4byte	0xe289
	.byte	0x3
	.byte	0x23
	.uleb128 0x104
	.byte	0x3
	.uleb128 0x29
	.byte	0x1
	.4byte	.LASF267
	.byte	0x6
	.byte	0x2a
	.byte	0x1
	.4byte	0x1441
	.uleb128 0x19
	.4byte	0xe29a
	.byte	0x1
	.byte	0x0
	.uleb128 0x29
	.byte	0x1
	.4byte	.LASF267
	.byte	0x6
	.byte	0x2b
	.byte	0x1
	.4byte	0x145f
	.uleb128 0x19
	.4byte	0xe29a
	.byte	0x1
	.uleb128 0x1b
	.4byte	0xe6
	.uleb128 0x1b
	.4byte	0x13b9
	.byte	0x0
	.uleb128 0x2a
	.byte	0x1
	.4byte	.LASF281
	.byte	0x6
	.byte	0x2d
	.4byte	.LASF283
	.byte	0x1
	.4byte	0x147c
	.uleb128 0x19
	.4byte	0xe29a
	.byte	0x1
	.uleb128 0x1b
	.4byte	0x13c0
	.byte	0x0
	.uleb128 0x2b
	.byte	0x1
	.4byte	.LASF275
	.byte	0x6
	.byte	0x30
	.4byte	.LASF277
	.4byte	0xa7
	.byte	0x1
	.4byte	0x1498
	.uleb128 0x19
	.4byte	0xe2a0
	.byte	0x1
	.byte	0x0
	.uleb128 0x2b
	.byte	0x1
	.4byte	.LASF276
	.byte	0x6
	.byte	0x32
	.4byte	.LASF278
	.4byte	0xe6
	.byte	0x1
	.4byte	0x14b9
	.uleb128 0x19
	.4byte	0xe2a0
	.byte	0x1
	.uleb128 0x1b
	.4byte	0xa7
	.byte	0x0
	.uleb128 0x2b
	.byte	0x1
	.4byte	.LASF279
	.byte	0x6
	.byte	0x35
	.4byte	.LASF280
	.4byte	0xe6
	.byte	0x1
	.4byte	0x14e4
	.uleb128 0x19
	.4byte	0xe2a0
	.byte	0x1
	.uleb128 0x1b
	.4byte	0xa7
	.uleb128 0x1b
	.4byte	0xa7
	.uleb128 0x1b
	.4byte	0x13b9
	.byte	0x0
	.uleb128 0x2a
	.byte	0x1
	.4byte	.LASF282
	.byte	0x6
	.byte	0x3a
	.4byte	.LASF284
	.byte	0x1
	.4byte	0x1506
	.uleb128 0x19
	.4byte	0xe29a
	.byte	0x1
	.uleb128 0x1b
	.4byte	0xe6
	.uleb128 0x1b
	.4byte	0x13b9
	.byte	0x0
	.uleb128 0x2a
	.byte	0x1
	.4byte	.LASF285
	.byte	0x6
	.byte	0x3c
	.4byte	.LASF286
	.byte	0x1
	.4byte	0x1523
	.uleb128 0x19
	.4byte	0xe29a
	.byte	0x1
	.uleb128 0x1b
	.4byte	0xe6
	.byte	0x0
	.uleb128 0x2a
	.byte	0x1
	.4byte	.LASF287
	.byte	0x6
	.byte	0x3d
	.4byte	.LASF288
	.byte	0x1
	.4byte	0x153b
	.uleb128 0x19
	.4byte	0xe29a
	.byte	0x1
	.byte	0x0
	.uleb128 0x2c
	.byte	0x1
	.4byte	.LASF289
	.byte	0x6
	.byte	0x3e
	.4byte	.LASF290
	.4byte	0xe2a6
	.byte	0x1
	.uleb128 0x19
	.4byte	0xe29a
	.byte	0x1
	.uleb128 0x1b
	.4byte	0x76c0
	.byte	0x0
	.byte	0x0
	.uleb128 0x5
	.4byte	.LASF291
	.byte	0x1
	.byte	0x1a
	.byte	0x6c
	.4byte	0x15b3
	.uleb128 0x2b
	.byte	0x1
	.4byte	.LASF292
	.byte	0x1a
	.byte	0xa8
	.4byte	.LASF293
	.4byte	0xa7
	.byte	0x1
	.4byte	0x1580
	.uleb128 0x1b
	.4byte	0x10a
	.byte	0x0
	.uleb128 0x2b
	.byte	0x1
	.4byte	.LASF294
	.byte	0x1a
	.byte	0xac
	.4byte	.LASF295
	.4byte	0xa7
	.byte	0x1
	.4byte	0x159b
	.uleb128 0x1b
	.4byte	0xa7
	.byte	0x0
	.uleb128 0x2c
	.byte	0x1
	.4byte	.LASF296
	.byte	0x1a
	.byte	0xbb
	.4byte	.LASF297
	.4byte	0xa7
	.byte	0x1
	.uleb128 0x1b
	.4byte	0x10a
	.byte	0x0
	.byte	0x0
	.uleb128 0xd
	.4byte	0x10a
	.uleb128 0xa
	.4byte	0x1392
	.4byte	0x15c9
	.uleb128 0x23
	.4byte	0x33
	.2byte	0x1ff
	.byte	0x0
	.uleb128 0x24
	.byte	0x4
	.4byte	0x10a
	.uleb128 0xc
	.byte	0x4
	.4byte	0x15b3
	.uleb128 0x5
	.4byte	.LASF298
	.byte	0x4
	.byte	0xa
	.byte	0x28
	.4byte	0x16c7
	.uleb128 0x2d
	.4byte	.LASF643
	.byte	0xa
	.byte	0x34
	.4byte	.LASF2247
	.4byte	0x16c7
	.byte	0x1
	.byte	0x1
	.2byte	0x7fff
	.uleb128 0x28
	.4byte	.LASF299
	.byte	0xa
	.byte	0x37
	.4byte	0xa7
	.byte	0x2
	.byte	0x23
	.uleb128 0x0
	.byte	0x3
	.uleb128 0x29
	.byte	0x1
	.4byte	.LASF298
	.byte	0xa
	.byte	0x2a
	.byte	0x1
	.4byte	0x161c
	.uleb128 0x19
	.4byte	0x16cc
	.byte	0x1
	.uleb128 0x1b
	.4byte	0xa7
	.byte	0x0
	.uleb128 0x2a
	.byte	0x1
	.4byte	.LASF300
	.byte	0xa
	.byte	0x2c
	.4byte	.LASF301
	.byte	0x1
	.4byte	0x1639
	.uleb128 0x19
	.4byte	0x16cc
	.byte	0x1
	.uleb128 0x1b
	.4byte	0xa7
	.byte	0x0
	.uleb128 0x2b
	.byte	0x1
	.4byte	.LASF302
	.byte	0xa
	.byte	0x2d
	.4byte	.LASF303
	.4byte	0xa7
	.byte	0x1
	.4byte	0x1655
	.uleb128 0x19
	.4byte	0x16d2
	.byte	0x1
	.byte	0x0
	.uleb128 0x2b
	.byte	0x1
	.4byte	.LASF304
	.byte	0xa
	.byte	0x2f
	.4byte	.LASF305
	.4byte	0xa7
	.byte	0x1
	.4byte	0x1671
	.uleb128 0x19
	.4byte	0x16cc
	.byte	0x1
	.byte	0x0
	.uleb128 0x2b
	.byte	0x1
	.4byte	.LASF304
	.byte	0xa
	.byte	0x30
	.4byte	.LASF306
	.4byte	0xa7
	.byte	0x1
	.4byte	0x1692
	.uleb128 0x19
	.4byte	0x16cc
	.byte	0x1
	.uleb128 0x1b
	.4byte	0xa7
	.byte	0x0
	.uleb128 0x2b
	.byte	0x1
	.4byte	.LASF307
	.byte	0xa
	.byte	0x31
	.4byte	.LASF308
	.4byte	0x10a
	.byte	0x1
	.4byte	0x16ae
	.uleb128 0x19
	.4byte	0x16cc
	.byte	0x1
	.byte	0x0
	.uleb128 0x2c
	.byte	0x1
	.4byte	.LASF309
	.byte	0xa
	.byte	0x32
	.4byte	.LASF310
	.4byte	0x10a
	.byte	0x1
	.uleb128 0x19
	.4byte	0x16cc
	.byte	0x1
	.byte	0x0
	.byte	0x0
	.uleb128 0xd
	.4byte	0xa7
	.uleb128 0xc
	.byte	0x4
	.4byte	0x15d5
	.uleb128 0xc
	.byte	0x4
	.4byte	0x16d8
	.uleb128 0xd
	.4byte	0x15d5
	.uleb128 0xd
	.4byte	0xcc
	.uleb128 0xc
	.byte	0x4
	.4byte	0x10a
	.uleb128 0x5
	.4byte	.LASF311
	.byte	0x8
	.byte	0x10
	.byte	0x34
	.4byte	0x1b41
	.uleb128 0x6
	.string	"x"
	.byte	0x10
	.byte	0x36
	.4byte	0x10a
	.byte	0x2
	.byte	0x23
	.uleb128 0x0
	.uleb128 0x6
	.string	"y"
	.byte	0x10
	.byte	0x37
	.4byte	0x10a
	.byte	0x2
	.byte	0x23
	.uleb128 0x4
	.uleb128 0x29
	.byte	0x1
	.4byte	.LASF311
	.byte	0x10
	.byte	0x39
	.byte	0x1
	.4byte	0x1720
	.uleb128 0x19
	.4byte	0x1b41
	.byte	0x1
	.byte	0x0
	.uleb128 0x29
	.byte	0x1
	.4byte	.LASF311
	.byte	0x10
	.byte	0x3a
	.byte	0x1
	.4byte	0x173e
	.uleb128 0x19
	.4byte	0x1b41
	.byte	0x1
	.uleb128 0x1b
	.4byte	0x10a
	.uleb128 0x1b
	.4byte	0x10a
	.byte	0x0
	.uleb128 0x2e
	.byte	0x1
	.string	"Set"
	.byte	0x10
	.byte	0x3c
	.4byte	.LASF437
	.byte	0x1
	.4byte	0x1760
	.uleb128 0x19
	.4byte	0x1b41
	.byte	0x1
	.uleb128 0x1b
	.4byte	0x10a
	.uleb128 0x1b
	.4byte	0x10a
	.byte	0x0
	.uleb128 0x2a
	.byte	0x1
	.4byte	.LASF312
	.byte	0x10
	.byte	0x3d
	.4byte	.LASF313
	.byte	0x1
	.4byte	0x1778
	.uleb128 0x19
	.4byte	0x1b41
	.byte	0x1
	.byte	0x0
	.uleb128 0x2b
	.byte	0x1
	.4byte	.LASF314
	.byte	0x10
	.byte	0x3f
	.4byte	.LASF315
	.4byte	0x10a
	.byte	0x1
	.4byte	0x1799
	.uleb128 0x19
	.4byte	0x1b47
	.byte	0x1
	.uleb128 0x1b
	.4byte	0xa7
	.byte	0x0
	.uleb128 0x2b
	.byte	0x1
	.4byte	.LASF314
	.byte	0x10
	.byte	0x40
	.4byte	.LASF316
	.4byte	0x15c9
	.byte	0x1
	.4byte	0x17ba
	.uleb128 0x19
	.4byte	0x1b41
	.byte	0x1
	.uleb128 0x1b
	.4byte	0xa7
	.byte	0x0
	.uleb128 0x2b
	.byte	0x1
	.4byte	.LASF317
	.byte	0x10
	.byte	0x41
	.4byte	.LASF318
	.4byte	0x16e8
	.byte	0x1
	.4byte	0x17d6
	.uleb128 0x19
	.4byte	0x1b47
	.byte	0x1
	.byte	0x0
	.uleb128 0x2b
	.byte	0x1
	.4byte	.LASF319
	.byte	0x10
	.byte	0x42
	.4byte	.LASF320
	.4byte	0x10a
	.byte	0x1
	.4byte	0x17f7
	.uleb128 0x19
	.4byte	0x1b47
	.byte	0x1
	.uleb128 0x1b
	.4byte	0x1b52
	.byte	0x0
	.uleb128 0x2b
	.byte	0x1
	.4byte	.LASF319
	.byte	0x10
	.byte	0x43
	.4byte	.LASF321
	.4byte	0x16e8
	.byte	0x1
	.4byte	0x1818
	.uleb128 0x19
	.4byte	0x1b47
	.byte	0x1
	.uleb128 0x1b
	.4byte	0x10a
	.byte	0x0
	.uleb128 0x2b
	.byte	0x1
	.4byte	.LASF322
	.byte	0x10
	.byte	0x44
	.4byte	.LASF323
	.4byte	0x16e8
	.byte	0x1
	.4byte	0x1839
	.uleb128 0x19
	.4byte	0x1b47
	.byte	0x1
	.uleb128 0x1b
	.4byte	0x10a
	.byte	0x0
	.uleb128 0x2b
	.byte	0x1
	.4byte	.LASF324
	.byte	0x10
	.byte	0x45
	.4byte	.LASF325
	.4byte	0x16e8
	.byte	0x1
	.4byte	0x185a
	.uleb128 0x19
	.4byte	0x1b47
	.byte	0x1
	.uleb128 0x1b
	.4byte	0x1b52
	.byte	0x0
	.uleb128 0x2b
	.byte	0x1
	.4byte	.LASF317
	.byte	0x10
	.byte	0x46
	.4byte	.LASF326
	.4byte	0x16e8
	.byte	0x1
	.4byte	0x187b
	.uleb128 0x19
	.4byte	0x1b47
	.byte	0x1
	.uleb128 0x1b
	.4byte	0x1b52
	.byte	0x0
	.uleb128 0x2b
	.byte	0x1
	.4byte	.LASF327
	.byte	0x10
	.byte	0x47
	.4byte	.LASF328
	.4byte	0x1b58
	.byte	0x1
	.4byte	0x189c
	.uleb128 0x19
	.4byte	0x1b41
	.byte	0x1
	.uleb128 0x1b
	.4byte	0x1b52
	.byte	0x0
	.uleb128 0x2b
	.byte	0x1
	.4byte	.LASF329
	.byte	0x10
	.byte	0x48
	.4byte	.LASF330
	.4byte	0x1b58
	.byte	0x1
	.4byte	0x18bd
	.uleb128 0x19
	.4byte	0x1b41
	.byte	0x1
	.uleb128 0x1b
	.4byte	0x1b52
	.byte	0x0
	.uleb128 0x2b
	.byte	0x1
	.4byte	.LASF331
	.byte	0x10
	.byte	0x49
	.4byte	.LASF332
	.4byte	0x1b58
	.byte	0x1
	.4byte	0x18de
	.uleb128 0x19
	.4byte	0x1b41
	.byte	0x1
	.uleb128 0x1b
	.4byte	0x1b52
	.byte	0x0
	.uleb128 0x2b
	.byte	0x1
	.4byte	.LASF331
	.byte	0x10
	.byte	0x4a
	.4byte	.LASF333
	.4byte	0x1b58
	.byte	0x1
	.4byte	0x18ff
	.uleb128 0x19
	.4byte	0x1b41
	.byte	0x1
	.uleb128 0x1b
	.4byte	0x10a
	.byte	0x0
	.uleb128 0x2b
	.byte	0x1
	.4byte	.LASF334
	.byte	0x10
	.byte	0x4b
	.4byte	.LASF335
	.4byte	0x1b58
	.byte	0x1
	.4byte	0x1920
	.uleb128 0x19
	.4byte	0x1b41
	.byte	0x1
	.uleb128 0x1b
	.4byte	0x10a
	.byte	0x0
	.uleb128 0x2b
	.byte	0x1
	.4byte	.LASF336
	.byte	0x10
	.byte	0x4f
	.4byte	.LASF337
	.4byte	0x13b9
	.byte	0x1
	.4byte	0x1941
	.uleb128 0x19
	.4byte	0x1b47
	.byte	0x1
	.uleb128 0x1b
	.4byte	0x1b52
	.byte	0x0
	.uleb128 0x2b
	.byte	0x1
	.4byte	.LASF336
	.byte	0x10
	.byte	0x50
	.4byte	.LASF338
	.4byte	0x13b9
	.byte	0x1
	.4byte	0x1967
	.uleb128 0x19
	.4byte	0x1b47
	.byte	0x1
	.uleb128 0x1b
	.4byte	0x1b52
	.uleb128 0x1b
	.4byte	0x10a
	.byte	0x0
	.uleb128 0x2b
	.byte	0x1
	.4byte	.LASF339
	.byte	0x10
	.byte	0x51
	.4byte	.LASF340
	.4byte	0x13b9
	.byte	0x1
	.4byte	0x1988
	.uleb128 0x19
	.4byte	0x1b47
	.byte	0x1
	.uleb128 0x1b
	.4byte	0x1b52
	.byte	0x0
	.uleb128 0x2b
	.byte	0x1
	.4byte	.LASF341
	.byte	0x10
	.byte	0x52
	.4byte	.LASF342
	.4byte	0x13b9
	.byte	0x1
	.4byte	0x19a9
	.uleb128 0x19
	.4byte	0x1b47
	.byte	0x1
	.uleb128 0x1b
	.4byte	0x1b52
	.byte	0x0
	.uleb128 0x2b
	.byte	0x1
	.4byte	.LASF343
	.byte	0x10
	.byte	0x54
	.4byte	.LASF344
	.4byte	0x10a
	.byte	0x1
	.4byte	0x19c5
	.uleb128 0x19
	.4byte	0x1b47
	.byte	0x1
	.byte	0x0
	.uleb128 0x2b
	.byte	0x1
	.4byte	.LASF345
	.byte	0x10
	.byte	0x55
	.4byte	.LASF346
	.4byte	0x10a
	.byte	0x1
	.4byte	0x19e1
	.uleb128 0x19
	.4byte	0x1b47
	.byte	0x1
	.byte	0x0
	.uleb128 0x2b
	.byte	0x1
	.4byte	.LASF347
	.byte	0x10
	.byte	0x56
	.4byte	.LASF348
	.4byte	0x10a
	.byte	0x1
	.4byte	0x19fd
	.uleb128 0x19
	.4byte	0x1b47
	.byte	0x1
	.byte	0x0
	.uleb128 0x2b
	.byte	0x1
	.4byte	.LASF349
	.byte	0x10
	.byte	0x57
	.4byte	.LASF350
	.4byte	0x10a
	.byte	0x1
	.4byte	0x1a19
	.uleb128 0x19
	.4byte	0x1b41
	.byte	0x1
	.byte	0x0
	.uleb128 0x2b
	.byte	0x1
	.4byte	.LASF351
	.byte	0x10
	.byte	0x58
	.4byte	.LASF352
	.4byte	0x10a
	.byte	0x1
	.4byte	0x1a35
	.uleb128 0x19
	.4byte	0x1b41
	.byte	0x1
	.byte	0x0
	.uleb128 0x2b
	.byte	0x1
	.4byte	.LASF353
	.byte	0x10
	.byte	0x59
	.4byte	.LASF354
	.4byte	0x1b58
	.byte	0x1
	.4byte	0x1a56
	.uleb128 0x19
	.4byte	0x1b41
	.byte	0x1
	.uleb128 0x1b
	.4byte	0x10a
	.byte	0x0
	.uleb128 0x2a
	.byte	0x1
	.4byte	.LASF355
	.byte	0x10
	.byte	0x5a
	.4byte	.LASF356
	.byte	0x1
	.4byte	0x1a78
	.uleb128 0x19
	.4byte	0x1b41
	.byte	0x1
	.uleb128 0x1b
	.4byte	0x1b52
	.uleb128 0x1b
	.4byte	0x1b52
	.byte	0x0
	.uleb128 0x2a
	.byte	0x1
	.4byte	.LASF357
	.byte	0x10
	.byte	0x5b
	.4byte	.LASF358
	.byte	0x1
	.4byte	0x1a90
	.uleb128 0x19
	.4byte	0x1b41
	.byte	0x1
	.byte	0x0
	.uleb128 0x2a
	.byte	0x1
	.4byte	.LASF359
	.byte	0x10
	.byte	0x5c
	.4byte	.LASF360
	.byte	0x1
	.4byte	0x1aa8
	.uleb128 0x19
	.4byte	0x1b41
	.byte	0x1
	.byte	0x0
	.uleb128 0x2b
	.byte	0x1
	.4byte	.LASF361
	.byte	0x10
	.byte	0x5e
	.4byte	.LASF362
	.4byte	0xa7
	.byte	0x1
	.4byte	0x1ac4
	.uleb128 0x19
	.4byte	0x1b47
	.byte	0x1
	.byte	0x0
	.uleb128 0x2b
	.byte	0x1
	.4byte	.LASF363
	.byte	0x10
	.byte	0x60
	.4byte	.LASF364
	.4byte	0x15cf
	.byte	0x1
	.4byte	0x1ae0
	.uleb128 0x19
	.4byte	0x1b47
	.byte	0x1
	.byte	0x0
	.uleb128 0x2b
	.byte	0x1
	.4byte	.LASF363
	.byte	0x10
	.byte	0x61
	.4byte	.LASF365
	.4byte	0x16e2
	.byte	0x1
	.4byte	0x1afc
	.uleb128 0x19
	.4byte	0x1b41
	.byte	0x1
	.byte	0x0
	.uleb128 0x2b
	.byte	0x1
	.4byte	.LASF366
	.byte	0x10
	.byte	0x62
	.4byte	.LASF367
	.4byte	0xe6
	.byte	0x1
	.4byte	0x1b1d
	.uleb128 0x19
	.4byte	0x1b47
	.byte	0x1
	.uleb128 0x1b
	.4byte	0xa7
	.byte	0x0
	.uleb128 0x2f
	.byte	0x1
	.4byte	.LASF368
	.byte	0x10
	.byte	0x64
	.4byte	.LASF826
	.byte	0x1
	.uleb128 0x19
	.4byte	0x1b41
	.byte	0x1
	.uleb128 0x1b
	.4byte	0x1b52
	.uleb128 0x1b
	.4byte	0x1b52
	.uleb128 0x1b
	.4byte	0x10a
	.byte	0x0
	.byte	0x0
	.uleb128 0xc
	.byte	0x4
	.4byte	0x16e8
	.uleb128 0xc
	.byte	0x4
	.4byte	0x1b4d
	.uleb128 0xd
	.4byte	0x16e8
	.uleb128 0x24
	.byte	0x4
	.4byte	0x1b4d
	.uleb128 0x24
	.byte	0x4
	.4byte	0x16e8
	.uleb128 0x11
	.4byte	.LASF369
	.byte	0xc
	.byte	0x10
	.2byte	0x13c
	.4byte	0x223f
	.uleb128 0x14
	.string	"x"
	.byte	0x10
	.2byte	0x13e
	.4byte	0x10a
	.byte	0x2
	.byte	0x23
	.uleb128 0x0
	.uleb128 0x14
	.string	"y"
	.byte	0x10
	.2byte	0x13f
	.4byte	0x10a
	.byte	0x2
	.byte	0x23
	.uleb128 0x4
	.uleb128 0x14
	.string	"z"
	.byte	0x10
	.2byte	0x140
	.4byte	0x10a
	.byte	0x2
	.byte	0x23
	.uleb128 0x8
	.uleb128 0x30
	.byte	0x1
	.4byte	.LASF369
	.byte	0x10
	.2byte	0x142
	.byte	0x1
	.4byte	0x1ba7
	.uleb128 0x19
	.4byte	0x223f
	.byte	0x1
	.byte	0x0
	.uleb128 0x30
	.byte	0x1
	.4byte	.LASF369
	.byte	0x10
	.2byte	0x143
	.byte	0x1
	.4byte	0x1bcb
	.uleb128 0x19
	.4byte	0x223f
	.byte	0x1
	.uleb128 0x1b
	.4byte	0x10a
	.uleb128 0x1b
	.4byte	0x10a
	.uleb128 0x1b
	.4byte	0x10a
	.byte	0x0
	.uleb128 0x31
	.byte	0x1
	.string	"Set"
	.byte	0x10
	.2byte	0x145
	.4byte	.LASF481
	.byte	0x1
	.4byte	0x1bf3
	.uleb128 0x19
	.4byte	0x223f
	.byte	0x1
	.uleb128 0x1b
	.4byte	0x10a
	.uleb128 0x1b
	.4byte	0x10a
	.uleb128 0x1b
	.4byte	0x10a
	.byte	0x0
	.uleb128 0x32
	.byte	0x1
	.4byte	.LASF312
	.byte	0x10
	.2byte	0x146
	.4byte	.LASF401
	.byte	0x1
	.4byte	0x1c0c
	.uleb128 0x19
	.4byte	0x223f
	.byte	0x1
	.byte	0x0
	.uleb128 0x33
	.byte	0x1
	.4byte	.LASF314
	.byte	0x10
	.2byte	0x148
	.4byte	.LASF370
	.4byte	0x10a
	.byte	0x1
	.4byte	0x1c2e
	.uleb128 0x19
	.4byte	0x2245
	.byte	0x1
	.uleb128 0x1b
	.4byte	0xa7
	.byte	0x0
	.uleb128 0x33
	.byte	0x1
	.4byte	.LASF314
	.byte	0x10
	.2byte	0x149
	.4byte	.LASF371
	.4byte	0x15c9
	.byte	0x1
	.4byte	0x1c50
	.uleb128 0x19
	.4byte	0x223f
	.byte	0x1
	.uleb128 0x1b
	.4byte	0xa7
	.byte	0x0
	.uleb128 0x33
	.byte	0x1
	.4byte	.LASF317
	.byte	0x10
	.2byte	0x14a
	.4byte	.LASF372
	.4byte	0x1b5e
	.byte	0x1
	.4byte	0x1c6d
	.uleb128 0x19
	.4byte	0x2245
	.byte	0x1
	.byte	0x0
	.uleb128 0x33
	.byte	0x1
	.4byte	.LASF281
	.byte	0x10
	.2byte	0x14b
	.4byte	.LASF373
	.4byte	0x2250
	.byte	0x1
	.4byte	0x1c8f
	.uleb128 0x19
	.4byte	0x223f
	.byte	0x1
	.uleb128 0x1b
	.4byte	0x2256
	.byte	0x0
	.uleb128 0x33
	.byte	0x1
	.4byte	.LASF319
	.byte	0x10
	.2byte	0x14c
	.4byte	.LASF374
	.4byte	0x10a
	.byte	0x1
	.4byte	0x1cb1
	.uleb128 0x19
	.4byte	0x2245
	.byte	0x1
	.uleb128 0x1b
	.4byte	0x2256
	.byte	0x0
	.uleb128 0x33
	.byte	0x1
	.4byte	.LASF319
	.byte	0x10
	.2byte	0x14d
	.4byte	.LASF375
	.4byte	0x1b5e
	.byte	0x1
	.4byte	0x1cd3
	.uleb128 0x19
	.4byte	0x2245
	.byte	0x1
	.uleb128 0x1b
	.4byte	0x10a
	.byte	0x0
	.uleb128 0x33
	.byte	0x1
	.4byte	.LASF322
	.byte	0x10
	.2byte	0x14e
	.4byte	.LASF376
	.4byte	0x1b5e
	.byte	0x1
	.4byte	0x1cf5
	.uleb128 0x19
	.4byte	0x2245
	.byte	0x1
	.uleb128 0x1b
	.4byte	0x10a
	.byte	0x0
	.uleb128 0x33
	.byte	0x1
	.4byte	.LASF324
	.byte	0x10
	.2byte	0x14f
	.4byte	.LASF377
	.4byte	0x1b5e
	.byte	0x1
	.4byte	0x1d17
	.uleb128 0x19
	.4byte	0x2245
	.byte	0x1
	.uleb128 0x1b
	.4byte	0x2256
	.byte	0x0
	.uleb128 0x33
	.byte	0x1
	.4byte	.LASF317
	.byte	0x10
	.2byte	0x150
	.4byte	.LASF378
	.4byte	0x1b5e
	.byte	0x1
	.4byte	0x1d39
	.uleb128 0x19
	.4byte	0x2245
	.byte	0x1
	.uleb128 0x1b
	.4byte	0x2256
	.byte	0x0
	.uleb128 0x33
	.byte	0x1
	.4byte	.LASF327
	.byte	0x10
	.2byte	0x151
	.4byte	.LASF379
	.4byte	0x2250
	.byte	0x1
	.4byte	0x1d5b
	.uleb128 0x19
	.4byte	0x223f
	.byte	0x1
	.uleb128 0x1b
	.4byte	0x2256
	.byte	0x0
	.uleb128 0x33
	.byte	0x1
	.4byte	.LASF329
	.byte	0x10
	.2byte	0x152
	.4byte	.LASF380
	.4byte	0x2250
	.byte	0x1
	.4byte	0x1d7d
	.uleb128 0x19
	.4byte	0x223f
	.byte	0x1
	.uleb128 0x1b
	.4byte	0x2256
	.byte	0x0
	.uleb128 0x33
	.byte	0x1
	.4byte	.LASF331
	.byte	0x10
	.2byte	0x153
	.4byte	.LASF381
	.4byte	0x2250
	.byte	0x1
	.4byte	0x1d9f
	.uleb128 0x19
	.4byte	0x223f
	.byte	0x1
	.uleb128 0x1b
	.4byte	0x2256
	.byte	0x0
	.uleb128 0x33
	.byte	0x1
	.4byte	.LASF331
	.byte	0x10
	.2byte	0x154
	.4byte	.LASF382
	.4byte	0x2250
	.byte	0x1
	.4byte	0x1dc1
	.uleb128 0x19
	.4byte	0x223f
	.byte	0x1
	.uleb128 0x1b
	.4byte	0x10a
	.byte	0x0
	.uleb128 0x33
	.byte	0x1
	.4byte	.LASF334
	.byte	0x10
	.2byte	0x155
	.4byte	.LASF383
	.4byte	0x2250
	.byte	0x1
	.4byte	0x1de3
	.uleb128 0x19
	.4byte	0x223f
	.byte	0x1
	.uleb128 0x1b
	.4byte	0x10a
	.byte	0x0
	.uleb128 0x33
	.byte	0x1
	.4byte	.LASF336
	.byte	0x10
	.2byte	0x159
	.4byte	.LASF384
	.4byte	0x13b9
	.byte	0x1
	.4byte	0x1e05
	.uleb128 0x19
	.4byte	0x2245
	.byte	0x1
	.uleb128 0x1b
	.4byte	0x2256
	.byte	0x0
	.uleb128 0x33
	.byte	0x1
	.4byte	.LASF336
	.byte	0x10
	.2byte	0x15a
	.4byte	.LASF385
	.4byte	0x13b9
	.byte	0x1
	.4byte	0x1e2c
	.uleb128 0x19
	.4byte	0x2245
	.byte	0x1
	.uleb128 0x1b
	.4byte	0x2256
	.uleb128 0x1b
	.4byte	0x10a
	.byte	0x0
	.uleb128 0x33
	.byte	0x1
	.4byte	.LASF339
	.byte	0x10
	.2byte	0x15b
	.4byte	.LASF386
	.4byte	0x13b9
	.byte	0x1
	.4byte	0x1e4e
	.uleb128 0x19
	.4byte	0x2245
	.byte	0x1
	.uleb128 0x1b
	.4byte	0x2256
	.byte	0x0
	.uleb128 0x33
	.byte	0x1
	.4byte	.LASF341
	.byte	0x10
	.2byte	0x15c
	.4byte	.LASF387
	.4byte	0x13b9
	.byte	0x1
	.4byte	0x1e70
	.uleb128 0x19
	.4byte	0x2245
	.byte	0x1
	.uleb128 0x1b
	.4byte	0x2256
	.byte	0x0
	.uleb128 0x33
	.byte	0x1
	.4byte	.LASF388
	.byte	0x10
	.2byte	0x15e
	.4byte	.LASF389
	.4byte	0x13b9
	.byte	0x1
	.4byte	0x1e8d
	.uleb128 0x19
	.4byte	0x223f
	.byte	0x1
	.byte	0x0
	.uleb128 0x33
	.byte	0x1
	.4byte	.LASF390
	.byte	0x10
	.2byte	0x15f
	.4byte	.LASF391
	.4byte	0x13b9
	.byte	0x1
	.4byte	0x1eaa
	.uleb128 0x19
	.4byte	0x223f
	.byte	0x1
	.byte	0x0
	.uleb128 0x33
	.byte	0x1
	.4byte	.LASF392
	.byte	0x10
	.2byte	0x161
	.4byte	.LASF393
	.4byte	0x1b5e
	.byte	0x1
	.4byte	0x1ecc
	.uleb128 0x19
	.4byte	0x2245
	.byte	0x1
	.uleb128 0x1b
	.4byte	0x2256
	.byte	0x0
	.uleb128 0x33
	.byte	0x1
	.4byte	.LASF392
	.byte	0x10
	.2byte	0x162
	.4byte	.LASF394
	.4byte	0x2250
	.byte	0x1
	.4byte	0x1ef3
	.uleb128 0x19
	.4byte	0x223f
	.byte	0x1
	.uleb128 0x1b
	.4byte	0x2256
	.uleb128 0x1b
	.4byte	0x2256
	.byte	0x0
	.uleb128 0x33
	.byte	0x1
	.4byte	.LASF343
	.byte	0x10
	.2byte	0x163
	.4byte	.LASF395
	.4byte	0x10a
	.byte	0x1
	.4byte	0x1f10
	.uleb128 0x19
	.4byte	0x2245
	.byte	0x1
	.byte	0x0
	.uleb128 0x33
	.byte	0x1
	.4byte	.LASF347
	.byte	0x10
	.2byte	0x164
	.4byte	.LASF396
	.4byte	0x10a
	.byte	0x1
	.4byte	0x1f2d
	.uleb128 0x19
	.4byte	0x2245
	.byte	0x1
	.byte	0x0
	.uleb128 0x33
	.byte	0x1
	.4byte	.LASF345
	.byte	0x10
	.2byte	0x165
	.4byte	.LASF397
	.4byte	0x10a
	.byte	0x1
	.4byte	0x1f4a
	.uleb128 0x19
	.4byte	0x2245
	.byte	0x1
	.byte	0x0
	.uleb128 0x33
	.byte	0x1
	.4byte	.LASF349
	.byte	0x10
	.2byte	0x166
	.4byte	.LASF398
	.4byte	0x10a
	.byte	0x1
	.4byte	0x1f67
	.uleb128 0x19
	.4byte	0x223f
	.byte	0x1
	.byte	0x0
	.uleb128 0x33
	.byte	0x1
	.4byte	.LASF351
	.byte	0x10
	.2byte	0x167
	.4byte	.LASF399
	.4byte	0x10a
	.byte	0x1
	.4byte	0x1f84
	.uleb128 0x19
	.4byte	0x223f
	.byte	0x1
	.byte	0x0
	.uleb128 0x33
	.byte	0x1
	.4byte	.LASF353
	.byte	0x10
	.2byte	0x168
	.4byte	.LASF400
	.4byte	0x2250
	.byte	0x1
	.4byte	0x1fa6
	.uleb128 0x19
	.4byte	0x223f
	.byte	0x1
	.uleb128 0x1b
	.4byte	0x10a
	.byte	0x0
	.uleb128 0x32
	.byte	0x1
	.4byte	.LASF355
	.byte	0x10
	.2byte	0x169
	.4byte	.LASF402
	.byte	0x1
	.4byte	0x1fc9
	.uleb128 0x19
	.4byte	0x223f
	.byte	0x1
	.uleb128 0x1b
	.4byte	0x2256
	.uleb128 0x1b
	.4byte	0x2256
	.byte	0x0
	.uleb128 0x32
	.byte	0x1
	.4byte	.LASF357
	.byte	0x10
	.2byte	0x16a
	.4byte	.LASF403
	.byte	0x1
	.4byte	0x1fe2
	.uleb128 0x19
	.4byte	0x223f
	.byte	0x1
	.byte	0x0
	.uleb128 0x32
	.byte	0x1
	.4byte	.LASF359
	.byte	0x10
	.2byte	0x16b
	.4byte	.LASF404
	.byte	0x1
	.4byte	0x1ffb
	.uleb128 0x19
	.4byte	0x223f
	.byte	0x1
	.byte	0x0
	.uleb128 0x33
	.byte	0x1
	.4byte	.LASF361
	.byte	0x10
	.2byte	0x16d
	.4byte	.LASF405
	.4byte	0xa7
	.byte	0x1
	.4byte	0x2018
	.uleb128 0x19
	.4byte	0x2245
	.byte	0x1
	.byte	0x0
	.uleb128 0x33
	.byte	0x1
	.4byte	.LASF406
	.byte	0x10
	.2byte	0x16f
	.4byte	.LASF407
	.4byte	0x10a
	.byte	0x1
	.4byte	0x2035
	.uleb128 0x19
	.4byte	0x2245
	.byte	0x1
	.byte	0x0
	.uleb128 0x33
	.byte	0x1
	.4byte	.LASF408
	.byte	0x10
	.2byte	0x170
	.4byte	.LASF409
	.4byte	0x10a
	.byte	0x1
	.4byte	0x2052
	.uleb128 0x19
	.4byte	0x2245
	.byte	0x1
	.byte	0x0
	.uleb128 0x33
	.byte	0x1
	.4byte	.LASF410
	.byte	0x10
	.2byte	0x171
	.4byte	.LASF411
	.4byte	0x225c
	.byte	0x1
	.4byte	0x206f
	.uleb128 0x19
	.4byte	0x2245
	.byte	0x1
	.byte	0x0
	.uleb128 0x33
	.byte	0x1
	.4byte	.LASF412
	.byte	0x10
	.2byte	0x172
	.4byte	.LASF413
	.4byte	0x26d0
	.byte	0x1
	.4byte	0x208c
	.uleb128 0x19
	.4byte	0x2245
	.byte	0x1
	.byte	0x0
	.uleb128 0x33
	.byte	0x1
	.4byte	.LASF414
	.byte	0x10
	.2byte	0x173
	.4byte	.LASF415
	.4byte	0x2808
	.byte	0x1
	.4byte	0x20a9
	.uleb128 0x19
	.4byte	0x2245
	.byte	0x1
	.byte	0x0
	.uleb128 0x33
	.byte	0x1
	.4byte	.LASF416
	.byte	0x10
	.2byte	0x174
	.4byte	.LASF417
	.4byte	0x1b52
	.byte	0x1
	.4byte	0x20c6
	.uleb128 0x19
	.4byte	0x2245
	.byte	0x1
	.byte	0x0
	.uleb128 0x33
	.byte	0x1
	.4byte	.LASF416
	.byte	0x10
	.2byte	0x175
	.4byte	.LASF418
	.4byte	0x1b58
	.byte	0x1
	.4byte	0x20e3
	.uleb128 0x19
	.4byte	0x223f
	.byte	0x1
	.byte	0x0
	.uleb128 0x33
	.byte	0x1
	.4byte	.LASF363
	.byte	0x10
	.2byte	0x176
	.4byte	.LASF419
	.4byte	0x15cf
	.byte	0x1
	.4byte	0x2100
	.uleb128 0x19
	.4byte	0x2245
	.byte	0x1
	.byte	0x0
	.uleb128 0x33
	.byte	0x1
	.4byte	.LASF363
	.byte	0x10
	.2byte	0x177
	.4byte	.LASF420
	.4byte	0x16e2
	.byte	0x1
	.4byte	0x211d
	.uleb128 0x19
	.4byte	0x223f
	.byte	0x1
	.byte	0x0
	.uleb128 0x33
	.byte	0x1
	.4byte	.LASF366
	.byte	0x10
	.2byte	0x178
	.4byte	.LASF421
	.4byte	0xe6
	.byte	0x1
	.4byte	0x213f
	.uleb128 0x19
	.4byte	0x2245
	.byte	0x1
	.uleb128 0x1b
	.4byte	0xa7
	.byte	0x0
	.uleb128 0x32
	.byte	0x1
	.4byte	.LASF422
	.byte	0x10
	.2byte	0x17a
	.4byte	.LASF423
	.byte	0x1
	.4byte	0x2162
	.uleb128 0x19
	.4byte	0x2245
	.byte	0x1
	.uleb128 0x1b
	.4byte	0x2250
	.uleb128 0x1b
	.4byte	0x2250
	.byte	0x0
	.uleb128 0x32
	.byte	0x1
	.4byte	.LASF424
	.byte	0x10
	.2byte	0x17b
	.4byte	.LASF425
	.byte	0x1
	.4byte	0x2185
	.uleb128 0x19
	.4byte	0x2245
	.byte	0x1
	.uleb128 0x1b
	.4byte	0x2250
	.uleb128 0x1b
	.4byte	0x2250
	.byte	0x0
	.uleb128 0x32
	.byte	0x1
	.4byte	.LASF426
	.byte	0x10
	.2byte	0x17d
	.4byte	.LASF427
	.byte	0x1
	.4byte	0x21a8
	.uleb128 0x19
	.4byte	0x223f
	.byte	0x1
	.uleb128 0x1b
	.4byte	0x2256
	.uleb128 0x1b
	.4byte	0x10a
	.byte	0x0
	.uleb128 0x33
	.byte	0x1
	.4byte	.LASF428
	.byte	0x10
	.2byte	0x17e
	.4byte	.LASF429
	.4byte	0x13b9
	.byte	0x1
	.4byte	0x21d4
	.uleb128 0x19
	.4byte	0x223f
	.byte	0x1
	.uleb128 0x1b
	.4byte	0x2256
	.uleb128 0x1b
	.4byte	0x10a
	.uleb128 0x1b
	.4byte	0x10a
	.byte	0x0
	.uleb128 0x32
	.byte	0x1
	.4byte	.LASF430
	.byte	0x10
	.2byte	0x17f
	.4byte	.LASF431
	.byte	0x1
	.4byte	0x21f2
	.uleb128 0x19
	.4byte	0x223f
	.byte	0x1
	.uleb128 0x1b
	.4byte	0x10a
	.byte	0x0
	.uleb128 0x32
	.byte	0x1
	.4byte	.LASF368
	.byte	0x10
	.2byte	0x181
	.4byte	.LASF432
	.byte	0x1
	.4byte	0x221a
	.uleb128 0x19
	.4byte	0x223f
	.byte	0x1
	.uleb128 0x1b
	.4byte	0x2256
	.uleb128 0x1b
	.4byte	0x2256
	.uleb128 0x1b
	.4byte	0x10a
	.byte	0x0
	.uleb128 0x34
	.byte	0x1
	.4byte	.LASF433
	.byte	0x10
	.2byte	0x182
	.4byte	.LASF597
	.byte	0x1
	.uleb128 0x19
	.4byte	0x223f
	.byte	0x1
	.uleb128 0x1b
	.4byte	0x2256
	.uleb128 0x1b
	.4byte	0x2256
	.uleb128 0x1b
	.4byte	0x10a
	.byte	0x0
	.byte	0x0
	.uleb128 0xc
	.byte	0x4
	.4byte	0x1b5e
	.uleb128 0xc
	.byte	0x4
	.4byte	0x224b
	.uleb128 0xd
	.4byte	0x1b5e
	.uleb128 0x24
	.byte	0x4
	.4byte	0x1b5e
	.uleb128 0x24
	.byte	0x4
	.4byte	0x224b
	.uleb128 0x5
	.4byte	.LASF434
	.byte	0xc
	.byte	0x1b
	.byte	0x33
	.4byte	0x26d0
	.uleb128 0x7
	.4byte	.LASF435
	.byte	0x1b
	.byte	0x35
	.4byte	0x10a
	.byte	0x2
	.byte	0x23
	.uleb128 0x0
	.uleb128 0x6
	.string	"yaw"
	.byte	0x1b
	.byte	0x36
	.4byte	0x10a
	.byte	0x2
	.byte	0x23
	.uleb128 0x4
	.uleb128 0x7
	.4byte	.LASF436
	.byte	0x1b
	.byte	0x37
	.4byte	0x10a
	.byte	0x2
	.byte	0x23
	.uleb128 0x8
	.uleb128 0x29
	.byte	0x1
	.4byte	.LASF434
	.byte	0x1b
	.byte	0x39
	.byte	0x1
	.4byte	0x22a6
	.uleb128 0x19
	.4byte	0x76cc
	.byte	0x1
	.byte	0x0
	.uleb128 0x29
	.byte	0x1
	.4byte	.LASF434
	.byte	0x1b
	.byte	0x3a
	.byte	0x1
	.4byte	0x22c9
	.uleb128 0x19
	.4byte	0x76cc
	.byte	0x1
	.uleb128 0x1b
	.4byte	0x10a
	.uleb128 0x1b
	.4byte	0x10a
	.uleb128 0x1b
	.4byte	0x10a
	.byte	0x0
	.uleb128 0x29
	.byte	0x1
	.4byte	.LASF434
	.byte	0x1b
	.byte	0x3b
	.byte	0x1
	.4byte	0x22e2
	.uleb128 0x19
	.4byte	0x76cc
	.byte	0x1
	.uleb128 0x1b
	.4byte	0x2256
	.byte	0x0
	.uleb128 0x2e
	.byte	0x1
	.string	"Set"
	.byte	0x1b
	.byte	0x3d
	.4byte	.LASF438
	.byte	0x1
	.4byte	0x2309
	.uleb128 0x19
	.4byte	0x76cc
	.byte	0x1
	.uleb128 0x1b
	.4byte	0x10a
	.uleb128 0x1b
	.4byte	0x10a
	.uleb128 0x1b
	.4byte	0x10a
	.byte	0x0
	.uleb128 0x2b
	.byte	0x1
	.4byte	.LASF312
	.byte	0x1b
	.byte	0x3e
	.4byte	.LASF439
	.4byte	0x76d2
	.byte	0x1
	.4byte	0x2325
	.uleb128 0x19
	.4byte	0x76cc
	.byte	0x1
	.byte	0x0
	.uleb128 0x2b
	.byte	0x1
	.4byte	.LASF314
	.byte	0x1b
	.byte	0x40
	.4byte	.LASF440
	.4byte	0x10a
	.byte	0x1
	.4byte	0x2346
	.uleb128 0x19
	.4byte	0x76d8
	.byte	0x1
	.uleb128 0x1b
	.4byte	0xa7
	.byte	0x0
	.uleb128 0x2b
	.byte	0x1
	.4byte	.LASF314
	.byte	0x1b
	.byte	0x41
	.4byte	.LASF441
	.4byte	0x15c9
	.byte	0x1
	.4byte	0x2367
	.uleb128 0x19
	.4byte	0x76cc
	.byte	0x1
	.uleb128 0x1b
	.4byte	0xa7
	.byte	0x0
	.uleb128 0x2b
	.byte	0x1
	.4byte	.LASF317
	.byte	0x1b
	.byte	0x42
	.4byte	.LASF442
	.4byte	0x225c
	.byte	0x1
	.4byte	0x2383
	.uleb128 0x19
	.4byte	0x76d8
	.byte	0x1
	.byte	0x0
	.uleb128 0x2b
	.byte	0x1
	.4byte	.LASF281
	.byte	0x1b
	.byte	0x43
	.4byte	.LASF443
	.4byte	0x76d2
	.byte	0x1
	.4byte	0x23a4
	.uleb128 0x19
	.4byte	0x76cc
	.byte	0x1
	.uleb128 0x1b
	.4byte	0x76e3
	.byte	0x0
	.uleb128 0x2b
	.byte	0x1
	.4byte	.LASF324
	.byte	0x1b
	.byte	0x44
	.4byte	.LASF444
	.4byte	0x225c
	.byte	0x1
	.4byte	0x23c5
	.uleb128 0x19
	.4byte	0x76d8
	.byte	0x1
	.uleb128 0x1b
	.4byte	0x76e3
	.byte	0x0
	.uleb128 0x2b
	.byte	0x1
	.4byte	.LASF327
	.byte	0x1b
	.byte	0x45
	.4byte	.LASF445
	.4byte	0x76d2
	.byte	0x1
	.4byte	0x23e6
	.uleb128 0x19
	.4byte	0x76cc
	.byte	0x1
	.uleb128 0x1b
	.4byte	0x76e3
	.byte	0x0
	.uleb128 0x2b
	.byte	0x1
	.4byte	.LASF317
	.byte	0x1b
	.byte	0x46
	.4byte	.LASF446
	.4byte	0x225c
	.byte	0x1
	.4byte	0x2407
	.uleb128 0x19
	.4byte	0x76d8
	.byte	0x1
	.uleb128 0x1b
	.4byte	0x76e3
	.byte	0x0
	.uleb128 0x2b
	.byte	0x1
	.4byte	.LASF329
	.byte	0x1b
	.byte	0x47
	.4byte	.LASF447
	.4byte	0x76d2
	.byte	0x1
	.4byte	0x2428
	.uleb128 0x19
	.4byte	0x76cc
	.byte	0x1
	.uleb128 0x1b
	.4byte	0x76e3
	.byte	0x0
	.uleb128 0x2b
	.byte	0x1
	.4byte	.LASF319
	.byte	0x1b
	.byte	0x48
	.4byte	.LASF448
	.4byte	0x225c
	.byte	0x1
	.4byte	0x2449
	.uleb128 0x19
	.4byte	0x76d8
	.byte	0x1
	.uleb128 0x1b
	.4byte	0x10a
	.byte	0x0
	.uleb128 0x2b
	.byte	0x1
	.4byte	.LASF334
	.byte	0x1b
	.byte	0x49
	.4byte	.LASF449
	.4byte	0x76d2
	.byte	0x1
	.4byte	0x246a
	.uleb128 0x19
	.4byte	0x76cc
	.byte	0x1
	.uleb128 0x1b
	.4byte	0x10a
	.byte	0x0
	.uleb128 0x2b
	.byte	0x1
	.4byte	.LASF322
	.byte	0x1b
	.byte	0x4a
	.4byte	.LASF450
	.4byte	0x225c
	.byte	0x1
	.4byte	0x248b
	.uleb128 0x19
	.4byte	0x76d8
	.byte	0x1
	.uleb128 0x1b
	.4byte	0x10a
	.byte	0x0
	.uleb128 0x2b
	.byte	0x1
	.4byte	.LASF331
	.byte	0x1b
	.byte	0x4b
	.4byte	.LASF451
	.4byte	0x76d2
	.byte	0x1
	.4byte	0x24ac
	.uleb128 0x19
	.4byte	0x76cc
	.byte	0x1
	.uleb128 0x1b
	.4byte	0x10a
	.byte	0x0
	.uleb128 0x2b
	.byte	0x1
	.4byte	.LASF336
	.byte	0x1b
	.byte	0x4f
	.4byte	.LASF452
	.4byte	0x13b9
	.byte	0x1
	.4byte	0x24cd
	.uleb128 0x19
	.4byte	0x76d8
	.byte	0x1
	.uleb128 0x1b
	.4byte	0x76e3
	.byte	0x0
	.uleb128 0x2b
	.byte	0x1
	.4byte	.LASF336
	.byte	0x1b
	.byte	0x50
	.4byte	.LASF453
	.4byte	0x13b9
	.byte	0x1
	.4byte	0x24f3
	.uleb128 0x19
	.4byte	0x76d8
	.byte	0x1
	.uleb128 0x1b
	.4byte	0x76e3
	.uleb128 0x1b
	.4byte	0x10a
	.byte	0x0
	.uleb128 0x2b
	.byte	0x1
	.4byte	.LASF339
	.byte	0x1b
	.byte	0x51
	.4byte	.LASF454
	.4byte	0x13b9
	.byte	0x1
	.4byte	0x2514
	.uleb128 0x19
	.4byte	0x76d8
	.byte	0x1
	.uleb128 0x1b
	.4byte	0x76e3
	.byte	0x0
	.uleb128 0x2b
	.byte	0x1
	.4byte	.LASF341
	.byte	0x1b
	.byte	0x52
	.4byte	.LASF455
	.4byte	0x13b9
	.byte	0x1
	.4byte	0x2535
	.uleb128 0x19
	.4byte	0x76d8
	.byte	0x1
	.uleb128 0x1b
	.4byte	0x76e3
	.byte	0x0
	.uleb128 0x2b
	.byte	0x1
	.4byte	.LASF456
	.byte	0x1b
	.byte	0x54
	.4byte	.LASF457
	.4byte	0x76d2
	.byte	0x1
	.4byte	0x2551
	.uleb128 0x19
	.4byte	0x76cc
	.byte	0x1
	.byte	0x0
	.uleb128 0x2b
	.byte	0x1
	.4byte	.LASF458
	.byte	0x1b
	.byte	0x55
	.4byte	.LASF459
	.4byte	0x76d2
	.byte	0x1
	.4byte	0x256d
	.uleb128 0x19
	.4byte	0x76cc
	.byte	0x1
	.byte	0x0
	.uleb128 0x2a
	.byte	0x1
	.4byte	.LASF355
	.byte	0x1b
	.byte	0x57
	.4byte	.LASF460
	.byte	0x1
	.4byte	0x258f
	.uleb128 0x19
	.4byte	0x76cc
	.byte	0x1
	.uleb128 0x1b
	.4byte	0x76e3
	.uleb128 0x1b
	.4byte	0x76e3
	.byte	0x0
	.uleb128 0x2b
	.byte	0x1
	.4byte	.LASF361
	.byte	0x1b
	.byte	0x59
	.4byte	.LASF461
	.4byte	0xa7
	.byte	0x1
	.4byte	0x25ab
	.uleb128 0x19
	.4byte	0x76d8
	.byte	0x1
	.byte	0x0
	.uleb128 0x2a
	.byte	0x1
	.4byte	.LASF462
	.byte	0x1b
	.byte	0x5b
	.4byte	.LASF463
	.byte	0x1
	.4byte	0x25d2
	.uleb128 0x19
	.4byte	0x76d8
	.byte	0x1
	.uleb128 0x1b
	.4byte	0x223f
	.uleb128 0x1b
	.4byte	0x223f
	.uleb128 0x1b
	.4byte	0x223f
	.byte	0x0
	.uleb128 0x2b
	.byte	0x1
	.4byte	.LASF464
	.byte	0x1b
	.byte	0x5c
	.4byte	.LASF465
	.4byte	0x1b5e
	.byte	0x1
	.4byte	0x25ee
	.uleb128 0x19
	.4byte	0x76d8
	.byte	0x1
	.byte	0x0
	.uleb128 0x2b
	.byte	0x1
	.4byte	.LASF466
	.byte	0x1b
	.byte	0x5d
	.4byte	.LASF467
	.4byte	0x4584
	.byte	0x1
	.4byte	0x260a
	.uleb128 0x19
	.4byte	0x76d8
	.byte	0x1
	.byte	0x0
	.uleb128 0x2b
	.byte	0x1
	.4byte	.LASF468
	.byte	0x1b
	.byte	0x5e
	.4byte	.LASF469
	.4byte	0x4c7b
	.byte	0x1
	.4byte	0x2626
	.uleb128 0x19
	.4byte	0x76d8
	.byte	0x1
	.byte	0x0
	.uleb128 0x2b
	.byte	0x1
	.4byte	.LASF414
	.byte	0x1b
	.byte	0x5f
	.4byte	.LASF470
	.4byte	0x2808
	.byte	0x1
	.4byte	0x2642
	.uleb128 0x19
	.4byte	0x76d8
	.byte	0x1
	.byte	0x0
	.uleb128 0x2b
	.byte	0x1
	.4byte	.LASF471
	.byte	0x1b
	.byte	0x60
	.4byte	.LASF472
	.4byte	0x4fce
	.byte	0x1
	.4byte	0x265e
	.uleb128 0x19
	.4byte	0x76d8
	.byte	0x1
	.byte	0x0
	.uleb128 0x2b
	.byte	0x1
	.4byte	.LASF473
	.byte	0x1b
	.byte	0x61
	.4byte	.LASF474
	.4byte	0x1b5e
	.byte	0x1
	.4byte	0x267a
	.uleb128 0x19
	.4byte	0x76d8
	.byte	0x1
	.byte	0x0
	.uleb128 0x2b
	.byte	0x1
	.4byte	.LASF363
	.byte	0x1b
	.byte	0x62
	.4byte	.LASF475
	.4byte	0x15cf
	.byte	0x1
	.4byte	0x2696
	.uleb128 0x19
	.4byte	0x76d8
	.byte	0x1
	.byte	0x0
	.uleb128 0x2b
	.byte	0x1
	.4byte	.LASF363
	.byte	0x1b
	.byte	0x63
	.4byte	.LASF476
	.4byte	0x16e2
	.byte	0x1
	.4byte	0x26b2
	.uleb128 0x19
	.4byte	0x76cc
	.byte	0x1
	.byte	0x0
	.uleb128 0x2c
	.byte	0x1
	.4byte	.LASF366
	.byte	0x1b
	.byte	0x64
	.4byte	.LASF477
	.4byte	0xe6
	.byte	0x1
	.uleb128 0x19
	.4byte	0x76d8
	.byte	0x1
	.uleb128 0x1b
	.4byte	0xa7
	.byte	0x0
	.byte	0x0
	.uleb128 0x11
	.4byte	.LASF478
	.byte	0xc
	.byte	0x10
	.2byte	0x785
	.4byte	0x2808
	.uleb128 0x12
	.4byte	.LASF479
	.byte	0x10
	.2byte	0x787
	.4byte	0x10a
	.byte	0x2
	.byte	0x23
	.uleb128 0x0
	.uleb128 0x12
	.4byte	.LASF480
	.byte	0x10
	.2byte	0x787
	.4byte	0x10a
	.byte	0x2
	.byte	0x23
	.uleb128 0x4
	.uleb128 0x14
	.string	"phi"
	.byte	0x10
	.2byte	0x787
	.4byte	0x10a
	.byte	0x2
	.byte	0x23
	.uleb128 0x8
	.uleb128 0x30
	.byte	0x1
	.4byte	.LASF478
	.byte	0x10
	.2byte	0x789
	.byte	0x1
	.4byte	0x271f
	.uleb128 0x19
	.4byte	0x405e
	.byte	0x1
	.byte	0x0
	.uleb128 0x30
	.byte	0x1
	.4byte	.LASF478
	.byte	0x10
	.2byte	0x78a
	.byte	0x1
	.4byte	0x2743
	.uleb128 0x19
	.4byte	0x405e
	.byte	0x1
	.uleb128 0x1b
	.4byte	0x10a
	.uleb128 0x1b
	.4byte	0x10a
	.uleb128 0x1b
	.4byte	0x10a
	.byte	0x0
	.uleb128 0x31
	.byte	0x1
	.string	"Set"
	.byte	0x10
	.2byte	0x78c
	.4byte	.LASF482
	.byte	0x1
	.4byte	0x276b
	.uleb128 0x19
	.4byte	0x405e
	.byte	0x1
	.uleb128 0x1b
	.4byte	0x10a
	.uleb128 0x1b
	.4byte	0x10a
	.uleb128 0x1b
	.4byte	0x10a
	.byte	0x0
	.uleb128 0x33
	.byte	0x1
	.4byte	.LASF314
	.byte	0x10
	.2byte	0x78e
	.4byte	.LASF483
	.4byte	0x10a
	.byte	0x1
	.4byte	0x278d
	.uleb128 0x19
	.4byte	0x4064
	.byte	0x1
	.uleb128 0x1b
	.4byte	0xa7
	.byte	0x0
	.uleb128 0x33
	.byte	0x1
	.4byte	.LASF314
	.byte	0x10
	.2byte	0x78f
	.4byte	.LASF484
	.4byte	0x15c9
	.byte	0x1
	.4byte	0x27af
	.uleb128 0x19
	.4byte	0x405e
	.byte	0x1
	.uleb128 0x1b
	.4byte	0xa7
	.byte	0x0
	.uleb128 0x33
	.byte	0x1
	.4byte	.LASF317
	.byte	0x10
	.2byte	0x790
	.4byte	.LASF485
	.4byte	0x26d0
	.byte	0x1
	.4byte	0x27cc
	.uleb128 0x19
	.4byte	0x4064
	.byte	0x1
	.byte	0x0
	.uleb128 0x33
	.byte	0x1
	.4byte	.LASF281
	.byte	0x10
	.2byte	0x791
	.4byte	.LASF486
	.4byte	0x406f
	.byte	0x1
	.4byte	0x27ee
	.uleb128 0x19
	.4byte	0x405e
	.byte	0x1
	.uleb128 0x1b
	.4byte	0x4075
	.byte	0x0
	.uleb128 0x35
	.byte	0x1
	.4byte	.LASF487
	.byte	0x10
	.2byte	0x793
	.4byte	.LASF488
	.4byte	0x1b5e
	.byte	0x1
	.uleb128 0x19
	.4byte	0x4064
	.byte	0x1
	.byte	0x0
	.byte	0x0
	.uleb128 0x11
	.4byte	.LASF489
	.byte	0x24
	.byte	0x1c
	.2byte	0x14d
	.4byte	0x2f13
	.uleb128 0x36
	.string	"mat"
	.byte	0x1c
	.2byte	0x198
	.4byte	0x4541
	.byte	0x2
	.byte	0x23
	.uleb128 0x0
	.byte	0x3
	.uleb128 0x30
	.byte	0x1
	.4byte	.LASF489
	.byte	0x1c
	.2byte	0x14f
	.byte	0x1
	.4byte	0x283a
	.uleb128 0x19
	.4byte	0x4551
	.byte	0x1
	.byte	0x0
	.uleb128 0x30
	.byte	0x1
	.4byte	.LASF489
	.byte	0x1c
	.2byte	0x150
	.byte	0x1
	.4byte	0x285e
	.uleb128 0x19
	.4byte	0x4551
	.byte	0x1
	.uleb128 0x1b
	.4byte	0x2256
	.uleb128 0x1b
	.4byte	0x2256
	.uleb128 0x1b
	.4byte	0x2256
	.byte	0x0
	.uleb128 0x30
	.byte	0x1
	.4byte	.LASF489
	.byte	0x1c
	.2byte	0x151
	.byte	0x1
	.4byte	0x28a0
	.uleb128 0x19
	.4byte	0x4551
	.byte	0x1
	.uleb128 0x1b
	.4byte	0x10a
	.uleb128 0x1b
	.4byte	0x10a
	.uleb128 0x1b
	.4byte	0x10a
	.uleb128 0x1b
	.4byte	0x10a
	.uleb128 0x1b
	.4byte	0x10a
	.uleb128 0x1b
	.4byte	0x10a
	.uleb128 0x1b
	.4byte	0x10a
	.uleb128 0x1b
	.4byte	0x10a
	.uleb128 0x1b
	.4byte	0x10a
	.byte	0x0
	.uleb128 0x30
	.byte	0x1
	.4byte	.LASF489
	.byte	0x1c
	.2byte	0x152
	.byte	0x1
	.4byte	0x28ba
	.uleb128 0x19
	.4byte	0x4551
	.byte	0x1
	.uleb128 0x1b
	.4byte	0x4557
	.byte	0x0
	.uleb128 0x33
	.byte	0x1
	.4byte	.LASF314
	.byte	0x1c
	.2byte	0x154
	.4byte	.LASF490
	.4byte	0x2256
	.byte	0x1
	.4byte	0x28dc
	.uleb128 0x19
	.4byte	0x456d
	.byte	0x1
	.uleb128 0x1b
	.4byte	0xa7
	.byte	0x0
	.uleb128 0x33
	.byte	0x1
	.4byte	.LASF314
	.byte	0x1c
	.2byte	0x155
	.4byte	.LASF491
	.4byte	0x2250
	.byte	0x1
	.4byte	0x28fe
	.uleb128 0x19
	.4byte	0x4551
	.byte	0x1
	.uleb128 0x1b
	.4byte	0xa7
	.byte	0x0
	.uleb128 0x33
	.byte	0x1
	.4byte	.LASF317
	.byte	0x1c
	.2byte	0x156
	.4byte	.LASF492
	.4byte	0x2808
	.byte	0x1
	.4byte	0x291b
	.uleb128 0x19
	.4byte	0x456d
	.byte	0x1
	.byte	0x0
	.uleb128 0x33
	.byte	0x1
	.4byte	.LASF319
	.byte	0x1c
	.2byte	0x157
	.4byte	.LASF493
	.4byte	0x2808
	.byte	0x1
	.4byte	0x293d
	.uleb128 0x19
	.4byte	0x456d
	.byte	0x1
	.uleb128 0x1b
	.4byte	0x10a
	.byte	0x0
	.uleb128 0x33
	.byte	0x1
	.4byte	.LASF319
	.byte	0x1c
	.2byte	0x158
	.4byte	.LASF494
	.4byte	0x1b5e
	.byte	0x1
	.4byte	0x295f
	.uleb128 0x19
	.4byte	0x456d
	.byte	0x1
	.uleb128 0x1b
	.4byte	0x2256
	.byte	0x0
	.uleb128 0x33
	.byte	0x1
	.4byte	.LASF319
	.byte	0x1c
	.2byte	0x159
	.4byte	.LASF495
	.4byte	0x2808
	.byte	0x1
	.4byte	0x2981
	.uleb128 0x19
	.4byte	0x456d
	.byte	0x1
	.uleb128 0x1b
	.4byte	0x4578
	.byte	0x0
	.uleb128 0x33
	.byte	0x1
	.4byte	.LASF324
	.byte	0x1c
	.2byte	0x15a
	.4byte	.LASF496
	.4byte	0x2808
	.byte	0x1
	.4byte	0x29a3
	.uleb128 0x19
	.4byte	0x456d
	.byte	0x1
	.uleb128 0x1b
	.4byte	0x4578
	.byte	0x0
	.uleb128 0x33
	.byte	0x1
	.4byte	.LASF317
	.byte	0x1c
	.2byte	0x15b
	.4byte	.LASF497
	.4byte	0x2808
	.byte	0x1
	.4byte	0x29c5
	.uleb128 0x19
	.4byte	0x456d
	.byte	0x1
	.uleb128 0x1b
	.4byte	0x4578
	.byte	0x0
	.uleb128 0x33
	.byte	0x1
	.4byte	.LASF334
	.byte	0x1c
	.2byte	0x15c
	.4byte	.LASF498
	.4byte	0x457e
	.byte	0x1
	.4byte	0x29e7
	.uleb128 0x19
	.4byte	0x4551
	.byte	0x1
	.uleb128 0x1b
	.4byte	0x10a
	.byte	0x0
	.uleb128 0x33
	.byte	0x1
	.4byte	.LASF334
	.byte	0x1c
	.2byte	0x15d
	.4byte	.LASF499
	.4byte	0x457e
	.byte	0x1
	.4byte	0x2a09
	.uleb128 0x19
	.4byte	0x4551
	.byte	0x1
	.uleb128 0x1b
	.4byte	0x4578
	.byte	0x0
	.uleb128 0x33
	.byte	0x1
	.4byte	.LASF327
	.byte	0x1c
	.2byte	0x15e
	.4byte	.LASF500
	.4byte	0x457e
	.byte	0x1
	.4byte	0x2a2b
	.uleb128 0x19
	.4byte	0x4551
	.byte	0x1
	.uleb128 0x1b
	.4byte	0x4578
	.byte	0x0
	.uleb128 0x33
	.byte	0x1
	.4byte	.LASF329
	.byte	0x1c
	.2byte	0x15f
	.4byte	.LASF501
	.4byte	0x457e
	.byte	0x1
	.4byte	0x2a4d
	.uleb128 0x19
	.4byte	0x4551
	.byte	0x1
	.uleb128 0x1b
	.4byte	0x4578
	.byte	0x0
	.uleb128 0x33
	.byte	0x1
	.4byte	.LASF336
	.byte	0x1c
	.2byte	0x165
	.4byte	.LASF502
	.4byte	0x13b9
	.byte	0x1
	.4byte	0x2a6f
	.uleb128 0x19
	.4byte	0x456d
	.byte	0x1
	.uleb128 0x1b
	.4byte	0x4578
	.byte	0x0
	.uleb128 0x33
	.byte	0x1
	.4byte	.LASF336
	.byte	0x1c
	.2byte	0x166
	.4byte	.LASF503
	.4byte	0x13b9
	.byte	0x1
	.4byte	0x2a96
	.uleb128 0x19
	.4byte	0x456d
	.byte	0x1
	.uleb128 0x1b
	.4byte	0x4578
	.uleb128 0x1b
	.4byte	0x10a
	.byte	0x0
	.uleb128 0x33
	.byte	0x1
	.4byte	.LASF339
	.byte	0x1c
	.2byte	0x167
	.4byte	.LASF504
	.4byte	0x13b9
	.byte	0x1
	.4byte	0x2ab8
	.uleb128 0x19
	.4byte	0x456d
	.byte	0x1
	.uleb128 0x1b
	.4byte	0x4578
	.byte	0x0
	.uleb128 0x33
	.byte	0x1
	.4byte	.LASF341
	.byte	0x1c
	.2byte	0x168
	.4byte	.LASF505
	.4byte	0x13b9
	.byte	0x1
	.4byte	0x2ada
	.uleb128 0x19
	.4byte	0x456d
	.byte	0x1
	.uleb128 0x1b
	.4byte	0x4578
	.byte	0x0
	.uleb128 0x32
	.byte	0x1
	.4byte	.LASF312
	.byte	0x1c
	.2byte	0x16a
	.4byte	.LASF506
	.byte	0x1
	.4byte	0x2af3
	.uleb128 0x19
	.4byte	0x4551
	.byte	0x1
	.byte	0x0
	.uleb128 0x32
	.byte	0x1
	.4byte	.LASF507
	.byte	0x1c
	.2byte	0x16b
	.4byte	.LASF508
	.byte	0x1
	.4byte	0x2b0c
	.uleb128 0x19
	.4byte	0x4551
	.byte	0x1
	.byte	0x0
	.uleb128 0x33
	.byte	0x1
	.4byte	.LASF509
	.byte	0x1c
	.2byte	0x16c
	.4byte	.LASF510
	.4byte	0x13b9
	.byte	0x1
	.4byte	0x2b2e
	.uleb128 0x19
	.4byte	0x456d
	.byte	0x1
	.uleb128 0x1b
	.4byte	0x10a
	.byte	0x0
	.uleb128 0x33
	.byte	0x1
	.4byte	.LASF511
	.byte	0x1c
	.2byte	0x16d
	.4byte	.LASF512
	.4byte	0x13b9
	.byte	0x1
	.4byte	0x2b50
	.uleb128 0x19
	.4byte	0x456d
	.byte	0x1
	.uleb128 0x1b
	.4byte	0x10a
	.byte	0x0
	.uleb128 0x33
	.byte	0x1
	.4byte	.LASF513
	.byte	0x1c
	.2byte	0x16e
	.4byte	.LASF514
	.4byte	0x13b9
	.byte	0x1
	.4byte	0x2b72
	.uleb128 0x19
	.4byte	0x456d
	.byte	0x1
	.uleb128 0x1b
	.4byte	0x10a
	.byte	0x0
	.uleb128 0x33
	.byte	0x1
	.4byte	.LASF515
	.byte	0x1c
	.2byte	0x16f
	.4byte	.LASF516
	.4byte	0x13b9
	.byte	0x1
	.4byte	0x2b8f
	.uleb128 0x19
	.4byte	0x456d
	.byte	0x1
	.byte	0x0
	.uleb128 0x32
	.byte	0x1
	.4byte	.LASF517
	.byte	0x1c
	.2byte	0x171
	.4byte	.LASF518
	.byte	0x1
	.4byte	0x2bb2
	.uleb128 0x19
	.4byte	0x456d
	.byte	0x1
	.uleb128 0x1b
	.4byte	0x2256
	.uleb128 0x1b
	.4byte	0x2250
	.byte	0x0
	.uleb128 0x32
	.byte	0x1
	.4byte	.LASF519
	.byte	0x1c
	.2byte	0x172
	.4byte	.LASF520
	.byte	0x1
	.4byte	0x2bd5
	.uleb128 0x19
	.4byte	0x456d
	.byte	0x1
	.uleb128 0x1b
	.4byte	0x2256
	.uleb128 0x1b
	.4byte	0x2250
	.byte	0x0
	.uleb128 0x33
	.byte	0x1
	.4byte	.LASF521
	.byte	0x1c
	.2byte	0x174
	.4byte	.LASF522
	.4byte	0x13b9
	.byte	0x1
	.4byte	0x2bf2
	.uleb128 0x19
	.4byte	0x4551
	.byte	0x1
	.byte	0x0
	.uleb128 0x33
	.byte	0x1
	.4byte	.LASF390
	.byte	0x1c
	.2byte	0x175
	.4byte	.LASF523
	.4byte	0x13b9
	.byte	0x1
	.4byte	0x2c0f
	.uleb128 0x19
	.4byte	0x4551
	.byte	0x1
	.byte	0x0
	.uleb128 0x33
	.byte	0x1
	.4byte	.LASF524
	.byte	0x1c
	.2byte	0x177
	.4byte	.LASF525
	.4byte	0x10a
	.byte	0x1
	.4byte	0x2c2c
	.uleb128 0x19
	.4byte	0x456d
	.byte	0x1
	.byte	0x0
	.uleb128 0x33
	.byte	0x1
	.4byte	.LASF526
	.byte	0x1c
	.2byte	0x178
	.4byte	.LASF527
	.4byte	0x10a
	.byte	0x1
	.4byte	0x2c49
	.uleb128 0x19
	.4byte	0x456d
	.byte	0x1
	.byte	0x0
	.uleb128 0x33
	.byte	0x1
	.4byte	.LASF528
	.byte	0x1c
	.2byte	0x179
	.4byte	.LASF529
	.4byte	0x2808
	.byte	0x1
	.4byte	0x2c66
	.uleb128 0x19
	.4byte	0x456d
	.byte	0x1
	.byte	0x0
	.uleb128 0x33
	.byte	0x1
	.4byte	.LASF530
	.byte	0x1c
	.2byte	0x17a
	.4byte	.LASF531
	.4byte	0x457e
	.byte	0x1
	.4byte	0x2c83
	.uleb128 0x19
	.4byte	0x4551
	.byte	0x1
	.byte	0x0
	.uleb128 0x33
	.byte	0x1
	.4byte	.LASF532
	.byte	0x1c
	.2byte	0x17b
	.4byte	.LASF533
	.4byte	0x2808
	.byte	0x1
	.4byte	0x2ca0
	.uleb128 0x19
	.4byte	0x456d
	.byte	0x1
	.byte	0x0
	.uleb128 0x33
	.byte	0x1
	.4byte	.LASF534
	.byte	0x1c
	.2byte	0x17c
	.4byte	.LASF535
	.4byte	0x457e
	.byte	0x1
	.4byte	0x2cbd
	.uleb128 0x19
	.4byte	0x4551
	.byte	0x1
	.byte	0x0
	.uleb128 0x33
	.byte	0x1
	.4byte	.LASF536
	.byte	0x1c
	.2byte	0x17d
	.4byte	.LASF537
	.4byte	0x2808
	.byte	0x1
	.4byte	0x2cda
	.uleb128 0x19
	.4byte	0x456d
	.byte	0x1
	.byte	0x0
	.uleb128 0x33
	.byte	0x1
	.4byte	.LASF538
	.byte	0x1c
	.2byte	0x17e
	.4byte	.LASF539
	.4byte	0x13b9
	.byte	0x1
	.4byte	0x2cf7
	.uleb128 0x19
	.4byte	0x4551
	.byte	0x1
	.byte	0x0
	.uleb128 0x33
	.byte	0x1
	.4byte	.LASF540
	.byte	0x1c
	.2byte	0x17f
	.4byte	.LASF541
	.4byte	0x2808
	.byte	0x1
	.4byte	0x2d14
	.uleb128 0x19
	.4byte	0x456d
	.byte	0x1
	.byte	0x0
	.uleb128 0x33
	.byte	0x1
	.4byte	.LASF542
	.byte	0x1c
	.2byte	0x180
	.4byte	.LASF543
	.4byte	0x13b9
	.byte	0x1
	.4byte	0x2d31
	.uleb128 0x19
	.4byte	0x4551
	.byte	0x1
	.byte	0x0
	.uleb128 0x33
	.byte	0x1
	.4byte	.LASF544
	.byte	0x1c
	.2byte	0x181
	.4byte	.LASF545
	.4byte	0x2808
	.byte	0x1
	.4byte	0x2d53
	.uleb128 0x19
	.4byte	0x456d
	.byte	0x1
	.uleb128 0x1b
	.4byte	0x4578
	.byte	0x0
	.uleb128 0x33
	.byte	0x1
	.4byte	.LASF546
	.byte	0x1c
	.2byte	0x183
	.4byte	.LASF547
	.4byte	0x2808
	.byte	0x1
	.4byte	0x2d7f
	.uleb128 0x19
	.4byte	0x456d
	.byte	0x1
	.uleb128 0x1b
	.4byte	0x10a
	.uleb128 0x1b
	.4byte	0x2256
	.uleb128 0x1b
	.4byte	0x2256
	.byte	0x0
	.uleb128 0x33
	.byte	0x1
	.4byte	.LASF548
	.byte	0x1c
	.2byte	0x184
	.4byte	.LASF549
	.4byte	0x457e
	.byte	0x1
	.4byte	0x2dab
	.uleb128 0x19
	.4byte	0x4551
	.byte	0x1
	.uleb128 0x1b
	.4byte	0x10a
	.uleb128 0x1b
	.4byte	0x2256
	.uleb128 0x1b
	.4byte	0x2256
	.byte	0x0
	.uleb128 0x33
	.byte	0x1
	.4byte	.LASF550
	.byte	0x1c
	.2byte	0x185
	.4byte	.LASF551
	.4byte	0x2808
	.byte	0x1
	.4byte	0x2dcd
	.uleb128 0x19
	.4byte	0x456d
	.byte	0x1
	.uleb128 0x1b
	.4byte	0x4578
	.byte	0x0
	.uleb128 0x33
	.byte	0x1
	.4byte	.LASF552
	.byte	0x1c
	.2byte	0x186
	.4byte	.LASF553
	.4byte	0x457e
	.byte	0x1
	.4byte	0x2def
	.uleb128 0x19
	.4byte	0x4551
	.byte	0x1
	.uleb128 0x1b
	.4byte	0x4578
	.byte	0x0
	.uleb128 0x33
	.byte	0x1
	.4byte	.LASF361
	.byte	0x1c
	.2byte	0x188
	.4byte	.LASF554
	.4byte	0xa7
	.byte	0x1
	.4byte	0x2e0c
	.uleb128 0x19
	.4byte	0x456d
	.byte	0x1
	.byte	0x0
	.uleb128 0x33
	.byte	0x1
	.4byte	.LASF410
	.byte	0x1c
	.2byte	0x18a
	.4byte	.LASF555
	.4byte	0x225c
	.byte	0x1
	.4byte	0x2e29
	.uleb128 0x19
	.4byte	0x456d
	.byte	0x1
	.byte	0x0
	.uleb128 0x33
	.byte	0x1
	.4byte	.LASF466
	.byte	0x1c
	.2byte	0x18b
	.4byte	.LASF556
	.4byte	0x4584
	.byte	0x1
	.4byte	0x2e46
	.uleb128 0x19
	.4byte	0x456d
	.byte	0x1
	.byte	0x0
	.uleb128 0x33
	.byte	0x1
	.4byte	.LASF557
	.byte	0x1c
	.2byte	0x18c
	.4byte	.LASF558
	.4byte	0x4a0e
	.byte	0x1
	.4byte	0x2e63
	.uleb128 0x19
	.4byte	0x456d
	.byte	0x1
	.byte	0x0
	.uleb128 0x33
	.byte	0x1
	.4byte	.LASF468
	.byte	0x1c
	.2byte	0x18d
	.4byte	.LASF559
	.4byte	0x4c7b
	.byte	0x1
	.4byte	0x2e80
	.uleb128 0x19
	.4byte	0x456d
	.byte	0x1
	.byte	0x0
	.uleb128 0x33
	.byte	0x1
	.4byte	.LASF471
	.byte	0x1c
	.2byte	0x18e
	.4byte	.LASF560
	.4byte	0x4fce
	.byte	0x1
	.4byte	0x2e9d
	.uleb128 0x19
	.4byte	0x456d
	.byte	0x1
	.byte	0x0
	.uleb128 0x33
	.byte	0x1
	.4byte	.LASF473
	.byte	0x1c
	.2byte	0x18f
	.4byte	.LASF561
	.4byte	0x1b5e
	.byte	0x1
	.4byte	0x2eba
	.uleb128 0x19
	.4byte	0x456d
	.byte	0x1
	.byte	0x0
	.uleb128 0x33
	.byte	0x1
	.4byte	.LASF363
	.byte	0x1c
	.2byte	0x190
	.4byte	.LASF562
	.4byte	0x15cf
	.byte	0x1
	.4byte	0x2ed7
	.uleb128 0x19
	.4byte	0x456d
	.byte	0x1
	.byte	0x0
	.uleb128 0x33
	.byte	0x1
	.4byte	.LASF363
	.byte	0x1c
	.2byte	0x191
	.4byte	.LASF563
	.4byte	0x16e2
	.byte	0x1
	.4byte	0x2ef4
	.uleb128 0x19
	.4byte	0x4551
	.byte	0x1
	.byte	0x0
	.uleb128 0x35
	.byte	0x1
	.4byte	.LASF366
	.byte	0x1c
	.2byte	0x192
	.4byte	.LASF564
	.4byte	0xe6
	.byte	0x1
	.uleb128 0x19
	.4byte	0x456d
	.byte	0x1
	.uleb128 0x1b
	.4byte	0xa7
	.byte	0x0
	.byte	0x0
	.uleb128 0x11
	.4byte	.LASF565
	.byte	0x10
	.byte	0x10
	.2byte	0x328
	.4byte	0x33a0
	.uleb128 0x14
	.string	"x"
	.byte	0x10
	.2byte	0x32a
	.4byte	0x10a
	.byte	0x2
	.byte	0x23
	.uleb128 0x0
	.uleb128 0x14
	.string	"y"
	.byte	0x10
	.2byte	0x32b
	.4byte	0x10a
	.byte	0x2
	.byte	0x23
	.uleb128 0x4
	.uleb128 0x14
	.string	"z"
	.byte	0x10
	.2byte	0x32c
	.4byte	0x10a
	.byte	0x2
	.byte	0x23
	.uleb128 0x8
	.uleb128 0x14
	.string	"w"
	.byte	0x10
	.2byte	0x32d
	.4byte	0x10a
	.byte	0x2
	.byte	0x23
	.uleb128 0xc
	.uleb128 0x30
	.byte	0x1
	.4byte	.LASF565
	.byte	0x10
	.2byte	0x32f
	.byte	0x1
	.4byte	0x2f69
	.uleb128 0x19
	.4byte	0x33a0
	.byte	0x1
	.byte	0x0
	.uleb128 0x30
	.byte	0x1
	.4byte	.LASF565
	.byte	0x10
	.2byte	0x330
	.byte	0x1
	.4byte	0x2f92
	.uleb128 0x19
	.4byte	0x33a0
	.byte	0x1
	.uleb128 0x1b
	.4byte	0x10a
	.uleb128 0x1b
	.4byte	0x10a
	.uleb128 0x1b
	.4byte	0x10a
	.uleb128 0x1b
	.4byte	0x10a
	.byte	0x0
	.uleb128 0x31
	.byte	0x1
	.string	"Set"
	.byte	0x10
	.2byte	0x332
	.4byte	.LASF566
	.byte	0x1
	.4byte	0x2fbf
	.uleb128 0x19
	.4byte	0x33a0
	.byte	0x1
	.uleb128 0x1b
	.4byte	0x10a
	.uleb128 0x1b
	.4byte	0x10a
	.uleb128 0x1b
	.4byte	0x10a
	.uleb128 0x1b
	.4byte	0x10a
	.byte	0x0
	.uleb128 0x32
	.byte	0x1
	.4byte	.LASF312
	.byte	0x10
	.2byte	0x333
	.4byte	.LASF567
	.byte	0x1
	.4byte	0x2fd8
	.uleb128 0x19
	.4byte	0x33a0
	.byte	0x1
	.byte	0x0
	.uleb128 0x33
	.byte	0x1
	.4byte	.LASF314
	.byte	0x10
	.2byte	0x335
	.4byte	.LASF568
	.4byte	0x10a
	.byte	0x1
	.4byte	0x2ffa
	.uleb128 0x19
	.4byte	0x33a6
	.byte	0x1
	.uleb128 0x1b
	.4byte	0xa7
	.byte	0x0
	.uleb128 0x33
	.byte	0x1
	.4byte	.LASF314
	.byte	0x10
	.2byte	0x336
	.4byte	.LASF569
	.4byte	0x15c9
	.byte	0x1
	.4byte	0x301c
	.uleb128 0x19
	.4byte	0x33a0
	.byte	0x1
	.uleb128 0x1b
	.4byte	0xa7
	.byte	0x0
	.uleb128 0x33
	.byte	0x1
	.4byte	.LASF317
	.byte	0x10
	.2byte	0x337
	.4byte	.LASF570
	.4byte	0x2f13
	.byte	0x1
	.4byte	0x3039
	.uleb128 0x19
	.4byte	0x33a6
	.byte	0x1
	.byte	0x0
	.uleb128 0x33
	.byte	0x1
	.4byte	.LASF319
	.byte	0x10
	.2byte	0x338
	.4byte	.LASF571
	.4byte	0x10a
	.byte	0x1
	.4byte	0x305b
	.uleb128 0x19
	.4byte	0x33a6
	.byte	0x1
	.uleb128 0x1b
	.4byte	0x33b1
	.byte	0x0
	.uleb128 0x33
	.byte	0x1
	.4byte	.LASF319
	.byte	0x10
	.2byte	0x339
	.4byte	.LASF572
	.4byte	0x2f13
	.byte	0x1
	.4byte	0x307d
	.uleb128 0x19
	.4byte	0x33a6
	.byte	0x1
	.uleb128 0x1b
	.4byte	0x10a
	.byte	0x0
	.uleb128 0x33
	.byte	0x1
	.4byte	.LASF322
	.byte	0x10
	.2byte	0x33a
	.4byte	.LASF573
	.4byte	0x2f13
	.byte	0x1
	.4byte	0x309f
	.uleb128 0x19
	.4byte	0x33a6
	.byte	0x1
	.uleb128 0x1b
	.4byte	0x10a
	.byte	0x0
	.uleb128 0x33
	.byte	0x1
	.4byte	.LASF324
	.byte	0x10
	.2byte	0x33b
	.4byte	.LASF574
	.4byte	0x2f13
	.byte	0x1
	.4byte	0x30c1
	.uleb128 0x19
	.4byte	0x33a6
	.byte	0x1
	.uleb128 0x1b
	.4byte	0x33b1
	.byte	0x0
	.uleb128 0x33
	.byte	0x1
	.4byte	.LASF317
	.byte	0x10
	.2byte	0x33c
	.4byte	.LASF575
	.4byte	0x2f13
	.byte	0x1
	.4byte	0x30e3
	.uleb128 0x19
	.4byte	0x33a6
	.byte	0x1
	.uleb128 0x1b
	.4byte	0x33b1
	.byte	0x0
	.uleb128 0x33
	.byte	0x1
	.4byte	.LASF327
	.byte	0x10
	.2byte	0x33d
	.4byte	.LASF576
	.4byte	0x33b7
	.byte	0x1
	.4byte	0x3105
	.uleb128 0x19
	.4byte	0x33a0
	.byte	0x1
	.uleb128 0x1b
	.4byte	0x33b1
	.byte	0x0
	.uleb128 0x33
	.byte	0x1
	.4byte	.LASF329
	.byte	0x10
	.2byte	0x33e
	.4byte	.LASF577
	.4byte	0x33b7
	.byte	0x1
	.4byte	0x3127
	.uleb128 0x19
	.4byte	0x33a0
	.byte	0x1
	.uleb128 0x1b
	.4byte	0x33b1
	.byte	0x0
	.uleb128 0x33
	.byte	0x1
	.4byte	.LASF331
	.byte	0x10
	.2byte	0x33f
	.4byte	.LASF578
	.4byte	0x33b7
	.byte	0x1
	.4byte	0x3149
	.uleb128 0x19
	.4byte	0x33a0
	.byte	0x1
	.uleb128 0x1b
	.4byte	0x33b1
	.byte	0x0
	.uleb128 0x33
	.byte	0x1
	.4byte	.LASF331
	.byte	0x10
	.2byte	0x340
	.4byte	.LASF579
	.4byte	0x33b7
	.byte	0x1
	.4byte	0x316b
	.uleb128 0x19
	.4byte	0x33a0
	.byte	0x1
	.uleb128 0x1b
	.4byte	0x10a
	.byte	0x0
	.uleb128 0x33
	.byte	0x1
	.4byte	.LASF334
	.byte	0x10
	.2byte	0x341
	.4byte	.LASF580
	.4byte	0x33b7
	.byte	0x1
	.4byte	0x318d
	.uleb128 0x19
	.4byte	0x33a0
	.byte	0x1
	.uleb128 0x1b
	.4byte	0x10a
	.byte	0x0
	.uleb128 0x33
	.byte	0x1
	.4byte	.LASF336
	.byte	0x10
	.2byte	0x345
	.4byte	.LASF581
	.4byte	0x13b9
	.byte	0x1
	.4byte	0x31af
	.uleb128 0x19
	.4byte	0x33a6
	.byte	0x1
	.uleb128 0x1b
	.4byte	0x33b1
	.byte	0x0
	.uleb128 0x33
	.byte	0x1
	.4byte	.LASF336
	.byte	0x10
	.2byte	0x346
	.4byte	.LASF582
	.4byte	0x13b9
	.byte	0x1
	.4byte	0x31d6
	.uleb128 0x19
	.4byte	0x33a6
	.byte	0x1
	.uleb128 0x1b
	.4byte	0x33b1
	.uleb128 0x1b
	.4byte	0x10a
	.byte	0x0
	.uleb128 0x33
	.byte	0x1
	.4byte	.LASF339
	.byte	0x10
	.2byte	0x347
	.4byte	.LASF583
	.4byte	0x13b9
	.byte	0x1
	.4byte	0x31f8
	.uleb128 0x19
	.4byte	0x33a6
	.byte	0x1
	.uleb128 0x1b
	.4byte	0x33b1
	.byte	0x0
	.uleb128 0x33
	.byte	0x1
	.4byte	.LASF341
	.byte	0x10
	.2byte	0x348
	.4byte	.LASF584
	.4byte	0x13b9
	.byte	0x1
	.4byte	0x321a
	.uleb128 0x19
	.4byte	0x33a6
	.byte	0x1
	.uleb128 0x1b
	.4byte	0x33b1
	.byte	0x0
	.uleb128 0x33
	.byte	0x1
	.4byte	.LASF343
	.byte	0x10
	.2byte	0x34a
	.4byte	.LASF585
	.4byte	0x10a
	.byte	0x1
	.4byte	0x3237
	.uleb128 0x19
	.4byte	0x33a6
	.byte	0x1
	.byte	0x0
	.uleb128 0x33
	.byte	0x1
	.4byte	.LASF347
	.byte	0x10
	.2byte	0x34b
	.4byte	.LASF586
	.4byte	0x10a
	.byte	0x1
	.4byte	0x3254
	.uleb128 0x19
	.4byte	0x33a6
	.byte	0x1
	.byte	0x0
	.uleb128 0x33
	.byte	0x1
	.4byte	.LASF349
	.byte	0x10
	.2byte	0x34c
	.4byte	.LASF587
	.4byte	0x10a
	.byte	0x1
	.4byte	0x3271
	.uleb128 0x19
	.4byte	0x33a0
	.byte	0x1
	.byte	0x0
	.uleb128 0x33
	.byte	0x1
	.4byte	.LASF351
	.byte	0x10
	.2byte	0x34d
	.4byte	.LASF588
	.4byte	0x10a
	.byte	0x1
	.4byte	0x328e
	.uleb128 0x19
	.4byte	0x33a0
	.byte	0x1
	.byte	0x0
	.uleb128 0x33
	.byte	0x1
	.4byte	.LASF361
	.byte	0x10
	.2byte	0x34f
	.4byte	.LASF589
	.4byte	0xa7
	.byte	0x1
	.4byte	0x32ab
	.uleb128 0x19
	.4byte	0x33a6
	.byte	0x1
	.byte	0x0
	.uleb128 0x33
	.byte	0x1
	.4byte	.LASF416
	.byte	0x10
	.2byte	0x351
	.4byte	.LASF590
	.4byte	0x1b52
	.byte	0x1
	.4byte	0x32c8
	.uleb128 0x19
	.4byte	0x33a6
	.byte	0x1
	.byte	0x0
	.uleb128 0x33
	.byte	0x1
	.4byte	.LASF416
	.byte	0x10
	.2byte	0x352
	.4byte	.LASF591
	.4byte	0x1b58
	.byte	0x1
	.4byte	0x32e5
	.uleb128 0x19
	.4byte	0x33a0
	.byte	0x1
	.byte	0x0
	.uleb128 0x33
	.byte	0x1
	.4byte	.LASF487
	.byte	0x10
	.2byte	0x353
	.4byte	.LASF592
	.4byte	0x2256
	.byte	0x1
	.4byte	0x3302
	.uleb128 0x19
	.4byte	0x33a6
	.byte	0x1
	.byte	0x0
	.uleb128 0x33
	.byte	0x1
	.4byte	.LASF487
	.byte	0x10
	.2byte	0x354
	.4byte	.LASF593
	.4byte	0x2250
	.byte	0x1
	.4byte	0x331f
	.uleb128 0x19
	.4byte	0x33a0
	.byte	0x1
	.byte	0x0
	.uleb128 0x33
	.byte	0x1
	.4byte	.LASF363
	.byte	0x10
	.2byte	0x355
	.4byte	.LASF594
	.4byte	0x15cf
	.byte	0x1
	.4byte	0x333c
	.uleb128 0x19
	.4byte	0x33a6
	.byte	0x1
	.byte	0x0
	.uleb128 0x33
	.byte	0x1
	.4byte	.LASF363
	.byte	0x10
	.2byte	0x356
	.4byte	.LASF595
	.4byte	0x16e2
	.byte	0x1
	.4byte	0x3359
	.uleb128 0x19
	.4byte	0x33a0
	.byte	0x1
	.byte	0x0
	.uleb128 0x33
	.byte	0x1
	.4byte	.LASF366
	.byte	0x10
	.2byte	0x357
	.4byte	.LASF596
	.4byte	0xe6
	.byte	0x1
	.4byte	0x337b
	.uleb128 0x19
	.4byte	0x33a6
	.byte	0x1
	.uleb128 0x1b
	.4byte	0xa7
	.byte	0x0
	.uleb128 0x34
	.byte	0x1
	.4byte	.LASF368
	.byte	0x10
	.2byte	0x359
	.4byte	.LASF598
	.byte	0x1
	.uleb128 0x19
	.4byte	0x33a0
	.byte	0x1
	.uleb128 0x1b
	.4byte	0x33b1
	.uleb128 0x1b
	.4byte	0x33b1
	.uleb128 0x1b
	.4byte	0x10a
	.byte	0x0
	.byte	0x0
	.uleb128 0xc
	.byte	0x4
	.4byte	0x2f13
	.uleb128 0xc
	.byte	0x4
	.4byte	0x33ac
	.uleb128 0xd
	.4byte	0x2f13
	.uleb128 0x24
	.byte	0x4
	.4byte	0x33ac
	.uleb128 0x24
	.byte	0x4
	.4byte	0x2f13
	.uleb128 0x11
	.4byte	.LASF599
	.byte	0x14
	.byte	0x10
	.2byte	0x42a
	.4byte	0x35ab
	.uleb128 0x14
	.string	"x"
	.byte	0x10
	.2byte	0x42c
	.4byte	0x10a
	.byte	0x2
	.byte	0x23
	.uleb128 0x0
	.uleb128 0x14
	.string	"y"
	.byte	0x10
	.2byte	0x42d
	.4byte	0x10a
	.byte	0x2
	.byte	0x23
	.uleb128 0x4
	.uleb128 0x14
	.string	"z"
	.byte	0x10
	.2byte	0x42e
	.4byte	0x10a
	.byte	0x2
	.byte	0x23
	.uleb128 0x8
	.uleb128 0x14
	.string	"s"
	.byte	0x10
	.2byte	0x42f
	.4byte	0x10a
	.byte	0x2
	.byte	0x23
	.uleb128 0xc
	.uleb128 0x14
	.string	"t"
	.byte	0x10
	.2byte	0x430
	.4byte	0x10a
	.byte	0x2
	.byte	0x23
	.uleb128 0x10
	.uleb128 0x30
	.byte	0x1
	.4byte	.LASF599
	.byte	0x10
	.2byte	0x432
	.byte	0x1
	.4byte	0x3420
	.uleb128 0x19
	.4byte	0x35ab
	.byte	0x1
	.byte	0x0
	.uleb128 0x30
	.byte	0x1
	.4byte	.LASF599
	.byte	0x10
	.2byte	0x433
	.byte	0x1
	.4byte	0x343f
	.uleb128 0x19
	.4byte	0x35ab
	.byte	0x1
	.uleb128 0x1b
	.4byte	0x2256
	.uleb128 0x1b
	.4byte	0x1b52
	.byte	0x0
	.uleb128 0x30
	.byte	0x1
	.4byte	.LASF599
	.byte	0x10
	.2byte	0x434
	.byte	0x1
	.4byte	0x346d
	.uleb128 0x19
	.4byte	0x35ab
	.byte	0x1
	.uleb128 0x1b
	.4byte	0x10a
	.uleb128 0x1b
	.4byte	0x10a
	.uleb128 0x1b
	.4byte	0x10a
	.uleb128 0x1b
	.4byte	0x10a
	.uleb128 0x1b
	.4byte	0x10a
	.byte	0x0
	.uleb128 0x33
	.byte	0x1
	.4byte	.LASF314
	.byte	0x10
	.2byte	0x436
	.4byte	.LASF600
	.4byte	0x10a
	.byte	0x1
	.4byte	0x348f
	.uleb128 0x19
	.4byte	0x35b1
	.byte	0x1
	.uleb128 0x1b
	.4byte	0xa7
	.byte	0x0
	.uleb128 0x33
	.byte	0x1
	.4byte	.LASF314
	.byte	0x10
	.2byte	0x437
	.4byte	.LASF601
	.4byte	0x15c9
	.byte	0x1
	.4byte	0x34b1
	.uleb128 0x19
	.4byte	0x35ab
	.byte	0x1
	.uleb128 0x1b
	.4byte	0xa7
	.byte	0x0
	.uleb128 0x33
	.byte	0x1
	.4byte	.LASF281
	.byte	0x10
	.2byte	0x438
	.4byte	.LASF602
	.4byte	0x35bc
	.byte	0x1
	.4byte	0x34d3
	.uleb128 0x19
	.4byte	0x35ab
	.byte	0x1
	.uleb128 0x1b
	.4byte	0x2256
	.byte	0x0
	.uleb128 0x33
	.byte	0x1
	.4byte	.LASF361
	.byte	0x10
	.2byte	0x43a
	.4byte	.LASF603
	.4byte	0xa7
	.byte	0x1
	.4byte	0x34f0
	.uleb128 0x19
	.4byte	0x35b1
	.byte	0x1
	.byte	0x0
	.uleb128 0x33
	.byte	0x1
	.4byte	.LASF487
	.byte	0x10
	.2byte	0x43c
	.4byte	.LASF604
	.4byte	0x2256
	.byte	0x1
	.4byte	0x350d
	.uleb128 0x19
	.4byte	0x35b1
	.byte	0x1
	.byte	0x0
	.uleb128 0x33
	.byte	0x1
	.4byte	.LASF487
	.byte	0x10
	.2byte	0x43d
	.4byte	.LASF605
	.4byte	0x2250
	.byte	0x1
	.4byte	0x352a
	.uleb128 0x19
	.4byte	0x35ab
	.byte	0x1
	.byte	0x0
	.uleb128 0x33
	.byte	0x1
	.4byte	.LASF363
	.byte	0x10
	.2byte	0x43e
	.4byte	.LASF606
	.4byte	0x15cf
	.byte	0x1
	.4byte	0x3547
	.uleb128 0x19
	.4byte	0x35b1
	.byte	0x1
	.byte	0x0
	.uleb128 0x33
	.byte	0x1
	.4byte	.LASF363
	.byte	0x10
	.2byte	0x43f
	.4byte	.LASF607
	.4byte	0x16e2
	.byte	0x1
	.4byte	0x3564
	.uleb128 0x19
	.4byte	0x35ab
	.byte	0x1
	.byte	0x0
	.uleb128 0x33
	.byte	0x1
	.4byte	.LASF366
	.byte	0x10
	.2byte	0x440
	.4byte	.LASF608
	.4byte	0xe6
	.byte	0x1
	.4byte	0x3586
	.uleb128 0x19
	.4byte	0x35b1
	.byte	0x1
	.uleb128 0x1b
	.4byte	0xa7
	.byte	0x0
	.uleb128 0x34
	.byte	0x1
	.4byte	.LASF368
	.byte	0x10
	.2byte	0x442
	.4byte	.LASF609
	.byte	0x1
	.uleb128 0x19
	.4byte	0x35ab
	.byte	0x1
	.uleb128 0x1b
	.4byte	0x35c2
	.uleb128 0x1b
	.4byte	0x35c2
	.uleb128 0x1b
	.4byte	0x10a
	.byte	0x0
	.byte	0x0
	.uleb128 0xc
	.byte	0x4
	.4byte	0x33bd
	.uleb128 0xc
	.byte	0x4
	.4byte	0x35b7
	.uleb128 0xd
	.4byte	0x33bd
	.uleb128 0x24
	.byte	0x4
	.4byte	0x33bd
	.uleb128 0x24
	.byte	0x4
	.4byte	0x35b7
	.uleb128 0x11
	.4byte	.LASF610
	.byte	0x18
	.byte	0x10
	.2byte	0x486
	.4byte	0x39e3
	.uleb128 0x36
	.string	"p"
	.byte	0x10
	.2byte	0x4b1
	.4byte	0x39e3
	.byte	0x2
	.byte	0x23
	.uleb128 0x0
	.byte	0x3
	.uleb128 0x30
	.byte	0x1
	.4byte	.LASF610
	.byte	0x10
	.2byte	0x488
	.byte	0x1
	.4byte	0x35f8
	.uleb128 0x19
	.4byte	0x39f3
	.byte	0x1
	.byte	0x0
	.uleb128 0x30
	.byte	0x1
	.4byte	.LASF610
	.byte	0x10
	.2byte	0x489
	.byte	0x1
	.4byte	0x3612
	.uleb128 0x19
	.4byte	0x39f3
	.byte	0x1
	.uleb128 0x1b
	.4byte	0x15cf
	.byte	0x0
	.uleb128 0x30
	.byte	0x1
	.4byte	.LASF610
	.byte	0x10
	.2byte	0x48a
	.byte	0x1
	.4byte	0x3645
	.uleb128 0x19
	.4byte	0x39f3
	.byte	0x1
	.uleb128 0x1b
	.4byte	0x10a
	.uleb128 0x1b
	.4byte	0x10a
	.uleb128 0x1b
	.4byte	0x10a
	.uleb128 0x1b
	.4byte	0x10a
	.uleb128 0x1b
	.4byte	0x10a
	.uleb128 0x1b
	.4byte	0x10a
	.byte	0x0
	.uleb128 0x31
	.byte	0x1
	.string	"Set"
	.byte	0x10
	.2byte	0x48c
	.4byte	.LASF611
	.byte	0x1
	.4byte	0x367c
	.uleb128 0x19
	.4byte	0x39f3
	.byte	0x1
	.uleb128 0x1b
	.4byte	0x10a
	.uleb128 0x1b
	.4byte	0x10a
	.uleb128 0x1b
	.4byte	0x10a
	.uleb128 0x1b
	.4byte	0x10a
	.uleb128 0x1b
	.4byte	0x10a
	.uleb128 0x1b
	.4byte	0x10a
	.byte	0x0
	.uleb128 0x32
	.byte	0x1
	.4byte	.LASF312
	.byte	0x10
	.2byte	0x48d
	.4byte	.LASF612
	.byte	0x1
	.4byte	0x3695
	.uleb128 0x19
	.4byte	0x39f3
	.byte	0x1
	.byte	0x0
	.uleb128 0x33
	.byte	0x1
	.4byte	.LASF314
	.byte	0x10
	.2byte	0x48f
	.4byte	.LASF613
	.4byte	0x10a
	.byte	0x1
	.4byte	0x36b7
	.uleb128 0x19
	.4byte	0x39f9
	.byte	0x1
	.uleb128 0x1b
	.4byte	0xa7
	.byte	0x0
	.uleb128 0x33
	.byte	0x1
	.4byte	.LASF314
	.byte	0x10
	.2byte	0x490
	.4byte	.LASF614
	.4byte	0x15c9
	.byte	0x1
	.4byte	0x36d9
	.uleb128 0x19
	.4byte	0x39f3
	.byte	0x1
	.uleb128 0x1b
	.4byte	0xa7
	.byte	0x0
	.uleb128 0x33
	.byte	0x1
	.4byte	.LASF317
	.byte	0x10
	.2byte	0x491
	.4byte	.LASF615
	.4byte	0x35c8
	.byte	0x1
	.4byte	0x36f6
	.uleb128 0x19
	.4byte	0x39f9
	.byte	0x1
	.byte	0x0
	.uleb128 0x33
	.byte	0x1
	.4byte	.LASF319
	.byte	0x10
	.2byte	0x492
	.4byte	.LASF616
	.4byte	0x35c8
	.byte	0x1
	.4byte	0x3718
	.uleb128 0x19
	.4byte	0x39f9
	.byte	0x1
	.uleb128 0x1b
	.4byte	0x10a
	.byte	0x0
	.uleb128 0x33
	.byte	0x1
	.4byte	.LASF322
	.byte	0x10
	.2byte	0x493
	.4byte	.LASF617
	.4byte	0x35c8
	.byte	0x1
	.4byte	0x373a
	.uleb128 0x19
	.4byte	0x39f9
	.byte	0x1
	.uleb128 0x1b
	.4byte	0x10a
	.byte	0x0
	.uleb128 0x33
	.byte	0x1
	.4byte	.LASF319
	.byte	0x10
	.2byte	0x494
	.4byte	.LASF618
	.4byte	0x10a
	.byte	0x1
	.4byte	0x375c
	.uleb128 0x19
	.4byte	0x39f9
	.byte	0x1
	.uleb128 0x1b
	.4byte	0x3a04
	.byte	0x0
	.uleb128 0x33
	.byte	0x1
	.4byte	.LASF317
	.byte	0x10
	.2byte	0x495
	.4byte	.LASF619
	.4byte	0x35c8
	.byte	0x1
	.4byte	0x377e
	.uleb128 0x19
	.4byte	0x39f9
	.byte	0x1
	.uleb128 0x1b
	.4byte	0x3a04
	.byte	0x0
	.uleb128 0x33
	.byte	0x1
	.4byte	.LASF324
	.byte	0x10
	.2byte	0x496
	.4byte	.LASF620
	.4byte	0x35c8
	.byte	0x1
	.4byte	0x37a0
	.uleb128 0x19
	.4byte	0x39f9
	.byte	0x1
	.uleb128 0x1b
	.4byte	0x3a04
	.byte	0x0
	.uleb128 0x33
	.byte	0x1
	.4byte	.LASF334
	.byte	0x10
	.2byte	0x497
	.4byte	.LASF621
	.4byte	0x3a0a
	.byte	0x1
	.4byte	0x37c2
	.uleb128 0x19
	.4byte	0x39f3
	.byte	0x1
	.uleb128 0x1b
	.4byte	0x10a
	.byte	0x0
	.uleb128 0x33
	.byte	0x1
	.4byte	.LASF331
	.byte	0x10
	.2byte	0x498
	.4byte	.LASF622
	.4byte	0x3a0a
	.byte	0x1
	.4byte	0x37e4
	.uleb128 0x19
	.4byte	0x39f3
	.byte	0x1
	.uleb128 0x1b
	.4byte	0x10a
	.byte	0x0
	.uleb128 0x33
	.byte	0x1
	.4byte	.LASF327
	.byte	0x10
	.2byte	0x499
	.4byte	.LASF623
	.4byte	0x3a0a
	.byte	0x1
	.4byte	0x3806
	.uleb128 0x19
	.4byte	0x39f3
	.byte	0x1
	.uleb128 0x1b
	.4byte	0x3a04
	.byte	0x0
	.uleb128 0x33
	.byte	0x1
	.4byte	.LASF329
	.byte	0x10
	.2byte	0x49a
	.4byte	.LASF624
	.4byte	0x3a0a
	.byte	0x1
	.4byte	0x3828
	.uleb128 0x19
	.4byte	0x39f3
	.byte	0x1
	.uleb128 0x1b
	.4byte	0x3a04
	.byte	0x0
	.uleb128 0x33
	.byte	0x1
	.4byte	.LASF336
	.byte	0x10
	.2byte	0x49e
	.4byte	.LASF625
	.4byte	0x13b9
	.byte	0x1
	.4byte	0x384a
	.uleb128 0x19
	.4byte	0x39f9
	.byte	0x1
	.uleb128 0x1b
	.4byte	0x3a04
	.byte	0x0
	.uleb128 0x33
	.byte	0x1
	.4byte	.LASF336
	.byte	0x10
	.2byte	0x49f
	.4byte	.LASF626
	.4byte	0x13b9
	.byte	0x1
	.4byte	0x3871
	.uleb128 0x19
	.4byte	0x39f9
	.byte	0x1
	.uleb128 0x1b
	.4byte	0x3a04
	.uleb128 0x1b
	.4byte	0x10a
	.byte	0x0
	.uleb128 0x33
	.byte	0x1
	.4byte	.LASF339
	.byte	0x10
	.2byte	0x4a0
	.4byte	.LASF627
	.4byte	0x13b9
	.byte	0x1
	.4byte	0x3893
	.uleb128 0x19
	.4byte	0x39f9
	.byte	0x1
	.uleb128 0x1b
	.4byte	0x3a04
	.byte	0x0
	.uleb128 0x33
	.byte	0x1
	.4byte	.LASF341
	.byte	0x10
	.2byte	0x4a1
	.4byte	.LASF628
	.4byte	0x13b9
	.byte	0x1
	.4byte	0x38b5
	.uleb128 0x19
	.4byte	0x39f9
	.byte	0x1
	.uleb128 0x1b
	.4byte	0x3a04
	.byte	0x0
	.uleb128 0x33
	.byte	0x1
	.4byte	.LASF343
	.byte	0x10
	.2byte	0x4a3
	.4byte	.LASF629
	.4byte	0x10a
	.byte	0x1
	.4byte	0x38d2
	.uleb128 0x19
	.4byte	0x39f9
	.byte	0x1
	.byte	0x0
	.uleb128 0x33
	.byte	0x1
	.4byte	.LASF347
	.byte	0x10
	.2byte	0x4a4
	.4byte	.LASF630
	.4byte	0x10a
	.byte	0x1
	.4byte	0x38ef
	.uleb128 0x19
	.4byte	0x39f9
	.byte	0x1
	.byte	0x0
	.uleb128 0x33
	.byte	0x1
	.4byte	.LASF349
	.byte	0x10
	.2byte	0x4a5
	.4byte	.LASF631
	.4byte	0x10a
	.byte	0x1
	.4byte	0x390c
	.uleb128 0x19
	.4byte	0x39f3
	.byte	0x1
	.byte	0x0
	.uleb128 0x33
	.byte	0x1
	.4byte	.LASF351
	.byte	0x10
	.2byte	0x4a6
	.4byte	.LASF632
	.4byte	0x10a
	.byte	0x1
	.4byte	0x3929
	.uleb128 0x19
	.4byte	0x39f3
	.byte	0x1
	.byte	0x0
	.uleb128 0x33
	.byte	0x1
	.4byte	.LASF361
	.byte	0x10
	.2byte	0x4a8
	.4byte	.LASF633
	.4byte	0xa7
	.byte	0x1
	.4byte	0x3946
	.uleb128 0x19
	.4byte	0x39f9
	.byte	0x1
	.byte	0x0
	.uleb128 0x33
	.byte	0x1
	.4byte	.LASF634
	.byte	0x10
	.2byte	0x4aa
	.4byte	.LASF635
	.4byte	0x2256
	.byte	0x1
	.4byte	0x3968
	.uleb128 0x19
	.4byte	0x39f9
	.byte	0x1
	.uleb128 0x1b
	.4byte	0xa7
	.byte	0x0
	.uleb128 0x33
	.byte	0x1
	.4byte	.LASF634
	.byte	0x10
	.2byte	0x4ab
	.4byte	.LASF636
	.4byte	0x2250
	.byte	0x1
	.4byte	0x398a
	.uleb128 0x19
	.4byte	0x39f3
	.byte	0x1
	.uleb128 0x1b
	.4byte	0xa7
	.byte	0x0
	.uleb128 0x33
	.byte	0x1
	.4byte	.LASF363
	.byte	0x10
	.2byte	0x4ac
	.4byte	.LASF637
	.4byte	0x15cf
	.byte	0x1
	.4byte	0x39a7
	.uleb128 0x19
	.4byte	0x39f9
	.byte	0x1
	.byte	0x0
	.uleb128 0x33
	.byte	0x1
	.4byte	.LASF363
	.byte	0x10
	.2byte	0x4ad
	.4byte	.LASF638
	.4byte	0x16e2
	.byte	0x1
	.4byte	0x39c4
	.uleb128 0x19
	.4byte	0x39f3
	.byte	0x1
	.byte	0x0
	.uleb128 0x35
	.byte	0x1
	.4byte	.LASF366
	.byte	0x10
	.2byte	0x4ae
	.4byte	.LASF639
	.4byte	0xe6
	.byte	0x1
	.uleb128 0x19
	.4byte	0x39f9
	.byte	0x1
	.uleb128 0x1b
	.4byte	0xa7
	.byte	0x0
	.byte	0x0
	.uleb128 0xa
	.4byte	0x10a
	.4byte	0x39f3
	.uleb128 0xb
	.4byte	0x33
	.byte	0x5
	.byte	0x0
	.uleb128 0xc
	.byte	0x4
	.4byte	0x35c8
	.uleb128 0xc
	.byte	0x4
	.4byte	0x39ff
	.uleb128 0xd
	.4byte	0x35c8
	.uleb128 0x24
	.byte	0x4
	.4byte	0x39ff
	.uleb128 0x24
	.byte	0x4
	.4byte	0x35c8
	.uleb128 0x11
	.4byte	.LASF640
	.byte	0xc
	.byte	0x10
	.2byte	0x59b
	.4byte	0x4030
	.uleb128 0x37
	.4byte	.LASF641
	.byte	0x10
	.2byte	0x5d5
	.4byte	0xa7
	.byte	0x2
	.byte	0x23
	.uleb128 0x0
	.byte	0x3
	.uleb128 0x37
	.4byte	.LASF642
	.byte	0x10
	.2byte	0x5d6
	.4byte	0xa7
	.byte	0x2
	.byte	0x23
	.uleb128 0x4
	.byte	0x3
	.uleb128 0x36
	.string	"p"
	.byte	0x10
	.2byte	0x5d7
	.4byte	0x16e2
	.byte	0x2
	.byte	0x23
	.uleb128 0x8
	.byte	0x3
	.uleb128 0x38
	.4byte	.LASF644
	.byte	0x10
	.2byte	0x5d9
	.4byte	.LASF646
	.4byte	0x4030
	.byte	0x1
	.byte	0x3
	.byte	0x1
	.uleb128 0x38
	.4byte	.LASF645
	.byte	0x10
	.2byte	0x5da
	.4byte	.LASF647
	.4byte	0x16e2
	.byte	0x1
	.byte	0x3
	.byte	0x1
	.uleb128 0x38
	.4byte	.LASF648
	.byte	0x10
	.2byte	0x5db
	.4byte	.LASF649
	.4byte	0xa7
	.byte	0x1
	.byte	0x3
	.byte	0x1
	.uleb128 0x30
	.byte	0x1
	.4byte	.LASF640
	.byte	0x10
	.2byte	0x59f
	.byte	0x1
	.4byte	0x3a99
	.uleb128 0x19
	.4byte	0x4041
	.byte	0x1
	.byte	0x0
	.uleb128 0x30
	.byte	0x1
	.4byte	.LASF640
	.byte	0x10
	.2byte	0x5a0
	.byte	0x1
	.4byte	0x3ab3
	.uleb128 0x19
	.4byte	0x4041
	.byte	0x1
	.uleb128 0x1b
	.4byte	0xa7
	.byte	0x0
	.uleb128 0x30
	.byte	0x1
	.4byte	.LASF640
	.byte	0x10
	.2byte	0x5a1
	.byte	0x1
	.4byte	0x3ad2
	.uleb128 0x19
	.4byte	0x4041
	.byte	0x1
	.uleb128 0x1b
	.4byte	0xa7
	.uleb128 0x1b
	.4byte	0x16e2
	.byte	0x0
	.uleb128 0x30
	.byte	0x1
	.4byte	.LASF650
	.byte	0x10
	.2byte	0x5a2
	.byte	0x1
	.4byte	0x3aed
	.uleb128 0x19
	.4byte	0x4041
	.byte	0x1
	.uleb128 0x19
	.4byte	0xa7
	.byte	0x1
	.byte	0x0
	.uleb128 0x33
	.byte	0x1
	.4byte	.LASF314
	.byte	0x10
	.2byte	0x5a4
	.4byte	.LASF651
	.4byte	0x10a
	.byte	0x1
	.4byte	0x3b0f
	.uleb128 0x19
	.4byte	0x4047
	.byte	0x1
	.uleb128 0x1b
	.4byte	0xa7
	.byte	0x0
	.uleb128 0x33
	.byte	0x1
	.4byte	.LASF314
	.byte	0x10
	.2byte	0x5a5
	.4byte	.LASF652
	.4byte	0x15c9
	.byte	0x1
	.4byte	0x3b31
	.uleb128 0x19
	.4byte	0x4041
	.byte	0x1
	.uleb128 0x1b
	.4byte	0xa7
	.byte	0x0
	.uleb128 0x33
	.byte	0x1
	.4byte	.LASF317
	.byte	0x10
	.2byte	0x5a6
	.4byte	.LASF653
	.4byte	0x3a10
	.byte	0x1
	.4byte	0x3b4e
	.uleb128 0x19
	.4byte	0x4047
	.byte	0x1
	.byte	0x0
	.uleb128 0x33
	.byte	0x1
	.4byte	.LASF281
	.byte	0x10
	.2byte	0x5a7
	.4byte	.LASF654
	.4byte	0x4052
	.byte	0x1
	.4byte	0x3b70
	.uleb128 0x19
	.4byte	0x4041
	.byte	0x1
	.uleb128 0x1b
	.4byte	0x4058
	.byte	0x0
	.uleb128 0x33
	.byte	0x1
	.4byte	.LASF319
	.byte	0x10
	.2byte	0x5a8
	.4byte	.LASF655
	.4byte	0x3a10
	.byte	0x1
	.4byte	0x3b92
	.uleb128 0x19
	.4byte	0x4047
	.byte	0x1
	.uleb128 0x1b
	.4byte	0x10a
	.byte	0x0
	.uleb128 0x33
	.byte	0x1
	.4byte	.LASF322
	.byte	0x10
	.2byte	0x5a9
	.4byte	.LASF656
	.4byte	0x3a10
	.byte	0x1
	.4byte	0x3bb4
	.uleb128 0x19
	.4byte	0x4047
	.byte	0x1
	.uleb128 0x1b
	.4byte	0x10a
	.byte	0x0
	.uleb128 0x33
	.byte	0x1
	.4byte	.LASF319
	.byte	0x10
	.2byte	0x5aa
	.4byte	.LASF657
	.4byte	0x10a
	.byte	0x1
	.4byte	0x3bd6
	.uleb128 0x19
	.4byte	0x4047
	.byte	0x1
	.uleb128 0x1b
	.4byte	0x4058
	.byte	0x0
	.uleb128 0x33
	.byte	0x1
	.4byte	.LASF317
	.byte	0x10
	.2byte	0x5ab
	.4byte	.LASF658
	.4byte	0x3a10
	.byte	0x1
	.4byte	0x3bf8
	.uleb128 0x19
	.4byte	0x4047
	.byte	0x1
	.uleb128 0x1b
	.4byte	0x4058
	.byte	0x0
	.uleb128 0x33
	.byte	0x1
	.4byte	.LASF324
	.byte	0x10
	.2byte	0x5ac
	.4byte	.LASF659
	.4byte	0x3a10
	.byte	0x1
	.4byte	0x3c1a
	.uleb128 0x19
	.4byte	0x4047
	.byte	0x1
	.uleb128 0x1b
	.4byte	0x4058
	.byte	0x0
	.uleb128 0x33
	.byte	0x1
	.4byte	.LASF334
	.byte	0x10
	.2byte	0x5ad
	.4byte	.LASF660
	.4byte	0x4052
	.byte	0x1
	.4byte	0x3c3c
	.uleb128 0x19
	.4byte	0x4041
	.byte	0x1
	.uleb128 0x1b
	.4byte	0x10a
	.byte	0x0
	.uleb128 0x33
	.byte	0x1
	.4byte	.LASF331
	.byte	0x10
	.2byte	0x5ae
	.4byte	.LASF661
	.4byte	0x4052
	.byte	0x1
	.4byte	0x3c5e
	.uleb128 0x19
	.4byte	0x4041
	.byte	0x1
	.uleb128 0x1b
	.4byte	0x10a
	.byte	0x0
	.uleb128 0x33
	.byte	0x1
	.4byte	.LASF327
	.byte	0x10
	.2byte	0x5af
	.4byte	.LASF662
	.4byte	0x4052
	.byte	0x1
	.4byte	0x3c80
	.uleb128 0x19
	.4byte	0x4041
	.byte	0x1
	.uleb128 0x1b
	.4byte	0x4058
	.byte	0x0
	.uleb128 0x33
	.byte	0x1
	.4byte	.LASF329
	.byte	0x10
	.2byte	0x5b0
	.4byte	.LASF663
	.4byte	0x4052
	.byte	0x1
	.4byte	0x3ca2
	.uleb128 0x19
	.4byte	0x4041
	.byte	0x1
	.uleb128 0x1b
	.4byte	0x4058
	.byte	0x0
	.uleb128 0x33
	.byte	0x1
	.4byte	.LASF336
	.byte	0x10
	.2byte	0x5b4
	.4byte	.LASF664
	.4byte	0x13b9
	.byte	0x1
	.4byte	0x3cc4
	.uleb128 0x19
	.4byte	0x4047
	.byte	0x1
	.uleb128 0x1b
	.4byte	0x4058
	.byte	0x0
	.uleb128 0x33
	.byte	0x1
	.4byte	.LASF336
	.byte	0x10
	.2byte	0x5b5
	.4byte	.LASF665
	.4byte	0x13b9
	.byte	0x1
	.4byte	0x3ceb
	.uleb128 0x19
	.4byte	0x4047
	.byte	0x1
	.uleb128 0x1b
	.4byte	0x4058
	.uleb128 0x1b
	.4byte	0x10a
	.byte	0x0
	.uleb128 0x33
	.byte	0x1
	.4byte	.LASF339
	.byte	0x10
	.2byte	0x5b6
	.4byte	.LASF666
	.4byte	0x13b9
	.byte	0x1
	.4byte	0x3d0d
	.uleb128 0x19
	.4byte	0x4047
	.byte	0x1
	.uleb128 0x1b
	.4byte	0x4058
	.byte	0x0
	.uleb128 0x33
	.byte	0x1
	.4byte	.LASF341
	.byte	0x10
	.2byte	0x5b7
	.4byte	.LASF667
	.4byte	0x13b9
	.byte	0x1
	.4byte	0x3d2f
	.uleb128 0x19
	.4byte	0x4047
	.byte	0x1
	.uleb128 0x1b
	.4byte	0x4058
	.byte	0x0
	.uleb128 0x32
	.byte	0x1
	.4byte	.LASF668
	.byte	0x10
	.2byte	0x5b9
	.4byte	.LASF669
	.byte	0x1
	.4byte	0x3d4d
	.uleb128 0x19
	.4byte	0x4041
	.byte	0x1
	.uleb128 0x1b
	.4byte	0xa7
	.byte	0x0
	.uleb128 0x32
	.byte	0x1
	.4byte	.LASF670
	.byte	0x10
	.2byte	0x5ba
	.4byte	.LASF671
	.byte	0x1
	.4byte	0x3d70
	.uleb128 0x19
	.4byte	0x4041
	.byte	0x1
	.uleb128 0x1b
	.4byte	0xa7
	.uleb128 0x1b
	.4byte	0x13b9
	.byte	0x0
	.uleb128 0x33
	.byte	0x1
	.4byte	.LASF672
	.byte	0x10
	.2byte	0x5bb
	.4byte	.LASF673
	.4byte	0xa7
	.byte	0x1
	.4byte	0x3d8d
	.uleb128 0x19
	.4byte	0x4047
	.byte	0x1
	.byte	0x0
	.uleb128 0x32
	.byte	0x1
	.4byte	.LASF674
	.byte	0x10
	.2byte	0x5bc
	.4byte	.LASF675
	.byte	0x1
	.4byte	0x3db0
	.uleb128 0x19
	.4byte	0x4041
	.byte	0x1
	.uleb128 0x1b
	.4byte	0xa7
	.uleb128 0x1b
	.4byte	0x16e2
	.byte	0x0
	.uleb128 0x32
	.byte	0x1
	.4byte	.LASF312
	.byte	0x10
	.2byte	0x5bd
	.4byte	.LASF676
	.byte	0x1
	.4byte	0x3dc9
	.uleb128 0x19
	.4byte	0x4041
	.byte	0x1
	.byte	0x0
	.uleb128 0x32
	.byte	0x1
	.4byte	.LASF312
	.byte	0x10
	.2byte	0x5be
	.4byte	.LASF677
	.byte	0x1
	.4byte	0x3de7
	.uleb128 0x19
	.4byte	0x4041
	.byte	0x1
	.uleb128 0x1b
	.4byte	0xa7
	.byte	0x0
	.uleb128 0x32
	.byte	0x1
	.4byte	.LASF678
	.byte	0x10
	.2byte	0x5bf
	.4byte	.LASF679
	.byte	0x1
	.4byte	0x3e0f
	.uleb128 0x19
	.4byte	0x4041
	.byte	0x1
	.uleb128 0x1b
	.4byte	0xa7
	.uleb128 0x1b
	.4byte	0x10a
	.uleb128 0x1b
	.4byte	0x10a
	.byte	0x0
	.uleb128 0x32
	.byte	0x1
	.4byte	.LASF678
	.byte	0x10
	.2byte	0x5c0
	.4byte	.LASF680
	.byte	0x1
	.4byte	0x3e3c
	.uleb128 0x19
	.4byte	0x4041
	.byte	0x1
	.uleb128 0x1b
	.4byte	0xa7
	.uleb128 0x1b
	.4byte	0xa7
	.uleb128 0x1b
	.4byte	0x10a
	.uleb128 0x1b
	.4byte	0x10a
	.byte	0x0
	.uleb128 0x32
	.byte	0x1
	.4byte	.LASF681
	.byte	0x10
	.2byte	0x5c1
	.4byte	.LASF682
	.byte	0x1
	.4byte	0x3e55
	.uleb128 0x19
	.4byte	0x4041
	.byte	0x1
	.byte	0x0
	.uleb128 0x32
	.byte	0x1
	.4byte	.LASF355
	.byte	0x10
	.2byte	0x5c2
	.4byte	.LASF683
	.byte	0x1
	.4byte	0x3e78
	.uleb128 0x19
	.4byte	0x4041
	.byte	0x1
	.uleb128 0x1b
	.4byte	0x10a
	.uleb128 0x1b
	.4byte	0x10a
	.byte	0x0
	.uleb128 0x33
	.byte	0x1
	.4byte	.LASF684
	.byte	0x10
	.2byte	0x5c3
	.4byte	.LASF685
	.4byte	0x4052
	.byte	0x1
	.4byte	0x3e9f
	.uleb128 0x19
	.4byte	0x4041
	.byte	0x1
	.uleb128 0x1b
	.4byte	0xa7
	.uleb128 0x1b
	.4byte	0xa7
	.byte	0x0
	.uleb128 0x33
	.byte	0x1
	.4byte	.LASF343
	.byte	0x10
	.2byte	0x5c5
	.4byte	.LASF686
	.4byte	0x10a
	.byte	0x1
	.4byte	0x3ebc
	.uleb128 0x19
	.4byte	0x4047
	.byte	0x1
	.byte	0x0
	.uleb128 0x33
	.byte	0x1
	.4byte	.LASF347
	.byte	0x10
	.2byte	0x5c6
	.4byte	.LASF687
	.4byte	0x10a
	.byte	0x1
	.4byte	0x3ed9
	.uleb128 0x19
	.4byte	0x4047
	.byte	0x1
	.byte	0x0
	.uleb128 0x33
	.byte	0x1
	.4byte	.LASF349
	.byte	0x10
	.2byte	0x5c7
	.4byte	.LASF688
	.4byte	0x3a10
	.byte	0x1
	.4byte	0x3ef6
	.uleb128 0x19
	.4byte	0x4047
	.byte	0x1
	.byte	0x0
	.uleb128 0x33
	.byte	0x1
	.4byte	.LASF689
	.byte	0x10
	.2byte	0x5c8
	.4byte	.LASF690
	.4byte	0x10a
	.byte	0x1
	.4byte	0x3f13
	.uleb128 0x19
	.4byte	0x4041
	.byte	0x1
	.byte	0x0
	.uleb128 0x33
	.byte	0x1
	.4byte	.LASF361
	.byte	0x10
	.2byte	0x5ca
	.4byte	.LASF691
	.4byte	0xa7
	.byte	0x1
	.4byte	0x3f30
	.uleb128 0x19
	.4byte	0x4047
	.byte	0x1
	.byte	0x0
	.uleb128 0x33
	.byte	0x1
	.4byte	.LASF634
	.byte	0x10
	.2byte	0x5cc
	.4byte	.LASF692
	.4byte	0x2256
	.byte	0x1
	.4byte	0x3f52
	.uleb128 0x19
	.4byte	0x4047
	.byte	0x1
	.uleb128 0x1b
	.4byte	0xa7
	.byte	0x0
	.uleb128 0x33
	.byte	0x1
	.4byte	.LASF634
	.byte	0x10
	.2byte	0x5cd
	.4byte	.LASF693
	.4byte	0x2250
	.byte	0x1
	.4byte	0x3f74
	.uleb128 0x19
	.4byte	0x4041
	.byte	0x1
	.uleb128 0x1b
	.4byte	0xa7
	.byte	0x0
	.uleb128 0x33
	.byte	0x1
	.4byte	.LASF694
	.byte	0x10
	.2byte	0x5ce
	.4byte	.LASF695
	.4byte	0x3a04
	.byte	0x1
	.4byte	0x3f96
	.uleb128 0x19
	.4byte	0x4047
	.byte	0x1
	.uleb128 0x1b
	.4byte	0xa7
	.byte	0x0
	.uleb128 0x33
	.byte	0x1
	.4byte	.LASF694
	.byte	0x10
	.2byte	0x5cf
	.4byte	.LASF696
	.4byte	0x3a0a
	.byte	0x1
	.4byte	0x3fb8
	.uleb128 0x19
	.4byte	0x4041
	.byte	0x1
	.uleb128 0x1b
	.4byte	0xa7
	.byte	0x0
	.uleb128 0x33
	.byte	0x1
	.4byte	.LASF363
	.byte	0x10
	.2byte	0x5d0
	.4byte	.LASF697
	.4byte	0x15cf
	.byte	0x1
	.4byte	0x3fd5
	.uleb128 0x19
	.4byte	0x4047
	.byte	0x1
	.byte	0x0
	.uleb128 0x33
	.byte	0x1
	.4byte	.LASF363
	.byte	0x10
	.2byte	0x5d1
	.4byte	.LASF698
	.4byte	0x16e2
	.byte	0x1
	.4byte	0x3ff2
	.uleb128 0x19
	.4byte	0x4041
	.byte	0x1
	.byte	0x0
	.uleb128 0x33
	.byte	0x1
	.4byte	.LASF366
	.byte	0x10
	.2byte	0x5d2
	.4byte	.LASF699
	.4byte	0xe6
	.byte	0x1
	.4byte	0x4014
	.uleb128 0x19
	.4byte	0x4047
	.byte	0x1
	.uleb128 0x1b
	.4byte	0xa7
	.byte	0x0
	.uleb128 0x39
	.byte	0x1
	.4byte	.LASF700
	.byte	0x10
	.2byte	0x5de
	.4byte	.LASF701
	.byte	0x3
	.byte	0x1
	.uleb128 0x19
	.4byte	0x4041
	.byte	0x1
	.uleb128 0x1b
	.4byte	0xa7
	.byte	0x0
	.byte	0x0
	.uleb128 0xa
	.4byte	0x10a
	.4byte	0x4041
	.uleb128 0x23
	.4byte	0x33
	.2byte	0x403
	.byte	0x0
	.uleb128 0xc
	.byte	0x4
	.4byte	0x3a10
	.uleb128 0xc
	.byte	0x4
	.4byte	0x404d
	.uleb128 0xd
	.4byte	0x3a10
	.uleb128 0x24
	.byte	0x4
	.4byte	0x3a10
	.uleb128 0x24
	.byte	0x4
	.4byte	0x404d
	.uleb128 0xc
	.byte	0x4
	.4byte	0x26d0
	.uleb128 0xc
	.byte	0x4
	.4byte	0x406a
	.uleb128 0xd
	.4byte	0x26d0
	.uleb128 0x24
	.byte	0x4
	.4byte	0x26d0
	.uleb128 0x24
	.byte	0x4
	.4byte	0x406a
	.uleb128 0x5
	.4byte	.LASF702
	.byte	0x10
	.byte	0x1c
	.byte	0x37
	.4byte	0x44fe
	.uleb128 0x3a
	.string	"mat"
	.byte	0x1c
	.byte	0x6a
	.4byte	0x44fe
	.byte	0x2
	.byte	0x23
	.uleb128 0x0
	.byte	0x3
	.uleb128 0x29
	.byte	0x1
	.4byte	.LASF702
	.byte	0x1c
	.byte	0x39
	.byte	0x1
	.4byte	0x40aa
	.uleb128 0x19
	.4byte	0x450e
	.byte	0x1
	.byte	0x0
	.uleb128 0x29
	.byte	0x1
	.4byte	.LASF702
	.byte	0x1c
	.byte	0x3a
	.byte	0x1
	.4byte	0x40c8
	.uleb128 0x19
	.4byte	0x450e
	.byte	0x1
	.uleb128 0x1b
	.4byte	0x1b52
	.uleb128 0x1b
	.4byte	0x1b52
	.byte	0x0
	.uleb128 0x29
	.byte	0x1
	.4byte	.LASF702
	.byte	0x1c
	.byte	0x3b
	.byte	0x1
	.4byte	0x40f0
	.uleb128 0x19
	.4byte	0x450e
	.byte	0x1
	.uleb128 0x1b
	.4byte	0x10a
	.uleb128 0x1b
	.4byte	0x10a
	.uleb128 0x1b
	.4byte	0x10a
	.uleb128 0x1b
	.4byte	0x10a
	.byte	0x0
	.uleb128 0x29
	.byte	0x1
	.4byte	.LASF702
	.byte	0x1c
	.byte	0x3c
	.byte	0x1
	.4byte	0x4109
	.uleb128 0x19
	.4byte	0x450e
	.byte	0x1
	.uleb128 0x1b
	.4byte	0x4514
	.byte	0x0
	.uleb128 0x2b
	.byte	0x1
	.4byte	.LASF314
	.byte	0x1c
	.byte	0x3e
	.4byte	.LASF703
	.4byte	0x1b52
	.byte	0x1
	.4byte	0x412a
	.uleb128 0x19
	.4byte	0x452a
	.byte	0x1
	.uleb128 0x1b
	.4byte	0xa7
	.byte	0x0
	.uleb128 0x2b
	.byte	0x1
	.4byte	.LASF314
	.byte	0x1c
	.byte	0x3f
	.4byte	.LASF704
	.4byte	0x1b58
	.byte	0x1
	.4byte	0x414b
	.uleb128 0x19
	.4byte	0x450e
	.byte	0x1
	.uleb128 0x1b
	.4byte	0xa7
	.byte	0x0
	.uleb128 0x2b
	.byte	0x1
	.4byte	.LASF317
	.byte	0x1c
	.byte	0x40
	.4byte	.LASF705
	.4byte	0x407b
	.byte	0x1
	.4byte	0x4167
	.uleb128 0x19
	.4byte	0x452a
	.byte	0x1
	.byte	0x0
	.uleb128 0x2b
	.byte	0x1
	.4byte	.LASF319
	.byte	0x1c
	.byte	0x41
	.4byte	.LASF706
	.4byte	0x407b
	.byte	0x1
	.4byte	0x4188
	.uleb128 0x19
	.4byte	0x452a
	.byte	0x1
	.uleb128 0x1b
	.4byte	0x10a
	.byte	0x0
	.uleb128 0x2b
	.byte	0x1
	.4byte	.LASF319
	.byte	0x1c
	.byte	0x42
	.4byte	.LASF707
	.4byte	0x16e8
	.byte	0x1
	.4byte	0x41a9
	.uleb128 0x19
	.4byte	0x452a
	.byte	0x1
	.uleb128 0x1b
	.4byte	0x1b52
	.byte	0x0
	.uleb128 0x2b
	.byte	0x1
	.4byte	.LASF319
	.byte	0x1c
	.byte	0x43
	.4byte	.LASF708
	.4byte	0x407b
	.byte	0x1
	.4byte	0x41ca
	.uleb128 0x19
	.4byte	0x452a
	.byte	0x1
	.uleb128 0x1b
	.4byte	0x4535
	.byte	0x0
	.uleb128 0x2b
	.byte	0x1
	.4byte	.LASF324
	.byte	0x1c
	.byte	0x44
	.4byte	.LASF709
	.4byte	0x407b
	.byte	0x1
	.4byte	0x41eb
	.uleb128 0x19
	.4byte	0x452a
	.byte	0x1
	.uleb128 0x1b
	.4byte	0x4535
	.byte	0x0
	.uleb128 0x2b
	.byte	0x1
	.4byte	.LASF317
	.byte	0x1c
	.byte	0x45
	.4byte	.LASF710
	.4byte	0x407b
	.byte	0x1
	.4byte	0x420c
	.uleb128 0x19
	.4byte	0x452a
	.byte	0x1
	.uleb128 0x1b
	.4byte	0x4535
	.byte	0x0
	.uleb128 0x2b
	.byte	0x1
	.4byte	.LASF334
	.byte	0x1c
	.byte	0x46
	.4byte	.LASF711
	.4byte	0x453b
	.byte	0x1
	.4byte	0x422d
	.uleb128 0x19
	.4byte	0x450e
	.byte	0x1
	.uleb128 0x1b
	.4byte	0x10a
	.byte	0x0
	.uleb128 0x2b
	.byte	0x1
	.4byte	.LASF334
	.byte	0x1c
	.byte	0x47
	.4byte	.LASF712
	.4byte	0x453b
	.byte	0x1
	.4byte	0x424e
	.uleb128 0x19
	.4byte	0x450e
	.byte	0x1
	.uleb128 0x1b
	.4byte	0x4535
	.byte	0x0
	.uleb128 0x2b
	.byte	0x1
	.4byte	.LASF327
	.byte	0x1c
	.byte	0x48
	.4byte	.LASF713
	.4byte	0x453b
	.byte	0x1
	.4byte	0x426f
	.uleb128 0x19
	.4byte	0x450e
	.byte	0x1
	.uleb128 0x1b
	.4byte	0x4535
	.byte	0x0
	.uleb128 0x2b
	.byte	0x1
	.4byte	.LASF329
	.byte	0x1c
	.byte	0x49
	.4byte	.LASF714
	.4byte	0x453b
	.byte	0x1
	.4byte	0x4290
	.uleb128 0x19
	.4byte	0x450e
	.byte	0x1
	.uleb128 0x1b
	.4byte	0x4535
	.byte	0x0
	.uleb128 0x2b
	.byte	0x1
	.4byte	.LASF336
	.byte	0x1c
	.byte	0x4f
	.4byte	.LASF715
	.4byte	0x13b9
	.byte	0x1
	.4byte	0x42b1
	.uleb128 0x19
	.4byte	0x452a
	.byte	0x1
	.uleb128 0x1b
	.4byte	0x4535
	.byte	0x0
	.uleb128 0x2b
	.byte	0x1
	.4byte	.LASF336
	.byte	0x1c
	.byte	0x50
	.4byte	.LASF716
	.4byte	0x13b9
	.byte	0x1
	.4byte	0x42d7
	.uleb128 0x19
	.4byte	0x452a
	.byte	0x1
	.uleb128 0x1b
	.4byte	0x4535
	.uleb128 0x1b
	.4byte	0x10a
	.byte	0x0
	.uleb128 0x2b
	.byte	0x1
	.4byte	.LASF339
	.byte	0x1c
	.byte	0x51
	.4byte	.LASF717
	.4byte	0x13b9
	.byte	0x1
	.4byte	0x42f8
	.uleb128 0x19
	.4byte	0x452a
	.byte	0x1
	.uleb128 0x1b
	.4byte	0x4535
	.byte	0x0
	.uleb128 0x2b
	.byte	0x1
	.4byte	.LASF341
	.byte	0x1c
	.byte	0x52
	.4byte	.LASF718
	.4byte	0x13b9
	.byte	0x1
	.4byte	0x4319
	.uleb128 0x19
	.4byte	0x452a
	.byte	0x1
	.uleb128 0x1b
	.4byte	0x4535
	.byte	0x0
	.uleb128 0x2a
	.byte	0x1
	.4byte	.LASF312
	.byte	0x1c
	.byte	0x54
	.4byte	.LASF719
	.byte	0x1
	.4byte	0x4331
	.uleb128 0x19
	.4byte	0x450e
	.byte	0x1
	.byte	0x0
	.uleb128 0x2a
	.byte	0x1
	.4byte	.LASF507
	.byte	0x1c
	.byte	0x55
	.4byte	.LASF720
	.byte	0x1
	.4byte	0x4349
	.uleb128 0x19
	.4byte	0x450e
	.byte	0x1
	.byte	0x0
	.uleb128 0x2b
	.byte	0x1
	.4byte	.LASF509
	.byte	0x1c
	.byte	0x56
	.4byte	.LASF721
	.4byte	0x13b9
	.byte	0x1
	.4byte	0x436a
	.uleb128 0x19
	.4byte	0x452a
	.byte	0x1
	.uleb128 0x1b
	.4byte	0x10a
	.byte	0x0
	.uleb128 0x2b
	.byte	0x1
	.4byte	.LASF511
	.byte	0x1c
	.byte	0x57
	.4byte	.LASF722
	.4byte	0x13b9
	.byte	0x1
	.4byte	0x438b
	.uleb128 0x19
	.4byte	0x452a
	.byte	0x1
	.uleb128 0x1b
	.4byte	0x10a
	.byte	0x0
	.uleb128 0x2b
	.byte	0x1
	.4byte	.LASF513
	.byte	0x1c
	.byte	0x58
	.4byte	.LASF723
	.4byte	0x13b9
	.byte	0x1
	.4byte	0x43ac
	.uleb128 0x19
	.4byte	0x452a
	.byte	0x1
	.uleb128 0x1b
	.4byte	0x10a
	.byte	0x0
	.uleb128 0x2b
	.byte	0x1
	.4byte	.LASF524
	.byte	0x1c
	.byte	0x5a
	.4byte	.LASF724
	.4byte	0x10a
	.byte	0x1
	.4byte	0x43c8
	.uleb128 0x19
	.4byte	0x452a
	.byte	0x1
	.byte	0x0
	.uleb128 0x2b
	.byte	0x1
	.4byte	.LASF526
	.byte	0x1c
	.byte	0x5b
	.4byte	.LASF725
	.4byte	0x10a
	.byte	0x1
	.4byte	0x43e4
	.uleb128 0x19
	.4byte	0x452a
	.byte	0x1
	.byte	0x0
	.uleb128 0x2b
	.byte	0x1
	.4byte	.LASF532
	.byte	0x1c
	.byte	0x5c
	.4byte	.LASF726
	.4byte	0x407b
	.byte	0x1
	.4byte	0x4400
	.uleb128 0x19
	.4byte	0x452a
	.byte	0x1
	.byte	0x0
	.uleb128 0x2b
	.byte	0x1
	.4byte	.LASF534
	.byte	0x1c
	.byte	0x5d
	.4byte	.LASF727
	.4byte	0x453b
	.byte	0x1
	.4byte	0x441c
	.uleb128 0x19
	.4byte	0x450e
	.byte	0x1
	.byte	0x0
	.uleb128 0x2b
	.byte	0x1
	.4byte	.LASF536
	.byte	0x1c
	.byte	0x5e
	.4byte	.LASF728
	.4byte	0x407b
	.byte	0x1
	.4byte	0x4438
	.uleb128 0x19
	.4byte	0x452a
	.byte	0x1
	.byte	0x0
	.uleb128 0x2b
	.byte	0x1
	.4byte	.LASF538
	.byte	0x1c
	.byte	0x5f
	.4byte	.LASF729
	.4byte	0x13b9
	.byte	0x1
	.4byte	0x4454
	.uleb128 0x19
	.4byte	0x450e
	.byte	0x1
	.byte	0x0
	.uleb128 0x2b
	.byte	0x1
	.4byte	.LASF540
	.byte	0x1c
	.byte	0x60
	.4byte	.LASF730
	.4byte	0x407b
	.byte	0x1
	.4byte	0x4470
	.uleb128 0x19
	.4byte	0x452a
	.byte	0x1
	.byte	0x0
	.uleb128 0x2b
	.byte	0x1
	.4byte	.LASF542
	.byte	0x1c
	.byte	0x61
	.4byte	.LASF731
	.4byte	0x13b9
	.byte	0x1
	.4byte	0x448c
	.uleb128 0x19
	.4byte	0x450e
	.byte	0x1
	.byte	0x0
	.uleb128 0x2b
	.byte	0x1
	.4byte	.LASF361
	.byte	0x1c
	.byte	0x63
	.4byte	.LASF732
	.4byte	0xa7
	.byte	0x1
	.4byte	0x44a8
	.uleb128 0x19
	.4byte	0x452a
	.byte	0x1
	.byte	0x0
	.uleb128 0x2b
	.byte	0x1
	.4byte	.LASF363
	.byte	0x1c
	.byte	0x65
	.4byte	.LASF733
	.4byte	0x15cf
	.byte	0x1
	.4byte	0x44c4
	.uleb128 0x19
	.4byte	0x452a
	.byte	0x1
	.byte	0x0
	.uleb128 0x2b
	.byte	0x1
	.4byte	.LASF363
	.byte	0x1c
	.byte	0x66
	.4byte	.LASF734
	.4byte	0x16e2
	.byte	0x1
	.4byte	0x44e0
	.uleb128 0x19
	.4byte	0x450e
	.byte	0x1
	.byte	0x0
	.uleb128 0x2c
	.byte	0x1
	.4byte	.LASF366
	.byte	0x1c
	.byte	0x67
	.4byte	.LASF735
	.4byte	0xe6
	.byte	0x1
	.uleb128 0x19
	.4byte	0x452a
	.byte	0x1
	.uleb128 0x1b
	.4byte	0xa7
	.byte	0x0
	.byte	0x0
	.uleb128 0xa
	.4byte	0x16e8
	.4byte	0x450e
	.uleb128 0xb
	.4byte	0x33
	.byte	0x1
	.byte	0x0
	.uleb128 0xc
	.byte	0x4
	.4byte	0x407b
	.uleb128 0xc
	.byte	0x4
	.4byte	0x451a
	.uleb128 0xa
	.4byte	0x10a
	.4byte	0x452a
	.uleb128 0xb
	.4byte	0x33
	.byte	0x1
	.byte	0x0
	.uleb128 0xc
	.byte	0x4
	.4byte	0x4530
	.uleb128 0xd
	.4byte	0x407b
	.uleb128 0x24
	.byte	0x4
	.4byte	0x4530
	.uleb128 0x24
	.byte	0x4
	.4byte	0x407b
	.uleb128 0xa
	.4byte	0x1b5e
	.4byte	0x4551
	.uleb128 0xb
	.4byte	0x33
	.byte	0x2
	.byte	0x0
	.uleb128 0xc
	.byte	0x4
	.4byte	0x2808
	.uleb128 0xc
	.byte	0x4
	.4byte	0x455d
	.uleb128 0xa
	.4byte	0x10a
	.4byte	0x456d
	.uleb128 0xb
	.4byte	0x33
	.byte	0x2
	.byte	0x0
	.uleb128 0xc
	.byte	0x4
	.4byte	0x4573
	.uleb128 0xd
	.4byte	0x2808
	.uleb128 0x24
	.byte	0x4
	.4byte	0x4573
	.uleb128 0x24
	.byte	0x4
	.4byte	0x2808
	.uleb128 0x5
	.4byte	.LASF736
	.byte	0x10
	.byte	0x1d
	.byte	0x30
	.4byte	0x4a0e
	.uleb128 0x6
	.string	"x"
	.byte	0x1d
	.byte	0x32
	.4byte	0x10a
	.byte	0x2
	.byte	0x23
	.uleb128 0x0
	.uleb128 0x6
	.string	"y"
	.byte	0x1d
	.byte	0x33
	.4byte	0x10a
	.byte	0x2
	.byte	0x23
	.uleb128 0x4
	.uleb128 0x6
	.string	"z"
	.byte	0x1d
	.byte	0x34
	.4byte	0x10a
	.byte	0x2
	.byte	0x23
	.uleb128 0x8
	.uleb128 0x6
	.string	"w"
	.byte	0x1d
	.byte	0x35
	.4byte	0x10a
	.byte	0x2
	.byte	0x23
	.uleb128 0xc
	.uleb128 0x29
	.byte	0x1
	.4byte	.LASF736
	.byte	0x1d
	.byte	0x37
	.byte	0x1
	.4byte	0x45d4
	.uleb128 0x19
	.4byte	0x76e9
	.byte	0x1
	.byte	0x0
	.uleb128 0x29
	.byte	0x1
	.4byte	.LASF736
	.byte	0x1d
	.byte	0x38
	.byte	0x1
	.4byte	0x45fc
	.uleb128 0x19
	.4byte	0x76e9
	.byte	0x1
	.uleb128 0x1b
	.4byte	0x10a
	.uleb128 0x1b
	.4byte	0x10a
	.uleb128 0x1b
	.4byte	0x10a
	.uleb128 0x1b
	.4byte	0x10a
	.byte	0x0
	.uleb128 0x2e
	.byte	0x1
	.string	"Set"
	.byte	0x1d
	.byte	0x3a
	.4byte	.LASF737
	.byte	0x1
	.4byte	0x4628
	.uleb128 0x19
	.4byte	0x76e9
	.byte	0x1
	.uleb128 0x1b
	.4byte	0x10a
	.uleb128 0x1b
	.4byte	0x10a
	.uleb128 0x1b
	.4byte	0x10a
	.uleb128 0x1b
	.4byte	0x10a
	.byte	0x0
	.uleb128 0x2b
	.byte	0x1
	.4byte	.LASF314
	.byte	0x1d
	.byte	0x3c
	.4byte	.LASF738
	.4byte	0x10a
	.byte	0x1
	.4byte	0x4649
	.uleb128 0x19
	.4byte	0x76ef
	.byte	0x1
	.uleb128 0x1b
	.4byte	0xa7
	.byte	0x0
	.uleb128 0x2b
	.byte	0x1
	.4byte	.LASF314
	.byte	0x1d
	.byte	0x3d
	.4byte	.LASF739
	.4byte	0x15c9
	.byte	0x1
	.4byte	0x466a
	.uleb128 0x19
	.4byte	0x76e9
	.byte	0x1
	.uleb128 0x1b
	.4byte	0xa7
	.byte	0x0
	.uleb128 0x2b
	.byte	0x1
	.4byte	.LASF317
	.byte	0x1d
	.byte	0x3e
	.4byte	.LASF740
	.4byte	0x4584
	.byte	0x1
	.4byte	0x4686
	.uleb128 0x19
	.4byte	0x76ef
	.byte	0x1
	.byte	0x0
	.uleb128 0x2b
	.byte	0x1
	.4byte	.LASF281
	.byte	0x1d
	.byte	0x3f
	.4byte	.LASF741
	.4byte	0x76fa
	.byte	0x1
	.4byte	0x46a7
	.uleb128 0x19
	.4byte	0x76e9
	.byte	0x1
	.uleb128 0x1b
	.4byte	0x7700
	.byte	0x0
	.uleb128 0x2b
	.byte	0x1
	.4byte	.LASF324
	.byte	0x1d
	.byte	0x40
	.4byte	.LASF742
	.4byte	0x4584
	.byte	0x1
	.4byte	0x46c8
	.uleb128 0x19
	.4byte	0x76ef
	.byte	0x1
	.uleb128 0x1b
	.4byte	0x7700
	.byte	0x0
	.uleb128 0x2b
	.byte	0x1
	.4byte	.LASF327
	.byte	0x1d
	.byte	0x41
	.4byte	.LASF743
	.4byte	0x76fa
	.byte	0x1
	.4byte	0x46e9
	.uleb128 0x19
	.4byte	0x76e9
	.byte	0x1
	.uleb128 0x1b
	.4byte	0x7700
	.byte	0x0
	.uleb128 0x2b
	.byte	0x1
	.4byte	.LASF317
	.byte	0x1d
	.byte	0x42
	.4byte	.LASF744
	.4byte	0x4584
	.byte	0x1
	.4byte	0x470a
	.uleb128 0x19
	.4byte	0x76ef
	.byte	0x1
	.uleb128 0x1b
	.4byte	0x7700
	.byte	0x0
	.uleb128 0x2b
	.byte	0x1
	.4byte	.LASF329
	.byte	0x1d
	.byte	0x43
	.4byte	.LASF745
	.4byte	0x76fa
	.byte	0x1
	.4byte	0x472b
	.uleb128 0x19
	.4byte	0x76e9
	.byte	0x1
	.uleb128 0x1b
	.4byte	0x7700
	.byte	0x0
	.uleb128 0x2b
	.byte	0x1
	.4byte	.LASF319
	.byte	0x1d
	.byte	0x44
	.4byte	.LASF746
	.4byte	0x4584
	.byte	0x1
	.4byte	0x474c
	.uleb128 0x19
	.4byte	0x76ef
	.byte	0x1
